# ((echo aaaaaaaaaa | gzip); (echo bbbbbbbbb | gzip)) > multi_members.gz
$ fq -d gzip dv multi_members.gz
      |00 01 02 03 04 05 06 07 08 09 0a 0b 0c 0d 0e 0f|0123456789abcdef|.{}: multi_members.gz (gzip) 0x0-0x30 (48)
      |                                               |                |  members[0:2]: 0x0-0x30 (48)
      |                                               |                |    [0]{}: member 0x0-0x18 (24)
0x0000|1f 8b                                          |..              |      identification: raw bits (valid) 0x0-0x2 (2)
0x0000|      08                                       |  .             |      compression_method: "deflate" (8) 0x2-0x3 (1)
      |                                               |                |      flags{}: 0x3-0x4 (1)
0x0000|         00                                    |   .            |        text: false 0x3-0x3.1 (0.1)
0x0000|         00                                    |   .            |        header_crc: false 0x3.1-0x3.2 (0.1)
0x0000|         00                                    |   .            |        extra: false 0x3.2-0x3.3 (0.1)
0x0000|         00                                    |   .            |        name: false 0x3.3-0x3.4 (0.1)
0x0000|         00                                    |   .            |        comment: false 0x3.4-0x3.5 (0.1)
0x0000|         00                                    |   .            |        reserved: 0 0x3.5-0x4 (0.3)
0x0000|            47 f1 36 65                        |    G.6e        |      mtime: 1698099527 (2023-10-23T22:18:47Z) 0x4-0x8 (4)
0x0000|                        00                     |        .       |      extra_flags: 0 0x8-0x9 (1)
0x0000|                           03                  |         .      |      os: "unix" (3) 0x9-0xa (1)
      |00 01 02 03 04 05 06 07 08 09 0a 0b 0c 0d 0e 0f|0123456789abcdef|
  0x00|61 61 61 61 61 61 61 61 61 61 0a|              |aaaaaaaaaa.|    |      uncompressed: raw bits 0x0-0xb (11)
0x0000|                              4b 4c 84 01 2e 00|          KL....|      compressed: raw bits 0xa-0x10 (6)
0x0010|42 e5 26 8f                                    |B.&.            |      crc32: 0x8f26e542 (valid) 0x10-0x14 (4)
0x0010|            0b 00 00 00                        |    ....        |      isize: 11 0x14-0x18 (4)
      |                                               |                |    [1]{}: member 0x18-0x30 (24)
0x0010|                        1f 8b                  |        ..      |      identification: raw bits (valid) 0x18-0x1a (2)
0x0010|                              08               |          .     |      compression_method: "deflate" (8) 0x1a-0x1b (1)
      |                                               |                |      flags{}: 0x1b-0x1c (1)
0x0010|                                 00            |           .    |        text: false 0x1b-0x1b.1 (0.1)
0x0010|                                 00            |           .    |        header_crc: false 0x1b.1-0x1b.2 (0.1)
0x0010|                                 00            |           .    |        extra: false 0x1b.2-0x1b.3 (0.1)
0x0010|                                 00            |           .    |        name: false 0x1b.3-0x1b.4 (0.1)
0x0010|                                 00            |           .    |        comment: false 0x1b.4-0x1b.5 (0.1)
0x0010|                                 00            |           .    |        reserved: 0 0x1b.5-0x1c (0.3)
0x0010|                                    47 f1 36 65|            G.6e|      mtime: 1698099527 (2023-10-23T22:18:47Z) 0x1c-0x20 (4)
0x0020|00                                             |.               |      extra_flags: 0 0x20-0x21 (1)
0x0020|   03                                          | .              |      os: "unix" (3) 0x21-0x22 (1)
      |00 01 02 03 04 05 06 07 08 09 0a 0b 0c 0d 0e 0f|0123456789abcdef|
  0x00|62 62 62 62 62 62 62 62 62 0a|                 |bbbbbbbbb.|     |      uncompressed: raw bits 0x0-0xa (10)
0x0020|      4b 4a 82 02 2e 00                        |  KJ....        |      compressed: raw bits 0x22-0x28 (6)
0x0020|                        92 a5 46 01            |        ..F.    |      crc32: 0x146a592 (valid) 0x28-0x2c (4)
0x0020|                                    0a 00 00 00|            ....|      isize: 10 0x2c-0x30 (4)
      |00 01 02 03 04 05 06 07 08 09 0a 0b 0c 0d 0e 0f|0123456789abcdef|
  0x00|61 61 61 61 61 61 61 61 61 61 0a 62 62 62 62 62|aaaaaaaaaa.bbbbb|  uncompressed: raw bits 0x0-0x15 (21)
  0x01|62 62 62 62 0a|                                |bbbb.|          |
