$ fq dv link_type_raw.pcap
    |00 01 02 03 04 05 06 07 08 09 0a 0b 0c 0d 0e 0f|0123456789abcdef|.{}: link_type_raw.pcap (pcap) 0x0-0x66 (102)
    |                                               |                |  header{}: 0x0-0x18 (24)
0x00|d4 c3 b2 a1                                    |....            |    magic: "little_endian" (0xd4c3b2a1) (valid) 0x0-0x4 (4)
0x00|            02 00                              |    ..          |    version_major: 2 0x4-0x6 (2)
0x00|                  04 00                        |      ..        |    version_minor: 4 0x6-0x8 (2)
0x00|                        00 00 00 00            |        ....    |    thiszone: 0 0x8-0xc (4)
0x00|                                    00 00 00 00|            ....|    sigfigs: 0 0xc-0x10 (4)
0x10|ff ff 00 00                                    |....            |    snaplen: 65535 0x10-0x14 (4)
0x10|            65 00 00 00                        |    e...        |    network: "raw" (101) (Raw IP) 0x14-0x18 (4)
    |                                               |                |  packets[0:1]: 0x18-0x66 (78)
    |                                               |                |    [0]{}: packet 0x18-0x66 (78)
0x10|                        f3 1c 73 61            |        ..sa    |      ts_sec: 1634934003 0x18-0x1c (4)
0x10|                                    13 50 03 00|            .P..|      ts_usec: 217107 0x1c-0x20 (4)
0x20|3e 00 00 00                                    |>...            |      incl_len: 62 0x20-0x24 (4)
0x20|            3e 00 00 00                        |    >...        |      orig_len: 62 0x24-0x28 (4)
    |00 01 02 03 04 05 06 07 08 09 0a 0b 0c 0d 0e 0f|0123456789abcdef|      packet{}: (ipv4_packet) 0x28-0x66 (62)
0x20|                        45                     |        E       |        version: 4 (valid) 0x28-0x28.4 (0.4)
0x20|                        45                     |        E       |        ihl: 5 0x28.4-0x29 (0.4)
0x20|                           00                  |         .      |        dscp: 0 0x29-0x29.6 (0.6)
0x20|                           00                  |         .      |        ecn: 0 0x29.6-0x2a (0.2)
0x20|                              00 3e            |          .>    |        total_length: 62 0x2a-0x2c (2)
0x20|                                    72 9e      |            r.  |        identification: 29342 0x2c-0x2e (2)
0x20|                                          40   |              @ |        reserved: 0 0x2e-0x2e.1 (0.1)
0x20|                                          40   |              @ |        dont_fragment: true 0x2e.1-0x2e.2 (0.1)
0x20|                                          40   |              @ |        more_fragments: false 0x2e.2-0x2e.3 (0.1)
0x20|                                          40 00|              @.|        fragment_offset: 0 0x2e.3-0x30 (1.5)
0x30|40                                             |@               |        ttl: 64 0x30-0x31 (1)
0x30|   11                                          | .              |        protocol: "udp" (17) (User datagram protocol) 0x31-0x32 (1)
0x30|      58 5f                                    |  X_            |        header_checksum: 0x585f (valid) 0x32-0x34 (2)
0x30|            0a d7 ad 01                        |    ....        |        source_ip: "10.215.173.1" (0xad7ad01) 0x34-0x38 (4)
0x30|                        0a d7 ad 02            |        ....    |        destination_ip: "10.215.173.2" (0xad7ad02) 0x38-0x3c (4)
    |00 01 02 03 04 05 06 07 08 09 0a 0b 0c 0d 0e 0f|0123456789abcdef|        payload{}: (udp_datagram) 0x3c-0x66 (42)
0x30|                                    c0 ec      |            ..  |          source_port: 49388 0x3c-0x3e (2)
0x30|                                          00 35|              .5|          destination_port: "domain" (53) (Domain Name Server) 0x3e-0x40 (2)
0x40|00 2a                                          |.*              |          length: 42 0x40-0x42 (2)
0x40|      22 3e                                    |  ">            |          checksum: 0x223e 0x42-0x44 (2)
    |00 01 02 03 04 05 06 07 08 09 0a 0b 0c 0d 0e 0f|0123456789abcdef|          payload{}: (dns) 0x44-0x66 (34)
    |                                               |                |            header{}: 0x44-0x48 (4)
0x40|            b2 7a                              |    .z          |              id: 45690 0x44-0x46 (2)
0x40|                  01                           |      .         |              qr: "query" (0) 0x46-0x46.1 (0.1)
0x40|                  01                           |      .         |              opcode: "query" (0) 0x46.1-0x46.5 (0.4)
0x40|                  01                           |      .         |              authoritative_answer: false 0x46.5-0x46.6 (0.1)
0x40|                  01                           |      .         |              truncation: false 0x46.6-0x46.7 (0.1)
0x40|                  01                           |      .         |              recursion_desired: true 0x46.7-0x47 (0.1)
0x40|                     00                        |       .        |              recursion_available: false 0x47-0x47.1 (0.1)
0x40|                     00                        |       .        |              z: 0 0x47.1-0x47.4 (0.3)
0x40|                     00                        |       .        |              rcode: "no_error" (0) (No error) 0x47.4-0x48 (0.4)
0x40|                        00 01                  |        ..      |            qd_count: 1 0x48-0x4a (2)
0x40|                              00 00            |          ..    |            an_count: 0 0x4a-0x4c (2)
0x40|                                    00 00      |            ..  |            ns_count: 0 0x4c-0x4e (2)
0x40|                                          00 00|              ..|            ar_count: 0 0x4e-0x50 (2)
    |                                               |                |            questions[0:1]: 0x50-0x66 (22)
    |                                               |                |              [0]{}: question 0x50-0x66 (22)
    |                                               |                |                name{}: 0x50-0x62 (18)
    |                                               |                |                  labels[0:4]: 0x50-0x62 (18)
    |                                               |                |                    [0]{}: label 0x50-0x56 (6)
0x50|05                                             |.               |                      length: 5 0x50-0x51 (1)
0x50|   6d 74 61 6c 6b                              | mtalk          |                      value: "mtalk" 0x51-0x56 (5)
    |                                               |                |                    [1]{}: label 0x56-0x5d (7)
0x50|                  06                           |      .         |                      length: 6 0x56-0x57 (1)
0x50|                     67 6f 6f 67 6c 65         |       google   |                      value: "google" 0x57-0x5d (6)
    |                                               |                |                    [2]{}: label 0x5d-0x61 (4)
0x50|                                       03      |             .  |                      length: 3 0x5d-0x5e (1)
0x50|                                          63 6f|              co|                      value: "com" 0x5e-0x61 (3)
0x60|6d                                             |m               |
    |                                               |                |                    [3]{}: label 0x61-0x62 (1)
0x60|   00                                          | .              |                      length: 0 0x61-0x62 (1)
    |                                               |                |                  value: "mtalk.google.com"
0x60|      00 1c                                    |  ..            |                type: "aaaa" (28) 0x62-0x64 (2)
0x60|            00 01|                             |    ..|         |                class: "in" (1) (Internet) 0x64-0x66 (2)
    |                                               |                |            answers[0:0]: 0x66-0x66 (0)
    |                                               |                |            nameservers[0:0]: 0x66-0x66 (0)
    |                                               |                |            additionals[0:0]: 0x66-0x66 (0)
    |                                               |                |  ipv4_reassembled[0:0]: 0x66-0x66 (0)
    |                                               |                |  tcp_connections[0:0]: 0x66-0x66 (0)
