$ fq -d pcap dv sll2_tcp.pcap
     |00 01 02 03 04 05 06 07 08 09 0a 0b 0c 0d 0e 0f|0123456789abcdef|.{}: sll2_tcp.pcap (pcap) 0x0-0x1e5 (485)
     |                                               |                |  header{}: 0x0-0x18 (24)
0x000|d4 c3 b2 a1                                    |....            |    magic: "little_endian" (0xd4c3b2a1) (valid) 0x0-0x4 (4)
0x000|            02 00                              |    ..          |    version_major: 2 0x4-0x6 (2)
0x000|                  04 00                        |      ..        |    version_minor: 4 0x6-0x8 (2)
0x000|                        00 00 00 00            |        ....    |    thiszone: 0 0x8-0xc (4)
0x000|                                    00 00 00 00|            ....|    sigfigs: 0 0xc-0x10 (4)
0x010|00 00 04 00                                    |....            |    snaplen: 262144 0x10-0x14 (4)
0x010|            14 01 00 00                        |    ....        |    network: "linux_sll2" (276) (Linux "cooked" capture encapsulation v2) 0x14-0x18 (4)
     |                                               |                |  packets[0:5]: 0x18-0x1e5 (461)
     |                                               |                |    [0]{}: packet 0x18-0x78 (96)
0x010|                        44 08 a5 61            |        D..a    |      ts_sec: 1638205508 0x18-0x1c (4)
0x010|                                    29 c1 0b 00|            )...|      ts_usec: 770345 0x1c-0x20 (4)
0x020|50 00 00 00                                    |P...            |      incl_len: 80 0x20-0x24 (4)
0x020|            50 00 00 00                        |    P...        |      orig_len: 80 0x24-0x28 (4)
     |00 01 02 03 04 05 06 07 08 09 0a 0b 0c 0d 0e 0f|0123456789abcdef|      packet{}: (sll2_packet) 0x28-0x78 (80)
0x020|                        08 00                  |        ..      |        protocol_type: "ipv4" (0x800) (Internet Protocol version 4) 0x28-0x2a (2)
0x020|                              00 00            |          ..    |        reserved: 0 0x2a-0x2c (2)
0x020|                                    00 00 00 01|            ....|        interface_index: 1 0x2c-0x30 (4)
0x030|03 04                                          |..              |        arphdr_type: "loopback" (772) (Loopback device) 0x30-0x32 (2)
0x030|      00                                       |  .             |        packet_type: "to_us" (0) (Sent to us) 0x32-0x33 (1)
0x030|         06                                    |   .            |        link_address_length: 6 (valid) 0x33-0x34 (1)
0x030|            00 00 00 00 00 00                  |    ......      |        link_address: "00:00:00:00:00:00" (0x0) 0x34-0x3a (6)
0x030|                              00 00            |          ..    |        padding: raw bits 0x3a-0x3c (2)
     |00 01 02 03 04 05 06 07 08 09 0a 0b 0c 0d 0e 0f|0123456789abcdef|        payload{}: (ipv4_packet) 0x3c-0x78 (60)
0x030|                                    45         |            E   |          version: 4 (valid) 0x3c-0x3c.4 (0.4)
0x030|                                    45         |            E   |          ihl: 5 0x3c.4-0x3d (0.4)
0x030|                                       00      |             .  |          dscp: 0 0x3d-0x3d.6 (0.6)
0x030|                                       00      |             .  |          ecn: 0 0x3d.6-0x3e (0.2)
0x030|                                          00 3c|              .<|          total_length: 60 0x3e-0x40 (2)
0x040|af 93                                          |..              |          identification: 44947 0x40-0x42 (2)
0x040|      40                                       |  @             |          reserved: 0 0x42-0x42.1 (0.1)
0x040|      40                                       |  @             |          dont_fragment: true 0x42.1-0x42.2 (0.1)
0x040|      40                                       |  @             |          more_fragments: false 0x42.2-0x42.3 (0.1)
0x040|      40 00                                    |  @.            |          fragment_offset: 0 0x42.3-0x44 (1.5)
0x040|            40                                 |    @           |          ttl: 64 0x44-0x45 (1)
0x040|               06                              |     .          |          protocol: "tcp" (6) (Transmission control protocol) 0x45-0x46 (1)
0x040|                  8d 26                        |      .&        |          header_checksum: 0x8d26 (valid) 0x46-0x48 (2)
0x040|                        7f 00 00 01            |        ....    |          source_ip: "127.0.0.1" (0x7f000001) 0x48-0x4c (4)
0x040|                                    7f 00 00 01|            ....|          destination_ip: "127.0.0.1" (0x7f000001) 0x4c-0x50 (4)
     |00 01 02 03 04 05 06 07 08 09 0a 0b 0c 0d 0e 0f|0123456789abcdef|          payload{}: (tcp_segment) 0x50-0x78 (40)
0x050|b8 46                                          |.F              |            source_port: 47174 0x50-0x52 (2)
0x050|      04 d2                                    |  ..            |            destination_port: 1234 0x52-0x54 (2)
0x050|            4e 2a 3f da                        |    N*?.        |            sequence_number: 1311391706 0x54-0x58 (4)
0x050|                        00 00 00 00            |        ....    |            acknowledgment_number: 0 0x58-0x5c (4)
0x050|                                    a0         |            .   |            data_offset: 10 0x5c-0x5c.4 (0.4)
0x050|                                    a0         |            .   |            reserved: 0 0x5c.4-0x5c.7 (0.3)
0x050|                                    a0         |            .   |            ns: false 0x5c.7-0x5d (0.1)
0x050|                                       02      |             .  |            cwr: false 0x5d-0x5d.1 (0.1)
0x050|                                       02      |             .  |            ece: false 0x5d.1-0x5d.2 (0.1)
0x050|                                       02      |             .  |            urg: false 0x5d.2-0x5d.3 (0.1)
0x050|                                       02      |             .  |            ack: false 0x5d.3-0x5d.4 (0.1)
0x050|                                       02      |             .  |            psh: false 0x5d.4-0x5d.5 (0.1)
0x050|                                       02      |             .  |            rst: false 0x5d.5-0x5d.6 (0.1)
0x050|                                       02      |             .  |            syn: true 0x5d.6-0x5d.7 (0.1)
0x050|                                       02      |             .  |            fin: false 0x5d.7-0x5e (0.1)
0x050|                                          ff d7|              ..|            window_size: 65495 0x5e-0x60 (2)
0x060|fe 30                                          |.0              |            checksum: 0xfe30 0x60-0x62 (2)
0x060|      00 00                                    |  ..            |            urgent_pointer: 0 0x62-0x64 (2)
     |                                               |                |            options[0:5]: 0x64-0x78 (20)
     |                                               |                |              [0]{}: option 0x64-0x68 (4)
0x060|            02                                 |    .           |                kind: "mss" (2) (Maximum segment size) 0x64-0x65 (1)
0x060|               04                              |     .          |                length: 4 0x65-0x66 (1)
0x060|                  ff d7                        |      ..        |                size: 65495 0x66-0x68 (2)
     |                                               |                |              [1]{}: option 0x68-0x6a (2)
0x060|                        04                     |        .       |                kind: "sack_permitted" (4) (Selective Acknowledgement permitted) 0x68-0x69 (1)
0x060|                           02                  |         .      |                length: 2 0x69-0x6a (1)
     |                                               |                |              [2]{}: option 0x6a-0x74 (10)
0x060|                              08               |          .     |                kind: "timestamp" (8) (Timestamp and echo of previous timestamp) 0x6a-0x6b (1)
0x060|                                 0a            |           .    |                length: 10 0x6b-0x6c (1)
0x060|                                    e4 67 f5 17|            .g..|                value: 3832018199 0x6c-0x70 (4)
0x070|00 00 00 00                                    |....            |                echo_reply: 0 0x70-0x74 (4)
     |                                               |                |              [3]{}: option 0x74-0x75 (1)
0x070|            01                                 |    .           |                kind: "nop" (1) (No operation) 0x74-0x75 (1)
     |                                               |                |              [4]{}: option 0x75-0x78 (3)
0x070|               03                              |     .          |                kind: "winscale" (3) (Window scale) 0x75-0x76 (1)
0x070|                  03                           |      .         |                length: 3 0x76-0x77 (1)
0x070|                     07                        |       .        |                shift: 7 0x77-0x78 (1)
     |                                               |                |            payload: raw bits 0x78-0x78 (0)
     |                                               |                |    [1]{}: packet 0x78-0xd8 (96)
0x070|                        44 08 a5 61            |        D..a    |      ts_sec: 1638205508 0x78-0x7c (4)
0x070|                                    40 c1 0b 00|            @...|      ts_usec: 770368 0x7c-0x80 (4)
0x080|50 00 00 00                                    |P...            |      incl_len: 80 0x80-0x84 (4)
0x080|            50 00 00 00                        |    P...        |      orig_len: 80 0x84-0x88 (4)
     |00 01 02 03 04 05 06 07 08 09 0a 0b 0c 0d 0e 0f|0123456789abcdef|      packet{}: (sll2_packet) 0x88-0xd8 (80)
0x080|                        08 00                  |        ..      |        protocol_type: "ipv4" (0x800) (Internet Protocol version 4) 0x88-0x8a (2)
0x080|                              00 00            |          ..    |        reserved: 0 0x8a-0x8c (2)
0x080|                                    00 00 00 01|            ....|        interface_index: 1 0x8c-0x90 (4)
0x090|03 04                                          |..              |        arphdr_type: "loopback" (772) (Loopback device) 0x90-0x92 (2)
0x090|      00                                       |  .             |        packet_type: "to_us" (0) (Sent to us) 0x92-0x93 (1)
0x090|         06                                    |   .            |        link_address_length: 6 (valid) 0x93-0x94 (1)
0x090|            00 00 00 00 00 00                  |    ......      |        link_address: "00:00:00:00:00:00" (0x0) 0x94-0x9a (6)
0x090|                              00 00            |          ..    |        padding: raw bits 0x9a-0x9c (2)
     |00 01 02 03 04 05 06 07 08 09 0a 0b 0c 0d 0e 0f|0123456789abcdef|        payload{}: (ipv4_packet) 0x9c-0xd8 (60)
0x090|                                    45         |            E   |          version: 4 (valid) 0x9c-0x9c.4 (0.4)
0x090|                                    45         |            E   |          ihl: 5 0x9c.4-0x9d (0.4)
0x090|                                       00      |             .  |          dscp: 0 0x9d-0x9d.6 (0.6)
0x090|                                       00      |             .  |          ecn: 0 0x9d.6-0x9e (0.2)
0x090|                                          00 3c|              .<|          total_length: 60 0x9e-0xa0 (2)
0x0a0|00 00                                          |..              |          identification: 0 0xa0-0xa2 (2)
0x0a0|      40                                       |  @             |          reserved: 0 0xa2-0xa2.1 (0.1)
0x0a0|      40                                       |  @             |          dont_fragment: true 0xa2.1-0xa2.2 (0.1)
0x0a0|      40                                       |  @             |          more_fragments: false 0xa2.2-0xa2.3 (0.1)
0x0a0|      40 00                                    |  @.            |          fragment_offset: 0 0xa2.3-0xa4 (1.5)
0x0a0|            40                                 |    @           |          ttl: 64 0xa4-0xa5 (1)
0x0a0|               06                              |     .          |          protocol: "tcp" (6) (Transmission control protocol) 0xa5-0xa6 (1)
0x0a0|                  3c ba                        |      <.        |          header_checksum: 0x3cba (valid) 0xa6-0xa8 (2)
0x0a0|                        7f 00 00 01            |        ....    |          source_ip: "127.0.0.1" (0x7f000001) 0xa8-0xac (4)
0x0a0|                                    7f 00 00 01|            ....|          destination_ip: "127.0.0.1" (0x7f000001) 0xac-0xb0 (4)
     |00 01 02 03 04 05 06 07 08 09 0a 0b 0c 0d 0e 0f|0123456789abcdef|          payload{}: (tcp_segment) 0xb0-0xd8 (40)
0x0b0|04 d2                                          |..              |            source_port: 1234 0xb0-0xb2 (2)
0x0b0|      b8 46                                    |  .F            |            destination_port: 47174 0xb2-0xb4 (2)
0x0b0|            ce 52 26 de                        |    .R&.        |            sequence_number: 3461490398 0xb4-0xb8 (4)
0x0b0|                        4e 2a 3f db            |        N*?.    |            acknowledgment_number: 1311391707 0xb8-0xbc (4)
0x0b0|                                    a0         |            .   |            data_offset: 10 0xbc-0xbc.4 (0.4)
0x0b0|                                    a0         |            .   |            reserved: 0 0xbc.4-0xbc.7 (0.3)
0x0b0|                                    a0         |            .   |            ns: false 0xbc.7-0xbd (0.1)
0x0b0|                                       12      |             .  |            cwr: false 0xbd-0xbd.1 (0.1)
0x0b0|                                       12      |             .  |            ece: false 0xbd.1-0xbd.2 (0.1)
0x0b0|                                       12      |             .  |            urg: false 0xbd.2-0xbd.3 (0.1)
0x0b0|                                       12      |             .  |            ack: true 0xbd.3-0xbd.4 (0.1)
0x0b0|                                       12      |             .  |            psh: false 0xbd.4-0xbd.5 (0.1)
0x0b0|                                       12      |             .  |            rst: false 0xbd.5-0xbd.6 (0.1)
0x0b0|                                       12      |             .  |            syn: true 0xbd.6-0xbd.7 (0.1)
0x0b0|                                       12      |             .  |            fin: false 0xbd.7-0xbe (0.1)
0x0b0|                                          ff cb|              ..|            window_size: 65483 0xbe-0xc0 (2)
0x0c0|fe 30                                          |.0              |            checksum: 0xfe30 0xc0-0xc2 (2)
0x0c0|      00 00                                    |  ..            |            urgent_pointer: 0 0xc2-0xc4 (2)
     |                                               |                |            options[0:5]: 0xc4-0xd8 (20)
     |                                               |                |              [0]{}: option 0xc4-0xc8 (4)
0x0c0|            02                                 |    .           |                kind: "mss" (2) (Maximum segment size) 0xc4-0xc5 (1)
0x0c0|               04                              |     .          |                length: 4 0xc5-0xc6 (1)
0x0c0|                  ff d7                        |      ..        |                size: 65495 0xc6-0xc8 (2)
     |                                               |                |              [1]{}: option 0xc8-0xca (2)
0x0c0|                        04                     |        .       |                kind: "sack_permitted" (4) (Selective Acknowledgement permitted) 0xc8-0xc9 (1)
0x0c0|                           02                  |         .      |                length: 2 0xc9-0xca (1)
     |                                               |                |              [2]{}: option 0xca-0xd4 (10)
0x0c0|                              08               |          .     |                kind: "timestamp" (8) (Timestamp and echo of previous timestamp) 0xca-0xcb (1)
0x0c0|                                 0a            |           .    |                length: 10 0xcb-0xcc (1)
0x0c0|                                    e4 67 f5 17|            .g..|                value: 3832018199 0xcc-0xd0 (4)
0x0d0|e4 67 f5 17                                    |.g..            |                echo_reply: 3832018199 0xd0-0xd4 (4)
     |                                               |                |              [3]{}: option 0xd4-0xd5 (1)
0x0d0|            01                                 |    .           |                kind: "nop" (1) (No operation) 0xd4-0xd5 (1)
     |                                               |                |              [4]{}: option 0xd5-0xd8 (3)
0x0d0|               03                              |     .          |                kind: "winscale" (3) (Window scale) 0xd5-0xd6 (1)
0x0d0|                  03                           |      .         |                length: 3 0xd6-0xd7 (1)
0x0d0|                     07                        |       .        |                shift: 7 0xd7-0xd8 (1)
     |                                               |                |            payload: raw bits 0xd8-0xd8 (0)
     |                                               |                |    [2]{}: packet 0xd8-0x130 (88)
0x0d0|                        44 08 a5 61            |        D..a    |      ts_sec: 1638205508 0xd8-0xdc (4)
0x0d0|                                    51 c1 0b 00|            Q...|      ts_usec: 770385 0xdc-0xe0 (4)
0x0e0|48 00 00 00                                    |H...            |      incl_len: 72 0xe0-0xe4 (4)
0x0e0|            48 00 00 00                        |    H...        |      orig_len: 72 0xe4-0xe8 (4)
     |00 01 02 03 04 05 06 07 08 09 0a 0b 0c 0d 0e 0f|0123456789abcdef|      packet{}: (sll2_packet) 0xe8-0x130 (72)
0x0e0|                        08 00                  |        ..      |        protocol_type: "ipv4" (0x800) (Internet Protocol version 4) 0xe8-0xea (2)
0x0e0|                              00 00            |          ..    |        reserved: 0 0xea-0xec (2)
0x0e0|                                    00 00 00 01|            ....|        interface_index: 1 0xec-0xf0 (4)
0x0f0|03 04                                          |..              |        arphdr_type: "loopback" (772) (Loopback device) 0xf0-0xf2 (2)
0x0f0|      00                                       |  .             |        packet_type: "to_us" (0) (Sent to us) 0xf2-0xf3 (1)
0x0f0|         06                                    |   .            |        link_address_length: 6 (valid) 0xf3-0xf4 (1)
0x0f0|            00 00 00 00 00 00                  |    ......      |        link_address: "00:00:00:00:00:00" (0x0) 0xf4-0xfa (6)
0x0f0|                              00 00            |          ..    |        padding: raw bits 0xfa-0xfc (2)
     |00 01 02 03 04 05 06 07 08 09 0a 0b 0c 0d 0e 0f|0123456789abcdef|        payload{}: (ipv4_packet) 0xfc-0x130 (52)
0x0f0|                                    45         |            E   |          version: 4 (valid) 0xfc-0xfc.4 (0.4)
0x0f0|                                    45         |            E   |          ihl: 5 0xfc.4-0xfd (0.4)
0x0f0|                                       00      |             .  |          dscp: 0 0xfd-0xfd.6 (0.6)
0x0f0|                                       00      |             .  |          ecn: 0 0xfd.6-0xfe (0.2)
0x0f0|                                          00 34|              .4|          total_length: 52 0xfe-0x100 (2)
0x100|af 94                                          |..              |          identification: 44948 0x100-0x102 (2)
0x100|      40                                       |  @             |          reserved: 0 0x102-0x102.1 (0.1)
0x100|      40                                       |  @             |          dont_fragment: true 0x102.1-0x102.2 (0.1)
0x100|      40                                       |  @             |          more_fragments: false 0x102.2-0x102.3 (0.1)
0x100|      40 00                                    |  @.            |          fragment_offset: 0 0x102.3-0x104 (1.5)
0x100|            40                                 |    @           |          ttl: 64 0x104-0x105 (1)
0x100|               06                              |     .          |          protocol: "tcp" (6) (Transmission control protocol) 0x105-0x106 (1)
0x100|                  8d 2d                        |      .-        |          header_checksum: 0x8d2d (valid) 0x106-0x108 (2)
0x100|                        7f 00 00 01            |        ....    |          source_ip: "127.0.0.1" (0x7f000001) 0x108-0x10c (4)
0x100|                                    7f 00 00 01|            ....|          destination_ip: "127.0.0.1" (0x7f000001) 0x10c-0x110 (4)
     |00 01 02 03 04 05 06 07 08 09 0a 0b 0c 0d 0e 0f|0123456789abcdef|          payload{}: (tcp_segment) 0x110-0x130 (32)
0x110|b8 46                                          |.F              |            source_port: 47174 0x110-0x112 (2)
0x110|      04 d2                                    |  ..            |            destination_port: 1234 0x112-0x114 (2)
0x110|            4e 2a 3f db                        |    N*?.        |            sequence_number: 1311391707 0x114-0x118 (4)
0x110|                        ce 52 26 df            |        .R&.    |            acknowledgment_number: 3461490399 0x118-0x11c (4)
0x110|                                    80         |            .   |            data_offset: 8 0x11c-0x11c.4 (0.4)
0x110|                                    80         |            .   |            reserved: 0 0x11c.4-0x11c.7 (0.3)
0x110|                                    80         |            .   |            ns: false 0x11c.7-0x11d (0.1)
0x110|                                       10      |             .  |            cwr: false 0x11d-0x11d.1 (0.1)
0x110|                                       10      |             .  |            ece: false 0x11d.1-0x11d.2 (0.1)
0x110|                                       10      |             .  |            urg: false 0x11d.2-0x11d.3 (0.1)
0x110|                                       10      |             .  |            ack: true 0x11d.3-0x11d.4 (0.1)
0x110|                                       10      |             .  |            psh: false 0x11d.4-0x11d.5 (0.1)
0x110|                                       10      |             .  |            rst: false 0x11d.5-0x11d.6 (0.1)
0x110|                                       10      |             .  |            syn: false 0x11d.6-0x11d.7 (0.1)
0x110|                                       10      |             .  |            fin: false 0x11d.7-0x11e (0.1)
0x110|                                          02 00|              ..|            window_size: 512 0x11e-0x120 (2)
0x120|fe 28                                          |.(              |            checksum: 0xfe28 0x120-0x122 (2)
0x120|      00 00                                    |  ..            |            urgent_pointer: 0 0x122-0x124 (2)
     |                                               |                |            options[0:3]: 0x124-0x130 (12)
     |                                               |                |              [0]{}: option 0x124-0x125 (1)
0x120|            01                                 |    .           |                kind: "nop" (1) (No operation) 0x124-0x125 (1)
     |                                               |                |              [1]{}: option 0x125-0x126 (1)
0x120|               01                              |     .          |                kind: "nop" (1) (No operation) 0x125-0x126 (1)
     |                                               |                |              [2]{}: option 0x126-0x130 (10)
0x120|                  08                           |      .         |                kind: "timestamp" (8) (Timestamp and echo of previous timestamp) 0x126-0x127 (1)
0x120|                     0a                        |       .        |                length: 10 0x127-0x128 (1)
0x120|                        e4 67 f5 17            |        .g..    |                value: 3832018199 0x128-0x12c (4)
0x120|                                    e4 67 f5 17|            .g..|                echo_reply: 3832018199 0x12c-0x130 (4)
     |                                               |                |            payload: raw bits 0x130-0x130 (0)
     |                                               |                |    [3]{}: packet 0x130-0x18d (93)
0x130|44 08 a5 61                                    |D..a            |      ts_sec: 1638205508 0x130-0x134 (4)
0x130|            d0 c1 0b 00                        |    ....        |      ts_usec: 770512 0x134-0x138 (4)
0x130|                        4d 00 00 00            |        M...    |      incl_len: 77 0x138-0x13c (4)
0x130|                                    4d 00 00 00|            M...|      orig_len: 77 0x13c-0x140 (4)
     |00 01 02 03 04 05 06 07 08 09 0a 0b 0c 0d 0e 0f|0123456789abcdef|      packet{}: (sll2_packet) 0x140-0x18d (77)
0x140|08 00                                          |..              |        protocol_type: "ipv4" (0x800) (Internet Protocol version 4) 0x140-0x142 (2)
0x140|      00 00                                    |  ..            |        reserved: 0 0x142-0x144 (2)
0x140|            00 00 00 01                        |    ....        |        interface_index: 1 0x144-0x148 (4)
0x140|                        03 04                  |        ..      |        arphdr_type: "loopback" (772) (Loopback device) 0x148-0x14a (2)
0x140|                              00               |          .     |        packet_type: "to_us" (0) (Sent to us) 0x14a-0x14b (1)
0x140|                                 06            |           .    |        link_address_length: 6 (valid) 0x14b-0x14c (1)
0x140|                                    00 00 00 00|            ....|        link_address: "00:00:00:00:00:00" (0x0) 0x14c-0x152 (6)
0x150|00 00                                          |..              |
0x150|      00 00                                    |  ..            |        padding: raw bits 0x152-0x154 (2)
     |00 01 02 03 04 05 06 07 08 09 0a 0b 0c 0d 0e 0f|0123456789abcdef|        payload{}: (ipv4_packet) 0x154-0x18d (57)
0x150|            45                                 |    E           |          version: 4 (valid) 0x154-0x154.4 (0.4)
0x150|            45                                 |    E           |          ihl: 5 0x154.4-0x155 (0.4)
0x150|               00                              |     .          |          dscp: 0 0x155-0x155.6 (0.6)
0x150|               00                              |     .          |          ecn: 0 0x155.6-0x156 (0.2)
0x150|                  00 39                        |      .9        |          total_length: 57 0x156-0x158 (2)
0x150|                        af 95                  |        ..      |          identification: 44949 0x158-0x15a (2)
0x150|                              40               |          @     |          reserved: 0 0x15a-0x15a.1 (0.1)
0x150|                              40               |          @     |          dont_fragment: true 0x15a.1-0x15a.2 (0.1)
0x150|                              40               |          @     |          more_fragments: false 0x15a.2-0x15a.3 (0.1)
0x150|                              40 00            |          @.    |          fragment_offset: 0 0x15a.3-0x15c (1.5)
0x150|                                    40         |            @   |          ttl: 64 0x15c-0x15d (1)
0x150|                                       06      |             .  |          protocol: "tcp" (6) (Transmission control protocol) 0x15d-0x15e (1)
0x150|                                          8d 27|              .'|          header_checksum: 0x8d27 (valid) 0x15e-0x160 (2)
0x160|7f 00 00 01                                    |....            |          source_ip: "127.0.0.1" (0x7f000001) 0x160-0x164 (4)
0x160|            7f 00 00 01                        |    ....        |          destination_ip: "127.0.0.1" (0x7f000001) 0x164-0x168 (4)
     |00 01 02 03 04 05 06 07 08 09 0a 0b 0c 0d 0e 0f|0123456789abcdef|          payload{}: (tcp_segment) 0x168-0x18d (37)
0x160|                        b8 46                  |        .F      |            source_port: 47174 0x168-0x16a (2)
0x160|                              04 d2            |          ..    |            destination_port: 1234 0x16a-0x16c (2)
0x160|                                    4e 2a 3f db|            N*?.|            sequence_number: 1311391707 0x16c-0x170 (4)
0x170|ce 52 26 df                                    |.R&.            |            acknowledgment_number: 3461490399 0x170-0x174 (4)
0x170|            80                                 |    .           |            data_offset: 8 0x174-0x174.4 (0.4)
0x170|            80                                 |    .           |            reserved: 0 0x174.4-0x174.7 (0.3)
0x170|            80                                 |    .           |            ns: false 0x174.7-0x175 (0.1)
0x170|               18                              |     .          |            cwr: false 0x175-0x175.1 (0.1)
0x170|               18                              |     .          |            ece: false 0x175.1-0x175.2 (0.1)
0x170|               18                              |     .          |            urg: false 0x175.2-0x175.3 (0.1)
0x170|               18                              |     .          |            ack: true 0x175.3-0x175.4 (0.1)
0x170|               18                              |     .          |            psh: true 0x175.4-0x175.5 (0.1)
0x170|               18                              |     .          |            rst: false 0x175.5-0x175.6 (0.1)
0x170|               18                              |     .          |            syn: false 0x175.6-0x175.7 (0.1)
0x170|               18                              |     .          |            fin: false 0x175.7-0x176 (0.1)
0x170|                  02 00                        |      ..        |            window_size: 512 0x176-0x178 (2)
0x170|                        fe 2d                  |        .-      |            checksum: 0xfe2d 0x178-0x17a (2)
0x170|                              00 00            |          ..    |            urgent_pointer: 0 0x17a-0x17c (2)
     |                                               |                |            options[0:3]: 0x17c-0x188 (12)
     |                                               |                |              [0]{}: option 0x17c-0x17d (1)
0x170|                                    01         |            .   |                kind: "nop" (1) (No operation) 0x17c-0x17d (1)
     |                                               |                |              [1]{}: option 0x17d-0x17e (1)
0x170|                                       01      |             .  |                kind: "nop" (1) (No operation) 0x17d-0x17e (1)
     |                                               |                |              [2]{}: option 0x17e-0x188 (10)
0x170|                                          08   |              . |                kind: "timestamp" (8) (Timestamp and echo of previous timestamp) 0x17e-0x17f (1)
0x170|                                             0a|               .|                length: 10 0x17f-0x180 (1)
0x180|e4 67 f5 17                                    |.g..            |                value: 3832018199 0x180-0x184 (4)
0x180|            e4 67 f5 17                        |    .g..        |                echo_reply: 3832018199 0x184-0x188 (4)
0x180|                        74 65 73 74 0a         |        test.   |            payload: raw bits 0x188-0x18d (5)
     |                                               |                |    [4]{}: packet 0x18d-0x1e5 (88)
0x180|                                       44 08 a5|             D..|      ts_sec: 1638205508 0x18d-0x191 (4)
0x190|61                                             |a               |
0x190|   d7 c1 0b 00                                 | ....           |      ts_usec: 770519 0x191-0x195 (4)
0x190|               48 00 00 00                     |     H...       |      incl_len: 72 0x195-0x199 (4)
0x190|                           48 00 00 00         |         H...   |      orig_len: 72 0x199-0x19d (4)
     |00 01 02 03 04 05 06 07 08 09 0a 0b 0c 0d 0e 0f|0123456789abcdef|      packet{}: (sll2_packet) 0x19d-0x1e5 (72)
0x190|                                       08 00   |             .. |        protocol_type: "ipv4" (0x800) (Internet Protocol version 4) 0x19d-0x19f (2)
0x190|                                             00|               .|        reserved: 0 0x19f-0x1a1 (2)
0x1a0|00                                             |.               |
0x1a0|   00 00 00 01                                 | ....           |        interface_index: 1 0x1a1-0x1a5 (4)
0x1a0|               03 04                           |     ..         |        arphdr_type: "loopback" (772) (Loopback device) 0x1a5-0x1a7 (2)
0x1a0|                     00                        |       .        |        packet_type: "to_us" (0) (Sent to us) 0x1a7-0x1a8 (1)
0x1a0|                        06                     |        .       |        link_address_length: 6 (valid) 0x1a8-0x1a9 (1)
0x1a0|                           00 00 00 00 00 00   |         ...... |        link_address: "00:00:00:00:00:00" (0x0) 0x1a9-0x1af (6)
0x1a0|                                             00|               .|        padding: raw bits 0x1af-0x1b1 (2)
0x1b0|00                                             |.               |
     |00 01 02 03 04 05 06 07 08 09 0a 0b 0c 0d 0e 0f|0123456789abcdef|        payload{}: (ipv4_packet) 0x1b1-0x1e5 (52)
0x1b0|   45                                          | E              |          version: 4 (valid) 0x1b1-0x1b1.4 (0.4)
0x1b0|   45                                          | E              |          ihl: 5 0x1b1.4-0x1b2 (0.4)
0x1b0|      00                                       |  .             |          dscp: 0 0x1b2-0x1b2.6 (0.6)
0x1b0|      00                                       |  .             |          ecn: 0 0x1b2.6-0x1b3 (0.2)
0x1b0|         00 34                                 |   .4           |          total_length: 52 0x1b3-0x1b5 (2)
0x1b0|               17 00                           |     ..         |          identification: 5888 0x1b5-0x1b7 (2)
0x1b0|                     40                        |       @        |          reserved: 0 0x1b7-0x1b7.1 (0.1)
0x1b0|                     40                        |       @        |          dont_fragment: true 0x1b7.1-0x1b7.2 (0.1)
0x1b0|                     40                        |       @        |          more_fragments: false 0x1b7.2-0x1b7.3 (0.1)
0x1b0|                     40 00                     |       @.       |          fragment_offset: 0 0x1b7.3-0x1b9 (1.5)
0x1b0|                           40                  |         @      |          ttl: 64 0x1b9-0x1ba (1)
0x1b0|                              06               |          .     |          protocol: "tcp" (6) (Transmission control protocol) 0x1ba-0x1bb (1)
0x1b0|                                 25 c2         |           %.   |          header_checksum: 0x25c2 (valid) 0x1bb-0x1bd (2)
0x1b0|                                       7f 00 00|             ...|          source_ip: "127.0.0.1" (0x7f000001) 0x1bd-0x1c1 (4)
0x1c0|01                                             |.               |
0x1c0|   7f 00 00 01                                 | ....           |          destination_ip: "127.0.0.1" (0x7f000001) 0x1c1-0x1c5 (4)
     |00 01 02 03 04 05 06 07 08 09 0a 0b 0c 0d 0e 0f|0123456789abcdef|          payload{}: (tcp_segment) 0x1c5-0x1e5 (32)
0x1c0|               04 d2                           |     ..         |            source_port: 1234 0x1c5-0x1c7 (2)
0x1c0|                     b8 46                     |       .F       |            destination_port: 47174 0x1c7-0x1c9 (2)
0x1c0|                           ce 52 26 df         |         .R&.   |            sequence_number: 3461490399 0x1c9-0x1cd (4)
0x1c0|                                       4e 2a 3f|             N*?|            acknowledgment_number: 1311391712 0x1cd-0x1d1 (4)
0x1d0|e0                                             |.               |
0x1d0|   80                                          | .              |            data_offset: 8 0x1d1-0x1d1.4 (0.4)
0x1d0|   80                                          | .              |            reserved: 0 0x1d1.4-0x1d1.7 (0.3)
0x1d0|   80                                          | .              |            ns: false 0x1d1.7-0x1d2 (0.1)
0x1d0|      10                                       |  .             |            cwr: false 0x1d2-0x1d2.1 (0.1)
0x1d0|      10                                       |  .             |            ece: false 0x1d2.1-0x1d2.2 (0.1)
0x1d0|      10                                       |  .             |            urg: false 0x1d2.2-0x1d2.3 (0.1)
0x1d0|      10                                       |  .             |            ack: true 0x1d2.3-0x1d2.4 (0.1)
0x1d0|      10                                       |  .             |            psh: false 0x1d2.4-0x1d2.5 (0.1)
0x1d0|      10                                       |  .             |            rst: false 0x1d2.5-0x1d2.6 (0.1)
0x1d0|      10                                       |  .             |            syn: false 0x1d2.6-0x1d2.7 (0.1)
0x1d0|      10                                       |  .             |            fin: false 0x1d2.7-0x1d3 (0.1)
0x1d0|         02 00                                 |   ..           |            window_size: 512 0x1d3-0x1d5 (2)
0x1d0|               fe 28                           |     .(         |            checksum: 0xfe28 0x1d5-0x1d7 (2)
0x1d0|                     00 00                     |       ..       |            urgent_pointer: 0 0x1d7-0x1d9 (2)
     |                                               |                |            options[0:3]: 0x1d9-0x1e5 (12)
     |                                               |                |              [0]{}: option 0x1d9-0x1da (1)
0x1d0|                           01                  |         .      |                kind: "nop" (1) (No operation) 0x1d9-0x1da (1)
     |                                               |                |              [1]{}: option 0x1da-0x1db (1)
0x1d0|                              01               |          .     |                kind: "nop" (1) (No operation) 0x1da-0x1db (1)
     |                                               |                |              [2]{}: option 0x1db-0x1e5 (10)
0x1d0|                                 08            |           .    |                kind: "timestamp" (8) (Timestamp and echo of previous timestamp) 0x1db-0x1dc (1)
0x1d0|                                    0a         |            .   |                length: 10 0x1dc-0x1dd (1)
0x1d0|                                       e4 67 f5|             .g.|                value: 3832018199 0x1dd-0x1e1 (4)
0x1e0|17                                             |.               |
0x1e0|   e4 67 f5 17|                                | .g..|          |                echo_reply: 3832018199 0x1e1-0x1e5 (4)
     |                                               |                |            payload: raw bits 0x1e5-0x1e5 (0)
     |                                               |                |  ipv4_reassembled[0:0]: 0x1e5-0x1e5 (0)
     |                                               |                |  tcp_connections[0:1]: 0x1e5-0x1e5 (0)
     |                                               |                |    [0]{}: tcp_connection 0x1e5-0x1e5 (0)
     |                                               |                |      client{}: 0x1e5-0x1e5 (0)
     |                                               |                |        ip: "127.0.0.1"
     |                                               |                |        port: 47174
     |                                               |                |        has_start: true
     |                                               |                |        has_end: false
     |                                               |                |        skipped_bytes: 0
     |00 01 02 03 04 05 06 07 08 09 0a 0b 0c 0d 0e 0f|0123456789abcdef|
  0x0|74 65 73 74 0a|                                |test.|          |        stream: raw bits 0x0-0x5 (5)
     |                                               |                |      server{}: 0x1e5-0x1e5 (0)
     |                                               |                |        ip: "127.0.0.1"
     |                                               |                |        port: 1234
     |                                               |                |        has_start: true
     |                                               |                |        has_end: false
     |                                               |                |        skipped_bytes: 0
     |00 01 02 03 04 05 06 07 08 09 0a 0b 0c 0d 0e 0f|0123456789abcdef|        stream: raw bits 0x0-0x0 (0)
