# test that fq ignores tcp mss option that is too small as it seems to be unreliable when dumping packets
$ fq -d pcap '.tcp_connections | dv' sll2_tcp_mss_wrong.pcap
     |00 01 02 03 04 05 06 07 08 09 0a 0b 0c 0d 0e 0f|0123456789abcdef|.tcp_connections[0:1]: 0x1e5-0x1e5 (0)
     |                                               |                |  [0]{}: tcp_connection 0x1e5-0x1e5 (0)
     |                                               |                |    client{}: 0x1e5-0x1e5 (0)
     |                                               |                |      ip: "127.0.0.1"
     |                                               |                |      port: 47174
     |                                               |                |      has_start: true
     |                                               |                |      has_end: false
     |                                               |                |      skipped_bytes: 0
     |00 01 02 03 04 05 06 07 08 09 0a 0b 0c 0d 0e 0f|0123456789abcdef|
  0x0|74 65 73 74 0a|                                |test.|          |      stream: raw bits 0x0-0x5 (5)
     |                                               |                |    server{}: 0x1e5-0x1e5 (0)
     |                                               |                |      ip: "127.0.0.1"
     |                                               |                |      port: 1234
     |                                               |                |      has_start: true
     |                                               |                |      has_end: false
     |                                               |                |      skipped_bytes: 0
     |00 01 02 03 04 05 06 07 08 09 0a 0b 0c 0d 0e 0f|0123456789abcdef|      stream: raw bits 0x0-0x0 (0)
