$ fq -d pg_control -o flavour=pgproee13 dv pg_control
      |00 01 02 03 04 05 06 07 08 09 0a 0b 0c 0d 0e 0f|0123456789abcdef|.{}: pg_control (pg_control) 0x0-0x1fff.7 (8192)
0x0000|5f 69 c1 ec 6b bc ec 62                        |_i..k..b        |  system_identifier: 7128279481940273503 0x0-0x7.7 (8)
0x0000|                        14 05 45 50            |        ..EP    |  pg_control_version: "Postgres Pro Enterprise 1300" (1346700564) 0x8-0xb.7 (4)
0x0000|                                    27 6e 0a 0c|            'n..|  catalog_version_no: 202010151 0xc-0xf.7 (4)
0x0010|06 00 00 00                                    |....            |  state: "DB_IN_PRODUCTION" (6) 0x10-0x13.7 (4)
0x0010|            00 00 00 00                        |    ....        |  hole0: 0 0x14-0x17.7 (4)
0x0010|                        66 c2 ec 62 00 00 00 00|        f..b....|  time: "Fri, 05 Aug 2022 07:10:30 UTC" (1659683430) 0x18-0x1f.7 (8)
0x0020|78 0a e9 02 00 00 00 00                        |x.......        |  checkPoint: "0/2E90A78" (48827000) 0x20-0x27.7 (8)
      |                                               |                |  checkPointCopy{}: 0x28-0x9f.7 (120)
0x0020|                        28 0a e9 02 00 00 00 00|        (.......|    redo: "0/2E90A28" (48826920) 0x28-0x2f.7 (8)
0x0030|01 00 00 00                                    |....            |    ThisTimeLineID: 1 0x30-0x33.7 (4)
0x0030|            01 00 00 00                        |    ....        |    PrevTimeLineID: 1 0x34-0x37.7 (4)
0x0030|                        01                     |        .       |    fullPageWrites: 1 0x38-0x38.7 (1)
0x0030|                           00 00 00 00 00 00 00|         .......|    hole1: 0 0x39-0x3f.7 (7)
0x0040|92 29 0c 54 02 00 00 00                        |.).T....        |    nextXid: 10000017810 0x40-0x47.7 (8)
0x0040|                        00 60 00 00            |        .`..    |    nextOid: 24576 0x48-0x4b.7 (4)
0x0040|                                    00 00 00 00|            ....|    hole2: 0 0x4c-0x4f.7 (4)
0x0050|00 f2 05 2a 01 00 00 00                        |...*....        |    nextMulti: 5000000000 0x50-0x57.7 (8)
0x0050|                        00 00 00 00 00 00 00 00|        ........|    nextMultiOffset: 0 0x58-0x5f.7 (8)
0x0060|eb e5 0b 54 02 00 00 00                        |...T....        |    oldestXid: 10000000491 0x60-0x67.7 (8)
0x0060|                        01 00 00 00            |        ....    |    oldestXidDB: 1 0x68-0x6b.7 (4)
0x0060|                                    00 00 00 00|            ....|    hole3: 0 0x6c-0x6f.7 (4)
0x0070|00 f2 05 2a 01 00 00 00                        |...*....        |    oldestMulti: 5000000000 0x70-0x77.7 (8)
0x0070|                        01 00 00 00            |        ....    |    oldestMultiDB: 1 0x78-0x7b.7 (4)
0x0070|                                    00 00 00 00|            ....|    hole4: 0 0x7c-0x7f.7 (4)
0x0080|65 c2 ec 62 00 00 00 00                        |e..b....        |    time: "Fri, 05 Aug 2022 07:10:29 UTC" (1659683429) 0x80-0x87.7 (8)
0x0080|                        00 00 00 00 00 00 00 00|        ........|    oldestCommitTsXid: 0 0x88-0x8f.7 (8)
0x0090|00 00 00 00 00 00 00 00                        |........        |    newestCommitTsXid: 0 0x90-0x97.7 (8)
0x0090|                        92 29 0c 54 02 00 00 00|        .).T....|    oldestActiveXid: 10000017810 0x98-0x9f.7 (8)
0x00a0|e8 03 00 00 00 00 00 00                        |........        |  unloggedLSN: "0/3E8" (1000) 0xa0-0xa7.7 (8)
0x00a0|                        00 00 00 00 00 00 00 00|        ........|  minRecoveryPoint: "0/0" (0) 0xa8-0xaf.7 (8)
0x00b0|00 00 00 00                                    |....            |  minRecoveryPointTLI: 0 0xb0-0xb3.7 (4)
0x00b0|            00 00 00 00                        |    ....        |  hole5: 0 0xb4-0xb7.7 (4)
0x00b0|                        00 00 00 00 00 00 00 00|        ........|  backupStartPoint: "0/0" (0) 0xb8-0xbf.7 (8)
0x00c0|00 00 00 00 00 00 00 00                        |........        |  backupEndPoint: "0/0" (0) 0xc0-0xc7.7 (8)
0x00c0|                        00                     |        .       |  backupEndRequired: 0 0xc8-0xc8.7 (1)
0x00c0|                           00 00 00            |         ...    |  hole6: 0 0xc9-0xcb.7 (3)
0x00c0|                                    01 00 00 00|            ....|  wal_level: "WAL_LEVEL_REPLICA" (1) 0xcc-0xcf.7 (4)
0x00d0|00                                             |.               |  wal_log_hints: 0 0xd0-0xd0.7 (1)
0x00d0|   00 00 00                                    | ...            |  hole7: 0 0xd1-0xd3.7 (3)
0x00d0|            5d 00 00 00                        |    ]...        |  MaxConnections: 93 0xd4-0xd7.7 (4)
0x00d0|                        08 00 00 00            |        ....    |  max_worker_processes: 8 0xd8-0xdb.7 (4)
0x00d0|                                    0a 00 00 00|            ....|  max_wal_senders: 10 0xdc-0xdf.7 (4)
0x00e0|00 00 00 00                                    |....            |  max_prepared_xacts: 0 0xe0-0xe3.7 (4)
0x00e0|            40 00 00 00                        |    @...        |  max_locks_per_xact: 64 0xe4-0xe7.7 (4)
0x00e0|                        00                     |        .       |  track_commit_timestamp: 0 0xe8-0xe8.7 (1)
0x00e0|                           00 00 00            |         ...    |  hole8: 0 0xe9-0xeb.7 (3)
0x00e0|                                    08 00 00 00|            ....|  maxAlign: 8 0xec-0xef.7 (4)
0x00f0|00 00 00 00 87 d6 32 41                        |......2A        |  floatFormat: 1.234567e+06 0xf0-0xf7.7 (8)
0x00f0|                        00 20 00 00            |        . ..    |  blcksz: 8192 0xf8-0xfb.7 (4)
0x00f0|                                    00 00 02 00|            ....|  relseg_size: 131072 0xfc-0xff.7 (4)
0x0100|00 20 00 00                                    |. ..            |  xlog_blcksz: 8192 0x100-0x103.7 (4)
0x0100|            00 00 00 01                        |    ....        |  xlog_seg_size: 16777216 0x104-0x107.7 (4)
0x0100|                        40 00 00 00            |        @...    |  nameDataLen: 64 0x108-0x10b.7 (4)
0x0100|                                    20 00 00 00|             ...|  indexMaxKeys: 32 0x10c-0x10f.7 (4)
0x0110|cc 07 00 00                                    |....            |  toast_max_chunk_size: 1996 0x110-0x113.7 (4)
0x0110|            00 08 00 00                        |    ....        |  loblksize: 2048 0x114-0x117.7 (4)
0x0110|                        01                     |        .       |  float8ByVal: 1 0x118-0x118.7 (1)
0x0110|                           00 00 00            |         ...    |  hole9: 0 0x119-0x11b.7 (3)
0x0110|                                    01 00 00 00|            ....|  data_checksum_version: 1 0x11c-0x11f.7 (4)
0x0120|9e 64 59 21 b6 ed 30 38 f8 be c1 a7 82 40 df cd|.dY!..08.....@..|  mock_authentication_nonce: "9e645921b6ed3038f8bec1a78240dfcd0cbfdafcba223be..." (raw bits) 0x120-0x13f.7 (32)
0x0130|0c bf da fc ba 22 3b e1 e7 b2 79 50 c6 03 84 39|.....";...yP...9|
0x0140|3c 03 00 00                                    |<...            |  icu_version: "60.3.0.0" (828) 0x140-0x143.7 (4)
0x0140|            00 00 ff ff                        |    ....        |  pg_old_version: 4294901760 0x144-0x147.7 (4)
0x0140|                        ab b4 06 87            |        ....    |  crc: 2265363627 0x148-0x14b.7 (4)
0x0140|                                    00 00 00 00|            ....|  padding0: 0 0x14c-0x14f.7 (4)
0x0150|00 00 00 00 00 00 00 00 00 00 00 00 00 00 00 00|................|  unused: raw bits 0x150-0x1fff.7 (7856)
*     |until 0x1fff.7 (end) (7856)                    |                |
