$ fq -d tzif dv Adak
     |00 01 02 03 04 05 06 07 08 09 0a 0b 0c 0d 0e 0f|0123456789abcdef|.{}: Adak (tzif) 0x0-0x9b0.7 (2481)
     |                                               |                |  v1header{}: 0x0-0x2b.7 (44)
0x000|54 5a 69 66                                    |TZif            |    magic: 0x545a6966 (valid) 0x0-0x3.7 (4)
0x000|            32                                 |    2           |    ver: "2" (0x32) (valid) 0x4-0x4.7 (1)
0x000|               00 00 00 00 00 00 00 00 00 00 00|     ...........|    reserved: raw bits 0x5-0x13.7 (15)
0x010|00 00 00 00                                    |....            |
0x010|            00 00 00 09                        |    ....        |    isutcnt: 9 0x14-0x17.7 (4)
0x010|                        00 00 00 09            |        ....    |    isstdcnt: 9 0x18-0x1b.7 (4)
0x010|                                    00 00 00 1b|            ....|    leapcnt: 27 0x1c-0x1f.7 (4)
0x020|00 00 00 74                                    |...t            |    timecnt: 116 0x20-0x23.7 (4)
0x020|            00 00 00 09                        |    ....        |    typecnt: 9 0x24-0x27.7 (4)
0x020|                        00 00 00 21            |        ...!    |    charcnt: 33 0x28-0x2b.7 (4)
     |                                               |                |  v1datablock{}: 0x2c-0x3b0.7 (901)
     |                                               |                |    transition_times[0:116]: 0x2c-0x1fb.7 (464)
0x020|                                    80 00 00 00|            ....|      [0]: "1901-12-13T20:45:52Z" (-2147483648) transition_time 0x2c-0x2f.7 (4)
0x030|cb 89 44 d0                                    |..D.            |      [1]: "1942-02-09T13:00:00Z" (-880196400) transition_time 0x30-0x33.7 (4)
0x030|            d2 23 f4 70                        |    .#.p        |      [2]: "1945-08-14T23:00:00Z" (-769395600) transition_time 0x34-0x37.7 (4)
0x030|                        d2 61 50 40            |        .aP@    |      [3]: "1945-09-30T12:00:00Z" (-765374400) transition_time 0x38-0x3b.7 (4)
0x030|                                    fa d2 55 b0|            ..U.|      [4]: "1967-04-01T11:00:00Z" (-86878800) transition_time 0x3c-0x3f.7 (4)
0x040|fe b8 71 50                                    |..qP            |      [5]: "1969-04-27T13:00:00Z" (-21466800) transition_time 0x40-0x43.7 (4)
0x040|            ff a8 54 40                        |    ..T@        |      [6]: "1969-10-26T12:00:00Z" (-5745600) transition_time 0x44-0x47.7 (4)
0x040|                        00 98 53 50            |        ..SP    |      [7]: "1970-04-26T13:00:00Z" (9982800) transition_time 0x48-0x4b.7 (4)
0x040|                                    01 88 36 40|            ..6@|      [8]: "1970-10-25T12:00:00Z" (25704000) transition_time 0x4c-0x4f.7 (4)
0x050|02 78 35 50                                    |.x5P            |      [9]: "1971-04-25T13:00:00Z" (41432400) transition_time 0x50-0x53.7 (4)
0x050|            03 71 52 c0                        |    .qR.        |      [10]: "1971-10-31T12:00:00Z" (57758400) transition_time 0x54-0x57.7 (4)
0x050|                        04 61 51 d0            |        .aQ.    |      [11]: "1972-04-30T13:00:00Z" (73486800) transition_time 0x58-0x5b.7 (4)
0x050|                                    05 51 34 c1|            .Q4.|      [12]: "1972-10-29T12:00:01Z" (89208001) transition_time 0x5c-0x5f.7 (4)
0x060|06 41 33 d2                                    |.A3.            |      [13]: "1973-04-29T13:00:02Z" (104936402) transition_time 0x60-0x63.7 (4)
0x060|            07 31 16 c2                        |    .1..        |      [14]: "1973-10-28T12:00:02Z" (120657602) transition_time 0x64-0x67.7 (4)
0x060|                        07 8d 6d d3            |        ..m.    |      [15]: "1974-01-06T13:00:03Z" (126709203) transition_time 0x68-0x6b.7 (4)
0x060|                                    09 10 f8 c3|            ....|      [16]: "1974-10-27T12:00:03Z" (152107203) transition_time 0x6c-0x6f.7 (4)
0x070|09 ad e9 54                                    |...T            |      [17]: "1975-02-23T13:00:04Z" (162392404) transition_time 0x70-0x73.7 (4)
0x070|            0a f0 da c4                        |    ....        |      [18]: "1975-10-26T12:00:04Z" (183556804) transition_time 0x74-0x77.7 (4)
0x070|                        0b e0 d9 d5            |        ....    |      [19]: "1976-04-25T13:00:05Z" (199285205) transition_time 0x78-0x7b.7 (4)
0x070|                                    0c d9 f7 45|            ...E|      [20]: "1976-10-31T12:00:05Z" (215611205) transition_time 0x7c-0x7f.7 (4)
0x080|0d c0 bb d6                                    |....            |      [21]: "1977-04-24T13:00:06Z" (230734806) transition_time 0x80-0x83.7 (4)
0x080|            0e b9 d9 46                        |    ...F        |      [22]: "1977-10-30T12:00:06Z" (247060806) transition_time 0x84-0x87.7 (4)
0x080|                        0f a9 d8 57            |        ...W    |      [23]: "1978-04-30T13:00:07Z" (262789207) transition_time 0x88-0x8b.7 (4)
0x080|                                    10 99 bb 47|            ...G|      [24]: "1978-10-29T12:00:07Z" (278510407) transition_time 0x8c-0x8f.7 (4)
0x090|11 89 ba 58                                    |...X            |      [25]: "1979-04-29T13:00:08Z" (294238808) transition_time 0x90-0x93.7 (4)
0x090|            12 79 9d 48                        |    .y.H        |      [26]: "1979-10-28T12:00:08Z" (309960008) transition_time 0x94-0x97.7 (4)
0x090|                        13 69 9c 59            |        .i.Y    |      [27]: "1980-04-27T13:00:09Z" (325688409) transition_time 0x98-0x9b.7 (4)
0x090|                                    14 59 7f 49|            .Y.I|      [28]: "1980-10-26T12:00:09Z" (341409609) transition_time 0x9c-0x9f.7 (4)
0x0a0|15 49 7e 59                                    |.I~Y            |      [29]: "1981-04-26T13:00:09Z" (357138009) transition_time 0xa0-0xa3.7 (4)
0x0a0|            16 39 61 4a                        |    .9aJ        |      [30]: "1981-10-25T12:00:10Z" (372859210) transition_time 0xa4-0xa7.7 (4)
0x0a0|                        17 29 60 5a            |        .)`Z    |      [31]: "1982-04-25T13:00:10Z" (388587610) transition_time 0xa8-0xab.7 (4)
0x0a0|                                    18 22 7d cb|            ."}.|      [32]: "1982-10-31T12:00:11Z" (404913611) transition_time 0xac-0xaf.7 (4)
0x0b0|19 09 42 5b                                    |..B[            |      [33]: "1983-04-24T13:00:11Z" (420037211) transition_time 0xb0-0xb3.7 (4)
0x0b0|            1a 02 5f cc                        |    .._.        |      [34]: "1983-10-30T12:00:12Z" (436363212) transition_time 0xb4-0xb7.7 (4)
0x0b0|                        1a 2b 22 2c            |        .+",    |      [35]: "1983-11-30T10:00:12Z" (439034412) transition_time 0xb8-0xbb.7 (4)
0x0b0|                                    1a f2 50 cc|            ..P.|      [36]: "1984-04-29T12:00:12Z" (452088012) transition_time 0xbc-0xbf.7 (4)
0x0c0|1b e2 33 bc                                    |..3.            |      [37]: "1984-10-28T11:00:12Z" (467809212) transition_time 0xc0-0xc3.7 (4)
0x0c0|            1c d2 32 cc                        |    ..2.        |      [38]: "1985-04-28T12:00:12Z" (483537612) transition_time 0xc4-0xc7.7 (4)
0x0c0|                        1d c2 15 bd            |        ....    |      [39]: "1985-10-27T11:00:13Z" (499258813) transition_time 0xc8-0xcb.7 (4)
0x0c0|                                    1e b2 14 cd|            ....|      [40]: "1986-04-27T12:00:13Z" (514987213) transition_time 0xcc-0xcf.7 (4)
0x0d0|1f a1 f7 bd                                    |....            |      [41]: "1986-10-26T11:00:13Z" (530708413) transition_time 0xd0-0xd3.7 (4)
0x0d0|            20 76 47 4d                        |     vGM        |      [42]: "1987-04-05T12:00:13Z" (544622413) transition_time 0xd4-0xd7.7 (4)
0x0d0|                        21 81 d9 bd            |        !...    |      [43]: "1987-10-25T11:00:13Z" (562158013) transition_time 0xd8-0xdb.7 (4)
0x0d0|                                    22 56 29 4e|            "V)N|      [44]: "1988-04-03T12:00:14Z" (576072014) transition_time 0xdc-0xdf.7 (4)
0x0e0|23 6a f6 3e                                    |#j.>            |      [45]: "1988-10-30T11:00:14Z" (594212414) transition_time 0xe0-0xe3.7 (4)
0x0e0|            24 36 0b 4e                        |    $6.N        |      [46]: "1989-04-02T12:00:14Z" (607521614) transition_time 0xe4-0xe7.7 (4)
0x0e0|                        25 4a d8 3e            |        %J.>    |      [47]: "1989-10-29T11:00:14Z" (625662014) transition_time 0xe8-0xeb.7 (4)
0x0e0|                                    26 15 ed 4f|            &..O|      [48]: "1990-04-01T12:00:15Z" (638971215) transition_time 0xec-0xef.7 (4)
0x0f0|27 2a ba 3f                                    |'*.?            |      [49]: "1990-10-28T11:00:15Z" (657111615) transition_time 0xf0-0xf3.7 (4)
0x0f0|            27 ff 09 d0                        |    '...        |      [50]: "1991-04-07T12:00:16Z" (671025616) transition_time 0xf4-0xf7.7 (4)
0x0f0|                        29 0a 9c 40            |        )..@    |      [51]: "1991-10-27T11:00:16Z" (688561216) transition_time 0xf8-0xfb.7 (4)
0x0f0|                                    29 de eb d0|            )...|      [52]: "1992-04-05T12:00:16Z" (702475216) transition_time 0xfc-0xff.7 (4)
0x100|2a ea 7e 41                                    |*.~A            |      [53]: "1992-10-25T11:00:17Z" (720010817) transition_time 0x100-0x103.7 (4)
0x100|            2b be cd d1                        |    +...        |      [54]: "1993-04-04T12:00:17Z" (733924817) transition_time 0x104-0x107.7 (4)
0x100|                        2c d3 9a c2            |        ,...    |      [55]: "1993-10-31T11:00:18Z" (752065218) transition_time 0x108-0x10b.7 (4)
0x100|                                    2d 9e af d2|            -...|      [56]: "1994-04-03T12:00:18Z" (765374418) transition_time 0x10c-0x10f.7 (4)
0x110|2e b3 7c c3                                    |..|.            |      [57]: "1994-10-30T11:00:19Z" (783514819) transition_time 0x110-0x113.7 (4)
0x110|            2f 7e 91 d3                        |    /~..        |      [58]: "1995-04-02T12:00:19Z" (796824019) transition_time 0x114-0x117.7 (4)
0x110|                        30 93 5e c3            |        0.^.    |      [59]: "1995-10-29T11:00:19Z" (814964419) transition_time 0x118-0x11b.7 (4)
0x110|                                    31 67 ae 54|            1g.T|      [60]: "1996-04-07T12:00:20Z" (828878420) transition_time 0x11c-0x11f.7 (4)
0x120|32 73 40 c4                                    |2s@.            |      [61]: "1996-10-27T11:00:20Z" (846414020) transition_time 0x120-0x123.7 (4)
0x120|            33 47 90 54                        |    3G.T        |      [62]: "1997-04-06T12:00:20Z" (860328020) transition_time 0x124-0x127.7 (4)
0x120|                        34 53 22 c5            |        4S".    |      [63]: "1997-10-26T11:00:21Z" (877863621) transition_time 0x128-0x12b.7 (4)
0x120|                                    35 27 72 55|            5'rU|      [64]: "1998-04-05T12:00:21Z" (891777621) transition_time 0x12c-0x12f.7 (4)
0x130|36 33 04 c5                                    |63..            |      [65]: "1998-10-25T11:00:21Z" (909313221) transition_time 0x130-0x133.7 (4)
0x130|            37 07 54 56                        |    7.TV        |      [66]: "1999-04-04T12:00:22Z" (923227222) transition_time 0x134-0x137.7 (4)
0x130|                        38 1c 21 46            |        8.!F    |      [67]: "1999-10-31T11:00:22Z" (941367622) transition_time 0x138-0x13b.7 (4)
0x130|                                    38 e7 36 56|            8.6V|      [68]: "2000-04-02T12:00:22Z" (954676822) transition_time 0x13c-0x13f.7 (4)
0x140|39 fc 03 46                                    |9..F            |      [69]: "2000-10-29T11:00:22Z" (972817222) transition_time 0x140-0x143.7 (4)
0x140|            3a c7 18 56                        |    :..V        |      [70]: "2001-04-01T12:00:22Z" (986126422) transition_time 0x144-0x147.7 (4)
0x140|                        3b db e5 46            |        ;..F    |      [71]: "2001-10-28T11:00:22Z" (1004266822) transition_time 0x148-0x14b.7 (4)
0x140|                                    3c b0 34 d6|            <.4.|      [72]: "2002-04-07T12:00:22Z" (1018180822) transition_time 0x14c-0x14f.7 (4)
0x150|3d bb c7 46                                    |=..F            |      [73]: "2002-10-27T11:00:22Z" (1035716422) transition_time 0x150-0x153.7 (4)
0x150|            3e 90 16 d6                        |    >...        |      [74]: "2003-04-06T12:00:22Z" (1049630422) transition_time 0x154-0x157.7 (4)
0x150|                        3f 9b a9 46            |        ?..F    |      [75]: "2003-10-26T11:00:22Z" (1067166022) transition_time 0x158-0x15b.7 (4)
0x150|                                    40 6f f8 d6|            @o..|      [76]: "2004-04-04T12:00:22Z" (1081080022) transition_time 0x15c-0x15f.7 (4)
0x160|41 84 c5 c6                                    |A...            |      [77]: "2004-10-31T11:00:22Z" (1099220422) transition_time 0x160-0x163.7 (4)
0x160|            42 4f da d6                        |    BO..        |      [78]: "2005-04-03T12:00:22Z" (1112529622) transition_time 0x164-0x167.7 (4)
0x160|                        43 64 a7 c6            |        Cd..    |      [79]: "2005-10-30T11:00:22Z" (1130670022) transition_time 0x168-0x16b.7 (4)
0x160|                                    44 2f bc d7|            D/..|      [80]: "2006-04-02T12:00:23Z" (1143979223) transition_time 0x16c-0x16f.7 (4)
0x170|45 44 89 c7                                    |ED..            |      [81]: "2006-10-29T11:00:23Z" (1162119623) transition_time 0x170-0x173.7 (4)
0x170|            45 f3 ef 57                        |    E..W        |      [82]: "2007-03-11T12:00:23Z" (1173614423) transition_time 0x174-0x177.7 (4)
0x170|                        47 2d a6 47            |        G-.G    |      [83]: "2007-11-04T11:00:23Z" (1194174023) transition_time 0x178-0x17b.7 (4)
0x170|                                    47 d3 d1 57|            G..W|      [84]: "2008-03-09T12:00:23Z" (1205064023) transition_time 0x17c-0x17f.7 (4)
0x180|49 0d 88 47                                    |I..G            |      [85]: "2008-11-02T11:00:23Z" (1225623623) transition_time 0x180-0x183.7 (4)
0x180|            49 b3 b3 58                        |    I..X        |      [86]: "2009-03-08T12:00:24Z" (1236513624) transition_time 0x184-0x187.7 (4)
0x180|                        4a ed 6a 48            |        J.jH    |      [87]: "2009-11-01T11:00:24Z" (1257073224) transition_time 0x188-0x18b.7 (4)
0x180|                                    4b 9c cf d8|            K...|      [88]: "2010-03-14T12:00:24Z" (1268568024) transition_time 0x18c-0x18f.7 (4)
0x190|4c d6 86 c8                                    |L...            |      [89]: "2010-11-07T11:00:24Z" (1289127624) transition_time 0x190-0x193.7 (4)
0x190|            4d 7c b1 d8                        |    M|..        |      [90]: "2011-03-13T12:00:24Z" (1300017624) transition_time 0x194-0x197.7 (4)
0x190|                        4e b6 68 c8            |        N.h.    |      [91]: "2011-11-06T11:00:24Z" (1320577224) transition_time 0x198-0x19b.7 (4)
0x190|                                    4f 5c 93 d8|            O\..|      [92]: "2012-03-11T12:00:24Z" (1331467224) transition_time 0x19c-0x19f.7 (4)
0x1a0|50 96 4a c9                                    |P.J.            |      [93]: "2012-11-04T11:00:25Z" (1352026825) transition_time 0x1a0-0x1a3.7 (4)
0x1a0|            51 3c 75 d9                        |    Q<u.        |      [94]: "2013-03-10T12:00:25Z" (1362916825) transition_time 0x1a4-0x1a7.7 (4)
0x1a0|                        52 76 2c c9            |        Rv,.    |      [95]: "2013-11-03T11:00:25Z" (1383476425) transition_time 0x1a8-0x1ab.7 (4)
0x1a0|                                    53 1c 57 d9|            S.W.|      [96]: "2014-03-09T12:00:25Z" (1394366425) transition_time 0x1ac-0x1af.7 (4)
0x1b0|54 56 0e c9                                    |TV..            |      [97]: "2014-11-02T11:00:25Z" (1414926025) transition_time 0x1b0-0x1b3.7 (4)
0x1b0|            54 fc 39 d9                        |    T.9.        |      [98]: "2015-03-08T12:00:25Z" (1425816025) transition_time 0x1b4-0x1b7.7 (4)
0x1b0|                        56 35 f0 ca            |        V5..    |      [99]: "2015-11-01T11:00:26Z" (1446375626) transition_time 0x1b8-0x1bb.7 (4)
0x1b0|                                    56 e5 56 5a|            V.VZ|      [100]: "2016-03-13T12:00:26Z" (1457870426) transition_time 0x1bc-0x1bf.7 (4)
0x1c0|58 1f 0d 4a                                    |X..J            |      [101]: "2016-11-06T11:00:26Z" (1478430026) transition_time 0x1c0-0x1c3.7 (4)
0x1c0|            58 c5 38 5b                        |    X.8[        |      [102]: "2017-03-12T12:00:27Z" (1489320027) transition_time 0x1c4-0x1c7.7 (4)
0x1c0|                        59 fe ef 4b            |        Y..K    |      [103]: "2017-11-05T11:00:27Z" (1509879627) transition_time 0x1c8-0x1cb.7 (4)
0x1c0|                                    5a a5 1a 5b|            Z..[|      [104]: "2018-03-11T12:00:27Z" (1520769627) transition_time 0x1cc-0x1cf.7 (4)
0x1d0|5b de d1 4b                                    |[..K            |      [105]: "2018-11-04T11:00:27Z" (1541329227) transition_time 0x1d0-0x1d3.7 (4)
0x1d0|            5c 84 fc 5b                        |    \..[        |      [106]: "2019-03-10T12:00:27Z" (1552219227) transition_time 0x1d4-0x1d7.7 (4)
0x1d0|                        5d be b3 4b            |        ]..K    |      [107]: "2019-11-03T11:00:27Z" (1572778827) transition_time 0x1d8-0x1db.7 (4)
0x1d0|                                    5e 64 de 5b|            ^d.[|      [108]: "2020-03-08T12:00:27Z" (1583668827) transition_time 0x1dc-0x1df.7 (4)
0x1e0|5f 9e 95 4b                                    |_..K            |      [109]: "2020-11-01T11:00:27Z" (1604228427) transition_time 0x1e0-0x1e3.7 (4)
0x1e0|            60 4d fa db                        |    `M..        |      [110]: "2021-03-14T12:00:27Z" (1615723227) transition_time 0x1e4-0x1e7.7 (4)
0x1e0|                        61 87 b1 cb            |        a...    |      [111]: "2021-11-07T11:00:27Z" (1636282827) transition_time 0x1e8-0x1eb.7 (4)
0x1e0|                                    62 2d dc db|            b-..|      [112]: "2022-03-13T12:00:27Z" (1647172827) transition_time 0x1ec-0x1ef.7 (4)
0x1f0|63 67 93 cb                                    |cg..            |      [113]: "2022-11-06T11:00:27Z" (1667732427) transition_time 0x1f0-0x1f3.7 (4)
0x1f0|            64 0d be db                        |    d...        |      [114]: "2023-03-12T12:00:27Z" (1678622427) transition_time 0x1f4-0x1f7.7 (4)
0x1f0|                        64 9b 78 1b            |        d.x.    |      [115]: "2023-06-28T00:00:27Z" (1687910427) transition_time 0x1f8-0x1fb.7 (4)
     |                                               |                |    transition_types[0:116]: 0x1fc-0x26f.7 (116)
0x1f0|                                    01         |            .   |      [0]: 1 transition_type 0x1fc-0x1fc.7 (1)
0x1f0|                                       02      |             .  |      [1]: 2 transition_type 0x1fd-0x1fd.7 (1)
0x1f0|                                          03   |              . |      [2]: 3 transition_type 0x1fe-0x1fe.7 (1)
0x1f0|                                             01|               .|      [3]: 1 transition_type 0x1ff-0x1ff.7 (1)
0x200|04                                             |.               |      [4]: 4 transition_type 0x200-0x200.7 (1)
0x200|   05                                          | .              |      [5]: 5 transition_type 0x201-0x201.7 (1)
0x200|      04                                       |  .             |      [6]: 4 transition_type 0x202-0x202.7 (1)
0x200|         05                                    |   .            |      [7]: 5 transition_type 0x203-0x203.7 (1)
0x200|            04                                 |    .           |      [8]: 4 transition_type 0x204-0x204.7 (1)
0x200|               05                              |     .          |      [9]: 5 transition_type 0x205-0x205.7 (1)
0x200|                  04                           |      .         |      [10]: 4 transition_type 0x206-0x206.7 (1)
0x200|                     05                        |       .        |      [11]: 5 transition_type 0x207-0x207.7 (1)
0x200|                        04                     |        .       |      [12]: 4 transition_type 0x208-0x208.7 (1)
0x200|                           05                  |         .      |      [13]: 5 transition_type 0x209-0x209.7 (1)
0x200|                              04               |          .     |      [14]: 4 transition_type 0x20a-0x20a.7 (1)
0x200|                                 05            |           .    |      [15]: 5 transition_type 0x20b-0x20b.7 (1)
0x200|                                    04         |            .   |      [16]: 4 transition_type 0x20c-0x20c.7 (1)
0x200|                                       05      |             .  |      [17]: 5 transition_type 0x20d-0x20d.7 (1)
0x200|                                          04   |              . |      [18]: 4 transition_type 0x20e-0x20e.7 (1)
0x200|                                             05|               .|      [19]: 5 transition_type 0x20f-0x20f.7 (1)
0x210|04                                             |.               |      [20]: 4 transition_type 0x210-0x210.7 (1)
0x210|   05                                          | .              |      [21]: 5 transition_type 0x211-0x211.7 (1)
0x210|      04                                       |  .             |      [22]: 4 transition_type 0x212-0x212.7 (1)
0x210|         05                                    |   .            |      [23]: 5 transition_type 0x213-0x213.7 (1)
0x210|            04                                 |    .           |      [24]: 4 transition_type 0x214-0x214.7 (1)
0x210|               05                              |     .          |      [25]: 5 transition_type 0x215-0x215.7 (1)
0x210|                  04                           |      .         |      [26]: 4 transition_type 0x216-0x216.7 (1)
0x210|                     05                        |       .        |      [27]: 5 transition_type 0x217-0x217.7 (1)
0x210|                        04                     |        .       |      [28]: 4 transition_type 0x218-0x218.7 (1)
0x210|                           05                  |         .      |      [29]: 5 transition_type 0x219-0x219.7 (1)
0x210|                              04               |          .     |      [30]: 4 transition_type 0x21a-0x21a.7 (1)
0x210|                                 05            |           .    |      [31]: 5 transition_type 0x21b-0x21b.7 (1)
0x210|                                    04         |            .   |      [32]: 4 transition_type 0x21c-0x21c.7 (1)
0x210|                                       05      |             .  |      [33]: 5 transition_type 0x21d-0x21d.7 (1)
0x210|                                          06   |              . |      [34]: 6 transition_type 0x21e-0x21e.7 (1)
0x210|                                             08|               .|      [35]: 8 transition_type 0x21f-0x21f.7 (1)
0x220|07                                             |.               |      [36]: 7 transition_type 0x220-0x220.7 (1)
0x220|   08                                          | .              |      [37]: 8 transition_type 0x221-0x221.7 (1)
0x220|      07                                       |  .             |      [38]: 7 transition_type 0x222-0x222.7 (1)
0x220|         08                                    |   .            |      [39]: 8 transition_type 0x223-0x223.7 (1)
0x220|            07                                 |    .           |      [40]: 7 transition_type 0x224-0x224.7 (1)
0x220|               08                              |     .          |      [41]: 8 transition_type 0x225-0x225.7 (1)
0x220|                  07                           |      .         |      [42]: 7 transition_type 0x226-0x226.7 (1)
0x220|                     08                        |       .        |      [43]: 8 transition_type 0x227-0x227.7 (1)
0x220|                        07                     |        .       |      [44]: 7 transition_type 0x228-0x228.7 (1)
0x220|                           08                  |         .      |      [45]: 8 transition_type 0x229-0x229.7 (1)
0x220|                              07               |          .     |      [46]: 7 transition_type 0x22a-0x22a.7 (1)
0x220|                                 08            |           .    |      [47]: 8 transition_type 0x22b-0x22b.7 (1)
0x220|                                    07         |            .   |      [48]: 7 transition_type 0x22c-0x22c.7 (1)
0x220|                                       08      |             .  |      [49]: 8 transition_type 0x22d-0x22d.7 (1)
0x220|                                          07   |              . |      [50]: 7 transition_type 0x22e-0x22e.7 (1)
0x220|                                             08|               .|      [51]: 8 transition_type 0x22f-0x22f.7 (1)
0x230|07                                             |.               |      [52]: 7 transition_type 0x230-0x230.7 (1)
0x230|   08                                          | .              |      [53]: 8 transition_type 0x231-0x231.7 (1)
0x230|      07                                       |  .             |      [54]: 7 transition_type 0x232-0x232.7 (1)
0x230|         08                                    |   .            |      [55]: 8 transition_type 0x233-0x233.7 (1)
0x230|            07                                 |    .           |      [56]: 7 transition_type 0x234-0x234.7 (1)
0x230|               08                              |     .          |      [57]: 8 transition_type 0x235-0x235.7 (1)
0x230|                  07                           |      .         |      [58]: 7 transition_type 0x236-0x236.7 (1)
0x230|                     08                        |       .        |      [59]: 8 transition_type 0x237-0x237.7 (1)
0x230|                        07                     |        .       |      [60]: 7 transition_type 0x238-0x238.7 (1)
0x230|                           08                  |         .      |      [61]: 8 transition_type 0x239-0x239.7 (1)
0x230|                              07               |          .     |      [62]: 7 transition_type 0x23a-0x23a.7 (1)
0x230|                                 08            |           .    |      [63]: 8 transition_type 0x23b-0x23b.7 (1)
0x230|                                    07         |            .   |      [64]: 7 transition_type 0x23c-0x23c.7 (1)
0x230|                                       08      |             .  |      [65]: 8 transition_type 0x23d-0x23d.7 (1)
0x230|                                          07   |              . |      [66]: 7 transition_type 0x23e-0x23e.7 (1)
0x230|                                             08|               .|      [67]: 8 transition_type 0x23f-0x23f.7 (1)
0x240|07                                             |.               |      [68]: 7 transition_type 0x240-0x240.7 (1)
0x240|   08                                          | .              |      [69]: 8 transition_type 0x241-0x241.7 (1)
0x240|      07                                       |  .             |      [70]: 7 transition_type 0x242-0x242.7 (1)
0x240|         08                                    |   .            |      [71]: 8 transition_type 0x243-0x243.7 (1)
0x240|            07                                 |    .           |      [72]: 7 transition_type 0x244-0x244.7 (1)
0x240|               08                              |     .          |      [73]: 8 transition_type 0x245-0x245.7 (1)
0x240|                  07                           |      .         |      [74]: 7 transition_type 0x246-0x246.7 (1)
0x240|                     08                        |       .        |      [75]: 8 transition_type 0x247-0x247.7 (1)
0x240|                        07                     |        .       |      [76]: 7 transition_type 0x248-0x248.7 (1)
0x240|                           08                  |         .      |      [77]: 8 transition_type 0x249-0x249.7 (1)
0x240|                              07               |          .     |      [78]: 7 transition_type 0x24a-0x24a.7 (1)
0x240|                                 08            |           .    |      [79]: 8 transition_type 0x24b-0x24b.7 (1)
0x240|                                    07         |            .   |      [80]: 7 transition_type 0x24c-0x24c.7 (1)
0x240|                                       08      |             .  |      [81]: 8 transition_type 0x24d-0x24d.7 (1)
0x240|                                          07   |              . |      [82]: 7 transition_type 0x24e-0x24e.7 (1)
0x240|                                             08|               .|      [83]: 8 transition_type 0x24f-0x24f.7 (1)
0x250|07                                             |.               |      [84]: 7 transition_type 0x250-0x250.7 (1)
0x250|   08                                          | .              |      [85]: 8 transition_type 0x251-0x251.7 (1)
0x250|      07                                       |  .             |      [86]: 7 transition_type 0x252-0x252.7 (1)
0x250|         08                                    |   .            |      [87]: 8 transition_type 0x253-0x253.7 (1)
0x250|            07                                 |    .           |      [88]: 7 transition_type 0x254-0x254.7 (1)
0x250|               08                              |     .          |      [89]: 8 transition_type 0x255-0x255.7 (1)
0x250|                  07                           |      .         |      [90]: 7 transition_type 0x256-0x256.7 (1)
0x250|                     08                        |       .        |      [91]: 8 transition_type 0x257-0x257.7 (1)
0x250|                        07                     |        .       |      [92]: 7 transition_type 0x258-0x258.7 (1)
0x250|                           08                  |         .      |      [93]: 8 transition_type 0x259-0x259.7 (1)
0x250|                              07               |          .     |      [94]: 7 transition_type 0x25a-0x25a.7 (1)
0x250|                                 08            |           .    |      [95]: 8 transition_type 0x25b-0x25b.7 (1)
0x250|                                    07         |            .   |      [96]: 7 transition_type 0x25c-0x25c.7 (1)
0x250|                                       08      |             .  |      [97]: 8 transition_type 0x25d-0x25d.7 (1)
0x250|                                          07   |              . |      [98]: 7 transition_type 0x25e-0x25e.7 (1)
0x250|                                             08|               .|      [99]: 8 transition_type 0x25f-0x25f.7 (1)
0x260|07                                             |.               |      [100]: 7 transition_type 0x260-0x260.7 (1)
0x260|   08                                          | .              |      [101]: 8 transition_type 0x261-0x261.7 (1)
0x260|      07                                       |  .             |      [102]: 7 transition_type 0x262-0x262.7 (1)
0x260|         08                                    |   .            |      [103]: 8 transition_type 0x263-0x263.7 (1)
0x260|            07                                 |    .           |      [104]: 7 transition_type 0x264-0x264.7 (1)
0x260|               08                              |     .          |      [105]: 8 transition_type 0x265-0x265.7 (1)
0x260|                  07                           |      .         |      [106]: 7 transition_type 0x266-0x266.7 (1)
0x260|                     08                        |       .        |      [107]: 8 transition_type 0x267-0x267.7 (1)
0x260|                        07                     |        .       |      [108]: 7 transition_type 0x268-0x268.7 (1)
0x260|                           08                  |         .      |      [109]: 8 transition_type 0x269-0x269.7 (1)
0x260|                              07               |          .     |      [110]: 7 transition_type 0x26a-0x26a.7 (1)
0x260|                                 08            |           .    |      [111]: 8 transition_type 0x26b-0x26b.7 (1)
0x260|                                    07         |            .   |      [112]: 7 transition_type 0x26c-0x26c.7 (1)
0x260|                                       08      |             .  |      [113]: 8 transition_type 0x26d-0x26d.7 (1)
0x260|                                          07   |              . |      [114]: 7 transition_type 0x26e-0x26e.7 (1)
0x260|                                             07|               .|      [115]: 7 transition_type 0x26f-0x26f.7 (1)
     |                                               |                |    local_time_type_records[0:9]: 0x270-0x2a5.7 (54)
     |                                               |                |      [0]{}: local_time_type 0x270-0x275.7 (6)
0x270|00 00 ab e2                                    |....            |        utoff: 44002 (valid) 0x270-0x273.7 (4)
0x270|            00                                 |    .           |        dst: 0 (valid) 0x274-0x274.7 (1)
0x270|               00                              |     .          |        idx: 0 (valid) 0x275-0x275.7 (1)
     |                                               |                |      [1]{}: local_time_type 0x276-0x27b.7 (6)
0x270|                  ff ff 65 50                  |      ..eP      |        utoff: -39600 (valid) 0x276-0x279.7 (4)
0x270|                              00               |          .     |        dst: 0 (valid) 0x27a-0x27a.7 (1)
0x270|                                 04            |           .    |        idx: 4 (valid) 0x27b-0x27b.7 (1)
     |                                               |                |      [2]{}: local_time_type 0x27c-0x281.7 (6)
0x270|                                    ff ff 73 60|            ..s`|        utoff: -36000 (valid) 0x27c-0x27f.7 (4)
0x280|01                                             |.               |        dst: 1 (valid) 0x280-0x280.7 (1)
0x280|   08                                          | .              |        idx: 8 (valid) 0x281-0x281.7 (1)
     |                                               |                |      [3]{}: local_time_type 0x282-0x287.7 (6)
0x280|      ff ff 73 60                              |  ..s`          |        utoff: -36000 (valid) 0x282-0x285.7 (4)
0x280|                  01                           |      .         |        dst: 1 (valid) 0x286-0x286.7 (1)
0x280|                     0c                        |       .        |        idx: 12 (valid) 0x287-0x287.7 (1)
     |                                               |                |      [4]{}: local_time_type 0x288-0x28d.7 (6)
0x280|                        ff ff 65 50            |        ..eP    |        utoff: -39600 (valid) 0x288-0x28b.7 (4)
0x280|                                    00         |            .   |        dst: 0 (valid) 0x28c-0x28c.7 (1)
0x280|                                       10      |             .  |        idx: 16 (valid) 0x28d-0x28d.7 (1)
     |                                               |                |      [5]{}: local_time_type 0x28e-0x293.7 (6)
0x280|                                          ff ff|              ..|        utoff: -36000 (valid) 0x28e-0x291.7 (4)
0x290|73 60                                          |s`              |
0x290|      01                                       |  .             |        dst: 1 (valid) 0x292-0x292.7 (1)
0x290|         14                                    |   .            |        idx: 20 (valid) 0x293-0x293.7 (1)
     |                                               |                |      [6]{}: local_time_type 0x294-0x299.7 (6)
0x290|            ff ff 73 60                        |    ..s`        |        utoff: -36000 (valid) 0x294-0x297.7 (4)
0x290|                        00                     |        .       |        dst: 0 (valid) 0x298-0x298.7 (1)
0x290|                           18                  |         .      |        idx: 24 (valid) 0x299-0x299.7 (1)
     |                                               |                |      [7]{}: local_time_type 0x29a-0x29f.7 (6)
0x290|                              ff ff 81 70      |          ...p  |        utoff: -32400 (valid) 0x29a-0x29d.7 (4)
0x290|                                          01   |              . |        dst: 1 (valid) 0x29e-0x29e.7 (1)
0x290|                                             1d|               .|        idx: 29 (valid) 0x29f-0x29f.7 (1)
     |                                               |                |      [8]{}: local_time_type 0x2a0-0x2a5.7 (6)
0x2a0|ff ff 73 60                                    |..s`            |        utoff: -36000 (valid) 0x2a0-0x2a3.7 (4)
0x2a0|            00                                 |    .           |        dst: 0 (valid) 0x2a4-0x2a4.7 (1)
0x2a0|               19                              |     .          |        idx: 25 (valid) 0x2a5-0x2a5.7 (1)
     |                                               |                |    time_zone_designations[0:8]: 0x2a6-0x2c6.7 (33)
0x2a0|                  4c 4d 54 00                  |      LMT.      |      [0]: "LMT" time_zone_designation 0x2a6-0x2a9.7 (4)
0x2a0|                              4e 53 54 00      |          NST.  |      [1]: "NST" time_zone_designation 0x2aa-0x2ad.7 (4)
0x2a0|                                          4e 57|              NW|      [2]: "NWT" time_zone_designation 0x2ae-0x2b1.7 (4)
0x2b0|54 00                                          |T.              |
0x2b0|      4e 50 54 00                              |  NPT.          |      [3]: "NPT" time_zone_designation 0x2b2-0x2b5.7 (4)
0x2b0|                  42 53 54 00                  |      BST.      |      [4]: "BST" time_zone_designation 0x2b6-0x2b9.7 (4)
0x2b0|                              42 44 54 00      |          BDT.  |      [5]: "BDT" time_zone_designation 0x2ba-0x2bd.7 (4)
0x2b0|                                          41 48|              AH|      [6]: "AHST" time_zone_designation 0x2be-0x2c2.7 (5)
0x2c0|53 54 00                                       |ST.             |
0x2c0|         48 44 54 00                           |   HDT.         |      [7]: "HDT" time_zone_designation 0x2c3-0x2c6.7 (4)
     |                                               |                |    leap_second_records[0:27]: 0x2c7-0x39e.7 (216)
     |                                               |                |      [0]{}: leap_second_record 0x2c7-0x2ce.7 (8)
0x2c0|                     04 b2 58 00               |       ..X.     |        occur: "1972-07-01T00:00:00Z" (78796800) 0x2c7-0x2ca.7 (4)
0x2c0|                                 00 00 00 01   |           .... |        corr: 1 0x2cb-0x2ce.7 (4)
     |                                               |                |      [1]{}: leap_second_record 0x2cf-0x2d6.7 (8)
0x2c0|                                             05|               .|        occur: "1973-01-01T00:00:01Z" (94694401) 0x2cf-0x2d2.7 (4)
0x2d0|a4 ec 01                                       |...             |
0x2d0|         00 00 00 02                           |   ....         |        corr: 2 0x2d3-0x2d6.7 (4)
     |                                               |                |      [2]{}: leap_second_record 0x2d7-0x2de.7 (8)
0x2d0|                     07 86 1f 82               |       ....     |        occur: "1974-01-01T00:00:02Z" (126230402) 0x2d7-0x2da.7 (4)
0x2d0|                                 00 00 00 03   |           .... |        corr: 3 0x2db-0x2de.7 (4)
     |                                               |                |      [3]{}: leap_second_record 0x2df-0x2e6.7 (8)
0x2d0|                                             09|               .|        occur: "1975-01-01T00:00:03Z" (157766403) 0x2df-0x2e2.7 (4)
0x2e0|67 53 03                                       |gS.             |
0x2e0|         00 00 00 04                           |   ....         |        corr: 4 0x2e3-0x2e6.7 (4)
     |                                               |                |      [4]{}: leap_second_record 0x2e7-0x2ee.7 (8)
0x2e0|                     0b 48 86 84               |       .H..     |        occur: "1976-01-01T00:00:04Z" (189302404) 0x2e7-0x2ea.7 (4)
0x2e0|                                 00 00 00 05   |           .... |        corr: 5 0x2eb-0x2ee.7 (4)
     |                                               |                |      [5]{}: leap_second_record 0x2ef-0x2f6.7 (8)
0x2e0|                                             0d|               .|        occur: "1977-01-01T00:00:05Z" (220924805) 0x2ef-0x2f2.7 (4)
0x2f0|2b 0b 85                                       |+..             |
0x2f0|         00 00 00 06                           |   ....         |        corr: 6 0x2f3-0x2f6.7 (4)
     |                                               |                |      [6]{}: leap_second_record 0x2f7-0x2fe.7 (8)
0x2f0|                     0f 0c 3f 06               |       ..?.     |        occur: "1978-01-01T00:00:06Z" (252460806) 0x2f7-0x2fa.7 (4)
0x2f0|                                 00 00 00 07   |           .... |        corr: 7 0x2fb-0x2fe.7 (4)
     |                                               |                |      [7]{}: leap_second_record 0x2ff-0x306.7 (8)
0x2f0|                                             10|               .|        occur: "1979-01-01T00:00:07Z" (283996807) 0x2ff-0x302.7 (4)
0x300|ed 72 87                                       |.r.             |
0x300|         00 00 00 08                           |   ....         |        corr: 8 0x303-0x306.7 (4)
     |                                               |                |      [8]{}: leap_second_record 0x307-0x30e.7 (8)
0x300|                     12 ce a6 08               |       ....     |        occur: "1980-01-01T00:00:08Z" (315532808) 0x307-0x30a.7 (4)
0x300|                                 00 00 00 09   |           .... |        corr: 9 0x30b-0x30e.7 (4)
     |                                               |                |      [9]{}: leap_second_record 0x30f-0x316.7 (8)
0x300|                                             15|               .|        occur: "1981-07-01T00:00:09Z" (362793609) 0x30f-0x312.7 (4)
0x310|9f ca 89                                       |...             |
0x310|         00 00 00 0a                           |   ....         |        corr: 10 0x313-0x316.7 (4)
     |                                               |                |      [10]{}: leap_second_record 0x317-0x31e.7 (8)
0x310|                     17 80 fe 0a               |       ....     |        occur: "1982-07-01T00:00:10Z" (394329610) 0x317-0x31a.7 (4)
0x310|                                 00 00 00 0b   |           .... |        corr: 11 0x31b-0x31e.7 (4)
     |                                               |                |      [11]{}: leap_second_record 0x31f-0x326.7 (8)
0x310|                                             19|               .|        occur: "1983-07-01T00:00:11Z" (425865611) 0x31f-0x322.7 (4)
0x320|62 31 8b                                       |b1.             |
0x320|         00 00 00 0c                           |   ....         |        corr: 12 0x323-0x326.7 (4)
     |                                               |                |      [12]{}: leap_second_record 0x327-0x32e.7 (8)
0x320|                     1d 25 ea 0c               |       .%..     |        occur: "1985-07-01T00:00:12Z" (489024012) 0x327-0x32a.7 (4)
0x320|                                 00 00 00 0d   |           .... |        corr: 13 0x32b-0x32e.7 (4)
     |                                               |                |      [13]{}: leap_second_record 0x32f-0x336.7 (8)
0x320|                                             21|               !|        occur: "1988-01-01T00:00:13Z" (567993613) 0x32f-0x332.7 (4)
0x330|da e5 0d                                       |...             |
0x330|         00 00 00 0e                           |   ....         |        corr: 14 0x333-0x336.7 (4)
     |                                               |                |      [14]{}: leap_second_record 0x337-0x33e.7 (8)
0x330|                     25 9e 9d 8e               |       %...     |        occur: "1990-01-01T00:00:14Z" (631152014) 0x337-0x33a.7 (4)
0x330|                                 00 00 00 0f   |           .... |        corr: 15 0x33b-0x33e.7 (4)
     |                                               |                |      [15]{}: leap_second_record 0x33f-0x346.7 (8)
0x330|                                             27|               '|        occur: "1991-01-01T00:00:15Z" (662688015) 0x33f-0x342.7 (4)
0x340|7f d1 0f                                       |...             |
0x340|         00 00 00 10                           |   ....         |        corr: 16 0x343-0x346.7 (4)
     |                                               |                |      [16]{}: leap_second_record 0x347-0x34e.7 (8)
0x340|                     2a 50 f5 90               |       *P..     |        occur: "1992-07-01T00:00:16Z" (709948816) 0x347-0x34a.7 (4)
0x340|                                 00 00 00 11   |           .... |        corr: 17 0x34b-0x34e.7 (4)
     |                                               |                |      [17]{}: leap_second_record 0x34f-0x356.7 (8)
0x340|                                             2c|               ,|        occur: "1993-07-01T00:00:17Z" (741484817) 0x34f-0x352.7 (4)
0x350|32 29 11                                       |2).             |
0x350|         00 00 00 12                           |   ....         |        corr: 18 0x353-0x356.7 (4)
     |                                               |                |      [18]{}: leap_second_record 0x357-0x35e.7 (8)
0x350|                     2e 13 5c 92               |       ..\.     |        occur: "1994-07-01T00:00:18Z" (773020818) 0x357-0x35a.7 (4)
0x350|                                 00 00 00 13   |           .... |        corr: 19 0x35b-0x35e.7 (4)
     |                                               |                |      [19]{}: leap_second_record 0x35f-0x366.7 (8)
0x350|                                             30|               0|        occur: "1996-01-01T00:00:19Z" (820454419) 0x35f-0x362.7 (4)
0x360|e7 24 13                                       |.$.             |
0x360|         00 00 00 14                           |   ....         |        corr: 20 0x363-0x366.7 (4)
     |                                               |                |      [20]{}: leap_second_record 0x367-0x36e.7 (8)
0x360|                     33 b8 48 94               |       3.H.     |        occur: "1997-07-01T00:00:20Z" (867715220) 0x367-0x36a.7 (4)
0x360|                                 00 00 00 15   |           .... |        corr: 21 0x36b-0x36e.7 (4)
     |                                               |                |      [21]{}: leap_second_record 0x36f-0x376.7 (8)
0x360|                                             36|               6|        occur: "1999-01-01T00:00:21Z" (915148821) 0x36f-0x372.7 (4)
0x370|8c 10 15                                       |...             |
0x370|         00 00 00 16                           |   ....         |        corr: 22 0x373-0x376.7 (4)
     |                                               |                |      [22]{}: leap_second_record 0x377-0x37e.7 (8)
0x370|                     43 b7 1b 96               |       C...     |        occur: "2006-01-01T00:00:22Z" (1136073622) 0x377-0x37a.7 (4)
0x370|                                 00 00 00 17   |           .... |        corr: 23 0x37b-0x37e.7 (4)
     |                                               |                |      [23]{}: leap_second_record 0x37f-0x386.7 (8)
0x370|                                             49|               I|        occur: "2009-01-01T00:00:23Z" (1230768023) 0x37f-0x382.7 (4)
0x380|5c 07 97                                       |\..             |
0x380|         00 00 00 18                           |   ....         |        corr: 24 0x383-0x386.7 (4)
     |                                               |                |      [24]{}: leap_second_record 0x387-0x38e.7 (8)
0x380|                     4f ef 93 18               |       O...     |        occur: "2012-07-01T00:00:24Z" (1341100824) 0x387-0x38a.7 (4)
0x380|                                 00 00 00 19   |           .... |        corr: 25 0x38b-0x38e.7 (4)
     |                                               |                |      [25]{}: leap_second_record 0x38f-0x396.7 (8)
0x380|                                             55|               U|        occur: "2015-07-01T00:00:25Z" (1435708825) 0x38f-0x392.7 (4)
0x390|93 2d 99                                       |.-.             |
0x390|         00 00 00 1a                           |   ....         |        corr: 26 0x393-0x396.7 (4)
     |                                               |                |      [26]{}: leap_second_record 0x397-0x39e.7 (8)
0x390|                     58 68 46 9a               |       XhF.     |        occur: "2017-01-01T00:00:26Z" (1483228826) 0x397-0x39a.7 (4)
0x390|                                 00 00 00 1b   |           .... |        corr: 27 0x39b-0x39e.7 (4)
     |                                               |                |    standard_wall_indicators[0:9]: 0x39f-0x3a7.7 (9)
0x390|                                             00|               .|      [0]: 0 standard_wall_indicator (valid) 0x39f-0x39f.7 (1)
0x3a0|00                                             |.               |      [1]: 0 standard_wall_indicator (valid) 0x3a0-0x3a0.7 (1)
0x3a0|   00                                          | .              |      [2]: 0 standard_wall_indicator (valid) 0x3a1-0x3a1.7 (1)
0x3a0|      01                                       |  .             |      [3]: 1 standard_wall_indicator (valid) 0x3a2-0x3a2.7 (1)
0x3a0|         00                                    |   .            |      [4]: 0 standard_wall_indicator (valid) 0x3a3-0x3a3.7 (1)
0x3a0|            00                                 |    .           |      [5]: 0 standard_wall_indicator (valid) 0x3a4-0x3a4.7 (1)
0x3a0|               00                              |     .          |      [6]: 0 standard_wall_indicator (valid) 0x3a5-0x3a5.7 (1)
0x3a0|                  00                           |      .         |      [7]: 0 standard_wall_indicator (valid) 0x3a6-0x3a6.7 (1)
0x3a0|                     00                        |       .        |      [8]: 0 standard_wall_indicator (valid) 0x3a7-0x3a7.7 (1)
     |                                               |                |    ut_local_indicators[0:9]: 0x3a8-0x3b0.7 (9)
0x3a0|                        00                     |        .       |      [0]: 0 ut_local_indicator (valid) 0x3a8-0x3a8.7 (1)
0x3a0|                           00                  |         .      |      [1]: 0 ut_local_indicator (valid) 0x3a9-0x3a9.7 (1)
0x3a0|                              00               |          .     |      [2]: 0 ut_local_indicator (valid) 0x3aa-0x3aa.7 (1)
0x3a0|                                 01            |           .    |      [3]: 1 ut_local_indicator (valid) 0x3ab-0x3ab.7 (1)
0x3a0|                                    00         |            .   |      [4]: 0 ut_local_indicator (valid) 0x3ac-0x3ac.7 (1)
0x3a0|                                       00      |             .  |      [5]: 0 ut_local_indicator (valid) 0x3ad-0x3ad.7 (1)
0x3a0|                                          00   |              . |      [6]: 0 ut_local_indicator (valid) 0x3ae-0x3ae.7 (1)
0x3a0|                                             00|               .|      [7]: 0 ut_local_indicator (valid) 0x3af-0x3af.7 (1)
0x3b0|00                                             |.               |      [8]: 0 ut_local_indicator (valid) 0x3b0-0x3b0.7 (1)
     |                                               |                |  v2plusheader{}: 0x3b1-0x3dc.7 (44)
0x3b0|   54 5a 69 66                                 | TZif           |    magic: 0x545a6966 (valid) 0x3b1-0x3b4.7 (4)
0x3b0|               32                              |     2          |    ver: "2" (0x32) (valid) 0x3b5-0x3b5.7 (1)
0x3b0|                  00 00 00 00 00 00 00 00 00 00|      ..........|    reserved: raw bits 0x3b6-0x3c4.7 (15)
0x3c0|00 00 00 00 00                                 |.....           |
0x3c0|               00 00 00 0a                     |     ....       |    isutcnt: 10 0x3c5-0x3c8.7 (4)
0x3c0|                           00 00 00 0a         |         ....   |    isstdcnt: 10 0x3c9-0x3cc.7 (4)
0x3c0|                                       00 00 00|             ...|    leapcnt: 27 0x3cd-0x3d0.7 (4)
0x3d0|1b                                             |.               |
0x3d0|   00 00 00 75                                 | ...u           |    timecnt: 117 0x3d1-0x3d4.7 (4)
0x3d0|               00 00 00 0a                     |     ....       |    typecnt: 10 0x3d5-0x3d8.7 (4)
0x3d0|                           00 00 00 21         |         ...!   |    charcnt: 33 0x3d9-0x3dc.7 (4)
     |                                               |                |  v2plusdatablock{}: 0x3dd-0x9ae.7 (1490)
     |                                               |                |    transition_times[0:117]: 0x3dd-0x784.7 (936)
0x3d0|                                       ff ff ff|             ...|      [0]: "1867-10-19T00:31:13Z" (-3225223727) transition_time 0x3dd-0x3e4.7 (8)
0x3e0|ff 3f c2 fd d1                                 |.?...           |
0x3e0|               ff ff ff ff 7d 87 5a 5e         |     ....}.Z^   |      [1]: "1900-08-20T23:46:38Z" (-2188944802) transition_time 0x3e5-0x3ec.7 (8)
0x3e0|                                       ff ff ff|             ...|      [2]: "1942-02-09T13:00:00Z" (-880196400) transition_time 0x3ed-0x3f4.7 (8)
0x3f0|ff cb 89 44 d0                                 |...D.           |
0x3f0|               ff ff ff ff d2 23 f4 70         |     .....#.p   |      [3]: "1945-08-14T23:00:00Z" (-769395600) transition_time 0x3f5-0x3fc.7 (8)
0x3f0|                                       ff ff ff|             ...|      [4]: "1945-09-30T12:00:00Z" (-765374400) transition_time 0x3fd-0x404.7 (8)
0x400|ff d2 61 50 40                                 |..aP@           |
0x400|               ff ff ff ff fa d2 55 b0         |     ......U.   |      [5]: "1967-04-01T11:00:00Z" (-86878800) transition_time 0x405-0x40c.7 (8)
0x400|                                       ff ff ff|             ...|      [6]: "1969-04-27T13:00:00Z" (-21466800) transition_time 0x40d-0x414.7 (8)
0x410|ff fe b8 71 50                                 |...qP           |
0x410|               ff ff ff ff ff a8 54 40         |     ......T@   |      [7]: "1969-10-26T12:00:00Z" (-5745600) transition_time 0x415-0x41c.7 (8)
0x410|                                       00 00 00|             ...|      [8]: "1970-04-26T13:00:00Z" (9982800) transition_time 0x41d-0x424.7 (8)
0x420|00 00 98 53 50                                 |...SP           |
0x420|               00 00 00 00 01 88 36 40         |     ......6@   |      [9]: "1970-10-25T12:00:00Z" (25704000) transition_time 0x425-0x42c.7 (8)
0x420|                                       00 00 00|             ...|      [10]: "1971-04-25T13:00:00Z" (41432400) transition_time 0x42d-0x434.7 (8)
0x430|00 02 78 35 50                                 |..x5P           |
0x430|               00 00 00 00 03 71 52 c0         |     .....qR.   |      [11]: "1971-10-31T12:00:00Z" (57758400) transition_time 0x435-0x43c.7 (8)
0x430|                                       00 00 00|             ...|      [12]: "1972-04-30T13:00:00Z" (73486800) transition_time 0x43d-0x444.7 (8)
0x440|00 04 61 51 d0                                 |..aQ.           |
0x440|               00 00 00 00 05 51 34 c1         |     .....Q4.   |      [13]: "1972-10-29T12:00:01Z" (89208001) transition_time 0x445-0x44c.7 (8)
0x440|                                       00 00 00|             ...|      [14]: "1973-04-29T13:00:02Z" (104936402) transition_time 0x44d-0x454.7 (8)
0x450|00 06 41 33 d2                                 |..A3.           |
0x450|               00 00 00 00 07 31 16 c2         |     .....1..   |      [15]: "1973-10-28T12:00:02Z" (120657602) transition_time 0x455-0x45c.7 (8)
0x450|                                       00 00 00|             ...|      [16]: "1974-01-06T13:00:03Z" (126709203) transition_time 0x45d-0x464.7 (8)
0x460|00 07 8d 6d d3                                 |...m.           |
0x460|               00 00 00 00 09 10 f8 c3         |     ........   |      [17]: "1974-10-27T12:00:03Z" (152107203) transition_time 0x465-0x46c.7 (8)
0x460|                                       00 00 00|             ...|      [18]: "1975-02-23T13:00:04Z" (162392404) transition_time 0x46d-0x474.7 (8)
0x470|00 09 ad e9 54                                 |....T           |
0x470|               00 00 00 00 0a f0 da c4         |     ........   |      [19]: "1975-10-26T12:00:04Z" (183556804) transition_time 0x475-0x47c.7 (8)
0x470|                                       00 00 00|             ...|      [20]: "1976-04-25T13:00:05Z" (199285205) transition_time 0x47d-0x484.7 (8)
0x480|00 0b e0 d9 d5                                 |.....           |
0x480|               00 00 00 00 0c d9 f7 45         |     .......E   |      [21]: "1976-10-31T12:00:05Z" (215611205) transition_time 0x485-0x48c.7 (8)
0x480|                                       00 00 00|             ...|      [22]: "1977-04-24T13:00:06Z" (230734806) transition_time 0x48d-0x494.7 (8)
0x490|00 0d c0 bb d6                                 |.....           |
0x490|               00 00 00 00 0e b9 d9 46         |     .......F   |      [23]: "1977-10-30T12:00:06Z" (247060806) transition_time 0x495-0x49c.7 (8)
0x490|                                       00 00 00|             ...|      [24]: "1978-04-30T13:00:07Z" (262789207) transition_time 0x49d-0x4a4.7 (8)
0x4a0|00 0f a9 d8 57                                 |....W           |
0x4a0|               00 00 00 00 10 99 bb 47         |     .......G   |      [25]: "1978-10-29T12:00:07Z" (278510407) transition_time 0x4a5-0x4ac.7 (8)
0x4a0|                                       00 00 00|             ...|      [26]: "1979-04-29T13:00:08Z" (294238808) transition_time 0x4ad-0x4b4.7 (8)
0x4b0|00 11 89 ba 58                                 |....X           |
0x4b0|               00 00 00 00 12 79 9d 48         |     .....y.H   |      [27]: "1979-10-28T12:00:08Z" (309960008) transition_time 0x4b5-0x4bc.7 (8)
0x4b0|                                       00 00 00|             ...|      [28]: "1980-04-27T13:00:09Z" (325688409) transition_time 0x4bd-0x4c4.7 (8)
0x4c0|00 13 69 9c 59                                 |..i.Y           |
0x4c0|               00 00 00 00 14 59 7f 49         |     .....Y.I   |      [29]: "1980-10-26T12:00:09Z" (341409609) transition_time 0x4c5-0x4cc.7 (8)
0x4c0|                                       00 00 00|             ...|      [30]: "1981-04-26T13:00:09Z" (357138009) transition_time 0x4cd-0x4d4.7 (8)
0x4d0|00 15 49 7e 59                                 |..I~Y           |
0x4d0|               00 00 00 00 16 39 61 4a         |     .....9aJ   |      [31]: "1981-10-25T12:00:10Z" (372859210) transition_time 0x4d5-0x4dc.7 (8)
0x4d0|                                       00 00 00|             ...|      [32]: "1982-04-25T13:00:10Z" (388587610) transition_time 0x4dd-0x4e4.7 (8)
0x4e0|00 17 29 60 5a                                 |..)`Z           |
0x4e0|               00 00 00 00 18 22 7d cb         |     ....."}.   |      [33]: "1982-10-31T12:00:11Z" (404913611) transition_time 0x4e5-0x4ec.7 (8)
0x4e0|                                       00 00 00|             ...|      [34]: "1983-04-24T13:00:11Z" (420037211) transition_time 0x4ed-0x4f4.7 (8)
0x4f0|00 19 09 42 5b                                 |...B[           |
0x4f0|               00 00 00 00 1a 02 5f cc         |     ......_.   |      [35]: "1983-10-30T12:00:12Z" (436363212) transition_time 0x4f5-0x4fc.7 (8)
0x4f0|                                       00 00 00|             ...|      [36]: "1983-11-30T10:00:12Z" (439034412) transition_time 0x4fd-0x504.7 (8)
0x500|00 1a 2b 22 2c                                 |..+",           |
0x500|               00 00 00 00 1a f2 50 cc         |     ......P.   |      [37]: "1984-04-29T12:00:12Z" (452088012) transition_time 0x505-0x50c.7 (8)
0x500|                                       00 00 00|             ...|      [38]: "1984-10-28T11:00:12Z" (467809212) transition_time 0x50d-0x514.7 (8)
0x510|00 1b e2 33 bc                                 |...3.           |
0x510|               00 00 00 00 1c d2 32 cc         |     ......2.   |      [39]: "1985-04-28T12:00:12Z" (483537612) transition_time 0x515-0x51c.7 (8)
0x510|                                       00 00 00|             ...|      [40]: "1985-10-27T11:00:13Z" (499258813) transition_time 0x51d-0x524.7 (8)
0x520|00 1d c2 15 bd                                 |.....           |
0x520|               00 00 00 00 1e b2 14 cd         |     ........   |      [41]: "1986-04-27T12:00:13Z" (514987213) transition_time 0x525-0x52c.7 (8)
0x520|                                       00 00 00|             ...|      [42]: "1986-10-26T11:00:13Z" (530708413) transition_time 0x52d-0x534.7 (8)
0x530|00 1f a1 f7 bd                                 |.....           |
0x530|               00 00 00 00 20 76 47 4d         |     .... vGM   |      [43]: "1987-04-05T12:00:13Z" (544622413) transition_time 0x535-0x53c.7 (8)
0x530|                                       00 00 00|             ...|      [44]: "1987-10-25T11:00:13Z" (562158013) transition_time 0x53d-0x544.7 (8)
0x540|00 21 81 d9 bd                                 |.!...           |
0x540|               00 00 00 00 22 56 29 4e         |     ...."V)N   |      [45]: "1988-04-03T12:00:14Z" (576072014) transition_time 0x545-0x54c.7 (8)
0x540|                                       00 00 00|             ...|      [46]: "1988-10-30T11:00:14Z" (594212414) transition_time 0x54d-0x554.7 (8)
0x550|00 23 6a f6 3e                                 |.#j.>           |
0x550|               00 00 00 00 24 36 0b 4e         |     ....$6.N   |      [47]: "1989-04-02T12:00:14Z" (607521614) transition_time 0x555-0x55c.7 (8)
0x550|                                       00 00 00|             ...|      [48]: "1989-10-29T11:00:14Z" (625662014) transition_time 0x55d-0x564.7 (8)
0x560|00 25 4a d8 3e                                 |.%J.>           |
0x560|               00 00 00 00 26 15 ed 4f         |     ....&..O   |      [49]: "1990-04-01T12:00:15Z" (638971215) transition_time 0x565-0x56c.7 (8)
0x560|                                       00 00 00|             ...|      [50]: "1990-10-28T11:00:15Z" (657111615) transition_time 0x56d-0x574.7 (8)
0x570|00 27 2a ba 3f                                 |.'*.?           |
0x570|               00 00 00 00 27 ff 09 d0         |     ....'...   |      [51]: "1991-04-07T12:00:16Z" (671025616) transition_time 0x575-0x57c.7 (8)
0x570|                                       00 00 00|             ...|      [52]: "1991-10-27T11:00:16Z" (688561216) transition_time 0x57d-0x584.7 (8)
0x580|00 29 0a 9c 40                                 |.)..@           |
0x580|               00 00 00 00 29 de eb d0         |     ....)...   |      [53]: "1992-04-05T12:00:16Z" (702475216) transition_time 0x585-0x58c.7 (8)
0x580|                                       00 00 00|             ...|      [54]: "1992-10-25T11:00:17Z" (720010817) transition_time 0x58d-0x594.7 (8)
0x590|00 2a ea 7e 41                                 |.*.~A           |
0x590|               00 00 00 00 2b be cd d1         |     ....+...   |      [55]: "1993-04-04T12:00:17Z" (733924817) transition_time 0x595-0x59c.7 (8)
0x590|                                       00 00 00|             ...|      [56]: "1993-10-31T11:00:18Z" (752065218) transition_time 0x59d-0x5a4.7 (8)
0x5a0|00 2c d3 9a c2                                 |.,...           |
0x5a0|               00 00 00 00 2d 9e af d2         |     ....-...   |      [57]: "1994-04-03T12:00:18Z" (765374418) transition_time 0x5a5-0x5ac.7 (8)
0x5a0|                                       00 00 00|             ...|      [58]: "1994-10-30T11:00:19Z" (783514819) transition_time 0x5ad-0x5b4.7 (8)
0x5b0|00 2e b3 7c c3                                 |...|.           |
0x5b0|               00 00 00 00 2f 7e 91 d3         |     ..../~..   |      [59]: "1995-04-02T12:00:19Z" (796824019) transition_time 0x5b5-0x5bc.7 (8)
0x5b0|                                       00 00 00|             ...|      [60]: "1995-10-29T11:00:19Z" (814964419) transition_time 0x5bd-0x5c4.7 (8)
0x5c0|00 30 93 5e c3                                 |.0.^.           |
0x5c0|               00 00 00 00 31 67 ae 54         |     ....1g.T   |      [61]: "1996-04-07T12:00:20Z" (828878420) transition_time 0x5c5-0x5cc.7 (8)
0x5c0|                                       00 00 00|             ...|      [62]: "1996-10-27T11:00:20Z" (846414020) transition_time 0x5cd-0x5d4.7 (8)
0x5d0|00 32 73 40 c4                                 |.2s@.           |
0x5d0|               00 00 00 00 33 47 90 54         |     ....3G.T   |      [63]: "1997-04-06T12:00:20Z" (860328020) transition_time 0x5d5-0x5dc.7 (8)
0x5d0|                                       00 00 00|             ...|      [64]: "1997-10-26T11:00:21Z" (877863621) transition_time 0x5dd-0x5e4.7 (8)
0x5e0|00 34 53 22 c5                                 |.4S".           |
0x5e0|               00 00 00 00 35 27 72 55         |     ....5'rU   |      [65]: "1998-04-05T12:00:21Z" (891777621) transition_time 0x5e5-0x5ec.7 (8)
0x5e0|                                       00 00 00|             ...|      [66]: "1998-10-25T11:00:21Z" (909313221) transition_time 0x5ed-0x5f4.7 (8)
0x5f0|00 36 33 04 c5                                 |.63..           |
0x5f0|               00 00 00 00 37 07 54 56         |     ....7.TV   |      [67]: "1999-04-04T12:00:22Z" (923227222) transition_time 0x5f5-0x5fc.7 (8)
0x5f0|                                       00 00 00|             ...|      [68]: "1999-10-31T11:00:22Z" (941367622) transition_time 0x5fd-0x604.7 (8)
0x600|00 38 1c 21 46                                 |.8.!F           |
0x600|               00 00 00 00 38 e7 36 56         |     ....8.6V   |      [69]: "2000-04-02T12:00:22Z" (954676822) transition_time 0x605-0x60c.7 (8)
0x600|                                       00 00 00|             ...|      [70]: "2000-10-29T11:00:22Z" (972817222) transition_time 0x60d-0x614.7 (8)
0x610|00 39 fc 03 46                                 |.9..F           |
0x610|               00 00 00 00 3a c7 18 56         |     ....:..V   |      [71]: "2001-04-01T12:00:22Z" (986126422) transition_time 0x615-0x61c.7 (8)
0x610|                                       00 00 00|             ...|      [72]: "2001-10-28T11:00:22Z" (1004266822) transition_time 0x61d-0x624.7 (8)
0x620|00 3b db e5 46                                 |.;..F           |
0x620|               00 00 00 00 3c b0 34 d6         |     ....<.4.   |      [73]: "2002-04-07T12:00:22Z" (1018180822) transition_time 0x625-0x62c.7 (8)
0x620|                                       00 00 00|             ...|      [74]: "2002-10-27T11:00:22Z" (1035716422) transition_time 0x62d-0x634.7 (8)
0x630|00 3d bb c7 46                                 |.=..F           |
0x630|               00 00 00 00 3e 90 16 d6         |     ....>...   |      [75]: "2003-04-06T12:00:22Z" (1049630422) transition_time 0x635-0x63c.7 (8)
0x630|                                       00 00 00|             ...|      [76]: "2003-10-26T11:00:22Z" (1067166022) transition_time 0x63d-0x644.7 (8)
0x640|00 3f 9b a9 46                                 |.?..F           |
0x640|               00 00 00 00 40 6f f8 d6         |     ....@o..   |      [77]: "2004-04-04T12:00:22Z" (1081080022) transition_time 0x645-0x64c.7 (8)
0x640|                                       00 00 00|             ...|      [78]: "2004-10-31T11:00:22Z" (1099220422) transition_time 0x64d-0x654.7 (8)
0x650|00 41 84 c5 c6                                 |.A...           |
0x650|               00 00 00 00 42 4f da d6         |     ....BO..   |      [79]: "2005-04-03T12:00:22Z" (1112529622) transition_time 0x655-0x65c.7 (8)
0x650|                                       00 00 00|             ...|      [80]: "2005-10-30T11:00:22Z" (1130670022) transition_time 0x65d-0x664.7 (8)
0x660|00 43 64 a7 c6                                 |.Cd..           |
0x660|               00 00 00 00 44 2f bc d7         |     ....D/..   |      [81]: "2006-04-02T12:00:23Z" (1143979223) transition_time 0x665-0x66c.7 (8)
0x660|                                       00 00 00|             ...|      [82]: "2006-10-29T11:00:23Z" (1162119623) transition_time 0x66d-0x674.7 (8)
0x670|00 45 44 89 c7                                 |.ED..           |
0x670|               00 00 00 00 45 f3 ef 57         |     ....E..W   |      [83]: "2007-03-11T12:00:23Z" (1173614423) transition_time 0x675-0x67c.7 (8)
0x670|                                       00 00 00|             ...|      [84]: "2007-11-04T11:00:23Z" (1194174023) transition_time 0x67d-0x684.7 (8)
0x680|00 47 2d a6 47                                 |.G-.G           |
0x680|               00 00 00 00 47 d3 d1 57         |     ....G..W   |      [85]: "2008-03-09T12:00:23Z" (1205064023) transition_time 0x685-0x68c.7 (8)
0x680|                                       00 00 00|             ...|      [86]: "2008-11-02T11:00:23Z" (1225623623) transition_time 0x68d-0x694.7 (8)
0x690|00 49 0d 88 47                                 |.I..G           |
0x690|               00 00 00 00 49 b3 b3 58         |     ....I..X   |      [87]: "2009-03-08T12:00:24Z" (1236513624) transition_time 0x695-0x69c.7 (8)
0x690|                                       00 00 00|             ...|      [88]: "2009-11-01T11:00:24Z" (1257073224) transition_time 0x69d-0x6a4.7 (8)
0x6a0|00 4a ed 6a 48                                 |.J.jH           |
0x6a0|               00 00 00 00 4b 9c cf d8         |     ....K...   |      [89]: "2010-03-14T12:00:24Z" (1268568024) transition_time 0x6a5-0x6ac.7 (8)
0x6a0|                                       00 00 00|             ...|      [90]: "2010-11-07T11:00:24Z" (1289127624) transition_time 0x6ad-0x6b4.7 (8)
0x6b0|00 4c d6 86 c8                                 |.L...           |
0x6b0|               00 00 00 00 4d 7c b1 d8         |     ....M|..   |      [91]: "2011-03-13T12:00:24Z" (1300017624) transition_time 0x6b5-0x6bc.7 (8)
0x6b0|                                       00 00 00|             ...|      [92]: "2011-11-06T11:00:24Z" (1320577224) transition_time 0x6bd-0x6c4.7 (8)
0x6c0|00 4e b6 68 c8                                 |.N.h.           |
0x6c0|               00 00 00 00 4f 5c 93 d8         |     ....O\..   |      [93]: "2012-03-11T12:00:24Z" (1331467224) transition_time 0x6c5-0x6cc.7 (8)
0x6c0|                                       00 00 00|             ...|      [94]: "2012-11-04T11:00:25Z" (1352026825) transition_time 0x6cd-0x6d4.7 (8)
0x6d0|00 50 96 4a c9                                 |.P.J.           |
0x6d0|               00 00 00 00 51 3c 75 d9         |     ....Q<u.   |      [95]: "2013-03-10T12:00:25Z" (1362916825) transition_time 0x6d5-0x6dc.7 (8)
0x6d0|                                       00 00 00|             ...|      [96]: "2013-11-03T11:00:25Z" (1383476425) transition_time 0x6dd-0x6e4.7 (8)
0x6e0|00 52 76 2c c9                                 |.Rv,.           |
0x6e0|               00 00 00 00 53 1c 57 d9         |     ....S.W.   |      [97]: "2014-03-09T12:00:25Z" (1394366425) transition_time 0x6e5-0x6ec.7 (8)
0x6e0|                                       00 00 00|             ...|      [98]: "2014-11-02T11:00:25Z" (1414926025) transition_time 0x6ed-0x6f4.7 (8)
0x6f0|00 54 56 0e c9                                 |.TV..           |
0x6f0|               00 00 00 00 54 fc 39 d9         |     ....T.9.   |      [99]: "2015-03-08T12:00:25Z" (1425816025) transition_time 0x6f5-0x6fc.7 (8)
0x6f0|                                       00 00 00|             ...|      [100]: "2015-11-01T11:00:26Z" (1446375626) transition_time 0x6fd-0x704.7 (8)
0x700|00 56 35 f0 ca                                 |.V5..           |
0x700|               00 00 00 00 56 e5 56 5a         |     ....V.VZ   |      [101]: "2016-03-13T12:00:26Z" (1457870426) transition_time 0x705-0x70c.7 (8)
0x700|                                       00 00 00|             ...|      [102]: "2016-11-06T11:00:26Z" (1478430026) transition_time 0x70d-0x714.7 (8)
0x710|00 58 1f 0d 4a                                 |.X..J           |
0x710|               00 00 00 00 58 c5 38 5b         |     ....X.8[   |      [103]: "2017-03-12T12:00:27Z" (1489320027) transition_time 0x715-0x71c.7 (8)
0x710|                                       00 00 00|             ...|      [104]: "2017-11-05T11:00:27Z" (1509879627) transition_time 0x71d-0x724.7 (8)
0x720|00 59 fe ef 4b                                 |.Y..K           |
0x720|               00 00 00 00 5a a5 1a 5b         |     ....Z..[   |      [105]: "2018-03-11T12:00:27Z" (1520769627) transition_time 0x725-0x72c.7 (8)
0x720|                                       00 00 00|             ...|      [106]: "2018-11-04T11:00:27Z" (1541329227) transition_time 0x72d-0x734.7 (8)
0x730|00 5b de d1 4b                                 |.[..K           |
0x730|               00 00 00 00 5c 84 fc 5b         |     ....\..[   |      [107]: "2019-03-10T12:00:27Z" (1552219227) transition_time 0x735-0x73c.7 (8)
0x730|                                       00 00 00|             ...|      [108]: "2019-11-03T11:00:27Z" (1572778827) transition_time 0x73d-0x744.7 (8)
0x740|00 5d be b3 4b                                 |.]..K           |
0x740|               00 00 00 00 5e 64 de 5b         |     ....^d.[   |      [109]: "2020-03-08T12:00:27Z" (1583668827) transition_time 0x745-0x74c.7 (8)
0x740|                                       00 00 00|             ...|      [110]: "2020-11-01T11:00:27Z" (1604228427) transition_time 0x74d-0x754.7 (8)
0x750|00 5f 9e 95 4b                                 |._..K           |
0x750|               00 00 00 00 60 4d fa db         |     ....`M..   |      [111]: "2021-03-14T12:00:27Z" (1615723227) transition_time 0x755-0x75c.7 (8)
0x750|                                       00 00 00|             ...|      [112]: "2021-11-07T11:00:27Z" (1636282827) transition_time 0x75d-0x764.7 (8)
0x760|00 61 87 b1 cb                                 |.a...           |
0x760|               00 00 00 00 62 2d dc db         |     ....b-..   |      [113]: "2022-03-13T12:00:27Z" (1647172827) transition_time 0x765-0x76c.7 (8)
0x760|                                       00 00 00|             ...|      [114]: "2022-11-06T11:00:27Z" (1667732427) transition_time 0x76d-0x774.7 (8)
0x770|00 63 67 93 cb                                 |.cg..           |
0x770|               00 00 00 00 64 0d be db         |     ....d...   |      [115]: "2023-03-12T12:00:27Z" (1678622427) transition_time 0x775-0x77c.7 (8)
0x770|                                       00 00 00|             ...|      [116]: "2023-06-28T00:00:27Z" (1687910427) transition_time 0x77d-0x784.7 (8)
0x780|00 64 9b 78 1b                                 |.d.x.           |
     |                                               |                |    transition_types[0:117]: 0x785-0x7f9.7 (117)
0x780|               01                              |     .          |      [0]: 1 transition_type 0x785-0x785.7 (1)
0x780|                  02                           |      .         |      [1]: 2 transition_type 0x786-0x786.7 (1)
0x780|                     03                        |       .        |      [2]: 3 transition_type 0x787-0x787.7 (1)
0x780|                        04                     |        .       |      [3]: 4 transition_type 0x788-0x788.7 (1)
0x780|                           02                  |         .      |      [4]: 2 transition_type 0x789-0x789.7 (1)
0x780|                              05               |          .     |      [5]: 5 transition_type 0x78a-0x78a.7 (1)
0x780|                                 06            |           .    |      [6]: 6 transition_type 0x78b-0x78b.7 (1)
0x780|                                    05         |            .   |      [7]: 5 transition_type 0x78c-0x78c.7 (1)
0x780|                                       06      |             .  |      [8]: 6 transition_type 0x78d-0x78d.7 (1)
0x780|                                          05   |              . |      [9]: 5 transition_type 0x78e-0x78e.7 (1)
0x780|                                             06|               .|      [10]: 6 transition_type 0x78f-0x78f.7 (1)
0x790|05                                             |.               |      [11]: 5 transition_type 0x790-0x790.7 (1)
0x790|   06                                          | .              |      [12]: 6 transition_type 0x791-0x791.7 (1)
0x790|      05                                       |  .             |      [13]: 5 transition_type 0x792-0x792.7 (1)
0x790|         06                                    |   .            |      [14]: 6 transition_type 0x793-0x793.7 (1)
0x790|            05                                 |    .           |      [15]: 5 transition_type 0x794-0x794.7 (1)
0x790|               06                              |     .          |      [16]: 6 transition_type 0x795-0x795.7 (1)
0x790|                  05                           |      .         |      [17]: 5 transition_type 0x796-0x796.7 (1)
0x790|                     06                        |       .        |      [18]: 6 transition_type 0x797-0x797.7 (1)
0x790|                        05                     |        .       |      [19]: 5 transition_type 0x798-0x798.7 (1)
0x790|                           06                  |         .      |      [20]: 6 transition_type 0x799-0x799.7 (1)
0x790|                              05               |          .     |      [21]: 5 transition_type 0x79a-0x79a.7 (1)
0x790|                                 06            |           .    |      [22]: 6 transition_type 0x79b-0x79b.7 (1)
0x790|                                    05         |            .   |      [23]: 5 transition_type 0x79c-0x79c.7 (1)
0x790|                                       06      |             .  |      [24]: 6 transition_type 0x79d-0x79d.7 (1)
0x790|                                          05   |              . |      [25]: 5 transition_type 0x79e-0x79e.7 (1)
0x790|                                             06|               .|      [26]: 6 transition_type 0x79f-0x79f.7 (1)
0x7a0|05                                             |.               |      [27]: 5 transition_type 0x7a0-0x7a0.7 (1)
0x7a0|   06                                          | .              |      [28]: 6 transition_type 0x7a1-0x7a1.7 (1)
0x7a0|      05                                       |  .             |      [29]: 5 transition_type 0x7a2-0x7a2.7 (1)
0x7a0|         06                                    |   .            |      [30]: 6 transition_type 0x7a3-0x7a3.7 (1)
0x7a0|            05                                 |    .           |      [31]: 5 transition_type 0x7a4-0x7a4.7 (1)
0x7a0|               06                              |     .          |      [32]: 6 transition_type 0x7a5-0x7a5.7 (1)
0x7a0|                  05                           |      .         |      [33]: 5 transition_type 0x7a6-0x7a6.7 (1)
0x7a0|                     06                        |       .        |      [34]: 6 transition_type 0x7a7-0x7a7.7 (1)
0x7a0|                        07                     |        .       |      [35]: 7 transition_type 0x7a8-0x7a8.7 (1)
0x7a0|                           09                  |         .      |      [36]: 9 transition_type 0x7a9-0x7a9.7 (1)
0x7a0|                              08               |          .     |      [37]: 8 transition_type 0x7aa-0x7aa.7 (1)
0x7a0|                                 09            |           .    |      [38]: 9 transition_type 0x7ab-0x7ab.7 (1)
0x7a0|                                    08         |            .   |      [39]: 8 transition_type 0x7ac-0x7ac.7 (1)
0x7a0|                                       09      |             .  |      [40]: 9 transition_type 0x7ad-0x7ad.7 (1)
0x7a0|                                          08   |              . |      [41]: 8 transition_type 0x7ae-0x7ae.7 (1)
0x7a0|                                             09|               .|      [42]: 9 transition_type 0x7af-0x7af.7 (1)
0x7b0|08                                             |.               |      [43]: 8 transition_type 0x7b0-0x7b0.7 (1)
0x7b0|   09                                          | .              |      [44]: 9 transition_type 0x7b1-0x7b1.7 (1)
0x7b0|      08                                       |  .             |      [45]: 8 transition_type 0x7b2-0x7b2.7 (1)
0x7b0|         09                                    |   .            |      [46]: 9 transition_type 0x7b3-0x7b3.7 (1)
0x7b0|            08                                 |    .           |      [47]: 8 transition_type 0x7b4-0x7b4.7 (1)
0x7b0|               09                              |     .          |      [48]: 9 transition_type 0x7b5-0x7b5.7 (1)
0x7b0|                  08                           |      .         |      [49]: 8 transition_type 0x7b6-0x7b6.7 (1)
0x7b0|                     09                        |       .        |      [50]: 9 transition_type 0x7b7-0x7b7.7 (1)
0x7b0|                        08                     |        .       |      [51]: 8 transition_type 0x7b8-0x7b8.7 (1)
0x7b0|                           09                  |         .      |      [52]: 9 transition_type 0x7b9-0x7b9.7 (1)
0x7b0|                              08               |          .     |      [53]: 8 transition_type 0x7ba-0x7ba.7 (1)
0x7b0|                                 09            |           .    |      [54]: 9 transition_type 0x7bb-0x7bb.7 (1)
0x7b0|                                    08         |            .   |      [55]: 8 transition_type 0x7bc-0x7bc.7 (1)
0x7b0|                                       09      |             .  |      [56]: 9 transition_type 0x7bd-0x7bd.7 (1)
0x7b0|                                          08   |              . |      [57]: 8 transition_type 0x7be-0x7be.7 (1)
0x7b0|                                             09|               .|      [58]: 9 transition_type 0x7bf-0x7bf.7 (1)
0x7c0|08                                             |.               |      [59]: 8 transition_type 0x7c0-0x7c0.7 (1)
0x7c0|   09                                          | .              |      [60]: 9 transition_type 0x7c1-0x7c1.7 (1)
0x7c0|      08                                       |  .             |      [61]: 8 transition_type 0x7c2-0x7c2.7 (1)
0x7c0|         09                                    |   .            |      [62]: 9 transition_type 0x7c3-0x7c3.7 (1)
0x7c0|            08                                 |    .           |      [63]: 8 transition_type 0x7c4-0x7c4.7 (1)
0x7c0|               09                              |     .          |      [64]: 9 transition_type 0x7c5-0x7c5.7 (1)
0x7c0|                  08                           |      .         |      [65]: 8 transition_type 0x7c6-0x7c6.7 (1)
0x7c0|                     09                        |       .        |      [66]: 9 transition_type 0x7c7-0x7c7.7 (1)
0x7c0|                        08                     |        .       |      [67]: 8 transition_type 0x7c8-0x7c8.7 (1)
0x7c0|                           09                  |         .      |      [68]: 9 transition_type 0x7c9-0x7c9.7 (1)
0x7c0|                              08               |          .     |      [69]: 8 transition_type 0x7ca-0x7ca.7 (1)
0x7c0|                                 09            |           .    |      [70]: 9 transition_type 0x7cb-0x7cb.7 (1)
0x7c0|                                    08         |            .   |      [71]: 8 transition_type 0x7cc-0x7cc.7 (1)
0x7c0|                                       09      |             .  |      [72]: 9 transition_type 0x7cd-0x7cd.7 (1)
0x7c0|                                          08   |              . |      [73]: 8 transition_type 0x7ce-0x7ce.7 (1)
0x7c0|                                             09|               .|      [74]: 9 transition_type 0x7cf-0x7cf.7 (1)
0x7d0|08                                             |.               |      [75]: 8 transition_type 0x7d0-0x7d0.7 (1)
0x7d0|   09                                          | .              |      [76]: 9 transition_type 0x7d1-0x7d1.7 (1)
0x7d0|      08                                       |  .             |      [77]: 8 transition_type 0x7d2-0x7d2.7 (1)
0x7d0|         09                                    |   .            |      [78]: 9 transition_type 0x7d3-0x7d3.7 (1)
0x7d0|            08                                 |    .           |      [79]: 8 transition_type 0x7d4-0x7d4.7 (1)
0x7d0|               09                              |     .          |      [80]: 9 transition_type 0x7d5-0x7d5.7 (1)
0x7d0|                  08                           |      .         |      [81]: 8 transition_type 0x7d6-0x7d6.7 (1)
0x7d0|                     09                        |       .        |      [82]: 9 transition_type 0x7d7-0x7d7.7 (1)
0x7d0|                        08                     |        .       |      [83]: 8 transition_type 0x7d8-0x7d8.7 (1)
0x7d0|                           09                  |         .      |      [84]: 9 transition_type 0x7d9-0x7d9.7 (1)
0x7d0|                              08               |          .     |      [85]: 8 transition_type 0x7da-0x7da.7 (1)
0x7d0|                                 09            |           .    |      [86]: 9 transition_type 0x7db-0x7db.7 (1)
0x7d0|                                    08         |            .   |      [87]: 8 transition_type 0x7dc-0x7dc.7 (1)
0x7d0|                                       09      |             .  |      [88]: 9 transition_type 0x7dd-0x7dd.7 (1)
0x7d0|                                          08   |              . |      [89]: 8 transition_type 0x7de-0x7de.7 (1)
0x7d0|                                             09|               .|      [90]: 9 transition_type 0x7df-0x7df.7 (1)
0x7e0|08                                             |.               |      [91]: 8 transition_type 0x7e0-0x7e0.7 (1)
0x7e0|   09                                          | .              |      [92]: 9 transition_type 0x7e1-0x7e1.7 (1)
0x7e0|      08                                       |  .             |      [93]: 8 transition_type 0x7e2-0x7e2.7 (1)
0x7e0|         09                                    |   .            |      [94]: 9 transition_type 0x7e3-0x7e3.7 (1)
0x7e0|            08                                 |    .           |      [95]: 8 transition_type 0x7e4-0x7e4.7 (1)
0x7e0|               09                              |     .          |      [96]: 9 transition_type 0x7e5-0x7e5.7 (1)
0x7e0|                  08                           |      .         |      [97]: 8 transition_type 0x7e6-0x7e6.7 (1)
0x7e0|                     09                        |       .        |      [98]: 9 transition_type 0x7e7-0x7e7.7 (1)
0x7e0|                        08                     |        .       |      [99]: 8 transition_type 0x7e8-0x7e8.7 (1)
0x7e0|                           09                  |         .      |      [100]: 9 transition_type 0x7e9-0x7e9.7 (1)
0x7e0|                              08               |          .     |      [101]: 8 transition_type 0x7ea-0x7ea.7 (1)
0x7e0|                                 09            |           .    |      [102]: 9 transition_type 0x7eb-0x7eb.7 (1)
0x7e0|                                    08         |            .   |      [103]: 8 transition_type 0x7ec-0x7ec.7 (1)
0x7e0|                                       09      |             .  |      [104]: 9 transition_type 0x7ed-0x7ed.7 (1)
0x7e0|                                          08   |              . |      [105]: 8 transition_type 0x7ee-0x7ee.7 (1)
0x7e0|                                             09|               .|      [106]: 9 transition_type 0x7ef-0x7ef.7 (1)
0x7f0|08                                             |.               |      [107]: 8 transition_type 0x7f0-0x7f0.7 (1)
0x7f0|   09                                          | .              |      [108]: 9 transition_type 0x7f1-0x7f1.7 (1)
0x7f0|      08                                       |  .             |      [109]: 8 transition_type 0x7f2-0x7f2.7 (1)
0x7f0|         09                                    |   .            |      [110]: 9 transition_type 0x7f3-0x7f3.7 (1)
0x7f0|            08                                 |    .           |      [111]: 8 transition_type 0x7f4-0x7f4.7 (1)
0x7f0|               09                              |     .          |      [112]: 9 transition_type 0x7f5-0x7f5.7 (1)
0x7f0|                  08                           |      .         |      [113]: 8 transition_type 0x7f6-0x7f6.7 (1)
0x7f0|                     09                        |       .        |      [114]: 9 transition_type 0x7f7-0x7f7.7 (1)
0x7f0|                        08                     |        .       |      [115]: 8 transition_type 0x7f8-0x7f8.7 (1)
0x7f0|                           08                  |         .      |      [116]: 8 transition_type 0x7f9-0x7f9.7 (1)
     |                                               |                |    local_time_type_records[0:10]: 0x7fa-0x835.7 (60)
     |                                               |                |      [0]{}: local_time_type 0x7fa-0x7ff.7 (6)
0x7f0|                              00 00 ab e2      |          ....  |        utoff: 44002 (valid) 0x7fa-0x7fd.7 (4)
0x7f0|                                          00   |              . |        dst: 0 (valid) 0x7fe-0x7fe.7 (1)
0x7f0|                                             00|               .|        idx: 0 (valid) 0x7ff-0x7ff.7 (1)
     |                                               |                |      [1]{}: local_time_type 0x800-0x805.7 (6)
0x800|ff ff 5a 62                                    |..Zb            |        utoff: -42398 (valid) 0x800-0x803.7 (4)
0x800|            00                                 |    .           |        dst: 0 (valid) 0x804-0x804.7 (1)
0x800|               00                              |     .          |        idx: 0 (valid) 0x805-0x805.7 (1)
     |                                               |                |      [2]{}: local_time_type 0x806-0x80b.7 (6)
0x800|                  ff ff 65 50                  |      ..eP      |        utoff: -39600 (valid) 0x806-0x809.7 (4)
0x800|                              00               |          .     |        dst: 0 (valid) 0x80a-0x80a.7 (1)
0x800|                                 04            |           .    |        idx: 4 (valid) 0x80b-0x80b.7 (1)
     |                                               |                |      [3]{}: local_time_type 0x80c-0x811.7 (6)
0x800|                                    ff ff 73 60|            ..s`|        utoff: -36000 (valid) 0x80c-0x80f.7 (4)
0x810|01                                             |.               |        dst: 1 (valid) 0x810-0x810.7 (1)
0x810|   08                                          | .              |        idx: 8 (valid) 0x811-0x811.7 (1)
     |                                               |                |      [4]{}: local_time_type 0x812-0x817.7 (6)
0x810|      ff ff 73 60                              |  ..s`          |        utoff: -36000 (valid) 0x812-0x815.7 (4)
0x810|                  01                           |      .         |        dst: 1 (valid) 0x816-0x816.7 (1)
0x810|                     0c                        |       .        |        idx: 12 (valid) 0x817-0x817.7 (1)
     |                                               |                |      [5]{}: local_time_type 0x818-0x81d.7 (6)
0x810|                        ff ff 65 50            |        ..eP    |        utoff: -39600 (valid) 0x818-0x81b.7 (4)
0x810|                                    00         |            .   |        dst: 0 (valid) 0x81c-0x81c.7 (1)
0x810|                                       10      |             .  |        idx: 16 (valid) 0x81d-0x81d.7 (1)
     |                                               |                |      [6]{}: local_time_type 0x81e-0x823.7 (6)
0x810|                                          ff ff|              ..|        utoff: -36000 (valid) 0x81e-0x821.7 (4)
0x820|73 60                                          |s`              |
0x820|      01                                       |  .             |        dst: 1 (valid) 0x822-0x822.7 (1)
0x820|         14                                    |   .            |        idx: 20 (valid) 0x823-0x823.7 (1)
     |                                               |                |      [7]{}: local_time_type 0x824-0x829.7 (6)
0x820|            ff ff 73 60                        |    ..s`        |        utoff: -36000 (valid) 0x824-0x827.7 (4)
0x820|                        00                     |        .       |        dst: 0 (valid) 0x828-0x828.7 (1)
0x820|                           18                  |         .      |        idx: 24 (valid) 0x829-0x829.7 (1)
     |                                               |                |      [8]{}: local_time_type 0x82a-0x82f.7 (6)
0x820|                              ff ff 81 70      |          ...p  |        utoff: -32400 (valid) 0x82a-0x82d.7 (4)
0x820|                                          01   |              . |        dst: 1 (valid) 0x82e-0x82e.7 (1)
0x820|                                             1d|               .|        idx: 29 (valid) 0x82f-0x82f.7 (1)
     |                                               |                |      [9]{}: local_time_type 0x830-0x835.7 (6)
0x830|ff ff 73 60                                    |..s`            |        utoff: -36000 (valid) 0x830-0x833.7 (4)
0x830|            00                                 |    .           |        dst: 0 (valid) 0x834-0x834.7 (1)
0x830|               19                              |     .          |        idx: 25 (valid) 0x835-0x835.7 (1)
     |                                               |                |    time_zone_designations[0:8]: 0x836-0x856.7 (33)
0x830|                  4c 4d 54 00                  |      LMT.      |      [0]: "LMT" time_zone_designation 0x836-0x839.7 (4)
0x830|                              4e 53 54 00      |          NST.  |      [1]: "NST" time_zone_designation 0x83a-0x83d.7 (4)
0x830|                                          4e 57|              NW|      [2]: "NWT" time_zone_designation 0x83e-0x841.7 (4)
0x840|54 00                                          |T.              |
0x840|      4e 50 54 00                              |  NPT.          |      [3]: "NPT" time_zone_designation 0x842-0x845.7 (4)
0x840|                  42 53 54 00                  |      BST.      |      [4]: "BST" time_zone_designation 0x846-0x849.7 (4)
0x840|                              42 44 54 00      |          BDT.  |      [5]: "BDT" time_zone_designation 0x84a-0x84d.7 (4)
0x840|                                          41 48|              AH|      [6]: "AHST" time_zone_designation 0x84e-0x852.7 (5)
0x850|53 54 00                                       |ST.             |
0x850|         48 44 54 00                           |   HDT.         |      [7]: "HDT" time_zone_designation 0x853-0x856.7 (4)
     |                                               |                |    leap_second_records[0:27]: 0x857-0x99a.7 (324)
     |                                               |                |      [0]{}: leap_second_record 0x857-0x862.7 (12)
0x850|                     00 00 00 00 04 b2 58 00   |       ......X. |        occur: "1972-07-01T00:00:00Z" (78796800) 0x857-0x85e.7 (8)
0x850|                                             00|               .|        corr: 1 0x85f-0x862.7 (4)
0x860|00 00 01                                       |...             |
     |                                               |                |      [1]{}: leap_second_record 0x863-0x86e.7 (12)
0x860|         00 00 00 00 05 a4 ec 01               |   ........     |        occur: "1973-01-01T00:00:01Z" (94694401) 0x863-0x86a.7 (8)
0x860|                                 00 00 00 02   |           .... |        corr: 2 0x86b-0x86e.7 (4)
     |                                               |                |      [2]{}: leap_second_record 0x86f-0x87a.7 (12)
0x860|                                             00|               .|        occur: "1974-01-01T00:00:02Z" (126230402) 0x86f-0x876.7 (8)
0x870|00 00 00 07 86 1f 82                           |.......         |
0x870|                     00 00 00 03               |       ....     |        corr: 3 0x877-0x87a.7 (4)
     |                                               |                |      [3]{}: leap_second_record 0x87b-0x886.7 (12)
0x870|                                 00 00 00 00 09|           .....|        occur: "1975-01-01T00:00:03Z" (157766403) 0x87b-0x882.7 (8)
0x880|67 53 03                                       |gS.             |
0x880|         00 00 00 04                           |   ....         |        corr: 4 0x883-0x886.7 (4)
     |                                               |                |      [4]{}: leap_second_record 0x887-0x892.7 (12)
0x880|                     00 00 00 00 0b 48 86 84   |       .....H.. |        occur: "1976-01-01T00:00:04Z" (189302404) 0x887-0x88e.7 (8)
0x880|                                             00|               .|        corr: 5 0x88f-0x892.7 (4)
0x890|00 00 05                                       |...             |
     |                                               |                |      [5]{}: leap_second_record 0x893-0x89e.7 (12)
0x890|         00 00 00 00 0d 2b 0b 85               |   .....+..     |        occur: "1977-01-01T00:00:05Z" (220924805) 0x893-0x89a.7 (8)
0x890|                                 00 00 00 06   |           .... |        corr: 6 0x89b-0x89e.7 (4)
     |                                               |                |      [6]{}: leap_second_record 0x89f-0x8aa.7 (12)
0x890|                                             00|               .|        occur: "1978-01-01T00:00:06Z" (252460806) 0x89f-0x8a6.7 (8)
0x8a0|00 00 00 0f 0c 3f 06                           |.....?.         |
0x8a0|                     00 00 00 07               |       ....     |        corr: 7 0x8a7-0x8aa.7 (4)
     |                                               |                |      [7]{}: leap_second_record 0x8ab-0x8b6.7 (12)
0x8a0|                                 00 00 00 00 10|           .....|        occur: "1979-01-01T00:00:07Z" (283996807) 0x8ab-0x8b2.7 (8)
0x8b0|ed 72 87                                       |.r.             |
0x8b0|         00 00 00 08                           |   ....         |        corr: 8 0x8b3-0x8b6.7 (4)
     |                                               |                |      [8]{}: leap_second_record 0x8b7-0x8c2.7 (12)
0x8b0|                     00 00 00 00 12 ce a6 08   |       ........ |        occur: "1980-01-01T00:00:08Z" (315532808) 0x8b7-0x8be.7 (8)
0x8b0|                                             00|               .|        corr: 9 0x8bf-0x8c2.7 (4)
0x8c0|00 00 09                                       |...             |
     |                                               |                |      [9]{}: leap_second_record 0x8c3-0x8ce.7 (12)
0x8c0|         00 00 00 00 15 9f ca 89               |   ........     |        occur: "1981-07-01T00:00:09Z" (362793609) 0x8c3-0x8ca.7 (8)
0x8c0|                                 00 00 00 0a   |           .... |        corr: 10 0x8cb-0x8ce.7 (4)
     |                                               |                |      [10]{}: leap_second_record 0x8cf-0x8da.7 (12)
0x8c0|                                             00|               .|        occur: "1982-07-01T00:00:10Z" (394329610) 0x8cf-0x8d6.7 (8)
0x8d0|00 00 00 17 80 fe 0a                           |.......         |
0x8d0|                     00 00 00 0b               |       ....     |        corr: 11 0x8d7-0x8da.7 (4)
     |                                               |                |      [11]{}: leap_second_record 0x8db-0x8e6.7 (12)
0x8d0|                                 00 00 00 00 19|           .....|        occur: "1983-07-01T00:00:11Z" (425865611) 0x8db-0x8e2.7 (8)
0x8e0|62 31 8b                                       |b1.             |
0x8e0|         00 00 00 0c                           |   ....         |        corr: 12 0x8e3-0x8e6.7 (4)
     |                                               |                |      [12]{}: leap_second_record 0x8e7-0x8f2.7 (12)
0x8e0|                     00 00 00 00 1d 25 ea 0c   |       .....%.. |        occur: "1985-07-01T00:00:12Z" (489024012) 0x8e7-0x8ee.7 (8)
0x8e0|                                             00|               .|        corr: 13 0x8ef-0x8f2.7 (4)
0x8f0|00 00 0d                                       |...             |
     |                                               |                |      [13]{}: leap_second_record 0x8f3-0x8fe.7 (12)
0x8f0|         00 00 00 00 21 da e5 0d               |   ....!...     |        occur: "1988-01-01T00:00:13Z" (567993613) 0x8f3-0x8fa.7 (8)
0x8f0|                                 00 00 00 0e   |           .... |        corr: 14 0x8fb-0x8fe.7 (4)
     |                                               |                |      [14]{}: leap_second_record 0x8ff-0x90a.7 (12)
0x8f0|                                             00|               .|        occur: "1990-01-01T00:00:14Z" (631152014) 0x8ff-0x906.7 (8)
0x900|00 00 00 25 9e 9d 8e                           |...%...         |
0x900|                     00 00 00 0f               |       ....     |        corr: 15 0x907-0x90a.7 (4)
     |                                               |                |      [15]{}: leap_second_record 0x90b-0x916.7 (12)
0x900|                                 00 00 00 00 27|           ....'|        occur: "1991-01-01T00:00:15Z" (662688015) 0x90b-0x912.7 (8)
0x910|7f d1 0f                                       |...             |
0x910|         00 00 00 10                           |   ....         |        corr: 16 0x913-0x916.7 (4)
     |                                               |                |      [16]{}: leap_second_record 0x917-0x922.7 (12)
0x910|                     00 00 00 00 2a 50 f5 90   |       ....*P.. |        occur: "1992-07-01T00:00:16Z" (709948816) 0x917-0x91e.7 (8)
0x910|                                             00|               .|        corr: 17 0x91f-0x922.7 (4)
0x920|00 00 11                                       |...             |
     |                                               |                |      [17]{}: leap_second_record 0x923-0x92e.7 (12)
0x920|         00 00 00 00 2c 32 29 11               |   ....,2).     |        occur: "1993-07-01T00:00:17Z" (741484817) 0x923-0x92a.7 (8)
0x920|                                 00 00 00 12   |           .... |        corr: 18 0x92b-0x92e.7 (4)
     |                                               |                |      [18]{}: leap_second_record 0x92f-0x93a.7 (12)
0x920|                                             00|               .|        occur: "1994-07-01T00:00:18Z" (773020818) 0x92f-0x936.7 (8)
0x930|00 00 00 2e 13 5c 92                           |.....\.         |
0x930|                     00 00 00 13               |       ....     |        corr: 19 0x937-0x93a.7 (4)
     |                                               |                |      [19]{}: leap_second_record 0x93b-0x946.7 (12)
0x930|                                 00 00 00 00 30|           ....0|        occur: "1996-01-01T00:00:19Z" (820454419) 0x93b-0x942.7 (8)
0x940|e7 24 13                                       |.$.             |
0x940|         00 00 00 14                           |   ....         |        corr: 20 0x943-0x946.7 (4)
     |                                               |                |      [20]{}: leap_second_record 0x947-0x952.7 (12)
0x940|                     00 00 00 00 33 b8 48 94   |       ....3.H. |        occur: "1997-07-01T00:00:20Z" (867715220) 0x947-0x94e.7 (8)
0x940|                                             00|               .|        corr: 21 0x94f-0x952.7 (4)
0x950|00 00 15                                       |...             |
     |                                               |                |      [21]{}: leap_second_record 0x953-0x95e.7 (12)
0x950|         00 00 00 00 36 8c 10 15               |   ....6...     |        occur: "1999-01-01T00:00:21Z" (915148821) 0x953-0x95a.7 (8)
0x950|                                 00 00 00 16   |           .... |        corr: 22 0x95b-0x95e.7 (4)
     |                                               |                |      [22]{}: leap_second_record 0x95f-0x96a.7 (12)
0x950|                                             00|               .|        occur: "2006-01-01T00:00:22Z" (1136073622) 0x95f-0x966.7 (8)
0x960|00 00 00 43 b7 1b 96                           |...C...         |
0x960|                     00 00 00 17               |       ....     |        corr: 23 0x967-0x96a.7 (4)
     |                                               |                |      [23]{}: leap_second_record 0x96b-0x976.7 (12)
0x960|                                 00 00 00 00 49|           ....I|        occur: "2009-01-01T00:00:23Z" (1230768023) 0x96b-0x972.7 (8)
0x970|5c 07 97                                       |\..             |
0x970|         00 00 00 18                           |   ....         |        corr: 24 0x973-0x976.7 (4)
     |                                               |                |      [24]{}: leap_second_record 0x977-0x982.7 (12)
0x970|                     00 00 00 00 4f ef 93 18   |       ....O... |        occur: "2012-07-01T00:00:24Z" (1341100824) 0x977-0x97e.7 (8)
0x970|                                             00|               .|        corr: 25 0x97f-0x982.7 (4)
0x980|00 00 19                                       |...             |
     |                                               |                |      [25]{}: leap_second_record 0x983-0x98e.7 (12)
0x980|         00 00 00 00 55 93 2d 99               |   ....U.-.     |        occur: "2015-07-01T00:00:25Z" (1435708825) 0x983-0x98a.7 (8)
0x980|                                 00 00 00 1a   |           .... |        corr: 26 0x98b-0x98e.7 (4)
     |                                               |                |      [26]{}: leap_second_record 0x98f-0x99a.7 (12)
0x980|                                             00|               .|        occur: "2017-01-01T00:00:26Z" (1483228826) 0x98f-0x996.7 (8)
0x990|00 00 00 58 68 46 9a                           |...XhF.         |
0x990|                     00 00 00 1b               |       ....     |        corr: 27 0x997-0x99a.7 (4)
     |                                               |                |    standard_wall_indicators[0:10]: 0x99b-0x9a4.7 (10)
0x990|                                 00            |           .    |      [0]: 0 standard_wall_indicator (valid) 0x99b-0x99b.7 (1)
0x990|                                    00         |            .   |      [1]: 0 standard_wall_indicator (valid) 0x99c-0x99c.7 (1)
0x990|                                       00      |             .  |      [2]: 0 standard_wall_indicator (valid) 0x99d-0x99d.7 (1)
0x990|                                          00   |              . |      [3]: 0 standard_wall_indicator (valid) 0x99e-0x99e.7 (1)
0x990|                                             01|               .|      [4]: 1 standard_wall_indicator (valid) 0x99f-0x99f.7 (1)
0x9a0|00                                             |.               |      [5]: 0 standard_wall_indicator (valid) 0x9a0-0x9a0.7 (1)
0x9a0|   00                                          | .              |      [6]: 0 standard_wall_indicator (valid) 0x9a1-0x9a1.7 (1)
0x9a0|      00                                       |  .             |      [7]: 0 standard_wall_indicator (valid) 0x9a2-0x9a2.7 (1)
0x9a0|         00                                    |   .            |      [8]: 0 standard_wall_indicator (valid) 0x9a3-0x9a3.7 (1)
0x9a0|            00                                 |    .           |      [9]: 0 standard_wall_indicator (valid) 0x9a4-0x9a4.7 (1)
     |                                               |                |    ut_local_indicators[0:10]: 0x9a5-0x9ae.7 (10)
0x9a0|               00                              |     .          |      [0]: 0 ut_local_indicator (valid) 0x9a5-0x9a5.7 (1)
0x9a0|                  00                           |      .         |      [1]: 0 ut_local_indicator (valid) 0x9a6-0x9a6.7 (1)
0x9a0|                     00                        |       .        |      [2]: 0 ut_local_indicator (valid) 0x9a7-0x9a7.7 (1)
0x9a0|                        00                     |        .       |      [3]: 0 ut_local_indicator (valid) 0x9a8-0x9a8.7 (1)
0x9a0|                           01                  |         .      |      [4]: 1 ut_local_indicator (valid) 0x9a9-0x9a9.7 (1)
0x9a0|                              00               |          .     |      [5]: 0 ut_local_indicator (valid) 0x9aa-0x9aa.7 (1)
0x9a0|                                 00            |           .    |      [6]: 0 ut_local_indicator (valid) 0x9ab-0x9ab.7 (1)
0x9a0|                                    00         |            .   |      [7]: 0 ut_local_indicator (valid) 0x9ac-0x9ac.7 (1)
0x9a0|                                       00      |             .  |      [8]: 0 ut_local_indicator (valid) 0x9ad-0x9ad.7 (1)
0x9a0|                                          00   |              . |      [9]: 0 ut_local_indicator (valid) 0x9ae-0x9ae.7 (1)
     |                                               |                |  footer{}: 0x9af-0x9b0.7 (2)
0x9a0|                                             0a|               .|    nl1: 10 (valid) 0x9af-0x9af.7 (1)
     |                                               |                |    tz_string: "" 0x9b0-NA (0)
0x9b0|0a|                                            |.|              |    nl2: 10 (valid) 0x9b0-0x9b0.7 (1)
