$ fq -d tzif dv Adelaide
     |00 01 02 03 04 05 06 07 08 09 0a 0b 0c 0d 0e 0f|0123456789abcdef|.{}: Adelaide (tzif) 0x0-0x8a0 (2208)
     |                                               |                |  v1header{}: 0x0-0x2c (44)
0x000|54 5a 69 66                                    |TZif            |    magic: 0x545a6966 (valid) 0x0-0x4 (4)
0x000|            32                                 |    2           |    ver: "2" (0x32) (valid) 0x4-0x5 (1)
0x000|               00 00 00 00 00 00 00 00 00 00 00|     ...........|    reserved: raw bits 0x5-0x14 (15)
0x010|00 00 00 00                                    |....            |
0x010|            00 00 00 00                        |    ....        |    isutcnt: 0 0x14-0x18 (4)
0x010|                        00 00 00 04            |        ....    |    isstdcnt: 4 0x18-0x1c (4)
0x010|                                    00 00 00 00|            ....|    leapcnt: 0 0x1c-0x20 (4)
0x020|00 00 00 8e                                    |....            |    timecnt: 142 0x20-0x24 (4)
0x020|            00 00 00 04                        |    ....        |    typecnt: 4 0x24-0x28 (4)
0x020|                        00 00 00 0e            |        ....    |    charcnt: 14 0x28-0x2c (4)
     |                                               |                |  v1datablock{}: 0x2c-0x31c (752)
     |                                               |                |    transition_times[0:142]: 0x2c-0x264 (568)
0x020|                                    80 00 00 00|            ....|      [0]: "1901-12-13T20:45:52Z" (-2147483648) transition_time 0x2c-0x30 (4)
0x030|9c 4e c9 88                                    |.N..            |      [1]: "1916-12-31T16:30:00Z" (-1672558200) transition_time 0x30-0x34 (4)
0x030|            9c bc 36 08                        |    ..6.        |      [2]: "1917-03-24T16:30:00Z" (-1665387000) transition_time 0x34-0x38 (4)
0x030|                        cb 54 ba 08            |        .T..    |      [3]: "1941-12-31T16:30:00Z" (-883639800) transition_time 0x38-0x3c (4)
0x030|                                    cb c7 6c 88|            ..l.|      [4]: "1942-03-28T16:30:00Z" (-876123000) transition_time 0x3c-0x40 (4)
0x040|cc b7 5d 88                                    |..].            |      [5]: "1942-09-26T16:30:00Z" (-860398200) transition_time 0x40-0x44 (4)
0x040|            cd a7 4e 88                        |    ..N.        |      [6]: "1943-03-27T16:30:00Z" (-844673400) transition_time 0x44-0x48 (4)
0x040|                        ce a0 7a 08            |        ..z.    |      [7]: "1943-10-02T16:30:00Z" (-828343800) transition_time 0x48-0x4c (4)
0x040|                                    cf 87 30 88|            ..0.|      [8]: "1944-03-25T16:30:00Z" (-813223800) transition_time 0x4c-0x50 (4)
0x050|03 70 40 88                                    |.p@.            |      [9]: "1971-10-30T16:30:00Z" (57688200) transition_time 0x50-0x54 (4)
0x050|            04 0d 23 08                        |    ..#.        |      [10]: "1972-02-26T16:30:00Z" (67969800) transition_time 0x54-0x58 (4)
0x050|                        05 50 22 88            |        .P".    |      [11]: "1972-10-28T16:30:00Z" (89137800) transition_time 0x58-0x5c (4)
0x050|                                    05 f6 3f 88|            ..?.|      [12]: "1973-03-03T16:30:00Z" (100024200) transition_time 0x5c-0x60 (4)
0x060|07 30 04 88                                    |.0..            |      [13]: "1973-10-27T16:30:00Z" (120587400) transition_time 0x60-0x64 (4)
0x060|            07 d6 21 88                        |    ..!.        |      [14]: "1974-03-02T16:30:00Z" (131473800) transition_time 0x64-0x68 (4)
0x060|                        09 0f e6 88            |        ....    |      [15]: "1974-10-26T16:30:00Z" (152037000) transition_time 0x68-0x6c (4)
0x060|                                    09 b6 03 88|            ....|      [16]: "1975-03-01T16:30:00Z" (162923400) transition_time 0x6c-0x70 (4)
0x070|0a ef c8 88                                    |....            |      [17]: "1975-10-25T16:30:00Z" (183486600) transition_time 0x70-0x74 (4)
0x070|            0b 9f 20 08                        |    .. .        |      [18]: "1976-03-06T16:30:00Z" (194977800) transition_time 0x74-0x78 (4)
0x070|                        0c d8 e5 08            |        ....    |      [19]: "1976-10-30T16:30:00Z" (215541000) transition_time 0x78-0x7c (4)
0x070|                                    0d 7f 02 08|            ....|      [20]: "1977-03-05T16:30:00Z" (226427400) transition_time 0x7c-0x80 (4)
0x080|0e b8 c7 08                                    |....            |      [21]: "1977-10-29T16:30:00Z" (246990600) transition_time 0x80-0x84 (4)
0x080|            0f 5e e4 08                        |    .^..        |      [22]: "1978-03-04T16:30:00Z" (257877000) transition_time 0x84-0x88 (4)
0x080|                        10 98 a9 08            |        ....    |      [23]: "1978-10-28T16:30:00Z" (278440200) transition_time 0x88-0x8c (4)
0x080|                                    11 3e c6 08|            .>..|      [24]: "1979-03-03T16:30:00Z" (289326600) transition_time 0x8c-0x90 (4)
0x090|12 78 8b 08                                    |.x..            |      [25]: "1979-10-27T16:30:00Z" (309889800) transition_time 0x90-0x94 (4)
0x090|            13 1e a8 08                        |    ....        |      [26]: "1980-03-01T16:30:00Z" (320776200) transition_time 0x94-0x98 (4)
0x090|                        14 58 6d 08            |        .Xm.    |      [27]: "1980-10-25T16:30:00Z" (341339400) transition_time 0x98-0x9c (4)
0x090|                                    14 fe 8a 08|            ....|      [28]: "1981-02-28T16:30:00Z" (352225800) transition_time 0x9c-0xa0 (4)
0x0a0|16 38 4f 08                                    |.8O.            |      [29]: "1981-10-24T16:30:00Z" (372789000) transition_time 0xa0-0xa4 (4)
0x0a0|            16 e7 a6 88                        |    ....        |      [30]: "1982-03-06T16:30:00Z" (384280200) transition_time 0xa4-0xa8 (4)
0x0a0|                        18 21 6b 88            |        .!k.    |      [31]: "1982-10-30T16:30:00Z" (404843400) transition_time 0xa8-0xac (4)
0x0a0|                                    18 c7 88 88|            ....|      [32]: "1983-03-05T16:30:00Z" (415729800) transition_time 0xac-0xb0 (4)
0x0b0|1a 01 4d 88                                    |..M.            |      [33]: "1983-10-29T16:30:00Z" (436293000) transition_time 0xb0-0xb4 (4)
0x0b0|            1a a7 6a 88                        |    ..j.        |      [34]: "1984-03-03T16:30:00Z" (447179400) transition_time 0xb4-0xb8 (4)
0x0b0|                        1b e1 2f 88            |        ../.    |      [35]: "1984-10-27T16:30:00Z" (467742600) transition_time 0xb8-0xbc (4)
0x0b0|                                    1c 87 4c 88|            ..L.|      [36]: "1985-03-02T16:30:00Z" (478629000) transition_time 0xbc-0xc0 (4)
0x0c0|1d c1 11 88                                    |....            |      [37]: "1985-10-26T16:30:00Z" (499192200) transition_time 0xc0-0xc4 (4)
0x0c0|            1e 79 a3 88                        |    .y..        |      [38]: "1986-03-15T16:30:00Z" (511288200) transition_time 0xc4-0xc8 (4)
0x0c0|                        1f 97 b9 08            |        ....    |      [39]: "1986-10-18T16:30:00Z" (530037000) transition_time 0xc8-0xcc (4)
0x0c0|                                    20 59 85 88|             Y..|      [40]: "1987-03-14T16:30:00Z" (542737800) transition_time 0xcc-0xd0 (4)
0x0d0|21 80 d5 88                                    |!...            |      [41]: "1987-10-24T16:30:00Z" (562091400) transition_time 0xd0-0xd4 (4)
0x0d0|            22 42 a2 08                        |    "B..        |      [42]: "1988-03-19T16:30:00Z" (574792200) transition_time 0xd4-0xd8 (4)
0x0d0|                        23 69 f2 08            |        #i..    |      [43]: "1988-10-29T16:30:00Z" (594145800) transition_time 0xd8-0xdc (4)
0x0d0|                                    24 22 84 08|            $"..|      [44]: "1989-03-18T16:30:00Z" (606241800) transition_time 0xdc-0xe0 (4)
0x0e0|25 49 d4 08                                    |%I..            |      [45]: "1989-10-28T16:30:00Z" (625595400) transition_time 0xe0-0xe4 (4)
0x0e0|            26 02 66 08                        |    &.f.        |      [46]: "1990-03-17T16:30:00Z" (637691400) transition_time 0xe4-0xe8 (4)
0x0e0|                        27 29 b6 08            |        ')..    |      [47]: "1990-10-27T16:30:00Z" (657045000) transition_time 0xe8-0xec (4)
0x0e0|                                    27 cf d3 08|            '...|      [48]: "1991-03-02T16:30:00Z" (667931400) transition_time 0xec-0xf0 (4)
0x0f0|29 09 98 08                                    |)...            |      [49]: "1991-10-26T16:30:00Z" (688494600) transition_time 0xf0-0xf4 (4)
0x0f0|            29 cb 64 88                        |    ).d.        |      [50]: "1992-03-21T16:30:00Z" (701195400) transition_time 0xf4-0xf8 (4)
0x0f0|                        2a e9 7a 08            |        *.z.    |      [51]: "1992-10-24T16:30:00Z" (719944200) transition_time 0xf8-0xfc (4)
0x0f0|                                    2b 98 d1 88|            +...|      [52]: "1993-03-06T16:30:00Z" (731435400) transition_time 0xfc-0x100 (4)
0x100|2c d2 96 88                                    |,...            |      [53]: "1993-10-30T16:30:00Z" (751998600) transition_time 0x100-0x104 (4)
0x100|            2d 8b 28 88                        |    -.(.        |      [54]: "1994-03-19T16:30:00Z" (764094600) transition_time 0x104-0x108 (4)
0x100|                        2e b2 78 88            |        ..x.    |      [55]: "1994-10-29T16:30:00Z" (783448200) transition_time 0x108-0x10c (4)
0x100|                                    2f 74 45 08|            /tE.|      [56]: "1995-03-25T16:30:00Z" (796149000) transition_time 0x10c-0x110 (4)
0x110|30 92 5a 88                                    |0.Z.            |      [57]: "1995-10-28T16:30:00Z" (814897800) transition_time 0x110-0x114 (4)
0x110|            31 5d 61 88                        |    1]a.        |      [58]: "1996-03-30T16:30:00Z" (828203400) transition_time 0x114-0x118 (4)
0x110|                        32 72 3c 88            |        2r<.    |      [59]: "1996-10-26T16:30:00Z" (846347400) transition_time 0x118-0x11c (4)
0x110|                                    33 3d 43 88|            3=C.|      [60]: "1997-03-29T16:30:00Z" (859653000) transition_time 0x11c-0x120 (4)
0x120|34 52 1e 88                                    |4R..            |      [61]: "1997-10-25T16:30:00Z" (877797000) transition_time 0x120-0x124 (4)
0x120|            35 1d 25 88                        |    5.%.        |      [62]: "1998-03-28T16:30:00Z" (891102600) transition_time 0x124-0x128 (4)
0x120|                        36 32 00 88            |        62..    |      [63]: "1998-10-24T16:30:00Z" (909246600) transition_time 0x128-0x12c (4)
0x120|                                    36 fd 07 88|            6...|      [64]: "1999-03-27T16:30:00Z" (922552200) transition_time 0x12c-0x130 (4)
0x130|38 1b 1d 08                                    |8...            |      [65]: "1999-10-30T16:30:00Z" (941301000) transition_time 0x130-0x134 (4)
0x130|            38 dc e9 88                        |    8...        |      [66]: "2000-03-25T16:30:00Z" (954001800) transition_time 0x134-0x138 (4)
0x130|                        39 fa ff 08            |        9...    |      [67]: "2000-10-28T16:30:00Z" (972750600) transition_time 0x138-0x13c (4)
0x130|                                    3a bc cb 88|            :...|      [68]: "2001-03-24T16:30:00Z" (985451400) transition_time 0x13c-0x140 (4)
0x140|3b da e1 08                                    |;...            |      [69]: "2001-10-27T16:30:00Z" (1004200200) transition_time 0x140-0x144 (4)
0x140|            3c a5 e8 08                        |    <...        |      [70]: "2002-03-30T16:30:00Z" (1017505800) transition_time 0x144-0x148 (4)
0x140|                        3d ba c3 08            |        =...    |      [71]: "2002-10-26T16:30:00Z" (1035649800) transition_time 0x148-0x14c (4)
0x140|                                    3e 85 ca 08|            >...|      [72]: "2003-03-29T16:30:00Z" (1048955400) transition_time 0x14c-0x150 (4)
0x150|3f 9a a5 08                                    |?...            |      [73]: "2003-10-25T16:30:00Z" (1067099400) transition_time 0x150-0x154 (4)
0x150|            40 65 ac 08                        |    @e..        |      [74]: "2004-03-27T16:30:00Z" (1080405000) transition_time 0x154-0x158 (4)
0x150|                        41 83 c1 88            |        A...    |      [75]: "2004-10-30T16:30:00Z" (1099153800) transition_time 0x158-0x15c (4)
0x150|                                    42 45 8e 08|            BE..|      [76]: "2005-03-26T16:30:00Z" (1111854600) transition_time 0x15c-0x160 (4)
0x160|43 63 a3 88                                    |Cc..            |      [77]: "2005-10-29T16:30:00Z" (1130603400) transition_time 0x160-0x164 (4)
0x160|            44 2e aa 88                        |    D...        |      [78]: "2006-04-01T16:30:00Z" (1143909000) transition_time 0x164-0x168 (4)
0x160|                        45 43 85 88            |        EC..    |      [79]: "2006-10-28T16:30:00Z" (1162053000) transition_time 0x168-0x16c (4)
0x160|                                    46 05 52 08|            F.R.|      [80]: "2007-03-24T16:30:00Z" (1174753800) transition_time 0x16c-0x170 (4)
0x170|47 23 67 88                                    |G#g.            |      [81]: "2007-10-27T16:30:00Z" (1193502600) transition_time 0x170-0x174 (4)
0x170|            47 f7 a9 08                        |    G...        |      [82]: "2008-04-05T16:30:00Z" (1207413000) transition_time 0x174-0x178 (4)
0x170|                        48 e7 9a 08            |        H...    |      [83]: "2008-10-04T16:30:00Z" (1223137800) transition_time 0x178-0x17c (4)
0x170|                                    49 d7 8b 08|            I...|      [84]: "2009-04-04T16:30:00Z" (1238862600) transition_time 0x17c-0x180 (4)
0x180|4a c7 7c 08                                    |J.|.            |      [85]: "2009-10-03T16:30:00Z" (1254587400) transition_time 0x180-0x184 (4)
0x180|            4b b7 6d 08                        |    K.m.        |      [86]: "2010-04-03T16:30:00Z" (1270312200) transition_time 0x184-0x188 (4)
0x180|                        4c a7 5e 08            |        L.^.    |      [87]: "2010-10-02T16:30:00Z" (1286037000) transition_time 0x188-0x18c (4)
0x180|                                    4d 97 4f 08|            M.O.|      [88]: "2011-04-02T16:30:00Z" (1301761800) transition_time 0x18c-0x190 (4)
0x190|4e 87 40 08                                    |N.@.            |      [89]: "2011-10-01T16:30:00Z" (1317486600) transition_time 0x190-0x194 (4)
0x190|            4f 77 31 08                        |    Ow1.        |      [90]: "2012-03-31T16:30:00Z" (1333211400) transition_time 0x194-0x198 (4)
0x190|                        50 70 5c 88            |        Pp\.    |      [91]: "2012-10-06T16:30:00Z" (1349541000) transition_time 0x198-0x19c (4)
0x190|                                    51 60 4d 88|            Q`M.|      [92]: "2013-04-06T16:30:00Z" (1365265800) transition_time 0x19c-0x1a0 (4)
0x1a0|52 50 3e 88                                    |RP>.            |      [93]: "2013-10-05T16:30:00Z" (1380990600) transition_time 0x1a0-0x1a4 (4)
0x1a0|            53 40 2f 88                        |    S@/.        |      [94]: "2014-04-05T16:30:00Z" (1396715400) transition_time 0x1a4-0x1a8 (4)
0x1a0|                        54 30 20 88            |        T0 .    |      [95]: "2014-10-04T16:30:00Z" (1412440200) transition_time 0x1a8-0x1ac (4)
0x1a0|                                    55 20 11 88|            U ..|      [96]: "2015-04-04T16:30:00Z" (1428165000) transition_time 0x1ac-0x1b0 (4)
0x1b0|56 10 02 88                                    |V...            |      [97]: "2015-10-03T16:30:00Z" (1443889800) transition_time 0x1b0-0x1b4 (4)
0x1b0|            56 ff f3 88                        |    V...        |      [98]: "2016-04-02T16:30:00Z" (1459614600) transition_time 0x1b4-0x1b8 (4)
0x1b0|                        57 ef e4 88            |        W...    |      [99]: "2016-10-01T16:30:00Z" (1475339400) transition_time 0x1b8-0x1bc (4)
0x1b0|                                    58 df d5 88|            X...|      [100]: "2017-04-01T16:30:00Z" (1491064200) transition_time 0x1bc-0x1c0 (4)
0x1c0|59 cf c6 88                                    |Y...            |      [101]: "2017-09-30T16:30:00Z" (1506789000) transition_time 0x1c0-0x1c4 (4)
0x1c0|            5a bf b7 88                        |    Z...        |      [102]: "2018-03-31T16:30:00Z" (1522513800) transition_time 0x1c4-0x1c8 (4)
0x1c0|                        5b b8 e3 08            |        [...    |      [103]: "2018-10-06T16:30:00Z" (1538843400) transition_time 0x1c8-0x1cc (4)
0x1c0|                                    5c a8 d4 08|            \...|      [104]: "2019-04-06T16:30:00Z" (1554568200) transition_time 0x1cc-0x1d0 (4)
0x1d0|5d 98 c5 08                                    |]...            |      [105]: "2019-10-05T16:30:00Z" (1570293000) transition_time 0x1d0-0x1d4 (4)
0x1d0|            5e 88 b6 08                        |    ^...        |      [106]: "2020-04-04T16:30:00Z" (1586017800) transition_time 0x1d4-0x1d8 (4)
0x1d0|                        5f 78 a7 08            |        _x..    |      [107]: "2020-10-03T16:30:00Z" (1601742600) transition_time 0x1d8-0x1dc (4)
0x1d0|                                    60 68 98 08|            `h..|      [108]: "2021-04-03T16:30:00Z" (1617467400) transition_time 0x1dc-0x1e0 (4)
0x1e0|61 58 89 08                                    |aX..            |      [109]: "2021-10-02T16:30:00Z" (1633192200) transition_time 0x1e0-0x1e4 (4)
0x1e0|            62 48 7a 08                        |    bHz.        |      [110]: "2022-04-02T16:30:00Z" (1648917000) transition_time 0x1e4-0x1e8 (4)
0x1e0|                        63 38 6b 08            |        c8k.    |      [111]: "2022-10-01T16:30:00Z" (1664641800) transition_time 0x1e8-0x1ec (4)
0x1e0|                                    64 28 5c 08|            d(\.|      [112]: "2023-04-01T16:30:00Z" (1680366600) transition_time 0x1ec-0x1f0 (4)
0x1f0|65 18 4d 08                                    |e.M.            |      [113]: "2023-09-30T16:30:00Z" (1696091400) transition_time 0x1f0-0x1f4 (4)
0x1f0|            66 11 78 88                        |    f.x.        |      [114]: "2024-04-06T16:30:00Z" (1712421000) transition_time 0x1f4-0x1f8 (4)
0x1f0|                        67 01 69 88            |        g.i.    |      [115]: "2024-10-05T16:30:00Z" (1728145800) transition_time 0x1f8-0x1fc (4)
0x1f0|                                    67 f1 5a 88|            g.Z.|      [116]: "2025-04-05T16:30:00Z" (1743870600) transition_time 0x1fc-0x200 (4)
0x200|68 e1 4b 88                                    |h.K.            |      [117]: "2025-10-04T16:30:00Z" (1759595400) transition_time 0x200-0x204 (4)
0x200|            69 d1 3c 88                        |    i.<.        |      [118]: "2026-04-04T16:30:00Z" (1775320200) transition_time 0x204-0x208 (4)
0x200|                        6a c1 2d 88            |        j.-.    |      [119]: "2026-10-03T16:30:00Z" (1791045000) transition_time 0x208-0x20c (4)
0x200|                                    6b b1 1e 88|            k...|      [120]: "2027-04-03T16:30:00Z" (1806769800) transition_time 0x20c-0x210 (4)
0x210|6c a1 0f 88                                    |l...            |      [121]: "2027-10-02T16:30:00Z" (1822494600) transition_time 0x210-0x214 (4)
0x210|            6d 91 00 88                        |    m...        |      [122]: "2028-04-01T16:30:00Z" (1838219400) transition_time 0x214-0x218 (4)
0x210|                        6e 80 f1 88            |        n...    |      [123]: "2028-09-30T16:30:00Z" (1853944200) transition_time 0x218-0x21c (4)
0x210|                                    6f 70 e2 88|            op..|      [124]: "2029-03-31T16:30:00Z" (1869669000) transition_time 0x21c-0x220 (4)
0x220|70 6a 0e 08                                    |pj..            |      [125]: "2029-10-06T16:30:00Z" (1885998600) transition_time 0x220-0x224 (4)
0x220|            71 59 ff 08                        |    qY..        |      [126]: "2030-04-06T16:30:00Z" (1901723400) transition_time 0x224-0x228 (4)
0x220|                        72 49 f0 08            |        rI..    |      [127]: "2030-10-05T16:30:00Z" (1917448200) transition_time 0x228-0x22c (4)
0x220|                                    73 39 e1 08|            s9..|      [128]: "2031-04-05T16:30:00Z" (1933173000) transition_time 0x22c-0x230 (4)
0x230|74 29 d2 08                                    |t)..            |      [129]: "2031-10-04T16:30:00Z" (1948897800) transition_time 0x230-0x234 (4)
0x230|            75 19 c3 08                        |    u...        |      [130]: "2032-04-03T16:30:00Z" (1964622600) transition_time 0x234-0x238 (4)
0x230|                        76 09 b4 08            |        v...    |      [131]: "2032-10-02T16:30:00Z" (1980347400) transition_time 0x238-0x23c (4)
0x230|                                    76 f9 a5 08|            v...|      [132]: "2033-04-02T16:30:00Z" (1996072200) transition_time 0x23c-0x240 (4)
0x240|77 e9 96 08                                    |w...            |      [133]: "2033-10-01T16:30:00Z" (2011797000) transition_time 0x240-0x244 (4)
0x240|            78 d9 87 08                        |    x...        |      [134]: "2034-04-01T16:30:00Z" (2027521800) transition_time 0x244-0x248 (4)
0x240|                        79 c9 78 08            |        y.x.    |      [135]: "2034-09-30T16:30:00Z" (2043246600) transition_time 0x248-0x24c (4)
0x240|                                    7a b9 69 08|            z.i.|      [136]: "2035-03-31T16:30:00Z" (2058971400) transition_time 0x24c-0x250 (4)
0x250|7b b2 94 88                                    |{...            |      [137]: "2035-10-06T16:30:00Z" (2075301000) transition_time 0x250-0x254 (4)
0x250|            7c a2 85 88                        |    |...        |      [138]: "2036-04-05T16:30:00Z" (2091025800) transition_time 0x254-0x258 (4)
0x250|                        7d 92 76 88            |        }.v.    |      [139]: "2036-10-04T16:30:00Z" (2106750600) transition_time 0x258-0x25c (4)
0x250|                                    7e 82 67 88|            ~.g.|      [140]: "2037-04-04T16:30:00Z" (2122475400) transition_time 0x25c-0x260 (4)
0x260|7f 72 58 88                                    |.rX.            |      [141]: "2037-10-03T16:30:00Z" (2138200200) transition_time 0x260-0x264 (4)
     |                                               |                |    transition_types[0:142]: 0x264-0x2f2 (142)
0x260|            03                                 |    .           |      [0]: 3 transition_type 0x264-0x265 (1)
0x260|               01                              |     .          |      [1]: 1 transition_type 0x265-0x266 (1)
0x260|                  02                           |      .         |      [2]: 2 transition_type 0x266-0x267 (1)
0x260|                     01                        |       .        |      [3]: 1 transition_type 0x267-0x268 (1)
0x260|                        02                     |        .       |      [4]: 2 transition_type 0x268-0x269 (1)
0x260|                           01                  |         .      |      [5]: 1 transition_type 0x269-0x26a (1)
0x260|                              02               |          .     |      [6]: 2 transition_type 0x26a-0x26b (1)
0x260|                                 01            |           .    |      [7]: 1 transition_type 0x26b-0x26c (1)
0x260|                                    02         |            .   |      [8]: 2 transition_type 0x26c-0x26d (1)
0x260|                                       01      |             .  |      [9]: 1 transition_type 0x26d-0x26e (1)
0x260|                                          02   |              . |      [10]: 2 transition_type 0x26e-0x26f (1)
0x260|                                             01|               .|      [11]: 1 transition_type 0x26f-0x270 (1)
0x270|02                                             |.               |      [12]: 2 transition_type 0x270-0x271 (1)
0x270|   01                                          | .              |      [13]: 1 transition_type 0x271-0x272 (1)
0x270|      02                                       |  .             |      [14]: 2 transition_type 0x272-0x273 (1)
0x270|         01                                    |   .            |      [15]: 1 transition_type 0x273-0x274 (1)
0x270|            02                                 |    .           |      [16]: 2 transition_type 0x274-0x275 (1)
0x270|               01                              |     .          |      [17]: 1 transition_type 0x275-0x276 (1)
0x270|                  02                           |      .         |      [18]: 2 transition_type 0x276-0x277 (1)
0x270|                     01                        |       .        |      [19]: 1 transition_type 0x277-0x278 (1)
0x270|                        02                     |        .       |      [20]: 2 transition_type 0x278-0x279 (1)
0x270|                           01                  |         .      |      [21]: 1 transition_type 0x279-0x27a (1)
0x270|                              02               |          .     |      [22]: 2 transition_type 0x27a-0x27b (1)
0x270|                                 01            |           .    |      [23]: 1 transition_type 0x27b-0x27c (1)
0x270|                                    02         |            .   |      [24]: 2 transition_type 0x27c-0x27d (1)
0x270|                                       01      |             .  |      [25]: 1 transition_type 0x27d-0x27e (1)
0x270|                                          02   |              . |      [26]: 2 transition_type 0x27e-0x27f (1)
0x270|                                             01|               .|      [27]: 1 transition_type 0x27f-0x280 (1)
0x280|02                                             |.               |      [28]: 2 transition_type 0x280-0x281 (1)
0x280|   01                                          | .              |      [29]: 1 transition_type 0x281-0x282 (1)
0x280|      02                                       |  .             |      [30]: 2 transition_type 0x282-0x283 (1)
0x280|         01                                    |   .            |      [31]: 1 transition_type 0x283-0x284 (1)
0x280|            02                                 |    .           |      [32]: 2 transition_type 0x284-0x285 (1)
0x280|               01                              |     .          |      [33]: 1 transition_type 0x285-0x286 (1)
0x280|                  02                           |      .         |      [34]: 2 transition_type 0x286-0x287 (1)
0x280|                     01                        |       .        |      [35]: 1 transition_type 0x287-0x288 (1)
0x280|                        02                     |        .       |      [36]: 2 transition_type 0x288-0x289 (1)
0x280|                           01                  |         .      |      [37]: 1 transition_type 0x289-0x28a (1)
0x280|                              02               |          .     |      [38]: 2 transition_type 0x28a-0x28b (1)
0x280|                                 01            |           .    |      [39]: 1 transition_type 0x28b-0x28c (1)
0x280|                                    02         |            .   |      [40]: 2 transition_type 0x28c-0x28d (1)
0x280|                                       01      |             .  |      [41]: 1 transition_type 0x28d-0x28e (1)
0x280|                                          02   |              . |      [42]: 2 transition_type 0x28e-0x28f (1)
0x280|                                             01|               .|      [43]: 1 transition_type 0x28f-0x290 (1)
0x290|02                                             |.               |      [44]: 2 transition_type 0x290-0x291 (1)
0x290|   01                                          | .              |      [45]: 1 transition_type 0x291-0x292 (1)
0x290|      02                                       |  .             |      [46]: 2 transition_type 0x292-0x293 (1)
0x290|         01                                    |   .            |      [47]: 1 transition_type 0x293-0x294 (1)
0x290|            02                                 |    .           |      [48]: 2 transition_type 0x294-0x295 (1)
0x290|               01                              |     .          |      [49]: 1 transition_type 0x295-0x296 (1)
0x290|                  02                           |      .         |      [50]: 2 transition_type 0x296-0x297 (1)
0x290|                     01                        |       .        |      [51]: 1 transition_type 0x297-0x298 (1)
0x290|                        02                     |        .       |      [52]: 2 transition_type 0x298-0x299 (1)
0x290|                           01                  |         .      |      [53]: 1 transition_type 0x299-0x29a (1)
0x290|                              02               |          .     |      [54]: 2 transition_type 0x29a-0x29b (1)
0x290|                                 01            |           .    |      [55]: 1 transition_type 0x29b-0x29c (1)
0x290|                                    02         |            .   |      [56]: 2 transition_type 0x29c-0x29d (1)
0x290|                                       01      |             .  |      [57]: 1 transition_type 0x29d-0x29e (1)
0x290|                                          02   |              . |      [58]: 2 transition_type 0x29e-0x29f (1)
0x290|                                             01|               .|      [59]: 1 transition_type 0x29f-0x2a0 (1)
0x2a0|02                                             |.               |      [60]: 2 transition_type 0x2a0-0x2a1 (1)
0x2a0|   01                                          | .              |      [61]: 1 transition_type 0x2a1-0x2a2 (1)
0x2a0|      02                                       |  .             |      [62]: 2 transition_type 0x2a2-0x2a3 (1)
0x2a0|         01                                    |   .            |      [63]: 1 transition_type 0x2a3-0x2a4 (1)
0x2a0|            02                                 |    .           |      [64]: 2 transition_type 0x2a4-0x2a5 (1)
0x2a0|               01                              |     .          |      [65]: 1 transition_type 0x2a5-0x2a6 (1)
0x2a0|                  02                           |      .         |      [66]: 2 transition_type 0x2a6-0x2a7 (1)
0x2a0|                     01                        |       .        |      [67]: 1 transition_type 0x2a7-0x2a8 (1)
0x2a0|                        02                     |        .       |      [68]: 2 transition_type 0x2a8-0x2a9 (1)
0x2a0|                           01                  |         .      |      [69]: 1 transition_type 0x2a9-0x2aa (1)
0x2a0|                              02               |          .     |      [70]: 2 transition_type 0x2aa-0x2ab (1)
0x2a0|                                 01            |           .    |      [71]: 1 transition_type 0x2ab-0x2ac (1)
0x2a0|                                    02         |            .   |      [72]: 2 transition_type 0x2ac-0x2ad (1)
0x2a0|                                       01      |             .  |      [73]: 1 transition_type 0x2ad-0x2ae (1)
0x2a0|                                          02   |              . |      [74]: 2 transition_type 0x2ae-0x2af (1)
0x2a0|                                             01|               .|      [75]: 1 transition_type 0x2af-0x2b0 (1)
0x2b0|02                                             |.               |      [76]: 2 transition_type 0x2b0-0x2b1 (1)
0x2b0|   01                                          | .              |      [77]: 1 transition_type 0x2b1-0x2b2 (1)
0x2b0|      02                                       |  .             |      [78]: 2 transition_type 0x2b2-0x2b3 (1)
0x2b0|         01                                    |   .            |      [79]: 1 transition_type 0x2b3-0x2b4 (1)
0x2b0|            02                                 |    .           |      [80]: 2 transition_type 0x2b4-0x2b5 (1)
0x2b0|               01                              |     .          |      [81]: 1 transition_type 0x2b5-0x2b6 (1)
0x2b0|                  02                           |      .         |      [82]: 2 transition_type 0x2b6-0x2b7 (1)
0x2b0|                     01                        |       .        |      [83]: 1 transition_type 0x2b7-0x2b8 (1)
0x2b0|                        02                     |        .       |      [84]: 2 transition_type 0x2b8-0x2b9 (1)
0x2b0|                           01                  |         .      |      [85]: 1 transition_type 0x2b9-0x2ba (1)
0x2b0|                              02               |          .     |      [86]: 2 transition_type 0x2ba-0x2bb (1)
0x2b0|                                 01            |           .    |      [87]: 1 transition_type 0x2bb-0x2bc (1)
0x2b0|                                    02         |            .   |      [88]: 2 transition_type 0x2bc-0x2bd (1)
0x2b0|                                       01      |             .  |      [89]: 1 transition_type 0x2bd-0x2be (1)
0x2b0|                                          02   |              . |      [90]: 2 transition_type 0x2be-0x2bf (1)
0x2b0|                                             01|               .|      [91]: 1 transition_type 0x2bf-0x2c0 (1)
0x2c0|02                                             |.               |      [92]: 2 transition_type 0x2c0-0x2c1 (1)
0x2c0|   01                                          | .              |      [93]: 1 transition_type 0x2c1-0x2c2 (1)
0x2c0|      02                                       |  .             |      [94]: 2 transition_type 0x2c2-0x2c3 (1)
0x2c0|         01                                    |   .            |      [95]: 1 transition_type 0x2c3-0x2c4 (1)
0x2c0|            02                                 |    .           |      [96]: 2 transition_type 0x2c4-0x2c5 (1)
0x2c0|               01                              |     .          |      [97]: 1 transition_type 0x2c5-0x2c6 (1)
0x2c0|                  02                           |      .         |      [98]: 2 transition_type 0x2c6-0x2c7 (1)
0x2c0|                     01                        |       .        |      [99]: 1 transition_type 0x2c7-0x2c8 (1)
0x2c0|                        02                     |        .       |      [100]: 2 transition_type 0x2c8-0x2c9 (1)
0x2c0|                           01                  |         .      |      [101]: 1 transition_type 0x2c9-0x2ca (1)
0x2c0|                              02               |          .     |      [102]: 2 transition_type 0x2ca-0x2cb (1)
0x2c0|                                 01            |           .    |      [103]: 1 transition_type 0x2cb-0x2cc (1)
0x2c0|                                    02         |            .   |      [104]: 2 transition_type 0x2cc-0x2cd (1)
0x2c0|                                       01      |             .  |      [105]: 1 transition_type 0x2cd-0x2ce (1)
0x2c0|                                          02   |              . |      [106]: 2 transition_type 0x2ce-0x2cf (1)
0x2c0|                                             01|               .|      [107]: 1 transition_type 0x2cf-0x2d0 (1)
0x2d0|02                                             |.               |      [108]: 2 transition_type 0x2d0-0x2d1 (1)
0x2d0|   01                                          | .              |      [109]: 1 transition_type 0x2d1-0x2d2 (1)
0x2d0|      02                                       |  .             |      [110]: 2 transition_type 0x2d2-0x2d3 (1)
0x2d0|         01                                    |   .            |      [111]: 1 transition_type 0x2d3-0x2d4 (1)
0x2d0|            02                                 |    .           |      [112]: 2 transition_type 0x2d4-0x2d5 (1)
0x2d0|               01                              |     .          |      [113]: 1 transition_type 0x2d5-0x2d6 (1)
0x2d0|                  02                           |      .         |      [114]: 2 transition_type 0x2d6-0x2d7 (1)
0x2d0|                     01                        |       .        |      [115]: 1 transition_type 0x2d7-0x2d8 (1)
0x2d0|                        02                     |        .       |      [116]: 2 transition_type 0x2d8-0x2d9 (1)
0x2d0|                           01                  |         .      |      [117]: 1 transition_type 0x2d9-0x2da (1)
0x2d0|                              02               |          .     |      [118]: 2 transition_type 0x2da-0x2db (1)
0x2d0|                                 01            |           .    |      [119]: 1 transition_type 0x2db-0x2dc (1)
0x2d0|                                    02         |            .   |      [120]: 2 transition_type 0x2dc-0x2dd (1)
0x2d0|                                       01      |             .  |      [121]: 1 transition_type 0x2dd-0x2de (1)
0x2d0|                                          02   |              . |      [122]: 2 transition_type 0x2de-0x2df (1)
0x2d0|                                             01|               .|      [123]: 1 transition_type 0x2df-0x2e0 (1)
0x2e0|02                                             |.               |      [124]: 2 transition_type 0x2e0-0x2e1 (1)
0x2e0|   01                                          | .              |      [125]: 1 transition_type 0x2e1-0x2e2 (1)
0x2e0|      02                                       |  .             |      [126]: 2 transition_type 0x2e2-0x2e3 (1)
0x2e0|         01                                    |   .            |      [127]: 1 transition_type 0x2e3-0x2e4 (1)
0x2e0|            02                                 |    .           |      [128]: 2 transition_type 0x2e4-0x2e5 (1)
0x2e0|               01                              |     .          |      [129]: 1 transition_type 0x2e5-0x2e6 (1)
0x2e0|                  02                           |      .         |      [130]: 2 transition_type 0x2e6-0x2e7 (1)
0x2e0|                     01                        |       .        |      [131]: 1 transition_type 0x2e7-0x2e8 (1)
0x2e0|                        02                     |        .       |      [132]: 2 transition_type 0x2e8-0x2e9 (1)
0x2e0|                           01                  |         .      |      [133]: 1 transition_type 0x2e9-0x2ea (1)
0x2e0|                              02               |          .     |      [134]: 2 transition_type 0x2ea-0x2eb (1)
0x2e0|                                 01            |           .    |      [135]: 1 transition_type 0x2eb-0x2ec (1)
0x2e0|                                    02         |            .   |      [136]: 2 transition_type 0x2ec-0x2ed (1)
0x2e0|                                       01      |             .  |      [137]: 1 transition_type 0x2ed-0x2ee (1)
0x2e0|                                          02   |              . |      [138]: 2 transition_type 0x2ee-0x2ef (1)
0x2e0|                                             01|               .|      [139]: 1 transition_type 0x2ef-0x2f0 (1)
0x2f0|02                                             |.               |      [140]: 2 transition_type 0x2f0-0x2f1 (1)
0x2f0|   01                                          | .              |      [141]: 1 transition_type 0x2f1-0x2f2 (1)
     |                                               |                |    local_time_type_records[0:4]: 0x2f2-0x30a (24)
     |                                               |                |      [0]{}: local_time_type 0x2f2-0x2f8 (6)
0x2f0|      00 00 81 ec                              |  ....          |        utoff: 33260 (valid) 0x2f2-0x2f6 (4)
0x2f0|                  00                           |      .         |        dst: 0 (valid) 0x2f6-0x2f7 (1)
0x2f0|                     00                        |       .        |        idx: 0 (valid) 0x2f7-0x2f8 (1)
     |                                               |                |      [1]{}: local_time_type 0x2f8-0x2fe (6)
0x2f0|                        00 00 93 a8            |        ....    |        utoff: 37800 (valid) 0x2f8-0x2fc (4)
0x2f0|                                    01         |            .   |        dst: 1 (valid) 0x2fc-0x2fd (1)
0x2f0|                                       04      |             .  |        idx: 4 (valid) 0x2fd-0x2fe (1)
     |                                               |                |      [2]{}: local_time_type 0x2fe-0x304 (6)
0x2f0|                                          00 00|              ..|        utoff: 34200 (valid) 0x2fe-0x302 (4)
0x300|85 98                                          |..              |
0x300|      00                                       |  .             |        dst: 0 (valid) 0x302-0x303 (1)
0x300|         09                                    |   .            |        idx: 9 (valid) 0x303-0x304 (1)
     |                                               |                |      [3]{}: local_time_type 0x304-0x30a (6)
0x300|            00 00 85 98                        |    ....        |        utoff: 34200 (valid) 0x304-0x308 (4)
0x300|                        00                     |        .       |        dst: 0 (valid) 0x308-0x309 (1)
0x300|                           09                  |         .      |        idx: 9 (valid) 0x309-0x30a (1)
     |                                               |                |    time_zone_designations[0:3]: 0x30a-0x318 (14)
0x300|                              4c 4d 54 00      |          LMT.  |      [0]: "LMT" time_zone_designation 0x30a-0x30e (4)
0x300|                                          41 43|              AC|      [1]: "ACDT" time_zone_designation 0x30e-0x313 (5)
0x310|44 54 00                                       |DT.             |
0x310|         41 43 53 54 00                        |   ACST.        |      [2]: "ACST" time_zone_designation 0x313-0x318 (5)
     |                                               |                |    leap_second_records[0:0]: 0x318-0x318 (0)
     |                                               |                |    standard_wall_indicators[0:4]: 0x318-0x31c (4)
0x310|                        00                     |        .       |      [0]: 0 standard_wall_indicator (valid) 0x318-0x319 (1)
0x310|                           01                  |         .      |      [1]: 1 standard_wall_indicator (valid) 0x319-0x31a (1)
0x310|                              01               |          .     |      [2]: 1 standard_wall_indicator (valid) 0x31a-0x31b (1)
0x310|                                 00            |           .    |      [3]: 0 standard_wall_indicator (valid) 0x31b-0x31c (1)
     |                                               |                |    ut_local_indicators[0:0]: 0x31c-0x31c (0)
     |                                               |                |  v2plusheader{}: 0x31c-0x348 (44)
0x310|                                    54 5a 69 66|            TZif|    magic: 0x545a6966 (valid) 0x31c-0x320 (4)
0x320|32                                             |2               |    ver: "2" (0x32) (valid) 0x320-0x321 (1)
0x320|   00 00 00 00 00 00 00 00 00 00 00 00 00 00 00| ...............|    reserved: raw bits 0x321-0x330 (15)
0x330|00 00 00 00                                    |....            |    isutcnt: 0 0x330-0x334 (4)
0x330|            00 00 00 05                        |    ....        |    isstdcnt: 5 0x334-0x338 (4)
0x330|                        00 00 00 00            |        ....    |    leapcnt: 0 0x338-0x33c (4)
0x330|                                    00 00 00 8f|            ....|    timecnt: 143 0x33c-0x340 (4)
0x340|00 00 00 05                                    |....            |    typecnt: 5 0x340-0x344 (4)
0x340|            00 00 00 0e                        |    ....        |    charcnt: 14 0x344-0x348 (4)
     |                                               |                |  v2plusdatablock{}: 0x348-0x880 (1336)
     |                                               |                |    transition_times[0:143]: 0x348-0x7c0 (1144)
0x340|                        ff ff ff ff 73 16 8b 14|        ....s...|      [0]: "1895-01-31T14:45:40Z" (-2364110060) transition_time 0x348-0x350 (8)
0x350|ff ff ff ff 7b 12 03 70                        |....{..p        |      [1]: "1899-04-30T15:00:00Z" (-2230189200) transition_time 0x350-0x358 (8)
0x350|                        ff ff ff ff 9c 4e c9 88|        .....N..|      [2]: "1916-12-31T16:30:00Z" (-1672558200) transition_time 0x358-0x360 (8)
0x360|ff ff ff ff 9c bc 36 08                        |......6.        |      [3]: "1917-03-24T16:30:00Z" (-1665387000) transition_time 0x360-0x368 (8)
0x360|                        ff ff ff ff cb 54 ba 08|        .....T..|      [4]: "1941-12-31T16:30:00Z" (-883639800) transition_time 0x368-0x370 (8)
0x370|ff ff ff ff cb c7 6c 88                        |......l.        |      [5]: "1942-03-28T16:30:00Z" (-876123000) transition_time 0x370-0x378 (8)
0x370|                        ff ff ff ff cc b7 5d 88|        ......].|      [6]: "1942-09-26T16:30:00Z" (-860398200) transition_time 0x378-0x380 (8)
0x380|ff ff ff ff cd a7 4e 88                        |......N.        |      [7]: "1943-03-27T16:30:00Z" (-844673400) transition_time 0x380-0x388 (8)
0x380|                        ff ff ff ff ce a0 7a 08|        ......z.|      [8]: "1943-10-02T16:30:00Z" (-828343800) transition_time 0x388-0x390 (8)
0x390|ff ff ff ff cf 87 30 88                        |......0.        |      [9]: "1944-03-25T16:30:00Z" (-813223800) transition_time 0x390-0x398 (8)
0x390|                        00 00 00 00 03 70 40 88|        .....p@.|      [10]: "1971-10-30T16:30:00Z" (57688200) transition_time 0x398-0x3a0 (8)
0x3a0|00 00 00 00 04 0d 23 08                        |......#.        |      [11]: "1972-02-26T16:30:00Z" (67969800) transition_time 0x3a0-0x3a8 (8)
0x3a0|                        00 00 00 00 05 50 22 88|        .....P".|      [12]: "1972-10-28T16:30:00Z" (89137800) transition_time 0x3a8-0x3b0 (8)
0x3b0|00 00 00 00 05 f6 3f 88                        |......?.        |      [13]: "1973-03-03T16:30:00Z" (100024200) transition_time 0x3b0-0x3b8 (8)
0x3b0|                        00 00 00 00 07 30 04 88|        .....0..|      [14]: "1973-10-27T16:30:00Z" (120587400) transition_time 0x3b8-0x3c0 (8)
0x3c0|00 00 00 00 07 d6 21 88                        |......!.        |      [15]: "1974-03-02T16:30:00Z" (131473800) transition_time 0x3c0-0x3c8 (8)
0x3c0|                        00 00 00 00 09 0f e6 88|        ........|      [16]: "1974-10-26T16:30:00Z" (152037000) transition_time 0x3c8-0x3d0 (8)
0x3d0|00 00 00 00 09 b6 03 88                        |........        |      [17]: "1975-03-01T16:30:00Z" (162923400) transition_time 0x3d0-0x3d8 (8)
0x3d0|                        00 00 00 00 0a ef c8 88|        ........|      [18]: "1975-10-25T16:30:00Z" (183486600) transition_time 0x3d8-0x3e0 (8)
0x3e0|00 00 00 00 0b 9f 20 08                        |...... .        |      [19]: "1976-03-06T16:30:00Z" (194977800) transition_time 0x3e0-0x3e8 (8)
0x3e0|                        00 00 00 00 0c d8 e5 08|        ........|      [20]: "1976-10-30T16:30:00Z" (215541000) transition_time 0x3e8-0x3f0 (8)
0x3f0|00 00 00 00 0d 7f 02 08                        |........        |      [21]: "1977-03-05T16:30:00Z" (226427400) transition_time 0x3f0-0x3f8 (8)
0x3f0|                        00 00 00 00 0e b8 c7 08|        ........|      [22]: "1977-10-29T16:30:00Z" (246990600) transition_time 0x3f8-0x400 (8)
0x400|00 00 00 00 0f 5e e4 08                        |.....^..        |      [23]: "1978-03-04T16:30:00Z" (257877000) transition_time 0x400-0x408 (8)
0x400|                        00 00 00 00 10 98 a9 08|        ........|      [24]: "1978-10-28T16:30:00Z" (278440200) transition_time 0x408-0x410 (8)
0x410|00 00 00 00 11 3e c6 08                        |.....>..        |      [25]: "1979-03-03T16:30:00Z" (289326600) transition_time 0x410-0x418 (8)
0x410|                        00 00 00 00 12 78 8b 08|        .....x..|      [26]: "1979-10-27T16:30:00Z" (309889800) transition_time 0x418-0x420 (8)
0x420|00 00 00 00 13 1e a8 08                        |........        |      [27]: "1980-03-01T16:30:00Z" (320776200) transition_time 0x420-0x428 (8)
0x420|                        00 00 00 00 14 58 6d 08|        .....Xm.|      [28]: "1980-10-25T16:30:00Z" (341339400) transition_time 0x428-0x430 (8)
0x430|00 00 00 00 14 fe 8a 08                        |........        |      [29]: "1981-02-28T16:30:00Z" (352225800) transition_time 0x430-0x438 (8)
0x430|                        00 00 00 00 16 38 4f 08|        .....8O.|      [30]: "1981-10-24T16:30:00Z" (372789000) transition_time 0x438-0x440 (8)
0x440|00 00 00 00 16 e7 a6 88                        |........        |      [31]: "1982-03-06T16:30:00Z" (384280200) transition_time 0x440-0x448 (8)
0x440|                        00 00 00 00 18 21 6b 88|        .....!k.|      [32]: "1982-10-30T16:30:00Z" (404843400) transition_time 0x448-0x450 (8)
0x450|00 00 00 00 18 c7 88 88                        |........        |      [33]: "1983-03-05T16:30:00Z" (415729800) transition_time 0x450-0x458 (8)
0x450|                        00 00 00 00 1a 01 4d 88|        ......M.|      [34]: "1983-10-29T16:30:00Z" (436293000) transition_time 0x458-0x460 (8)
0x460|00 00 00 00 1a a7 6a 88                        |......j.        |      [35]: "1984-03-03T16:30:00Z" (447179400) transition_time 0x460-0x468 (8)
0x460|                        00 00 00 00 1b e1 2f 88|        ....../.|      [36]: "1984-10-27T16:30:00Z" (467742600) transition_time 0x468-0x470 (8)
0x470|00 00 00 00 1c 87 4c 88                        |......L.        |      [37]: "1985-03-02T16:30:00Z" (478629000) transition_time 0x470-0x478 (8)
0x470|                        00 00 00 00 1d c1 11 88|        ........|      [38]: "1985-10-26T16:30:00Z" (499192200) transition_time 0x478-0x480 (8)
0x480|00 00 00 00 1e 79 a3 88                        |.....y..        |      [39]: "1986-03-15T16:30:00Z" (511288200) transition_time 0x480-0x488 (8)
0x480|                        00 00 00 00 1f 97 b9 08|        ........|      [40]: "1986-10-18T16:30:00Z" (530037000) transition_time 0x488-0x490 (8)
0x490|00 00 00 00 20 59 85 88                        |.... Y..        |      [41]: "1987-03-14T16:30:00Z" (542737800) transition_time 0x490-0x498 (8)
0x490|                        00 00 00 00 21 80 d5 88|        ....!...|      [42]: "1987-10-24T16:30:00Z" (562091400) transition_time 0x498-0x4a0 (8)
0x4a0|00 00 00 00 22 42 a2 08                        |...."B..        |      [43]: "1988-03-19T16:30:00Z" (574792200) transition_time 0x4a0-0x4a8 (8)
0x4a0|                        00 00 00 00 23 69 f2 08|        ....#i..|      [44]: "1988-10-29T16:30:00Z" (594145800) transition_time 0x4a8-0x4b0 (8)
0x4b0|00 00 00 00 24 22 84 08                        |....$"..        |      [45]: "1989-03-18T16:30:00Z" (606241800) transition_time 0x4b0-0x4b8 (8)
0x4b0|                        00 00 00 00 25 49 d4 08|        ....%I..|      [46]: "1989-10-28T16:30:00Z" (625595400) transition_time 0x4b8-0x4c0 (8)
0x4c0|00 00 00 00 26 02 66 08                        |....&.f.        |      [47]: "1990-03-17T16:30:00Z" (637691400) transition_time 0x4c0-0x4c8 (8)
0x4c0|                        00 00 00 00 27 29 b6 08|        ....')..|      [48]: "1990-10-27T16:30:00Z" (657045000) transition_time 0x4c8-0x4d0 (8)
0x4d0|00 00 00 00 27 cf d3 08                        |....'...        |      [49]: "1991-03-02T16:30:00Z" (667931400) transition_time 0x4d0-0x4d8 (8)
0x4d0|                        00 00 00 00 29 09 98 08|        ....)...|      [50]: "1991-10-26T16:30:00Z" (688494600) transition_time 0x4d8-0x4e0 (8)
0x4e0|00 00 00 00 29 cb 64 88                        |....).d.        |      [51]: "1992-03-21T16:30:00Z" (701195400) transition_time 0x4e0-0x4e8 (8)
0x4e0|                        00 00 00 00 2a e9 7a 08|        ....*.z.|      [52]: "1992-10-24T16:30:00Z" (719944200) transition_time 0x4e8-0x4f0 (8)
0x4f0|00 00 00 00 2b 98 d1 88                        |....+...        |      [53]: "1993-03-06T16:30:00Z" (731435400) transition_time 0x4f0-0x4f8 (8)
0x4f0|                        00 00 00 00 2c d2 96 88|        ....,...|      [54]: "1993-10-30T16:30:00Z" (751998600) transition_time 0x4f8-0x500 (8)
0x500|00 00 00 00 2d 8b 28 88                        |....-.(.        |      [55]: "1994-03-19T16:30:00Z" (764094600) transition_time 0x500-0x508 (8)
0x500|                        00 00 00 00 2e b2 78 88|        ......x.|      [56]: "1994-10-29T16:30:00Z" (783448200) transition_time 0x508-0x510 (8)
0x510|00 00 00 00 2f 74 45 08                        |..../tE.        |      [57]: "1995-03-25T16:30:00Z" (796149000) transition_time 0x510-0x518 (8)
0x510|                        00 00 00 00 30 92 5a 88|        ....0.Z.|      [58]: "1995-10-28T16:30:00Z" (814897800) transition_time 0x518-0x520 (8)
0x520|00 00 00 00 31 5d 61 88                        |....1]a.        |      [59]: "1996-03-30T16:30:00Z" (828203400) transition_time 0x520-0x528 (8)
0x520|                        00 00 00 00 32 72 3c 88|        ....2r<.|      [60]: "1996-10-26T16:30:00Z" (846347400) transition_time 0x528-0x530 (8)
0x530|00 00 00 00 33 3d 43 88                        |....3=C.        |      [61]: "1997-03-29T16:30:00Z" (859653000) transition_time 0x530-0x538 (8)
0x530|                        00 00 00 00 34 52 1e 88|        ....4R..|      [62]: "1997-10-25T16:30:00Z" (877797000) transition_time 0x538-0x540 (8)
0x540|00 00 00 00 35 1d 25 88                        |....5.%.        |      [63]: "1998-03-28T16:30:00Z" (891102600) transition_time 0x540-0x548 (8)
0x540|                        00 00 00 00 36 32 00 88|        ....62..|      [64]: "1998-10-24T16:30:00Z" (909246600) transition_time 0x548-0x550 (8)
0x550|00 00 00 00 36 fd 07 88                        |....6...        |      [65]: "1999-03-27T16:30:00Z" (922552200) transition_time 0x550-0x558 (8)
0x550|                        00 00 00 00 38 1b 1d 08|        ....8...|      [66]: "1999-10-30T16:30:00Z" (941301000) transition_time 0x558-0x560 (8)
0x560|00 00 00 00 38 dc e9 88                        |....8...        |      [67]: "2000-03-25T16:30:00Z" (954001800) transition_time 0x560-0x568 (8)
0x560|                        00 00 00 00 39 fa ff 08|        ....9...|      [68]: "2000-10-28T16:30:00Z" (972750600) transition_time 0x568-0x570 (8)
0x570|00 00 00 00 3a bc cb 88                        |....:...        |      [69]: "2001-03-24T16:30:00Z" (985451400) transition_time 0x570-0x578 (8)
0x570|                        00 00 00 00 3b da e1 08|        ....;...|      [70]: "2001-10-27T16:30:00Z" (1004200200) transition_time 0x578-0x580 (8)
0x580|00 00 00 00 3c a5 e8 08                        |....<...        |      [71]: "2002-03-30T16:30:00Z" (1017505800) transition_time 0x580-0x588 (8)
0x580|                        00 00 00 00 3d ba c3 08|        ....=...|      [72]: "2002-10-26T16:30:00Z" (1035649800) transition_time 0x588-0x590 (8)
0x590|00 00 00 00 3e 85 ca 08                        |....>...        |      [73]: "2003-03-29T16:30:00Z" (1048955400) transition_time 0x590-0x598 (8)
0x590|                        00 00 00 00 3f 9a a5 08|        ....?...|      [74]: "2003-10-25T16:30:00Z" (1067099400) transition_time 0x598-0x5a0 (8)
0x5a0|00 00 00 00 40 65 ac 08                        |....@e..        |      [75]: "2004-03-27T16:30:00Z" (1080405000) transition_time 0x5a0-0x5a8 (8)
0x5a0|                        00 00 00 00 41 83 c1 88|        ....A...|      [76]: "2004-10-30T16:30:00Z" (1099153800) transition_time 0x5a8-0x5b0 (8)
0x5b0|00 00 00 00 42 45 8e 08                        |....BE..        |      [77]: "2005-03-26T16:30:00Z" (1111854600) transition_time 0x5b0-0x5b8 (8)
0x5b0|                        00 00 00 00 43 63 a3 88|        ....Cc..|      [78]: "2005-10-29T16:30:00Z" (1130603400) transition_time 0x5b8-0x5c0 (8)
0x5c0|00 00 00 00 44 2e aa 88                        |....D...        |      [79]: "2006-04-01T16:30:00Z" (1143909000) transition_time 0x5c0-0x5c8 (8)
0x5c0|                        00 00 00 00 45 43 85 88|        ....EC..|      [80]: "2006-10-28T16:30:00Z" (1162053000) transition_time 0x5c8-0x5d0 (8)
0x5d0|00 00 00 00 46 05 52 08                        |....F.R.        |      [81]: "2007-03-24T16:30:00Z" (1174753800) transition_time 0x5d0-0x5d8 (8)
0x5d0|                        00 00 00 00 47 23 67 88|        ....G#g.|      [82]: "2007-10-27T16:30:00Z" (1193502600) transition_time 0x5d8-0x5e0 (8)
0x5e0|00 00 00 00 47 f7 a9 08                        |....G...        |      [83]: "2008-04-05T16:30:00Z" (1207413000) transition_time 0x5e0-0x5e8 (8)
0x5e0|                        00 00 00 00 48 e7 9a 08|        ....H...|      [84]: "2008-10-04T16:30:00Z" (1223137800) transition_time 0x5e8-0x5f0 (8)
0x5f0|00 00 00 00 49 d7 8b 08                        |....I...        |      [85]: "2009-04-04T16:30:00Z" (1238862600) transition_time 0x5f0-0x5f8 (8)
0x5f0|                        00 00 00 00 4a c7 7c 08|        ....J.|.|      [86]: "2009-10-03T16:30:00Z" (1254587400) transition_time 0x5f8-0x600 (8)
0x600|00 00 00 00 4b b7 6d 08                        |....K.m.        |      [87]: "2010-04-03T16:30:00Z" (1270312200) transition_time 0x600-0x608 (8)
0x600|                        00 00 00 00 4c a7 5e 08|        ....L.^.|      [88]: "2010-10-02T16:30:00Z" (1286037000) transition_time 0x608-0x610 (8)
0x610|00 00 00 00 4d 97 4f 08                        |....M.O.        |      [89]: "2011-04-02T16:30:00Z" (1301761800) transition_time 0x610-0x618 (8)
0x610|                        00 00 00 00 4e 87 40 08|        ....N.@.|      [90]: "2011-10-01T16:30:00Z" (1317486600) transition_time 0x618-0x620 (8)
0x620|00 00 00 00 4f 77 31 08                        |....Ow1.        |      [91]: "2012-03-31T16:30:00Z" (1333211400) transition_time 0x620-0x628 (8)
0x620|                        00 00 00 00 50 70 5c 88|        ....Pp\.|      [92]: "2012-10-06T16:30:00Z" (1349541000) transition_time 0x628-0x630 (8)
0x630|00 00 00 00 51 60 4d 88                        |....Q`M.        |      [93]: "2013-04-06T16:30:00Z" (1365265800) transition_time 0x630-0x638 (8)
0x630|                        00 00 00 00 52 50 3e 88|        ....RP>.|      [94]: "2013-10-05T16:30:00Z" (1380990600) transition_time 0x638-0x640 (8)
0x640|00 00 00 00 53 40 2f 88                        |....S@/.        |      [95]: "2014-04-05T16:30:00Z" (1396715400) transition_time 0x640-0x648 (8)
0x640|                        00 00 00 00 54 30 20 88|        ....T0 .|      [96]: "2014-10-04T16:30:00Z" (1412440200) transition_time 0x648-0x650 (8)
0x650|00 00 00 00 55 20 11 88                        |....U ..        |      [97]: "2015-04-04T16:30:00Z" (1428165000) transition_time 0x650-0x658 (8)
0x650|                        00 00 00 00 56 10 02 88|        ....V...|      [98]: "2015-10-03T16:30:00Z" (1443889800) transition_time 0x658-0x660 (8)
0x660|00 00 00 00 56 ff f3 88                        |....V...        |      [99]: "2016-04-02T16:30:00Z" (1459614600) transition_time 0x660-0x668 (8)
0x660|                        00 00 00 00 57 ef e4 88|        ....W...|      [100]: "2016-10-01T16:30:00Z" (1475339400) transition_time 0x668-0x670 (8)
0x670|00 00 00 00 58 df d5 88                        |....X...        |      [101]: "2017-04-01T16:30:00Z" (1491064200) transition_time 0x670-0x678 (8)
0x670|                        00 00 00 00 59 cf c6 88|        ....Y...|      [102]: "2017-09-30T16:30:00Z" (1506789000) transition_time 0x678-0x680 (8)
0x680|00 00 00 00 5a bf b7 88                        |....Z...        |      [103]: "2018-03-31T16:30:00Z" (1522513800) transition_time 0x680-0x688 (8)
0x680|                        00 00 00 00 5b b8 e3 08|        ....[...|      [104]: "2018-10-06T16:30:00Z" (1538843400) transition_time 0x688-0x690 (8)
0x690|00 00 00 00 5c a8 d4 08                        |....\...        |      [105]: "2019-04-06T16:30:00Z" (1554568200) transition_time 0x690-0x698 (8)
0x690|                        00 00 00 00 5d 98 c5 08|        ....]...|      [106]: "2019-10-05T16:30:00Z" (1570293000) transition_time 0x698-0x6a0 (8)
0x6a0|00 00 00 00 5e 88 b6 08                        |....^...        |      [107]: "2020-04-04T16:30:00Z" (1586017800) transition_time 0x6a0-0x6a8 (8)
0x6a0|                        00 00 00 00 5f 78 a7 08|        ...._x..|      [108]: "2020-10-03T16:30:00Z" (1601742600) transition_time 0x6a8-0x6b0 (8)
0x6b0|00 00 00 00 60 68 98 08                        |....`h..        |      [109]: "2021-04-03T16:30:00Z" (1617467400) transition_time 0x6b0-0x6b8 (8)
0x6b0|                        00 00 00 00 61 58 89 08|        ....aX..|      [110]: "2021-10-02T16:30:00Z" (1633192200) transition_time 0x6b8-0x6c0 (8)
0x6c0|00 00 00 00 62 48 7a 08                        |....bHz.        |      [111]: "2022-04-02T16:30:00Z" (1648917000) transition_time 0x6c0-0x6c8 (8)
0x6c0|                        00 00 00 00 63 38 6b 08|        ....c8k.|      [112]: "2022-10-01T16:30:00Z" (1664641800) transition_time 0x6c8-0x6d0 (8)
0x6d0|00 00 00 00 64 28 5c 08                        |....d(\.        |      [113]: "2023-04-01T16:30:00Z" (1680366600) transition_time 0x6d0-0x6d8 (8)
0x6d0|                        00 00 00 00 65 18 4d 08|        ....e.M.|      [114]: "2023-09-30T16:30:00Z" (1696091400) transition_time 0x6d8-0x6e0 (8)
0x6e0|00 00 00 00 66 11 78 88                        |....f.x.        |      [115]: "2024-04-06T16:30:00Z" (1712421000) transition_time 0x6e0-0x6e8 (8)
0x6e0|                        00 00 00 00 67 01 69 88|        ....g.i.|      [116]: "2024-10-05T16:30:00Z" (1728145800) transition_time 0x6e8-0x6f0 (8)
0x6f0|00 00 00 00 67 f1 5a 88                        |....g.Z.        |      [117]: "2025-04-05T16:30:00Z" (1743870600) transition_time 0x6f0-0x6f8 (8)
0x6f0|                        00 00 00 00 68 e1 4b 88|        ....h.K.|      [118]: "2025-10-04T16:30:00Z" (1759595400) transition_time 0x6f8-0x700 (8)
0x700|00 00 00 00 69 d1 3c 88                        |....i.<.        |      [119]: "2026-04-04T16:30:00Z" (1775320200) transition_time 0x700-0x708 (8)
0x700|                        00 00 00 00 6a c1 2d 88|        ....j.-.|      [120]: "2026-10-03T16:30:00Z" (1791045000) transition_time 0x708-0x710 (8)
0x710|00 00 00 00 6b b1 1e 88                        |....k...        |      [121]: "2027-04-03T16:30:00Z" (1806769800) transition_time 0x710-0x718 (8)
0x710|                        00 00 00 00 6c a1 0f 88|        ....l...|      [122]: "2027-10-02T16:30:00Z" (1822494600) transition_time 0x718-0x720 (8)
0x720|00 00 00 00 6d 91 00 88                        |....m...        |      [123]: "2028-04-01T16:30:00Z" (1838219400) transition_time 0x720-0x728 (8)
0x720|                        00 00 00 00 6e 80 f1 88|        ....n...|      [124]: "2028-09-30T16:30:00Z" (1853944200) transition_time 0x728-0x730 (8)
0x730|00 00 00 00 6f 70 e2 88                        |....op..        |      [125]: "2029-03-31T16:30:00Z" (1869669000) transition_time 0x730-0x738 (8)
0x730|                        00 00 00 00 70 6a 0e 08|        ....pj..|      [126]: "2029-10-06T16:30:00Z" (1885998600) transition_time 0x738-0x740 (8)
0x740|00 00 00 00 71 59 ff 08                        |....qY..        |      [127]: "2030-04-06T16:30:00Z" (1901723400) transition_time 0x740-0x748 (8)
0x740|                        00 00 00 00 72 49 f0 08|        ....rI..|      [128]: "2030-10-05T16:30:00Z" (1917448200) transition_time 0x748-0x750 (8)
0x750|00 00 00 00 73 39 e1 08                        |....s9..        |      [129]: "2031-04-05T16:30:00Z" (1933173000) transition_time 0x750-0x758 (8)
0x750|                        00 00 00 00 74 29 d2 08|        ....t)..|      [130]: "2031-10-04T16:30:00Z" (1948897800) transition_time 0x758-0x760 (8)
0x760|00 00 00 00 75 19 c3 08                        |....u...        |      [131]: "2032-04-03T16:30:00Z" (1964622600) transition_time 0x760-0x768 (8)
0x760|                        00 00 00 00 76 09 b4 08|        ....v...|      [132]: "2032-10-02T16:30:00Z" (1980347400) transition_time 0x768-0x770 (8)
0x770|00 00 00 00 76 f9 a5 08                        |....v...        |      [133]: "2033-04-02T16:30:00Z" (1996072200) transition_time 0x770-0x778 (8)
0x770|                        00 00 00 00 77 e9 96 08|        ....w...|      [134]: "2033-10-01T16:30:00Z" (2011797000) transition_time 0x778-0x780 (8)
0x780|00 00 00 00 78 d9 87 08                        |....x...        |      [135]: "2034-04-01T16:30:00Z" (2027521800) transition_time 0x780-0x788 (8)
0x780|                        00 00 00 00 79 c9 78 08|        ....y.x.|      [136]: "2034-09-30T16:30:00Z" (2043246600) transition_time 0x788-0x790 (8)
0x790|00 00 00 00 7a b9 69 08                        |....z.i.        |      [137]: "2035-03-31T16:30:00Z" (2058971400) transition_time 0x790-0x798 (8)
0x790|                        00 00 00 00 7b b2 94 88|        ....{...|      [138]: "2035-10-06T16:30:00Z" (2075301000) transition_time 0x798-0x7a0 (8)
0x7a0|00 00 00 00 7c a2 85 88                        |....|...        |      [139]: "2036-04-05T16:30:00Z" (2091025800) transition_time 0x7a0-0x7a8 (8)
0x7a0|                        00 00 00 00 7d 92 76 88|        ....}.v.|      [140]: "2036-10-04T16:30:00Z" (2106750600) transition_time 0x7a8-0x7b0 (8)
0x7b0|00 00 00 00 7e 82 67 88                        |....~.g.        |      [141]: "2037-04-04T16:30:00Z" (2122475400) transition_time 0x7b0-0x7b8 (8)
0x7b0|                        00 00 00 00 7f 72 58 88|        .....rX.|      [142]: "2037-10-03T16:30:00Z" (2138200200) transition_time 0x7b8-0x7c0 (8)
     |                                               |                |    transition_types[0:143]: 0x7c0-0x84f (143)
0x7c0|01                                             |.               |      [0]: 1 transition_type 0x7c0-0x7c1 (1)
0x7c0|   04                                          | .              |      [1]: 4 transition_type 0x7c1-0x7c2 (1)
0x7c0|      02                                       |  .             |      [2]: 2 transition_type 0x7c2-0x7c3 (1)
0x7c0|         03                                    |   .            |      [3]: 3 transition_type 0x7c3-0x7c4 (1)
0x7c0|            02                                 |    .           |      [4]: 2 transition_type 0x7c4-0x7c5 (1)
0x7c0|               03                              |     .          |      [5]: 3 transition_type 0x7c5-0x7c6 (1)
0x7c0|                  02                           |      .         |      [6]: 2 transition_type 0x7c6-0x7c7 (1)
0x7c0|                     03                        |       .        |      [7]: 3 transition_type 0x7c7-0x7c8 (1)
0x7c0|                        02                     |        .       |      [8]: 2 transition_type 0x7c8-0x7c9 (1)
0x7c0|                           03                  |         .      |      [9]: 3 transition_type 0x7c9-0x7ca (1)
0x7c0|                              02               |          .     |      [10]: 2 transition_type 0x7ca-0x7cb (1)
0x7c0|                                 03            |           .    |      [11]: 3 transition_type 0x7cb-0x7cc (1)
0x7c0|                                    02         |            .   |      [12]: 2 transition_type 0x7cc-0x7cd (1)
0x7c0|                                       03      |             .  |      [13]: 3 transition_type 0x7cd-0x7ce (1)
0x7c0|                                          02   |              . |      [14]: 2 transition_type 0x7ce-0x7cf (1)
0x7c0|                                             03|               .|      [15]: 3 transition_type 0x7cf-0x7d0 (1)
0x7d0|02                                             |.               |      [16]: 2 transition_type 0x7d0-0x7d1 (1)
0x7d0|   03                                          | .              |      [17]: 3 transition_type 0x7d1-0x7d2 (1)
0x7d0|      02                                       |  .             |      [18]: 2 transition_type 0x7d2-0x7d3 (1)
0x7d0|         03                                    |   .            |      [19]: 3 transition_type 0x7d3-0x7d4 (1)
0x7d0|            02                                 |    .           |      [20]: 2 transition_type 0x7d4-0x7d5 (1)
0x7d0|               03                              |     .          |      [21]: 3 transition_type 0x7d5-0x7d6 (1)
0x7d0|                  02                           |      .         |      [22]: 2 transition_type 0x7d6-0x7d7 (1)
0x7d0|                     03                        |       .        |      [23]: 3 transition_type 0x7d7-0x7d8 (1)
0x7d0|                        02                     |        .       |      [24]: 2 transition_type 0x7d8-0x7d9 (1)
0x7d0|                           03                  |         .      |      [25]: 3 transition_type 0x7d9-0x7da (1)
0x7d0|                              02               |          .     |      [26]: 2 transition_type 0x7da-0x7db (1)
0x7d0|                                 03            |           .    |      [27]: 3 transition_type 0x7db-0x7dc (1)
0x7d0|                                    02         |            .   |      [28]: 2 transition_type 0x7dc-0x7dd (1)
0x7d0|                                       03      |             .  |      [29]: 3 transition_type 0x7dd-0x7de (1)
0x7d0|                                          02   |              . |      [30]: 2 transition_type 0x7de-0x7df (1)
0x7d0|                                             03|               .|      [31]: 3 transition_type 0x7df-0x7e0 (1)
0x7e0|02                                             |.               |      [32]: 2 transition_type 0x7e0-0x7e1 (1)
0x7e0|   03                                          | .              |      [33]: 3 transition_type 0x7e1-0x7e2 (1)
0x7e0|      02                                       |  .             |      [34]: 2 transition_type 0x7e2-0x7e3 (1)
0x7e0|         03                                    |   .            |      [35]: 3 transition_type 0x7e3-0x7e4 (1)
0x7e0|            02                                 |    .           |      [36]: 2 transition_type 0x7e4-0x7e5 (1)
0x7e0|               03                              |     .          |      [37]: 3 transition_type 0x7e5-0x7e6 (1)
0x7e0|                  02                           |      .         |      [38]: 2 transition_type 0x7e6-0x7e7 (1)
0x7e0|                     03                        |       .        |      [39]: 3 transition_type 0x7e7-0x7e8 (1)
0x7e0|                        02                     |        .       |      [40]: 2 transition_type 0x7e8-0x7e9 (1)
0x7e0|                           03                  |         .      |      [41]: 3 transition_type 0x7e9-0x7ea (1)
0x7e0|                              02               |          .     |      [42]: 2 transition_type 0x7ea-0x7eb (1)
0x7e0|                                 03            |           .    |      [43]: 3 transition_type 0x7eb-0x7ec (1)
0x7e0|                                    02         |            .   |      [44]: 2 transition_type 0x7ec-0x7ed (1)
0x7e0|                                       03      |             .  |      [45]: 3 transition_type 0x7ed-0x7ee (1)
0x7e0|                                          02   |              . |      [46]: 2 transition_type 0x7ee-0x7ef (1)
0x7e0|                                             03|               .|      [47]: 3 transition_type 0x7ef-0x7f0 (1)
0x7f0|02                                             |.               |      [48]: 2 transition_type 0x7f0-0x7f1 (1)
0x7f0|   03                                          | .              |      [49]: 3 transition_type 0x7f1-0x7f2 (1)
0x7f0|      02                                       |  .             |      [50]: 2 transition_type 0x7f2-0x7f3 (1)
0x7f0|         03                                    |   .            |      [51]: 3 transition_type 0x7f3-0x7f4 (1)
0x7f0|            02                                 |    .           |      [52]: 2 transition_type 0x7f4-0x7f5 (1)
0x7f0|               03                              |     .          |      [53]: 3 transition_type 0x7f5-0x7f6 (1)
0x7f0|                  02                           |      .         |      [54]: 2 transition_type 0x7f6-0x7f7 (1)
0x7f0|                     03                        |       .        |      [55]: 3 transition_type 0x7f7-0x7f8 (1)
0x7f0|                        02                     |        .       |      [56]: 2 transition_type 0x7f8-0x7f9 (1)
0x7f0|                           03                  |         .      |      [57]: 3 transition_type 0x7f9-0x7fa (1)
0x7f0|                              02               |          .     |      [58]: 2 transition_type 0x7fa-0x7fb (1)
0x7f0|                                 03            |           .    |      [59]: 3 transition_type 0x7fb-0x7fc (1)
0x7f0|                                    02         |            .   |      [60]: 2 transition_type 0x7fc-0x7fd (1)
0x7f0|                                       03      |             .  |      [61]: 3 transition_type 0x7fd-0x7fe (1)
0x7f0|                                          02   |              . |      [62]: 2 transition_type 0x7fe-0x7ff (1)
0x7f0|                                             03|               .|      [63]: 3 transition_type 0x7ff-0x800 (1)
0x800|02                                             |.               |      [64]: 2 transition_type 0x800-0x801 (1)
0x800|   03                                          | .              |      [65]: 3 transition_type 0x801-0x802 (1)
0x800|      02                                       |  .             |      [66]: 2 transition_type 0x802-0x803 (1)
0x800|         03                                    |   .            |      [67]: 3 transition_type 0x803-0x804 (1)
0x800|            02                                 |    .           |      [68]: 2 transition_type 0x804-0x805 (1)
0x800|               03                              |     .          |      [69]: 3 transition_type 0x805-0x806 (1)
0x800|                  02                           |      .         |      [70]: 2 transition_type 0x806-0x807 (1)
0x800|                     03                        |       .        |      [71]: 3 transition_type 0x807-0x808 (1)
0x800|                        02                     |        .       |      [72]: 2 transition_type 0x808-0x809 (1)
0x800|                           03                  |         .      |      [73]: 3 transition_type 0x809-0x80a (1)
0x800|                              02               |          .     |      [74]: 2 transition_type 0x80a-0x80b (1)
0x800|                                 03            |           .    |      [75]: 3 transition_type 0x80b-0x80c (1)
0x800|                                    02         |            .   |      [76]: 2 transition_type 0x80c-0x80d (1)
0x800|                                       03      |             .  |      [77]: 3 transition_type 0x80d-0x80e (1)
0x800|                                          02   |              . |      [78]: 2 transition_type 0x80e-0x80f (1)
0x800|                                             03|               .|      [79]: 3 transition_type 0x80f-0x810 (1)
0x810|02                                             |.               |      [80]: 2 transition_type 0x810-0x811 (1)
0x810|   03                                          | .              |      [81]: 3 transition_type 0x811-0x812 (1)
0x810|      02                                       |  .             |      [82]: 2 transition_type 0x812-0x813 (1)
0x810|         03                                    |   .            |      [83]: 3 transition_type 0x813-0x814 (1)
0x810|            02                                 |    .           |      [84]: 2 transition_type 0x814-0x815 (1)
0x810|               03                              |     .          |      [85]: 3 transition_type 0x815-0x816 (1)
0x810|                  02                           |      .         |      [86]: 2 transition_type 0x816-0x817 (1)
0x810|                     03                        |       .        |      [87]: 3 transition_type 0x817-0x818 (1)
0x810|                        02                     |        .       |      [88]: 2 transition_type 0x818-0x819 (1)
0x810|                           03                  |         .      |      [89]: 3 transition_type 0x819-0x81a (1)
0x810|                              02               |          .     |      [90]: 2 transition_type 0x81a-0x81b (1)
0x810|                                 03            |           .    |      [91]: 3 transition_type 0x81b-0x81c (1)
0x810|                                    02         |            .   |      [92]: 2 transition_type 0x81c-0x81d (1)
0x810|                                       03      |             .  |      [93]: 3 transition_type 0x81d-0x81e (1)
0x810|                                          02   |              . |      [94]: 2 transition_type 0x81e-0x81f (1)
0x810|                                             03|               .|      [95]: 3 transition_type 0x81f-0x820 (1)
0x820|02                                             |.               |      [96]: 2 transition_type 0x820-0x821 (1)
0x820|   03                                          | .              |      [97]: 3 transition_type 0x821-0x822 (1)
0x820|      02                                       |  .             |      [98]: 2 transition_type 0x822-0x823 (1)
0x820|         03                                    |   .            |      [99]: 3 transition_type 0x823-0x824 (1)
0x820|            02                                 |    .           |      [100]: 2 transition_type 0x824-0x825 (1)
0x820|               03                              |     .          |      [101]: 3 transition_type 0x825-0x826 (1)
0x820|                  02                           |      .         |      [102]: 2 transition_type 0x826-0x827 (1)
0x820|                     03                        |       .        |      [103]: 3 transition_type 0x827-0x828 (1)
0x820|                        02                     |        .       |      [104]: 2 transition_type 0x828-0x829 (1)
0x820|                           03                  |         .      |      [105]: 3 transition_type 0x829-0x82a (1)
0x820|                              02               |          .     |      [106]: 2 transition_type 0x82a-0x82b (1)
0x820|                                 03            |           .    |      [107]: 3 transition_type 0x82b-0x82c (1)
0x820|                                    02         |            .   |      [108]: 2 transition_type 0x82c-0x82d (1)
0x820|                                       03      |             .  |      [109]: 3 transition_type 0x82d-0x82e (1)
0x820|                                          02   |              . |      [110]: 2 transition_type 0x82e-0x82f (1)
0x820|                                             03|               .|      [111]: 3 transition_type 0x82f-0x830 (1)
0x830|02                                             |.               |      [112]: 2 transition_type 0x830-0x831 (1)
0x830|   03                                          | .              |      [113]: 3 transition_type 0x831-0x832 (1)
0x830|      02                                       |  .             |      [114]: 2 transition_type 0x832-0x833 (1)
0x830|         03                                    |   .            |      [115]: 3 transition_type 0x833-0x834 (1)
0x830|            02                                 |    .           |      [116]: 2 transition_type 0x834-0x835 (1)
0x830|               03                              |     .          |      [117]: 3 transition_type 0x835-0x836 (1)
0x830|                  02                           |      .         |      [118]: 2 transition_type 0x836-0x837 (1)
0x830|                     03                        |       .        |      [119]: 3 transition_type 0x837-0x838 (1)
0x830|                        02                     |        .       |      [120]: 2 transition_type 0x838-0x839 (1)
0x830|                           03                  |         .      |      [121]: 3 transition_type 0x839-0x83a (1)
0x830|                              02               |          .     |      [122]: 2 transition_type 0x83a-0x83b (1)
0x830|                                 03            |           .    |      [123]: 3 transition_type 0x83b-0x83c (1)
0x830|                                    02         |            .   |      [124]: 2 transition_type 0x83c-0x83d (1)
0x830|                                       03      |             .  |      [125]: 3 transition_type 0x83d-0x83e (1)
0x830|                                          02   |              . |      [126]: 2 transition_type 0x83e-0x83f (1)
0x830|                                             03|               .|      [127]: 3 transition_type 0x83f-0x840 (1)
0x840|02                                             |.               |      [128]: 2 transition_type 0x840-0x841 (1)
0x840|   03                                          | .              |      [129]: 3 transition_type 0x841-0x842 (1)
0x840|      02                                       |  .             |      [130]: 2 transition_type 0x842-0x843 (1)
0x840|         03                                    |   .            |      [131]: 3 transition_type 0x843-0x844 (1)
0x840|            02                                 |    .           |      [132]: 2 transition_type 0x844-0x845 (1)
0x840|               03                              |     .          |      [133]: 3 transition_type 0x845-0x846 (1)
0x840|                  02                           |      .         |      [134]: 2 transition_type 0x846-0x847 (1)
0x840|                     03                        |       .        |      [135]: 3 transition_type 0x847-0x848 (1)
0x840|                        02                     |        .       |      [136]: 2 transition_type 0x848-0x849 (1)
0x840|                           03                  |         .      |      [137]: 3 transition_type 0x849-0x84a (1)
0x840|                              02               |          .     |      [138]: 2 transition_type 0x84a-0x84b (1)
0x840|                                 03            |           .    |      [139]: 3 transition_type 0x84b-0x84c (1)
0x840|                                    02         |            .   |      [140]: 2 transition_type 0x84c-0x84d (1)
0x840|                                       03      |             .  |      [141]: 3 transition_type 0x84d-0x84e (1)
0x840|                                          02   |              . |      [142]: 2 transition_type 0x84e-0x84f (1)
     |                                               |                |    local_time_type_records[0:5]: 0x84f-0x86d (30)
     |                                               |                |      [0]{}: local_time_type 0x84f-0x855 (6)
0x840|                                             00|               .|        utoff: 33260 (valid) 0x84f-0x853 (4)
0x850|00 81 ec                                       |...             |
0x850|         00                                    |   .            |        dst: 0 (valid) 0x853-0x854 (1)
0x850|            00                                 |    .           |        idx: 0 (valid) 0x854-0x855 (1)
     |                                               |                |      [1]{}: local_time_type 0x855-0x85b (6)
0x850|               00 00 7e 90                     |     ..~.       |        utoff: 32400 (valid) 0x855-0x859 (4)
0x850|                           00                  |         .      |        dst: 0 (valid) 0x859-0x85a (1)
0x850|                              04               |          .     |        idx: 4 (valid) 0x85a-0x85b (1)
     |                                               |                |      [2]{}: local_time_type 0x85b-0x861 (6)
0x850|                                 00 00 93 a8   |           .... |        utoff: 37800 (valid) 0x85b-0x85f (4)
0x850|                                             01|               .|        dst: 1 (valid) 0x85f-0x860 (1)
0x860|09                                             |.               |        idx: 9 (valid) 0x860-0x861 (1)
     |                                               |                |      [3]{}: local_time_type 0x861-0x867 (6)
0x860|   00 00 85 98                                 | ....           |        utoff: 34200 (valid) 0x861-0x865 (4)
0x860|               00                              |     .          |        dst: 0 (valid) 0x865-0x866 (1)
0x860|                  04                           |      .         |        idx: 4 (valid) 0x866-0x867 (1)
     |                                               |                |      [4]{}: local_time_type 0x867-0x86d (6)
0x860|                     00 00 85 98               |       ....     |        utoff: 34200 (valid) 0x867-0x86b (4)
0x860|                                 00            |           .    |        dst: 0 (valid) 0x86b-0x86c (1)
0x860|                                    04         |            .   |        idx: 4 (valid) 0x86c-0x86d (1)
     |                                               |                |    time_zone_designations[0:3]: 0x86d-0x87b (14)
0x860|                                       4c 4d 54|             LMT|      [0]: "LMT" time_zone_designation 0x86d-0x871 (4)
0x870|00                                             |.               |
0x870|   41 43 53 54 00                              | ACST.          |      [1]: "ACST" time_zone_designation 0x871-0x876 (5)
0x870|                  41 43 44 54 00               |      ACDT.     |      [2]: "ACDT" time_zone_designation 0x876-0x87b (5)
     |                                               |                |    leap_second_records[0:0]: 0x87b-0x87b (0)
     |                                               |                |    standard_wall_indicators[0:5]: 0x87b-0x880 (5)
0x870|                                 00            |           .    |      [0]: 0 standard_wall_indicator (valid) 0x87b-0x87c (1)
0x870|                                    00         |            .   |      [1]: 0 standard_wall_indicator (valid) 0x87c-0x87d (1)
0x870|                                       01      |             .  |      [2]: 1 standard_wall_indicator (valid) 0x87d-0x87e (1)
0x870|                                          01   |              . |      [3]: 1 standard_wall_indicator (valid) 0x87e-0x87f (1)
0x870|                                             00|               .|      [4]: 0 standard_wall_indicator (valid) 0x87f-0x880 (1)
     |                                               |                |    ut_local_indicators[0:0]: 0x880-0x880 (0)
     |                                               |                |  footer{}: 0x880-0x8a0 (32)
0x880|0a                                             |.               |    nl1: 10 (valid) 0x880-0x881 (1)
0x880|   41 43 53 54 2d 39 3a 33 30 41 43 44 54 2c 4d| ACST-9:30ACDT,M|    tz_string: "ACST-9:30ACDT,M10.1.0,M4.1.0/3" 0x881-0x89f (30)
0x890|31 30 2e 31 2e 30 2c 4d 34 2e 31 2e 30 2f 33   |10.1.0,M4.1.0/3 |
0x890|                                             0a|               .|    nl2: 10 (valid) 0x89f-0x8a0 (1)
