$ fq -d tzif dv Algiers
     |00 01 02 03 04 05 06 07 08 09 0a 0b 0c 0d 0e 0f|0123456789abcdef|.{}: Algiers (tzif) 0x0-0x2de.7 (735)
     |                                               |                |  v1header{}: 0x0-0x2b.7 (44)
0x000|54 5a 69 66                                    |TZif            |    magic: 0x545a6966 (valid) 0x0-0x3.7 (4)
0x000|            32                                 |    2           |    ver: "2" (0x32) (valid) 0x4-0x4.7 (1)
0x000|               00 00 00 00 00 00 00 00 00 00 00|     ...........|    reserved: raw bits 0x5-0x13.7 (15)
0x010|00 00 00 00                                    |....            |
0x010|            00 00 00 00                        |    ....        |    isutcnt: 0 0x14-0x17.7 (4)
0x010|                        00 00 00 08            |        ....    |    isstdcnt: 8 0x18-0x1b.7 (4)
0x010|                                    00 00 00 00|            ....|    leapcnt: 0 0x1c-0x1f.7 (4)
0x020|00 00 00 22                                    |..."            |    timecnt: 34 0x20-0x23.7 (4)
0x020|            00 00 00 08                        |    ....        |    typecnt: 8 0x24-0x27.7 (4)
0x020|                        00 00 00 1a            |        ....    |    charcnt: 26 0x28-0x2b.7 (4)
     |                                               |                |  v1datablock{}: 0x2c-0x127.7 (252)
     |                                               |                |    transition_times[0:34]: 0x2c-0xb3.7 (136)
0x020|                                    80 00 00 00|            ....|      [0]: "1901-12-13T20:45:52Z" (-2147483648) transition_time 0x2c-0x2f.7 (4)
0x030|91 60 50 4f                                    |.`PO            |      [1]: "1911-03-10T23:50:39Z" (-1855958961) transition_time 0x30-0x33.7 (4)
0x030|            9b 47 78 f0                        |    .Gx.        |      [2]: "1916-06-14T23:00:00Z" (-1689814800) transition_time 0x34-0x37.7 (4)
0x030|                        9b d7 2c 70            |        ..,p    |      [3]: "1916-10-01T23:00:00Z" (-1680397200) transition_time 0x38-0x3b.7 (4)
0x030|                                    9c bc 91 70|            ...p|      [4]: "1917-03-24T23:00:00Z" (-1665363600) transition_time 0x3c-0x3f.7 (4)
0x040|9d c0 48 f0                                    |..H.            |      [5]: "1917-10-07T23:00:00Z" (-1648342800) transition_time 0x40-0x43.7 (4)
0x040|            9e 89 fe 70                        |    ...p        |      [6]: "1918-03-09T23:00:00Z" (-1635123600) transition_time 0x44-0x47.7 (4)
0x040|                        9f a0 2a f0            |        ..*.    |      [7]: "1918-10-06T23:00:00Z" (-1616893200) transition_time 0x48-0x4b.7 (4)
0x040|                                    a0 60 a5 f0|            .`..|      [8]: "1919-03-01T23:00:00Z" (-1604278800) transition_time 0x4c-0x4f.7 (4)
0x050|a1 80 0c f0                                    |....            |      [9]: "1919-10-05T23:00:00Z" (-1585443600) transition_time 0x50-0x53.7 (4)
0x050|            a2 2e 12 f0                        |    ....        |      [10]: "1920-02-14T23:00:00Z" (-1574038800) transition_time 0x54-0x57.7 (4)
0x050|                        a3 7a 4c f0            |        .zL.    |      [11]: "1920-10-23T23:00:00Z" (-1552266000) transition_time 0x58-0x5b.7 (4)
0x050|                                    a4 35 81 f0|            .5..|      [12]: "1921-03-14T23:00:00Z" (-1539997200) transition_time 0x5c-0x5f.7 (4)
0x060|a4 b8 06 70                                    |...p            |      [13]: "1921-06-21T23:00:00Z" (-1531443600) transition_time 0x60-0x63.7 (4)
0x060|            c6 ff 06 70                        |    ...p        |      [14]: "1939-09-11T23:00:00Z" (-956365200) transition_time 0x64-0x67.7 (4)
0x060|                        c7 58 ba 80            |        .X..    |      [15]: "1939-11-19T00:00:00Z" (-950486400) transition_time 0x68-0x6b.7 (4)
0x060|                                    c7 da 09 a0|            ....|      [16]: "1940-02-25T02:00:00Z" (-942012000) transition_time 0x6c-0x6f.7 (4)
0x070|cf 92 34 10                                    |..4.            |      [17]: "1944-04-03T01:00:00Z" (-812502000) transition_time 0x70-0x73.7 (4)
0x070|            d0 8a 00 00                        |    ....        |      [18]: "1944-10-08T00:00:00Z" (-796262400) transition_time 0x74-0x77.7 (4)
0x070|                        d1 72 16 10            |        .r..    |      [19]: "1945-04-02T01:00:00Z" (-781052400) transition_time 0x78-0x7b.7 (4)
0x070|                                    d2 4e 24 70|            .N$p|      [20]: "1945-09-15T23:00:00Z" (-766630800) transition_time 0x7c-0x7f.7 (4)
0x080|d4 4b 07 70                                    |.K.p            |      [21]: "1946-10-06T23:00:00Z" (-733280400) transition_time 0x80-0x83.7 (4)
0x080|            e5 ce d3 00                        |    ....        |      [22]: "1956-01-29T00:00:00Z" (-439430400) transition_time 0x84-0x87.7 (4)
0x080|                        f3 5c b0 f0            |        .\..    |      [23]: "1963-04-13T23:00:00Z" (-212029200) transition_time 0x88-0x8b.7 (4)
0x080|                                    02 78 c1 f0|            .x..|      [24]: "1971-04-25T23:00:00Z" (41468400) transition_time 0x8c-0x8f.7 (4)
0x090|03 43 c8 f0                                    |.C..            |      [25]: "1971-09-26T23:00:00Z" (54774000) transition_time 0x90-0x93.7 (4)
0x090|            0d cf d7 00                        |    ....        |      [26]: "1977-05-06T00:00:00Z" (231724800) transition_time 0x94-0x97.7 (4)
0x090|                        0e ad 44 f0            |        ..D.    |      [27]: "1977-10-20T23:00:00Z" (246236400) transition_time 0x98-0x9b.7 (4)
0x090|                                    0f 78 5a 00|            .xZ.|      [28]: "1978-03-24T00:00:00Z" (259545600) transition_time 0x9c-0x9f.7 (4)
0x0a0|10 68 59 10                                    |.hY.            |      [29]: "1978-09-22T01:00:00Z" (275274000) transition_time 0xa0-0xa3.7 (4)
0x0a0|            12 76 43 70                        |    .vCp        |      [30]: "1979-10-25T23:00:00Z" (309740400) transition_time 0xa4-0xa7.7 (4)
0x0a0|                        13 66 42 80            |        .fB.    |      [31]: "1980-04-25T00:00:00Z" (325468800) transition_time 0xa8-0xab.7 (4)
0x0a0|                                    14 5f 7c 10|            ._|.|      [32]: "1980-10-31T01:00:00Z" (341802000) transition_time 0xac-0xaf.7 (4)
0x0b0|15 4f 5f 00                                    |.O_.            |      [33]: "1981-05-01T00:00:00Z" (357523200) transition_time 0xb0-0xb3.7 (4)
     |                                               |                |    transition_types[0:34]: 0xb4-0xd5.7 (34)
0x0b0|            01                                 |    .           |      [0]: 1 transition_type 0xb4-0xb4.7 (1)
0x0b0|               04                              |     .          |      [1]: 4 transition_type 0xb5-0xb5.7 (1)
0x0b0|                  02                           |      .         |      [2]: 2 transition_type 0xb6-0xb6.7 (1)
0x0b0|                     03                        |       .        |      [3]: 3 transition_type 0xb7-0xb7.7 (1)
0x0b0|                        02                     |        .       |      [4]: 2 transition_type 0xb8-0xb8.7 (1)
0x0b0|                           03                  |         .      |      [5]: 3 transition_type 0xb9-0xb9.7 (1)
0x0b0|                              02               |          .     |      [6]: 2 transition_type 0xba-0xba.7 (1)
0x0b0|                                 03            |           .    |      [7]: 3 transition_type 0xbb-0xbb.7 (1)
0x0b0|                                    02         |            .   |      [8]: 2 transition_type 0xbc-0xbc.7 (1)
0x0b0|                                       03      |             .  |      [9]: 3 transition_type 0xbd-0xbd.7 (1)
0x0b0|                                          02   |              . |      [10]: 2 transition_type 0xbe-0xbe.7 (1)
0x0b0|                                             03|               .|      [11]: 3 transition_type 0xbf-0xbf.7 (1)
0x0c0|02                                             |.               |      [12]: 2 transition_type 0xc0-0xc0.7 (1)
0x0c0|   03                                          | .              |      [13]: 3 transition_type 0xc1-0xc1.7 (1)
0x0c0|      02                                       |  .             |      [14]: 2 transition_type 0xc2-0xc2.7 (1)
0x0c0|         04                                    |   .            |      [15]: 4 transition_type 0xc3-0xc3.7 (1)
0x0c0|            06                                 |    .           |      [16]: 6 transition_type 0xc4-0xc4.7 (1)
0x0c0|               05                              |     .          |      [17]: 5 transition_type 0xc5-0xc5.7 (1)
0x0c0|                  06                           |      .         |      [18]: 6 transition_type 0xc6-0xc6.7 (1)
0x0c0|                     05                        |       .        |      [19]: 5 transition_type 0xc7-0xc7.7 (1)
0x0c0|                        06                     |        .       |      [20]: 6 transition_type 0xc8-0xc8.7 (1)
0x0c0|                           04                  |         .      |      [21]: 4 transition_type 0xc9-0xc9.7 (1)
0x0c0|                              06               |          .     |      [22]: 6 transition_type 0xca-0xca.7 (1)
0x0c0|                                 04            |           .    |      [23]: 4 transition_type 0xcb-0xcb.7 (1)
0x0c0|                                    02         |            .   |      [24]: 2 transition_type 0xcc-0xcc.7 (1)
0x0c0|                                       03      |             .  |      [25]: 3 transition_type 0xcd-0xcd.7 (1)
0x0c0|                                          07   |              . |      [26]: 7 transition_type 0xce-0xce.7 (1)
0x0c0|                                             06|               .|      [27]: 6 transition_type 0xcf-0xcf.7 (1)
0x0d0|05                                             |.               |      [28]: 5 transition_type 0xd0-0xd0.7 (1)
0x0d0|   06                                          | .              |      [29]: 6 transition_type 0xd1-0xd1.7 (1)
0x0d0|      04                                       |  .             |      [30]: 4 transition_type 0xd2-0xd2.7 (1)
0x0d0|         07                                    |   .            |      [31]: 7 transition_type 0xd3-0xd3.7 (1)
0x0d0|            04                                 |    .           |      [32]: 4 transition_type 0xd4-0xd4.7 (1)
0x0d0|               06                              |     .          |      [33]: 6 transition_type 0xd5-0xd5.7 (1)
     |                                               |                |    local_time_type_records[0:8]: 0xd6-0x105.7 (48)
     |                                               |                |      [0]{}: local_time_type 0xd6-0xdb.7 (6)
0x0d0|                  00 00 02 dc                  |      ....      |        utoff: 732 (valid) 0xd6-0xd9.7 (4)
0x0d0|                              00               |          .     |        dst: 0 (valid) 0xda-0xda.7 (1)
0x0d0|                                 00            |           .    |        idx: 0 (valid) 0xdb-0xdb.7 (1)
     |                                               |                |      [1]{}: local_time_type 0xdc-0xe1.7 (6)
0x0d0|                                    00 00 02 31|            ...1|        utoff: 561 (valid) 0xdc-0xdf.7 (4)
0x0e0|00                                             |.               |        dst: 0 (valid) 0xe0-0xe0.7 (1)
0x0e0|   04                                          | .              |        idx: 4 (valid) 0xe1-0xe1.7 (1)
     |                                               |                |      [2]{}: local_time_type 0xe2-0xe7.7 (6)
0x0e0|      00 00 0e 10                              |  ....          |        utoff: 3600 (valid) 0xe2-0xe5.7 (4)
0x0e0|                  01                           |      .         |        dst: 1 (valid) 0xe6-0xe6.7 (1)
0x0e0|                     08                        |       .        |        idx: 8 (valid) 0xe7-0xe7.7 (1)
     |                                               |                |      [3]{}: local_time_type 0xe8-0xed.7 (6)
0x0e0|                        00 00 00 00            |        ....    |        utoff: 0 (valid) 0xe8-0xeb.7 (4)
0x0e0|                                    00         |            .   |        dst: 0 (valid) 0xec-0xec.7 (1)
0x0e0|                                       0d      |             .  |        idx: 13 (valid) 0xed-0xed.7 (1)
     |                                               |                |      [4]{}: local_time_type 0xee-0xf3.7 (6)
0x0e0|                                          00 00|              ..|        utoff: 0 (valid) 0xee-0xf1.7 (4)
0x0f0|00 00                                          |..              |
0x0f0|      00                                       |  .             |        dst: 0 (valid) 0xf2-0xf2.7 (1)
0x0f0|         0d                                    |   .            |        idx: 13 (valid) 0xf3-0xf3.7 (1)
     |                                               |                |      [5]{}: local_time_type 0xf4-0xf9.7 (6)
0x0f0|            00 00 1c 20                        |    ...         |        utoff: 7200 (valid) 0xf4-0xf7.7 (4)
0x0f0|                        01                     |        .       |        dst: 1 (valid) 0xf8-0xf8.7 (1)
0x0f0|                           11                  |         .      |        idx: 17 (valid) 0xf9-0xf9.7 (1)
     |                                               |                |      [6]{}: local_time_type 0xfa-0xff.7 (6)
0x0f0|                              00 00 0e 10      |          ....  |        utoff: 3600 (valid) 0xfa-0xfd.7 (4)
0x0f0|                                          00   |              . |        dst: 0 (valid) 0xfe-0xfe.7 (1)
0x0f0|                                             16|               .|        idx: 22 (valid) 0xff-0xff.7 (1)
     |                                               |                |      [7]{}: local_time_type 0x100-0x105.7 (6)
0x100|00 00 0e 10                                    |....            |        utoff: 3600 (valid) 0x100-0x103.7 (4)
0x100|            01                                 |    .           |        dst: 1 (valid) 0x104-0x104.7 (1)
0x100|               08                              |     .          |        idx: 8 (valid) 0x105-0x105.7 (1)
     |                                               |                |    time_zone_designations[0:6]: 0x106-0x11f.7 (26)
0x100|                  4c 4d 54 00                  |      LMT.      |      [0]: "LMT" time_zone_designation 0x106-0x109.7 (4)
0x100|                              50 4d 54 00      |          PMT.  |      [1]: "PMT" time_zone_designation 0x10a-0x10d.7 (4)
0x100|                                          57 45|              WE|      [2]: "WEST" time_zone_designation 0x10e-0x112.7 (5)
0x110|53 54 00                                       |ST.             |
0x110|         57 45 54 00                           |   WET.         |      [3]: "WET" time_zone_designation 0x113-0x116.7 (4)
0x110|                     43 45 53 54 00            |       CEST.    |      [4]: "CEST" time_zone_designation 0x117-0x11b.7 (5)
0x110|                                    43 45 54 00|            CET.|      [5]: "CET" time_zone_designation 0x11c-0x11f.7 (4)
     |                                               |                |    leap_second_records[0:0]: 0x120-NA (0)
     |                                               |                |    standard_wall_indicators[0:8]: 0x120-0x127.7 (8)
0x120|00                                             |.               |      [0]: 0 standard_wall_indicator (valid) 0x120-0x120.7 (1)
0x120|   00                                          | .              |      [1]: 0 standard_wall_indicator (valid) 0x121-0x121.7 (1)
0x120|      01                                       |  .             |      [2]: 1 standard_wall_indicator (valid) 0x122-0x122.7 (1)
0x120|         01                                    |   .            |      [3]: 1 standard_wall_indicator (valid) 0x123-0x123.7 (1)
0x120|            00                                 |    .           |      [4]: 0 standard_wall_indicator (valid) 0x124-0x124.7 (1)
0x120|               00                              |     .          |      [5]: 0 standard_wall_indicator (valid) 0x125-0x125.7 (1)
0x120|                  00                           |      .         |      [6]: 0 standard_wall_indicator (valid) 0x126-0x126.7 (1)
0x120|                     00                        |       .        |      [7]: 0 standard_wall_indicator (valid) 0x127-0x127.7 (1)
     |                                               |                |    ut_local_indicators[0:0]: 0x128-NA (0)
     |                                               |                |  v2plusheader{}: 0x128-0x153.7 (44)
0x120|                        54 5a 69 66            |        TZif    |    magic: 0x545a6966 (valid) 0x128-0x12b.7 (4)
0x120|                                    32         |            2   |    ver: "2" (0x32) (valid) 0x12c-0x12c.7 (1)
0x120|                                       00 00 00|             ...|    reserved: raw bits 0x12d-0x13b.7 (15)
0x130|00 00 00 00 00 00 00 00 00 00 00 00            |............    |
0x130|                                    00 00 00 00|            ....|    isutcnt: 0 0x13c-0x13f.7 (4)
0x140|00 00 00 08                                    |....            |    isstdcnt: 8 0x140-0x143.7 (4)
0x140|            00 00 00 00                        |    ....        |    leapcnt: 0 0x144-0x147.7 (4)
0x140|                        00 00 00 22            |        ..."    |    timecnt: 34 0x148-0x14b.7 (4)
0x140|                                    00 00 00 08|            ....|    typecnt: 8 0x14c-0x14f.7 (4)
0x150|00 00 00 1a                                    |....            |    charcnt: 26 0x150-0x153.7 (4)
     |                                               |                |  v2plusdatablock{}: 0x154-0x2d7.7 (388)
     |                                               |                |    transition_times[0:34]: 0x154-0x263.7 (272)
0x150|            ff ff ff ff 6b c9 9b 24            |    ....k..$    |      [0]: "1891-03-15T23:47:48Z" (-2486592732) transition_time 0x154-0x15b.7 (8)
0x150|                                    ff ff ff ff|            ....|      [1]: "1911-03-10T23:50:39Z" (-1855958961) transition_time 0x15c-0x163.7 (8)
0x160|91 60 50 4f                                    |.`PO            |
0x160|            ff ff ff ff 9b 47 78 f0            |    .....Gx.    |      [2]: "1916-06-14T23:00:00Z" (-1689814800) transition_time 0x164-0x16b.7 (8)
0x160|                                    ff ff ff ff|            ....|      [3]: "1916-10-01T23:00:00Z" (-1680397200) transition_time 0x16c-0x173.7 (8)
0x170|9b d7 2c 70                                    |..,p            |
0x170|            ff ff ff ff 9c bc 91 70            |    .......p    |      [4]: "1917-03-24T23:00:00Z" (-1665363600) transition_time 0x174-0x17b.7 (8)
0x170|                                    ff ff ff ff|            ....|      [5]: "1917-10-07T23:00:00Z" (-1648342800) transition_time 0x17c-0x183.7 (8)
0x180|9d c0 48 f0                                    |..H.            |
0x180|            ff ff ff ff 9e 89 fe 70            |    .......p    |      [6]: "1918-03-09T23:00:00Z" (-1635123600) transition_time 0x184-0x18b.7 (8)
0x180|                                    ff ff ff ff|            ....|      [7]: "1918-10-06T23:00:00Z" (-1616893200) transition_time 0x18c-0x193.7 (8)
0x190|9f a0 2a f0                                    |..*.            |
0x190|            ff ff ff ff a0 60 a5 f0            |    .....`..    |      [8]: "1919-03-01T23:00:00Z" (-1604278800) transition_time 0x194-0x19b.7 (8)
0x190|                                    ff ff ff ff|            ....|      [9]: "1919-10-05T23:00:00Z" (-1585443600) transition_time 0x19c-0x1a3.7 (8)
0x1a0|a1 80 0c f0                                    |....            |
0x1a0|            ff ff ff ff a2 2e 12 f0            |    ........    |      [10]: "1920-02-14T23:00:00Z" (-1574038800) transition_time 0x1a4-0x1ab.7 (8)
0x1a0|                                    ff ff ff ff|            ....|      [11]: "1920-10-23T23:00:00Z" (-1552266000) transition_time 0x1ac-0x1b3.7 (8)
0x1b0|a3 7a 4c f0                                    |.zL.            |
0x1b0|            ff ff ff ff a4 35 81 f0            |    .....5..    |      [12]: "1921-03-14T23:00:00Z" (-1539997200) transition_time 0x1b4-0x1bb.7 (8)
0x1b0|                                    ff ff ff ff|            ....|      [13]: "1921-06-21T23:00:00Z" (-1531443600) transition_time 0x1bc-0x1c3.7 (8)
0x1c0|a4 b8 06 70                                    |...p            |
0x1c0|            ff ff ff ff c6 ff 06 70            |    .......p    |      [14]: "1939-09-11T23:00:00Z" (-956365200) transition_time 0x1c4-0x1cb.7 (8)
0x1c0|                                    ff ff ff ff|            ....|      [15]: "1939-11-19T00:00:00Z" (-950486400) transition_time 0x1cc-0x1d3.7 (8)
0x1d0|c7 58 ba 80                                    |.X..            |
0x1d0|            ff ff ff ff c7 da 09 a0            |    ........    |      [16]: "1940-02-25T02:00:00Z" (-942012000) transition_time 0x1d4-0x1db.7 (8)
0x1d0|                                    ff ff ff ff|            ....|      [17]: "1944-04-03T01:00:00Z" (-812502000) transition_time 0x1dc-0x1e3.7 (8)
0x1e0|cf 92 34 10                                    |..4.            |
0x1e0|            ff ff ff ff d0 8a 00 00            |    ........    |      [18]: "1944-10-08T00:00:00Z" (-796262400) transition_time 0x1e4-0x1eb.7 (8)
0x1e0|                                    ff ff ff ff|            ....|      [19]: "1945-04-02T01:00:00Z" (-781052400) transition_time 0x1ec-0x1f3.7 (8)
0x1f0|d1 72 16 10                                    |.r..            |
0x1f0|            ff ff ff ff d2 4e 24 70            |    .....N$p    |      [20]: "1945-09-15T23:00:00Z" (-766630800) transition_time 0x1f4-0x1fb.7 (8)
0x1f0|                                    ff ff ff ff|            ....|      [21]: "1946-10-06T23:00:00Z" (-733280400) transition_time 0x1fc-0x203.7 (8)
0x200|d4 4b 07 70                                    |.K.p            |
0x200|            ff ff ff ff e5 ce d3 00            |    ........    |      [22]: "1956-01-29T00:00:00Z" (-439430400) transition_time 0x204-0x20b.7 (8)
0x200|                                    ff ff ff ff|            ....|      [23]: "1963-04-13T23:00:00Z" (-212029200) transition_time 0x20c-0x213.7 (8)
0x210|f3 5c b0 f0                                    |.\..            |
0x210|            00 00 00 00 02 78 c1 f0            |    .....x..    |      [24]: "1971-04-25T23:00:00Z" (41468400) transition_time 0x214-0x21b.7 (8)
0x210|                                    00 00 00 00|            ....|      [25]: "1971-09-26T23:00:00Z" (54774000) transition_time 0x21c-0x223.7 (8)
0x220|03 43 c8 f0                                    |.C..            |
0x220|            00 00 00 00 0d cf d7 00            |    ........    |      [26]: "1977-05-06T00:00:00Z" (231724800) transition_time 0x224-0x22b.7 (8)
0x220|                                    00 00 00 00|            ....|      [27]: "1977-10-20T23:00:00Z" (246236400) transition_time 0x22c-0x233.7 (8)
0x230|0e ad 44 f0                                    |..D.            |
0x230|            00 00 00 00 0f 78 5a 00            |    .....xZ.    |      [28]: "1978-03-24T00:00:00Z" (259545600) transition_time 0x234-0x23b.7 (8)
0x230|                                    00 00 00 00|            ....|      [29]: "1978-09-22T01:00:00Z" (275274000) transition_time 0x23c-0x243.7 (8)
0x240|10 68 59 10                                    |.hY.            |
0x240|            00 00 00 00 12 76 43 70            |    .....vCp    |      [30]: "1979-10-25T23:00:00Z" (309740400) transition_time 0x244-0x24b.7 (8)
0x240|                                    00 00 00 00|            ....|      [31]: "1980-04-25T00:00:00Z" (325468800) transition_time 0x24c-0x253.7 (8)
0x250|13 66 42 80                                    |.fB.            |
0x250|            00 00 00 00 14 5f 7c 10            |    ....._|.    |      [32]: "1980-10-31T01:00:00Z" (341802000) transition_time 0x254-0x25b.7 (8)
0x250|                                    00 00 00 00|            ....|      [33]: "1981-05-01T00:00:00Z" (357523200) transition_time 0x25c-0x263.7 (8)
0x260|15 4f 5f 00                                    |.O_.            |
     |                                               |                |    transition_types[0:34]: 0x264-0x285.7 (34)
0x260|            01                                 |    .           |      [0]: 1 transition_type 0x264-0x264.7 (1)
0x260|               04                              |     .          |      [1]: 4 transition_type 0x265-0x265.7 (1)
0x260|                  02                           |      .         |      [2]: 2 transition_type 0x266-0x266.7 (1)
0x260|                     03                        |       .        |      [3]: 3 transition_type 0x267-0x267.7 (1)
0x260|                        02                     |        .       |      [4]: 2 transition_type 0x268-0x268.7 (1)
0x260|                           03                  |         .      |      [5]: 3 transition_type 0x269-0x269.7 (1)
0x260|                              02               |          .     |      [6]: 2 transition_type 0x26a-0x26a.7 (1)
0x260|                                 03            |           .    |      [7]: 3 transition_type 0x26b-0x26b.7 (1)
0x260|                                    02         |            .   |      [8]: 2 transition_type 0x26c-0x26c.7 (1)
0x260|                                       03      |             .  |      [9]: 3 transition_type 0x26d-0x26d.7 (1)
0x260|                                          02   |              . |      [10]: 2 transition_type 0x26e-0x26e.7 (1)
0x260|                                             03|               .|      [11]: 3 transition_type 0x26f-0x26f.7 (1)
0x270|02                                             |.               |      [12]: 2 transition_type 0x270-0x270.7 (1)
0x270|   03                                          | .              |      [13]: 3 transition_type 0x271-0x271.7 (1)
0x270|      02                                       |  .             |      [14]: 2 transition_type 0x272-0x272.7 (1)
0x270|         04                                    |   .            |      [15]: 4 transition_type 0x273-0x273.7 (1)
0x270|            06                                 |    .           |      [16]: 6 transition_type 0x274-0x274.7 (1)
0x270|               05                              |     .          |      [17]: 5 transition_type 0x275-0x275.7 (1)
0x270|                  06                           |      .         |      [18]: 6 transition_type 0x276-0x276.7 (1)
0x270|                     05                        |       .        |      [19]: 5 transition_type 0x277-0x277.7 (1)
0x270|                        06                     |        .       |      [20]: 6 transition_type 0x278-0x278.7 (1)
0x270|                           04                  |         .      |      [21]: 4 transition_type 0x279-0x279.7 (1)
0x270|                              06               |          .     |      [22]: 6 transition_type 0x27a-0x27a.7 (1)
0x270|                                 04            |           .    |      [23]: 4 transition_type 0x27b-0x27b.7 (1)
0x270|                                    02         |            .   |      [24]: 2 transition_type 0x27c-0x27c.7 (1)
0x270|                                       03      |             .  |      [25]: 3 transition_type 0x27d-0x27d.7 (1)
0x270|                                          07   |              . |      [26]: 7 transition_type 0x27e-0x27e.7 (1)
0x270|                                             06|               .|      [27]: 6 transition_type 0x27f-0x27f.7 (1)
0x280|05                                             |.               |      [28]: 5 transition_type 0x280-0x280.7 (1)
0x280|   06                                          | .              |      [29]: 6 transition_type 0x281-0x281.7 (1)
0x280|      04                                       |  .             |      [30]: 4 transition_type 0x282-0x282.7 (1)
0x280|         07                                    |   .            |      [31]: 7 transition_type 0x283-0x283.7 (1)
0x280|            04                                 |    .           |      [32]: 4 transition_type 0x284-0x284.7 (1)
0x280|               06                              |     .          |      [33]: 6 transition_type 0x285-0x285.7 (1)
     |                                               |                |    local_time_type_records[0:8]: 0x286-0x2b5.7 (48)
     |                                               |                |      [0]{}: local_time_type 0x286-0x28b.7 (6)
0x280|                  00 00 02 dc                  |      ....      |        utoff: 732 (valid) 0x286-0x289.7 (4)
0x280|                              00               |          .     |        dst: 0 (valid) 0x28a-0x28a.7 (1)
0x280|                                 00            |           .    |        idx: 0 (valid) 0x28b-0x28b.7 (1)
     |                                               |                |      [1]{}: local_time_type 0x28c-0x291.7 (6)
0x280|                                    00 00 02 31|            ...1|        utoff: 561 (valid) 0x28c-0x28f.7 (4)
0x290|00                                             |.               |        dst: 0 (valid) 0x290-0x290.7 (1)
0x290|   04                                          | .              |        idx: 4 (valid) 0x291-0x291.7 (1)
     |                                               |                |      [2]{}: local_time_type 0x292-0x297.7 (6)
0x290|      00 00 0e 10                              |  ....          |        utoff: 3600 (valid) 0x292-0x295.7 (4)
0x290|                  01                           |      .         |        dst: 1 (valid) 0x296-0x296.7 (1)
0x290|                     08                        |       .        |        idx: 8 (valid) 0x297-0x297.7 (1)
     |                                               |                |      [3]{}: local_time_type 0x298-0x29d.7 (6)
0x290|                        00 00 00 00            |        ....    |        utoff: 0 (valid) 0x298-0x29b.7 (4)
0x290|                                    00         |            .   |        dst: 0 (valid) 0x29c-0x29c.7 (1)
0x290|                                       0d      |             .  |        idx: 13 (valid) 0x29d-0x29d.7 (1)
     |                                               |                |      [4]{}: local_time_type 0x29e-0x2a3.7 (6)
0x290|                                          00 00|              ..|        utoff: 0 (valid) 0x29e-0x2a1.7 (4)
0x2a0|00 00                                          |..              |
0x2a0|      00                                       |  .             |        dst: 0 (valid) 0x2a2-0x2a2.7 (1)
0x2a0|         0d                                    |   .            |        idx: 13 (valid) 0x2a3-0x2a3.7 (1)
     |                                               |                |      [5]{}: local_time_type 0x2a4-0x2a9.7 (6)
0x2a0|            00 00 1c 20                        |    ...         |        utoff: 7200 (valid) 0x2a4-0x2a7.7 (4)
0x2a0|                        01                     |        .       |        dst: 1 (valid) 0x2a8-0x2a8.7 (1)
0x2a0|                           11                  |         .      |        idx: 17 (valid) 0x2a9-0x2a9.7 (1)
     |                                               |                |      [6]{}: local_time_type 0x2aa-0x2af.7 (6)
0x2a0|                              00 00 0e 10      |          ....  |        utoff: 3600 (valid) 0x2aa-0x2ad.7 (4)
0x2a0|                                          00   |              . |        dst: 0 (valid) 0x2ae-0x2ae.7 (1)
0x2a0|                                             16|               .|        idx: 22 (valid) 0x2af-0x2af.7 (1)
     |                                               |                |      [7]{}: local_time_type 0x2b0-0x2b5.7 (6)
0x2b0|00 00 0e 10                                    |....            |        utoff: 3600 (valid) 0x2b0-0x2b3.7 (4)
0x2b0|            01                                 |    .           |        dst: 1 (valid) 0x2b4-0x2b4.7 (1)
0x2b0|               08                              |     .          |        idx: 8 (valid) 0x2b5-0x2b5.7 (1)
     |                                               |                |    time_zone_designations[0:6]: 0x2b6-0x2cf.7 (26)
0x2b0|                  4c 4d 54 00                  |      LMT.      |      [0]: "LMT" time_zone_designation 0x2b6-0x2b9.7 (4)
0x2b0|                              50 4d 54 00      |          PMT.  |      [1]: "PMT" time_zone_designation 0x2ba-0x2bd.7 (4)
0x2b0|                                          57 45|              WE|      [2]: "WEST" time_zone_designation 0x2be-0x2c2.7 (5)
0x2c0|53 54 00                                       |ST.             |
0x2c0|         57 45 54 00                           |   WET.         |      [3]: "WET" time_zone_designation 0x2c3-0x2c6.7 (4)
0x2c0|                     43 45 53 54 00            |       CEST.    |      [4]: "CEST" time_zone_designation 0x2c7-0x2cb.7 (5)
0x2c0|                                    43 45 54 00|            CET.|      [5]: "CET" time_zone_designation 0x2cc-0x2cf.7 (4)
     |                                               |                |    leap_second_records[0:0]: 0x2d0-NA (0)
     |                                               |                |    standard_wall_indicators[0:8]: 0x2d0-0x2d7.7 (8)
0x2d0|00                                             |.               |      [0]: 0 standard_wall_indicator (valid) 0x2d0-0x2d0.7 (1)
0x2d0|   00                                          | .              |      [1]: 0 standard_wall_indicator (valid) 0x2d1-0x2d1.7 (1)
0x2d0|      01                                       |  .             |      [2]: 1 standard_wall_indicator (valid) 0x2d2-0x2d2.7 (1)
0x2d0|         01                                    |   .            |      [3]: 1 standard_wall_indicator (valid) 0x2d3-0x2d3.7 (1)
0x2d0|            00                                 |    .           |      [4]: 0 standard_wall_indicator (valid) 0x2d4-0x2d4.7 (1)
0x2d0|               00                              |     .          |      [5]: 0 standard_wall_indicator (valid) 0x2d5-0x2d5.7 (1)
0x2d0|                  00                           |      .         |      [6]: 0 standard_wall_indicator (valid) 0x2d6-0x2d6.7 (1)
0x2d0|                     00                        |       .        |      [7]: 0 standard_wall_indicator (valid) 0x2d7-0x2d7.7 (1)
     |                                               |                |    ut_local_indicators[0:0]: 0x2d8-NA (0)
     |                                               |                |  footer{}: 0x2d8-0x2de.7 (7)
0x2d0|                        0a                     |        .       |    nl1: 10 (valid) 0x2d8-0x2d8.7 (1)
0x2d0|                           43 45 54 2d 31      |         CET-1  |    tz_string: "CET-1" 0x2d9-0x2dd.7 (5)
0x2d0|                                          0a|  |              .||    nl2: 10 (valid) 0x2de-0x2de.7 (1)
