$ fq -d tzif dv Algiers
     |00 01 02 03 04 05 06 07 08 09 0a 0b 0c 0d 0e 0f|0123456789abcdef|.{}: Algiers (tzif) 0x0-0x2df (735)
     |                                               |                |  v1header{}: 0x0-0x2c (44)
0x000|54 5a 69 66                                    |TZif            |    magic: 0x545a6966 (valid) 0x0-0x4 (4)
0x000|            32                                 |    2           |    ver: "2" (0x32) (valid) 0x4-0x5 (1)
0x000|               00 00 00 00 00 00 00 00 00 00 00|     ...........|    reserved: raw bits 0x5-0x14 (15)
0x010|00 00 00 00                                    |....            |
0x010|            00 00 00 00                        |    ....        |    isutcnt: 0 0x14-0x18 (4)
0x010|                        00 00 00 08            |        ....    |    isstdcnt: 8 0x18-0x1c (4)
0x010|                                    00 00 00 00|            ....|    leapcnt: 0 0x1c-0x20 (4)
0x020|00 00 00 22                                    |..."            |    timecnt: 34 0x20-0x24 (4)
0x020|            00 00 00 08                        |    ....        |    typecnt: 8 0x24-0x28 (4)
0x020|                        00 00 00 1a            |        ....    |    charcnt: 26 0x28-0x2c (4)
     |                                               |                |  v1datablock{}: 0x2c-0x128 (252)
     |                                               |                |    transition_times[0:34]: 0x2c-0xb4 (136)
0x020|                                    80 00 00 00|            ....|      [0]: "1901-12-13T20:45:52Z" (-2147483648) transition_time 0x2c-0x30 (4)
0x030|91 60 50 4f                                    |.`PO            |      [1]: "1911-03-10T23:50:39Z" (-1855958961) transition_time 0x30-0x34 (4)
0x030|            9b 47 78 f0                        |    .Gx.        |      [2]: "1916-06-14T23:00:00Z" (-1689814800) transition_time 0x34-0x38 (4)
0x030|                        9b d7 2c 70            |        ..,p    |      [3]: "1916-10-01T23:00:00Z" (-1680397200) transition_time 0x38-0x3c (4)
0x030|                                    9c bc 91 70|            ...p|      [4]: "1917-03-24T23:00:00Z" (-1665363600) transition_time 0x3c-0x40 (4)
0x040|9d c0 48 f0                                    |..H.            |      [5]: "1917-10-07T23:00:00Z" (-1648342800) transition_time 0x40-0x44 (4)
0x040|            9e 89 fe 70                        |    ...p        |      [6]: "1918-03-09T23:00:00Z" (-1635123600) transition_time 0x44-0x48 (4)
0x040|                        9f a0 2a f0            |        ..*.    |      [7]: "1918-10-06T23:00:00Z" (-1616893200) transition_time 0x48-0x4c (4)
0x040|                                    a0 60 a5 f0|            .`..|      [8]: "1919-03-01T23:00:00Z" (-1604278800) transition_time 0x4c-0x50 (4)
0x050|a1 80 0c f0                                    |....            |      [9]: "1919-10-05T23:00:00Z" (-1585443600) transition_time 0x50-0x54 (4)
0x050|            a2 2e 12 f0                        |    ....        |      [10]: "1920-02-14T23:00:00Z" (-1574038800) transition_time 0x54-0x58 (4)
0x050|                        a3 7a 4c f0            |        .zL.    |      [11]: "1920-10-23T23:00:00Z" (-1552266000) transition_time 0x58-0x5c (4)
0x050|                                    a4 35 81 f0|            .5..|      [12]: "1921-03-14T23:00:00Z" (-1539997200) transition_time 0x5c-0x60 (4)
0x060|a4 b8 06 70                                    |...p            |      [13]: "1921-06-21T23:00:00Z" (-1531443600) transition_time 0x60-0x64 (4)
0x060|            c6 ff 06 70                        |    ...p        |      [14]: "1939-09-11T23:00:00Z" (-956365200) transition_time 0x64-0x68 (4)
0x060|                        c7 58 ba 80            |        .X..    |      [15]: "1939-11-19T00:00:00Z" (-950486400) transition_time 0x68-0x6c (4)
0x060|                                    c7 da 09 a0|            ....|      [16]: "1940-02-25T02:00:00Z" (-942012000) transition_time 0x6c-0x70 (4)
0x070|cf 92 34 10                                    |..4.            |      [17]: "1944-04-03T01:00:00Z" (-812502000) transition_time 0x70-0x74 (4)
0x070|            d0 8a 00 00                        |    ....        |      [18]: "1944-10-08T00:00:00Z" (-796262400) transition_time 0x74-0x78 (4)
0x070|                        d1 72 16 10            |        .r..    |      [19]: "1945-04-02T01:00:00Z" (-781052400) transition_time 0x78-0x7c (4)
0x070|                                    d2 4e 24 70|            .N$p|      [20]: "1945-09-15T23:00:00Z" (-766630800) transition_time 0x7c-0x80 (4)
0x080|d4 4b 07 70                                    |.K.p            |      [21]: "1946-10-06T23:00:00Z" (-733280400) transition_time 0x80-0x84 (4)
0x080|            e5 ce d3 00                        |    ....        |      [22]: "1956-01-29T00:00:00Z" (-439430400) transition_time 0x84-0x88 (4)
0x080|                        f3 5c b0 f0            |        .\..    |      [23]: "1963-04-13T23:00:00Z" (-212029200) transition_time 0x88-0x8c (4)
0x080|                                    02 78 c1 f0|            .x..|      [24]: "1971-04-25T23:00:00Z" (41468400) transition_time 0x8c-0x90 (4)
0x090|03 43 c8 f0                                    |.C..            |      [25]: "1971-09-26T23:00:00Z" (54774000) transition_time 0x90-0x94 (4)
0x090|            0d cf d7 00                        |    ....        |      [26]: "1977-05-06T00:00:00Z" (231724800) transition_time 0x94-0x98 (4)
0x090|                        0e ad 44 f0            |        ..D.    |      [27]: "1977-10-20T23:00:00Z" (246236400) transition_time 0x98-0x9c (4)
0x090|                                    0f 78 5a 00|            .xZ.|      [28]: "1978-03-24T00:00:00Z" (259545600) transition_time 0x9c-0xa0 (4)
0x0a0|10 68 59 10                                    |.hY.            |      [29]: "1978-09-22T01:00:00Z" (275274000) transition_time 0xa0-0xa4 (4)
0x0a0|            12 76 43 70                        |    .vCp        |      [30]: "1979-10-25T23:00:00Z" (309740400) transition_time 0xa4-0xa8 (4)
0x0a0|                        13 66 42 80            |        .fB.    |      [31]: "1980-04-25T00:00:00Z" (325468800) transition_time 0xa8-0xac (4)
0x0a0|                                    14 5f 7c 10|            ._|.|      [32]: "1980-10-31T01:00:00Z" (341802000) transition_time 0xac-0xb0 (4)
0x0b0|15 4f 5f 00                                    |.O_.            |      [33]: "1981-05-01T00:00:00Z" (357523200) transition_time 0xb0-0xb4 (4)
     |                                               |                |    transition_types[0:34]: 0xb4-0xd6 (34)
0x0b0|            01                                 |    .           |      [0]: 1 transition_type 0xb4-0xb5 (1)
0x0b0|               04                              |     .          |      [1]: 4 transition_type 0xb5-0xb6 (1)
0x0b0|                  02                           |      .         |      [2]: 2 transition_type 0xb6-0xb7 (1)
0x0b0|                     03                        |       .        |      [3]: 3 transition_type 0xb7-0xb8 (1)
0x0b0|                        02                     |        .       |      [4]: 2 transition_type 0xb8-0xb9 (1)
0x0b0|                           03                  |         .      |      [5]: 3 transition_type 0xb9-0xba (1)
0x0b0|                              02               |          .     |      [6]: 2 transition_type 0xba-0xbb (1)
0x0b0|                                 03            |           .    |      [7]: 3 transition_type 0xbb-0xbc (1)
0x0b0|                                    02         |            .   |      [8]: 2 transition_type 0xbc-0xbd (1)
0x0b0|                                       03      |             .  |      [9]: 3 transition_type 0xbd-0xbe (1)
0x0b0|                                          02   |              . |      [10]: 2 transition_type 0xbe-0xbf (1)
0x0b0|                                             03|               .|      [11]: 3 transition_type 0xbf-0xc0 (1)
0x0c0|02                                             |.               |      [12]: 2 transition_type 0xc0-0xc1 (1)
0x0c0|   03                                          | .              |      [13]: 3 transition_type 0xc1-0xc2 (1)
0x0c0|      02                                       |  .             |      [14]: 2 transition_type 0xc2-0xc3 (1)
0x0c0|         04                                    |   .            |      [15]: 4 transition_type 0xc3-0xc4 (1)
0x0c0|            06                                 |    .           |      [16]: 6 transition_type 0xc4-0xc5 (1)
0x0c0|               05                              |     .          |      [17]: 5 transition_type 0xc5-0xc6 (1)
0x0c0|                  06                           |      .         |      [18]: 6 transition_type 0xc6-0xc7 (1)
0x0c0|                     05                        |       .        |      [19]: 5 transition_type 0xc7-0xc8 (1)
0x0c0|                        06                     |        .       |      [20]: 6 transition_type 0xc8-0xc9 (1)
0x0c0|                           04                  |         .      |      [21]: 4 transition_type 0xc9-0xca (1)
0x0c0|                              06               |          .     |      [22]: 6 transition_type 0xca-0xcb (1)
0x0c0|                                 04            |           .    |      [23]: 4 transition_type 0xcb-0xcc (1)
0x0c0|                                    02         |            .   |      [24]: 2 transition_type 0xcc-0xcd (1)
0x0c0|                                       03      |             .  |      [25]: 3 transition_type 0xcd-0xce (1)
0x0c0|                                          07   |              . |      [26]: 7 transition_type 0xce-0xcf (1)
0x0c0|                                             06|               .|      [27]: 6 transition_type 0xcf-0xd0 (1)
0x0d0|05                                             |.               |      [28]: 5 transition_type 0xd0-0xd1 (1)
0x0d0|   06                                          | .              |      [29]: 6 transition_type 0xd1-0xd2 (1)
0x0d0|      04                                       |  .             |      [30]: 4 transition_type 0xd2-0xd3 (1)
0x0d0|         07                                    |   .            |      [31]: 7 transition_type 0xd3-0xd4 (1)
0x0d0|            04                                 |    .           |      [32]: 4 transition_type 0xd4-0xd5 (1)
0x0d0|               06                              |     .          |      [33]: 6 transition_type 0xd5-0xd6 (1)
     |                                               |                |    local_time_type_records[0:8]: 0xd6-0x106 (48)
     |                                               |                |      [0]{}: local_time_type 0xd6-0xdc (6)
0x0d0|                  00 00 02 dc                  |      ....      |        utoff: 732 (valid) 0xd6-0xda (4)
0x0d0|                              00               |          .     |        dst: 0 (valid) 0xda-0xdb (1)
0x0d0|                                 00            |           .    |        idx: 0 (valid) 0xdb-0xdc (1)
     |                                               |                |      [1]{}: local_time_type 0xdc-0xe2 (6)
0x0d0|                                    00 00 02 31|            ...1|        utoff: 561 (valid) 0xdc-0xe0 (4)
0x0e0|00                                             |.               |        dst: 0 (valid) 0xe0-0xe1 (1)
0x0e0|   04                                          | .              |        idx: 4 (valid) 0xe1-0xe2 (1)
     |                                               |                |      [2]{}: local_time_type 0xe2-0xe8 (6)
0x0e0|      00 00 0e 10                              |  ....          |        utoff: 3600 (valid) 0xe2-0xe6 (4)
0x0e0|                  01                           |      .         |        dst: 1 (valid) 0xe6-0xe7 (1)
0x0e0|                     08                        |       .        |        idx: 8 (valid) 0xe7-0xe8 (1)
     |                                               |                |      [3]{}: local_time_type 0xe8-0xee (6)
0x0e0|                        00 00 00 00            |        ....    |        utoff: 0 (valid) 0xe8-0xec (4)
0x0e0|                                    00         |            .   |        dst: 0 (valid) 0xec-0xed (1)
0x0e0|                                       0d      |             .  |        idx: 13 (valid) 0xed-0xee (1)
     |                                               |                |      [4]{}: local_time_type 0xee-0xf4 (6)
0x0e0|                                          00 00|              ..|        utoff: 0 (valid) 0xee-0xf2 (4)
0x0f0|00 00                                          |..              |
0x0f0|      00                                       |  .             |        dst: 0 (valid) 0xf2-0xf3 (1)
0x0f0|         0d                                    |   .            |        idx: 13 (valid) 0xf3-0xf4 (1)
     |                                               |                |      [5]{}: local_time_type 0xf4-0xfa (6)
0x0f0|            00 00 1c 20                        |    ...         |        utoff: 7200 (valid) 0xf4-0xf8 (4)
0x0f0|                        01                     |        .       |        dst: 1 (valid) 0xf8-0xf9 (1)
0x0f0|                           11                  |         .      |        idx: 17 (valid) 0xf9-0xfa (1)
     |                                               |                |      [6]{}: local_time_type 0xfa-0x100 (6)
0x0f0|                              00 00 0e 10      |          ....  |        utoff: 3600 (valid) 0xfa-0xfe (4)
0x0f0|                                          00   |              . |        dst: 0 (valid) 0xfe-0xff (1)
0x0f0|                                             16|               .|        idx: 22 (valid) 0xff-0x100 (1)
     |                                               |                |      [7]{}: local_time_type 0x100-0x106 (6)
0x100|00 00 0e 10                                    |....            |        utoff: 3600 (valid) 0x100-0x104 (4)
0x100|            01                                 |    .           |        dst: 1 (valid) 0x104-0x105 (1)
0x100|               08                              |     .          |        idx: 8 (valid) 0x105-0x106 (1)
     |                                               |                |    time_zone_designations[0:6]: 0x106-0x120 (26)
0x100|                  4c 4d 54 00                  |      LMT.      |      [0]: "LMT" time_zone_designation 0x106-0x10a (4)
0x100|                              50 4d 54 00      |          PMT.  |      [1]: "PMT" time_zone_designation 0x10a-0x10e (4)
0x100|                                          57 45|              WE|      [2]: "WEST" time_zone_designation 0x10e-0x113 (5)
0x110|53 54 00                                       |ST.             |
0x110|         57 45 54 00                           |   WET.         |      [3]: "WET" time_zone_designation 0x113-0x117 (4)
0x110|                     43 45 53 54 00            |       CEST.    |      [4]: "CEST" time_zone_designation 0x117-0x11c (5)
0x110|                                    43 45 54 00|            CET.|      [5]: "CET" time_zone_designation 0x11c-0x120 (4)
     |                                               |                |    leap_second_records[0:0]: 0x120-0x120 (0)
     |                                               |                |    standard_wall_indicators[0:8]: 0x120-0x128 (8)
0x120|00                                             |.               |      [0]: 0 standard_wall_indicator (valid) 0x120-0x121 (1)
0x120|   00                                          | .              |      [1]: 0 standard_wall_indicator (valid) 0x121-0x122 (1)
0x120|      01                                       |  .             |      [2]: 1 standard_wall_indicator (valid) 0x122-0x123 (1)
0x120|         01                                    |   .            |      [3]: 1 standard_wall_indicator (valid) 0x123-0x124 (1)
0x120|            00                                 |    .           |      [4]: 0 standard_wall_indicator (valid) 0x124-0x125 (1)
0x120|               00                              |     .          |      [5]: 0 standard_wall_indicator (valid) 0x125-0x126 (1)
0x120|                  00                           |      .         |      [6]: 0 standard_wall_indicator (valid) 0x126-0x127 (1)
0x120|                     00                        |       .        |      [7]: 0 standard_wall_indicator (valid) 0x127-0x128 (1)
     |                                               |                |    ut_local_indicators[0:0]: 0x128-0x128 (0)
     |                                               |                |  v2plusheader{}: 0x128-0x154 (44)
0x120|                        54 5a 69 66            |        TZif    |    magic: 0x545a6966 (valid) 0x128-0x12c (4)
0x120|                                    32         |            2   |    ver: "2" (0x32) (valid) 0x12c-0x12d (1)
0x120|                                       00 00 00|             ...|    reserved: raw bits 0x12d-0x13c (15)
0x130|00 00 00 00 00 00 00 00 00 00 00 00            |............    |
0x130|                                    00 00 00 00|            ....|    isutcnt: 0 0x13c-0x140 (4)
0x140|00 00 00 08                                    |....            |    isstdcnt: 8 0x140-0x144 (4)
0x140|            00 00 00 00                        |    ....        |    leapcnt: 0 0x144-0x148 (4)
0x140|                        00 00 00 22            |        ..."    |    timecnt: 34 0x148-0x14c (4)
0x140|                                    00 00 00 08|            ....|    typecnt: 8 0x14c-0x150 (4)
0x150|00 00 00 1a                                    |....            |    charcnt: 26 0x150-0x154 (4)
     |                                               |                |  v2plusdatablock{}: 0x154-0x2d8 (388)
     |                                               |                |    transition_times[0:34]: 0x154-0x264 (272)
0x150|            ff ff ff ff 6b c9 9b 24            |    ....k..$    |      [0]: "1891-03-15T23:47:48Z" (-2486592732) transition_time 0x154-0x15c (8)
0x150|                                    ff ff ff ff|            ....|      [1]: "1911-03-10T23:50:39Z" (-1855958961) transition_time 0x15c-0x164 (8)
0x160|91 60 50 4f                                    |.`PO            |
0x160|            ff ff ff ff 9b 47 78 f0            |    .....Gx.    |      [2]: "1916-06-14T23:00:00Z" (-1689814800) transition_time 0x164-0x16c (8)
0x160|                                    ff ff ff ff|            ....|      [3]: "1916-10-01T23:00:00Z" (-1680397200) transition_time 0x16c-0x174 (8)
0x170|9b d7 2c 70                                    |..,p            |
0x170|            ff ff ff ff 9c bc 91 70            |    .......p    |      [4]: "1917-03-24T23:00:00Z" (-1665363600) transition_time 0x174-0x17c (8)
0x170|                                    ff ff ff ff|            ....|      [5]: "1917-10-07T23:00:00Z" (-1648342800) transition_time 0x17c-0x184 (8)
0x180|9d c0 48 f0                                    |..H.            |
0x180|            ff ff ff ff 9e 89 fe 70            |    .......p    |      [6]: "1918-03-09T23:00:00Z" (-1635123600) transition_time 0x184-0x18c (8)
0x180|                                    ff ff ff ff|            ....|      [7]: "1918-10-06T23:00:00Z" (-1616893200) transition_time 0x18c-0x194 (8)
0x190|9f a0 2a f0                                    |..*.            |
0x190|            ff ff ff ff a0 60 a5 f0            |    .....`..    |      [8]: "1919-03-01T23:00:00Z" (-1604278800) transition_time 0x194-0x19c (8)
0x190|                                    ff ff ff ff|            ....|      [9]: "1919-10-05T23:00:00Z" (-1585443600) transition_time 0x19c-0x1a4 (8)
0x1a0|a1 80 0c f0                                    |....            |
0x1a0|            ff ff ff ff a2 2e 12 f0            |    ........    |      [10]: "1920-02-14T23:00:00Z" (-1574038800) transition_time 0x1a4-0x1ac (8)
0x1a0|                                    ff ff ff ff|            ....|      [11]: "1920-10-23T23:00:00Z" (-1552266000) transition_time 0x1ac-0x1b4 (8)
0x1b0|a3 7a 4c f0                                    |.zL.            |
0x1b0|            ff ff ff ff a4 35 81 f0            |    .....5..    |      [12]: "1921-03-14T23:00:00Z" (-1539997200) transition_time 0x1b4-0x1bc (8)
0x1b0|                                    ff ff ff ff|            ....|      [13]: "1921-06-21T23:00:00Z" (-1531443600) transition_time 0x1bc-0x1c4 (8)
0x1c0|a4 b8 06 70                                    |...p            |
0x1c0|            ff ff ff ff c6 ff 06 70            |    .......p    |      [14]: "1939-09-11T23:00:00Z" (-956365200) transition_time 0x1c4-0x1cc (8)
0x1c0|                                    ff ff ff ff|            ....|      [15]: "1939-11-19T00:00:00Z" (-950486400) transition_time 0x1cc-0x1d4 (8)
0x1d0|c7 58 ba 80                                    |.X..            |
0x1d0|            ff ff ff ff c7 da 09 a0            |    ........    |      [16]: "1940-02-25T02:00:00Z" (-942012000) transition_time 0x1d4-0x1dc (8)
0x1d0|                                    ff ff ff ff|            ....|      [17]: "1944-04-03T01:00:00Z" (-812502000) transition_time 0x1dc-0x1e4 (8)
0x1e0|cf 92 34 10                                    |..4.            |
0x1e0|            ff ff ff ff d0 8a 00 00            |    ........    |      [18]: "1944-10-08T00:00:00Z" (-796262400) transition_time 0x1e4-0x1ec (8)
0x1e0|                                    ff ff ff ff|            ....|      [19]: "1945-04-02T01:00:00Z" (-781052400) transition_time 0x1ec-0x1f4 (8)
0x1f0|d1 72 16 10                                    |.r..            |
0x1f0|            ff ff ff ff d2 4e 24 70            |    .....N$p    |      [20]: "1945-09-15T23:00:00Z" (-766630800) transition_time 0x1f4-0x1fc (8)
0x1f0|                                    ff ff ff ff|            ....|      [21]: "1946-10-06T23:00:00Z" (-733280400) transition_time 0x1fc-0x204 (8)
0x200|d4 4b 07 70                                    |.K.p            |
0x200|            ff ff ff ff e5 ce d3 00            |    ........    |      [22]: "1956-01-29T00:00:00Z" (-439430400) transition_time 0x204-0x20c (8)
0x200|                                    ff ff ff ff|            ....|      [23]: "1963-04-13T23:00:00Z" (-212029200) transition_time 0x20c-0x214 (8)
0x210|f3 5c b0 f0                                    |.\..            |
0x210|            00 00 00 00 02 78 c1 f0            |    .....x..    |      [24]: "1971-04-25T23:00:00Z" (41468400) transition_time 0x214-0x21c (8)
0x210|                                    00 00 00 00|            ....|      [25]: "1971-09-26T23:00:00Z" (54774000) transition_time 0x21c-0x224 (8)
0x220|03 43 c8 f0                                    |.C..            |
0x220|            00 00 00 00 0d cf d7 00            |    ........    |      [26]: "1977-05-06T00:00:00Z" (231724800) transition_time 0x224-0x22c (8)
0x220|                                    00 00 00 00|            ....|      [27]: "1977-10-20T23:00:00Z" (246236400) transition_time 0x22c-0x234 (8)
0x230|0e ad 44 f0                                    |..D.            |
0x230|            00 00 00 00 0f 78 5a 00            |    .....xZ.    |      [28]: "1978-03-24T00:00:00Z" (259545600) transition_time 0x234-0x23c (8)
0x230|                                    00 00 00 00|            ....|      [29]: "1978-09-22T01:00:00Z" (275274000) transition_time 0x23c-0x244 (8)
0x240|10 68 59 10                                    |.hY.            |
0x240|            00 00 00 00 12 76 43 70            |    .....vCp    |      [30]: "1979-10-25T23:00:00Z" (309740400) transition_time 0x244-0x24c (8)
0x240|                                    00 00 00 00|            ....|      [31]: "1980-04-25T00:00:00Z" (325468800) transition_time 0x24c-0x254 (8)
0x250|13 66 42 80                                    |.fB.            |
0x250|            00 00 00 00 14 5f 7c 10            |    ....._|.    |      [32]: "1980-10-31T01:00:00Z" (341802000) transition_time 0x254-0x25c (8)
0x250|                                    00 00 00 00|            ....|      [33]: "1981-05-01T00:00:00Z" (357523200) transition_time 0x25c-0x264 (8)
0x260|15 4f 5f 00                                    |.O_.            |
     |                                               |                |    transition_types[0:34]: 0x264-0x286 (34)
0x260|            01                                 |    .           |      [0]: 1 transition_type 0x264-0x265 (1)
0x260|               04                              |     .          |      [1]: 4 transition_type 0x265-0x266 (1)
0x260|                  02                           |      .         |      [2]: 2 transition_type 0x266-0x267 (1)
0x260|                     03                        |       .        |      [3]: 3 transition_type 0x267-0x268 (1)
0x260|                        02                     |        .       |      [4]: 2 transition_type 0x268-0x269 (1)
0x260|                           03                  |         .      |      [5]: 3 transition_type 0x269-0x26a (1)
0x260|                              02               |          .     |      [6]: 2 transition_type 0x26a-0x26b (1)
0x260|                                 03            |           .    |      [7]: 3 transition_type 0x26b-0x26c (1)
0x260|                                    02         |            .   |      [8]: 2 transition_type 0x26c-0x26d (1)
0x260|                                       03      |             .  |      [9]: 3 transition_type 0x26d-0x26e (1)
0x260|                                          02   |              . |      [10]: 2 transition_type 0x26e-0x26f (1)
0x260|                                             03|               .|      [11]: 3 transition_type 0x26f-0x270 (1)
0x270|02                                             |.               |      [12]: 2 transition_type 0x270-0x271 (1)
0x270|   03                                          | .              |      [13]: 3 transition_type 0x271-0x272 (1)
0x270|      02                                       |  .             |      [14]: 2 transition_type 0x272-0x273 (1)
0x270|         04                                    |   .            |      [15]: 4 transition_type 0x273-0x274 (1)
0x270|            06                                 |    .           |      [16]: 6 transition_type 0x274-0x275 (1)
0x270|               05                              |     .          |      [17]: 5 transition_type 0x275-0x276 (1)
0x270|                  06                           |      .         |      [18]: 6 transition_type 0x276-0x277 (1)
0x270|                     05                        |       .        |      [19]: 5 transition_type 0x277-0x278 (1)
0x270|                        06                     |        .       |      [20]: 6 transition_type 0x278-0x279 (1)
0x270|                           04                  |         .      |      [21]: 4 transition_type 0x279-0x27a (1)
0x270|                              06               |          .     |      [22]: 6 transition_type 0x27a-0x27b (1)
0x270|                                 04            |           .    |      [23]: 4 transition_type 0x27b-0x27c (1)
0x270|                                    02         |            .   |      [24]: 2 transition_type 0x27c-0x27d (1)
0x270|                                       03      |             .  |      [25]: 3 transition_type 0x27d-0x27e (1)
0x270|                                          07   |              . |      [26]: 7 transition_type 0x27e-0x27f (1)
0x270|                                             06|               .|      [27]: 6 transition_type 0x27f-0x280 (1)
0x280|05                                             |.               |      [28]: 5 transition_type 0x280-0x281 (1)
0x280|   06                                          | .              |      [29]: 6 transition_type 0x281-0x282 (1)
0x280|      04                                       |  .             |      [30]: 4 transition_type 0x282-0x283 (1)
0x280|         07                                    |   .            |      [31]: 7 transition_type 0x283-0x284 (1)
0x280|            04                                 |    .           |      [32]: 4 transition_type 0x284-0x285 (1)
0x280|               06                              |     .          |      [33]: 6 transition_type 0x285-0x286 (1)
     |                                               |                |    local_time_type_records[0:8]: 0x286-0x2b6 (48)
     |                                               |                |      [0]{}: local_time_type 0x286-0x28c (6)
0x280|                  00 00 02 dc                  |      ....      |        utoff: 732 (valid) 0x286-0x28a (4)
0x280|                              00               |          .     |        dst: 0 (valid) 0x28a-0x28b (1)
0x280|                                 00            |           .    |        idx: 0 (valid) 0x28b-0x28c (1)
     |                                               |                |      [1]{}: local_time_type 0x28c-0x292 (6)
0x280|                                    00 00 02 31|            ...1|        utoff: 561 (valid) 0x28c-0x290 (4)
0x290|00                                             |.               |        dst: 0 (valid) 0x290-0x291 (1)
0x290|   04                                          | .              |        idx: 4 (valid) 0x291-0x292 (1)
     |                                               |                |      [2]{}: local_time_type 0x292-0x298 (6)
0x290|      00 00 0e 10                              |  ....          |        utoff: 3600 (valid) 0x292-0x296 (4)
0x290|                  01                           |      .         |        dst: 1 (valid) 0x296-0x297 (1)
0x290|                     08                        |       .        |        idx: 8 (valid) 0x297-0x298 (1)
     |                                               |                |      [3]{}: local_time_type 0x298-0x29e (6)
0x290|                        00 00 00 00            |        ....    |        utoff: 0 (valid) 0x298-0x29c (4)
0x290|                                    00         |            .   |        dst: 0 (valid) 0x29c-0x29d (1)
0x290|                                       0d      |             .  |        idx: 13 (valid) 0x29d-0x29e (1)
     |                                               |                |      [4]{}: local_time_type 0x29e-0x2a4 (6)
0x290|                                          00 00|              ..|        utoff: 0 (valid) 0x29e-0x2a2 (4)
0x2a0|00 00                                          |..              |
0x2a0|      00                                       |  .             |        dst: 0 (valid) 0x2a2-0x2a3 (1)
0x2a0|         0d                                    |   .            |        idx: 13 (valid) 0x2a3-0x2a4 (1)
     |                                               |                |      [5]{}: local_time_type 0x2a4-0x2aa (6)
0x2a0|            00 00 1c 20                        |    ...         |        utoff: 7200 (valid) 0x2a4-0x2a8 (4)
0x2a0|                        01                     |        .       |        dst: 1 (valid) 0x2a8-0x2a9 (1)
0x2a0|                           11                  |         .      |        idx: 17 (valid) 0x2a9-0x2aa (1)
     |                                               |                |      [6]{}: local_time_type 0x2aa-0x2b0 (6)
0x2a0|                              00 00 0e 10      |          ....  |        utoff: 3600 (valid) 0x2aa-0x2ae (4)
0x2a0|                                          00   |              . |        dst: 0 (valid) 0x2ae-0x2af (1)
0x2a0|                                             16|               .|        idx: 22 (valid) 0x2af-0x2b0 (1)
     |                                               |                |      [7]{}: local_time_type 0x2b0-0x2b6 (6)
0x2b0|00 00 0e 10                                    |....            |        utoff: 3600 (valid) 0x2b0-0x2b4 (4)
0x2b0|            01                                 |    .           |        dst: 1 (valid) 0x2b4-0x2b5 (1)
0x2b0|               08                              |     .          |        idx: 8 (valid) 0x2b5-0x2b6 (1)
     |                                               |                |    time_zone_designations[0:6]: 0x2b6-0x2d0 (26)
0x2b0|                  4c 4d 54 00                  |      LMT.      |      [0]: "LMT" time_zone_designation 0x2b6-0x2ba (4)
0x2b0|                              50 4d 54 00      |          PMT.  |      [1]: "PMT" time_zone_designation 0x2ba-0x2be (4)
0x2b0|                                          57 45|              WE|      [2]: "WEST" time_zone_designation 0x2be-0x2c3 (5)
0x2c0|53 54 00                                       |ST.             |
0x2c0|         57 45 54 00                           |   WET.         |      [3]: "WET" time_zone_designation 0x2c3-0x2c7 (4)
0x2c0|                     43 45 53 54 00            |       CEST.    |      [4]: "CEST" time_zone_designation 0x2c7-0x2cc (5)
0x2c0|                                    43 45 54 00|            CET.|      [5]: "CET" time_zone_designation 0x2cc-0x2d0 (4)
     |                                               |                |    leap_second_records[0:0]: 0x2d0-0x2d0 (0)
     |                                               |                |    standard_wall_indicators[0:8]: 0x2d0-0x2d8 (8)
0x2d0|00                                             |.               |      [0]: 0 standard_wall_indicator (valid) 0x2d0-0x2d1 (1)
0x2d0|   00                                          | .              |      [1]: 0 standard_wall_indicator (valid) 0x2d1-0x2d2 (1)
0x2d0|      01                                       |  .             |      [2]: 1 standard_wall_indicator (valid) 0x2d2-0x2d3 (1)
0x2d0|         01                                    |   .            |      [3]: 1 standard_wall_indicator (valid) 0x2d3-0x2d4 (1)
0x2d0|            00                                 |    .           |      [4]: 0 standard_wall_indicator (valid) 0x2d4-0x2d5 (1)
0x2d0|               00                              |     .          |      [5]: 0 standard_wall_indicator (valid) 0x2d5-0x2d6 (1)
0x2d0|                  00                           |      .         |      [6]: 0 standard_wall_indicator (valid) 0x2d6-0x2d7 (1)
0x2d0|                     00                        |       .        |      [7]: 0 standard_wall_indicator (valid) 0x2d7-0x2d8 (1)
     |                                               |                |    ut_local_indicators[0:0]: 0x2d8-0x2d8 (0)
     |                                               |                |  footer{}: 0x2d8-0x2df (7)
0x2d0|                        0a                     |        .       |    nl1: 10 (valid) 0x2d8-0x2d9 (1)
0x2d0|                           43 45 54 2d 31      |         CET-1  |    tz_string: "CET-1" 0x2d9-0x2de (5)
0x2d0|                                          0a|  |              .||    nl2: 10 (valid) 0x2de-0x2df (1)
