$ fq -d tzif dv Almaty
     |00 01 02 03 04 05 06 07 08 09 0a 0b 0c 0d 0e 0f|0123456789abcdef|.{}: Almaty (tzif) 0x0-0x5fa (1530)
     |                                               |                |  v1header{}: 0x0-0x2c (44)
0x000|54 5a 69 66                                    |TZif            |    magic: 0x545a6966 (valid) 0x0-0x4 (4)
0x000|            32                                 |    2           |    ver: "2" (0x32) (valid) 0x4-0x5 (1)
0x000|               00 00 00 00 00 00 00 00 00 00 00|     ...........|    reserved: raw bits 0x5-0x14 (15)
0x010|00 00 00 00                                    |....            |
0x010|            00 00 00 00                        |    ....        |    isutcnt: 0 0x14-0x18 (4)
0x010|                        00 00 00 0a            |        ....    |    isstdcnt: 10 0x18-0x1c (4)
0x010|                                    00 00 00 1b|            ....|    leapcnt: 27 0x1c-0x20 (4)
0x020|00 00 00 34                                    |...4            |    timecnt: 52 0x20-0x24 (4)
0x020|            00 00 00 0a                        |    ....        |    typecnt: 10 0x24-0x28 (4)
0x020|                        00 00 00 10            |        ....    |    charcnt: 16 0x28-0x2c (4)
     |                                               |                |  v1datablock{}: 0x2c-0x25e (562)
     |                                               |                |    transition_times[0:52]: 0x2c-0xfc (208)
0x020|                                    aa 19 7b dc|            ..{.|      [0]: "1924-05-01T18:52:12Z" (-1441170468) transition_time 0x2c-0x30 (4)
0x030|b5 a3 ef 30                                    |...0            |      [1]: "1930-06-20T19:00:00Z" (-1247547600) transition_time 0x30-0x34 (4)
0x030|            15 27 7d a9                        |    .'}.        |      [2]: "1981-03-31T18:00:09Z" (354909609) transition_time 0x34-0x38 (4)
0x030|                        16 18 b2 1a            |        ....    |      [3]: "1981-09-30T17:00:10Z" (370717210) transition_time 0x38-0x3c (4)
0x030|                                    17 08 b1 2a|            ...*|      [4]: "1982-03-31T18:00:10Z" (386445610) transition_time 0x3c-0x40 (4)
0x040|17 f9 e5 9b                                    |....            |      [5]: "1982-09-30T17:00:11Z" (402253211) transition_time 0x40-0x44 (4)
0x040|            18 e9 e4 ab                        |    ....        |      [6]: "1983-03-31T18:00:11Z" (417981611) transition_time 0x44-0x48 (4)
0x040|                        19 db 19 1c            |        ....    |      [7]: "1983-09-30T17:00:12Z" (433789212) transition_time 0x48-0x4c (4)
0x040|                                    1a cc 69 ac|            ..i.|      [8]: "1984-03-31T18:00:12Z" (449604012) transition_time 0x4c-0x50 (4)
0x050|1b bc 76 cc                                    |..v.            |      [9]: "1984-09-29T20:00:12Z" (465336012) transition_time 0x50-0x54 (4)
0x050|            1c ac 67 cc                        |    ..g.        |      [10]: "1985-03-30T20:00:12Z" (481060812) transition_time 0x54-0x58 (4)
0x050|                        1d 9c 58 cd            |        ..X.    |      [11]: "1985-09-28T20:00:13Z" (496785613) transition_time 0x58-0x5c (4)
0x050|                                    1e 8c 49 cd|            ..I.|      [12]: "1986-03-29T20:00:13Z" (512510413) transition_time 0x5c-0x60 (4)
0x060|1f 7c 3a cd                                    |.|:.            |      [13]: "1986-09-27T20:00:13Z" (528235213) transition_time 0x60-0x64 (4)
0x060|            20 6c 2b cd                        |     l+.        |      [14]: "1987-03-28T20:00:13Z" (543960013) transition_time 0x64-0x68 (4)
0x060|                        21 5c 1c cd            |        !\..    |      [15]: "1987-09-26T20:00:13Z" (559684813) transition_time 0x68-0x6c (4)
0x060|                                    22 4c 0d ce|            "L..|      [16]: "1988-03-26T20:00:14Z" (575409614) transition_time 0x6c-0x70 (4)
0x070|23 3b fe ce                                    |#;..            |      [17]: "1988-09-24T20:00:14Z" (591134414) transition_time 0x70-0x74 (4)
0x070|            24 2b ef ce                        |    $+..        |      [18]: "1989-03-25T20:00:14Z" (606859214) transition_time 0x74-0x78 (4)
0x070|                        25 1b e0 ce            |        %...    |      [19]: "1989-09-23T20:00:14Z" (622584014) transition_time 0x78-0x7c (4)
0x070|                                    26 0b d1 cf|            &...|      [20]: "1990-03-24T20:00:15Z" (638308815) transition_time 0x7c-0x80 (4)
0x080|27 04 fd 4f                                    |'..O            |      [21]: "1990-09-29T20:00:15Z" (654638415) transition_time 0x80-0x84 (4)
0x080|            27 f4 ee 50                        |    '..P        |      [22]: "1991-03-30T20:00:16Z" (670363216) transition_time 0x84-0x88 (4)
0x080|                        28 e4 ed 60            |        (..`    |      [23]: "1991-09-28T21:00:16Z" (686091616) transition_time 0x88-0x8c (4)
0x080|                                    29 78 95 60|            )x.`|      [24]: "1992-01-18T21:00:16Z" (695768416) transition_time 0x8c-0x90 (4)
0x090|29 d4 d0 50                                    |)..P            |      [25]: "1992-03-28T20:00:16Z" (701812816) transition_time 0x90-0x94 (4)
0x090|            2a c4 c1 51                        |    *..Q        |      [26]: "1992-09-26T20:00:17Z" (717537617) transition_time 0x94-0x98 (4)
0x090|                        2b b4 b2 51            |        +..Q    |      [27]: "1993-03-27T20:00:17Z" (733262417) transition_time 0x98-0x9c (4)
0x090|                                    2c a4 a3 52|            ,..R|      [28]: "1993-09-25T20:00:18Z" (748987218) transition_time 0x9c-0xa0 (4)
0x0a0|2d 94 94 52                                    |-..R            |      [29]: "1994-03-26T20:00:18Z" (764712018) transition_time 0xa0-0xa4 (4)
0x0a0|            2e 84 85 53                        |    ...S        |      [30]: "1994-09-24T20:00:19Z" (780436819) transition_time 0xa4-0xa8 (4)
0x0a0|                        2f 74 76 53            |        /tvS    |      [31]: "1995-03-25T20:00:19Z" (796161619) transition_time 0xa8-0xac (4)
0x0a0|                                    30 64 67 53|            0dgS|      [32]: "1995-09-23T20:00:19Z" (811886419) transition_time 0xac-0xb0 (4)
0x0b0|31 5d 92 d4                                    |1]..            |      [33]: "1996-03-30T20:00:20Z" (828216020) transition_time 0xb0-0xb4 (4)
0x0b0|            32 72 6d d4                        |    2rm.        |      [34]: "1996-10-26T20:00:20Z" (846360020) transition_time 0xb4-0xb8 (4)
0x0b0|                        33 3d 74 d4            |        3=t.    |      [35]: "1997-03-29T20:00:20Z" (859665620) transition_time 0xb8-0xbc (4)
0x0b0|                                    34 52 4f d5|            4RO.|      [36]: "1997-10-25T20:00:21Z" (877809621) transition_time 0xbc-0xc0 (4)
0x0c0|35 1d 56 d5                                    |5.V.            |      [37]: "1998-03-28T20:00:21Z" (891115221) transition_time 0xc0-0xc4 (4)
0x0c0|            36 32 31 d5                        |    621.        |      [38]: "1998-10-24T20:00:21Z" (909259221) transition_time 0xc4-0xc8 (4)
0x0c0|                        36 fd 38 d6            |        6.8.    |      [39]: "1999-03-27T20:00:22Z" (922564822) transition_time 0xc8-0xcc (4)
0x0c0|                                    38 1b 4e 56|            8.NV|      [40]: "1999-10-30T20:00:22Z" (941313622) transition_time 0xcc-0xd0 (4)
0x0d0|38 dd 1a d6                                    |8...            |      [41]: "2000-03-25T20:00:22Z" (954014422) transition_time 0xd0-0xd4 (4)
0x0d0|            39 fb 30 56                        |    9.0V        |      [42]: "2000-10-28T20:00:22Z" (972763222) transition_time 0xd4-0xd8 (4)
0x0d0|                        3a bc fc d6            |        :...    |      [43]: "2001-03-24T20:00:22Z" (985464022) transition_time 0xd8-0xdc (4)
0x0d0|                                    3b db 12 56|            ;..V|      [44]: "2001-10-27T20:00:22Z" (1004212822) transition_time 0xdc-0xe0 (4)
0x0e0|3c a6 19 56                                    |<..V            |      [45]: "2002-03-30T20:00:22Z" (1017518422) transition_time 0xe0-0xe4 (4)
0x0e0|            3d ba f4 56                        |    =..V        |      [46]: "2002-10-26T20:00:22Z" (1035662422) transition_time 0xe4-0xe8 (4)
0x0e0|                        3e 85 fb 56            |        >..V    |      [47]: "2003-03-29T20:00:22Z" (1048968022) transition_time 0xe8-0xec (4)
0x0e0|                                    3f 9a d6 56|            ?..V|      [48]: "2003-10-25T20:00:22Z" (1067112022) transition_time 0xec-0xf0 (4)
0x0f0|40 65 dd 56                                    |@e.V            |      [49]: "2004-03-27T20:00:22Z" (1080417622) transition_time 0xf0-0xf4 (4)
0x0f0|            41 83 f2 d6                        |    A...        |      [50]: "2004-10-30T20:00:22Z" (1099166422) transition_time 0xf4-0xf8 (4)
0x0f0|                        64 9b 78 1b            |        d.x.    |      [51]: "2023-06-28T00:00:27Z" (1687910427) transition_time 0xf8-0xfc (4)
     |                                               |                |    transition_types[0:52]: 0xfc-0x130 (52)
0x0f0|                                    01         |            .   |      [0]: 1 transition_type 0xfc-0xfd (1)
0x0f0|                                       03      |             .  |      [1]: 3 transition_type 0xfd-0xfe (1)
0x0f0|                                          02   |              . |      [2]: 2 transition_type 0xfe-0xff (1)
0x0f0|                                             03|               .|      [3]: 3 transition_type 0xff-0x100 (1)
0x100|02                                             |.               |      [4]: 2 transition_type 0x100-0x101 (1)
0x100|   03                                          | .              |      [5]: 3 transition_type 0x101-0x102 (1)
0x100|      02                                       |  .             |      [6]: 2 transition_type 0x102-0x103 (1)
0x100|         03                                    |   .            |      [7]: 3 transition_type 0x103-0x104 (1)
0x100|            02                                 |    .           |      [8]: 2 transition_type 0x104-0x105 (1)
0x100|               04                              |     .          |      [9]: 4 transition_type 0x105-0x106 (1)
0x100|                  05                           |      .         |      [10]: 5 transition_type 0x106-0x107 (1)
0x100|                     04                        |       .        |      [11]: 4 transition_type 0x107-0x108 (1)
0x100|                        05                     |        .       |      [12]: 5 transition_type 0x108-0x109 (1)
0x100|                           04                  |         .      |      [13]: 4 transition_type 0x109-0x10a (1)
0x100|                              05               |          .     |      [14]: 5 transition_type 0x10a-0x10b (1)
0x100|                                 04            |           .    |      [15]: 4 transition_type 0x10b-0x10c (1)
0x100|                                    05         |            .   |      [16]: 5 transition_type 0x10c-0x10d (1)
0x100|                                       04      |             .  |      [17]: 4 transition_type 0x10d-0x10e (1)
0x100|                                          05   |              . |      [18]: 5 transition_type 0x10e-0x10f (1)
0x100|                                             04|               .|      [19]: 4 transition_type 0x10f-0x110 (1)
0x110|05                                             |.               |      [20]: 5 transition_type 0x110-0x111 (1)
0x110|   04                                          | .              |      [21]: 4 transition_type 0x111-0x112 (1)
0x110|      06                                       |  .             |      [22]: 6 transition_type 0x112-0x113 (1)
0x110|         07                                    |   .            |      [23]: 7 transition_type 0x113-0x114 (1)
0x110|            04                                 |    .           |      [24]: 4 transition_type 0x114-0x115 (1)
0x110|               05                              |     .          |      [25]: 5 transition_type 0x115-0x116 (1)
0x110|                  04                           |      .         |      [26]: 4 transition_type 0x116-0x117 (1)
0x110|                     05                        |       .        |      [27]: 5 transition_type 0x117-0x118 (1)
0x110|                        04                     |        .       |      [28]: 4 transition_type 0x118-0x119 (1)
0x110|                           05                  |         .      |      [29]: 5 transition_type 0x119-0x11a (1)
0x110|                              04               |          .     |      [30]: 4 transition_type 0x11a-0x11b (1)
0x110|                                 05            |           .    |      [31]: 5 transition_type 0x11b-0x11c (1)
0x110|                                    04         |            .   |      [32]: 4 transition_type 0x11c-0x11d (1)
0x110|                                       05      |             .  |      [33]: 5 transition_type 0x11d-0x11e (1)
0x110|                                          04   |              . |      [34]: 4 transition_type 0x11e-0x11f (1)
0x110|                                             05|               .|      [35]: 5 transition_type 0x11f-0x120 (1)
0x120|04                                             |.               |      [36]: 4 transition_type 0x120-0x121 (1)
0x120|   05                                          | .              |      [37]: 5 transition_type 0x121-0x122 (1)
0x120|      04                                       |  .             |      [38]: 4 transition_type 0x122-0x123 (1)
0x120|         05                                    |   .            |      [39]: 5 transition_type 0x123-0x124 (1)
0x120|            04                                 |    .           |      [40]: 4 transition_type 0x124-0x125 (1)
0x120|               05                              |     .          |      [41]: 5 transition_type 0x125-0x126 (1)
0x120|                  04                           |      .         |      [42]: 4 transition_type 0x126-0x127 (1)
0x120|                     05                        |       .        |      [43]: 5 transition_type 0x127-0x128 (1)
0x120|                        04                     |        .       |      [44]: 4 transition_type 0x128-0x129 (1)
0x120|                           05                  |         .      |      [45]: 5 transition_type 0x129-0x12a (1)
0x120|                              04               |          .     |      [46]: 4 transition_type 0x12a-0x12b (1)
0x120|                                 05            |           .    |      [47]: 5 transition_type 0x12b-0x12c (1)
0x120|                                    04         |            .   |      [48]: 4 transition_type 0x12c-0x12d (1)
0x120|                                       05      |             .  |      [49]: 5 transition_type 0x12d-0x12e (1)
0x120|                                          04   |              . |      [50]: 4 transition_type 0x12e-0x12f (1)
0x120|                                             04|               .|      [51]: 4 transition_type 0x12f-0x130 (1)
     |                                               |                |    local_time_type_records[0:10]: 0x130-0x16c (60)
     |                                               |                |      [0]{}: local_time_type 0x130-0x136 (6)
0x130|00 00 48 24                                    |..H$            |        utoff: 18468 (valid) 0x130-0x134 (4)
0x130|            00                                 |    .           |        dst: 0 (valid) 0x134-0x135 (1)
0x130|               00                              |     .          |        idx: 0 (valid) 0x135-0x136 (1)
     |                                               |                |      [1]{}: local_time_type 0x136-0x13c (6)
0x130|                  00 00 46 50                  |      ..FP      |        utoff: 18000 (valid) 0x136-0x13a (4)
0x130|                              00               |          .     |        dst: 0 (valid) 0x13a-0x13b (1)
0x130|                                 04            |           .    |        idx: 4 (valid) 0x13b-0x13c (1)
     |                                               |                |      [2]{}: local_time_type 0x13c-0x142 (6)
0x130|                                    00 00 62 70|            ..bp|        utoff: 25200 (valid) 0x13c-0x140 (4)
0x140|01                                             |.               |        dst: 1 (valid) 0x140-0x141 (1)
0x140|   08                                          | .              |        idx: 8 (valid) 0x141-0x142 (1)
     |                                               |                |      [3]{}: local_time_type 0x142-0x148 (6)
0x140|      00 00 54 60                              |  ..T`          |        utoff: 21600 (valid) 0x142-0x146 (4)
0x140|                  00                           |      .         |        dst: 0 (valid) 0x146-0x147 (1)
0x140|                     0c                        |       .        |        idx: 12 (valid) 0x147-0x148 (1)
     |                                               |                |      [4]{}: local_time_type 0x148-0x14e (6)
0x140|                        00 00 54 60            |        ..T`    |        utoff: 21600 (valid) 0x148-0x14c (4)
0x140|                                    00         |            .   |        dst: 0 (valid) 0x14c-0x14d (1)
0x140|                                       0c      |             .  |        idx: 12 (valid) 0x14d-0x14e (1)
     |                                               |                |      [5]{}: local_time_type 0x14e-0x154 (6)
0x140|                                          00 00|              ..|        utoff: 25200 (valid) 0x14e-0x152 (4)
0x150|62 70                                          |bp              |
0x150|      01                                       |  .             |        dst: 1 (valid) 0x152-0x153 (1)
0x150|         08                                    |   .            |        idx: 8 (valid) 0x153-0x154 (1)
     |                                               |                |      [6]{}: local_time_type 0x154-0x15a (6)
0x150|            00 00 54 60                        |    ..T`        |        utoff: 21600 (valid) 0x154-0x158 (4)
0x150|                        01                     |        .       |        dst: 1 (valid) 0x158-0x159 (1)
0x150|                           0c                  |         .      |        idx: 12 (valid) 0x159-0x15a (1)
     |                                               |                |      [7]{}: local_time_type 0x15a-0x160 (6)
0x150|                              00 00 46 50      |          ..FP  |        utoff: 18000 (valid) 0x15a-0x15e (4)
0x150|                                          00   |              . |        dst: 0 (valid) 0x15e-0x15f (1)
0x150|                                             04|               .|        idx: 4 (valid) 0x15f-0x160 (1)
     |                                               |                |      [8]{}: local_time_type 0x160-0x166 (6)
0x160|00 00 62 70                                    |..bp            |        utoff: 25200 (valid) 0x160-0x164 (4)
0x160|            01                                 |    .           |        dst: 1 (valid) 0x164-0x165 (1)
0x160|               08                              |     .          |        idx: 8 (valid) 0x165-0x166 (1)
     |                                               |                |      [9]{}: local_time_type 0x166-0x16c (6)
0x160|                  00 00 54 60                  |      ..T`      |        utoff: 21600 (valid) 0x166-0x16a (4)
0x160|                              00               |          .     |        dst: 0 (valid) 0x16a-0x16b (1)
0x160|                                 0c            |           .    |        idx: 12 (valid) 0x16b-0x16c (1)
     |                                               |                |    time_zone_designations[0:4]: 0x16c-0x17c (16)
0x160|                                    4c 4d 54 00|            LMT.|      [0]: "LMT" time_zone_designation 0x16c-0x170 (4)
0x170|2b 30 35 00                                    |+05.            |      [1]: "+05" time_zone_designation 0x170-0x174 (4)
0x170|            2b 30 37 00                        |    +07.        |      [2]: "+07" time_zone_designation 0x174-0x178 (4)
0x170|                        2b 30 36 00            |        +06.    |      [3]: "+06" time_zone_designation 0x178-0x17c (4)
     |                                               |                |    leap_second_records[0:27]: 0x17c-0x254 (216)
     |                                               |                |      [0]{}: leap_second_record 0x17c-0x184 (8)
0x170|                                    04 b2 58 00|            ..X.|        occur: "1972-07-01T00:00:00Z" (78796800) 0x17c-0x180 (4)
0x180|00 00 00 01                                    |....            |        corr: 1 0x180-0x184 (4)
     |                                               |                |      [1]{}: leap_second_record 0x184-0x18c (8)
0x180|            05 a4 ec 01                        |    ....        |        occur: "1973-01-01T00:00:01Z" (94694401) 0x184-0x188 (4)
0x180|                        00 00 00 02            |        ....    |        corr: 2 0x188-0x18c (4)
     |                                               |                |      [2]{}: leap_second_record 0x18c-0x194 (8)
0x180|                                    07 86 1f 82|            ....|        occur: "1974-01-01T00:00:02Z" (126230402) 0x18c-0x190 (4)
0x190|00 00 00 03                                    |....            |        corr: 3 0x190-0x194 (4)
     |                                               |                |      [3]{}: leap_second_record 0x194-0x19c (8)
0x190|            09 67 53 03                        |    .gS.        |        occur: "1975-01-01T00:00:03Z" (157766403) 0x194-0x198 (4)
0x190|                        00 00 00 04            |        ....    |        corr: 4 0x198-0x19c (4)
     |                                               |                |      [4]{}: leap_second_record 0x19c-0x1a4 (8)
0x190|                                    0b 48 86 84|            .H..|        occur: "1976-01-01T00:00:04Z" (189302404) 0x19c-0x1a0 (4)
0x1a0|00 00 00 05                                    |....            |        corr: 5 0x1a0-0x1a4 (4)
     |                                               |                |      [5]{}: leap_second_record 0x1a4-0x1ac (8)
0x1a0|            0d 2b 0b 85                        |    .+..        |        occur: "1977-01-01T00:00:05Z" (220924805) 0x1a4-0x1a8 (4)
0x1a0|                        00 00 00 06            |        ....    |        corr: 6 0x1a8-0x1ac (4)
     |                                               |                |      [6]{}: leap_second_record 0x1ac-0x1b4 (8)
0x1a0|                                    0f 0c 3f 06|            ..?.|        occur: "1978-01-01T00:00:06Z" (252460806) 0x1ac-0x1b0 (4)
0x1b0|00 00 00 07                                    |....            |        corr: 7 0x1b0-0x1b4 (4)
     |                                               |                |      [7]{}: leap_second_record 0x1b4-0x1bc (8)
0x1b0|            10 ed 72 87                        |    ..r.        |        occur: "1979-01-01T00:00:07Z" (283996807) 0x1b4-0x1b8 (4)
0x1b0|                        00 00 00 08            |        ....    |        corr: 8 0x1b8-0x1bc (4)
     |                                               |                |      [8]{}: leap_second_record 0x1bc-0x1c4 (8)
0x1b0|                                    12 ce a6 08|            ....|        occur: "1980-01-01T00:00:08Z" (315532808) 0x1bc-0x1c0 (4)
0x1c0|00 00 00 09                                    |....            |        corr: 9 0x1c0-0x1c4 (4)
     |                                               |                |      [9]{}: leap_second_record 0x1c4-0x1cc (8)
0x1c0|            15 9f ca 89                        |    ....        |        occur: "1981-07-01T00:00:09Z" (362793609) 0x1c4-0x1c8 (4)
0x1c0|                        00 00 00 0a            |        ....    |        corr: 10 0x1c8-0x1cc (4)
     |                                               |                |      [10]{}: leap_second_record 0x1cc-0x1d4 (8)
0x1c0|                                    17 80 fe 0a|            ....|        occur: "1982-07-01T00:00:10Z" (394329610) 0x1cc-0x1d0 (4)
0x1d0|00 00 00 0b                                    |....            |        corr: 11 0x1d0-0x1d4 (4)
     |                                               |                |      [11]{}: leap_second_record 0x1d4-0x1dc (8)
0x1d0|            19 62 31 8b                        |    .b1.        |        occur: "1983-07-01T00:00:11Z" (425865611) 0x1d4-0x1d8 (4)
0x1d0|                        00 00 00 0c            |        ....    |        corr: 12 0x1d8-0x1dc (4)
     |                                               |                |      [12]{}: leap_second_record 0x1dc-0x1e4 (8)
0x1d0|                                    1d 25 ea 0c|            .%..|        occur: "1985-07-01T00:00:12Z" (489024012) 0x1dc-0x1e0 (4)
0x1e0|00 00 00 0d                                    |....            |        corr: 13 0x1e0-0x1e4 (4)
     |                                               |                |      [13]{}: leap_second_record 0x1e4-0x1ec (8)
0x1e0|            21 da e5 0d                        |    !...        |        occur: "1988-01-01T00:00:13Z" (567993613) 0x1e4-0x1e8 (4)
0x1e0|                        00 00 00 0e            |        ....    |        corr: 14 0x1e8-0x1ec (4)
     |                                               |                |      [14]{}: leap_second_record 0x1ec-0x1f4 (8)
0x1e0|                                    25 9e 9d 8e|            %...|        occur: "1990-01-01T00:00:14Z" (631152014) 0x1ec-0x1f0 (4)
0x1f0|00 00 00 0f                                    |....            |        corr: 15 0x1f0-0x1f4 (4)
     |                                               |                |      [15]{}: leap_second_record 0x1f4-0x1fc (8)
0x1f0|            27 7f d1 0f                        |    '...        |        occur: "1991-01-01T00:00:15Z" (662688015) 0x1f4-0x1f8 (4)
0x1f0|                        00 00 00 10            |        ....    |        corr: 16 0x1f8-0x1fc (4)
     |                                               |                |      [16]{}: leap_second_record 0x1fc-0x204 (8)
0x1f0|                                    2a 50 f5 90|            *P..|        occur: "1992-07-01T00:00:16Z" (709948816) 0x1fc-0x200 (4)
0x200|00 00 00 11                                    |....            |        corr: 17 0x200-0x204 (4)
     |                                               |                |      [17]{}: leap_second_record 0x204-0x20c (8)
0x200|            2c 32 29 11                        |    ,2).        |        occur: "1993-07-01T00:00:17Z" (741484817) 0x204-0x208 (4)
0x200|                        00 00 00 12            |        ....    |        corr: 18 0x208-0x20c (4)
     |                                               |                |      [18]{}: leap_second_record 0x20c-0x214 (8)
0x200|                                    2e 13 5c 92|            ..\.|        occur: "1994-07-01T00:00:18Z" (773020818) 0x20c-0x210 (4)
0x210|00 00 00 13                                    |....            |        corr: 19 0x210-0x214 (4)
     |                                               |                |      [19]{}: leap_second_record 0x214-0x21c (8)
0x210|            30 e7 24 13                        |    0.$.        |        occur: "1996-01-01T00:00:19Z" (820454419) 0x214-0x218 (4)
0x210|                        00 00 00 14            |        ....    |        corr: 20 0x218-0x21c (4)
     |                                               |                |      [20]{}: leap_second_record 0x21c-0x224 (8)
0x210|                                    33 b8 48 94|            3.H.|        occur: "1997-07-01T00:00:20Z" (867715220) 0x21c-0x220 (4)
0x220|00 00 00 15                                    |....            |        corr: 21 0x220-0x224 (4)
     |                                               |                |      [21]{}: leap_second_record 0x224-0x22c (8)
0x220|            36 8c 10 15                        |    6...        |        occur: "1999-01-01T00:00:21Z" (915148821) 0x224-0x228 (4)
0x220|                        00 00 00 16            |        ....    |        corr: 22 0x228-0x22c (4)
     |                                               |                |      [22]{}: leap_second_record 0x22c-0x234 (8)
0x220|                                    43 b7 1b 96|            C...|        occur: "2006-01-01T00:00:22Z" (1136073622) 0x22c-0x230 (4)
0x230|00 00 00 17                                    |....            |        corr: 23 0x230-0x234 (4)
     |                                               |                |      [23]{}: leap_second_record 0x234-0x23c (8)
0x230|            49 5c 07 97                        |    I\..        |        occur: "2009-01-01T00:00:23Z" (1230768023) 0x234-0x238 (4)
0x230|                        00 00 00 18            |        ....    |        corr: 24 0x238-0x23c (4)
     |                                               |                |      [24]{}: leap_second_record 0x23c-0x244 (8)
0x230|                                    4f ef 93 18|            O...|        occur: "2012-07-01T00:00:24Z" (1341100824) 0x23c-0x240 (4)
0x240|00 00 00 19                                    |....            |        corr: 25 0x240-0x244 (4)
     |                                               |                |      [25]{}: leap_second_record 0x244-0x24c (8)
0x240|            55 93 2d 99                        |    U.-.        |        occur: "2015-07-01T00:00:25Z" (1435708825) 0x244-0x248 (4)
0x240|                        00 00 00 1a            |        ....    |        corr: 26 0x248-0x24c (4)
     |                                               |                |      [26]{}: leap_second_record 0x24c-0x254 (8)
0x240|                                    58 68 46 9a|            XhF.|        occur: "2017-01-01T00:00:26Z" (1483228826) 0x24c-0x250 (4)
0x250|00 00 00 1b                                    |....            |        corr: 27 0x250-0x254 (4)
     |                                               |                |    standard_wall_indicators[0:10]: 0x254-0x25e (10)
0x250|            00                                 |    .           |      [0]: 0 standard_wall_indicator (valid) 0x254-0x255 (1)
0x250|               00                              |     .          |      [1]: 0 standard_wall_indicator (valid) 0x255-0x256 (1)
0x250|                  00                           |      .         |      [2]: 0 standard_wall_indicator (valid) 0x256-0x257 (1)
0x250|                     00                        |       .        |      [3]: 0 standard_wall_indicator (valid) 0x257-0x258 (1)
0x250|                        01                     |        .       |      [4]: 1 standard_wall_indicator (valid) 0x258-0x259 (1)
0x250|                           01                  |         .      |      [5]: 1 standard_wall_indicator (valid) 0x259-0x25a (1)
0x250|                              01               |          .     |      [6]: 1 standard_wall_indicator (valid) 0x25a-0x25b (1)
0x250|                                 01            |           .    |      [7]: 1 standard_wall_indicator (valid) 0x25b-0x25c (1)
0x250|                                    01         |            .   |      [8]: 1 standard_wall_indicator (valid) 0x25c-0x25d (1)
0x250|                                       01      |             .  |      [9]: 1 standard_wall_indicator (valid) 0x25d-0x25e (1)
     |                                               |                |    ut_local_indicators[0:0]: 0x25e-0x25e (0)
     |                                               |                |  v2plusheader{}: 0x25e-0x28a (44)
0x250|                                          54 5a|              TZ|    magic: 0x545a6966 (valid) 0x25e-0x262 (4)
0x260|69 66                                          |if              |
0x260|      32                                       |  2             |    ver: "2" (0x32) (valid) 0x262-0x263 (1)
0x260|         00 00 00 00 00 00 00 00 00 00 00 00 00|   .............|    reserved: raw bits 0x263-0x272 (15)
0x270|00 00                                          |..              |
0x270|      00 00 00 00                              |  ....          |    isutcnt: 0 0x272-0x276 (4)
0x270|                  00 00 00 0a                  |      ....      |    isstdcnt: 10 0x276-0x27a (4)
0x270|                              00 00 00 1b      |          ....  |    leapcnt: 27 0x27a-0x27e (4)
0x270|                                          00 00|              ..|    timecnt: 52 0x27e-0x282 (4)
0x280|00 34                                          |.4              |
0x280|      00 00 00 0a                              |  ....          |    typecnt: 10 0x282-0x286 (4)
0x280|                  00 00 00 10                  |      ....      |    charcnt: 16 0x286-0x28a (4)
     |                                               |                |  v2plusdatablock{}: 0x28a-0x5f8 (878)
     |                                               |                |    transition_times[0:52]: 0x28a-0x42a (416)
0x280|                              ff ff ff ff aa 19|          ......|      [0]: "1924-05-01T18:52:12Z" (-1441170468) transition_time 0x28a-0x292 (8)
0x290|7b dc                                          |{.              |
0x290|      ff ff ff ff b5 a3 ef 30                  |  .......0      |      [1]: "1930-06-20T19:00:00Z" (-1247547600) transition_time 0x292-0x29a (8)
0x290|                              00 00 00 00 15 27|          .....'|      [2]: "1981-03-31T18:00:09Z" (354909609) transition_time 0x29a-0x2a2 (8)
0x2a0|7d a9                                          |}.              |
0x2a0|      00 00 00 00 16 18 b2 1a                  |  ........      |      [3]: "1981-09-30T17:00:10Z" (370717210) transition_time 0x2a2-0x2aa (8)
0x2a0|                              00 00 00 00 17 08|          ......|      [4]: "1982-03-31T18:00:10Z" (386445610) transition_time 0x2aa-0x2b2 (8)
0x2b0|b1 2a                                          |.*              |
0x2b0|      00 00 00 00 17 f9 e5 9b                  |  ........      |      [5]: "1982-09-30T17:00:11Z" (402253211) transition_time 0x2b2-0x2ba (8)
0x2b0|                              00 00 00 00 18 e9|          ......|      [6]: "1983-03-31T18:00:11Z" (417981611) transition_time 0x2ba-0x2c2 (8)
0x2c0|e4 ab                                          |..              |
0x2c0|      00 00 00 00 19 db 19 1c                  |  ........      |      [7]: "1983-09-30T17:00:12Z" (433789212) transition_time 0x2c2-0x2ca (8)
0x2c0|                              00 00 00 00 1a cc|          ......|      [8]: "1984-03-31T18:00:12Z" (449604012) transition_time 0x2ca-0x2d2 (8)
0x2d0|69 ac                                          |i.              |
0x2d0|      00 00 00 00 1b bc 76 cc                  |  ......v.      |      [9]: "1984-09-29T20:00:12Z" (465336012) transition_time 0x2d2-0x2da (8)
0x2d0|                              00 00 00 00 1c ac|          ......|      [10]: "1985-03-30T20:00:12Z" (481060812) transition_time 0x2da-0x2e2 (8)
0x2e0|67 cc                                          |g.              |
0x2e0|      00 00 00 00 1d 9c 58 cd                  |  ......X.      |      [11]: "1985-09-28T20:00:13Z" (496785613) transition_time 0x2e2-0x2ea (8)
0x2e0|                              00 00 00 00 1e 8c|          ......|      [12]: "1986-03-29T20:00:13Z" (512510413) transition_time 0x2ea-0x2f2 (8)
0x2f0|49 cd                                          |I.              |
0x2f0|      00 00 00 00 1f 7c 3a cd                  |  .....|:.      |      [13]: "1986-09-27T20:00:13Z" (528235213) transition_time 0x2f2-0x2fa (8)
0x2f0|                              00 00 00 00 20 6c|          .... l|      [14]: "1987-03-28T20:00:13Z" (543960013) transition_time 0x2fa-0x302 (8)
0x300|2b cd                                          |+.              |
0x300|      00 00 00 00 21 5c 1c cd                  |  ....!\..      |      [15]: "1987-09-26T20:00:13Z" (559684813) transition_time 0x302-0x30a (8)
0x300|                              00 00 00 00 22 4c|          ...."L|      [16]: "1988-03-26T20:00:14Z" (575409614) transition_time 0x30a-0x312 (8)
0x310|0d ce                                          |..              |
0x310|      00 00 00 00 23 3b fe ce                  |  ....#;..      |      [17]: "1988-09-24T20:00:14Z" (591134414) transition_time 0x312-0x31a (8)
0x310|                              00 00 00 00 24 2b|          ....$+|      [18]: "1989-03-25T20:00:14Z" (606859214) transition_time 0x31a-0x322 (8)
0x320|ef ce                                          |..              |
0x320|      00 00 00 00 25 1b e0 ce                  |  ....%...      |      [19]: "1989-09-23T20:00:14Z" (622584014) transition_time 0x322-0x32a (8)
0x320|                              00 00 00 00 26 0b|          ....&.|      [20]: "1990-03-24T20:00:15Z" (638308815) transition_time 0x32a-0x332 (8)
0x330|d1 cf                                          |..              |
0x330|      00 00 00 00 27 04 fd 4f                  |  ....'..O      |      [21]: "1990-09-29T20:00:15Z" (654638415) transition_time 0x332-0x33a (8)
0x330|                              00 00 00 00 27 f4|          ....'.|      [22]: "1991-03-30T20:00:16Z" (670363216) transition_time 0x33a-0x342 (8)
0x340|ee 50                                          |.P              |
0x340|      00 00 00 00 28 e4 ed 60                  |  ....(..`      |      [23]: "1991-09-28T21:00:16Z" (686091616) transition_time 0x342-0x34a (8)
0x340|                              00 00 00 00 29 78|          ....)x|      [24]: "1992-01-18T21:00:16Z" (695768416) transition_time 0x34a-0x352 (8)
0x350|95 60                                          |.`              |
0x350|      00 00 00 00 29 d4 d0 50                  |  ....)..P      |      [25]: "1992-03-28T20:00:16Z" (701812816) transition_time 0x352-0x35a (8)
0x350|                              00 00 00 00 2a c4|          ....*.|      [26]: "1992-09-26T20:00:17Z" (717537617) transition_time 0x35a-0x362 (8)
0x360|c1 51                                          |.Q              |
0x360|      00 00 00 00 2b b4 b2 51                  |  ....+..Q      |      [27]: "1993-03-27T20:00:17Z" (733262417) transition_time 0x362-0x36a (8)
0x360|                              00 00 00 00 2c a4|          ....,.|      [28]: "1993-09-25T20:00:18Z" (748987218) transition_time 0x36a-0x372 (8)
0x370|a3 52                                          |.R              |
0x370|      00 00 00 00 2d 94 94 52                  |  ....-..R      |      [29]: "1994-03-26T20:00:18Z" (764712018) transition_time 0x372-0x37a (8)
0x370|                              00 00 00 00 2e 84|          ......|      [30]: "1994-09-24T20:00:19Z" (780436819) transition_time 0x37a-0x382 (8)
0x380|85 53                                          |.S              |
0x380|      00 00 00 00 2f 74 76 53                  |  ..../tvS      |      [31]: "1995-03-25T20:00:19Z" (796161619) transition_time 0x382-0x38a (8)
0x380|                              00 00 00 00 30 64|          ....0d|      [32]: "1995-09-23T20:00:19Z" (811886419) transition_time 0x38a-0x392 (8)
0x390|67 53                                          |gS              |
0x390|      00 00 00 00 31 5d 92 d4                  |  ....1]..      |      [33]: "1996-03-30T20:00:20Z" (828216020) transition_time 0x392-0x39a (8)
0x390|                              00 00 00 00 32 72|          ....2r|      [34]: "1996-10-26T20:00:20Z" (846360020) transition_time 0x39a-0x3a2 (8)
0x3a0|6d d4                                          |m.              |
0x3a0|      00 00 00 00 33 3d 74 d4                  |  ....3=t.      |      [35]: "1997-03-29T20:00:20Z" (859665620) transition_time 0x3a2-0x3aa (8)
0x3a0|                              00 00 00 00 34 52|          ....4R|      [36]: "1997-10-25T20:00:21Z" (877809621) transition_time 0x3aa-0x3b2 (8)
0x3b0|4f d5                                          |O.              |
0x3b0|      00 00 00 00 35 1d 56 d5                  |  ....5.V.      |      [37]: "1998-03-28T20:00:21Z" (891115221) transition_time 0x3b2-0x3ba (8)
0x3b0|                              00 00 00 00 36 32|          ....62|      [38]: "1998-10-24T20:00:21Z" (909259221) transition_time 0x3ba-0x3c2 (8)
0x3c0|31 d5                                          |1.              |
0x3c0|      00 00 00 00 36 fd 38 d6                  |  ....6.8.      |      [39]: "1999-03-27T20:00:22Z" (922564822) transition_time 0x3c2-0x3ca (8)
0x3c0|                              00 00 00 00 38 1b|          ....8.|      [40]: "1999-10-30T20:00:22Z" (941313622) transition_time 0x3ca-0x3d2 (8)
0x3d0|4e 56                                          |NV              |
0x3d0|      00 00 00 00 38 dd 1a d6                  |  ....8...      |      [41]: "2000-03-25T20:00:22Z" (954014422) transition_time 0x3d2-0x3da (8)
0x3d0|                              00 00 00 00 39 fb|          ....9.|      [42]: "2000-10-28T20:00:22Z" (972763222) transition_time 0x3da-0x3e2 (8)
0x3e0|30 56                                          |0V              |
0x3e0|      00 00 00 00 3a bc fc d6                  |  ....:...      |      [43]: "2001-03-24T20:00:22Z" (985464022) transition_time 0x3e2-0x3ea (8)
0x3e0|                              00 00 00 00 3b db|          ....;.|      [44]: "2001-10-27T20:00:22Z" (1004212822) transition_time 0x3ea-0x3f2 (8)
0x3f0|12 56                                          |.V              |
0x3f0|      00 00 00 00 3c a6 19 56                  |  ....<..V      |      [45]: "2002-03-30T20:00:22Z" (1017518422) transition_time 0x3f2-0x3fa (8)
0x3f0|                              00 00 00 00 3d ba|          ....=.|      [46]: "2002-10-26T20:00:22Z" (1035662422) transition_time 0x3fa-0x402 (8)
0x400|f4 56                                          |.V              |
0x400|      00 00 00 00 3e 85 fb 56                  |  ....>..V      |      [47]: "2003-03-29T20:00:22Z" (1048968022) transition_time 0x402-0x40a (8)
0x400|                              00 00 00 00 3f 9a|          ....?.|      [48]: "2003-10-25T20:00:22Z" (1067112022) transition_time 0x40a-0x412 (8)
0x410|d6 56                                          |.V              |
0x410|      00 00 00 00 40 65 dd 56                  |  ....@e.V      |      [49]: "2004-03-27T20:00:22Z" (1080417622) transition_time 0x412-0x41a (8)
0x410|                              00 00 00 00 41 83|          ....A.|      [50]: "2004-10-30T20:00:22Z" (1099166422) transition_time 0x41a-0x422 (8)
0x420|f2 d6                                          |..              |
0x420|      00 00 00 00 64 9b 78 1b                  |  ....d.x.      |      [51]: "2023-06-28T00:00:27Z" (1687910427) transition_time 0x422-0x42a (8)
     |                                               |                |    transition_types[0:52]: 0x42a-0x45e (52)
0x420|                              01               |          .     |      [0]: 1 transition_type 0x42a-0x42b (1)
0x420|                                 03            |           .    |      [1]: 3 transition_type 0x42b-0x42c (1)
0x420|                                    02         |            .   |      [2]: 2 transition_type 0x42c-0x42d (1)
0x420|                                       03      |             .  |      [3]: 3 transition_type 0x42d-0x42e (1)
0x420|                                          02   |              . |      [4]: 2 transition_type 0x42e-0x42f (1)
0x420|                                             03|               .|      [5]: 3 transition_type 0x42f-0x430 (1)
0x430|02                                             |.               |      [6]: 2 transition_type 0x430-0x431 (1)
0x430|   03                                          | .              |      [7]: 3 transition_type 0x431-0x432 (1)
0x430|      02                                       |  .             |      [8]: 2 transition_type 0x432-0x433 (1)
0x430|         04                                    |   .            |      [9]: 4 transition_type 0x433-0x434 (1)
0x430|            05                                 |    .           |      [10]: 5 transition_type 0x434-0x435 (1)
0x430|               04                              |     .          |      [11]: 4 transition_type 0x435-0x436 (1)
0x430|                  05                           |      .         |      [12]: 5 transition_type 0x436-0x437 (1)
0x430|                     04                        |       .        |      [13]: 4 transition_type 0x437-0x438 (1)
0x430|                        05                     |        .       |      [14]: 5 transition_type 0x438-0x439 (1)
0x430|                           04                  |         .      |      [15]: 4 transition_type 0x439-0x43a (1)
0x430|                              05               |          .     |      [16]: 5 transition_type 0x43a-0x43b (1)
0x430|                                 04            |           .    |      [17]: 4 transition_type 0x43b-0x43c (1)
0x430|                                    05         |            .   |      [18]: 5 transition_type 0x43c-0x43d (1)
0x430|                                       04      |             .  |      [19]: 4 transition_type 0x43d-0x43e (1)
0x430|                                          05   |              . |      [20]: 5 transition_type 0x43e-0x43f (1)
0x430|                                             04|               .|      [21]: 4 transition_type 0x43f-0x440 (1)
0x440|06                                             |.               |      [22]: 6 transition_type 0x440-0x441 (1)
0x440|   07                                          | .              |      [23]: 7 transition_type 0x441-0x442 (1)
0x440|      04                                       |  .             |      [24]: 4 transition_type 0x442-0x443 (1)
0x440|         05                                    |   .            |      [25]: 5 transition_type 0x443-0x444 (1)
0x440|            04                                 |    .           |      [26]: 4 transition_type 0x444-0x445 (1)
0x440|               05                              |     .          |      [27]: 5 transition_type 0x445-0x446 (1)
0x440|                  04                           |      .         |      [28]: 4 transition_type 0x446-0x447 (1)
0x440|                     05                        |       .        |      [29]: 5 transition_type 0x447-0x448 (1)
0x440|                        04                     |        .       |      [30]: 4 transition_type 0x448-0x449 (1)
0x440|                           05                  |         .      |      [31]: 5 transition_type 0x449-0x44a (1)
0x440|                              04               |          .     |      [32]: 4 transition_type 0x44a-0x44b (1)
0x440|                                 05            |           .    |      [33]: 5 transition_type 0x44b-0x44c (1)
0x440|                                    04         |            .   |      [34]: 4 transition_type 0x44c-0x44d (1)
0x440|                                       05      |             .  |      [35]: 5 transition_type 0x44d-0x44e (1)
0x440|                                          04   |              . |      [36]: 4 transition_type 0x44e-0x44f (1)
0x440|                                             05|               .|      [37]: 5 transition_type 0x44f-0x450 (1)
0x450|04                                             |.               |      [38]: 4 transition_type 0x450-0x451 (1)
0x450|   05                                          | .              |      [39]: 5 transition_type 0x451-0x452 (1)
0x450|      04                                       |  .             |      [40]: 4 transition_type 0x452-0x453 (1)
0x450|         05                                    |   .            |      [41]: 5 transition_type 0x453-0x454 (1)
0x450|            04                                 |    .           |      [42]: 4 transition_type 0x454-0x455 (1)
0x450|               05                              |     .          |      [43]: 5 transition_type 0x455-0x456 (1)
0x450|                  04                           |      .         |      [44]: 4 transition_type 0x456-0x457 (1)
0x450|                     05                        |       .        |      [45]: 5 transition_type 0x457-0x458 (1)
0x450|                        04                     |        .       |      [46]: 4 transition_type 0x458-0x459 (1)
0x450|                           05                  |         .      |      [47]: 5 transition_type 0x459-0x45a (1)
0x450|                              04               |          .     |      [48]: 4 transition_type 0x45a-0x45b (1)
0x450|                                 05            |           .    |      [49]: 5 transition_type 0x45b-0x45c (1)
0x450|                                    04         |            .   |      [50]: 4 transition_type 0x45c-0x45d (1)
0x450|                                       04      |             .  |      [51]: 4 transition_type 0x45d-0x45e (1)
     |                                               |                |    local_time_type_records[0:10]: 0x45e-0x49a (60)
     |                                               |                |      [0]{}: local_time_type 0x45e-0x464 (6)
0x450|                                          00 00|              ..|        utoff: 18468 (valid) 0x45e-0x462 (4)
0x460|48 24                                          |H$              |
0x460|      00                                       |  .             |        dst: 0 (valid) 0x462-0x463 (1)
0x460|         00                                    |   .            |        idx: 0 (valid) 0x463-0x464 (1)
     |                                               |                |      [1]{}: local_time_type 0x464-0x46a (6)
0x460|            00 00 46 50                        |    ..FP        |        utoff: 18000 (valid) 0x464-0x468 (4)
0x460|                        00                     |        .       |        dst: 0 (valid) 0x468-0x469 (1)
0x460|                           04                  |         .      |        idx: 4 (valid) 0x469-0x46a (1)
     |                                               |                |      [2]{}: local_time_type 0x46a-0x470 (6)
0x460|                              00 00 62 70      |          ..bp  |        utoff: 25200 (valid) 0x46a-0x46e (4)
0x460|                                          01   |              . |        dst: 1 (valid) 0x46e-0x46f (1)
0x460|                                             08|               .|        idx: 8 (valid) 0x46f-0x470 (1)
     |                                               |                |      [3]{}: local_time_type 0x470-0x476 (6)
0x470|00 00 54 60                                    |..T`            |        utoff: 21600 (valid) 0x470-0x474 (4)
0x470|            00                                 |    .           |        dst: 0 (valid) 0x474-0x475 (1)
0x470|               0c                              |     .          |        idx: 12 (valid) 0x475-0x476 (1)
     |                                               |                |      [4]{}: local_time_type 0x476-0x47c (6)
0x470|                  00 00 54 60                  |      ..T`      |        utoff: 21600 (valid) 0x476-0x47a (4)
0x470|                              00               |          .     |        dst: 0 (valid) 0x47a-0x47b (1)
0x470|                                 0c            |           .    |        idx: 12 (valid) 0x47b-0x47c (1)
     |                                               |                |      [5]{}: local_time_type 0x47c-0x482 (6)
0x470|                                    00 00 62 70|            ..bp|        utoff: 25200 (valid) 0x47c-0x480 (4)
0x480|01                                             |.               |        dst: 1 (valid) 0x480-0x481 (1)
0x480|   08                                          | .              |        idx: 8 (valid) 0x481-0x482 (1)
     |                                               |                |      [6]{}: local_time_type 0x482-0x488 (6)
0x480|      00 00 54 60                              |  ..T`          |        utoff: 21600 (valid) 0x482-0x486 (4)
0x480|                  01                           |      .         |        dst: 1 (valid) 0x486-0x487 (1)
0x480|                     0c                        |       .        |        idx: 12 (valid) 0x487-0x488 (1)
     |                                               |                |      [7]{}: local_time_type 0x488-0x48e (6)
0x480|                        00 00 46 50            |        ..FP    |        utoff: 18000 (valid) 0x488-0x48c (4)
0x480|                                    00         |            .   |        dst: 0 (valid) 0x48c-0x48d (1)
0x480|                                       04      |             .  |        idx: 4 (valid) 0x48d-0x48e (1)
     |                                               |                |      [8]{}: local_time_type 0x48e-0x494 (6)
0x480|                                          00 00|              ..|        utoff: 25200 (valid) 0x48e-0x492 (4)
0x490|62 70                                          |bp              |
0x490|      01                                       |  .             |        dst: 1 (valid) 0x492-0x493 (1)
0x490|         08                                    |   .            |        idx: 8 (valid) 0x493-0x494 (1)
     |                                               |                |      [9]{}: local_time_type 0x494-0x49a (6)
0x490|            00 00 54 60                        |    ..T`        |        utoff: 21600 (valid) 0x494-0x498 (4)
0x490|                        00                     |        .       |        dst: 0 (valid) 0x498-0x499 (1)
0x490|                           0c                  |         .      |        idx: 12 (valid) 0x499-0x49a (1)
     |                                               |                |    time_zone_designations[0:4]: 0x49a-0x4aa (16)
0x490|                              4c 4d 54 00      |          LMT.  |      [0]: "LMT" time_zone_designation 0x49a-0x49e (4)
0x490|                                          2b 30|              +0|      [1]: "+05" time_zone_designation 0x49e-0x4a2 (4)
0x4a0|35 00                                          |5.              |
0x4a0|      2b 30 37 00                              |  +07.          |      [2]: "+07" time_zone_designation 0x4a2-0x4a6 (4)
0x4a0|                  2b 30 36 00                  |      +06.      |      [3]: "+06" time_zone_designation 0x4a6-0x4aa (4)
     |                                               |                |    leap_second_records[0:27]: 0x4aa-0x5ee (324)
     |                                               |                |      [0]{}: leap_second_record 0x4aa-0x4b6 (12)
0x4a0|                              00 00 00 00 04 b2|          ......|        occur: "1972-07-01T00:00:00Z" (78796800) 0x4aa-0x4b2 (8)
0x4b0|58 00                                          |X.              |
0x4b0|      00 00 00 01                              |  ....          |        corr: 1 0x4b2-0x4b6 (4)
     |                                               |                |      [1]{}: leap_second_record 0x4b6-0x4c2 (12)
0x4b0|                  00 00 00 00 05 a4 ec 01      |      ........  |        occur: "1973-01-01T00:00:01Z" (94694401) 0x4b6-0x4be (8)
0x4b0|                                          00 00|              ..|        corr: 2 0x4be-0x4c2 (4)
0x4c0|00 02                                          |..              |
     |                                               |                |      [2]{}: leap_second_record 0x4c2-0x4ce (12)
0x4c0|      00 00 00 00 07 86 1f 82                  |  ........      |        occur: "1974-01-01T00:00:02Z" (126230402) 0x4c2-0x4ca (8)
0x4c0|                              00 00 00 03      |          ....  |        corr: 3 0x4ca-0x4ce (4)
     |                                               |                |      [3]{}: leap_second_record 0x4ce-0x4da (12)
0x4c0|                                          00 00|              ..|        occur: "1975-01-01T00:00:03Z" (157766403) 0x4ce-0x4d6 (8)
0x4d0|00 00 09 67 53 03                              |...gS.          |
0x4d0|                  00 00 00 04                  |      ....      |        corr: 4 0x4d6-0x4da (4)
     |                                               |                |      [4]{}: leap_second_record 0x4da-0x4e6 (12)
0x4d0|                              00 00 00 00 0b 48|          .....H|        occur: "1976-01-01T00:00:04Z" (189302404) 0x4da-0x4e2 (8)
0x4e0|86 84                                          |..              |
0x4e0|      00 00 00 05                              |  ....          |        corr: 5 0x4e2-0x4e6 (4)
     |                                               |                |      [5]{}: leap_second_record 0x4e6-0x4f2 (12)
0x4e0|                  00 00 00 00 0d 2b 0b 85      |      .....+..  |        occur: "1977-01-01T00:00:05Z" (220924805) 0x4e6-0x4ee (8)
0x4e0|                                          00 00|              ..|        corr: 6 0x4ee-0x4f2 (4)
0x4f0|00 06                                          |..              |
     |                                               |                |      [6]{}: leap_second_record 0x4f2-0x4fe (12)
0x4f0|      00 00 00 00 0f 0c 3f 06                  |  ......?.      |        occur: "1978-01-01T00:00:06Z" (252460806) 0x4f2-0x4fa (8)
0x4f0|                              00 00 00 07      |          ....  |        corr: 7 0x4fa-0x4fe (4)
     |                                               |                |      [7]{}: leap_second_record 0x4fe-0x50a (12)
0x4f0|                                          00 00|              ..|        occur: "1979-01-01T00:00:07Z" (283996807) 0x4fe-0x506 (8)
0x500|00 00 10 ed 72 87                              |....r.          |
0x500|                  00 00 00 08                  |      ....      |        corr: 8 0x506-0x50a (4)
     |                                               |                |      [8]{}: leap_second_record 0x50a-0x516 (12)
0x500|                              00 00 00 00 12 ce|          ......|        occur: "1980-01-01T00:00:08Z" (315532808) 0x50a-0x512 (8)
0x510|a6 08                                          |..              |
0x510|      00 00 00 09                              |  ....          |        corr: 9 0x512-0x516 (4)
     |                                               |                |      [9]{}: leap_second_record 0x516-0x522 (12)
0x510|                  00 00 00 00 15 9f ca 89      |      ........  |        occur: "1981-07-01T00:00:09Z" (362793609) 0x516-0x51e (8)
0x510|                                          00 00|              ..|        corr: 10 0x51e-0x522 (4)
0x520|00 0a                                          |..              |
     |                                               |                |      [10]{}: leap_second_record 0x522-0x52e (12)
0x520|      00 00 00 00 17 80 fe 0a                  |  ........      |        occur: "1982-07-01T00:00:10Z" (394329610) 0x522-0x52a (8)
0x520|                              00 00 00 0b      |          ....  |        corr: 11 0x52a-0x52e (4)
     |                                               |                |      [11]{}: leap_second_record 0x52e-0x53a (12)
0x520|                                          00 00|              ..|        occur: "1983-07-01T00:00:11Z" (425865611) 0x52e-0x536 (8)
0x530|00 00 19 62 31 8b                              |...b1.          |
0x530|                  00 00 00 0c                  |      ....      |        corr: 12 0x536-0x53a (4)
     |                                               |                |      [12]{}: leap_second_record 0x53a-0x546 (12)
0x530|                              00 00 00 00 1d 25|          .....%|        occur: "1985-07-01T00:00:12Z" (489024012) 0x53a-0x542 (8)
0x540|ea 0c                                          |..              |
0x540|      00 00 00 0d                              |  ....          |        corr: 13 0x542-0x546 (4)
     |                                               |                |      [13]{}: leap_second_record 0x546-0x552 (12)
0x540|                  00 00 00 00 21 da e5 0d      |      ....!...  |        occur: "1988-01-01T00:00:13Z" (567993613) 0x546-0x54e (8)
0x540|                                          00 00|              ..|        corr: 14 0x54e-0x552 (4)
0x550|00 0e                                          |..              |
     |                                               |                |      [14]{}: leap_second_record 0x552-0x55e (12)
0x550|      00 00 00 00 25 9e 9d 8e                  |  ....%...      |        occur: "1990-01-01T00:00:14Z" (631152014) 0x552-0x55a (8)
0x550|                              00 00 00 0f      |          ....  |        corr: 15 0x55a-0x55e (4)
     |                                               |                |      [15]{}: leap_second_record 0x55e-0x56a (12)
0x550|                                          00 00|              ..|        occur: "1991-01-01T00:00:15Z" (662688015) 0x55e-0x566 (8)
0x560|00 00 27 7f d1 0f                              |..'...          |
0x560|                  00 00 00 10                  |      ....      |        corr: 16 0x566-0x56a (4)
     |                                               |                |      [16]{}: leap_second_record 0x56a-0x576 (12)
0x560|                              00 00 00 00 2a 50|          ....*P|        occur: "1992-07-01T00:00:16Z" (709948816) 0x56a-0x572 (8)
0x570|f5 90                                          |..              |
0x570|      00 00 00 11                              |  ....          |        corr: 17 0x572-0x576 (4)
     |                                               |                |      [17]{}: leap_second_record 0x576-0x582 (12)
0x570|                  00 00 00 00 2c 32 29 11      |      ....,2).  |        occur: "1993-07-01T00:00:17Z" (741484817) 0x576-0x57e (8)
0x570|                                          00 00|              ..|        corr: 18 0x57e-0x582 (4)
0x580|00 12                                          |..              |
     |                                               |                |      [18]{}: leap_second_record 0x582-0x58e (12)
0x580|      00 00 00 00 2e 13 5c 92                  |  ......\.      |        occur: "1994-07-01T00:00:18Z" (773020818) 0x582-0x58a (8)
0x580|                              00 00 00 13      |          ....  |        corr: 19 0x58a-0x58e (4)
     |                                               |                |      [19]{}: leap_second_record 0x58e-0x59a (12)
0x580|                                          00 00|              ..|        occur: "1996-01-01T00:00:19Z" (820454419) 0x58e-0x596 (8)
0x590|00 00 30 e7 24 13                              |..0.$.          |
0x590|                  00 00 00 14                  |      ....      |        corr: 20 0x596-0x59a (4)
     |                                               |                |      [20]{}: leap_second_record 0x59a-0x5a6 (12)
0x590|                              00 00 00 00 33 b8|          ....3.|        occur: "1997-07-01T00:00:20Z" (867715220) 0x59a-0x5a2 (8)
0x5a0|48 94                                          |H.              |
0x5a0|      00 00 00 15                              |  ....          |        corr: 21 0x5a2-0x5a6 (4)
     |                                               |                |      [21]{}: leap_second_record 0x5a6-0x5b2 (12)
0x5a0|                  00 00 00 00 36 8c 10 15      |      ....6...  |        occur: "1999-01-01T00:00:21Z" (915148821) 0x5a6-0x5ae (8)
0x5a0|                                          00 00|              ..|        corr: 22 0x5ae-0x5b2 (4)
0x5b0|00 16                                          |..              |
     |                                               |                |      [22]{}: leap_second_record 0x5b2-0x5be (12)
0x5b0|      00 00 00 00 43 b7 1b 96                  |  ....C...      |        occur: "2006-01-01T00:00:22Z" (1136073622) 0x5b2-0x5ba (8)
0x5b0|                              00 00 00 17      |          ....  |        corr: 23 0x5ba-0x5be (4)
     |                                               |                |      [23]{}: leap_second_record 0x5be-0x5ca (12)
0x5b0|                                          00 00|              ..|        occur: "2009-01-01T00:00:23Z" (1230768023) 0x5be-0x5c6 (8)
0x5c0|00 00 49 5c 07 97                              |..I\..          |
0x5c0|                  00 00 00 18                  |      ....      |        corr: 24 0x5c6-0x5ca (4)
     |                                               |                |      [24]{}: leap_second_record 0x5ca-0x5d6 (12)
0x5c0|                              00 00 00 00 4f ef|          ....O.|        occur: "2012-07-01T00:00:24Z" (1341100824) 0x5ca-0x5d2 (8)
0x5d0|93 18                                          |..              |
0x5d0|      00 00 00 19                              |  ....          |        corr: 25 0x5d2-0x5d6 (4)
     |                                               |                |      [25]{}: leap_second_record 0x5d6-0x5e2 (12)
0x5d0|                  00 00 00 00 55 93 2d 99      |      ....U.-.  |        occur: "2015-07-01T00:00:25Z" (1435708825) 0x5d6-0x5de (8)
0x5d0|                                          00 00|              ..|        corr: 26 0x5de-0x5e2 (4)
0x5e0|00 1a                                          |..              |
     |                                               |                |      [26]{}: leap_second_record 0x5e2-0x5ee (12)
0x5e0|      00 00 00 00 58 68 46 9a                  |  ....XhF.      |        occur: "2017-01-01T00:00:26Z" (1483228826) 0x5e2-0x5ea (8)
0x5e0|                              00 00 00 1b      |          ....  |        corr: 27 0x5ea-0x5ee (4)
     |                                               |                |    standard_wall_indicators[0:10]: 0x5ee-0x5f8 (10)
0x5e0|                                          00   |              . |      [0]: 0 standard_wall_indicator (valid) 0x5ee-0x5ef (1)
0x5e0|                                             00|               .|      [1]: 0 standard_wall_indicator (valid) 0x5ef-0x5f0 (1)
0x5f0|00                                             |.               |      [2]: 0 standard_wall_indicator (valid) 0x5f0-0x5f1 (1)
0x5f0|   00                                          | .              |      [3]: 0 standard_wall_indicator (valid) 0x5f1-0x5f2 (1)
0x5f0|      01                                       |  .             |      [4]: 1 standard_wall_indicator (valid) 0x5f2-0x5f3 (1)
0x5f0|         01                                    |   .            |      [5]: 1 standard_wall_indicator (valid) 0x5f3-0x5f4 (1)
0x5f0|            01                                 |    .           |      [6]: 1 standard_wall_indicator (valid) 0x5f4-0x5f5 (1)
0x5f0|               01                              |     .          |      [7]: 1 standard_wall_indicator (valid) 0x5f5-0x5f6 (1)
0x5f0|                  01                           |      .         |      [8]: 1 standard_wall_indicator (valid) 0x5f6-0x5f7 (1)
0x5f0|                     01                        |       .        |      [9]: 1 standard_wall_indicator (valid) 0x5f7-0x5f8 (1)
     |                                               |                |    ut_local_indicators[0:0]: 0x5f8-0x5f8 (0)
     |                                               |                |  footer{}: 0x5f8-0x5fa (2)
0x5f0|                        0a                     |        .       |    nl1: 10 (valid) 0x5f8-0x5f9 (1)
     |                                               |                |    tz_string: "" 0x5f9-0x5f9 (0)
0x5f0|                           0a|                 |         .|     |    nl2: 10 (valid) 0x5f9-0x5fa (1)
