$ fq -d tzif dv Almaty
     |00 01 02 03 04 05 06 07 08 09 0a 0b 0c 0d 0e 0f|0123456789abcdef|.{}: Almaty (tzif) 0x0-0x5f9.7 (1530)
     |                                               |                |  v1header{}: 0x0-0x2b.7 (44)
0x000|54 5a 69 66                                    |TZif            |    magic: 0x545a6966 (valid) 0x0-0x3.7 (4)
0x000|            32                                 |    2           |    ver: "2" (0x32) (valid) 0x4-0x4.7 (1)
0x000|               00 00 00 00 00 00 00 00 00 00 00|     ...........|    reserved: raw bits 0x5-0x13.7 (15)
0x010|00 00 00 00                                    |....            |
0x010|            00 00 00 00                        |    ....        |    isutcnt: 0 0x14-0x17.7 (4)
0x010|                        00 00 00 0a            |        ....    |    isstdcnt: 10 0x18-0x1b.7 (4)
0x010|                                    00 00 00 1b|            ....|    leapcnt: 27 0x1c-0x1f.7 (4)
0x020|00 00 00 34                                    |...4            |    timecnt: 52 0x20-0x23.7 (4)
0x020|            00 00 00 0a                        |    ....        |    typecnt: 10 0x24-0x27.7 (4)
0x020|                        00 00 00 10            |        ....    |    charcnt: 16 0x28-0x2b.7 (4)
     |                                               |                |  v1datablock{}: 0x2c-0x25d.7 (562)
     |                                               |                |    transition_times[0:52]: 0x2c-0xfb.7 (208)
0x020|                                    aa 19 7b dc|            ..{.|      [0]: "1924-05-01T18:52:12Z" (-1441170468) transition_time 0x2c-0x2f.7 (4)
0x030|b5 a3 ef 30                                    |...0            |      [1]: "1930-06-20T19:00:00Z" (-1247547600) transition_time 0x30-0x33.7 (4)
0x030|            15 27 7d a9                        |    .'}.        |      [2]: "1981-03-31T18:00:09Z" (354909609) transition_time 0x34-0x37.7 (4)
0x030|                        16 18 b2 1a            |        ....    |      [3]: "1981-09-30T17:00:10Z" (370717210) transition_time 0x38-0x3b.7 (4)
0x030|                                    17 08 b1 2a|            ...*|      [4]: "1982-03-31T18:00:10Z" (386445610) transition_time 0x3c-0x3f.7 (4)
0x040|17 f9 e5 9b                                    |....            |      [5]: "1982-09-30T17:00:11Z" (402253211) transition_time 0x40-0x43.7 (4)
0x040|            18 e9 e4 ab                        |    ....        |      [6]: "1983-03-31T18:00:11Z" (417981611) transition_time 0x44-0x47.7 (4)
0x040|                        19 db 19 1c            |        ....    |      [7]: "1983-09-30T17:00:12Z" (433789212) transition_time 0x48-0x4b.7 (4)
0x040|                                    1a cc 69 ac|            ..i.|      [8]: "1984-03-31T18:00:12Z" (449604012) transition_time 0x4c-0x4f.7 (4)
0x050|1b bc 76 cc                                    |..v.            |      [9]: "1984-09-29T20:00:12Z" (465336012) transition_time 0x50-0x53.7 (4)
0x050|            1c ac 67 cc                        |    ..g.        |      [10]: "1985-03-30T20:00:12Z" (481060812) transition_time 0x54-0x57.7 (4)
0x050|                        1d 9c 58 cd            |        ..X.    |      [11]: "1985-09-28T20:00:13Z" (496785613) transition_time 0x58-0x5b.7 (4)
0x050|                                    1e 8c 49 cd|            ..I.|      [12]: "1986-03-29T20:00:13Z" (512510413) transition_time 0x5c-0x5f.7 (4)
0x060|1f 7c 3a cd                                    |.|:.            |      [13]: "1986-09-27T20:00:13Z" (528235213) transition_time 0x60-0x63.7 (4)
0x060|            20 6c 2b cd                        |     l+.        |      [14]: "1987-03-28T20:00:13Z" (543960013) transition_time 0x64-0x67.7 (4)
0x060|                        21 5c 1c cd            |        !\..    |      [15]: "1987-09-26T20:00:13Z" (559684813) transition_time 0x68-0x6b.7 (4)
0x060|                                    22 4c 0d ce|            "L..|      [16]: "1988-03-26T20:00:14Z" (575409614) transition_time 0x6c-0x6f.7 (4)
0x070|23 3b fe ce                                    |#;..            |      [17]: "1988-09-24T20:00:14Z" (591134414) transition_time 0x70-0x73.7 (4)
0x070|            24 2b ef ce                        |    $+..        |      [18]: "1989-03-25T20:00:14Z" (606859214) transition_time 0x74-0x77.7 (4)
0x070|                        25 1b e0 ce            |        %...    |      [19]: "1989-09-23T20:00:14Z" (622584014) transition_time 0x78-0x7b.7 (4)
0x070|                                    26 0b d1 cf|            &...|      [20]: "1990-03-24T20:00:15Z" (638308815) transition_time 0x7c-0x7f.7 (4)
0x080|27 04 fd 4f                                    |'..O            |      [21]: "1990-09-29T20:00:15Z" (654638415) transition_time 0x80-0x83.7 (4)
0x080|            27 f4 ee 50                        |    '..P        |      [22]: "1991-03-30T20:00:16Z" (670363216) transition_time 0x84-0x87.7 (4)
0x080|                        28 e4 ed 60            |        (..`    |      [23]: "1991-09-28T21:00:16Z" (686091616) transition_time 0x88-0x8b.7 (4)
0x080|                                    29 78 95 60|            )x.`|      [24]: "1992-01-18T21:00:16Z" (695768416) transition_time 0x8c-0x8f.7 (4)
0x090|29 d4 d0 50                                    |)..P            |      [25]: "1992-03-28T20:00:16Z" (701812816) transition_time 0x90-0x93.7 (4)
0x090|            2a c4 c1 51                        |    *..Q        |      [26]: "1992-09-26T20:00:17Z" (717537617) transition_time 0x94-0x97.7 (4)
0x090|                        2b b4 b2 51            |        +..Q    |      [27]: "1993-03-27T20:00:17Z" (733262417) transition_time 0x98-0x9b.7 (4)
0x090|                                    2c a4 a3 52|            ,..R|      [28]: "1993-09-25T20:00:18Z" (748987218) transition_time 0x9c-0x9f.7 (4)
0x0a0|2d 94 94 52                                    |-..R            |      [29]: "1994-03-26T20:00:18Z" (764712018) transition_time 0xa0-0xa3.7 (4)
0x0a0|            2e 84 85 53                        |    ...S        |      [30]: "1994-09-24T20:00:19Z" (780436819) transition_time 0xa4-0xa7.7 (4)
0x0a0|                        2f 74 76 53            |        /tvS    |      [31]: "1995-03-25T20:00:19Z" (796161619) transition_time 0xa8-0xab.7 (4)
0x0a0|                                    30 64 67 53|            0dgS|      [32]: "1995-09-23T20:00:19Z" (811886419) transition_time 0xac-0xaf.7 (4)
0x0b0|31 5d 92 d4                                    |1]..            |      [33]: "1996-03-30T20:00:20Z" (828216020) transition_time 0xb0-0xb3.7 (4)
0x0b0|            32 72 6d d4                        |    2rm.        |      [34]: "1996-10-26T20:00:20Z" (846360020) transition_time 0xb4-0xb7.7 (4)
0x0b0|                        33 3d 74 d4            |        3=t.    |      [35]: "1997-03-29T20:00:20Z" (859665620) transition_time 0xb8-0xbb.7 (4)
0x0b0|                                    34 52 4f d5|            4RO.|      [36]: "1997-10-25T20:00:21Z" (877809621) transition_time 0xbc-0xbf.7 (4)
0x0c0|35 1d 56 d5                                    |5.V.            |      [37]: "1998-03-28T20:00:21Z" (891115221) transition_time 0xc0-0xc3.7 (4)
0x0c0|            36 32 31 d5                        |    621.        |      [38]: "1998-10-24T20:00:21Z" (909259221) transition_time 0xc4-0xc7.7 (4)
0x0c0|                        36 fd 38 d6            |        6.8.    |      [39]: "1999-03-27T20:00:22Z" (922564822) transition_time 0xc8-0xcb.7 (4)
0x0c0|                                    38 1b 4e 56|            8.NV|      [40]: "1999-10-30T20:00:22Z" (941313622) transition_time 0xcc-0xcf.7 (4)
0x0d0|38 dd 1a d6                                    |8...            |      [41]: "2000-03-25T20:00:22Z" (954014422) transition_time 0xd0-0xd3.7 (4)
0x0d0|            39 fb 30 56                        |    9.0V        |      [42]: "2000-10-28T20:00:22Z" (972763222) transition_time 0xd4-0xd7.7 (4)
0x0d0|                        3a bc fc d6            |        :...    |      [43]: "2001-03-24T20:00:22Z" (985464022) transition_time 0xd8-0xdb.7 (4)
0x0d0|                                    3b db 12 56|            ;..V|      [44]: "2001-10-27T20:00:22Z" (1004212822) transition_time 0xdc-0xdf.7 (4)
0x0e0|3c a6 19 56                                    |<..V            |      [45]: "2002-03-30T20:00:22Z" (1017518422) transition_time 0xe0-0xe3.7 (4)
0x0e0|            3d ba f4 56                        |    =..V        |      [46]: "2002-10-26T20:00:22Z" (1035662422) transition_time 0xe4-0xe7.7 (4)
0x0e0|                        3e 85 fb 56            |        >..V    |      [47]: "2003-03-29T20:00:22Z" (1048968022) transition_time 0xe8-0xeb.7 (4)
0x0e0|                                    3f 9a d6 56|            ?..V|      [48]: "2003-10-25T20:00:22Z" (1067112022) transition_time 0xec-0xef.7 (4)
0x0f0|40 65 dd 56                                    |@e.V            |      [49]: "2004-03-27T20:00:22Z" (1080417622) transition_time 0xf0-0xf3.7 (4)
0x0f0|            41 83 f2 d6                        |    A...        |      [50]: "2004-10-30T20:00:22Z" (1099166422) transition_time 0xf4-0xf7.7 (4)
0x0f0|                        64 9b 78 1b            |        d.x.    |      [51]: "2023-06-28T00:00:27Z" (1687910427) transition_time 0xf8-0xfb.7 (4)
     |                                               |                |    transition_types[0:52]: 0xfc-0x12f.7 (52)
0x0f0|                                    01         |            .   |      [0]: 1 transition_type 0xfc-0xfc.7 (1)
0x0f0|                                       03      |             .  |      [1]: 3 transition_type 0xfd-0xfd.7 (1)
0x0f0|                                          02   |              . |      [2]: 2 transition_type 0xfe-0xfe.7 (1)
0x0f0|                                             03|               .|      [3]: 3 transition_type 0xff-0xff.7 (1)
0x100|02                                             |.               |      [4]: 2 transition_type 0x100-0x100.7 (1)
0x100|   03                                          | .              |      [5]: 3 transition_type 0x101-0x101.7 (1)
0x100|      02                                       |  .             |      [6]: 2 transition_type 0x102-0x102.7 (1)
0x100|         03                                    |   .            |      [7]: 3 transition_type 0x103-0x103.7 (1)
0x100|            02                                 |    .           |      [8]: 2 transition_type 0x104-0x104.7 (1)
0x100|               04                              |     .          |      [9]: 4 transition_type 0x105-0x105.7 (1)
0x100|                  05                           |      .         |      [10]: 5 transition_type 0x106-0x106.7 (1)
0x100|                     04                        |       .        |      [11]: 4 transition_type 0x107-0x107.7 (1)
0x100|                        05                     |        .       |      [12]: 5 transition_type 0x108-0x108.7 (1)
0x100|                           04                  |         .      |      [13]: 4 transition_type 0x109-0x109.7 (1)
0x100|                              05               |          .     |      [14]: 5 transition_type 0x10a-0x10a.7 (1)
0x100|                                 04            |           .    |      [15]: 4 transition_type 0x10b-0x10b.7 (1)
0x100|                                    05         |            .   |      [16]: 5 transition_type 0x10c-0x10c.7 (1)
0x100|                                       04      |             .  |      [17]: 4 transition_type 0x10d-0x10d.7 (1)
0x100|                                          05   |              . |      [18]: 5 transition_type 0x10e-0x10e.7 (1)
0x100|                                             04|               .|      [19]: 4 transition_type 0x10f-0x10f.7 (1)
0x110|05                                             |.               |      [20]: 5 transition_type 0x110-0x110.7 (1)
0x110|   04                                          | .              |      [21]: 4 transition_type 0x111-0x111.7 (1)
0x110|      06                                       |  .             |      [22]: 6 transition_type 0x112-0x112.7 (1)
0x110|         07                                    |   .            |      [23]: 7 transition_type 0x113-0x113.7 (1)
0x110|            04                                 |    .           |      [24]: 4 transition_type 0x114-0x114.7 (1)
0x110|               05                              |     .          |      [25]: 5 transition_type 0x115-0x115.7 (1)
0x110|                  04                           |      .         |      [26]: 4 transition_type 0x116-0x116.7 (1)
0x110|                     05                        |       .        |      [27]: 5 transition_type 0x117-0x117.7 (1)
0x110|                        04                     |        .       |      [28]: 4 transition_type 0x118-0x118.7 (1)
0x110|                           05                  |         .      |      [29]: 5 transition_type 0x119-0x119.7 (1)
0x110|                              04               |          .     |      [30]: 4 transition_type 0x11a-0x11a.7 (1)
0x110|                                 05            |           .    |      [31]: 5 transition_type 0x11b-0x11b.7 (1)
0x110|                                    04         |            .   |      [32]: 4 transition_type 0x11c-0x11c.7 (1)
0x110|                                       05      |             .  |      [33]: 5 transition_type 0x11d-0x11d.7 (1)
0x110|                                          04   |              . |      [34]: 4 transition_type 0x11e-0x11e.7 (1)
0x110|                                             05|               .|      [35]: 5 transition_type 0x11f-0x11f.7 (1)
0x120|04                                             |.               |      [36]: 4 transition_type 0x120-0x120.7 (1)
0x120|   05                                          | .              |      [37]: 5 transition_type 0x121-0x121.7 (1)
0x120|      04                                       |  .             |      [38]: 4 transition_type 0x122-0x122.7 (1)
0x120|         05                                    |   .            |      [39]: 5 transition_type 0x123-0x123.7 (1)
0x120|            04                                 |    .           |      [40]: 4 transition_type 0x124-0x124.7 (1)
0x120|               05                              |     .          |      [41]: 5 transition_type 0x125-0x125.7 (1)
0x120|                  04                           |      .         |      [42]: 4 transition_type 0x126-0x126.7 (1)
0x120|                     05                        |       .        |      [43]: 5 transition_type 0x127-0x127.7 (1)
0x120|                        04                     |        .       |      [44]: 4 transition_type 0x128-0x128.7 (1)
0x120|                           05                  |         .      |      [45]: 5 transition_type 0x129-0x129.7 (1)
0x120|                              04               |          .     |      [46]: 4 transition_type 0x12a-0x12a.7 (1)
0x120|                                 05            |           .    |      [47]: 5 transition_type 0x12b-0x12b.7 (1)
0x120|                                    04         |            .   |      [48]: 4 transition_type 0x12c-0x12c.7 (1)
0x120|                                       05      |             .  |      [49]: 5 transition_type 0x12d-0x12d.7 (1)
0x120|                                          04   |              . |      [50]: 4 transition_type 0x12e-0x12e.7 (1)
0x120|                                             04|               .|      [51]: 4 transition_type 0x12f-0x12f.7 (1)
     |                                               |                |    local_time_type_records[0:10]: 0x130-0x16b.7 (60)
     |                                               |                |      [0]{}: local_time_type 0x130-0x135.7 (6)
0x130|00 00 48 24                                    |..H$            |        utoff: 18468 (valid) 0x130-0x133.7 (4)
0x130|            00                                 |    .           |        dst: 0 (valid) 0x134-0x134.7 (1)
0x130|               00                              |     .          |        idx: 0 (valid) 0x135-0x135.7 (1)
     |                                               |                |      [1]{}: local_time_type 0x136-0x13b.7 (6)
0x130|                  00 00 46 50                  |      ..FP      |        utoff: 18000 (valid) 0x136-0x139.7 (4)
0x130|                              00               |          .     |        dst: 0 (valid) 0x13a-0x13a.7 (1)
0x130|                                 04            |           .    |        idx: 4 (valid) 0x13b-0x13b.7 (1)
     |                                               |                |      [2]{}: local_time_type 0x13c-0x141.7 (6)
0x130|                                    00 00 62 70|            ..bp|        utoff: 25200 (valid) 0x13c-0x13f.7 (4)
0x140|01                                             |.               |        dst: 1 (valid) 0x140-0x140.7 (1)
0x140|   08                                          | .              |        idx: 8 (valid) 0x141-0x141.7 (1)
     |                                               |                |      [3]{}: local_time_type 0x142-0x147.7 (6)
0x140|      00 00 54 60                              |  ..T`          |        utoff: 21600 (valid) 0x142-0x145.7 (4)
0x140|                  00                           |      .         |        dst: 0 (valid) 0x146-0x146.7 (1)
0x140|                     0c                        |       .        |        idx: 12 (valid) 0x147-0x147.7 (1)
     |                                               |                |      [4]{}: local_time_type 0x148-0x14d.7 (6)
0x140|                        00 00 54 60            |        ..T`    |        utoff: 21600 (valid) 0x148-0x14b.7 (4)
0x140|                                    00         |            .   |        dst: 0 (valid) 0x14c-0x14c.7 (1)
0x140|                                       0c      |             .  |        idx: 12 (valid) 0x14d-0x14d.7 (1)
     |                                               |                |      [5]{}: local_time_type 0x14e-0x153.7 (6)
0x140|                                          00 00|              ..|        utoff: 25200 (valid) 0x14e-0x151.7 (4)
0x150|62 70                                          |bp              |
0x150|      01                                       |  .             |        dst: 1 (valid) 0x152-0x152.7 (1)
0x150|         08                                    |   .            |        idx: 8 (valid) 0x153-0x153.7 (1)
     |                                               |                |      [6]{}: local_time_type 0x154-0x159.7 (6)
0x150|            00 00 54 60                        |    ..T`        |        utoff: 21600 (valid) 0x154-0x157.7 (4)
0x150|                        01                     |        .       |        dst: 1 (valid) 0x158-0x158.7 (1)
0x150|                           0c                  |         .      |        idx: 12 (valid) 0x159-0x159.7 (1)
     |                                               |                |      [7]{}: local_time_type 0x15a-0x15f.7 (6)
0x150|                              00 00 46 50      |          ..FP  |        utoff: 18000 (valid) 0x15a-0x15d.7 (4)
0x150|                                          00   |              . |        dst: 0 (valid) 0x15e-0x15e.7 (1)
0x150|                                             04|               .|        idx: 4 (valid) 0x15f-0x15f.7 (1)
     |                                               |                |      [8]{}: local_time_type 0x160-0x165.7 (6)
0x160|00 00 62 70                                    |..bp            |        utoff: 25200 (valid) 0x160-0x163.7 (4)
0x160|            01                                 |    .           |        dst: 1 (valid) 0x164-0x164.7 (1)
0x160|               08                              |     .          |        idx: 8 (valid) 0x165-0x165.7 (1)
     |                                               |                |      [9]{}: local_time_type 0x166-0x16b.7 (6)
0x160|                  00 00 54 60                  |      ..T`      |        utoff: 21600 (valid) 0x166-0x169.7 (4)
0x160|                              00               |          .     |        dst: 0 (valid) 0x16a-0x16a.7 (1)
0x160|                                 0c            |           .    |        idx: 12 (valid) 0x16b-0x16b.7 (1)
     |                                               |                |    time_zone_designations[0:4]: 0x16c-0x17b.7 (16)
0x160|                                    4c 4d 54 00|            LMT.|      [0]: "LMT" time_zone_designation 0x16c-0x16f.7 (4)
0x170|2b 30 35 00                                    |+05.            |      [1]: "+05" time_zone_designation 0x170-0x173.7 (4)
0x170|            2b 30 37 00                        |    +07.        |      [2]: "+07" time_zone_designation 0x174-0x177.7 (4)
0x170|                        2b 30 36 00            |        +06.    |      [3]: "+06" time_zone_designation 0x178-0x17b.7 (4)
     |                                               |                |    leap_second_records[0:27]: 0x17c-0x253.7 (216)
     |                                               |                |      [0]{}: leap_second_record 0x17c-0x183.7 (8)
0x170|                                    04 b2 58 00|            ..X.|        occur: "1972-07-01T00:00:00Z" (78796800) 0x17c-0x17f.7 (4)
0x180|00 00 00 01                                    |....            |        corr: 1 0x180-0x183.7 (4)
     |                                               |                |      [1]{}: leap_second_record 0x184-0x18b.7 (8)
0x180|            05 a4 ec 01                        |    ....        |        occur: "1973-01-01T00:00:01Z" (94694401) 0x184-0x187.7 (4)
0x180|                        00 00 00 02            |        ....    |        corr: 2 0x188-0x18b.7 (4)
     |                                               |                |      [2]{}: leap_second_record 0x18c-0x193.7 (8)
0x180|                                    07 86 1f 82|            ....|        occur: "1974-01-01T00:00:02Z" (126230402) 0x18c-0x18f.7 (4)
0x190|00 00 00 03                                    |....            |        corr: 3 0x190-0x193.7 (4)
     |                                               |                |      [3]{}: leap_second_record 0x194-0x19b.7 (8)
0x190|            09 67 53 03                        |    .gS.        |        occur: "1975-01-01T00:00:03Z" (157766403) 0x194-0x197.7 (4)
0x190|                        00 00 00 04            |        ....    |        corr: 4 0x198-0x19b.7 (4)
     |                                               |                |      [4]{}: leap_second_record 0x19c-0x1a3.7 (8)
0x190|                                    0b 48 86 84|            .H..|        occur: "1976-01-01T00:00:04Z" (189302404) 0x19c-0x19f.7 (4)
0x1a0|00 00 00 05                                    |....            |        corr: 5 0x1a0-0x1a3.7 (4)
     |                                               |                |      [5]{}: leap_second_record 0x1a4-0x1ab.7 (8)
0x1a0|            0d 2b 0b 85                        |    .+..        |        occur: "1977-01-01T00:00:05Z" (220924805) 0x1a4-0x1a7.7 (4)
0x1a0|                        00 00 00 06            |        ....    |        corr: 6 0x1a8-0x1ab.7 (4)
     |                                               |                |      [6]{}: leap_second_record 0x1ac-0x1b3.7 (8)
0x1a0|                                    0f 0c 3f 06|            ..?.|        occur: "1978-01-01T00:00:06Z" (252460806) 0x1ac-0x1af.7 (4)
0x1b0|00 00 00 07                                    |....            |        corr: 7 0x1b0-0x1b3.7 (4)
     |                                               |                |      [7]{}: leap_second_record 0x1b4-0x1bb.7 (8)
0x1b0|            10 ed 72 87                        |    ..r.        |        occur: "1979-01-01T00:00:07Z" (283996807) 0x1b4-0x1b7.7 (4)
0x1b0|                        00 00 00 08            |        ....    |        corr: 8 0x1b8-0x1bb.7 (4)
     |                                               |                |      [8]{}: leap_second_record 0x1bc-0x1c3.7 (8)
0x1b0|                                    12 ce a6 08|            ....|        occur: "1980-01-01T00:00:08Z" (315532808) 0x1bc-0x1bf.7 (4)
0x1c0|00 00 00 09                                    |....            |        corr: 9 0x1c0-0x1c3.7 (4)
     |                                               |                |      [9]{}: leap_second_record 0x1c4-0x1cb.7 (8)
0x1c0|            15 9f ca 89                        |    ....        |        occur: "1981-07-01T00:00:09Z" (362793609) 0x1c4-0x1c7.7 (4)
0x1c0|                        00 00 00 0a            |        ....    |        corr: 10 0x1c8-0x1cb.7 (4)
     |                                               |                |      [10]{}: leap_second_record 0x1cc-0x1d3.7 (8)
0x1c0|                                    17 80 fe 0a|            ....|        occur: "1982-07-01T00:00:10Z" (394329610) 0x1cc-0x1cf.7 (4)
0x1d0|00 00 00 0b                                    |....            |        corr: 11 0x1d0-0x1d3.7 (4)
     |                                               |                |      [11]{}: leap_second_record 0x1d4-0x1db.7 (8)
0x1d0|            19 62 31 8b                        |    .b1.        |        occur: "1983-07-01T00:00:11Z" (425865611) 0x1d4-0x1d7.7 (4)
0x1d0|                        00 00 00 0c            |        ....    |        corr: 12 0x1d8-0x1db.7 (4)
     |                                               |                |      [12]{}: leap_second_record 0x1dc-0x1e3.7 (8)
0x1d0|                                    1d 25 ea 0c|            .%..|        occur: "1985-07-01T00:00:12Z" (489024012) 0x1dc-0x1df.7 (4)
0x1e0|00 00 00 0d                                    |....            |        corr: 13 0x1e0-0x1e3.7 (4)
     |                                               |                |      [13]{}: leap_second_record 0x1e4-0x1eb.7 (8)
0x1e0|            21 da e5 0d                        |    !...        |        occur: "1988-01-01T00:00:13Z" (567993613) 0x1e4-0x1e7.7 (4)
0x1e0|                        00 00 00 0e            |        ....    |        corr: 14 0x1e8-0x1eb.7 (4)
     |                                               |                |      [14]{}: leap_second_record 0x1ec-0x1f3.7 (8)
0x1e0|                                    25 9e 9d 8e|            %...|        occur: "1990-01-01T00:00:14Z" (631152014) 0x1ec-0x1ef.7 (4)
0x1f0|00 00 00 0f                                    |....            |        corr: 15 0x1f0-0x1f3.7 (4)
     |                                               |                |      [15]{}: leap_second_record 0x1f4-0x1fb.7 (8)
0x1f0|            27 7f d1 0f                        |    '...        |        occur: "1991-01-01T00:00:15Z" (662688015) 0x1f4-0x1f7.7 (4)
0x1f0|                        00 00 00 10            |        ....    |        corr: 16 0x1f8-0x1fb.7 (4)
     |                                               |                |      [16]{}: leap_second_record 0x1fc-0x203.7 (8)
0x1f0|                                    2a 50 f5 90|            *P..|        occur: "1992-07-01T00:00:16Z" (709948816) 0x1fc-0x1ff.7 (4)
0x200|00 00 00 11                                    |....            |        corr: 17 0x200-0x203.7 (4)
     |                                               |                |      [17]{}: leap_second_record 0x204-0x20b.7 (8)
0x200|            2c 32 29 11                        |    ,2).        |        occur: "1993-07-01T00:00:17Z" (741484817) 0x204-0x207.7 (4)
0x200|                        00 00 00 12            |        ....    |        corr: 18 0x208-0x20b.7 (4)
     |                                               |                |      [18]{}: leap_second_record 0x20c-0x213.7 (8)
0x200|                                    2e 13 5c 92|            ..\.|        occur: "1994-07-01T00:00:18Z" (773020818) 0x20c-0x20f.7 (4)
0x210|00 00 00 13                                    |....            |        corr: 19 0x210-0x213.7 (4)
     |                                               |                |      [19]{}: leap_second_record 0x214-0x21b.7 (8)
0x210|            30 e7 24 13                        |    0.$.        |        occur: "1996-01-01T00:00:19Z" (820454419) 0x214-0x217.7 (4)
0x210|                        00 00 00 14            |        ....    |        corr: 20 0x218-0x21b.7 (4)
     |                                               |                |      [20]{}: leap_second_record 0x21c-0x223.7 (8)
0x210|                                    33 b8 48 94|            3.H.|        occur: "1997-07-01T00:00:20Z" (867715220) 0x21c-0x21f.7 (4)
0x220|00 00 00 15                                    |....            |        corr: 21 0x220-0x223.7 (4)
     |                                               |                |      [21]{}: leap_second_record 0x224-0x22b.7 (8)
0x220|            36 8c 10 15                        |    6...        |        occur: "1999-01-01T00:00:21Z" (915148821) 0x224-0x227.7 (4)
0x220|                        00 00 00 16            |        ....    |        corr: 22 0x228-0x22b.7 (4)
     |                                               |                |      [22]{}: leap_second_record 0x22c-0x233.7 (8)
0x220|                                    43 b7 1b 96|            C...|        occur: "2006-01-01T00:00:22Z" (1136073622) 0x22c-0x22f.7 (4)
0x230|00 00 00 17                                    |....            |        corr: 23 0x230-0x233.7 (4)
     |                                               |                |      [23]{}: leap_second_record 0x234-0x23b.7 (8)
0x230|            49 5c 07 97                        |    I\..        |        occur: "2009-01-01T00:00:23Z" (1230768023) 0x234-0x237.7 (4)
0x230|                        00 00 00 18            |        ....    |        corr: 24 0x238-0x23b.7 (4)
     |                                               |                |      [24]{}: leap_second_record 0x23c-0x243.7 (8)
0x230|                                    4f ef 93 18|            O...|        occur: "2012-07-01T00:00:24Z" (1341100824) 0x23c-0x23f.7 (4)
0x240|00 00 00 19                                    |....            |        corr: 25 0x240-0x243.7 (4)
     |                                               |                |      [25]{}: leap_second_record 0x244-0x24b.7 (8)
0x240|            55 93 2d 99                        |    U.-.        |        occur: "2015-07-01T00:00:25Z" (1435708825) 0x244-0x247.7 (4)
0x240|                        00 00 00 1a            |        ....    |        corr: 26 0x248-0x24b.7 (4)
     |                                               |                |      [26]{}: leap_second_record 0x24c-0x253.7 (8)
0x240|                                    58 68 46 9a|            XhF.|        occur: "2017-01-01T00:00:26Z" (1483228826) 0x24c-0x24f.7 (4)
0x250|00 00 00 1b                                    |....            |        corr: 27 0x250-0x253.7 (4)
     |                                               |                |    standard_wall_indicators[0:10]: 0x254-0x25d.7 (10)
0x250|            00                                 |    .           |      [0]: 0 standard_wall_indicator (valid) 0x254-0x254.7 (1)
0x250|               00                              |     .          |      [1]: 0 standard_wall_indicator (valid) 0x255-0x255.7 (1)
0x250|                  00                           |      .         |      [2]: 0 standard_wall_indicator (valid) 0x256-0x256.7 (1)
0x250|                     00                        |       .        |      [3]: 0 standard_wall_indicator (valid) 0x257-0x257.7 (1)
0x250|                        01                     |        .       |      [4]: 1 standard_wall_indicator (valid) 0x258-0x258.7 (1)
0x250|                           01                  |         .      |      [5]: 1 standard_wall_indicator (valid) 0x259-0x259.7 (1)
0x250|                              01               |          .     |      [6]: 1 standard_wall_indicator (valid) 0x25a-0x25a.7 (1)
0x250|                                 01            |           .    |      [7]: 1 standard_wall_indicator (valid) 0x25b-0x25b.7 (1)
0x250|                                    01         |            .   |      [8]: 1 standard_wall_indicator (valid) 0x25c-0x25c.7 (1)
0x250|                                       01      |             .  |      [9]: 1 standard_wall_indicator (valid) 0x25d-0x25d.7 (1)
     |                                               |                |    ut_local_indicators[0:0]: 0x25e-NA (0)
     |                                               |                |  v2plusheader{}: 0x25e-0x289.7 (44)
0x250|                                          54 5a|              TZ|    magic: 0x545a6966 (valid) 0x25e-0x261.7 (4)
0x260|69 66                                          |if              |
0x260|      32                                       |  2             |    ver: "2" (0x32) (valid) 0x262-0x262.7 (1)
0x260|         00 00 00 00 00 00 00 00 00 00 00 00 00|   .............|    reserved: raw bits 0x263-0x271.7 (15)
0x270|00 00                                          |..              |
0x270|      00 00 00 00                              |  ....          |    isutcnt: 0 0x272-0x275.7 (4)
0x270|                  00 00 00 0a                  |      ....      |    isstdcnt: 10 0x276-0x279.7 (4)
0x270|                              00 00 00 1b      |          ....  |    leapcnt: 27 0x27a-0x27d.7 (4)
0x270|                                          00 00|              ..|    timecnt: 52 0x27e-0x281.7 (4)
0x280|00 34                                          |.4              |
0x280|      00 00 00 0a                              |  ....          |    typecnt: 10 0x282-0x285.7 (4)
0x280|                  00 00 00 10                  |      ....      |    charcnt: 16 0x286-0x289.7 (4)
     |                                               |                |  v2plusdatablock{}: 0x28a-0x5f7.7 (878)
     |                                               |                |    transition_times[0:52]: 0x28a-0x429.7 (416)
0x280|                              ff ff ff ff aa 19|          ......|      [0]: "1924-05-01T18:52:12Z" (-1441170468) transition_time 0x28a-0x291.7 (8)
0x290|7b dc                                          |{.              |
0x290|      ff ff ff ff b5 a3 ef 30                  |  .......0      |      [1]: "1930-06-20T19:00:00Z" (-1247547600) transition_time 0x292-0x299.7 (8)
0x290|                              00 00 00 00 15 27|          .....'|      [2]: "1981-03-31T18:00:09Z" (354909609) transition_time 0x29a-0x2a1.7 (8)
0x2a0|7d a9                                          |}.              |
0x2a0|      00 00 00 00 16 18 b2 1a                  |  ........      |      [3]: "1981-09-30T17:00:10Z" (370717210) transition_time 0x2a2-0x2a9.7 (8)
0x2a0|                              00 00 00 00 17 08|          ......|      [4]: "1982-03-31T18:00:10Z" (386445610) transition_time 0x2aa-0x2b1.7 (8)
0x2b0|b1 2a                                          |.*              |
0x2b0|      00 00 00 00 17 f9 e5 9b                  |  ........      |      [5]: "1982-09-30T17:00:11Z" (402253211) transition_time 0x2b2-0x2b9.7 (8)
0x2b0|                              00 00 00 00 18 e9|          ......|      [6]: "1983-03-31T18:00:11Z" (417981611) transition_time 0x2ba-0x2c1.7 (8)
0x2c0|e4 ab                                          |..              |
0x2c0|      00 00 00 00 19 db 19 1c                  |  ........      |      [7]: "1983-09-30T17:00:12Z" (433789212) transition_time 0x2c2-0x2c9.7 (8)
0x2c0|                              00 00 00 00 1a cc|          ......|      [8]: "1984-03-31T18:00:12Z" (449604012) transition_time 0x2ca-0x2d1.7 (8)
0x2d0|69 ac                                          |i.              |
0x2d0|      00 00 00 00 1b bc 76 cc                  |  ......v.      |      [9]: "1984-09-29T20:00:12Z" (465336012) transition_time 0x2d2-0x2d9.7 (8)
0x2d0|                              00 00 00 00 1c ac|          ......|      [10]: "1985-03-30T20:00:12Z" (481060812) transition_time 0x2da-0x2e1.7 (8)
0x2e0|67 cc                                          |g.              |
0x2e0|      00 00 00 00 1d 9c 58 cd                  |  ......X.      |      [11]: "1985-09-28T20:00:13Z" (496785613) transition_time 0x2e2-0x2e9.7 (8)
0x2e0|                              00 00 00 00 1e 8c|          ......|      [12]: "1986-03-29T20:00:13Z" (512510413) transition_time 0x2ea-0x2f1.7 (8)
0x2f0|49 cd                                          |I.              |
0x2f0|      00 00 00 00 1f 7c 3a cd                  |  .....|:.      |      [13]: "1986-09-27T20:00:13Z" (528235213) transition_time 0x2f2-0x2f9.7 (8)
0x2f0|                              00 00 00 00 20 6c|          .... l|      [14]: "1987-03-28T20:00:13Z" (543960013) transition_time 0x2fa-0x301.7 (8)
0x300|2b cd                                          |+.              |
0x300|      00 00 00 00 21 5c 1c cd                  |  ....!\..      |      [15]: "1987-09-26T20:00:13Z" (559684813) transition_time 0x302-0x309.7 (8)
0x300|                              00 00 00 00 22 4c|          ...."L|      [16]: "1988-03-26T20:00:14Z" (575409614) transition_time 0x30a-0x311.7 (8)
0x310|0d ce                                          |..              |
0x310|      00 00 00 00 23 3b fe ce                  |  ....#;..      |      [17]: "1988-09-24T20:00:14Z" (591134414) transition_time 0x312-0x319.7 (8)
0x310|                              00 00 00 00 24 2b|          ....$+|      [18]: "1989-03-25T20:00:14Z" (606859214) transition_time 0x31a-0x321.7 (8)
0x320|ef ce                                          |..              |
0x320|      00 00 00 00 25 1b e0 ce                  |  ....%...      |      [19]: "1989-09-23T20:00:14Z" (622584014) transition_time 0x322-0x329.7 (8)
0x320|                              00 00 00 00 26 0b|          ....&.|      [20]: "1990-03-24T20:00:15Z" (638308815) transition_time 0x32a-0x331.7 (8)
0x330|d1 cf                                          |..              |
0x330|      00 00 00 00 27 04 fd 4f                  |  ....'..O      |      [21]: "1990-09-29T20:00:15Z" (654638415) transition_time 0x332-0x339.7 (8)
0x330|                              00 00 00 00 27 f4|          ....'.|      [22]: "1991-03-30T20:00:16Z" (670363216) transition_time 0x33a-0x341.7 (8)
0x340|ee 50                                          |.P              |
0x340|      00 00 00 00 28 e4 ed 60                  |  ....(..`      |      [23]: "1991-09-28T21:00:16Z" (686091616) transition_time 0x342-0x349.7 (8)
0x340|                              00 00 00 00 29 78|          ....)x|      [24]: "1992-01-18T21:00:16Z" (695768416) transition_time 0x34a-0x351.7 (8)
0x350|95 60                                          |.`              |
0x350|      00 00 00 00 29 d4 d0 50                  |  ....)..P      |      [25]: "1992-03-28T20:00:16Z" (701812816) transition_time 0x352-0x359.7 (8)
0x350|                              00 00 00 00 2a c4|          ....*.|      [26]: "1992-09-26T20:00:17Z" (717537617) transition_time 0x35a-0x361.7 (8)
0x360|c1 51                                          |.Q              |
0x360|      00 00 00 00 2b b4 b2 51                  |  ....+..Q      |      [27]: "1993-03-27T20:00:17Z" (733262417) transition_time 0x362-0x369.7 (8)
0x360|                              00 00 00 00 2c a4|          ....,.|      [28]: "1993-09-25T20:00:18Z" (748987218) transition_time 0x36a-0x371.7 (8)
0x370|a3 52                                          |.R              |
0x370|      00 00 00 00 2d 94 94 52                  |  ....-..R      |      [29]: "1994-03-26T20:00:18Z" (764712018) transition_time 0x372-0x379.7 (8)
0x370|                              00 00 00 00 2e 84|          ......|      [30]: "1994-09-24T20:00:19Z" (780436819) transition_time 0x37a-0x381.7 (8)
0x380|85 53                                          |.S              |
0x380|      00 00 00 00 2f 74 76 53                  |  ..../tvS      |      [31]: "1995-03-25T20:00:19Z" (796161619) transition_time 0x382-0x389.7 (8)
0x380|                              00 00 00 00 30 64|          ....0d|      [32]: "1995-09-23T20:00:19Z" (811886419) transition_time 0x38a-0x391.7 (8)
0x390|67 53                                          |gS              |
0x390|      00 00 00 00 31 5d 92 d4                  |  ....1]..      |      [33]: "1996-03-30T20:00:20Z" (828216020) transition_time 0x392-0x399.7 (8)
0x390|                              00 00 00 00 32 72|          ....2r|      [34]: "1996-10-26T20:00:20Z" (846360020) transition_time 0x39a-0x3a1.7 (8)
0x3a0|6d d4                                          |m.              |
0x3a0|      00 00 00 00 33 3d 74 d4                  |  ....3=t.      |      [35]: "1997-03-29T20:00:20Z" (859665620) transition_time 0x3a2-0x3a9.7 (8)
0x3a0|                              00 00 00 00 34 52|          ....4R|      [36]: "1997-10-25T20:00:21Z" (877809621) transition_time 0x3aa-0x3b1.7 (8)
0x3b0|4f d5                                          |O.              |
0x3b0|      00 00 00 00 35 1d 56 d5                  |  ....5.V.      |      [37]: "1998-03-28T20:00:21Z" (891115221) transition_time 0x3b2-0x3b9.7 (8)
0x3b0|                              00 00 00 00 36 32|          ....62|      [38]: "1998-10-24T20:00:21Z" (909259221) transition_time 0x3ba-0x3c1.7 (8)
0x3c0|31 d5                                          |1.              |
0x3c0|      00 00 00 00 36 fd 38 d6                  |  ....6.8.      |      [39]: "1999-03-27T20:00:22Z" (922564822) transition_time 0x3c2-0x3c9.7 (8)
0x3c0|                              00 00 00 00 38 1b|          ....8.|      [40]: "1999-10-30T20:00:22Z" (941313622) transition_time 0x3ca-0x3d1.7 (8)
0x3d0|4e 56                                          |NV              |
0x3d0|      00 00 00 00 38 dd 1a d6                  |  ....8...      |      [41]: "2000-03-25T20:00:22Z" (954014422) transition_time 0x3d2-0x3d9.7 (8)
0x3d0|                              00 00 00 00 39 fb|          ....9.|      [42]: "2000-10-28T20:00:22Z" (972763222) transition_time 0x3da-0x3e1.7 (8)
0x3e0|30 56                                          |0V              |
0x3e0|      00 00 00 00 3a bc fc d6                  |  ....:...      |      [43]: "2001-03-24T20:00:22Z" (985464022) transition_time 0x3e2-0x3e9.7 (8)
0x3e0|                              00 00 00 00 3b db|          ....;.|      [44]: "2001-10-27T20:00:22Z" (1004212822) transition_time 0x3ea-0x3f1.7 (8)
0x3f0|12 56                                          |.V              |
0x3f0|      00 00 00 00 3c a6 19 56                  |  ....<..V      |      [45]: "2002-03-30T20:00:22Z" (1017518422) transition_time 0x3f2-0x3f9.7 (8)
0x3f0|                              00 00 00 00 3d ba|          ....=.|      [46]: "2002-10-26T20:00:22Z" (1035662422) transition_time 0x3fa-0x401.7 (8)
0x400|f4 56                                          |.V              |
0x400|      00 00 00 00 3e 85 fb 56                  |  ....>..V      |      [47]: "2003-03-29T20:00:22Z" (1048968022) transition_time 0x402-0x409.7 (8)
0x400|                              00 00 00 00 3f 9a|          ....?.|      [48]: "2003-10-25T20:00:22Z" (1067112022) transition_time 0x40a-0x411.7 (8)
0x410|d6 56                                          |.V              |
0x410|      00 00 00 00 40 65 dd 56                  |  ....@e.V      |      [49]: "2004-03-27T20:00:22Z" (1080417622) transition_time 0x412-0x419.7 (8)
0x410|                              00 00 00 00 41 83|          ....A.|      [50]: "2004-10-30T20:00:22Z" (1099166422) transition_time 0x41a-0x421.7 (8)
0x420|f2 d6                                          |..              |
0x420|      00 00 00 00 64 9b 78 1b                  |  ....d.x.      |      [51]: "2023-06-28T00:00:27Z" (1687910427) transition_time 0x422-0x429.7 (8)
     |                                               |                |    transition_types[0:52]: 0x42a-0x45d.7 (52)
0x420|                              01               |          .     |      [0]: 1 transition_type 0x42a-0x42a.7 (1)
0x420|                                 03            |           .    |      [1]: 3 transition_type 0x42b-0x42b.7 (1)
0x420|                                    02         |            .   |      [2]: 2 transition_type 0x42c-0x42c.7 (1)
0x420|                                       03      |             .  |      [3]: 3 transition_type 0x42d-0x42d.7 (1)
0x420|                                          02   |              . |      [4]: 2 transition_type 0x42e-0x42e.7 (1)
0x420|                                             03|               .|      [5]: 3 transition_type 0x42f-0x42f.7 (1)
0x430|02                                             |.               |      [6]: 2 transition_type 0x430-0x430.7 (1)
0x430|   03                                          | .              |      [7]: 3 transition_type 0x431-0x431.7 (1)
0x430|      02                                       |  .             |      [8]: 2 transition_type 0x432-0x432.7 (1)
0x430|         04                                    |   .            |      [9]: 4 transition_type 0x433-0x433.7 (1)
0x430|            05                                 |    .           |      [10]: 5 transition_type 0x434-0x434.7 (1)
0x430|               04                              |     .          |      [11]: 4 transition_type 0x435-0x435.7 (1)
0x430|                  05                           |      .         |      [12]: 5 transition_type 0x436-0x436.7 (1)
0x430|                     04                        |       .        |      [13]: 4 transition_type 0x437-0x437.7 (1)
0x430|                        05                     |        .       |      [14]: 5 transition_type 0x438-0x438.7 (1)
0x430|                           04                  |         .      |      [15]: 4 transition_type 0x439-0x439.7 (1)
0x430|                              05               |          .     |      [16]: 5 transition_type 0x43a-0x43a.7 (1)
0x430|                                 04            |           .    |      [17]: 4 transition_type 0x43b-0x43b.7 (1)
0x430|                                    05         |            .   |      [18]: 5 transition_type 0x43c-0x43c.7 (1)
0x430|                                       04      |             .  |      [19]: 4 transition_type 0x43d-0x43d.7 (1)
0x430|                                          05   |              . |      [20]: 5 transition_type 0x43e-0x43e.7 (1)
0x430|                                             04|               .|      [21]: 4 transition_type 0x43f-0x43f.7 (1)
0x440|06                                             |.               |      [22]: 6 transition_type 0x440-0x440.7 (1)
0x440|   07                                          | .              |      [23]: 7 transition_type 0x441-0x441.7 (1)
0x440|      04                                       |  .             |      [24]: 4 transition_type 0x442-0x442.7 (1)
0x440|         05                                    |   .            |      [25]: 5 transition_type 0x443-0x443.7 (1)
0x440|            04                                 |    .           |      [26]: 4 transition_type 0x444-0x444.7 (1)
0x440|               05                              |     .          |      [27]: 5 transition_type 0x445-0x445.7 (1)
0x440|                  04                           |      .         |      [28]: 4 transition_type 0x446-0x446.7 (1)
0x440|                     05                        |       .        |      [29]: 5 transition_type 0x447-0x447.7 (1)
0x440|                        04                     |        .       |      [30]: 4 transition_type 0x448-0x448.7 (1)
0x440|                           05                  |         .      |      [31]: 5 transition_type 0x449-0x449.7 (1)
0x440|                              04               |          .     |      [32]: 4 transition_type 0x44a-0x44a.7 (1)
0x440|                                 05            |           .    |      [33]: 5 transition_type 0x44b-0x44b.7 (1)
0x440|                                    04         |            .   |      [34]: 4 transition_type 0x44c-0x44c.7 (1)
0x440|                                       05      |             .  |      [35]: 5 transition_type 0x44d-0x44d.7 (1)
0x440|                                          04   |              . |      [36]: 4 transition_type 0x44e-0x44e.7 (1)
0x440|                                             05|               .|      [37]: 5 transition_type 0x44f-0x44f.7 (1)
0x450|04                                             |.               |      [38]: 4 transition_type 0x450-0x450.7 (1)
0x450|   05                                          | .              |      [39]: 5 transition_type 0x451-0x451.7 (1)
0x450|      04                                       |  .             |      [40]: 4 transition_type 0x452-0x452.7 (1)
0x450|         05                                    |   .            |      [41]: 5 transition_type 0x453-0x453.7 (1)
0x450|            04                                 |    .           |      [42]: 4 transition_type 0x454-0x454.7 (1)
0x450|               05                              |     .          |      [43]: 5 transition_type 0x455-0x455.7 (1)
0x450|                  04                           |      .         |      [44]: 4 transition_type 0x456-0x456.7 (1)
0x450|                     05                        |       .        |      [45]: 5 transition_type 0x457-0x457.7 (1)
0x450|                        04                     |        .       |      [46]: 4 transition_type 0x458-0x458.7 (1)
0x450|                           05                  |         .      |      [47]: 5 transition_type 0x459-0x459.7 (1)
0x450|                              04               |          .     |      [48]: 4 transition_type 0x45a-0x45a.7 (1)
0x450|                                 05            |           .    |      [49]: 5 transition_type 0x45b-0x45b.7 (1)
0x450|                                    04         |            .   |      [50]: 4 transition_type 0x45c-0x45c.7 (1)
0x450|                                       04      |             .  |      [51]: 4 transition_type 0x45d-0x45d.7 (1)
     |                                               |                |    local_time_type_records[0:10]: 0x45e-0x499.7 (60)
     |                                               |                |      [0]{}: local_time_type 0x45e-0x463.7 (6)
0x450|                                          00 00|              ..|        utoff: 18468 (valid) 0x45e-0x461.7 (4)
0x460|48 24                                          |H$              |
0x460|      00                                       |  .             |        dst: 0 (valid) 0x462-0x462.7 (1)
0x460|         00                                    |   .            |        idx: 0 (valid) 0x463-0x463.7 (1)
     |                                               |                |      [1]{}: local_time_type 0x464-0x469.7 (6)
0x460|            00 00 46 50                        |    ..FP        |        utoff: 18000 (valid) 0x464-0x467.7 (4)
0x460|                        00                     |        .       |        dst: 0 (valid) 0x468-0x468.7 (1)
0x460|                           04                  |         .      |        idx: 4 (valid) 0x469-0x469.7 (1)
     |                                               |                |      [2]{}: local_time_type 0x46a-0x46f.7 (6)
0x460|                              00 00 62 70      |          ..bp  |        utoff: 25200 (valid) 0x46a-0x46d.7 (4)
0x460|                                          01   |              . |        dst: 1 (valid) 0x46e-0x46e.7 (1)
0x460|                                             08|               .|        idx: 8 (valid) 0x46f-0x46f.7 (1)
     |                                               |                |      [3]{}: local_time_type 0x470-0x475.7 (6)
0x470|00 00 54 60                                    |..T`            |        utoff: 21600 (valid) 0x470-0x473.7 (4)
0x470|            00                                 |    .           |        dst: 0 (valid) 0x474-0x474.7 (1)
0x470|               0c                              |     .          |        idx: 12 (valid) 0x475-0x475.7 (1)
     |                                               |                |      [4]{}: local_time_type 0x476-0x47b.7 (6)
0x470|                  00 00 54 60                  |      ..T`      |        utoff: 21600 (valid) 0x476-0x479.7 (4)
0x470|                              00               |          .     |        dst: 0 (valid) 0x47a-0x47a.7 (1)
0x470|                                 0c            |           .    |        idx: 12 (valid) 0x47b-0x47b.7 (1)
     |                                               |                |      [5]{}: local_time_type 0x47c-0x481.7 (6)
0x470|                                    00 00 62 70|            ..bp|        utoff: 25200 (valid) 0x47c-0x47f.7 (4)
0x480|01                                             |.               |        dst: 1 (valid) 0x480-0x480.7 (1)
0x480|   08                                          | .              |        idx: 8 (valid) 0x481-0x481.7 (1)
     |                                               |                |      [6]{}: local_time_type 0x482-0x487.7 (6)
0x480|      00 00 54 60                              |  ..T`          |        utoff: 21600 (valid) 0x482-0x485.7 (4)
0x480|                  01                           |      .         |        dst: 1 (valid) 0x486-0x486.7 (1)
0x480|                     0c                        |       .        |        idx: 12 (valid) 0x487-0x487.7 (1)
     |                                               |                |      [7]{}: local_time_type 0x488-0x48d.7 (6)
0x480|                        00 00 46 50            |        ..FP    |        utoff: 18000 (valid) 0x488-0x48b.7 (4)
0x480|                                    00         |            .   |        dst: 0 (valid) 0x48c-0x48c.7 (1)
0x480|                                       04      |             .  |        idx: 4 (valid) 0x48d-0x48d.7 (1)
     |                                               |                |      [8]{}: local_time_type 0x48e-0x493.7 (6)
0x480|                                          00 00|              ..|        utoff: 25200 (valid) 0x48e-0x491.7 (4)
0x490|62 70                                          |bp              |
0x490|      01                                       |  .             |        dst: 1 (valid) 0x492-0x492.7 (1)
0x490|         08                                    |   .            |        idx: 8 (valid) 0x493-0x493.7 (1)
     |                                               |                |      [9]{}: local_time_type 0x494-0x499.7 (6)
0x490|            00 00 54 60                        |    ..T`        |        utoff: 21600 (valid) 0x494-0x497.7 (4)
0x490|                        00                     |        .       |        dst: 0 (valid) 0x498-0x498.7 (1)
0x490|                           0c                  |         .      |        idx: 12 (valid) 0x499-0x499.7 (1)
     |                                               |                |    time_zone_designations[0:4]: 0x49a-0x4a9.7 (16)
0x490|                              4c 4d 54 00      |          LMT.  |      [0]: "LMT" time_zone_designation 0x49a-0x49d.7 (4)
0x490|                                          2b 30|              +0|      [1]: "+05" time_zone_designation 0x49e-0x4a1.7 (4)
0x4a0|35 00                                          |5.              |
0x4a0|      2b 30 37 00                              |  +07.          |      [2]: "+07" time_zone_designation 0x4a2-0x4a5.7 (4)
0x4a0|                  2b 30 36 00                  |      +06.      |      [3]: "+06" time_zone_designation 0x4a6-0x4a9.7 (4)
     |                                               |                |    leap_second_records[0:27]: 0x4aa-0x5ed.7 (324)
     |                                               |                |      [0]{}: leap_second_record 0x4aa-0x4b5.7 (12)
0x4a0|                              00 00 00 00 04 b2|          ......|        occur: "1972-07-01T00:00:00Z" (78796800) 0x4aa-0x4b1.7 (8)
0x4b0|58 00                                          |X.              |
0x4b0|      00 00 00 01                              |  ....          |        corr: 1 0x4b2-0x4b5.7 (4)
     |                                               |                |      [1]{}: leap_second_record 0x4b6-0x4c1.7 (12)
0x4b0|                  00 00 00 00 05 a4 ec 01      |      ........  |        occur: "1973-01-01T00:00:01Z" (94694401) 0x4b6-0x4bd.7 (8)
0x4b0|                                          00 00|              ..|        corr: 2 0x4be-0x4c1.7 (4)
0x4c0|00 02                                          |..              |
     |                                               |                |      [2]{}: leap_second_record 0x4c2-0x4cd.7 (12)
0x4c0|      00 00 00 00 07 86 1f 82                  |  ........      |        occur: "1974-01-01T00:00:02Z" (126230402) 0x4c2-0x4c9.7 (8)
0x4c0|                              00 00 00 03      |          ....  |        corr: 3 0x4ca-0x4cd.7 (4)
     |                                               |                |      [3]{}: leap_second_record 0x4ce-0x4d9.7 (12)
0x4c0|                                          00 00|              ..|        occur: "1975-01-01T00:00:03Z" (157766403) 0x4ce-0x4d5.7 (8)
0x4d0|00 00 09 67 53 03                              |...gS.          |
0x4d0|                  00 00 00 04                  |      ....      |        corr: 4 0x4d6-0x4d9.7 (4)
     |                                               |                |      [4]{}: leap_second_record 0x4da-0x4e5.7 (12)
0x4d0|                              00 00 00 00 0b 48|          .....H|        occur: "1976-01-01T00:00:04Z" (189302404) 0x4da-0x4e1.7 (8)
0x4e0|86 84                                          |..              |
0x4e0|      00 00 00 05                              |  ....          |        corr: 5 0x4e2-0x4e5.7 (4)
     |                                               |                |      [5]{}: leap_second_record 0x4e6-0x4f1.7 (12)
0x4e0|                  00 00 00 00 0d 2b 0b 85      |      .....+..  |        occur: "1977-01-01T00:00:05Z" (220924805) 0x4e6-0x4ed.7 (8)
0x4e0|                                          00 00|              ..|        corr: 6 0x4ee-0x4f1.7 (4)
0x4f0|00 06                                          |..              |
     |                                               |                |      [6]{}: leap_second_record 0x4f2-0x4fd.7 (12)
0x4f0|      00 00 00 00 0f 0c 3f 06                  |  ......?.      |        occur: "1978-01-01T00:00:06Z" (252460806) 0x4f2-0x4f9.7 (8)
0x4f0|                              00 00 00 07      |          ....  |        corr: 7 0x4fa-0x4fd.7 (4)
     |                                               |                |      [7]{}: leap_second_record 0x4fe-0x509.7 (12)
0x4f0|                                          00 00|              ..|        occur: "1979-01-01T00:00:07Z" (283996807) 0x4fe-0x505.7 (8)
0x500|00 00 10 ed 72 87                              |....r.          |
0x500|                  00 00 00 08                  |      ....      |        corr: 8 0x506-0x509.7 (4)
     |                                               |                |      [8]{}: leap_second_record 0x50a-0x515.7 (12)
0x500|                              00 00 00 00 12 ce|          ......|        occur: "1980-01-01T00:00:08Z" (315532808) 0x50a-0x511.7 (8)
0x510|a6 08                                          |..              |
0x510|      00 00 00 09                              |  ....          |        corr: 9 0x512-0x515.7 (4)
     |                                               |                |      [9]{}: leap_second_record 0x516-0x521.7 (12)
0x510|                  00 00 00 00 15 9f ca 89      |      ........  |        occur: "1981-07-01T00:00:09Z" (362793609) 0x516-0x51d.7 (8)
0x510|                                          00 00|              ..|        corr: 10 0x51e-0x521.7 (4)
0x520|00 0a                                          |..              |
     |                                               |                |      [10]{}: leap_second_record 0x522-0x52d.7 (12)
0x520|      00 00 00 00 17 80 fe 0a                  |  ........      |        occur: "1982-07-01T00:00:10Z" (394329610) 0x522-0x529.7 (8)
0x520|                              00 00 00 0b      |          ....  |        corr: 11 0x52a-0x52d.7 (4)
     |                                               |                |      [11]{}: leap_second_record 0x52e-0x539.7 (12)
0x520|                                          00 00|              ..|        occur: "1983-07-01T00:00:11Z" (425865611) 0x52e-0x535.7 (8)
0x530|00 00 19 62 31 8b                              |...b1.          |
0x530|                  00 00 00 0c                  |      ....      |        corr: 12 0x536-0x539.7 (4)
     |                                               |                |      [12]{}: leap_second_record 0x53a-0x545.7 (12)
0x530|                              00 00 00 00 1d 25|          .....%|        occur: "1985-07-01T00:00:12Z" (489024012) 0x53a-0x541.7 (8)
0x540|ea 0c                                          |..              |
0x540|      00 00 00 0d                              |  ....          |        corr: 13 0x542-0x545.7 (4)
     |                                               |                |      [13]{}: leap_second_record 0x546-0x551.7 (12)
0x540|                  00 00 00 00 21 da e5 0d      |      ....!...  |        occur: "1988-01-01T00:00:13Z" (567993613) 0x546-0x54d.7 (8)
0x540|                                          00 00|              ..|        corr: 14 0x54e-0x551.7 (4)
0x550|00 0e                                          |..              |
     |                                               |                |      [14]{}: leap_second_record 0x552-0x55d.7 (12)
0x550|      00 00 00 00 25 9e 9d 8e                  |  ....%...      |        occur: "1990-01-01T00:00:14Z" (631152014) 0x552-0x559.7 (8)
0x550|                              00 00 00 0f      |          ....  |        corr: 15 0x55a-0x55d.7 (4)
     |                                               |                |      [15]{}: leap_second_record 0x55e-0x569.7 (12)
0x550|                                          00 00|              ..|        occur: "1991-01-01T00:00:15Z" (662688015) 0x55e-0x565.7 (8)
0x560|00 00 27 7f d1 0f                              |..'...          |
0x560|                  00 00 00 10                  |      ....      |        corr: 16 0x566-0x569.7 (4)
     |                                               |                |      [16]{}: leap_second_record 0x56a-0x575.7 (12)
0x560|                              00 00 00 00 2a 50|          ....*P|        occur: "1992-07-01T00:00:16Z" (709948816) 0x56a-0x571.7 (8)
0x570|f5 90                                          |..              |
0x570|      00 00 00 11                              |  ....          |        corr: 17 0x572-0x575.7 (4)
     |                                               |                |      [17]{}: leap_second_record 0x576-0x581.7 (12)
0x570|                  00 00 00 00 2c 32 29 11      |      ....,2).  |        occur: "1993-07-01T00:00:17Z" (741484817) 0x576-0x57d.7 (8)
0x570|                                          00 00|              ..|        corr: 18 0x57e-0x581.7 (4)
0x580|00 12                                          |..              |
     |                                               |                |      [18]{}: leap_second_record 0x582-0x58d.7 (12)
0x580|      00 00 00 00 2e 13 5c 92                  |  ......\.      |        occur: "1994-07-01T00:00:18Z" (773020818) 0x582-0x589.7 (8)
0x580|                              00 00 00 13      |          ....  |        corr: 19 0x58a-0x58d.7 (4)
     |                                               |                |      [19]{}: leap_second_record 0x58e-0x599.7 (12)
0x580|                                          00 00|              ..|        occur: "1996-01-01T00:00:19Z" (820454419) 0x58e-0x595.7 (8)
0x590|00 00 30 e7 24 13                              |..0.$.          |
0x590|                  00 00 00 14                  |      ....      |        corr: 20 0x596-0x599.7 (4)
     |                                               |                |      [20]{}: leap_second_record 0x59a-0x5a5.7 (12)
0x590|                              00 00 00 00 33 b8|          ....3.|        occur: "1997-07-01T00:00:20Z" (867715220) 0x59a-0x5a1.7 (8)
0x5a0|48 94                                          |H.              |
0x5a0|      00 00 00 15                              |  ....          |        corr: 21 0x5a2-0x5a5.7 (4)
     |                                               |                |      [21]{}: leap_second_record 0x5a6-0x5b1.7 (12)
0x5a0|                  00 00 00 00 36 8c 10 15      |      ....6...  |        occur: "1999-01-01T00:00:21Z" (915148821) 0x5a6-0x5ad.7 (8)
0x5a0|                                          00 00|              ..|        corr: 22 0x5ae-0x5b1.7 (4)
0x5b0|00 16                                          |..              |
     |                                               |                |      [22]{}: leap_second_record 0x5b2-0x5bd.7 (12)
0x5b0|      00 00 00 00 43 b7 1b 96                  |  ....C...      |        occur: "2006-01-01T00:00:22Z" (1136073622) 0x5b2-0x5b9.7 (8)
0x5b0|                              00 00 00 17      |          ....  |        corr: 23 0x5ba-0x5bd.7 (4)
     |                                               |                |      [23]{}: leap_second_record 0x5be-0x5c9.7 (12)
0x5b0|                                          00 00|              ..|        occur: "2009-01-01T00:00:23Z" (1230768023) 0x5be-0x5c5.7 (8)
0x5c0|00 00 49 5c 07 97                              |..I\..          |
0x5c0|                  00 00 00 18                  |      ....      |        corr: 24 0x5c6-0x5c9.7 (4)
     |                                               |                |      [24]{}: leap_second_record 0x5ca-0x5d5.7 (12)
0x5c0|                              00 00 00 00 4f ef|          ....O.|        occur: "2012-07-01T00:00:24Z" (1341100824) 0x5ca-0x5d1.7 (8)
0x5d0|93 18                                          |..              |
0x5d0|      00 00 00 19                              |  ....          |        corr: 25 0x5d2-0x5d5.7 (4)
     |                                               |                |      [25]{}: leap_second_record 0x5d6-0x5e1.7 (12)
0x5d0|                  00 00 00 00 55 93 2d 99      |      ....U.-.  |        occur: "2015-07-01T00:00:25Z" (1435708825) 0x5d6-0x5dd.7 (8)
0x5d0|                                          00 00|              ..|        corr: 26 0x5de-0x5e1.7 (4)
0x5e0|00 1a                                          |..              |
     |                                               |                |      [26]{}: leap_second_record 0x5e2-0x5ed.7 (12)
0x5e0|      00 00 00 00 58 68 46 9a                  |  ....XhF.      |        occur: "2017-01-01T00:00:26Z" (1483228826) 0x5e2-0x5e9.7 (8)
0x5e0|                              00 00 00 1b      |          ....  |        corr: 27 0x5ea-0x5ed.7 (4)
     |                                               |                |    standard_wall_indicators[0:10]: 0x5ee-0x5f7.7 (10)
0x5e0|                                          00   |              . |      [0]: 0 standard_wall_indicator (valid) 0x5ee-0x5ee.7 (1)
0x5e0|                                             00|               .|      [1]: 0 standard_wall_indicator (valid) 0x5ef-0x5ef.7 (1)
0x5f0|00                                             |.               |      [2]: 0 standard_wall_indicator (valid) 0x5f0-0x5f0.7 (1)
0x5f0|   00                                          | .              |      [3]: 0 standard_wall_indicator (valid) 0x5f1-0x5f1.7 (1)
0x5f0|      01                                       |  .             |      [4]: 1 standard_wall_indicator (valid) 0x5f2-0x5f2.7 (1)
0x5f0|         01                                    |   .            |      [5]: 1 standard_wall_indicator (valid) 0x5f3-0x5f3.7 (1)
0x5f0|            01                                 |    .           |      [6]: 1 standard_wall_indicator (valid) 0x5f4-0x5f4.7 (1)
0x5f0|               01                              |     .          |      [7]: 1 standard_wall_indicator (valid) 0x5f5-0x5f5.7 (1)
0x5f0|                  01                           |      .         |      [8]: 1 standard_wall_indicator (valid) 0x5f6-0x5f6.7 (1)
0x5f0|                     01                        |       .        |      [9]: 1 standard_wall_indicator (valid) 0x5f7-0x5f7.7 (1)
     |                                               |                |    ut_local_indicators[0:0]: 0x5f8-NA (0)
     |                                               |                |  footer{}: 0x5f8-0x5f9.7 (2)
0x5f0|                        0a                     |        .       |    nl1: 10 (valid) 0x5f8-0x5f8.7 (1)
     |                                               |                |    tz_string: "" 0x5f9-NA (0)
0x5f0|                           0a|                 |         .|     |    nl2: 10 (valid) 0x5f9-0x5f9.7 (1)
