$ fq -d tzif dv Amman
     |00 01 02 03 04 05 06 07 08 09 0a 0b 0c 0d 0e 0f|0123456789abcdef|.{}: Amman (tzif) 0x0-0x7bb.7 (1980)
     |                                               |                |  v1header{}: 0x0-0x2b.7 (44)
0x000|54 5a 69 66                                    |TZif            |    magic: 0x545a6966 (valid) 0x0-0x3.7 (4)
0x000|            32                                 |    2           |    ver: "2" (0x32) (valid) 0x4-0x4.7 (1)
0x000|               00 00 00 00 00 00 00 00 00 00 00|     ...........|    reserved: raw bits 0x5-0x13.7 (15)
0x010|00 00 00 00                                    |....            |
0x010|            00 00 00 00                        |    ....        |    isutcnt: 0 0x14-0x17.7 (4)
0x010|                        00 00 00 06            |        ....    |    isstdcnt: 6 0x18-0x1b.7 (4)
0x010|                                    00 00 00 1b|            ....|    leapcnt: 27 0x1c-0x1f.7 (4)
0x020|00 00 00 58                                    |...X            |    timecnt: 88 0x20-0x23.7 (4)
0x020|            00 00 00 06                        |    ....        |    typecnt: 6 0x24-0x27.7 (4)
0x020|                        00 00 00 11            |        ....    |    charcnt: 17 0x28-0x2b.7 (4)
     |                                               |                |  v1datablock{}: 0x2c-0x2f6.7 (715)
     |                                               |                |    transition_times[0:88]: 0x2c-0x18b.7 (352)
0x020|                                    b6 a3 d6 d0|            ....|      [0]: "1930-12-31T21:36:16Z" (-1230776624) transition_time 0x2c-0x2f.7 (4)
0x030|06 72 79 e2                                    |.ry.            |      [1]: "1973-06-05T22:00:02Z" (108165602) transition_time 0x30-0x33.7 (4)
0x030|            07 0c ab 52                        |    ...R        |      [2]: "1973-09-30T21:00:02Z" (118270802) transition_time 0x34-0x37.7 (4)
0x030|                        08 24 37 63            |        .$7c    |      [3]: "1974-04-30T22:00:03Z" (136591203) transition_time 0x38-0x3b.7 (4)
0x030|                                    08 ed de d3|            ....|      [4]: "1974-09-30T21:00:03Z" (149806803) transition_time 0x3c-0x3f.7 (4)
0x040|0a 05 6a e4                                    |..j.            |      [5]: "1975-04-30T22:00:04Z" (168127204) transition_time 0x40-0x43.7 (4)
0x040|            0a cf 12 54                        |    ...T        |      [6]: "1975-09-30T21:00:04Z" (181342804) transition_time 0x44-0x47.7 (4)
0x040|                        0b e7 ef e5            |        ....    |      [7]: "1976-04-30T22:00:05Z" (199749605) transition_time 0x48-0x4b.7 (4)
0x040|                                    0c da 75 d5|            ..u.|      [8]: "1976-10-31T21:00:05Z" (215643605) transition_time 0x4c-0x4f.7 (4)
0x050|0d c9 23 66                                    |..#f            |      [9]: "1977-04-30T22:00:06Z" (231285606) transition_time 0x50-0x53.7 (4)
0x050|            0e 92 ca d6                        |    ....        |      [10]: "1977-09-30T21:00:06Z" (244501206) transition_time 0x54-0x57.7 (4)
0x050|                        0f a9 05 67            |        ...g    |      [11]: "1978-04-29T22:00:07Z" (262735207) transition_time 0x58-0x5b.7 (4)
0x050|                                    10 72 ac d7|            .r..|      [12]: "1978-09-29T21:00:07Z" (275950807) transition_time 0x5c-0x5f.7 (4)
0x060|1c ad d5 6c                                    |...l            |      [13]: "1985-03-31T22:00:12Z" (481154412) transition_time 0x60-0x63.7 (4)
0x060|            1d 9f 09 dd                        |    ....        |      [14]: "1985-09-30T21:00:13Z" (496962013) transition_time 0x64-0x67.7 (4)
0x060|                        1e 92 fd 6d            |        ...m    |      [15]: "1986-04-03T22:00:13Z" (512949613) transition_time 0x68-0x6b.7 (4)
0x060|                                    1f 82 e0 5d|            ...]|      [16]: "1986-10-02T21:00:13Z" (528670813) transition_time 0x6c-0x6f.7 (4)
0x070|20 72 df 6d                                    | r.m            |      [17]: "1987-04-02T22:00:13Z" (544399213) transition_time 0x70-0x73.7 (4)
0x070|            21 62 c2 5d                        |    !b.]        |      [18]: "1987-10-01T21:00:13Z" (560120413) transition_time 0x74-0x77.7 (4)
0x070|                        22 52 c1 6e            |        "R.n    |      [19]: "1988-03-31T22:00:14Z" (575848814) transition_time 0x78-0x7b.7 (4)
0x070|                                    23 4b de de|            #K..|      [20]: "1988-10-06T21:00:14Z" (592174814) transition_time 0x7c-0x7f.7 (4)
0x080|24 64 bc 6e                                    |$d.n            |      [21]: "1989-05-07T22:00:14Z" (610581614) transition_time 0x80-0x83.7 (4)
0x080|            25 2b c0 de                        |    %+..        |      [22]: "1989-10-05T21:00:14Z" (623624414) transition_time 0x84-0x87.7 (4)
0x080|                        26 37 6f 6f            |        &7oo    |      [23]: "1990-04-26T22:00:15Z" (641167215) transition_time 0x88-0x8b.7 (4)
0x080|                                    27 0b a2 df|            '...|      [24]: "1990-10-04T21:00:15Z" (655074015) transition_time 0x8c-0x8f.7 (4)
0x090|28 0b 73 f0                                    |(.s.            |      [25]: "1991-04-16T22:00:16Z" (671839216) transition_time 0x90-0x93.7 (4)
0x090|            28 e2 4a 60                        |    (.J`        |      [26]: "1991-09-26T21:00:16Z" (685918816) transition_time 0x94-0x97.7 (4)
0x090|                        29 e4 be 70            |        )..p    |      [27]: "1992-04-09T22:00:16Z" (702856816) transition_time 0x98-0x9b.7 (4)
0x090|                                    2a cb 66 e1|            *.f.|      [28]: "1992-10-01T21:00:17Z" (717973217) transition_time 0x9c-0x9f.7 (4)
0x0a0|2b bb 65 f1                                    |+.e.            |      [29]: "1993-04-01T22:00:17Z" (733701617) transition_time 0xa0-0xa3.7 (4)
0x0a0|            2c ab 48 e2                        |    ,.H.        |      [30]: "1993-09-30T21:00:18Z" (749422818) transition_time 0xa4-0xa7.7 (4)
0x0a0|                        2d 9b 47 f2            |        -.G.    |      [31]: "1994-03-31T22:00:18Z" (765151218) transition_time 0xa8-0xab.7 (4)
0x0a0|                                    2e 78 b5 e3|            .x..|      [32]: "1994-09-15T21:00:19Z" (779662819) transition_time 0xac-0xaf.7 (4)
0x0b0|2f 84 64 73                                    |/.ds            |      [33]: "1995-04-06T22:00:19Z" (797205619) transition_time 0xb0-0xb3.7 (4)
0x0b0|            30 58 a5 f3                        |    0X..        |      [34]: "1995-09-14T22:00:19Z" (811116019) transition_time 0xb4-0xb7.7 (4)
0x0b0|                        31 64 46 74            |        1dFt    |      [35]: "1996-04-04T22:00:20Z" (828655220) transition_time 0xb8-0xbb.7 (4)
0x0b0|                                    32 41 c2 74|            2A.t|      [36]: "1996-09-19T22:00:20Z" (843170420) transition_time 0xbc-0xbf.7 (4)
0x0c0|33 44 28 74                                    |3D(t            |      [37]: "1997-04-03T22:00:20Z" (860104820) transition_time 0xc0-0xc3.7 (4)
0x0c0|            34 21 a4 75                        |    4!.u        |      [38]: "1997-09-18T22:00:21Z" (874620021) transition_time 0xc4-0xc7.7 (4)
0x0c0|                        35 24 0a 75            |        5$.u    |      [39]: "1998-04-02T22:00:21Z" (891554421) transition_time 0xc8-0xcb.7 (4)
0x0c0|                                    36 01 86 75|            6..u|      [40]: "1998-09-17T22:00:21Z" (906069621) transition_time 0xcc-0xcf.7 (4)
0x0d0|37 7a 93 76                                    |7z.v            |      [41]: "1999-06-30T22:00:22Z" (930780022) transition_time 0xd0-0xd3.7 (4)
0x0d0|            37 ea a2 f6                        |    7...        |      [42]: "1999-09-23T22:00:22Z" (938124022) transition_time 0xd4-0xd7.7 (4)
0x0d0|                        38 e2 7c f6            |        8.|.    |      [43]: "2000-03-29T22:00:22Z" (954367222) transition_time 0xd8-0xdb.7 (4)
0x0d0|                                    39 d3 bf 76|            9..v|      [44]: "2000-09-28T22:00:22Z" (970178422) transition_time 0xdc-0xdf.7 (4)
0x0e0|3a c2 5e f6                                    |:.^.            |      [45]: "2001-03-28T22:00:22Z" (985816822) transition_time 0xe0-0xe3.7 (4)
0x0e0|            3b b3 a1 76                        |    ;..v        |      [46]: "2001-09-27T22:00:22Z" (1001628022) transition_time 0xe4-0xe7.7 (4)
0x0e0|                        3c a3 92 76            |        <..v    |      [47]: "2002-03-28T22:00:22Z" (1017352822) transition_time 0xe8-0xeb.7 (4)
0x0e0|                                    3d 93 83 76|            =..v|      [48]: "2002-09-26T22:00:22Z" (1033077622) transition_time 0xec-0xef.7 (4)
0x0f0|3e 83 74 76                                    |>.tv            |      [49]: "2003-03-27T22:00:22Z" (1048802422) transition_time 0xf0-0xf3.7 (4)
0x0f0|            3f 98 4f 76                        |    ?.Ov        |      [50]: "2003-10-23T22:00:22Z" (1066946422) transition_time 0xf4-0xf7.7 (4)
0x0f0|                        40 63 56 76            |        @cVv    |      [51]: "2004-03-25T22:00:22Z" (1080252022) transition_time 0xf8-0xfb.7 (4)
0x0f0|                                    41 6e f6 f6|            An..|      [52]: "2004-10-14T22:00:22Z" (1097791222) transition_time 0xfc-0xff.7 (4)
0x100|42 4c 72 f6                                    |BLr.            |      [53]: "2005-03-31T22:00:22Z" (1112306422) transition_time 0x100-0x103.7 (4)
0x100|            43 3c 63 f6                        |    C<c.        |      [54]: "2005-09-29T22:00:22Z" (1128031222) transition_time 0x104-0x107.7 (4)
0x100|                        44 2c 54 f7            |        D,T.    |      [55]: "2006-03-30T22:00:23Z" (1143756023) transition_time 0x108-0x10b.7 (4)
0x100|                                    45 41 2f f7|            EA/.|      [56]: "2006-10-26T22:00:23Z" (1161900023) transition_time 0x10c-0x10f.7 (4)
0x110|46 0c 36 f7                                    |F.6.            |      [57]: "2007-03-29T22:00:23Z" (1175205623) transition_time 0x110-0x113.7 (4)
0x110|            47 21 11 f7                        |    G!..        |      [58]: "2007-10-25T22:00:23Z" (1193349623) transition_time 0x114-0x117.7 (4)
0x110|                        47 ec 18 f7            |        G...    |      [59]: "2008-03-27T22:00:23Z" (1206655223) transition_time 0x118-0x11b.7 (4)
0x110|                                    49 0a 2e 77|            I..w|      [60]: "2008-10-30T22:00:23Z" (1225404023) transition_time 0x11c-0x11f.7 (4)
0x120|49 cb fa f8                                    |I...            |      [61]: "2009-03-26T22:00:24Z" (1238104824) transition_time 0x120-0x123.7 (4)
0x120|            4a ea 10 78                        |    J..x        |      [62]: "2009-10-29T22:00:24Z" (1256853624) transition_time 0x124-0x127.7 (4)
0x120|                        4b ab dc f8            |        K...    |      [63]: "2010-03-25T22:00:24Z" (1269554424) transition_time 0x128-0x12b.7 (4)
0x120|                                    4c c9 f2 78|            L..x|      [64]: "2010-10-28T22:00:24Z" (1288303224) transition_time 0x12c-0x12f.7 (4)
0x130|4d 94 f9 78                                    |M..x            |      [65]: "2011-03-31T22:00:24Z" (1301608824) transition_time 0x130-0x133.7 (4)
0x130|            4e a9 d4 78                        |    N..x        |      [66]: "2011-10-27T22:00:24Z" (1319752824) transition_time 0x134-0x137.7 (4)
0x130|                        4f 74 db 78            |        Ot.x    |      [67]: "2012-03-29T22:00:24Z" (1333058424) transition_time 0x138-0x13b.7 (4)
0x130|                                    52 b3 5e 69|            R.^i|      [68]: "2013-12-19T21:00:25Z" (1387486825) transition_time 0x13c-0x13f.7 (4)
0x140|53 34 9f 79                                    |S4.y            |      [69]: "2014-03-27T22:00:25Z" (1395957625) transition_time 0x140-0x143.7 (4)
0x140|            54 52 b4 f9                        |    TR..        |      [70]: "2014-10-30T22:00:25Z" (1414706425) transition_time 0x144-0x147.7 (4)
0x140|                        55 14 81 79            |        U..y    |      [71]: "2015-03-26T22:00:25Z" (1427407225) transition_time 0x148-0x14b.7 (4)
0x140|                                    56 32 96 fa|            V2..|      [72]: "2015-10-29T22:00:26Z" (1446156026) transition_time 0x14c-0x14f.7 (4)
0x150|56 fd 9d fa                                    |V...            |      [73]: "2016-03-31T22:00:26Z" (1459461626) transition_time 0x150-0x153.7 (4)
0x150|            58 12 78 fa                        |    X.x.        |      [74]: "2016-10-27T22:00:26Z" (1477605626) transition_time 0x154-0x157.7 (4)
0x150|                        58 dd 7f fb            |        X...    |      [75]: "2017-03-30T22:00:27Z" (1490911227) transition_time 0x158-0x15b.7 (4)
0x150|                                    59 f2 5a fb|            Y.Z.|      [76]: "2017-10-26T22:00:27Z" (1509055227) transition_time 0x15c-0x15f.7 (4)
0x160|5a bd 61 fb                                    |Z.a.            |      [77]: "2018-03-29T22:00:27Z" (1522360827) transition_time 0x160-0x163.7 (4)
0x160|            5b d2 3c fb                        |    [.<.        |      [78]: "2018-10-25T22:00:27Z" (1540504827) transition_time 0x164-0x167.7 (4)
0x160|                        5c 9d 43 fb            |        \.C.    |      [79]: "2019-03-28T22:00:27Z" (1553810427) transition_time 0x168-0x16b.7 (4)
0x160|                                    5d b2 1e fb|            ]...|      [80]: "2019-10-24T22:00:27Z" (1571954427) transition_time 0x16c-0x16f.7 (4)
0x170|5e 7d 25 fb                                    |^}%.            |      [81]: "2020-03-26T22:00:27Z" (1585260027) transition_time 0x170-0x173.7 (4)
0x170|            5f 9b 3b 7b                        |    _.;{        |      [82]: "2020-10-29T22:00:27Z" (1604008827) transition_time 0x174-0x177.7 (4)
0x170|                        60 5d 07 fb            |        `]..    |      [83]: "2021-03-25T22:00:27Z" (1616709627) transition_time 0x178-0x17b.7 (4)
0x170|                                    61 7b 1d 7b|            a{.{|      [84]: "2021-10-28T22:00:27Z" (1635458427) transition_time 0x17c-0x17f.7 (4)
0x180|62 17 ff fb                                    |b...            |      [85]: "2022-02-24T22:00:27Z" (1645740027) transition_time 0x180-0x183.7 (4)
0x180|            63 5a ff 7b                        |    cZ.{        |      [86]: "2022-10-27T22:00:27Z" (1666908027) transition_time 0x184-0x187.7 (4)
0x180|                        64 9b 78 1b            |        d.x.    |      [87]: "2023-06-28T00:00:27Z" (1687910427) transition_time 0x188-0x18b.7 (4)
     |                                               |                |    transition_types[0:88]: 0x18c-0x1e3.7 (88)
0x180|                                    02         |            .   |      [0]: 2 transition_type 0x18c-0x18c.7 (1)
0x180|                                       01      |             .  |      [1]: 1 transition_type 0x18d-0x18d.7 (1)
0x180|                                          02   |              . |      [2]: 2 transition_type 0x18e-0x18e.7 (1)
0x180|                                             01|               .|      [3]: 1 transition_type 0x18f-0x18f.7 (1)
0x190|02                                             |.               |      [4]: 2 transition_type 0x190-0x190.7 (1)
0x190|   01                                          | .              |      [5]: 1 transition_type 0x191-0x191.7 (1)
0x190|      02                                       |  .             |      [6]: 2 transition_type 0x192-0x192.7 (1)
0x190|         01                                    |   .            |      [7]: 1 transition_type 0x193-0x193.7 (1)
0x190|            02                                 |    .           |      [8]: 2 transition_type 0x194-0x194.7 (1)
0x190|               01                              |     .          |      [9]: 1 transition_type 0x195-0x195.7 (1)
0x190|                  02                           |      .         |      [10]: 2 transition_type 0x196-0x196.7 (1)
0x190|                     01                        |       .        |      [11]: 1 transition_type 0x197-0x197.7 (1)
0x190|                        02                     |        .       |      [12]: 2 transition_type 0x198-0x198.7 (1)
0x190|                           01                  |         .      |      [13]: 1 transition_type 0x199-0x199.7 (1)
0x190|                              02               |          .     |      [14]: 2 transition_type 0x19a-0x19a.7 (1)
0x190|                                 01            |           .    |      [15]: 1 transition_type 0x19b-0x19b.7 (1)
0x190|                                    02         |            .   |      [16]: 2 transition_type 0x19c-0x19c.7 (1)
0x190|                                       01      |             .  |      [17]: 1 transition_type 0x19d-0x19d.7 (1)
0x190|                                          02   |              . |      [18]: 2 transition_type 0x19e-0x19e.7 (1)
0x190|                                             01|               .|      [19]: 1 transition_type 0x19f-0x19f.7 (1)
0x1a0|02                                             |.               |      [20]: 2 transition_type 0x1a0-0x1a0.7 (1)
0x1a0|   01                                          | .              |      [21]: 1 transition_type 0x1a1-0x1a1.7 (1)
0x1a0|      02                                       |  .             |      [22]: 2 transition_type 0x1a2-0x1a2.7 (1)
0x1a0|         01                                    |   .            |      [23]: 1 transition_type 0x1a3-0x1a3.7 (1)
0x1a0|            02                                 |    .           |      [24]: 2 transition_type 0x1a4-0x1a4.7 (1)
0x1a0|               01                              |     .          |      [25]: 1 transition_type 0x1a5-0x1a5.7 (1)
0x1a0|                  02                           |      .         |      [26]: 2 transition_type 0x1a6-0x1a6.7 (1)
0x1a0|                     01                        |       .        |      [27]: 1 transition_type 0x1a7-0x1a7.7 (1)
0x1a0|                        02                     |        .       |      [28]: 2 transition_type 0x1a8-0x1a8.7 (1)
0x1a0|                           01                  |         .      |      [29]: 1 transition_type 0x1a9-0x1a9.7 (1)
0x1a0|                              02               |          .     |      [30]: 2 transition_type 0x1aa-0x1aa.7 (1)
0x1a0|                                 01            |           .    |      [31]: 1 transition_type 0x1ab-0x1ab.7 (1)
0x1a0|                                    02         |            .   |      [32]: 2 transition_type 0x1ac-0x1ac.7 (1)
0x1a0|                                       01      |             .  |      [33]: 1 transition_type 0x1ad-0x1ad.7 (1)
0x1a0|                                          03   |              . |      [34]: 3 transition_type 0x1ae-0x1ae.7 (1)
0x1a0|                                             01|               .|      [35]: 1 transition_type 0x1af-0x1af.7 (1)
0x1b0|03                                             |.               |      [36]: 3 transition_type 0x1b0-0x1b0.7 (1)
0x1b0|   01                                          | .              |      [37]: 1 transition_type 0x1b1-0x1b1.7 (1)
0x1b0|      03                                       |  .             |      [38]: 3 transition_type 0x1b2-0x1b2.7 (1)
0x1b0|         01                                    |   .            |      [39]: 1 transition_type 0x1b3-0x1b3.7 (1)
0x1b0|            03                                 |    .           |      [40]: 3 transition_type 0x1b4-0x1b4.7 (1)
0x1b0|               04                              |     .          |      [41]: 4 transition_type 0x1b5-0x1b5.7 (1)
0x1b0|                  03                           |      .         |      [42]: 3 transition_type 0x1b6-0x1b6.7 (1)
0x1b0|                     04                        |       .        |      [43]: 4 transition_type 0x1b7-0x1b7.7 (1)
0x1b0|                        03                     |        .       |      [44]: 3 transition_type 0x1b8-0x1b8.7 (1)
0x1b0|                           04                  |         .      |      [45]: 4 transition_type 0x1b9-0x1b9.7 (1)
0x1b0|                              03               |          .     |      [46]: 3 transition_type 0x1ba-0x1ba.7 (1)
0x1b0|                                 01            |           .    |      [47]: 1 transition_type 0x1bb-0x1bb.7 (1)
0x1b0|                                    03         |            .   |      [48]: 3 transition_type 0x1bc-0x1bc.7 (1)
0x1b0|                                       01      |             .  |      [49]: 1 transition_type 0x1bd-0x1bd.7 (1)
0x1b0|                                          03   |              . |      [50]: 3 transition_type 0x1be-0x1be.7 (1)
0x1b0|                                             01|               .|      [51]: 1 transition_type 0x1bf-0x1bf.7 (1)
0x1c0|03                                             |.               |      [52]: 3 transition_type 0x1c0-0x1c0.7 (1)
0x1c0|   01                                          | .              |      [53]: 1 transition_type 0x1c1-0x1c1.7 (1)
0x1c0|      03                                       |  .             |      [54]: 3 transition_type 0x1c2-0x1c2.7 (1)
0x1c0|         01                                    |   .            |      [55]: 1 transition_type 0x1c3-0x1c3.7 (1)
0x1c0|            03                                 |    .           |      [56]: 3 transition_type 0x1c4-0x1c4.7 (1)
0x1c0|               01                              |     .          |      [57]: 1 transition_type 0x1c5-0x1c5.7 (1)
0x1c0|                  03                           |      .         |      [58]: 3 transition_type 0x1c6-0x1c6.7 (1)
0x1c0|                     01                        |       .        |      [59]: 1 transition_type 0x1c7-0x1c7.7 (1)
0x1c0|                        03                     |        .       |      [60]: 3 transition_type 0x1c8-0x1c8.7 (1)
0x1c0|                           01                  |         .      |      [61]: 1 transition_type 0x1c9-0x1c9.7 (1)
0x1c0|                              03               |          .     |      [62]: 3 transition_type 0x1ca-0x1ca.7 (1)
0x1c0|                                 01            |           .    |      [63]: 1 transition_type 0x1cb-0x1cb.7 (1)
0x1c0|                                    03         |            .   |      [64]: 3 transition_type 0x1cc-0x1cc.7 (1)
0x1c0|                                       01      |             .  |      [65]: 1 transition_type 0x1cd-0x1cd.7 (1)
0x1c0|                                          03   |              . |      [66]: 3 transition_type 0x1ce-0x1ce.7 (1)
0x1c0|                                             01|               .|      [67]: 1 transition_type 0x1cf-0x1cf.7 (1)
0x1d0|02                                             |.               |      [68]: 2 transition_type 0x1d0-0x1d0.7 (1)
0x1d0|   01                                          | .              |      [69]: 1 transition_type 0x1d1-0x1d1.7 (1)
0x1d0|      03                                       |  .             |      [70]: 3 transition_type 0x1d2-0x1d2.7 (1)
0x1d0|         01                                    |   .            |      [71]: 1 transition_type 0x1d3-0x1d3.7 (1)
0x1d0|            03                                 |    .           |      [72]: 3 transition_type 0x1d4-0x1d4.7 (1)
0x1d0|               01                              |     .          |      [73]: 1 transition_type 0x1d5-0x1d5.7 (1)
0x1d0|                  03                           |      .         |      [74]: 3 transition_type 0x1d6-0x1d6.7 (1)
0x1d0|                     01                        |       .        |      [75]: 1 transition_type 0x1d7-0x1d7.7 (1)
0x1d0|                        03                     |        .       |      [76]: 3 transition_type 0x1d8-0x1d8.7 (1)
0x1d0|                           01                  |         .      |      [77]: 1 transition_type 0x1d9-0x1d9.7 (1)
0x1d0|                              03               |          .     |      [78]: 3 transition_type 0x1da-0x1da.7 (1)
0x1d0|                                 01            |           .    |      [79]: 1 transition_type 0x1db-0x1db.7 (1)
0x1d0|                                    03         |            .   |      [80]: 3 transition_type 0x1dc-0x1dc.7 (1)
0x1d0|                                       01      |             .  |      [81]: 1 transition_type 0x1dd-0x1dd.7 (1)
0x1d0|                                          03   |              . |      [82]: 3 transition_type 0x1de-0x1de.7 (1)
0x1d0|                                             01|               .|      [83]: 1 transition_type 0x1df-0x1df.7 (1)
0x1e0|03                                             |.               |      [84]: 3 transition_type 0x1e0-0x1e0.7 (1)
0x1e0|   01                                          | .              |      [85]: 1 transition_type 0x1e1-0x1e1.7 (1)
0x1e0|      05                                       |  .             |      [86]: 5 transition_type 0x1e2-0x1e2.7 (1)
0x1e0|         05                                    |   .            |      [87]: 5 transition_type 0x1e3-0x1e3.7 (1)
     |                                               |                |    local_time_type_records[0:6]: 0x1e4-0x207.7 (36)
     |                                               |                |      [0]{}: local_time_type 0x1e4-0x1e9.7 (6)
0x1e0|            00 00 21 b0                        |    ..!.        |        utoff: 8624 (valid) 0x1e4-0x1e7.7 (4)
0x1e0|                        00                     |        .       |        dst: 0 (valid) 0x1e8-0x1e8.7 (1)
0x1e0|                           00                  |         .      |        idx: 0 (valid) 0x1e9-0x1e9.7 (1)
     |                                               |                |      [1]{}: local_time_type 0x1ea-0x1ef.7 (6)
0x1e0|                              00 00 2a 30      |          ..*0  |        utoff: 10800 (valid) 0x1ea-0x1ed.7 (4)
0x1e0|                                          01   |              . |        dst: 1 (valid) 0x1ee-0x1ee.7 (1)
0x1e0|                                             04|               .|        idx: 4 (valid) 0x1ef-0x1ef.7 (1)
     |                                               |                |      [2]{}: local_time_type 0x1f0-0x1f5.7 (6)
0x1f0|00 00 1c 20                                    |...             |        utoff: 7200 (valid) 0x1f0-0x1f3.7 (4)
0x1f0|            00                                 |    .           |        dst: 0 (valid) 0x1f4-0x1f4.7 (1)
0x1f0|               09                              |     .          |        idx: 9 (valid) 0x1f5-0x1f5.7 (1)
     |                                               |                |      [3]{}: local_time_type 0x1f6-0x1fb.7 (6)
0x1f0|                  00 00 1c 20                  |      ...       |        utoff: 7200 (valid) 0x1f6-0x1f9.7 (4)
0x1f0|                              00               |          .     |        dst: 0 (valid) 0x1fa-0x1fa.7 (1)
0x1f0|                                 09            |           .    |        idx: 9 (valid) 0x1fb-0x1fb.7 (1)
     |                                               |                |      [4]{}: local_time_type 0x1fc-0x201.7 (6)
0x1f0|                                    00 00 2a 30|            ..*0|        utoff: 10800 (valid) 0x1fc-0x1ff.7 (4)
0x200|01                                             |.               |        dst: 1 (valid) 0x200-0x200.7 (1)
0x200|   04                                          | .              |        idx: 4 (valid) 0x201-0x201.7 (1)
     |                                               |                |      [5]{}: local_time_type 0x202-0x207.7 (6)
0x200|      00 00 2a 30                              |  ..*0          |        utoff: 10800 (valid) 0x202-0x205.7 (4)
0x200|                  00                           |      .         |        dst: 0 (valid) 0x206-0x206.7 (1)
0x200|                     0d                        |       .        |        idx: 13 (valid) 0x207-0x207.7 (1)
     |                                               |                |    time_zone_designations[0:4]: 0x208-0x218.7 (17)
0x200|                        4c 4d 54 00            |        LMT.    |      [0]: "LMT" time_zone_designation 0x208-0x20b.7 (4)
0x200|                                    45 45 53 54|            EEST|      [1]: "EEST" time_zone_designation 0x20c-0x210.7 (5)
0x210|00                                             |.               |
0x210|   45 45 54 00                                 | EET.           |      [2]: "EET" time_zone_designation 0x211-0x214.7 (4)
0x210|               2b 30 33 00                     |     +03.       |      [3]: "+03" time_zone_designation 0x215-0x218.7 (4)
     |                                               |                |    leap_second_records[0:27]: 0x219-0x2f0.7 (216)
     |                                               |                |      [0]{}: leap_second_record 0x219-0x220.7 (8)
0x210|                           04 b2 58 00         |         ..X.   |        occur: "1972-07-01T00:00:00Z" (78796800) 0x219-0x21c.7 (4)
0x210|                                       00 00 00|             ...|        corr: 1 0x21d-0x220.7 (4)
0x220|01                                             |.               |
     |                                               |                |      [1]{}: leap_second_record 0x221-0x228.7 (8)
0x220|   05 a4 ec 01                                 | ....           |        occur: "1973-01-01T00:00:01Z" (94694401) 0x221-0x224.7 (4)
0x220|               00 00 00 02                     |     ....       |        corr: 2 0x225-0x228.7 (4)
     |                                               |                |      [2]{}: leap_second_record 0x229-0x230.7 (8)
0x220|                           07 86 1f 82         |         ....   |        occur: "1974-01-01T00:00:02Z" (126230402) 0x229-0x22c.7 (4)
0x220|                                       00 00 00|             ...|        corr: 3 0x22d-0x230.7 (4)
0x230|03                                             |.               |
     |                                               |                |      [3]{}: leap_second_record 0x231-0x238.7 (8)
0x230|   09 67 53 03                                 | .gS.           |        occur: "1975-01-01T00:00:03Z" (157766403) 0x231-0x234.7 (4)
0x230|               00 00 00 04                     |     ....       |        corr: 4 0x235-0x238.7 (4)
     |                                               |                |      [4]{}: leap_second_record 0x239-0x240.7 (8)
0x230|                           0b 48 86 84         |         .H..   |        occur: "1976-01-01T00:00:04Z" (189302404) 0x239-0x23c.7 (4)
0x230|                                       00 00 00|             ...|        corr: 5 0x23d-0x240.7 (4)
0x240|05                                             |.               |
     |                                               |                |      [5]{}: leap_second_record 0x241-0x248.7 (8)
0x240|   0d 2b 0b 85                                 | .+..           |        occur: "1977-01-01T00:00:05Z" (220924805) 0x241-0x244.7 (4)
0x240|               00 00 00 06                     |     ....       |        corr: 6 0x245-0x248.7 (4)
     |                                               |                |      [6]{}: leap_second_record 0x249-0x250.7 (8)
0x240|                           0f 0c 3f 06         |         ..?.   |        occur: "1978-01-01T00:00:06Z" (252460806) 0x249-0x24c.7 (4)
0x240|                                       00 00 00|             ...|        corr: 7 0x24d-0x250.7 (4)
0x250|07                                             |.               |
     |                                               |                |      [7]{}: leap_second_record 0x251-0x258.7 (8)
0x250|   10 ed 72 87                                 | ..r.           |        occur: "1979-01-01T00:00:07Z" (283996807) 0x251-0x254.7 (4)
0x250|               00 00 00 08                     |     ....       |        corr: 8 0x255-0x258.7 (4)
     |                                               |                |      [8]{}: leap_second_record 0x259-0x260.7 (8)
0x250|                           12 ce a6 08         |         ....   |        occur: "1980-01-01T00:00:08Z" (315532808) 0x259-0x25c.7 (4)
0x250|                                       00 00 00|             ...|        corr: 9 0x25d-0x260.7 (4)
0x260|09                                             |.               |
     |                                               |                |      [9]{}: leap_second_record 0x261-0x268.7 (8)
0x260|   15 9f ca 89                                 | ....           |        occur: "1981-07-01T00:00:09Z" (362793609) 0x261-0x264.7 (4)
0x260|               00 00 00 0a                     |     ....       |        corr: 10 0x265-0x268.7 (4)
     |                                               |                |      [10]{}: leap_second_record 0x269-0x270.7 (8)
0x260|                           17 80 fe 0a         |         ....   |        occur: "1982-07-01T00:00:10Z" (394329610) 0x269-0x26c.7 (4)
0x260|                                       00 00 00|             ...|        corr: 11 0x26d-0x270.7 (4)
0x270|0b                                             |.               |
     |                                               |                |      [11]{}: leap_second_record 0x271-0x278.7 (8)
0x270|   19 62 31 8b                                 | .b1.           |        occur: "1983-07-01T00:00:11Z" (425865611) 0x271-0x274.7 (4)
0x270|               00 00 00 0c                     |     ....       |        corr: 12 0x275-0x278.7 (4)
     |                                               |                |      [12]{}: leap_second_record 0x279-0x280.7 (8)
0x270|                           1d 25 ea 0c         |         .%..   |        occur: "1985-07-01T00:00:12Z" (489024012) 0x279-0x27c.7 (4)
0x270|                                       00 00 00|             ...|        corr: 13 0x27d-0x280.7 (4)
0x280|0d                                             |.               |
     |                                               |                |      [13]{}: leap_second_record 0x281-0x288.7 (8)
0x280|   21 da e5 0d                                 | !...           |        occur: "1988-01-01T00:00:13Z" (567993613) 0x281-0x284.7 (4)
0x280|               00 00 00 0e                     |     ....       |        corr: 14 0x285-0x288.7 (4)
     |                                               |                |      [14]{}: leap_second_record 0x289-0x290.7 (8)
0x280|                           25 9e 9d 8e         |         %...   |        occur: "1990-01-01T00:00:14Z" (631152014) 0x289-0x28c.7 (4)
0x280|                                       00 00 00|             ...|        corr: 15 0x28d-0x290.7 (4)
0x290|0f                                             |.               |
     |                                               |                |      [15]{}: leap_second_record 0x291-0x298.7 (8)
0x290|   27 7f d1 0f                                 | '...           |        occur: "1991-01-01T00:00:15Z" (662688015) 0x291-0x294.7 (4)
0x290|               00 00 00 10                     |     ....       |        corr: 16 0x295-0x298.7 (4)
     |                                               |                |      [16]{}: leap_second_record 0x299-0x2a0.7 (8)
0x290|                           2a 50 f5 90         |         *P..   |        occur: "1992-07-01T00:00:16Z" (709948816) 0x299-0x29c.7 (4)
0x290|                                       00 00 00|             ...|        corr: 17 0x29d-0x2a0.7 (4)
0x2a0|11                                             |.               |
     |                                               |                |      [17]{}: leap_second_record 0x2a1-0x2a8.7 (8)
0x2a0|   2c 32 29 11                                 | ,2).           |        occur: "1993-07-01T00:00:17Z" (741484817) 0x2a1-0x2a4.7 (4)
0x2a0|               00 00 00 12                     |     ....       |        corr: 18 0x2a5-0x2a8.7 (4)
     |                                               |                |      [18]{}: leap_second_record 0x2a9-0x2b0.7 (8)
0x2a0|                           2e 13 5c 92         |         ..\.   |        occur: "1994-07-01T00:00:18Z" (773020818) 0x2a9-0x2ac.7 (4)
0x2a0|                                       00 00 00|             ...|        corr: 19 0x2ad-0x2b0.7 (4)
0x2b0|13                                             |.               |
     |                                               |                |      [19]{}: leap_second_record 0x2b1-0x2b8.7 (8)
0x2b0|   30 e7 24 13                                 | 0.$.           |        occur: "1996-01-01T00:00:19Z" (820454419) 0x2b1-0x2b4.7 (4)
0x2b0|               00 00 00 14                     |     ....       |        corr: 20 0x2b5-0x2b8.7 (4)
     |                                               |                |      [20]{}: leap_second_record 0x2b9-0x2c0.7 (8)
0x2b0|                           33 b8 48 94         |         3.H.   |        occur: "1997-07-01T00:00:20Z" (867715220) 0x2b9-0x2bc.7 (4)
0x2b0|                                       00 00 00|             ...|        corr: 21 0x2bd-0x2c0.7 (4)
0x2c0|15                                             |.               |
     |                                               |                |      [21]{}: leap_second_record 0x2c1-0x2c8.7 (8)
0x2c0|   36 8c 10 15                                 | 6...           |        occur: "1999-01-01T00:00:21Z" (915148821) 0x2c1-0x2c4.7 (4)
0x2c0|               00 00 00 16                     |     ....       |        corr: 22 0x2c5-0x2c8.7 (4)
     |                                               |                |      [22]{}: leap_second_record 0x2c9-0x2d0.7 (8)
0x2c0|                           43 b7 1b 96         |         C...   |        occur: "2006-01-01T00:00:22Z" (1136073622) 0x2c9-0x2cc.7 (4)
0x2c0|                                       00 00 00|             ...|        corr: 23 0x2cd-0x2d0.7 (4)
0x2d0|17                                             |.               |
     |                                               |                |      [23]{}: leap_second_record 0x2d1-0x2d8.7 (8)
0x2d0|   49 5c 07 97                                 | I\..           |        occur: "2009-01-01T00:00:23Z" (1230768023) 0x2d1-0x2d4.7 (4)
0x2d0|               00 00 00 18                     |     ....       |        corr: 24 0x2d5-0x2d8.7 (4)
     |                                               |                |      [24]{}: leap_second_record 0x2d9-0x2e0.7 (8)
0x2d0|                           4f ef 93 18         |         O...   |        occur: "2012-07-01T00:00:24Z" (1341100824) 0x2d9-0x2dc.7 (4)
0x2d0|                                       00 00 00|             ...|        corr: 25 0x2dd-0x2e0.7 (4)
0x2e0|19                                             |.               |
     |                                               |                |      [25]{}: leap_second_record 0x2e1-0x2e8.7 (8)
0x2e0|   55 93 2d 99                                 | U.-.           |        occur: "2015-07-01T00:00:25Z" (1435708825) 0x2e1-0x2e4.7 (4)
0x2e0|               00 00 00 1a                     |     ....       |        corr: 26 0x2e5-0x2e8.7 (4)
     |                                               |                |      [26]{}: leap_second_record 0x2e9-0x2f0.7 (8)
0x2e0|                           58 68 46 9a         |         XhF.   |        occur: "2017-01-01T00:00:26Z" (1483228826) 0x2e9-0x2ec.7 (4)
0x2e0|                                       00 00 00|             ...|        corr: 27 0x2ed-0x2f0.7 (4)
0x2f0|1b                                             |.               |
     |                                               |                |    standard_wall_indicators[0:6]: 0x2f1-0x2f6.7 (6)
0x2f0|   00                                          | .              |      [0]: 0 standard_wall_indicator (valid) 0x2f1-0x2f1.7 (1)
0x2f0|      00                                       |  .             |      [1]: 0 standard_wall_indicator (valid) 0x2f2-0x2f2.7 (1)
0x2f0|         00                                    |   .            |      [2]: 0 standard_wall_indicator (valid) 0x2f3-0x2f3.7 (1)
0x2f0|            01                                 |    .           |      [3]: 1 standard_wall_indicator (valid) 0x2f4-0x2f4.7 (1)
0x2f0|               01                              |     .          |      [4]: 1 standard_wall_indicator (valid) 0x2f5-0x2f5.7 (1)
0x2f0|                  01                           |      .         |      [5]: 1 standard_wall_indicator (valid) 0x2f6-0x2f6.7 (1)
     |                                               |                |    ut_local_indicators[0:0]: 0x2f7-NA (0)
     |                                               |                |  v2plusheader{}: 0x2f7-0x322.7 (44)
0x2f0|                     54 5a 69 66               |       TZif     |    magic: 0x545a6966 (valid) 0x2f7-0x2fa.7 (4)
0x2f0|                                 32            |           2    |    ver: "2" (0x32) (valid) 0x2fb-0x2fb.7 (1)
0x2f0|                                    00 00 00 00|            ....|    reserved: raw bits 0x2fc-0x30a.7 (15)
0x300|00 00 00 00 00 00 00 00 00 00 00               |...........     |
0x300|                                 00 00 00 00   |           .... |    isutcnt: 0 0x30b-0x30e.7 (4)
0x300|                                             00|               .|    isstdcnt: 6 0x30f-0x312.7 (4)
0x310|00 00 06                                       |...             |
0x310|         00 00 00 1b                           |   ....         |    leapcnt: 27 0x313-0x316.7 (4)
0x310|                     00 00 00 58               |       ...X     |    timecnt: 88 0x317-0x31a.7 (4)
0x310|                                 00 00 00 06   |           .... |    typecnt: 6 0x31b-0x31e.7 (4)
0x310|                                             00|               .|    charcnt: 17 0x31f-0x322.7 (4)
0x320|00 00 11                                       |...             |
     |                                               |                |  v2plusdatablock{}: 0x323-0x7b9.7 (1175)
     |                                               |                |    transition_times[0:88]: 0x323-0x5e2.7 (704)
0x320|         ff ff ff ff b6 a3 d6 d0               |   ........     |      [0]: "1930-12-31T21:36:16Z" (-1230776624) transition_time 0x323-0x32a.7 (8)
0x320|                                 00 00 00 00 06|           .....|      [1]: "1973-06-05T22:00:02Z" (108165602) transition_time 0x32b-0x332.7 (8)
0x330|72 79 e2                                       |ry.             |
0x330|         00 00 00 00 07 0c ab 52               |   .......R     |      [2]: "1973-09-30T21:00:02Z" (118270802) transition_time 0x333-0x33a.7 (8)
0x330|                                 00 00 00 00 08|           .....|      [3]: "1974-04-30T22:00:03Z" (136591203) transition_time 0x33b-0x342.7 (8)
0x340|24 37 63                                       |$7c             |
0x340|         00 00 00 00 08 ed de d3               |   ........     |      [4]: "1974-09-30T21:00:03Z" (149806803) transition_time 0x343-0x34a.7 (8)
0x340|                                 00 00 00 00 0a|           .....|      [5]: "1975-04-30T22:00:04Z" (168127204) transition_time 0x34b-0x352.7 (8)
0x350|05 6a e4                                       |.j.             |
0x350|         00 00 00 00 0a cf 12 54               |   .......T     |      [6]: "1975-09-30T21:00:04Z" (181342804) transition_time 0x353-0x35a.7 (8)
0x350|                                 00 00 00 00 0b|           .....|      [7]: "1976-04-30T22:00:05Z" (199749605) transition_time 0x35b-0x362.7 (8)
0x360|e7 ef e5                                       |...             |
0x360|         00 00 00 00 0c da 75 d5               |   ......u.     |      [8]: "1976-10-31T21:00:05Z" (215643605) transition_time 0x363-0x36a.7 (8)
0x360|                                 00 00 00 00 0d|           .....|      [9]: "1977-04-30T22:00:06Z" (231285606) transition_time 0x36b-0x372.7 (8)
0x370|c9 23 66                                       |.#f             |
0x370|         00 00 00 00 0e 92 ca d6               |   ........     |      [10]: "1977-09-30T21:00:06Z" (244501206) transition_time 0x373-0x37a.7 (8)
0x370|                                 00 00 00 00 0f|           .....|      [11]: "1978-04-29T22:00:07Z" (262735207) transition_time 0x37b-0x382.7 (8)
0x380|a9 05 67                                       |..g             |
0x380|         00 00 00 00 10 72 ac d7               |   .....r..     |      [12]: "1978-09-29T21:00:07Z" (275950807) transition_time 0x383-0x38a.7 (8)
0x380|                                 00 00 00 00 1c|           .....|      [13]: "1985-03-31T22:00:12Z" (481154412) transition_time 0x38b-0x392.7 (8)
0x390|ad d5 6c                                       |..l             |
0x390|         00 00 00 00 1d 9f 09 dd               |   ........     |      [14]: "1985-09-30T21:00:13Z" (496962013) transition_time 0x393-0x39a.7 (8)
0x390|                                 00 00 00 00 1e|           .....|      [15]: "1986-04-03T22:00:13Z" (512949613) transition_time 0x39b-0x3a2.7 (8)
0x3a0|92 fd 6d                                       |..m             |
0x3a0|         00 00 00 00 1f 82 e0 5d               |   .......]     |      [16]: "1986-10-02T21:00:13Z" (528670813) transition_time 0x3a3-0x3aa.7 (8)
0x3a0|                                 00 00 00 00 20|           .... |      [17]: "1987-04-02T22:00:13Z" (544399213) transition_time 0x3ab-0x3b2.7 (8)
0x3b0|72 df 6d                                       |r.m             |
0x3b0|         00 00 00 00 21 62 c2 5d               |   ....!b.]     |      [18]: "1987-10-01T21:00:13Z" (560120413) transition_time 0x3b3-0x3ba.7 (8)
0x3b0|                                 00 00 00 00 22|           ...."|      [19]: "1988-03-31T22:00:14Z" (575848814) transition_time 0x3bb-0x3c2.7 (8)
0x3c0|52 c1 6e                                       |R.n             |
0x3c0|         00 00 00 00 23 4b de de               |   ....#K..     |      [20]: "1988-10-06T21:00:14Z" (592174814) transition_time 0x3c3-0x3ca.7 (8)
0x3c0|                                 00 00 00 00 24|           ....$|      [21]: "1989-05-07T22:00:14Z" (610581614) transition_time 0x3cb-0x3d2.7 (8)
0x3d0|64 bc 6e                                       |d.n             |
0x3d0|         00 00 00 00 25 2b c0 de               |   ....%+..     |      [22]: "1989-10-05T21:00:14Z" (623624414) transition_time 0x3d3-0x3da.7 (8)
0x3d0|                                 00 00 00 00 26|           ....&|      [23]: "1990-04-26T22:00:15Z" (641167215) transition_time 0x3db-0x3e2.7 (8)
0x3e0|37 6f 6f                                       |7oo             |
0x3e0|         00 00 00 00 27 0b a2 df               |   ....'...     |      [24]: "1990-10-04T21:00:15Z" (655074015) transition_time 0x3e3-0x3ea.7 (8)
0x3e0|                                 00 00 00 00 28|           ....(|      [25]: "1991-04-16T22:00:16Z" (671839216) transition_time 0x3eb-0x3f2.7 (8)
0x3f0|0b 73 f0                                       |.s.             |
0x3f0|         00 00 00 00 28 e2 4a 60               |   ....(.J`     |      [26]: "1991-09-26T21:00:16Z" (685918816) transition_time 0x3f3-0x3fa.7 (8)
0x3f0|                                 00 00 00 00 29|           ....)|      [27]: "1992-04-09T22:00:16Z" (702856816) transition_time 0x3fb-0x402.7 (8)
0x400|e4 be 70                                       |..p             |
0x400|         00 00 00 00 2a cb 66 e1               |   ....*.f.     |      [28]: "1992-10-01T21:00:17Z" (717973217) transition_time 0x403-0x40a.7 (8)
0x400|                                 00 00 00 00 2b|           ....+|      [29]: "1993-04-01T22:00:17Z" (733701617) transition_time 0x40b-0x412.7 (8)
0x410|bb 65 f1                                       |.e.             |
0x410|         00 00 00 00 2c ab 48 e2               |   ....,.H.     |      [30]: "1993-09-30T21:00:18Z" (749422818) transition_time 0x413-0x41a.7 (8)
0x410|                                 00 00 00 00 2d|           ....-|      [31]: "1994-03-31T22:00:18Z" (765151218) transition_time 0x41b-0x422.7 (8)
0x420|9b 47 f2                                       |.G.             |
0x420|         00 00 00 00 2e 78 b5 e3               |   .....x..     |      [32]: "1994-09-15T21:00:19Z" (779662819) transition_time 0x423-0x42a.7 (8)
0x420|                                 00 00 00 00 2f|           ..../|      [33]: "1995-04-06T22:00:19Z" (797205619) transition_time 0x42b-0x432.7 (8)
0x430|84 64 73                                       |.ds             |
0x430|         00 00 00 00 30 58 a5 f3               |   ....0X..     |      [34]: "1995-09-14T22:00:19Z" (811116019) transition_time 0x433-0x43a.7 (8)
0x430|                                 00 00 00 00 31|           ....1|      [35]: "1996-04-04T22:00:20Z" (828655220) transition_time 0x43b-0x442.7 (8)
0x440|64 46 74                                       |dFt             |
0x440|         00 00 00 00 32 41 c2 74               |   ....2A.t     |      [36]: "1996-09-19T22:00:20Z" (843170420) transition_time 0x443-0x44a.7 (8)
0x440|                                 00 00 00 00 33|           ....3|      [37]: "1997-04-03T22:00:20Z" (860104820) transition_time 0x44b-0x452.7 (8)
0x450|44 28 74                                       |D(t             |
0x450|         00 00 00 00 34 21 a4 75               |   ....4!.u     |      [38]: "1997-09-18T22:00:21Z" (874620021) transition_time 0x453-0x45a.7 (8)
0x450|                                 00 00 00 00 35|           ....5|      [39]: "1998-04-02T22:00:21Z" (891554421) transition_time 0x45b-0x462.7 (8)
0x460|24 0a 75                                       |$.u             |
0x460|         00 00 00 00 36 01 86 75               |   ....6..u     |      [40]: "1998-09-17T22:00:21Z" (906069621) transition_time 0x463-0x46a.7 (8)
0x460|                                 00 00 00 00 37|           ....7|      [41]: "1999-06-30T22:00:22Z" (930780022) transition_time 0x46b-0x472.7 (8)
0x470|7a 93 76                                       |z.v             |
0x470|         00 00 00 00 37 ea a2 f6               |   ....7...     |      [42]: "1999-09-23T22:00:22Z" (938124022) transition_time 0x473-0x47a.7 (8)
0x470|                                 00 00 00 00 38|           ....8|      [43]: "2000-03-29T22:00:22Z" (954367222) transition_time 0x47b-0x482.7 (8)
0x480|e2 7c f6                                       |.|.             |
0x480|         00 00 00 00 39 d3 bf 76               |   ....9..v     |      [44]: "2000-09-28T22:00:22Z" (970178422) transition_time 0x483-0x48a.7 (8)
0x480|                                 00 00 00 00 3a|           ....:|      [45]: "2001-03-28T22:00:22Z" (985816822) transition_time 0x48b-0x492.7 (8)
0x490|c2 5e f6                                       |.^.             |
0x490|         00 00 00 00 3b b3 a1 76               |   ....;..v     |      [46]: "2001-09-27T22:00:22Z" (1001628022) transition_time 0x493-0x49a.7 (8)
0x490|                                 00 00 00 00 3c|           ....<|      [47]: "2002-03-28T22:00:22Z" (1017352822) transition_time 0x49b-0x4a2.7 (8)
0x4a0|a3 92 76                                       |..v             |
0x4a0|         00 00 00 00 3d 93 83 76               |   ....=..v     |      [48]: "2002-09-26T22:00:22Z" (1033077622) transition_time 0x4a3-0x4aa.7 (8)
0x4a0|                                 00 00 00 00 3e|           ....>|      [49]: "2003-03-27T22:00:22Z" (1048802422) transition_time 0x4ab-0x4b2.7 (8)
0x4b0|83 74 76                                       |.tv             |
0x4b0|         00 00 00 00 3f 98 4f 76               |   ....?.Ov     |      [50]: "2003-10-23T22:00:22Z" (1066946422) transition_time 0x4b3-0x4ba.7 (8)
0x4b0|                                 00 00 00 00 40|           ....@|      [51]: "2004-03-25T22:00:22Z" (1080252022) transition_time 0x4bb-0x4c2.7 (8)
0x4c0|63 56 76                                       |cVv             |
0x4c0|         00 00 00 00 41 6e f6 f6               |   ....An..     |      [52]: "2004-10-14T22:00:22Z" (1097791222) transition_time 0x4c3-0x4ca.7 (8)
0x4c0|                                 00 00 00 00 42|           ....B|      [53]: "2005-03-31T22:00:22Z" (1112306422) transition_time 0x4cb-0x4d2.7 (8)
0x4d0|4c 72 f6                                       |Lr.             |
0x4d0|         00 00 00 00 43 3c 63 f6               |   ....C<c.     |      [54]: "2005-09-29T22:00:22Z" (1128031222) transition_time 0x4d3-0x4da.7 (8)
0x4d0|                                 00 00 00 00 44|           ....D|      [55]: "2006-03-30T22:00:23Z" (1143756023) transition_time 0x4db-0x4e2.7 (8)
0x4e0|2c 54 f7                                       |,T.             |
0x4e0|         00 00 00 00 45 41 2f f7               |   ....EA/.     |      [56]: "2006-10-26T22:00:23Z" (1161900023) transition_time 0x4e3-0x4ea.7 (8)
0x4e0|                                 00 00 00 00 46|           ....F|      [57]: "2007-03-29T22:00:23Z" (1175205623) transition_time 0x4eb-0x4f2.7 (8)
0x4f0|0c 36 f7                                       |.6.             |
0x4f0|         00 00 00 00 47 21 11 f7               |   ....G!..     |      [58]: "2007-10-25T22:00:23Z" (1193349623) transition_time 0x4f3-0x4fa.7 (8)
0x4f0|                                 00 00 00 00 47|           ....G|      [59]: "2008-03-27T22:00:23Z" (1206655223) transition_time 0x4fb-0x502.7 (8)
0x500|ec 18 f7                                       |...             |
0x500|         00 00 00 00 49 0a 2e 77               |   ....I..w     |      [60]: "2008-10-30T22:00:23Z" (1225404023) transition_time 0x503-0x50a.7 (8)
0x500|                                 00 00 00 00 49|           ....I|      [61]: "2009-03-26T22:00:24Z" (1238104824) transition_time 0x50b-0x512.7 (8)
0x510|cb fa f8                                       |...             |
0x510|         00 00 00 00 4a ea 10 78               |   ....J..x     |      [62]: "2009-10-29T22:00:24Z" (1256853624) transition_time 0x513-0x51a.7 (8)
0x510|                                 00 00 00 00 4b|           ....K|      [63]: "2010-03-25T22:00:24Z" (1269554424) transition_time 0x51b-0x522.7 (8)
0x520|ab dc f8                                       |...             |
0x520|         00 00 00 00 4c c9 f2 78               |   ....L..x     |      [64]: "2010-10-28T22:00:24Z" (1288303224) transition_time 0x523-0x52a.7 (8)
0x520|                                 00 00 00 00 4d|           ....M|      [65]: "2011-03-31T22:00:24Z" (1301608824) transition_time 0x52b-0x532.7 (8)
0x530|94 f9 78                                       |..x             |
0x530|         00 00 00 00 4e a9 d4 78               |   ....N..x     |      [66]: "2011-10-27T22:00:24Z" (1319752824) transition_time 0x533-0x53a.7 (8)
0x530|                                 00 00 00 00 4f|           ....O|      [67]: "2012-03-29T22:00:24Z" (1333058424) transition_time 0x53b-0x542.7 (8)
0x540|74 db 78                                       |t.x             |
0x540|         00 00 00 00 52 b3 5e 69               |   ....R.^i     |      [68]: "2013-12-19T21:00:25Z" (1387486825) transition_time 0x543-0x54a.7 (8)
0x540|                                 00 00 00 00 53|           ....S|      [69]: "2014-03-27T22:00:25Z" (1395957625) transition_time 0x54b-0x552.7 (8)
0x550|34 9f 79                                       |4.y             |
0x550|         00 00 00 00 54 52 b4 f9               |   ....TR..     |      [70]: "2014-10-30T22:00:25Z" (1414706425) transition_time 0x553-0x55a.7 (8)
0x550|                                 00 00 00 00 55|           ....U|      [71]: "2015-03-26T22:00:25Z" (1427407225) transition_time 0x55b-0x562.7 (8)
0x560|14 81 79                                       |..y             |
0x560|         00 00 00 00 56 32 96 fa               |   ....V2..     |      [72]: "2015-10-29T22:00:26Z" (1446156026) transition_time 0x563-0x56a.7 (8)
0x560|                                 00 00 00 00 56|           ....V|      [73]: "2016-03-31T22:00:26Z" (1459461626) transition_time 0x56b-0x572.7 (8)
0x570|fd 9d fa                                       |...             |
0x570|         00 00 00 00 58 12 78 fa               |   ....X.x.     |      [74]: "2016-10-27T22:00:26Z" (1477605626) transition_time 0x573-0x57a.7 (8)
0x570|                                 00 00 00 00 58|           ....X|      [75]: "2017-03-30T22:00:27Z" (1490911227) transition_time 0x57b-0x582.7 (8)
0x580|dd 7f fb                                       |...             |
0x580|         00 00 00 00 59 f2 5a fb               |   ....Y.Z.     |      [76]: "2017-10-26T22:00:27Z" (1509055227) transition_time 0x583-0x58a.7 (8)
0x580|                                 00 00 00 00 5a|           ....Z|      [77]: "2018-03-29T22:00:27Z" (1522360827) transition_time 0x58b-0x592.7 (8)
0x590|bd 61 fb                                       |.a.             |
0x590|         00 00 00 00 5b d2 3c fb               |   ....[.<.     |      [78]: "2018-10-25T22:00:27Z" (1540504827) transition_time 0x593-0x59a.7 (8)
0x590|                                 00 00 00 00 5c|           ....\|      [79]: "2019-03-28T22:00:27Z" (1553810427) transition_time 0x59b-0x5a2.7 (8)
0x5a0|9d 43 fb                                       |.C.             |
0x5a0|         00 00 00 00 5d b2 1e fb               |   ....]...     |      [80]: "2019-10-24T22:00:27Z" (1571954427) transition_time 0x5a3-0x5aa.7 (8)
0x5a0|                                 00 00 00 00 5e|           ....^|      [81]: "2020-03-26T22:00:27Z" (1585260027) transition_time 0x5ab-0x5b2.7 (8)
0x5b0|7d 25 fb                                       |}%.             |
0x5b0|         00 00 00 00 5f 9b 3b 7b               |   ...._.;{     |      [82]: "2020-10-29T22:00:27Z" (1604008827) transition_time 0x5b3-0x5ba.7 (8)
0x5b0|                                 00 00 00 00 60|           ....`|      [83]: "2021-03-25T22:00:27Z" (1616709627) transition_time 0x5bb-0x5c2.7 (8)
0x5c0|5d 07 fb                                       |]..             |
0x5c0|         00 00 00 00 61 7b 1d 7b               |   ....a{.{     |      [84]: "2021-10-28T22:00:27Z" (1635458427) transition_time 0x5c3-0x5ca.7 (8)
0x5c0|                                 00 00 00 00 62|           ....b|      [85]: "2022-02-24T22:00:27Z" (1645740027) transition_time 0x5cb-0x5d2.7 (8)
0x5d0|17 ff fb                                       |...             |
0x5d0|         00 00 00 00 63 5a ff 7b               |   ....cZ.{     |      [86]: "2022-10-27T22:00:27Z" (1666908027) transition_time 0x5d3-0x5da.7 (8)
0x5d0|                                 00 00 00 00 64|           ....d|      [87]: "2023-06-28T00:00:27Z" (1687910427) transition_time 0x5db-0x5e2.7 (8)
0x5e0|9b 78 1b                                       |.x.             |
     |                                               |                |    transition_types[0:88]: 0x5e3-0x63a.7 (88)
0x5e0|         02                                    |   .            |      [0]: 2 transition_type 0x5e3-0x5e3.7 (1)
0x5e0|            01                                 |    .           |      [1]: 1 transition_type 0x5e4-0x5e4.7 (1)
0x5e0|               02                              |     .          |      [2]: 2 transition_type 0x5e5-0x5e5.7 (1)
0x5e0|                  01                           |      .         |      [3]: 1 transition_type 0x5e6-0x5e6.7 (1)
0x5e0|                     02                        |       .        |      [4]: 2 transition_type 0x5e7-0x5e7.7 (1)
0x5e0|                        01                     |        .       |      [5]: 1 transition_type 0x5e8-0x5e8.7 (1)
0x5e0|                           02                  |         .      |      [6]: 2 transition_type 0x5e9-0x5e9.7 (1)
0x5e0|                              01               |          .     |      [7]: 1 transition_type 0x5ea-0x5ea.7 (1)
0x5e0|                                 02            |           .    |      [8]: 2 transition_type 0x5eb-0x5eb.7 (1)
0x5e0|                                    01         |            .   |      [9]: 1 transition_type 0x5ec-0x5ec.7 (1)
0x5e0|                                       02      |             .  |      [10]: 2 transition_type 0x5ed-0x5ed.7 (1)
0x5e0|                                          01   |              . |      [11]: 1 transition_type 0x5ee-0x5ee.7 (1)
0x5e0|                                             02|               .|      [12]: 2 transition_type 0x5ef-0x5ef.7 (1)
0x5f0|01                                             |.               |      [13]: 1 transition_type 0x5f0-0x5f0.7 (1)
0x5f0|   02                                          | .              |      [14]: 2 transition_type 0x5f1-0x5f1.7 (1)
0x5f0|      01                                       |  .             |      [15]: 1 transition_type 0x5f2-0x5f2.7 (1)
0x5f0|         02                                    |   .            |      [16]: 2 transition_type 0x5f3-0x5f3.7 (1)
0x5f0|            01                                 |    .           |      [17]: 1 transition_type 0x5f4-0x5f4.7 (1)
0x5f0|               02                              |     .          |      [18]: 2 transition_type 0x5f5-0x5f5.7 (1)
0x5f0|                  01                           |      .         |      [19]: 1 transition_type 0x5f6-0x5f6.7 (1)
0x5f0|                     02                        |       .        |      [20]: 2 transition_type 0x5f7-0x5f7.7 (1)
0x5f0|                        01                     |        .       |      [21]: 1 transition_type 0x5f8-0x5f8.7 (1)
0x5f0|                           02                  |         .      |      [22]: 2 transition_type 0x5f9-0x5f9.7 (1)
0x5f0|                              01               |          .     |      [23]: 1 transition_type 0x5fa-0x5fa.7 (1)
0x5f0|                                 02            |           .    |      [24]: 2 transition_type 0x5fb-0x5fb.7 (1)
0x5f0|                                    01         |            .   |      [25]: 1 transition_type 0x5fc-0x5fc.7 (1)
0x5f0|                                       02      |             .  |      [26]: 2 transition_type 0x5fd-0x5fd.7 (1)
0x5f0|                                          01   |              . |      [27]: 1 transition_type 0x5fe-0x5fe.7 (1)
0x5f0|                                             02|               .|      [28]: 2 transition_type 0x5ff-0x5ff.7 (1)
0x600|01                                             |.               |      [29]: 1 transition_type 0x600-0x600.7 (1)
0x600|   02                                          | .              |      [30]: 2 transition_type 0x601-0x601.7 (1)
0x600|      01                                       |  .             |      [31]: 1 transition_type 0x602-0x602.7 (1)
0x600|         02                                    |   .            |      [32]: 2 transition_type 0x603-0x603.7 (1)
0x600|            01                                 |    .           |      [33]: 1 transition_type 0x604-0x604.7 (1)
0x600|               03                              |     .          |      [34]: 3 transition_type 0x605-0x605.7 (1)
0x600|                  01                           |      .         |      [35]: 1 transition_type 0x606-0x606.7 (1)
0x600|                     03                        |       .        |      [36]: 3 transition_type 0x607-0x607.7 (1)
0x600|                        01                     |        .       |      [37]: 1 transition_type 0x608-0x608.7 (1)
0x600|                           03                  |         .      |      [38]: 3 transition_type 0x609-0x609.7 (1)
0x600|                              01               |          .     |      [39]: 1 transition_type 0x60a-0x60a.7 (1)
0x600|                                 03            |           .    |      [40]: 3 transition_type 0x60b-0x60b.7 (1)
0x600|                                    04         |            .   |      [41]: 4 transition_type 0x60c-0x60c.7 (1)
0x600|                                       03      |             .  |      [42]: 3 transition_type 0x60d-0x60d.7 (1)
0x600|                                          04   |              . |      [43]: 4 transition_type 0x60e-0x60e.7 (1)
0x600|                                             03|               .|      [44]: 3 transition_type 0x60f-0x60f.7 (1)
0x610|04                                             |.               |      [45]: 4 transition_type 0x610-0x610.7 (1)
0x610|   03                                          | .              |      [46]: 3 transition_type 0x611-0x611.7 (1)
0x610|      01                                       |  .             |      [47]: 1 transition_type 0x612-0x612.7 (1)
0x610|         03                                    |   .            |      [48]: 3 transition_type 0x613-0x613.7 (1)
0x610|            01                                 |    .           |      [49]: 1 transition_type 0x614-0x614.7 (1)
0x610|               03                              |     .          |      [50]: 3 transition_type 0x615-0x615.7 (1)
0x610|                  01                           |      .         |      [51]: 1 transition_type 0x616-0x616.7 (1)
0x610|                     03                        |       .        |      [52]: 3 transition_type 0x617-0x617.7 (1)
0x610|                        01                     |        .       |      [53]: 1 transition_type 0x618-0x618.7 (1)
0x610|                           03                  |         .      |      [54]: 3 transition_type 0x619-0x619.7 (1)
0x610|                              01               |          .     |      [55]: 1 transition_type 0x61a-0x61a.7 (1)
0x610|                                 03            |           .    |      [56]: 3 transition_type 0x61b-0x61b.7 (1)
0x610|                                    01         |            .   |      [57]: 1 transition_type 0x61c-0x61c.7 (1)
0x610|                                       03      |             .  |      [58]: 3 transition_type 0x61d-0x61d.7 (1)
0x610|                                          01   |              . |      [59]: 1 transition_type 0x61e-0x61e.7 (1)
0x610|                                             03|               .|      [60]: 3 transition_type 0x61f-0x61f.7 (1)
0x620|01                                             |.               |      [61]: 1 transition_type 0x620-0x620.7 (1)
0x620|   03                                          | .              |      [62]: 3 transition_type 0x621-0x621.7 (1)
0x620|      01                                       |  .             |      [63]: 1 transition_type 0x622-0x622.7 (1)
0x620|         03                                    |   .            |      [64]: 3 transition_type 0x623-0x623.7 (1)
0x620|            01                                 |    .           |      [65]: 1 transition_type 0x624-0x624.7 (1)
0x620|               03                              |     .          |      [66]: 3 transition_type 0x625-0x625.7 (1)
0x620|                  01                           |      .         |      [67]: 1 transition_type 0x626-0x626.7 (1)
0x620|                     02                        |       .        |      [68]: 2 transition_type 0x627-0x627.7 (1)
0x620|                        01                     |        .       |      [69]: 1 transition_type 0x628-0x628.7 (1)
0x620|                           03                  |         .      |      [70]: 3 transition_type 0x629-0x629.7 (1)
0x620|                              01               |          .     |      [71]: 1 transition_type 0x62a-0x62a.7 (1)
0x620|                                 03            |           .    |      [72]: 3 transition_type 0x62b-0x62b.7 (1)
0x620|                                    01         |            .   |      [73]: 1 transition_type 0x62c-0x62c.7 (1)
0x620|                                       03      |             .  |      [74]: 3 transition_type 0x62d-0x62d.7 (1)
0x620|                                          01   |              . |      [75]: 1 transition_type 0x62e-0x62e.7 (1)
0x620|                                             03|               .|      [76]: 3 transition_type 0x62f-0x62f.7 (1)
0x630|01                                             |.               |      [77]: 1 transition_type 0x630-0x630.7 (1)
0x630|   03                                          | .              |      [78]: 3 transition_type 0x631-0x631.7 (1)
0x630|      01                                       |  .             |      [79]: 1 transition_type 0x632-0x632.7 (1)
0x630|         03                                    |   .            |      [80]: 3 transition_type 0x633-0x633.7 (1)
0x630|            01                                 |    .           |      [81]: 1 transition_type 0x634-0x634.7 (1)
0x630|               03                              |     .          |      [82]: 3 transition_type 0x635-0x635.7 (1)
0x630|                  01                           |      .         |      [83]: 1 transition_type 0x636-0x636.7 (1)
0x630|                     03                        |       .        |      [84]: 3 transition_type 0x637-0x637.7 (1)
0x630|                        01                     |        .       |      [85]: 1 transition_type 0x638-0x638.7 (1)
0x630|                           05                  |         .      |      [86]: 5 transition_type 0x639-0x639.7 (1)
0x630|                              05               |          .     |      [87]: 5 transition_type 0x63a-0x63a.7 (1)
     |                                               |                |    local_time_type_records[0:6]: 0x63b-0x65e.7 (36)
     |                                               |                |      [0]{}: local_time_type 0x63b-0x640.7 (6)
0x630|                                 00 00 21 b0   |           ..!. |        utoff: 8624 (valid) 0x63b-0x63e.7 (4)
0x630|                                             00|               .|        dst: 0 (valid) 0x63f-0x63f.7 (1)
0x640|00                                             |.               |        idx: 0 (valid) 0x640-0x640.7 (1)
     |                                               |                |      [1]{}: local_time_type 0x641-0x646.7 (6)
0x640|   00 00 2a 30                                 | ..*0           |        utoff: 10800 (valid) 0x641-0x644.7 (4)
0x640|               01                              |     .          |        dst: 1 (valid) 0x645-0x645.7 (1)
0x640|                  04                           |      .         |        idx: 4 (valid) 0x646-0x646.7 (1)
     |                                               |                |      [2]{}: local_time_type 0x647-0x64c.7 (6)
0x640|                     00 00 1c 20               |       ...      |        utoff: 7200 (valid) 0x647-0x64a.7 (4)
0x640|                                 00            |           .    |        dst: 0 (valid) 0x64b-0x64b.7 (1)
0x640|                                    09         |            .   |        idx: 9 (valid) 0x64c-0x64c.7 (1)
     |                                               |                |      [3]{}: local_time_type 0x64d-0x652.7 (6)
0x640|                                       00 00 1c|             ...|        utoff: 7200 (valid) 0x64d-0x650.7 (4)
0x650|20                                             |                |
0x650|   00                                          | .              |        dst: 0 (valid) 0x651-0x651.7 (1)
0x650|      09                                       |  .             |        idx: 9 (valid) 0x652-0x652.7 (1)
     |                                               |                |      [4]{}: local_time_type 0x653-0x658.7 (6)
0x650|         00 00 2a 30                           |   ..*0         |        utoff: 10800 (valid) 0x653-0x656.7 (4)
0x650|                     01                        |       .        |        dst: 1 (valid) 0x657-0x657.7 (1)
0x650|                        04                     |        .       |        idx: 4 (valid) 0x658-0x658.7 (1)
     |                                               |                |      [5]{}: local_time_type 0x659-0x65e.7 (6)
0x650|                           00 00 2a 30         |         ..*0   |        utoff: 10800 (valid) 0x659-0x65c.7 (4)
0x650|                                       00      |             .  |        dst: 0 (valid) 0x65d-0x65d.7 (1)
0x650|                                          0d   |              . |        idx: 13 (valid) 0x65e-0x65e.7 (1)
     |                                               |                |    time_zone_designations[0:4]: 0x65f-0x66f.7 (17)
0x650|                                             4c|               L|      [0]: "LMT" time_zone_designation 0x65f-0x662.7 (4)
0x660|4d 54 00                                       |MT.             |
0x660|         45 45 53 54 00                        |   EEST.        |      [1]: "EEST" time_zone_designation 0x663-0x667.7 (5)
0x660|                        45 45 54 00            |        EET.    |      [2]: "EET" time_zone_designation 0x668-0x66b.7 (4)
0x660|                                    2b 30 33 00|            +03.|      [3]: "+03" time_zone_designation 0x66c-0x66f.7 (4)
     |                                               |                |    leap_second_records[0:27]: 0x670-0x7b3.7 (324)
     |                                               |                |      [0]{}: leap_second_record 0x670-0x67b.7 (12)
0x670|00 00 00 00 04 b2 58 00                        |......X.        |        occur: "1972-07-01T00:00:00Z" (78796800) 0x670-0x677.7 (8)
0x670|                        00 00 00 01            |        ....    |        corr: 1 0x678-0x67b.7 (4)
     |                                               |                |      [1]{}: leap_second_record 0x67c-0x687.7 (12)
0x670|                                    00 00 00 00|            ....|        occur: "1973-01-01T00:00:01Z" (94694401) 0x67c-0x683.7 (8)
0x680|05 a4 ec 01                                    |....            |
0x680|            00 00 00 02                        |    ....        |        corr: 2 0x684-0x687.7 (4)
     |                                               |                |      [2]{}: leap_second_record 0x688-0x693.7 (12)
0x680|                        00 00 00 00 07 86 1f 82|        ........|        occur: "1974-01-01T00:00:02Z" (126230402) 0x688-0x68f.7 (8)
0x690|00 00 00 03                                    |....            |        corr: 3 0x690-0x693.7 (4)
     |                                               |                |      [3]{}: leap_second_record 0x694-0x69f.7 (12)
0x690|            00 00 00 00 09 67 53 03            |    .....gS.    |        occur: "1975-01-01T00:00:03Z" (157766403) 0x694-0x69b.7 (8)
0x690|                                    00 00 00 04|            ....|        corr: 4 0x69c-0x69f.7 (4)
     |                                               |                |      [4]{}: leap_second_record 0x6a0-0x6ab.7 (12)
0x6a0|00 00 00 00 0b 48 86 84                        |.....H..        |        occur: "1976-01-01T00:00:04Z" (189302404) 0x6a0-0x6a7.7 (8)
0x6a0|                        00 00 00 05            |        ....    |        corr: 5 0x6a8-0x6ab.7 (4)
     |                                               |                |      [5]{}: leap_second_record 0x6ac-0x6b7.7 (12)
0x6a0|                                    00 00 00 00|            ....|        occur: "1977-01-01T00:00:05Z" (220924805) 0x6ac-0x6b3.7 (8)
0x6b0|0d 2b 0b 85                                    |.+..            |
0x6b0|            00 00 00 06                        |    ....        |        corr: 6 0x6b4-0x6b7.7 (4)
     |                                               |                |      [6]{}: leap_second_record 0x6b8-0x6c3.7 (12)
0x6b0|                        00 00 00 00 0f 0c 3f 06|        ......?.|        occur: "1978-01-01T00:00:06Z" (252460806) 0x6b8-0x6bf.7 (8)
0x6c0|00 00 00 07                                    |....            |        corr: 7 0x6c0-0x6c3.7 (4)
     |                                               |                |      [7]{}: leap_second_record 0x6c4-0x6cf.7 (12)
0x6c0|            00 00 00 00 10 ed 72 87            |    ......r.    |        occur: "1979-01-01T00:00:07Z" (283996807) 0x6c4-0x6cb.7 (8)
0x6c0|                                    00 00 00 08|            ....|        corr: 8 0x6cc-0x6cf.7 (4)
     |                                               |                |      [8]{}: leap_second_record 0x6d0-0x6db.7 (12)
0x6d0|00 00 00 00 12 ce a6 08                        |........        |        occur: "1980-01-01T00:00:08Z" (315532808) 0x6d0-0x6d7.7 (8)
0x6d0|                        00 00 00 09            |        ....    |        corr: 9 0x6d8-0x6db.7 (4)
     |                                               |                |      [9]{}: leap_second_record 0x6dc-0x6e7.7 (12)
0x6d0|                                    00 00 00 00|            ....|        occur: "1981-07-01T00:00:09Z" (362793609) 0x6dc-0x6e3.7 (8)
0x6e0|15 9f ca 89                                    |....            |
0x6e0|            00 00 00 0a                        |    ....        |        corr: 10 0x6e4-0x6e7.7 (4)
     |                                               |                |      [10]{}: leap_second_record 0x6e8-0x6f3.7 (12)
0x6e0|                        00 00 00 00 17 80 fe 0a|        ........|        occur: "1982-07-01T00:00:10Z" (394329610) 0x6e8-0x6ef.7 (8)
0x6f0|00 00 00 0b                                    |....            |        corr: 11 0x6f0-0x6f3.7 (4)
     |                                               |                |      [11]{}: leap_second_record 0x6f4-0x6ff.7 (12)
0x6f0|            00 00 00 00 19 62 31 8b            |    .....b1.    |        occur: "1983-07-01T00:00:11Z" (425865611) 0x6f4-0x6fb.7 (8)
0x6f0|                                    00 00 00 0c|            ....|        corr: 12 0x6fc-0x6ff.7 (4)
     |                                               |                |      [12]{}: leap_second_record 0x700-0x70b.7 (12)
0x700|00 00 00 00 1d 25 ea 0c                        |.....%..        |        occur: "1985-07-01T00:00:12Z" (489024012) 0x700-0x707.7 (8)
0x700|                        00 00 00 0d            |        ....    |        corr: 13 0x708-0x70b.7 (4)
     |                                               |                |      [13]{}: leap_second_record 0x70c-0x717.7 (12)
0x700|                                    00 00 00 00|            ....|        occur: "1988-01-01T00:00:13Z" (567993613) 0x70c-0x713.7 (8)
0x710|21 da e5 0d                                    |!...            |
0x710|            00 00 00 0e                        |    ....        |        corr: 14 0x714-0x717.7 (4)
     |                                               |                |      [14]{}: leap_second_record 0x718-0x723.7 (12)
0x710|                        00 00 00 00 25 9e 9d 8e|        ....%...|        occur: "1990-01-01T00:00:14Z" (631152014) 0x718-0x71f.7 (8)
0x720|00 00 00 0f                                    |....            |        corr: 15 0x720-0x723.7 (4)
     |                                               |                |      [15]{}: leap_second_record 0x724-0x72f.7 (12)
0x720|            00 00 00 00 27 7f d1 0f            |    ....'...    |        occur: "1991-01-01T00:00:15Z" (662688015) 0x724-0x72b.7 (8)
0x720|                                    00 00 00 10|            ....|        corr: 16 0x72c-0x72f.7 (4)
     |                                               |                |      [16]{}: leap_second_record 0x730-0x73b.7 (12)
0x730|00 00 00 00 2a 50 f5 90                        |....*P..        |        occur: "1992-07-01T00:00:16Z" (709948816) 0x730-0x737.7 (8)
0x730|                        00 00 00 11            |        ....    |        corr: 17 0x738-0x73b.7 (4)
     |                                               |                |      [17]{}: leap_second_record 0x73c-0x747.7 (12)
0x730|                                    00 00 00 00|            ....|        occur: "1993-07-01T00:00:17Z" (741484817) 0x73c-0x743.7 (8)
0x740|2c 32 29 11                                    |,2).            |
0x740|            00 00 00 12                        |    ....        |        corr: 18 0x744-0x747.7 (4)
     |                                               |                |      [18]{}: leap_second_record 0x748-0x753.7 (12)
0x740|                        00 00 00 00 2e 13 5c 92|        ......\.|        occur: "1994-07-01T00:00:18Z" (773020818) 0x748-0x74f.7 (8)
0x750|00 00 00 13                                    |....            |        corr: 19 0x750-0x753.7 (4)
     |                                               |                |      [19]{}: leap_second_record 0x754-0x75f.7 (12)
0x750|            00 00 00 00 30 e7 24 13            |    ....0.$.    |        occur: "1996-01-01T00:00:19Z" (820454419) 0x754-0x75b.7 (8)
0x750|                                    00 00 00 14|            ....|        corr: 20 0x75c-0x75f.7 (4)
     |                                               |                |      [20]{}: leap_second_record 0x760-0x76b.7 (12)
0x760|00 00 00 00 33 b8 48 94                        |....3.H.        |        occur: "1997-07-01T00:00:20Z" (867715220) 0x760-0x767.7 (8)
0x760|                        00 00 00 15            |        ....    |        corr: 21 0x768-0x76b.7 (4)
     |                                               |                |      [21]{}: leap_second_record 0x76c-0x777.7 (12)
0x760|                                    00 00 00 00|            ....|        occur: "1999-01-01T00:00:21Z" (915148821) 0x76c-0x773.7 (8)
0x770|36 8c 10 15                                    |6...            |
0x770|            00 00 00 16                        |    ....        |        corr: 22 0x774-0x777.7 (4)
     |                                               |                |      [22]{}: leap_second_record 0x778-0x783.7 (12)
0x770|                        00 00 00 00 43 b7 1b 96|        ....C...|        occur: "2006-01-01T00:00:22Z" (1136073622) 0x778-0x77f.7 (8)
0x780|00 00 00 17                                    |....            |        corr: 23 0x780-0x783.7 (4)
     |                                               |                |      [23]{}: leap_second_record 0x784-0x78f.7 (12)
0x780|            00 00 00 00 49 5c 07 97            |    ....I\..    |        occur: "2009-01-01T00:00:23Z" (1230768023) 0x784-0x78b.7 (8)
0x780|                                    00 00 00 18|            ....|        corr: 24 0x78c-0x78f.7 (4)
     |                                               |                |      [24]{}: leap_second_record 0x790-0x79b.7 (12)
0x790|00 00 00 00 4f ef 93 18                        |....O...        |        occur: "2012-07-01T00:00:24Z" (1341100824) 0x790-0x797.7 (8)
0x790|                        00 00 00 19            |        ....    |        corr: 25 0x798-0x79b.7 (4)
     |                                               |                |      [25]{}: leap_second_record 0x79c-0x7a7.7 (12)
0x790|                                    00 00 00 00|            ....|        occur: "2015-07-01T00:00:25Z" (1435708825) 0x79c-0x7a3.7 (8)
0x7a0|55 93 2d 99                                    |U.-.            |
0x7a0|            00 00 00 1a                        |    ....        |        corr: 26 0x7a4-0x7a7.7 (4)
     |                                               |                |      [26]{}: leap_second_record 0x7a8-0x7b3.7 (12)
0x7a0|                        00 00 00 00 58 68 46 9a|        ....XhF.|        occur: "2017-01-01T00:00:26Z" (1483228826) 0x7a8-0x7af.7 (8)
0x7b0|00 00 00 1b                                    |....            |        corr: 27 0x7b0-0x7b3.7 (4)
     |                                               |                |    standard_wall_indicators[0:6]: 0x7b4-0x7b9.7 (6)
0x7b0|            00                                 |    .           |      [0]: 0 standard_wall_indicator (valid) 0x7b4-0x7b4.7 (1)
0x7b0|               00                              |     .          |      [1]: 0 standard_wall_indicator (valid) 0x7b5-0x7b5.7 (1)
0x7b0|                  00                           |      .         |      [2]: 0 standard_wall_indicator (valid) 0x7b6-0x7b6.7 (1)
0x7b0|                     01                        |       .        |      [3]: 1 standard_wall_indicator (valid) 0x7b7-0x7b7.7 (1)
0x7b0|                        01                     |        .       |      [4]: 1 standard_wall_indicator (valid) 0x7b8-0x7b8.7 (1)
0x7b0|                           01                  |         .      |      [5]: 1 standard_wall_indicator (valid) 0x7b9-0x7b9.7 (1)
     |                                               |                |    ut_local_indicators[0:0]: 0x7ba-NA (0)
     |                                               |                |  footer{}: 0x7ba-0x7bb.7 (2)
0x7b0|                              0a               |          .     |    nl1: 10 (valid) 0x7ba-0x7ba.7 (1)
     |                                               |                |    tz_string: "" 0x7bb-NA (0)
0x7b0|                                 0a|           |           .|   |    nl2: 10 (valid) 0x7bb-0x7bb.7 (1)
