$ fq -d tzif dv Anadyr
     |00 01 02 03 04 05 06 07 08 09 0a 0b 0c 0d 0e 0f|0123456789abcdef|.{}: Anadyr (tzif) 0x0-0x6b8 (1720)
     |                                               |                |  v1header{}: 0x0-0x2c (44)
0x000|54 5a 69 66                                    |TZif            |    magic: 0x545a6966 (valid) 0x0-0x4 (4)
0x000|            32                                 |    2           |    ver: "2" (0x32) (valid) 0x4-0x5 (1)
0x000|               00 00 00 00 00 00 00 00 00 00 00|     ...........|    reserved: raw bits 0x5-0x14 (15)
0x010|00 00 00 00                                    |....            |
0x010|            00 00 00 00                        |    ....        |    isutcnt: 0 0x14-0x18 (4)
0x010|                        00 00 00 0a            |        ....    |    isstdcnt: 10 0x18-0x1c (4)
0x010|                                    00 00 00 1b|            ....|    leapcnt: 27 0x1c-0x20 (4)
0x020|00 00 00 41                                    |...A            |    timecnt: 65 0x20-0x24 (4)
0x020|            00 00 00 0a                        |    ....        |    typecnt: 10 0x24-0x28 (4)
0x020|                        00 00 00 14            |        ....    |    charcnt: 20 0x28-0x2c (4)
     |                                               |                |  v1datablock{}: 0x2c-0x2a3 (631)
     |                                               |                |    transition_times[0:65]: 0x2c-0x130 (260)
0x020|                                    aa 19 1d 9c|            ....|      [0]: "1924-05-01T12:10:04Z" (-1441194596) transition_time 0x2c-0x30 (4)
0x030|b5 a3 8c c0                                    |....            |      [1]: "1930-06-20T12:00:00Z" (-1247572800) transition_time 0x30-0x34 (4)
0x030|            15 27 1b 39                        |    .'.9        |      [2]: "1981-03-31T11:00:09Z" (354884409) transition_time 0x34-0x38 (4)
0x030|                        16 18 4f aa            |        ..O.    |      [3]: "1981-09-30T10:00:10Z" (370692010) transition_time 0x38-0x3c (4)
0x030|                                    17 08 4e ba|            ..N.|      [4]: "1982-03-31T11:00:10Z" (386420410) transition_time 0x3c-0x40 (4)
0x040|17 f9 91 3b                                    |...;            |      [5]: "1982-09-30T11:00:11Z" (402231611) transition_time 0x40-0x44 (4)
0x040|            18 e9 90 4b                        |    ...K        |      [6]: "1983-03-31T12:00:11Z" (417960011) transition_time 0x44-0x48 (4)
0x040|                        19 da c4 bc            |        ....    |      [7]: "1983-09-30T11:00:12Z" (433767612) transition_time 0x48-0x4c (4)
0x040|                                    1a cc 15 4c|            ...L|      [8]: "1984-03-31T12:00:12Z" (449582412) transition_time 0x4c-0x50 (4)
0x050|1b bc 22 6c                                    |.."l            |      [9]: "1984-09-29T14:00:12Z" (465314412) transition_time 0x50-0x54 (4)
0x050|            1c ac 13 6c                        |    ...l        |      [10]: "1985-03-30T14:00:12Z" (481039212) transition_time 0x54-0x58 (4)
0x050|                        1d 9c 04 6d            |        ...m    |      [11]: "1985-09-28T14:00:13Z" (496764013) transition_time 0x58-0x5c (4)
0x050|                                    1e 8b f5 6d|            ...m|      [12]: "1986-03-29T14:00:13Z" (512488813) transition_time 0x5c-0x60 (4)
0x060|1f 7b e6 6d                                    |.{.m            |      [13]: "1986-09-27T14:00:13Z" (528213613) transition_time 0x60-0x64 (4)
0x060|            20 6b d7 6d                        |     k.m        |      [14]: "1987-03-28T14:00:13Z" (543938413) transition_time 0x64-0x68 (4)
0x060|                        21 5b c8 6d            |        ![.m    |      [15]: "1987-09-26T14:00:13Z" (559663213) transition_time 0x68-0x6c (4)
0x060|                                    22 4b b9 6e|            "K.n|      [16]: "1988-03-26T14:00:14Z" (575388014) transition_time 0x6c-0x70 (4)
0x070|23 3b aa 6e                                    |#;.n            |      [17]: "1988-09-24T14:00:14Z" (591112814) transition_time 0x70-0x74 (4)
0x070|            24 2b 9b 6e                        |    $+.n        |      [18]: "1989-03-25T14:00:14Z" (606837614) transition_time 0x74-0x78 (4)
0x070|                        25 1b 8c 6e            |        %..n    |      [19]: "1989-09-23T14:00:14Z" (622562414) transition_time 0x78-0x7c (4)
0x070|                                    26 0b 7d 6f|            &.}o|      [20]: "1990-03-24T14:00:15Z" (638287215) transition_time 0x7c-0x80 (4)
0x080|27 04 a8 ef                                    |'...            |      [21]: "1990-09-29T14:00:15Z" (654616815) transition_time 0x80-0x84 (4)
0x080|            27 f4 99 f0                        |    '...        |      [22]: "1991-03-30T14:00:16Z" (670341616) transition_time 0x84-0x88 (4)
0x080|                        28 e4 99 00            |        (...    |      [23]: "1991-09-28T15:00:16Z" (686070016) transition_time 0x88-0x8c (4)
0x080|                                    29 78 41 00|            )xA.|      [24]: "1992-01-18T15:00:16Z" (695746816) transition_time 0x8c-0x90 (4)
0x090|29 d4 7b f0                                    |).{.            |      [25]: "1992-03-28T14:00:16Z" (701791216) transition_time 0x90-0x94 (4)
0x090|            2a c4 6c f1                        |    *.l.        |      [26]: "1992-09-26T14:00:17Z" (717516017) transition_time 0x94-0x98 (4)
0x090|                        2b b4 5d f1            |        +.].    |      [27]: "1993-03-27T14:00:17Z" (733240817) transition_time 0x98-0x9c (4)
0x090|                                    2c a4 4e f2|            ,.N.|      [28]: "1993-09-25T14:00:18Z" (748965618) transition_time 0x9c-0xa0 (4)
0x0a0|2d 94 3f f2                                    |-.?.            |      [29]: "1994-03-26T14:00:18Z" (764690418) transition_time 0xa0-0xa4 (4)
0x0a0|            2e 84 30 f3                        |    ..0.        |      [30]: "1994-09-24T14:00:19Z" (780415219) transition_time 0xa4-0xa8 (4)
0x0a0|                        2f 74 21 f3            |        /t!.    |      [31]: "1995-03-25T14:00:19Z" (796140019) transition_time 0xa8-0xac (4)
0x0a0|                                    30 64 12 f3|            0d..|      [32]: "1995-09-23T14:00:19Z" (811864819) transition_time 0xac-0xb0 (4)
0x0b0|31 5d 3e 74                                    |1]>t            |      [33]: "1996-03-30T14:00:20Z" (828194420) transition_time 0xb0-0xb4 (4)
0x0b0|            32 72 19 74                        |    2r.t        |      [34]: "1996-10-26T14:00:20Z" (846338420) transition_time 0xb4-0xb8 (4)
0x0b0|                        33 3d 20 74            |        3= t    |      [35]: "1997-03-29T14:00:20Z" (859644020) transition_time 0xb8-0xbc (4)
0x0b0|                                    34 51 fb 75|            4Q.u|      [36]: "1997-10-25T14:00:21Z" (877788021) transition_time 0xbc-0xc0 (4)
0x0c0|35 1d 02 75                                    |5..u            |      [37]: "1998-03-28T14:00:21Z" (891093621) transition_time 0xc0-0xc4 (4)
0x0c0|            36 31 dd 75                        |    61.u        |      [38]: "1998-10-24T14:00:21Z" (909237621) transition_time 0xc4-0xc8 (4)
0x0c0|                        36 fc e4 76            |        6..v    |      [39]: "1999-03-27T14:00:22Z" (922543222) transition_time 0xc8-0xcc (4)
0x0c0|                                    38 1a f9 f6|            8...|      [40]: "1999-10-30T14:00:22Z" (941292022) transition_time 0xcc-0xd0 (4)
0x0d0|38 dc c6 76                                    |8..v            |      [41]: "2000-03-25T14:00:22Z" (953992822) transition_time 0xd0-0xd4 (4)
0x0d0|            39 fa db f6                        |    9...        |      [42]: "2000-10-28T14:00:22Z" (972741622) transition_time 0xd4-0xd8 (4)
0x0d0|                        3a bc a8 76            |        :..v    |      [43]: "2001-03-24T14:00:22Z" (985442422) transition_time 0xd8-0xdc (4)
0x0d0|                                    3b da bd f6|            ;...|      [44]: "2001-10-27T14:00:22Z" (1004191222) transition_time 0xdc-0xe0 (4)
0x0e0|3c a5 c4 f6                                    |<...            |      [45]: "2002-03-30T14:00:22Z" (1017496822) transition_time 0xe0-0xe4 (4)
0x0e0|            3d ba 9f f6                        |    =...        |      [46]: "2002-10-26T14:00:22Z" (1035640822) transition_time 0xe4-0xe8 (4)
0x0e0|                        3e 85 a6 f6            |        >...    |      [47]: "2003-03-29T14:00:22Z" (1048946422) transition_time 0xe8-0xec (4)
0x0e0|                                    3f 9a 81 f6|            ?...|      [48]: "2003-10-25T14:00:22Z" (1067090422) transition_time 0xec-0xf0 (4)
0x0f0|40 65 88 f6                                    |@e..            |      [49]: "2004-03-27T14:00:22Z" (1080396022) transition_time 0xf0-0xf4 (4)
0x0f0|            41 83 9e 76                        |    A..v        |      [50]: "2004-10-30T14:00:22Z" (1099144822) transition_time 0xf4-0xf8 (4)
0x0f0|                        42 45 6a f6            |        BEj.    |      [51]: "2005-03-26T14:00:22Z" (1111845622) transition_time 0xf8-0xfc (4)
0x0f0|                                    43 63 80 76|            Cc.v|      [52]: "2005-10-29T14:00:22Z" (1130594422) transition_time 0xfc-0x100 (4)
0x100|44 25 4c f7                                    |D%L.            |      [53]: "2006-03-25T14:00:23Z" (1143295223) transition_time 0x100-0x104 (4)
0x100|            45 43 62 77                        |    ECbw        |      [54]: "2006-10-28T14:00:23Z" (1162044023) transition_time 0x104-0x108 (4)
0x100|                        46 05 2e f7            |        F...    |      [55]: "2007-03-24T14:00:23Z" (1174744823) transition_time 0x108-0x10c (4)
0x100|                                    47 23 44 77|            G#Dw|      [56]: "2007-10-27T14:00:23Z" (1193493623) transition_time 0x10c-0x110 (4)
0x110|47 ee 4b 77                                    |G.Kw            |      [57]: "2008-03-29T14:00:23Z" (1206799223) transition_time 0x110-0x114 (4)
0x110|            49 03 26 77                        |    I.&w        |      [58]: "2008-10-25T14:00:23Z" (1224943223) transition_time 0x114-0x118 (4)
0x110|                        49 ce 2d 78            |        I.-x    |      [59]: "2009-03-28T14:00:24Z" (1238248824) transition_time 0x118-0x11c (4)
0x110|                                    4a e3 08 78|            J..x|      [60]: "2009-10-24T14:00:24Z" (1256392824) transition_time 0x11c-0x120 (4)
0x120|4b ae 0f 78                                    |K..x            |      [61]: "2010-03-27T14:00:24Z" (1269698424) transition_time 0x120-0x124 (4)
0x120|            4c cc 33 08                        |    L.3.        |      [62]: "2010-10-30T15:00:24Z" (1288450824) transition_time 0x124-0x128 (4)
0x120|                        4d 8d ff 88            |        M...    |      [63]: "2011-03-26T15:00:24Z" (1301151624) transition_time 0x128-0x12c (4)
0x120|                                    64 9b 78 1b|            d.x.|      [64]: "2023-06-28T00:00:27Z" (1687910427) transition_time 0x12c-0x130 (4)
     |                                               |                |    transition_types[0:65]: 0x130-0x171 (65)
0x130|01                                             |.               |      [0]: 1 transition_type 0x130-0x131 (1)
0x130|   03                                          | .              |      [1]: 3 transition_type 0x131-0x132 (1)
0x130|      02                                       |  .             |      [2]: 2 transition_type 0x132-0x133 (1)
0x130|         03                                    |   .            |      [3]: 3 transition_type 0x133-0x134 (1)
0x130|            04                                 |    .           |      [4]: 4 transition_type 0x134-0x135 (1)
0x130|               01                              |     .          |      [5]: 1 transition_type 0x135-0x136 (1)
0x130|                  04                           |      .         |      [6]: 4 transition_type 0x136-0x137 (1)
0x130|                     01                        |       .        |      [7]: 1 transition_type 0x137-0x138 (1)
0x130|                        04                     |        .       |      [8]: 4 transition_type 0x138-0x139 (1)
0x130|                           05                  |         .      |      [9]: 5 transition_type 0x139-0x13a (1)
0x130|                              06               |          .     |      [10]: 6 transition_type 0x13a-0x13b (1)
0x130|                                 05            |           .    |      [11]: 5 transition_type 0x13b-0x13c (1)
0x130|                                    06         |            .   |      [12]: 6 transition_type 0x13c-0x13d (1)
0x130|                                       05      |             .  |      [13]: 5 transition_type 0x13d-0x13e (1)
0x130|                                          06   |              . |      [14]: 6 transition_type 0x13e-0x13f (1)
0x130|                                             05|               .|      [15]: 5 transition_type 0x13f-0x140 (1)
0x140|06                                             |.               |      [16]: 6 transition_type 0x140-0x141 (1)
0x140|   05                                          | .              |      [17]: 5 transition_type 0x141-0x142 (1)
0x140|      06                                       |  .             |      [18]: 6 transition_type 0x142-0x143 (1)
0x140|         05                                    |   .            |      [19]: 5 transition_type 0x143-0x144 (1)
0x140|            06                                 |    .           |      [20]: 6 transition_type 0x144-0x145 (1)
0x140|               05                              |     .          |      [21]: 5 transition_type 0x145-0x146 (1)
0x140|                  07                           |      .         |      [22]: 7 transition_type 0x146-0x147 (1)
0x140|                     08                        |       .        |      [23]: 8 transition_type 0x147-0x148 (1)
0x140|                        05                     |        .       |      [24]: 5 transition_type 0x148-0x149 (1)
0x140|                           06                  |         .      |      [25]: 6 transition_type 0x149-0x14a (1)
0x140|                              05               |          .     |      [26]: 5 transition_type 0x14a-0x14b (1)
0x140|                                 06            |           .    |      [27]: 6 transition_type 0x14b-0x14c (1)
0x140|                                    05         |            .   |      [28]: 5 transition_type 0x14c-0x14d (1)
0x140|                                       06      |             .  |      [29]: 6 transition_type 0x14d-0x14e (1)
0x140|                                          05   |              . |      [30]: 5 transition_type 0x14e-0x14f (1)
0x140|                                             06|               .|      [31]: 6 transition_type 0x14f-0x150 (1)
0x150|05                                             |.               |      [32]: 5 transition_type 0x150-0x151 (1)
0x150|   06                                          | .              |      [33]: 6 transition_type 0x151-0x152 (1)
0x150|      05                                       |  .             |      [34]: 5 transition_type 0x152-0x153 (1)
0x150|         06                                    |   .            |      [35]: 6 transition_type 0x153-0x154 (1)
0x150|            05                                 |    .           |      [36]: 5 transition_type 0x154-0x155 (1)
0x150|               06                              |     .          |      [37]: 6 transition_type 0x155-0x156 (1)
0x150|                  05                           |      .         |      [38]: 5 transition_type 0x156-0x157 (1)
0x150|                     06                        |       .        |      [39]: 6 transition_type 0x157-0x158 (1)
0x150|                        05                     |        .       |      [40]: 5 transition_type 0x158-0x159 (1)
0x150|                           06                  |         .      |      [41]: 6 transition_type 0x159-0x15a (1)
0x150|                              05               |          .     |      [42]: 5 transition_type 0x15a-0x15b (1)
0x150|                                 06            |           .    |      [43]: 6 transition_type 0x15b-0x15c (1)
0x150|                                    05         |            .   |      [44]: 5 transition_type 0x15c-0x15d (1)
0x150|                                       06      |             .  |      [45]: 6 transition_type 0x15d-0x15e (1)
0x150|                                          05   |              . |      [46]: 5 transition_type 0x15e-0x15f (1)
0x150|                                             06|               .|      [47]: 6 transition_type 0x15f-0x160 (1)
0x160|05                                             |.               |      [48]: 5 transition_type 0x160-0x161 (1)
0x160|   06                                          | .              |      [49]: 6 transition_type 0x161-0x162 (1)
0x160|      05                                       |  .             |      [50]: 5 transition_type 0x162-0x163 (1)
0x160|         06                                    |   .            |      [51]: 6 transition_type 0x163-0x164 (1)
0x160|            05                                 |    .           |      [52]: 5 transition_type 0x164-0x165 (1)
0x160|               06                              |     .          |      [53]: 6 transition_type 0x165-0x166 (1)
0x160|                  05                           |      .         |      [54]: 5 transition_type 0x166-0x167 (1)
0x160|                     06                        |       .        |      [55]: 6 transition_type 0x167-0x168 (1)
0x160|                        05                     |        .       |      [56]: 5 transition_type 0x168-0x169 (1)
0x160|                           06                  |         .      |      [57]: 6 transition_type 0x169-0x16a (1)
0x160|                              05               |          .     |      [58]: 5 transition_type 0x16a-0x16b (1)
0x160|                                 06            |           .    |      [59]: 6 transition_type 0x16b-0x16c (1)
0x160|                                    05         |            .   |      [60]: 5 transition_type 0x16c-0x16d (1)
0x160|                                       07      |             .  |      [61]: 7 transition_type 0x16d-0x16e (1)
0x160|                                          08   |              . |      [62]: 8 transition_type 0x16e-0x16f (1)
0x160|                                             05|               .|      [63]: 5 transition_type 0x16f-0x170 (1)
0x170|05                                             |.               |      [64]: 5 transition_type 0x170-0x171 (1)
     |                                               |                |    local_time_type_records[0:10]: 0x171-0x1ad (60)
     |                                               |                |      [0]{}: local_time_type 0x171-0x177 (6)
0x170|   00 00 a6 64                                 | ...d           |        utoff: 42596 (valid) 0x171-0x175 (4)
0x170|               00                              |     .          |        dst: 0 (valid) 0x175-0x176 (1)
0x170|                  00                           |      .         |        idx: 0 (valid) 0x176-0x177 (1)
     |                                               |                |      [1]{}: local_time_type 0x177-0x17d (6)
0x170|                     00 00 a8 c0               |       ....     |        utoff: 43200 (valid) 0x177-0x17b (4)
0x170|                                 00            |           .    |        dst: 0 (valid) 0x17b-0x17c (1)
0x170|                                    04         |            .   |        idx: 4 (valid) 0x17c-0x17d (1)
     |                                               |                |      [2]{}: local_time_type 0x17d-0x183 (6)
0x170|                                       00 00 c4|             ...|        utoff: 50400 (valid) 0x17d-0x181 (4)
0x180|e0                                             |.               |
0x180|   01                                          | .              |        dst: 1 (valid) 0x181-0x182 (1)
0x180|      08                                       |  .             |        idx: 8 (valid) 0x182-0x183 (1)
     |                                               |                |      [3]{}: local_time_type 0x183-0x189 (6)
0x180|         00 00 b6 d0                           |   ....         |        utoff: 46800 (valid) 0x183-0x187 (4)
0x180|                     00                        |       .        |        dst: 0 (valid) 0x187-0x188 (1)
0x180|                        0c                     |        .       |        idx: 12 (valid) 0x188-0x189 (1)
     |                                               |                |      [4]{}: local_time_type 0x189-0x18f (6)
0x180|                           00 00 b6 d0         |         ....   |        utoff: 46800 (valid) 0x189-0x18d (4)
0x180|                                       01      |             .  |        dst: 1 (valid) 0x18d-0x18e (1)
0x180|                                          0c   |              . |        idx: 12 (valid) 0x18e-0x18f (1)
     |                                               |                |      [5]{}: local_time_type 0x18f-0x195 (6)
0x180|                                             00|               .|        utoff: 43200 (valid) 0x18f-0x193 (4)
0x190|00 a8 c0                                       |...             |
0x190|         00                                    |   .            |        dst: 0 (valid) 0x193-0x194 (1)
0x190|            04                                 |    .           |        idx: 4 (valid) 0x194-0x195 (1)
     |                                               |                |      [6]{}: local_time_type 0x195-0x19b (6)
0x190|               00 00 b6 d0                     |     ....       |        utoff: 46800 (valid) 0x195-0x199 (4)
0x190|                           01                  |         .      |        dst: 1 (valid) 0x199-0x19a (1)
0x190|                              0c               |          .     |        idx: 12 (valid) 0x19a-0x19b (1)
     |                                               |                |      [7]{}: local_time_type 0x19b-0x1a1 (6)
0x190|                                 00 00 a8 c0   |           .... |        utoff: 43200 (valid) 0x19b-0x19f (4)
0x190|                                             01|               .|        dst: 1 (valid) 0x19f-0x1a0 (1)
0x1a0|04                                             |.               |        idx: 4 (valid) 0x1a0-0x1a1 (1)
     |                                               |                |      [8]{}: local_time_type 0x1a1-0x1a7 (6)
0x1a0|   00 00 9a b0                                 | ....           |        utoff: 39600 (valid) 0x1a1-0x1a5 (4)
0x1a0|               00                              |     .          |        dst: 0 (valid) 0x1a5-0x1a6 (1)
0x1a0|                  10                           |      .         |        idx: 16 (valid) 0x1a6-0x1a7 (1)
     |                                               |                |      [9]{}: local_time_type 0x1a7-0x1ad (6)
0x1a0|                     00 00 a8 c0               |       ....     |        utoff: 43200 (valid) 0x1a7-0x1ab (4)
0x1a0|                                 00            |           .    |        dst: 0 (valid) 0x1ab-0x1ac (1)
0x1a0|                                    04         |            .   |        idx: 4 (valid) 0x1ac-0x1ad (1)
     |                                               |                |    time_zone_designations[0:5]: 0x1ad-0x1c1 (20)
0x1a0|                                       4c 4d 54|             LMT|      [0]: "LMT" time_zone_designation 0x1ad-0x1b1 (4)
0x1b0|00                                             |.               |
0x1b0|   2b 31 32 00                                 | +12.           |      [1]: "+12" time_zone_designation 0x1b1-0x1b5 (4)
0x1b0|               2b 31 34 00                     |     +14.       |      [2]: "+14" time_zone_designation 0x1b5-0x1b9 (4)
0x1b0|                           2b 31 33 00         |         +13.   |      [3]: "+13" time_zone_designation 0x1b9-0x1bd (4)
0x1b0|                                       2b 31 31|             +11|      [4]: "+11" time_zone_designation 0x1bd-0x1c1 (4)
0x1c0|00                                             |.               |
     |                                               |                |    leap_second_records[0:27]: 0x1c1-0x299 (216)
     |                                               |                |      [0]{}: leap_second_record 0x1c1-0x1c9 (8)
0x1c0|   04 b2 58 00                                 | ..X.           |        occur: "1972-07-01T00:00:00Z" (78796800) 0x1c1-0x1c5 (4)
0x1c0|               00 00 00 01                     |     ....       |        corr: 1 0x1c5-0x1c9 (4)
     |                                               |                |      [1]{}: leap_second_record 0x1c9-0x1d1 (8)
0x1c0|                           05 a4 ec 01         |         ....   |        occur: "1973-01-01T00:00:01Z" (94694401) 0x1c9-0x1cd (4)
0x1c0|                                       00 00 00|             ...|        corr: 2 0x1cd-0x1d1 (4)
0x1d0|02                                             |.               |
     |                                               |                |      [2]{}: leap_second_record 0x1d1-0x1d9 (8)
0x1d0|   07 86 1f 82                                 | ....           |        occur: "1974-01-01T00:00:02Z" (126230402) 0x1d1-0x1d5 (4)
0x1d0|               00 00 00 03                     |     ....       |        corr: 3 0x1d5-0x1d9 (4)
     |                                               |                |      [3]{}: leap_second_record 0x1d9-0x1e1 (8)
0x1d0|                           09 67 53 03         |         .gS.   |        occur: "1975-01-01T00:00:03Z" (157766403) 0x1d9-0x1dd (4)
0x1d0|                                       00 00 00|             ...|        corr: 4 0x1dd-0x1e1 (4)
0x1e0|04                                             |.               |
     |                                               |                |      [4]{}: leap_second_record 0x1e1-0x1e9 (8)
0x1e0|   0b 48 86 84                                 | .H..           |        occur: "1976-01-01T00:00:04Z" (189302404) 0x1e1-0x1e5 (4)
0x1e0|               00 00 00 05                     |     ....       |        corr: 5 0x1e5-0x1e9 (4)
     |                                               |                |      [5]{}: leap_second_record 0x1e9-0x1f1 (8)
0x1e0|                           0d 2b 0b 85         |         .+..   |        occur: "1977-01-01T00:00:05Z" (220924805) 0x1e9-0x1ed (4)
0x1e0|                                       00 00 00|             ...|        corr: 6 0x1ed-0x1f1 (4)
0x1f0|06                                             |.               |
     |                                               |                |      [6]{}: leap_second_record 0x1f1-0x1f9 (8)
0x1f0|   0f 0c 3f 06                                 | ..?.           |        occur: "1978-01-01T00:00:06Z" (252460806) 0x1f1-0x1f5 (4)
0x1f0|               00 00 00 07                     |     ....       |        corr: 7 0x1f5-0x1f9 (4)
     |                                               |                |      [7]{}: leap_second_record 0x1f9-0x201 (8)
0x1f0|                           10 ed 72 87         |         ..r.   |        occur: "1979-01-01T00:00:07Z" (283996807) 0x1f9-0x1fd (4)
0x1f0|                                       00 00 00|             ...|        corr: 8 0x1fd-0x201 (4)
0x200|08                                             |.               |
     |                                               |                |      [8]{}: leap_second_record 0x201-0x209 (8)
0x200|   12 ce a6 08                                 | ....           |        occur: "1980-01-01T00:00:08Z" (315532808) 0x201-0x205 (4)
0x200|               00 00 00 09                     |     ....       |        corr: 9 0x205-0x209 (4)
     |                                               |                |      [9]{}: leap_second_record 0x209-0x211 (8)
0x200|                           15 9f ca 89         |         ....   |        occur: "1981-07-01T00:00:09Z" (362793609) 0x209-0x20d (4)
0x200|                                       00 00 00|             ...|        corr: 10 0x20d-0x211 (4)
0x210|0a                                             |.               |
     |                                               |                |      [10]{}: leap_second_record 0x211-0x219 (8)
0x210|   17 80 fe 0a                                 | ....           |        occur: "1982-07-01T00:00:10Z" (394329610) 0x211-0x215 (4)
0x210|               00 00 00 0b                     |     ....       |        corr: 11 0x215-0x219 (4)
     |                                               |                |      [11]{}: leap_second_record 0x219-0x221 (8)
0x210|                           19 62 31 8b         |         .b1.   |        occur: "1983-07-01T00:00:11Z" (425865611) 0x219-0x21d (4)
0x210|                                       00 00 00|             ...|        corr: 12 0x21d-0x221 (4)
0x220|0c                                             |.               |
     |                                               |                |      [12]{}: leap_second_record 0x221-0x229 (8)
0x220|   1d 25 ea 0c                                 | .%..           |        occur: "1985-07-01T00:00:12Z" (489024012) 0x221-0x225 (4)
0x220|               00 00 00 0d                     |     ....       |        corr: 13 0x225-0x229 (4)
     |                                               |                |      [13]{}: leap_second_record 0x229-0x231 (8)
0x220|                           21 da e5 0d         |         !...   |        occur: "1988-01-01T00:00:13Z" (567993613) 0x229-0x22d (4)
0x220|                                       00 00 00|             ...|        corr: 14 0x22d-0x231 (4)
0x230|0e                                             |.               |
     |                                               |                |      [14]{}: leap_second_record 0x231-0x239 (8)
0x230|   25 9e 9d 8e                                 | %...           |        occur: "1990-01-01T00:00:14Z" (631152014) 0x231-0x235 (4)
0x230|               00 00 00 0f                     |     ....       |        corr: 15 0x235-0x239 (4)
     |                                               |                |      [15]{}: leap_second_record 0x239-0x241 (8)
0x230|                           27 7f d1 0f         |         '...   |        occur: "1991-01-01T00:00:15Z" (662688015) 0x239-0x23d (4)
0x230|                                       00 00 00|             ...|        corr: 16 0x23d-0x241 (4)
0x240|10                                             |.               |
     |                                               |                |      [16]{}: leap_second_record 0x241-0x249 (8)
0x240|   2a 50 f5 90                                 | *P..           |        occur: "1992-07-01T00:00:16Z" (709948816) 0x241-0x245 (4)
0x240|               00 00 00 11                     |     ....       |        corr: 17 0x245-0x249 (4)
     |                                               |                |      [17]{}: leap_second_record 0x249-0x251 (8)
0x240|                           2c 32 29 11         |         ,2).   |        occur: "1993-07-01T00:00:17Z" (741484817) 0x249-0x24d (4)
0x240|                                       00 00 00|             ...|        corr: 18 0x24d-0x251 (4)
0x250|12                                             |.               |
     |                                               |                |      [18]{}: leap_second_record 0x251-0x259 (8)
0x250|   2e 13 5c 92                                 | ..\.           |        occur: "1994-07-01T00:00:18Z" (773020818) 0x251-0x255 (4)
0x250|               00 00 00 13                     |     ....       |        corr: 19 0x255-0x259 (4)
     |                                               |                |      [19]{}: leap_second_record 0x259-0x261 (8)
0x250|                           30 e7 24 13         |         0.$.   |        occur: "1996-01-01T00:00:19Z" (820454419) 0x259-0x25d (4)
0x250|                                       00 00 00|             ...|        corr: 20 0x25d-0x261 (4)
0x260|14                                             |.               |
     |                                               |                |      [20]{}: leap_second_record 0x261-0x269 (8)
0x260|   33 b8 48 94                                 | 3.H.           |        occur: "1997-07-01T00:00:20Z" (867715220) 0x261-0x265 (4)
0x260|               00 00 00 15                     |     ....       |        corr: 21 0x265-0x269 (4)
     |                                               |                |      [21]{}: leap_second_record 0x269-0x271 (8)
0x260|                           36 8c 10 15         |         6...   |        occur: "1999-01-01T00:00:21Z" (915148821) 0x269-0x26d (4)
0x260|                                       00 00 00|             ...|        corr: 22 0x26d-0x271 (4)
0x270|16                                             |.               |
     |                                               |                |      [22]{}: leap_second_record 0x271-0x279 (8)
0x270|   43 b7 1b 96                                 | C...           |        occur: "2006-01-01T00:00:22Z" (1136073622) 0x271-0x275 (4)
0x270|               00 00 00 17                     |     ....       |        corr: 23 0x275-0x279 (4)
     |                                               |                |      [23]{}: leap_second_record 0x279-0x281 (8)
0x270|                           49 5c 07 97         |         I\..   |        occur: "2009-01-01T00:00:23Z" (1230768023) 0x279-0x27d (4)
0x270|                                       00 00 00|             ...|        corr: 24 0x27d-0x281 (4)
0x280|18                                             |.               |
     |                                               |                |      [24]{}: leap_second_record 0x281-0x289 (8)
0x280|   4f ef 93 18                                 | O...           |        occur: "2012-07-01T00:00:24Z" (1341100824) 0x281-0x285 (4)
0x280|               00 00 00 19                     |     ....       |        corr: 25 0x285-0x289 (4)
     |                                               |                |      [25]{}: leap_second_record 0x289-0x291 (8)
0x280|                           55 93 2d 99         |         U.-.   |        occur: "2015-07-01T00:00:25Z" (1435708825) 0x289-0x28d (4)
0x280|                                       00 00 00|             ...|        corr: 26 0x28d-0x291 (4)
0x290|1a                                             |.               |
     |                                               |                |      [26]{}: leap_second_record 0x291-0x299 (8)
0x290|   58 68 46 9a                                 | XhF.           |        occur: "2017-01-01T00:00:26Z" (1483228826) 0x291-0x295 (4)
0x290|               00 00 00 1b                     |     ....       |        corr: 27 0x295-0x299 (4)
     |                                               |                |    standard_wall_indicators[0:10]: 0x299-0x2a3 (10)
0x290|                           00                  |         .      |      [0]: 0 standard_wall_indicator (valid) 0x299-0x29a (1)
0x290|                              00               |          .     |      [1]: 0 standard_wall_indicator (valid) 0x29a-0x29b (1)
0x290|                                 00            |           .    |      [2]: 0 standard_wall_indicator (valid) 0x29b-0x29c (1)
0x290|                                    00         |            .   |      [3]: 0 standard_wall_indicator (valid) 0x29c-0x29d (1)
0x290|                                       00      |             .  |      [4]: 0 standard_wall_indicator (valid) 0x29d-0x29e (1)
0x290|                                          01   |              . |      [5]: 1 standard_wall_indicator (valid) 0x29e-0x29f (1)
0x290|                                             01|               .|      [6]: 1 standard_wall_indicator (valid) 0x29f-0x2a0 (1)
0x2a0|01                                             |.               |      [7]: 1 standard_wall_indicator (valid) 0x2a0-0x2a1 (1)
0x2a0|   01                                          | .              |      [8]: 1 standard_wall_indicator (valid) 0x2a1-0x2a2 (1)
0x2a0|      01                                       |  .             |      [9]: 1 standard_wall_indicator (valid) 0x2a2-0x2a3 (1)
     |                                               |                |    ut_local_indicators[0:0]: 0x2a3-0x2a3 (0)
     |                                               |                |  v2plusheader{}: 0x2a3-0x2cf (44)
0x2a0|         54 5a 69 66                           |   TZif         |    magic: 0x545a6966 (valid) 0x2a3-0x2a7 (4)
0x2a0|                     32                        |       2        |    ver: "2" (0x32) (valid) 0x2a7-0x2a8 (1)
0x2a0|                        00 00 00 00 00 00 00 00|        ........|    reserved: raw bits 0x2a8-0x2b7 (15)
0x2b0|00 00 00 00 00 00 00                           |.......         |
0x2b0|                     00 00 00 00               |       ....     |    isutcnt: 0 0x2b7-0x2bb (4)
0x2b0|                                 00 00 00 0a   |           .... |    isstdcnt: 10 0x2bb-0x2bf (4)
0x2b0|                                             00|               .|    leapcnt: 27 0x2bf-0x2c3 (4)
0x2c0|00 00 1b                                       |...             |
0x2c0|         00 00 00 41                           |   ...A         |    timecnt: 65 0x2c3-0x2c7 (4)
0x2c0|                     00 00 00 0a               |       ....     |    typecnt: 10 0x2c7-0x2cb (4)
0x2c0|                                 00 00 00 14   |           .... |    charcnt: 20 0x2cb-0x2cf (4)
     |                                               |                |  v2plusdatablock{}: 0x2cf-0x6b6 (999)
     |                                               |                |    transition_times[0:65]: 0x2cf-0x4d7 (520)
0x2c0|                                             ff|               .|      [0]: "1924-05-01T12:10:04Z" (-1441194596) transition_time 0x2cf-0x2d7 (8)
0x2d0|ff ff ff aa 19 1d 9c                           |.......         |
0x2d0|                     ff ff ff ff b5 a3 8c c0   |       ........ |      [1]: "1930-06-20T12:00:00Z" (-1247572800) transition_time 0x2d7-0x2df (8)
0x2d0|                                             00|               .|      [2]: "1981-03-31T11:00:09Z" (354884409) transition_time 0x2df-0x2e7 (8)
0x2e0|00 00 00 15 27 1b 39                           |....'.9         |
0x2e0|                     00 00 00 00 16 18 4f aa   |       ......O. |      [3]: "1981-09-30T10:00:10Z" (370692010) transition_time 0x2e7-0x2ef (8)
0x2e0|                                             00|               .|      [4]: "1982-03-31T11:00:10Z" (386420410) transition_time 0x2ef-0x2f7 (8)
0x2f0|00 00 00 17 08 4e ba                           |.....N.         |
0x2f0|                     00 00 00 00 17 f9 91 3b   |       .......; |      [5]: "1982-09-30T11:00:11Z" (402231611) transition_time 0x2f7-0x2ff (8)
0x2f0|                                             00|               .|      [6]: "1983-03-31T12:00:11Z" (417960011) transition_time 0x2ff-0x307 (8)
0x300|00 00 00 18 e9 90 4b                           |......K         |
0x300|                     00 00 00 00 19 da c4 bc   |       ........ |      [7]: "1983-09-30T11:00:12Z" (433767612) transition_time 0x307-0x30f (8)
0x300|                                             00|               .|      [8]: "1984-03-31T12:00:12Z" (449582412) transition_time 0x30f-0x317 (8)
0x310|00 00 00 1a cc 15 4c                           |......L         |
0x310|                     00 00 00 00 1b bc 22 6c   |       ......"l |      [9]: "1984-09-29T14:00:12Z" (465314412) transition_time 0x317-0x31f (8)
0x310|                                             00|               .|      [10]: "1985-03-30T14:00:12Z" (481039212) transition_time 0x31f-0x327 (8)
0x320|00 00 00 1c ac 13 6c                           |......l         |
0x320|                     00 00 00 00 1d 9c 04 6d   |       .......m |      [11]: "1985-09-28T14:00:13Z" (496764013) transition_time 0x327-0x32f (8)
0x320|                                             00|               .|      [12]: "1986-03-29T14:00:13Z" (512488813) transition_time 0x32f-0x337 (8)
0x330|00 00 00 1e 8b f5 6d                           |......m         |
0x330|                     00 00 00 00 1f 7b e6 6d   |       .....{.m |      [13]: "1986-09-27T14:00:13Z" (528213613) transition_time 0x337-0x33f (8)
0x330|                                             00|               .|      [14]: "1987-03-28T14:00:13Z" (543938413) transition_time 0x33f-0x347 (8)
0x340|00 00 00 20 6b d7 6d                           |... k.m         |
0x340|                     00 00 00 00 21 5b c8 6d   |       ....![.m |      [15]: "1987-09-26T14:00:13Z" (559663213) transition_time 0x347-0x34f (8)
0x340|                                             00|               .|      [16]: "1988-03-26T14:00:14Z" (575388014) transition_time 0x34f-0x357 (8)
0x350|00 00 00 22 4b b9 6e                           |..."K.n         |
0x350|                     00 00 00 00 23 3b aa 6e   |       ....#;.n |      [17]: "1988-09-24T14:00:14Z" (591112814) transition_time 0x357-0x35f (8)
0x350|                                             00|               .|      [18]: "1989-03-25T14:00:14Z" (606837614) transition_time 0x35f-0x367 (8)
0x360|00 00 00 24 2b 9b 6e                           |...$+.n         |
0x360|                     00 00 00 00 25 1b 8c 6e   |       ....%..n |      [19]: "1989-09-23T14:00:14Z" (622562414) transition_time 0x367-0x36f (8)
0x360|                                             00|               .|      [20]: "1990-03-24T14:00:15Z" (638287215) transition_time 0x36f-0x377 (8)
0x370|00 00 00 26 0b 7d 6f                           |...&.}o         |
0x370|                     00 00 00 00 27 04 a8 ef   |       ....'... |      [21]: "1990-09-29T14:00:15Z" (654616815) transition_time 0x377-0x37f (8)
0x370|                                             00|               .|      [22]: "1991-03-30T14:00:16Z" (670341616) transition_time 0x37f-0x387 (8)
0x380|00 00 00 27 f4 99 f0                           |...'...         |
0x380|                     00 00 00 00 28 e4 99 00   |       ....(... |      [23]: "1991-09-28T15:00:16Z" (686070016) transition_time 0x387-0x38f (8)
0x380|                                             00|               .|      [24]: "1992-01-18T15:00:16Z" (695746816) transition_time 0x38f-0x397 (8)
0x390|00 00 00 29 78 41 00                           |...)xA.         |
0x390|                     00 00 00 00 29 d4 7b f0   |       ....).{. |      [25]: "1992-03-28T14:00:16Z" (701791216) transition_time 0x397-0x39f (8)
0x390|                                             00|               .|      [26]: "1992-09-26T14:00:17Z" (717516017) transition_time 0x39f-0x3a7 (8)
0x3a0|00 00 00 2a c4 6c f1                           |...*.l.         |
0x3a0|                     00 00 00 00 2b b4 5d f1   |       ....+.]. |      [27]: "1993-03-27T14:00:17Z" (733240817) transition_time 0x3a7-0x3af (8)
0x3a0|                                             00|               .|      [28]: "1993-09-25T14:00:18Z" (748965618) transition_time 0x3af-0x3b7 (8)
0x3b0|00 00 00 2c a4 4e f2                           |...,.N.         |
0x3b0|                     00 00 00 00 2d 94 3f f2   |       ....-.?. |      [29]: "1994-03-26T14:00:18Z" (764690418) transition_time 0x3b7-0x3bf (8)
0x3b0|                                             00|               .|      [30]: "1994-09-24T14:00:19Z" (780415219) transition_time 0x3bf-0x3c7 (8)
0x3c0|00 00 00 2e 84 30 f3                           |.....0.         |
0x3c0|                     00 00 00 00 2f 74 21 f3   |       ..../t!. |      [31]: "1995-03-25T14:00:19Z" (796140019) transition_time 0x3c7-0x3cf (8)
0x3c0|                                             00|               .|      [32]: "1995-09-23T14:00:19Z" (811864819) transition_time 0x3cf-0x3d7 (8)
0x3d0|00 00 00 30 64 12 f3                           |...0d..         |
0x3d0|                     00 00 00 00 31 5d 3e 74   |       ....1]>t |      [33]: "1996-03-30T14:00:20Z" (828194420) transition_time 0x3d7-0x3df (8)
0x3d0|                                             00|               .|      [34]: "1996-10-26T14:00:20Z" (846338420) transition_time 0x3df-0x3e7 (8)
0x3e0|00 00 00 32 72 19 74                           |...2r.t         |
0x3e0|                     00 00 00 00 33 3d 20 74   |       ....3= t |      [35]: "1997-03-29T14:00:20Z" (859644020) transition_time 0x3e7-0x3ef (8)
0x3e0|                                             00|               .|      [36]: "1997-10-25T14:00:21Z" (877788021) transition_time 0x3ef-0x3f7 (8)
0x3f0|00 00 00 34 51 fb 75                           |...4Q.u         |
0x3f0|                     00 00 00 00 35 1d 02 75   |       ....5..u |      [37]: "1998-03-28T14:00:21Z" (891093621) transition_time 0x3f7-0x3ff (8)
0x3f0|                                             00|               .|      [38]: "1998-10-24T14:00:21Z" (909237621) transition_time 0x3ff-0x407 (8)
0x400|00 00 00 36 31 dd 75                           |...61.u         |
0x400|                     00 00 00 00 36 fc e4 76   |       ....6..v |      [39]: "1999-03-27T14:00:22Z" (922543222) transition_time 0x407-0x40f (8)
0x400|                                             00|               .|      [40]: "1999-10-30T14:00:22Z" (941292022) transition_time 0x40f-0x417 (8)
0x410|00 00 00 38 1a f9 f6                           |...8...         |
0x410|                     00 00 00 00 38 dc c6 76   |       ....8..v |      [41]: "2000-03-25T14:00:22Z" (953992822) transition_time 0x417-0x41f (8)
0x410|                                             00|               .|      [42]: "2000-10-28T14:00:22Z" (972741622) transition_time 0x41f-0x427 (8)
0x420|00 00 00 39 fa db f6                           |...9...         |
0x420|                     00 00 00 00 3a bc a8 76   |       ....:..v |      [43]: "2001-03-24T14:00:22Z" (985442422) transition_time 0x427-0x42f (8)
0x420|                                             00|               .|      [44]: "2001-10-27T14:00:22Z" (1004191222) transition_time 0x42f-0x437 (8)
0x430|00 00 00 3b da bd f6                           |...;...         |
0x430|                     00 00 00 00 3c a5 c4 f6   |       ....<... |      [45]: "2002-03-30T14:00:22Z" (1017496822) transition_time 0x437-0x43f (8)
0x430|                                             00|               .|      [46]: "2002-10-26T14:00:22Z" (1035640822) transition_time 0x43f-0x447 (8)
0x440|00 00 00 3d ba 9f f6                           |...=...         |
0x440|                     00 00 00 00 3e 85 a6 f6   |       ....>... |      [47]: "2003-03-29T14:00:22Z" (1048946422) transition_time 0x447-0x44f (8)
0x440|                                             00|               .|      [48]: "2003-10-25T14:00:22Z" (1067090422) transition_time 0x44f-0x457 (8)
0x450|00 00 00 3f 9a 81 f6                           |...?...         |
0x450|                     00 00 00 00 40 65 88 f6   |       ....@e.. |      [49]: "2004-03-27T14:00:22Z" (1080396022) transition_time 0x457-0x45f (8)
0x450|                                             00|               .|      [50]: "2004-10-30T14:00:22Z" (1099144822) transition_time 0x45f-0x467 (8)
0x460|00 00 00 41 83 9e 76                           |...A..v         |
0x460|                     00 00 00 00 42 45 6a f6   |       ....BEj. |      [51]: "2005-03-26T14:00:22Z" (1111845622) transition_time 0x467-0x46f (8)
0x460|                                             00|               .|      [52]: "2005-10-29T14:00:22Z" (1130594422) transition_time 0x46f-0x477 (8)
0x470|00 00 00 43 63 80 76                           |...Cc.v         |
0x470|                     00 00 00 00 44 25 4c f7   |       ....D%L. |      [53]: "2006-03-25T14:00:23Z" (1143295223) transition_time 0x477-0x47f (8)
0x470|                                             00|               .|      [54]: "2006-10-28T14:00:23Z" (1162044023) transition_time 0x47f-0x487 (8)
0x480|00 00 00 45 43 62 77                           |...ECbw         |
0x480|                     00 00 00 00 46 05 2e f7   |       ....F... |      [55]: "2007-03-24T14:00:23Z" (1174744823) transition_time 0x487-0x48f (8)
0x480|                                             00|               .|      [56]: "2007-10-27T14:00:23Z" (1193493623) transition_time 0x48f-0x497 (8)
0x490|00 00 00 47 23 44 77                           |...G#Dw         |
0x490|                     00 00 00 00 47 ee 4b 77   |       ....G.Kw |      [57]: "2008-03-29T14:00:23Z" (1206799223) transition_time 0x497-0x49f (8)
0x490|                                             00|               .|      [58]: "2008-10-25T14:00:23Z" (1224943223) transition_time 0x49f-0x4a7 (8)
0x4a0|00 00 00 49 03 26 77                           |...I.&w         |
0x4a0|                     00 00 00 00 49 ce 2d 78   |       ....I.-x |      [59]: "2009-03-28T14:00:24Z" (1238248824) transition_time 0x4a7-0x4af (8)
0x4a0|                                             00|               .|      [60]: "2009-10-24T14:00:24Z" (1256392824) transition_time 0x4af-0x4b7 (8)
0x4b0|00 00 00 4a e3 08 78                           |...J..x         |
0x4b0|                     00 00 00 00 4b ae 0f 78   |       ....K..x |      [61]: "2010-03-27T14:00:24Z" (1269698424) transition_time 0x4b7-0x4bf (8)
0x4b0|                                             00|               .|      [62]: "2010-10-30T15:00:24Z" (1288450824) transition_time 0x4bf-0x4c7 (8)
0x4c0|00 00 00 4c cc 33 08                           |...L.3.         |
0x4c0|                     00 00 00 00 4d 8d ff 88   |       ....M... |      [63]: "2011-03-26T15:00:24Z" (1301151624) transition_time 0x4c7-0x4cf (8)
0x4c0|                                             00|               .|      [64]: "2023-06-28T00:00:27Z" (1687910427) transition_time 0x4cf-0x4d7 (8)
0x4d0|00 00 00 64 9b 78 1b                           |...d.x.         |
     |                                               |                |    transition_types[0:65]: 0x4d7-0x518 (65)
0x4d0|                     01                        |       .        |      [0]: 1 transition_type 0x4d7-0x4d8 (1)
0x4d0|                        03                     |        .       |      [1]: 3 transition_type 0x4d8-0x4d9 (1)
0x4d0|                           02                  |         .      |      [2]: 2 transition_type 0x4d9-0x4da (1)
0x4d0|                              03               |          .     |      [3]: 3 transition_type 0x4da-0x4db (1)
0x4d0|                                 04            |           .    |      [4]: 4 transition_type 0x4db-0x4dc (1)
0x4d0|                                    01         |            .   |      [5]: 1 transition_type 0x4dc-0x4dd (1)
0x4d0|                                       04      |             .  |      [6]: 4 transition_type 0x4dd-0x4de (1)
0x4d0|                                          01   |              . |      [7]: 1 transition_type 0x4de-0x4df (1)
0x4d0|                                             04|               .|      [8]: 4 transition_type 0x4df-0x4e0 (1)
0x4e0|05                                             |.               |      [9]: 5 transition_type 0x4e0-0x4e1 (1)
0x4e0|   06                                          | .              |      [10]: 6 transition_type 0x4e1-0x4e2 (1)
0x4e0|      05                                       |  .             |      [11]: 5 transition_type 0x4e2-0x4e3 (1)
0x4e0|         06                                    |   .            |      [12]: 6 transition_type 0x4e3-0x4e4 (1)
0x4e0|            05                                 |    .           |      [13]: 5 transition_type 0x4e4-0x4e5 (1)
0x4e0|               06                              |     .          |      [14]: 6 transition_type 0x4e5-0x4e6 (1)
0x4e0|                  05                           |      .         |      [15]: 5 transition_type 0x4e6-0x4e7 (1)
0x4e0|                     06                        |       .        |      [16]: 6 transition_type 0x4e7-0x4e8 (1)
0x4e0|                        05                     |        .       |      [17]: 5 transition_type 0x4e8-0x4e9 (1)
0x4e0|                           06                  |         .      |      [18]: 6 transition_type 0x4e9-0x4ea (1)
0x4e0|                              05               |          .     |      [19]: 5 transition_type 0x4ea-0x4eb (1)
0x4e0|                                 06            |           .    |      [20]: 6 transition_type 0x4eb-0x4ec (1)
0x4e0|                                    05         |            .   |      [21]: 5 transition_type 0x4ec-0x4ed (1)
0x4e0|                                       07      |             .  |      [22]: 7 transition_type 0x4ed-0x4ee (1)
0x4e0|                                          08   |              . |      [23]: 8 transition_type 0x4ee-0x4ef (1)
0x4e0|                                             05|               .|      [24]: 5 transition_type 0x4ef-0x4f0 (1)
0x4f0|06                                             |.               |      [25]: 6 transition_type 0x4f0-0x4f1 (1)
0x4f0|   05                                          | .              |      [26]: 5 transition_type 0x4f1-0x4f2 (1)
0x4f0|      06                                       |  .             |      [27]: 6 transition_type 0x4f2-0x4f3 (1)
0x4f0|         05                                    |   .            |      [28]: 5 transition_type 0x4f3-0x4f4 (1)
0x4f0|            06                                 |    .           |      [29]: 6 transition_type 0x4f4-0x4f5 (1)
0x4f0|               05                              |     .          |      [30]: 5 transition_type 0x4f5-0x4f6 (1)
0x4f0|                  06                           |      .         |      [31]: 6 transition_type 0x4f6-0x4f7 (1)
0x4f0|                     05                        |       .        |      [32]: 5 transition_type 0x4f7-0x4f8 (1)
0x4f0|                        06                     |        .       |      [33]: 6 transition_type 0x4f8-0x4f9 (1)
0x4f0|                           05                  |         .      |      [34]: 5 transition_type 0x4f9-0x4fa (1)
0x4f0|                              06               |          .     |      [35]: 6 transition_type 0x4fa-0x4fb (1)
0x4f0|                                 05            |           .    |      [36]: 5 transition_type 0x4fb-0x4fc (1)
0x4f0|                                    06         |            .   |      [37]: 6 transition_type 0x4fc-0x4fd (1)
0x4f0|                                       05      |             .  |      [38]: 5 transition_type 0x4fd-0x4fe (1)
0x4f0|                                          06   |              . |      [39]: 6 transition_type 0x4fe-0x4ff (1)
0x4f0|                                             05|               .|      [40]: 5 transition_type 0x4ff-0x500 (1)
0x500|06                                             |.               |      [41]: 6 transition_type 0x500-0x501 (1)
0x500|   05                                          | .              |      [42]: 5 transition_type 0x501-0x502 (1)
0x500|      06                                       |  .             |      [43]: 6 transition_type 0x502-0x503 (1)
0x500|         05                                    |   .            |      [44]: 5 transition_type 0x503-0x504 (1)
0x500|            06                                 |    .           |      [45]: 6 transition_type 0x504-0x505 (1)
0x500|               05                              |     .          |      [46]: 5 transition_type 0x505-0x506 (1)
0x500|                  06                           |      .         |      [47]: 6 transition_type 0x506-0x507 (1)
0x500|                     05                        |       .        |      [48]: 5 transition_type 0x507-0x508 (1)
0x500|                        06                     |        .       |      [49]: 6 transition_type 0x508-0x509 (1)
0x500|                           05                  |         .      |      [50]: 5 transition_type 0x509-0x50a (1)
0x500|                              06               |          .     |      [51]: 6 transition_type 0x50a-0x50b (1)
0x500|                                 05            |           .    |      [52]: 5 transition_type 0x50b-0x50c (1)
0x500|                                    06         |            .   |      [53]: 6 transition_type 0x50c-0x50d (1)
0x500|                                       05      |             .  |      [54]: 5 transition_type 0x50d-0x50e (1)
0x500|                                          06   |              . |      [55]: 6 transition_type 0x50e-0x50f (1)
0x500|                                             05|               .|      [56]: 5 transition_type 0x50f-0x510 (1)
0x510|06                                             |.               |      [57]: 6 transition_type 0x510-0x511 (1)
0x510|   05                                          | .              |      [58]: 5 transition_type 0x511-0x512 (1)
0x510|      06                                       |  .             |      [59]: 6 transition_type 0x512-0x513 (1)
0x510|         05                                    |   .            |      [60]: 5 transition_type 0x513-0x514 (1)
0x510|            07                                 |    .           |      [61]: 7 transition_type 0x514-0x515 (1)
0x510|               08                              |     .          |      [62]: 8 transition_type 0x515-0x516 (1)
0x510|                  05                           |      .         |      [63]: 5 transition_type 0x516-0x517 (1)
0x510|                     05                        |       .        |      [64]: 5 transition_type 0x517-0x518 (1)
     |                                               |                |    local_time_type_records[0:10]: 0x518-0x554 (60)
     |                                               |                |      [0]{}: local_time_type 0x518-0x51e (6)
0x510|                        00 00 a6 64            |        ...d    |        utoff: 42596 (valid) 0x518-0x51c (4)
0x510|                                    00         |            .   |        dst: 0 (valid) 0x51c-0x51d (1)
0x510|                                       00      |             .  |        idx: 0 (valid) 0x51d-0x51e (1)
     |                                               |                |      [1]{}: local_time_type 0x51e-0x524 (6)
0x510|                                          00 00|              ..|        utoff: 43200 (valid) 0x51e-0x522 (4)
0x520|a8 c0                                          |..              |
0x520|      00                                       |  .             |        dst: 0 (valid) 0x522-0x523 (1)
0x520|         04                                    |   .            |        idx: 4 (valid) 0x523-0x524 (1)
     |                                               |                |      [2]{}: local_time_type 0x524-0x52a (6)
0x520|            00 00 c4 e0                        |    ....        |        utoff: 50400 (valid) 0x524-0x528 (4)
0x520|                        01                     |        .       |        dst: 1 (valid) 0x528-0x529 (1)
0x520|                           08                  |         .      |        idx: 8 (valid) 0x529-0x52a (1)
     |                                               |                |      [3]{}: local_time_type 0x52a-0x530 (6)
0x520|                              00 00 b6 d0      |          ....  |        utoff: 46800 (valid) 0x52a-0x52e (4)
0x520|                                          00   |              . |        dst: 0 (valid) 0x52e-0x52f (1)
0x520|                                             0c|               .|        idx: 12 (valid) 0x52f-0x530 (1)
     |                                               |                |      [4]{}: local_time_type 0x530-0x536 (6)
0x530|00 00 b6 d0                                    |....            |        utoff: 46800 (valid) 0x530-0x534 (4)
0x530|            01                                 |    .           |        dst: 1 (valid) 0x534-0x535 (1)
0x530|               0c                              |     .          |        idx: 12 (valid) 0x535-0x536 (1)
     |                                               |                |      [5]{}: local_time_type 0x536-0x53c (6)
0x530|                  00 00 a8 c0                  |      ....      |        utoff: 43200 (valid) 0x536-0x53a (4)
0x530|                              00               |          .     |        dst: 0 (valid) 0x53a-0x53b (1)
0x530|                                 04            |           .    |        idx: 4 (valid) 0x53b-0x53c (1)
     |                                               |                |      [6]{}: local_time_type 0x53c-0x542 (6)
0x530|                                    00 00 b6 d0|            ....|        utoff: 46800 (valid) 0x53c-0x540 (4)
0x540|01                                             |.               |        dst: 1 (valid) 0x540-0x541 (1)
0x540|   0c                                          | .              |        idx: 12 (valid) 0x541-0x542 (1)
     |                                               |                |      [7]{}: local_time_type 0x542-0x548 (6)
0x540|      00 00 a8 c0                              |  ....          |        utoff: 43200 (valid) 0x542-0x546 (4)
0x540|                  01                           |      .         |        dst: 1 (valid) 0x546-0x547 (1)
0x540|                     04                        |       .        |        idx: 4 (valid) 0x547-0x548 (1)
     |                                               |                |      [8]{}: local_time_type 0x548-0x54e (6)
0x540|                        00 00 9a b0            |        ....    |        utoff: 39600 (valid) 0x548-0x54c (4)
0x540|                                    00         |            .   |        dst: 0 (valid) 0x54c-0x54d (1)
0x540|                                       10      |             .  |        idx: 16 (valid) 0x54d-0x54e (1)
     |                                               |                |      [9]{}: local_time_type 0x54e-0x554 (6)
0x540|                                          00 00|              ..|        utoff: 43200 (valid) 0x54e-0x552 (4)
0x550|a8 c0                                          |..              |
0x550|      00                                       |  .             |        dst: 0 (valid) 0x552-0x553 (1)
0x550|         04                                    |   .            |        idx: 4 (valid) 0x553-0x554 (1)
     |                                               |                |    time_zone_designations[0:5]: 0x554-0x568 (20)
0x550|            4c 4d 54 00                        |    LMT.        |      [0]: "LMT" time_zone_designation 0x554-0x558 (4)
0x550|                        2b 31 32 00            |        +12.    |      [1]: "+12" time_zone_designation 0x558-0x55c (4)
0x550|                                    2b 31 34 00|            +14.|      [2]: "+14" time_zone_designation 0x55c-0x560 (4)
0x560|2b 31 33 00                                    |+13.            |      [3]: "+13" time_zone_designation 0x560-0x564 (4)
0x560|            2b 31 31 00                        |    +11.        |      [4]: "+11" time_zone_designation 0x564-0x568 (4)
     |                                               |                |    leap_second_records[0:27]: 0x568-0x6ac (324)
     |                                               |                |      [0]{}: leap_second_record 0x568-0x574 (12)
0x560|                        00 00 00 00 04 b2 58 00|        ......X.|        occur: "1972-07-01T00:00:00Z" (78796800) 0x568-0x570 (8)
0x570|00 00 00 01                                    |....            |        corr: 1 0x570-0x574 (4)
     |                                               |                |      [1]{}: leap_second_record 0x574-0x580 (12)
0x570|            00 00 00 00 05 a4 ec 01            |    ........    |        occur: "1973-01-01T00:00:01Z" (94694401) 0x574-0x57c (8)
0x570|                                    00 00 00 02|            ....|        corr: 2 0x57c-0x580 (4)
     |                                               |                |      [2]{}: leap_second_record 0x580-0x58c (12)
0x580|00 00 00 00 07 86 1f 82                        |........        |        occur: "1974-01-01T00:00:02Z" (126230402) 0x580-0x588 (8)
0x580|                        00 00 00 03            |        ....    |        corr: 3 0x588-0x58c (4)
     |                                               |                |      [3]{}: leap_second_record 0x58c-0x598 (12)
0x580|                                    00 00 00 00|            ....|        occur: "1975-01-01T00:00:03Z" (157766403) 0x58c-0x594 (8)
0x590|09 67 53 03                                    |.gS.            |
0x590|            00 00 00 04                        |    ....        |        corr: 4 0x594-0x598 (4)
     |                                               |                |      [4]{}: leap_second_record 0x598-0x5a4 (12)
0x590|                        00 00 00 00 0b 48 86 84|        .....H..|        occur: "1976-01-01T00:00:04Z" (189302404) 0x598-0x5a0 (8)
0x5a0|00 00 00 05                                    |....            |        corr: 5 0x5a0-0x5a4 (4)
     |                                               |                |      [5]{}: leap_second_record 0x5a4-0x5b0 (12)
0x5a0|            00 00 00 00 0d 2b 0b 85            |    .....+..    |        occur: "1977-01-01T00:00:05Z" (220924805) 0x5a4-0x5ac (8)
0x5a0|                                    00 00 00 06|            ....|        corr: 6 0x5ac-0x5b0 (4)
     |                                               |                |      [6]{}: leap_second_record 0x5b0-0x5bc (12)
0x5b0|00 00 00 00 0f 0c 3f 06                        |......?.        |        occur: "1978-01-01T00:00:06Z" (252460806) 0x5b0-0x5b8 (8)
0x5b0|                        00 00 00 07            |        ....    |        corr: 7 0x5b8-0x5bc (4)
     |                                               |                |      [7]{}: leap_second_record 0x5bc-0x5c8 (12)
0x5b0|                                    00 00 00 00|            ....|        occur: "1979-01-01T00:00:07Z" (283996807) 0x5bc-0x5c4 (8)
0x5c0|10 ed 72 87                                    |..r.            |
0x5c0|            00 00 00 08                        |    ....        |        corr: 8 0x5c4-0x5c8 (4)
     |                                               |                |      [8]{}: leap_second_record 0x5c8-0x5d4 (12)
0x5c0|                        00 00 00 00 12 ce a6 08|        ........|        occur: "1980-01-01T00:00:08Z" (315532808) 0x5c8-0x5d0 (8)
0x5d0|00 00 00 09                                    |....            |        corr: 9 0x5d0-0x5d4 (4)
     |                                               |                |      [9]{}: leap_second_record 0x5d4-0x5e0 (12)
0x5d0|            00 00 00 00 15 9f ca 89            |    ........    |        occur: "1981-07-01T00:00:09Z" (362793609) 0x5d4-0x5dc (8)
0x5d0|                                    00 00 00 0a|            ....|        corr: 10 0x5dc-0x5e0 (4)
     |                                               |                |      [10]{}: leap_second_record 0x5e0-0x5ec (12)
0x5e0|00 00 00 00 17 80 fe 0a                        |........        |        occur: "1982-07-01T00:00:10Z" (394329610) 0x5e0-0x5e8 (8)
0x5e0|                        00 00 00 0b            |        ....    |        corr: 11 0x5e8-0x5ec (4)
     |                                               |                |      [11]{}: leap_second_record 0x5ec-0x5f8 (12)
0x5e0|                                    00 00 00 00|            ....|        occur: "1983-07-01T00:00:11Z" (425865611) 0x5ec-0x5f4 (8)
0x5f0|19 62 31 8b                                    |.b1.            |
0x5f0|            00 00 00 0c                        |    ....        |        corr: 12 0x5f4-0x5f8 (4)
     |                                               |                |      [12]{}: leap_second_record 0x5f8-0x604 (12)
0x5f0|                        00 00 00 00 1d 25 ea 0c|        .....%..|        occur: "1985-07-01T00:00:12Z" (489024012) 0x5f8-0x600 (8)
0x600|00 00 00 0d                                    |....            |        corr: 13 0x600-0x604 (4)
     |                                               |                |      [13]{}: leap_second_record 0x604-0x610 (12)
0x600|            00 00 00 00 21 da e5 0d            |    ....!...    |        occur: "1988-01-01T00:00:13Z" (567993613) 0x604-0x60c (8)
0x600|                                    00 00 00 0e|            ....|        corr: 14 0x60c-0x610 (4)
     |                                               |                |      [14]{}: leap_second_record 0x610-0x61c (12)
0x610|00 00 00 00 25 9e 9d 8e                        |....%...        |        occur: "1990-01-01T00:00:14Z" (631152014) 0x610-0x618 (8)
0x610|                        00 00 00 0f            |        ....    |        corr: 15 0x618-0x61c (4)
     |                                               |                |      [15]{}: leap_second_record 0x61c-0x628 (12)
0x610|                                    00 00 00 00|            ....|        occur: "1991-01-01T00:00:15Z" (662688015) 0x61c-0x624 (8)
0x620|27 7f d1 0f                                    |'...            |
0x620|            00 00 00 10                        |    ....        |        corr: 16 0x624-0x628 (4)
     |                                               |                |      [16]{}: leap_second_record 0x628-0x634 (12)
0x620|                        00 00 00 00 2a 50 f5 90|        ....*P..|        occur: "1992-07-01T00:00:16Z" (709948816) 0x628-0x630 (8)
0x630|00 00 00 11                                    |....            |        corr: 17 0x630-0x634 (4)
     |                                               |                |      [17]{}: leap_second_record 0x634-0x640 (12)
0x630|            00 00 00 00 2c 32 29 11            |    ....,2).    |        occur: "1993-07-01T00:00:17Z" (741484817) 0x634-0x63c (8)
0x630|                                    00 00 00 12|            ....|        corr: 18 0x63c-0x640 (4)
     |                                               |                |      [18]{}: leap_second_record 0x640-0x64c (12)
0x640|00 00 00 00 2e 13 5c 92                        |......\.        |        occur: "1994-07-01T00:00:18Z" (773020818) 0x640-0x648 (8)
0x640|                        00 00 00 13            |        ....    |        corr: 19 0x648-0x64c (4)
     |                                               |                |      [19]{}: leap_second_record 0x64c-0x658 (12)
0x640|                                    00 00 00 00|            ....|        occur: "1996-01-01T00:00:19Z" (820454419) 0x64c-0x654 (8)
0x650|30 e7 24 13                                    |0.$.            |
0x650|            00 00 00 14                        |    ....        |        corr: 20 0x654-0x658 (4)
     |                                               |                |      [20]{}: leap_second_record 0x658-0x664 (12)
0x650|                        00 00 00 00 33 b8 48 94|        ....3.H.|        occur: "1997-07-01T00:00:20Z" (867715220) 0x658-0x660 (8)
0x660|00 00 00 15                                    |....            |        corr: 21 0x660-0x664 (4)
     |                                               |                |      [21]{}: leap_second_record 0x664-0x670 (12)
0x660|            00 00 00 00 36 8c 10 15            |    ....6...    |        occur: "1999-01-01T00:00:21Z" (915148821) 0x664-0x66c (8)
0x660|                                    00 00 00 16|            ....|        corr: 22 0x66c-0x670 (4)
     |                                               |                |      [22]{}: leap_second_record 0x670-0x67c (12)
0x670|00 00 00 00 43 b7 1b 96                        |....C...        |        occur: "2006-01-01T00:00:22Z" (1136073622) 0x670-0x678 (8)
0x670|                        00 00 00 17            |        ....    |        corr: 23 0x678-0x67c (4)
     |                                               |                |      [23]{}: leap_second_record 0x67c-0x688 (12)
0x670|                                    00 00 00 00|            ....|        occur: "2009-01-01T00:00:23Z" (1230768023) 0x67c-0x684 (8)
0x680|49 5c 07 97                                    |I\..            |
0x680|            00 00 00 18                        |    ....        |        corr: 24 0x684-0x688 (4)
     |                                               |                |      [24]{}: leap_second_record 0x688-0x694 (12)
0x680|                        00 00 00 00 4f ef 93 18|        ....O...|        occur: "2012-07-01T00:00:24Z" (1341100824) 0x688-0x690 (8)
0x690|00 00 00 19                                    |....            |        corr: 25 0x690-0x694 (4)
     |                                               |                |      [25]{}: leap_second_record 0x694-0x6a0 (12)
0x690|            00 00 00 00 55 93 2d 99            |    ....U.-.    |        occur: "2015-07-01T00:00:25Z" (1435708825) 0x694-0x69c (8)
0x690|                                    00 00 00 1a|            ....|        corr: 26 0x69c-0x6a0 (4)
     |                                               |                |      [26]{}: leap_second_record 0x6a0-0x6ac (12)
0x6a0|00 00 00 00 58 68 46 9a                        |....XhF.        |        occur: "2017-01-01T00:00:26Z" (1483228826) 0x6a0-0x6a8 (8)
0x6a0|                        00 00 00 1b            |        ....    |        corr: 27 0x6a8-0x6ac (4)
     |                                               |                |    standard_wall_indicators[0:10]: 0x6ac-0x6b6 (10)
0x6a0|                                    00         |            .   |      [0]: 0 standard_wall_indicator (valid) 0x6ac-0x6ad (1)
0x6a0|                                       00      |             .  |      [1]: 0 standard_wall_indicator (valid) 0x6ad-0x6ae (1)
0x6a0|                                          00   |              . |      [2]: 0 standard_wall_indicator (valid) 0x6ae-0x6af (1)
0x6a0|                                             00|               .|      [3]: 0 standard_wall_indicator (valid) 0x6af-0x6b0 (1)
0x6b0|00                                             |.               |      [4]: 0 standard_wall_indicator (valid) 0x6b0-0x6b1 (1)
0x6b0|   01                                          | .              |      [5]: 1 standard_wall_indicator (valid) 0x6b1-0x6b2 (1)
0x6b0|      01                                       |  .             |      [6]: 1 standard_wall_indicator (valid) 0x6b2-0x6b3 (1)
0x6b0|         01                                    |   .            |      [7]: 1 standard_wall_indicator (valid) 0x6b3-0x6b4 (1)
0x6b0|            01                                 |    .           |      [8]: 1 standard_wall_indicator (valid) 0x6b4-0x6b5 (1)
0x6b0|               01                              |     .          |      [9]: 1 standard_wall_indicator (valid) 0x6b5-0x6b6 (1)
     |                                               |                |    ut_local_indicators[0:0]: 0x6b6-0x6b6 (0)
     |                                               |                |  footer{}: 0x6b6-0x6b8 (2)
0x6b0|                  0a                           |      .         |    nl1: 10 (valid) 0x6b6-0x6b7 (1)
     |                                               |                |    tz_string: "" 0x6b7-0x6b7 (0)
0x6b0|                     0a|                       |       .|       |    nl2: 10 (valid) 0x6b7-0x6b8 (1)
