$ fq -d tzif dv Anchorage
     |00 01 02 03 04 05 06 07 08 09 0a 0b 0c 0d 0e 0f|0123456789abcdef|.{}: Anchorage (tzif) 0x0-0x9bf (2495)
     |                                               |                |  v1header{}: 0x0-0x2c (44)
0x000|54 5a 69 66                                    |TZif            |    magic: 0x545a6966 (valid) 0x0-0x4 (4)
0x000|            32                                 |    2           |    ver: "2" (0x32) (valid) 0x4-0x5 (1)
0x000|               00 00 00 00 00 00 00 00 00 00 00|     ...........|    reserved: raw bits 0x5-0x14 (15)
0x010|00 00 00 00                                    |....            |
0x010|            00 00 00 09                        |    ....        |    isutcnt: 9 0x14-0x18 (4)
0x010|                        00 00 00 09            |        ....    |    isstdcnt: 9 0x18-0x1c (4)
0x010|                                    00 00 00 1b|            ....|    leapcnt: 27 0x1c-0x20 (4)
0x020|00 00 00 74                                    |...t            |    timecnt: 116 0x20-0x24 (4)
0x020|            00 00 00 09                        |    ....        |    typecnt: 9 0x24-0x28 (4)
0x020|                        00 00 00 28            |        ...(    |    charcnt: 40 0x28-0x2c (4)
     |                                               |                |  v1datablock{}: 0x2c-0x3b8 (908)
     |                                               |                |    transition_times[0:116]: 0x2c-0x1fc (464)
0x020|                                    80 00 00 00|            ....|      [0]: "1901-12-13T20:45:52Z" (-2147483648) transition_time 0x2c-0x30 (4)
0x030|cb 89 36 c0                                    |..6.            |      [1]: "1942-02-09T12:00:00Z" (-880200000) transition_time 0x30-0x34 (4)
0x030|            d2 23 f4 70                        |    .#.p        |      [2]: "1945-08-14T23:00:00Z" (-769395600) transition_time 0x34-0x38 (4)
0x030|                        d2 61 42 30            |        .aB0    |      [3]: "1945-09-30T11:00:00Z" (-765378000) transition_time 0x38-0x3c (4)
0x030|                                    fa d2 47 a0|            ..G.|      [4]: "1967-04-01T10:00:00Z" (-86882400) transition_time 0x3c-0x40 (4)
0x040|fe b8 63 40                                    |..c@            |      [5]: "1969-04-27T12:00:00Z" (-21470400) transition_time 0x40-0x44 (4)
0x040|            ff a8 46 30                        |    ..F0        |      [6]: "1969-10-26T11:00:00Z" (-5749200) transition_time 0x44-0x48 (4)
0x040|                        00 98 45 40            |        ..E@    |      [7]: "1970-04-26T12:00:00Z" (9979200) transition_time 0x48-0x4c (4)
0x040|                                    01 88 28 30|            ..(0|      [8]: "1970-10-25T11:00:00Z" (25700400) transition_time 0x4c-0x50 (4)
0x050|02 78 27 40                                    |.x'@            |      [9]: "1971-04-25T12:00:00Z" (41428800) transition_time 0x50-0x54 (4)
0x050|            03 71 44 b0                        |    .qD.        |      [10]: "1971-10-31T11:00:00Z" (57754800) transition_time 0x54-0x58 (4)
0x050|                        04 61 43 c0            |        .aC.    |      [11]: "1972-04-30T12:00:00Z" (73483200) transition_time 0x58-0x5c (4)
0x050|                                    05 51 26 b1|            .Q&.|      [12]: "1972-10-29T11:00:01Z" (89204401) transition_time 0x5c-0x60 (4)
0x060|06 41 25 c2                                    |.A%.            |      [13]: "1973-04-29T12:00:02Z" (104932802) transition_time 0x60-0x64 (4)
0x060|            07 31 08 b2                        |    .1..        |      [14]: "1973-10-28T11:00:02Z" (120654002) transition_time 0x64-0x68 (4)
0x060|                        07 8d 5f c3            |        .._.    |      [15]: "1974-01-06T12:00:03Z" (126705603) transition_time 0x68-0x6c (4)
0x060|                                    09 10 ea b3|            ....|      [16]: "1974-10-27T11:00:03Z" (152103603) transition_time 0x6c-0x70 (4)
0x070|09 ad db 44                                    |...D            |      [17]: "1975-02-23T12:00:04Z" (162388804) transition_time 0x70-0x74 (4)
0x070|            0a f0 cc b4                        |    ....        |      [18]: "1975-10-26T11:00:04Z" (183553204) transition_time 0x74-0x78 (4)
0x070|                        0b e0 cb c5            |        ....    |      [19]: "1976-04-25T12:00:05Z" (199281605) transition_time 0x78-0x7c (4)
0x070|                                    0c d9 e9 35|            ...5|      [20]: "1976-10-31T11:00:05Z" (215607605) transition_time 0x7c-0x80 (4)
0x080|0d c0 ad c6                                    |....            |      [21]: "1977-04-24T12:00:06Z" (230731206) transition_time 0x80-0x84 (4)
0x080|            0e b9 cb 36                        |    ...6        |      [22]: "1977-10-30T11:00:06Z" (247057206) transition_time 0x84-0x88 (4)
0x080|                        0f a9 ca 47            |        ...G    |      [23]: "1978-04-30T12:00:07Z" (262785607) transition_time 0x88-0x8c (4)
0x080|                                    10 99 ad 37|            ...7|      [24]: "1978-10-29T11:00:07Z" (278506807) transition_time 0x8c-0x90 (4)
0x090|11 89 ac 48                                    |...H            |      [25]: "1979-04-29T12:00:08Z" (294235208) transition_time 0x90-0x94 (4)
0x090|            12 79 8f 38                        |    .y.8        |      [26]: "1979-10-28T11:00:08Z" (309956408) transition_time 0x94-0x98 (4)
0x090|                        13 69 8e 49            |        .i.I    |      [27]: "1980-04-27T12:00:09Z" (325684809) transition_time 0x98-0x9c (4)
0x090|                                    14 59 71 39|            .Yq9|      [28]: "1980-10-26T11:00:09Z" (341406009) transition_time 0x9c-0xa0 (4)
0x0a0|15 49 70 49                                    |.IpI            |      [29]: "1981-04-26T12:00:09Z" (357134409) transition_time 0xa0-0xa4 (4)
0x0a0|            16 39 53 3a                        |    .9S:        |      [30]: "1981-10-25T11:00:10Z" (372855610) transition_time 0xa4-0xa8 (4)
0x0a0|                        17 29 52 4a            |        .)RJ    |      [31]: "1982-04-25T12:00:10Z" (388584010) transition_time 0xa8-0xac (4)
0x0a0|                                    18 22 6f bb|            ."o.|      [32]: "1982-10-31T11:00:11Z" (404910011) transition_time 0xac-0xb0 (4)
0x0b0|19 09 34 4b                                    |..4K            |      [33]: "1983-04-24T12:00:11Z" (420033611) transition_time 0xb0-0xb4 (4)
0x0b0|            1a 02 51 bc                        |    ..Q.        |      [34]: "1983-10-30T11:00:12Z" (436359612) transition_time 0xb4-0xb8 (4)
0x0b0|                        1a 2b 14 1c            |        .+..    |      [35]: "1983-11-30T09:00:12Z" (439030812) transition_time 0xb8-0xbc (4)
0x0b0|                                    1a f2 42 bc|            ..B.|      [36]: "1984-04-29T11:00:12Z" (452084412) transition_time 0xbc-0xc0 (4)
0x0c0|1b e2 25 ac                                    |..%.            |      [37]: "1984-10-28T10:00:12Z" (467805612) transition_time 0xc0-0xc4 (4)
0x0c0|            1c d2 24 bc                        |    ..$.        |      [38]: "1985-04-28T11:00:12Z" (483534012) transition_time 0xc4-0xc8 (4)
0x0c0|                        1d c2 07 ad            |        ....    |      [39]: "1985-10-27T10:00:13Z" (499255213) transition_time 0xc8-0xcc (4)
0x0c0|                                    1e b2 06 bd|            ....|      [40]: "1986-04-27T11:00:13Z" (514983613) transition_time 0xcc-0xd0 (4)
0x0d0|1f a1 e9 ad                                    |....            |      [41]: "1986-10-26T10:00:13Z" (530704813) transition_time 0xd0-0xd4 (4)
0x0d0|            20 76 39 3d                        |     v9=        |      [42]: "1987-04-05T11:00:13Z" (544618813) transition_time 0xd4-0xd8 (4)
0x0d0|                        21 81 cb ad            |        !...    |      [43]: "1987-10-25T10:00:13Z" (562154413) transition_time 0xd8-0xdc (4)
0x0d0|                                    22 56 1b 3e|            "V.>|      [44]: "1988-04-03T11:00:14Z" (576068414) transition_time 0xdc-0xe0 (4)
0x0e0|23 6a e8 2e                                    |#j..            |      [45]: "1988-10-30T10:00:14Z" (594208814) transition_time 0xe0-0xe4 (4)
0x0e0|            24 35 fd 3e                        |    $5.>        |      [46]: "1989-04-02T11:00:14Z" (607518014) transition_time 0xe4-0xe8 (4)
0x0e0|                        25 4a ca 2e            |        %J..    |      [47]: "1989-10-29T10:00:14Z" (625658414) transition_time 0xe8-0xec (4)
0x0e0|                                    26 15 df 3f|            &..?|      [48]: "1990-04-01T11:00:15Z" (638967615) transition_time 0xec-0xf0 (4)
0x0f0|27 2a ac 2f                                    |'*./            |      [49]: "1990-10-28T10:00:15Z" (657108015) transition_time 0xf0-0xf4 (4)
0x0f0|            27 fe fb c0                        |    '...        |      [50]: "1991-04-07T11:00:16Z" (671022016) transition_time 0xf4-0xf8 (4)
0x0f0|                        29 0a 8e 30            |        )..0    |      [51]: "1991-10-27T10:00:16Z" (688557616) transition_time 0xf8-0xfc (4)
0x0f0|                                    29 de dd c0|            )...|      [52]: "1992-04-05T11:00:16Z" (702471616) transition_time 0xfc-0x100 (4)
0x100|2a ea 70 31                                    |*.p1            |      [53]: "1992-10-25T10:00:17Z" (720007217) transition_time 0x100-0x104 (4)
0x100|            2b be bf c1                        |    +...        |      [54]: "1993-04-04T11:00:17Z" (733921217) transition_time 0x104-0x108 (4)
0x100|                        2c d3 8c b2            |        ,...    |      [55]: "1993-10-31T10:00:18Z" (752061618) transition_time 0x108-0x10c (4)
0x100|                                    2d 9e a1 c2|            -...|      [56]: "1994-04-03T11:00:18Z" (765370818) transition_time 0x10c-0x110 (4)
0x110|2e b3 6e b3                                    |..n.            |      [57]: "1994-10-30T10:00:19Z" (783511219) transition_time 0x110-0x114 (4)
0x110|            2f 7e 83 c3                        |    /~..        |      [58]: "1995-04-02T11:00:19Z" (796820419) transition_time 0x114-0x118 (4)
0x110|                        30 93 50 b3            |        0.P.    |      [59]: "1995-10-29T10:00:19Z" (814960819) transition_time 0x118-0x11c (4)
0x110|                                    31 67 a0 44|            1g.D|      [60]: "1996-04-07T11:00:20Z" (828874820) transition_time 0x11c-0x120 (4)
0x120|32 73 32 b4                                    |2s2.            |      [61]: "1996-10-27T10:00:20Z" (846410420) transition_time 0x120-0x124 (4)
0x120|            33 47 82 44                        |    3G.D        |      [62]: "1997-04-06T11:00:20Z" (860324420) transition_time 0x124-0x128 (4)
0x120|                        34 53 14 b5            |        4S..    |      [63]: "1997-10-26T10:00:21Z" (877860021) transition_time 0x128-0x12c (4)
0x120|                                    35 27 64 45|            5'dE|      [64]: "1998-04-05T11:00:21Z" (891774021) transition_time 0x12c-0x130 (4)
0x130|36 32 f6 b5                                    |62..            |      [65]: "1998-10-25T10:00:21Z" (909309621) transition_time 0x130-0x134 (4)
0x130|            37 07 46 46                        |    7.FF        |      [66]: "1999-04-04T11:00:22Z" (923223622) transition_time 0x134-0x138 (4)
0x130|                        38 1c 13 36            |        8..6    |      [67]: "1999-10-31T10:00:22Z" (941364022) transition_time 0x138-0x13c (4)
0x130|                                    38 e7 28 46|            8.(F|      [68]: "2000-04-02T11:00:22Z" (954673222) transition_time 0x13c-0x140 (4)
0x140|39 fb f5 36                                    |9..6            |      [69]: "2000-10-29T10:00:22Z" (972813622) transition_time 0x140-0x144 (4)
0x140|            3a c7 0a 46                        |    :..F        |      [70]: "2001-04-01T11:00:22Z" (986122822) transition_time 0x144-0x148 (4)
0x140|                        3b db d7 36            |        ;..6    |      [71]: "2001-10-28T10:00:22Z" (1004263222) transition_time 0x148-0x14c (4)
0x140|                                    3c b0 26 c6|            <.&.|      [72]: "2002-04-07T11:00:22Z" (1018177222) transition_time 0x14c-0x150 (4)
0x150|3d bb b9 36                                    |=..6            |      [73]: "2002-10-27T10:00:22Z" (1035712822) transition_time 0x150-0x154 (4)
0x150|            3e 90 08 c6                        |    >...        |      [74]: "2003-04-06T11:00:22Z" (1049626822) transition_time 0x154-0x158 (4)
0x150|                        3f 9b 9b 36            |        ?..6    |      [75]: "2003-10-26T10:00:22Z" (1067162422) transition_time 0x158-0x15c (4)
0x150|                                    40 6f ea c6|            @o..|      [76]: "2004-04-04T11:00:22Z" (1081076422) transition_time 0x15c-0x160 (4)
0x160|41 84 b7 b6                                    |A...            |      [77]: "2004-10-31T10:00:22Z" (1099216822) transition_time 0x160-0x164 (4)
0x160|            42 4f cc c6                        |    BO..        |      [78]: "2005-04-03T11:00:22Z" (1112526022) transition_time 0x164-0x168 (4)
0x160|                        43 64 99 b6            |        Cd..    |      [79]: "2005-10-30T10:00:22Z" (1130666422) transition_time 0x168-0x16c (4)
0x160|                                    44 2f ae c7|            D/..|      [80]: "2006-04-02T11:00:23Z" (1143975623) transition_time 0x16c-0x170 (4)
0x170|45 44 7b b7                                    |ED{.            |      [81]: "2006-10-29T10:00:23Z" (1162116023) transition_time 0x170-0x174 (4)
0x170|            45 f3 e1 47                        |    E..G        |      [82]: "2007-03-11T11:00:23Z" (1173610823) transition_time 0x174-0x178 (4)
0x170|                        47 2d 98 37            |        G-.7    |      [83]: "2007-11-04T10:00:23Z" (1194170423) transition_time 0x178-0x17c (4)
0x170|                                    47 d3 c3 47|            G..G|      [84]: "2008-03-09T11:00:23Z" (1205060423) transition_time 0x17c-0x180 (4)
0x180|49 0d 7a 37                                    |I.z7            |      [85]: "2008-11-02T10:00:23Z" (1225620023) transition_time 0x180-0x184 (4)
0x180|            49 b3 a5 48                        |    I..H        |      [86]: "2009-03-08T11:00:24Z" (1236510024) transition_time 0x184-0x188 (4)
0x180|                        4a ed 5c 38            |        J.\8    |      [87]: "2009-11-01T10:00:24Z" (1257069624) transition_time 0x188-0x18c (4)
0x180|                                    4b 9c c1 c8|            K...|      [88]: "2010-03-14T11:00:24Z" (1268564424) transition_time 0x18c-0x190 (4)
0x190|4c d6 78 b8                                    |L.x.            |      [89]: "2010-11-07T10:00:24Z" (1289124024) transition_time 0x190-0x194 (4)
0x190|            4d 7c a3 c8                        |    M|..        |      [90]: "2011-03-13T11:00:24Z" (1300014024) transition_time 0x194-0x198 (4)
0x190|                        4e b6 5a b8            |        N.Z.    |      [91]: "2011-11-06T10:00:24Z" (1320573624) transition_time 0x198-0x19c (4)
0x190|                                    4f 5c 85 c8|            O\..|      [92]: "2012-03-11T11:00:24Z" (1331463624) transition_time 0x19c-0x1a0 (4)
0x1a0|50 96 3c b9                                    |P.<.            |      [93]: "2012-11-04T10:00:25Z" (1352023225) transition_time 0x1a0-0x1a4 (4)
0x1a0|            51 3c 67 c9                        |    Q<g.        |      [94]: "2013-03-10T11:00:25Z" (1362913225) transition_time 0x1a4-0x1a8 (4)
0x1a0|                        52 76 1e b9            |        Rv..    |      [95]: "2013-11-03T10:00:25Z" (1383472825) transition_time 0x1a8-0x1ac (4)
0x1a0|                                    53 1c 49 c9|            S.I.|      [96]: "2014-03-09T11:00:25Z" (1394362825) transition_time 0x1ac-0x1b0 (4)
0x1b0|54 56 00 b9                                    |TV..            |      [97]: "2014-11-02T10:00:25Z" (1414922425) transition_time 0x1b0-0x1b4 (4)
0x1b0|            54 fc 2b c9                        |    T.+.        |      [98]: "2015-03-08T11:00:25Z" (1425812425) transition_time 0x1b4-0x1b8 (4)
0x1b0|                        56 35 e2 ba            |        V5..    |      [99]: "2015-11-01T10:00:26Z" (1446372026) transition_time 0x1b8-0x1bc (4)
0x1b0|                                    56 e5 48 4a|            V.HJ|      [100]: "2016-03-13T11:00:26Z" (1457866826) transition_time 0x1bc-0x1c0 (4)
0x1c0|58 1e ff 3a                                    |X..:            |      [101]: "2016-11-06T10:00:26Z" (1478426426) transition_time 0x1c0-0x1c4 (4)
0x1c0|            58 c5 2a 4b                        |    X.*K        |      [102]: "2017-03-12T11:00:27Z" (1489316427) transition_time 0x1c4-0x1c8 (4)
0x1c0|                        59 fe e1 3b            |        Y..;    |      [103]: "2017-11-05T10:00:27Z" (1509876027) transition_time 0x1c8-0x1cc (4)
0x1c0|                                    5a a5 0c 4b|            Z..K|      [104]: "2018-03-11T11:00:27Z" (1520766027) transition_time 0x1cc-0x1d0 (4)
0x1d0|5b de c3 3b                                    |[..;            |      [105]: "2018-11-04T10:00:27Z" (1541325627) transition_time 0x1d0-0x1d4 (4)
0x1d0|            5c 84 ee 4b                        |    \..K        |      [106]: "2019-03-10T11:00:27Z" (1552215627) transition_time 0x1d4-0x1d8 (4)
0x1d0|                        5d be a5 3b            |        ]..;    |      [107]: "2019-11-03T10:00:27Z" (1572775227) transition_time 0x1d8-0x1dc (4)
0x1d0|                                    5e 64 d0 4b|            ^d.K|      [108]: "2020-03-08T11:00:27Z" (1583665227) transition_time 0x1dc-0x1e0 (4)
0x1e0|5f 9e 87 3b                                    |_..;            |      [109]: "2020-11-01T10:00:27Z" (1604224827) transition_time 0x1e0-0x1e4 (4)
0x1e0|            60 4d ec cb                        |    `M..        |      [110]: "2021-03-14T11:00:27Z" (1615719627) transition_time 0x1e4-0x1e8 (4)
0x1e0|                        61 87 a3 bb            |        a...    |      [111]: "2021-11-07T10:00:27Z" (1636279227) transition_time 0x1e8-0x1ec (4)
0x1e0|                                    62 2d ce cb|            b-..|      [112]: "2022-03-13T11:00:27Z" (1647169227) transition_time 0x1ec-0x1f0 (4)
0x1f0|63 67 85 bb                                    |cg..            |      [113]: "2022-11-06T10:00:27Z" (1667728827) transition_time 0x1f0-0x1f4 (4)
0x1f0|            64 0d b0 cb                        |    d...        |      [114]: "2023-03-12T11:00:27Z" (1678618827) transition_time 0x1f4-0x1f8 (4)
0x1f0|                        64 9b 78 1b            |        d.x.    |      [115]: "2023-06-28T00:00:27Z" (1687910427) transition_time 0x1f8-0x1fc (4)
     |                                               |                |    transition_types[0:116]: 0x1fc-0x270 (116)
0x1f0|                                    01         |            .   |      [0]: 1 transition_type 0x1fc-0x1fd (1)
0x1f0|                                       02      |             .  |      [1]: 2 transition_type 0x1fd-0x1fe (1)
0x1f0|                                          03   |              . |      [2]: 3 transition_type 0x1fe-0x1ff (1)
0x1f0|                                             01|               .|      [3]: 1 transition_type 0x1ff-0x200 (1)
0x200|04                                             |.               |      [4]: 4 transition_type 0x200-0x201 (1)
0x200|   05                                          | .              |      [5]: 5 transition_type 0x201-0x202 (1)
0x200|      04                                       |  .             |      [6]: 4 transition_type 0x202-0x203 (1)
0x200|         05                                    |   .            |      [7]: 5 transition_type 0x203-0x204 (1)
0x200|            04                                 |    .           |      [8]: 4 transition_type 0x204-0x205 (1)
0x200|               05                              |     .          |      [9]: 5 transition_type 0x205-0x206 (1)
0x200|                  04                           |      .         |      [10]: 4 transition_type 0x206-0x207 (1)
0x200|                     05                        |       .        |      [11]: 5 transition_type 0x207-0x208 (1)
0x200|                        04                     |        .       |      [12]: 4 transition_type 0x208-0x209 (1)
0x200|                           05                  |         .      |      [13]: 5 transition_type 0x209-0x20a (1)
0x200|                              04               |          .     |      [14]: 4 transition_type 0x20a-0x20b (1)
0x200|                                 05            |           .    |      [15]: 5 transition_type 0x20b-0x20c (1)
0x200|                                    04         |            .   |      [16]: 4 transition_type 0x20c-0x20d (1)
0x200|                                       05      |             .  |      [17]: 5 transition_type 0x20d-0x20e (1)
0x200|                                          04   |              . |      [18]: 4 transition_type 0x20e-0x20f (1)
0x200|                                             05|               .|      [19]: 5 transition_type 0x20f-0x210 (1)
0x210|04                                             |.               |      [20]: 4 transition_type 0x210-0x211 (1)
0x210|   05                                          | .              |      [21]: 5 transition_type 0x211-0x212 (1)
0x210|      04                                       |  .             |      [22]: 4 transition_type 0x212-0x213 (1)
0x210|         05                                    |   .            |      [23]: 5 transition_type 0x213-0x214 (1)
0x210|            04                                 |    .           |      [24]: 4 transition_type 0x214-0x215 (1)
0x210|               05                              |     .          |      [25]: 5 transition_type 0x215-0x216 (1)
0x210|                  04                           |      .         |      [26]: 4 transition_type 0x216-0x217 (1)
0x210|                     05                        |       .        |      [27]: 5 transition_type 0x217-0x218 (1)
0x210|                        04                     |        .       |      [28]: 4 transition_type 0x218-0x219 (1)
0x210|                           05                  |         .      |      [29]: 5 transition_type 0x219-0x21a (1)
0x210|                              04               |          .     |      [30]: 4 transition_type 0x21a-0x21b (1)
0x210|                                 05            |           .    |      [31]: 5 transition_type 0x21b-0x21c (1)
0x210|                                    04         |            .   |      [32]: 4 transition_type 0x21c-0x21d (1)
0x210|                                       05      |             .  |      [33]: 5 transition_type 0x21d-0x21e (1)
0x210|                                          06   |              . |      [34]: 6 transition_type 0x21e-0x21f (1)
0x210|                                             08|               .|      [35]: 8 transition_type 0x21f-0x220 (1)
0x220|07                                             |.               |      [36]: 7 transition_type 0x220-0x221 (1)
0x220|   08                                          | .              |      [37]: 8 transition_type 0x221-0x222 (1)
0x220|      07                                       |  .             |      [38]: 7 transition_type 0x222-0x223 (1)
0x220|         08                                    |   .            |      [39]: 8 transition_type 0x223-0x224 (1)
0x220|            07                                 |    .           |      [40]: 7 transition_type 0x224-0x225 (1)
0x220|               08                              |     .          |      [41]: 8 transition_type 0x225-0x226 (1)
0x220|                  07                           |      .         |      [42]: 7 transition_type 0x226-0x227 (1)
0x220|                     08                        |       .        |      [43]: 8 transition_type 0x227-0x228 (1)
0x220|                        07                     |        .       |      [44]: 7 transition_type 0x228-0x229 (1)
0x220|                           08                  |         .      |      [45]: 8 transition_type 0x229-0x22a (1)
0x220|                              07               |          .     |      [46]: 7 transition_type 0x22a-0x22b (1)
0x220|                                 08            |           .    |      [47]: 8 transition_type 0x22b-0x22c (1)
0x220|                                    07         |            .   |      [48]: 7 transition_type 0x22c-0x22d (1)
0x220|                                       08      |             .  |      [49]: 8 transition_type 0x22d-0x22e (1)
0x220|                                          07   |              . |      [50]: 7 transition_type 0x22e-0x22f (1)
0x220|                                             08|               .|      [51]: 8 transition_type 0x22f-0x230 (1)
0x230|07                                             |.               |      [52]: 7 transition_type 0x230-0x231 (1)
0x230|   08                                          | .              |      [53]: 8 transition_type 0x231-0x232 (1)
0x230|      07                                       |  .             |      [54]: 7 transition_type 0x232-0x233 (1)
0x230|         08                                    |   .            |      [55]: 8 transition_type 0x233-0x234 (1)
0x230|            07                                 |    .           |      [56]: 7 transition_type 0x234-0x235 (1)
0x230|               08                              |     .          |      [57]: 8 transition_type 0x235-0x236 (1)
0x230|                  07                           |      .         |      [58]: 7 transition_type 0x236-0x237 (1)
0x230|                     08                        |       .        |      [59]: 8 transition_type 0x237-0x238 (1)
0x230|                        07                     |        .       |      [60]: 7 transition_type 0x238-0x239 (1)
0x230|                           08                  |         .      |      [61]: 8 transition_type 0x239-0x23a (1)
0x230|                              07               |          .     |      [62]: 7 transition_type 0x23a-0x23b (1)
0x230|                                 08            |           .    |      [63]: 8 transition_type 0x23b-0x23c (1)
0x230|                                    07         |            .   |      [64]: 7 transition_type 0x23c-0x23d (1)
0x230|                                       08      |             .  |      [65]: 8 transition_type 0x23d-0x23e (1)
0x230|                                          07   |              . |      [66]: 7 transition_type 0x23e-0x23f (1)
0x230|                                             08|               .|      [67]: 8 transition_type 0x23f-0x240 (1)
0x240|07                                             |.               |      [68]: 7 transition_type 0x240-0x241 (1)
0x240|   08                                          | .              |      [69]: 8 transition_type 0x241-0x242 (1)
0x240|      07                                       |  .             |      [70]: 7 transition_type 0x242-0x243 (1)
0x240|         08                                    |   .            |      [71]: 8 transition_type 0x243-0x244 (1)
0x240|            07                                 |    .           |      [72]: 7 transition_type 0x244-0x245 (1)
0x240|               08                              |     .          |      [73]: 8 transition_type 0x245-0x246 (1)
0x240|                  07                           |      .         |      [74]: 7 transition_type 0x246-0x247 (1)
0x240|                     08                        |       .        |      [75]: 8 transition_type 0x247-0x248 (1)
0x240|                        07                     |        .       |      [76]: 7 transition_type 0x248-0x249 (1)
0x240|                           08                  |         .      |      [77]: 8 transition_type 0x249-0x24a (1)
0x240|                              07               |          .     |      [78]: 7 transition_type 0x24a-0x24b (1)
0x240|                                 08            |           .    |      [79]: 8 transition_type 0x24b-0x24c (1)
0x240|                                    07         |            .   |      [80]: 7 transition_type 0x24c-0x24d (1)
0x240|                                       08      |             .  |      [81]: 8 transition_type 0x24d-0x24e (1)
0x240|                                          07   |              . |      [82]: 7 transition_type 0x24e-0x24f (1)
0x240|                                             08|               .|      [83]: 8 transition_type 0x24f-0x250 (1)
0x250|07                                             |.               |      [84]: 7 transition_type 0x250-0x251 (1)
0x250|   08                                          | .              |      [85]: 8 transition_type 0x251-0x252 (1)
0x250|      07                                       |  .             |      [86]: 7 transition_type 0x252-0x253 (1)
0x250|         08                                    |   .            |      [87]: 8 transition_type 0x253-0x254 (1)
0x250|            07                                 |    .           |      [88]: 7 transition_type 0x254-0x255 (1)
0x250|               08                              |     .          |      [89]: 8 transition_type 0x255-0x256 (1)
0x250|                  07                           |      .         |      [90]: 7 transition_type 0x256-0x257 (1)
0x250|                     08                        |       .        |      [91]: 8 transition_type 0x257-0x258 (1)
0x250|                        07                     |        .       |      [92]: 7 transition_type 0x258-0x259 (1)
0x250|                           08                  |         .      |      [93]: 8 transition_type 0x259-0x25a (1)
0x250|                              07               |          .     |      [94]: 7 transition_type 0x25a-0x25b (1)
0x250|                                 08            |           .    |      [95]: 8 transition_type 0x25b-0x25c (1)
0x250|                                    07         |            .   |      [96]: 7 transition_type 0x25c-0x25d (1)
0x250|                                       08      |             .  |      [97]: 8 transition_type 0x25d-0x25e (1)
0x250|                                          07   |              . |      [98]: 7 transition_type 0x25e-0x25f (1)
0x250|                                             08|               .|      [99]: 8 transition_type 0x25f-0x260 (1)
0x260|07                                             |.               |      [100]: 7 transition_type 0x260-0x261 (1)
0x260|   08                                          | .              |      [101]: 8 transition_type 0x261-0x262 (1)
0x260|      07                                       |  .             |      [102]: 7 transition_type 0x262-0x263 (1)
0x260|         08                                    |   .            |      [103]: 8 transition_type 0x263-0x264 (1)
0x260|            07                                 |    .           |      [104]: 7 transition_type 0x264-0x265 (1)
0x260|               08                              |     .          |      [105]: 8 transition_type 0x265-0x266 (1)
0x260|                  07                           |      .         |      [106]: 7 transition_type 0x266-0x267 (1)
0x260|                     08                        |       .        |      [107]: 8 transition_type 0x267-0x268 (1)
0x260|                        07                     |        .       |      [108]: 7 transition_type 0x268-0x269 (1)
0x260|                           08                  |         .      |      [109]: 8 transition_type 0x269-0x26a (1)
0x260|                              07               |          .     |      [110]: 7 transition_type 0x26a-0x26b (1)
0x260|                                 08            |           .    |      [111]: 8 transition_type 0x26b-0x26c (1)
0x260|                                    07         |            .   |      [112]: 7 transition_type 0x26c-0x26d (1)
0x260|                                       08      |             .  |      [113]: 8 transition_type 0x26d-0x26e (1)
0x260|                                          07   |              . |      [114]: 7 transition_type 0x26e-0x26f (1)
0x260|                                             07|               .|      [115]: 7 transition_type 0x26f-0x270 (1)
     |                                               |                |    local_time_type_records[0:9]: 0x270-0x2a6 (54)
     |                                               |                |      [0]{}: local_time_type 0x270-0x276 (6)
0x270|00 00 c4 f8                                    |....            |        utoff: 50424 (valid) 0x270-0x274 (4)
0x270|            00                                 |    .           |        dst: 0 (valid) 0x274-0x275 (1)
0x270|               00                              |     .          |        idx: 0 (valid) 0x275-0x276 (1)
     |                                               |                |      [1]{}: local_time_type 0x276-0x27c (6)
0x270|                  ff ff 73 60                  |      ..s`      |        utoff: -36000 (valid) 0x276-0x27a (4)
0x270|                              00               |          .     |        dst: 0 (valid) 0x27a-0x27b (1)
0x270|                                 04            |           .    |        idx: 4 (valid) 0x27b-0x27c (1)
     |                                               |                |      [2]{}: local_time_type 0x27c-0x282 (6)
0x270|                                    ff ff 81 70|            ...p|        utoff: -32400 (valid) 0x27c-0x280 (4)
0x280|01                                             |.               |        dst: 1 (valid) 0x280-0x281 (1)
0x280|   08                                          | .              |        idx: 8 (valid) 0x281-0x282 (1)
     |                                               |                |      [3]{}: local_time_type 0x282-0x288 (6)
0x280|      ff ff 81 70                              |  ...p          |        utoff: -32400 (valid) 0x282-0x286 (4)
0x280|                  01                           |      .         |        dst: 1 (valid) 0x286-0x287 (1)
0x280|                     0c                        |       .        |        idx: 12 (valid) 0x287-0x288 (1)
     |                                               |                |      [4]{}: local_time_type 0x288-0x28e (6)
0x280|                        ff ff 73 60            |        ..s`    |        utoff: -36000 (valid) 0x288-0x28c (4)
0x280|                                    00         |            .   |        dst: 0 (valid) 0x28c-0x28d (1)
0x280|                                       10      |             .  |        idx: 16 (valid) 0x28d-0x28e (1)
     |                                               |                |      [5]{}: local_time_type 0x28e-0x294 (6)
0x280|                                          ff ff|              ..|        utoff: -32400 (valid) 0x28e-0x292 (4)
0x290|81 70                                          |.p              |
0x290|      01                                       |  .             |        dst: 1 (valid) 0x292-0x293 (1)
0x290|         15                                    |   .            |        idx: 21 (valid) 0x293-0x294 (1)
     |                                               |                |      [6]{}: local_time_type 0x294-0x29a (6)
0x290|            ff ff 81 70                        |    ...p        |        utoff: -32400 (valid) 0x294-0x298 (4)
0x290|                        00                     |        .       |        dst: 0 (valid) 0x298-0x299 (1)
0x290|                           1a                  |         .      |        idx: 26 (valid) 0x299-0x29a (1)
     |                                               |                |      [7]{}: local_time_type 0x29a-0x2a0 (6)
0x290|                              ff ff 8f 80      |          ....  |        utoff: -28800 (valid) 0x29a-0x29e (4)
0x290|                                          01   |              . |        dst: 1 (valid) 0x29e-0x29f (1)
0x290|                                             1e|               .|        idx: 30 (valid) 0x29f-0x2a0 (1)
     |                                               |                |      [8]{}: local_time_type 0x2a0-0x2a6 (6)
0x2a0|ff ff 81 70                                    |...p            |        utoff: -32400 (valid) 0x2a0-0x2a4 (4)
0x2a0|            00                                 |    .           |        dst: 0 (valid) 0x2a4-0x2a5 (1)
0x2a0|               23                              |     #          |        idx: 35 (valid) 0x2a5-0x2a6 (1)
     |                                               |                |    time_zone_designations[0:9]: 0x2a6-0x2ce (40)
0x2a0|                  4c 4d 54 00                  |      LMT.      |      [0]: "LMT" time_zone_designation 0x2a6-0x2aa (4)
0x2a0|                              41 53 54 00      |          AST.  |      [1]: "AST" time_zone_designation 0x2aa-0x2ae (4)
0x2a0|                                          41 57|              AW|      [2]: "AWT" time_zone_designation 0x2ae-0x2b2 (4)
0x2b0|54 00                                          |T.              |
0x2b0|      41 50 54 00                              |  APT.          |      [3]: "APT" time_zone_designation 0x2b2-0x2b6 (4)
0x2b0|                  41 48 53 54 00               |      AHST.     |      [4]: "AHST" time_zone_designation 0x2b6-0x2bb (5)
0x2b0|                                 41 48 44 54 00|           AHDT.|      [5]: "AHDT" time_zone_designation 0x2bb-0x2c0 (5)
0x2c0|59 53 54 00                                    |YST.            |      [6]: "YST" time_zone_designation 0x2c0-0x2c4 (4)
0x2c0|            41 4b 44 54 00                     |    AKDT.       |      [7]: "AKDT" time_zone_designation 0x2c4-0x2c9 (5)
0x2c0|                           41 4b 53 54 00      |         AKST.  |      [8]: "AKST" time_zone_designation 0x2c9-0x2ce (5)
     |                                               |                |    leap_second_records[0:27]: 0x2ce-0x3a6 (216)
     |                                               |                |      [0]{}: leap_second_record 0x2ce-0x2d6 (8)
0x2c0|                                          04 b2|              ..|        occur: "1972-07-01T00:00:00Z" (78796800) 0x2ce-0x2d2 (4)
0x2d0|58 00                                          |X.              |
0x2d0|      00 00 00 01                              |  ....          |        corr: 1 0x2d2-0x2d6 (4)
     |                                               |                |      [1]{}: leap_second_record 0x2d6-0x2de (8)
0x2d0|                  05 a4 ec 01                  |      ....      |        occur: "1973-01-01T00:00:01Z" (94694401) 0x2d6-0x2da (4)
0x2d0|                              00 00 00 02      |          ....  |        corr: 2 0x2da-0x2de (4)
     |                                               |                |      [2]{}: leap_second_record 0x2de-0x2e6 (8)
0x2d0|                                          07 86|              ..|        occur: "1974-01-01T00:00:02Z" (126230402) 0x2de-0x2e2 (4)
0x2e0|1f 82                                          |..              |
0x2e0|      00 00 00 03                              |  ....          |        corr: 3 0x2e2-0x2e6 (4)
     |                                               |                |      [3]{}: leap_second_record 0x2e6-0x2ee (8)
0x2e0|                  09 67 53 03                  |      .gS.      |        occur: "1975-01-01T00:00:03Z" (157766403) 0x2e6-0x2ea (4)
0x2e0|                              00 00 00 04      |          ....  |        corr: 4 0x2ea-0x2ee (4)
     |                                               |                |      [4]{}: leap_second_record 0x2ee-0x2f6 (8)
0x2e0|                                          0b 48|              .H|        occur: "1976-01-01T00:00:04Z" (189302404) 0x2ee-0x2f2 (4)
0x2f0|86 84                                          |..              |
0x2f0|      00 00 00 05                              |  ....          |        corr: 5 0x2f2-0x2f6 (4)
     |                                               |                |      [5]{}: leap_second_record 0x2f6-0x2fe (8)
0x2f0|                  0d 2b 0b 85                  |      .+..      |        occur: "1977-01-01T00:00:05Z" (220924805) 0x2f6-0x2fa (4)
0x2f0|                              00 00 00 06      |          ....  |        corr: 6 0x2fa-0x2fe (4)
     |                                               |                |      [6]{}: leap_second_record 0x2fe-0x306 (8)
0x2f0|                                          0f 0c|              ..|        occur: "1978-01-01T00:00:06Z" (252460806) 0x2fe-0x302 (4)
0x300|3f 06                                          |?.              |
0x300|      00 00 00 07                              |  ....          |        corr: 7 0x302-0x306 (4)
     |                                               |                |      [7]{}: leap_second_record 0x306-0x30e (8)
0x300|                  10 ed 72 87                  |      ..r.      |        occur: "1979-01-01T00:00:07Z" (283996807) 0x306-0x30a (4)
0x300|                              00 00 00 08      |          ....  |        corr: 8 0x30a-0x30e (4)
     |                                               |                |      [8]{}: leap_second_record 0x30e-0x316 (8)
0x300|                                          12 ce|              ..|        occur: "1980-01-01T00:00:08Z" (315532808) 0x30e-0x312 (4)
0x310|a6 08                                          |..              |
0x310|      00 00 00 09                              |  ....          |        corr: 9 0x312-0x316 (4)
     |                                               |                |      [9]{}: leap_second_record 0x316-0x31e (8)
0x310|                  15 9f ca 89                  |      ....      |        occur: "1981-07-01T00:00:09Z" (362793609) 0x316-0x31a (4)
0x310|                              00 00 00 0a      |          ....  |        corr: 10 0x31a-0x31e (4)
     |                                               |                |      [10]{}: leap_second_record 0x31e-0x326 (8)
0x310|                                          17 80|              ..|        occur: "1982-07-01T00:00:10Z" (394329610) 0x31e-0x322 (4)
0x320|fe 0a                                          |..              |
0x320|      00 00 00 0b                              |  ....          |        corr: 11 0x322-0x326 (4)
     |                                               |                |      [11]{}: leap_second_record 0x326-0x32e (8)
0x320|                  19 62 31 8b                  |      .b1.      |        occur: "1983-07-01T00:00:11Z" (425865611) 0x326-0x32a (4)
0x320|                              00 00 00 0c      |          ....  |        corr: 12 0x32a-0x32e (4)
     |                                               |                |      [12]{}: leap_second_record 0x32e-0x336 (8)
0x320|                                          1d 25|              .%|        occur: "1985-07-01T00:00:12Z" (489024012) 0x32e-0x332 (4)
0x330|ea 0c                                          |..              |
0x330|      00 00 00 0d                              |  ....          |        corr: 13 0x332-0x336 (4)
     |                                               |                |      [13]{}: leap_second_record 0x336-0x33e (8)
0x330|                  21 da e5 0d                  |      !...      |        occur: "1988-01-01T00:00:13Z" (567993613) 0x336-0x33a (4)
0x330|                              00 00 00 0e      |          ....  |        corr: 14 0x33a-0x33e (4)
     |                                               |                |      [14]{}: leap_second_record 0x33e-0x346 (8)
0x330|                                          25 9e|              %.|        occur: "1990-01-01T00:00:14Z" (631152014) 0x33e-0x342 (4)
0x340|9d 8e                                          |..              |
0x340|      00 00 00 0f                              |  ....          |        corr: 15 0x342-0x346 (4)
     |                                               |                |      [15]{}: leap_second_record 0x346-0x34e (8)
0x340|                  27 7f d1 0f                  |      '...      |        occur: "1991-01-01T00:00:15Z" (662688015) 0x346-0x34a (4)
0x340|                              00 00 00 10      |          ....  |        corr: 16 0x34a-0x34e (4)
     |                                               |                |      [16]{}: leap_second_record 0x34e-0x356 (8)
0x340|                                          2a 50|              *P|        occur: "1992-07-01T00:00:16Z" (709948816) 0x34e-0x352 (4)
0x350|f5 90                                          |..              |
0x350|      00 00 00 11                              |  ....          |        corr: 17 0x352-0x356 (4)
     |                                               |                |      [17]{}: leap_second_record 0x356-0x35e (8)
0x350|                  2c 32 29 11                  |      ,2).      |        occur: "1993-07-01T00:00:17Z" (741484817) 0x356-0x35a (4)
0x350|                              00 00 00 12      |          ....  |        corr: 18 0x35a-0x35e (4)
     |                                               |                |      [18]{}: leap_second_record 0x35e-0x366 (8)
0x350|                                          2e 13|              ..|        occur: "1994-07-01T00:00:18Z" (773020818) 0x35e-0x362 (4)
0x360|5c 92                                          |\.              |
0x360|      00 00 00 13                              |  ....          |        corr: 19 0x362-0x366 (4)
     |                                               |                |      [19]{}: leap_second_record 0x366-0x36e (8)
0x360|                  30 e7 24 13                  |      0.$.      |        occur: "1996-01-01T00:00:19Z" (820454419) 0x366-0x36a (4)
0x360|                              00 00 00 14      |          ....  |        corr: 20 0x36a-0x36e (4)
     |                                               |                |      [20]{}: leap_second_record 0x36e-0x376 (8)
0x360|                                          33 b8|              3.|        occur: "1997-07-01T00:00:20Z" (867715220) 0x36e-0x372 (4)
0x370|48 94                                          |H.              |
0x370|      00 00 00 15                              |  ....          |        corr: 21 0x372-0x376 (4)
     |                                               |                |      [21]{}: leap_second_record 0x376-0x37e (8)
0x370|                  36 8c 10 15                  |      6...      |        occur: "1999-01-01T00:00:21Z" (915148821) 0x376-0x37a (4)
0x370|                              00 00 00 16      |          ....  |        corr: 22 0x37a-0x37e (4)
     |                                               |                |      [22]{}: leap_second_record 0x37e-0x386 (8)
0x370|                                          43 b7|              C.|        occur: "2006-01-01T00:00:22Z" (1136073622) 0x37e-0x382 (4)
0x380|1b 96                                          |..              |
0x380|      00 00 00 17                              |  ....          |        corr: 23 0x382-0x386 (4)
     |                                               |                |      [23]{}: leap_second_record 0x386-0x38e (8)
0x380|                  49 5c 07 97                  |      I\..      |        occur: "2009-01-01T00:00:23Z" (1230768023) 0x386-0x38a (4)
0x380|                              00 00 00 18      |          ....  |        corr: 24 0x38a-0x38e (4)
     |                                               |                |      [24]{}: leap_second_record 0x38e-0x396 (8)
0x380|                                          4f ef|              O.|        occur: "2012-07-01T00:00:24Z" (1341100824) 0x38e-0x392 (4)
0x390|93 18                                          |..              |
0x390|      00 00 00 19                              |  ....          |        corr: 25 0x392-0x396 (4)
     |                                               |                |      [25]{}: leap_second_record 0x396-0x39e (8)
0x390|                  55 93 2d 99                  |      U.-.      |        occur: "2015-07-01T00:00:25Z" (1435708825) 0x396-0x39a (4)
0x390|                              00 00 00 1a      |          ....  |        corr: 26 0x39a-0x39e (4)
     |                                               |                |      [26]{}: leap_second_record 0x39e-0x3a6 (8)
0x390|                                          58 68|              Xh|        occur: "2017-01-01T00:00:26Z" (1483228826) 0x39e-0x3a2 (4)
0x3a0|46 9a                                          |F.              |
0x3a0|      00 00 00 1b                              |  ....          |        corr: 27 0x3a2-0x3a6 (4)
     |                                               |                |    standard_wall_indicators[0:9]: 0x3a6-0x3af (9)
0x3a0|                  00                           |      .         |      [0]: 0 standard_wall_indicator (valid) 0x3a6-0x3a7 (1)
0x3a0|                     00                        |       .        |      [1]: 0 standard_wall_indicator (valid) 0x3a7-0x3a8 (1)
0x3a0|                        00                     |        .       |      [2]: 0 standard_wall_indicator (valid) 0x3a8-0x3a9 (1)
0x3a0|                           01                  |         .      |      [3]: 1 standard_wall_indicator (valid) 0x3a9-0x3aa (1)
0x3a0|                              00               |          .     |      [4]: 0 standard_wall_indicator (valid) 0x3aa-0x3ab (1)
0x3a0|                                 00            |           .    |      [5]: 0 standard_wall_indicator (valid) 0x3ab-0x3ac (1)
0x3a0|                                    00         |            .   |      [6]: 0 standard_wall_indicator (valid) 0x3ac-0x3ad (1)
0x3a0|                                       00      |             .  |      [7]: 0 standard_wall_indicator (valid) 0x3ad-0x3ae (1)
0x3a0|                                          00   |              . |      [8]: 0 standard_wall_indicator (valid) 0x3ae-0x3af (1)
     |                                               |                |    ut_local_indicators[0:9]: 0x3af-0x3b8 (9)
0x3a0|                                             00|               .|      [0]: 0 ut_local_indicator (valid) 0x3af-0x3b0 (1)
0x3b0|00                                             |.               |      [1]: 0 ut_local_indicator (valid) 0x3b0-0x3b1 (1)
0x3b0|   00                                          | .              |      [2]: 0 ut_local_indicator (valid) 0x3b1-0x3b2 (1)
0x3b0|      01                                       |  .             |      [3]: 1 ut_local_indicator (valid) 0x3b2-0x3b3 (1)
0x3b0|         00                                    |   .            |      [4]: 0 ut_local_indicator (valid) 0x3b3-0x3b4 (1)
0x3b0|            00                                 |    .           |      [5]: 0 ut_local_indicator (valid) 0x3b4-0x3b5 (1)
0x3b0|               00                              |     .          |      [6]: 0 ut_local_indicator (valid) 0x3b5-0x3b6 (1)
0x3b0|                  00                           |      .         |      [7]: 0 ut_local_indicator (valid) 0x3b6-0x3b7 (1)
0x3b0|                     00                        |       .        |      [8]: 0 ut_local_indicator (valid) 0x3b7-0x3b8 (1)
     |                                               |                |  v2plusheader{}: 0x3b8-0x3e4 (44)
0x3b0|                        54 5a 69 66            |        TZif    |    magic: 0x545a6966 (valid) 0x3b8-0x3bc (4)
0x3b0|                                    32         |            2   |    ver: "2" (0x32) (valid) 0x3bc-0x3bd (1)
0x3b0|                                       00 00 00|             ...|    reserved: raw bits 0x3bd-0x3cc (15)
0x3c0|00 00 00 00 00 00 00 00 00 00 00 00            |............    |
0x3c0|                                    00 00 00 0a|            ....|    isutcnt: 10 0x3cc-0x3d0 (4)
0x3d0|00 00 00 0a                                    |....            |    isstdcnt: 10 0x3d0-0x3d4 (4)
0x3d0|            00 00 00 1b                        |    ....        |    leapcnt: 27 0x3d4-0x3d8 (4)
0x3d0|                        00 00 00 75            |        ...u    |    timecnt: 117 0x3d8-0x3dc (4)
0x3d0|                                    00 00 00 0a|            ....|    typecnt: 10 0x3dc-0x3e0 (4)
0x3e0|00 00 00 28                                    |...(            |    charcnt: 40 0x3e0-0x3e4 (4)
     |                                               |                |  v2plusdatablock{}: 0x3e4-0x9bd (1497)
     |                                               |                |    transition_times[0:117]: 0x3e4-0x78c (936)
0x3e0|            ff ff ff ff 3f c2 fd d1            |    ....?...    |      [0]: "1867-10-19T00:31:13Z" (-3225223727) transition_time 0x3e4-0x3ec (8)
0x3e0|                                    ff ff ff ff|            ....|      [1]: "1900-08-20T21:59:36Z" (-2188951224) transition_time 0x3ec-0x3f4 (8)
0x3f0|7d 87 41 48                                    |}.AH            |
0x3f0|            ff ff ff ff cb 89 36 c0            |    ......6.    |      [2]: "1942-02-09T12:00:00Z" (-880200000) transition_time 0x3f4-0x3fc (8)
0x3f0|                                    ff ff ff ff|            ....|      [3]: "1945-08-14T23:00:00Z" (-769395600) transition_time 0x3fc-0x404 (8)
0x400|d2 23 f4 70                                    |.#.p            |
0x400|            ff ff ff ff d2 61 42 30            |    .....aB0    |      [4]: "1945-09-30T11:00:00Z" (-765378000) transition_time 0x404-0x40c (8)
0x400|                                    ff ff ff ff|            ....|      [5]: "1967-04-01T10:00:00Z" (-86882400) transition_time 0x40c-0x414 (8)
0x410|fa d2 47 a0                                    |..G.            |
0x410|            ff ff ff ff fe b8 63 40            |    ......c@    |      [6]: "1969-04-27T12:00:00Z" (-21470400) transition_time 0x414-0x41c (8)
0x410|                                    ff ff ff ff|            ....|      [7]: "1969-10-26T11:00:00Z" (-5749200) transition_time 0x41c-0x424 (8)
0x420|ff a8 46 30                                    |..F0            |
0x420|            00 00 00 00 00 98 45 40            |    ......E@    |      [8]: "1970-04-26T12:00:00Z" (9979200) transition_time 0x424-0x42c (8)
0x420|                                    00 00 00 00|            ....|      [9]: "1970-10-25T11:00:00Z" (25700400) transition_time 0x42c-0x434 (8)
0x430|01 88 28 30                                    |..(0            |
0x430|            00 00 00 00 02 78 27 40            |    .....x'@    |      [10]: "1971-04-25T12:00:00Z" (41428800) transition_time 0x434-0x43c (8)
0x430|                                    00 00 00 00|            ....|      [11]: "1971-10-31T11:00:00Z" (57754800) transition_time 0x43c-0x444 (8)
0x440|03 71 44 b0                                    |.qD.            |
0x440|            00 00 00 00 04 61 43 c0            |    .....aC.    |      [12]: "1972-04-30T12:00:00Z" (73483200) transition_time 0x444-0x44c (8)
0x440|                                    00 00 00 00|            ....|      [13]: "1972-10-29T11:00:01Z" (89204401) transition_time 0x44c-0x454 (8)
0x450|05 51 26 b1                                    |.Q&.            |
0x450|            00 00 00 00 06 41 25 c2            |    .....A%.    |      [14]: "1973-04-29T12:00:02Z" (104932802) transition_time 0x454-0x45c (8)
0x450|                                    00 00 00 00|            ....|      [15]: "1973-10-28T11:00:02Z" (120654002) transition_time 0x45c-0x464 (8)
0x460|07 31 08 b2                                    |.1..            |
0x460|            00 00 00 00 07 8d 5f c3            |    ......_.    |      [16]: "1974-01-06T12:00:03Z" (126705603) transition_time 0x464-0x46c (8)
0x460|                                    00 00 00 00|            ....|      [17]: "1974-10-27T11:00:03Z" (152103603) transition_time 0x46c-0x474 (8)
0x470|09 10 ea b3                                    |....            |
0x470|            00 00 00 00 09 ad db 44            |    .......D    |      [18]: "1975-02-23T12:00:04Z" (162388804) transition_time 0x474-0x47c (8)
0x470|                                    00 00 00 00|            ....|      [19]: "1975-10-26T11:00:04Z" (183553204) transition_time 0x47c-0x484 (8)
0x480|0a f0 cc b4                                    |....            |
0x480|            00 00 00 00 0b e0 cb c5            |    ........    |      [20]: "1976-04-25T12:00:05Z" (199281605) transition_time 0x484-0x48c (8)
0x480|                                    00 00 00 00|            ....|      [21]: "1976-10-31T11:00:05Z" (215607605) transition_time 0x48c-0x494 (8)
0x490|0c d9 e9 35                                    |...5            |
0x490|            00 00 00 00 0d c0 ad c6            |    ........    |      [22]: "1977-04-24T12:00:06Z" (230731206) transition_time 0x494-0x49c (8)
0x490|                                    00 00 00 00|            ....|      [23]: "1977-10-30T11:00:06Z" (247057206) transition_time 0x49c-0x4a4 (8)
0x4a0|0e b9 cb 36                                    |...6            |
0x4a0|            00 00 00 00 0f a9 ca 47            |    .......G    |      [24]: "1978-04-30T12:00:07Z" (262785607) transition_time 0x4a4-0x4ac (8)
0x4a0|                                    00 00 00 00|            ....|      [25]: "1978-10-29T11:00:07Z" (278506807) transition_time 0x4ac-0x4b4 (8)
0x4b0|10 99 ad 37                                    |...7            |
0x4b0|            00 00 00 00 11 89 ac 48            |    .......H    |      [26]: "1979-04-29T12:00:08Z" (294235208) transition_time 0x4b4-0x4bc (8)
0x4b0|                                    00 00 00 00|            ....|      [27]: "1979-10-28T11:00:08Z" (309956408) transition_time 0x4bc-0x4c4 (8)
0x4c0|12 79 8f 38                                    |.y.8            |
0x4c0|            00 00 00 00 13 69 8e 49            |    .....i.I    |      [28]: "1980-04-27T12:00:09Z" (325684809) transition_time 0x4c4-0x4cc (8)
0x4c0|                                    00 00 00 00|            ....|      [29]: "1980-10-26T11:00:09Z" (341406009) transition_time 0x4cc-0x4d4 (8)
0x4d0|14 59 71 39                                    |.Yq9            |
0x4d0|            00 00 00 00 15 49 70 49            |    .....IpI    |      [30]: "1981-04-26T12:00:09Z" (357134409) transition_time 0x4d4-0x4dc (8)
0x4d0|                                    00 00 00 00|            ....|      [31]: "1981-10-25T11:00:10Z" (372855610) transition_time 0x4dc-0x4e4 (8)
0x4e0|16 39 53 3a                                    |.9S:            |
0x4e0|            00 00 00 00 17 29 52 4a            |    .....)RJ    |      [32]: "1982-04-25T12:00:10Z" (388584010) transition_time 0x4e4-0x4ec (8)
0x4e0|                                    00 00 00 00|            ....|      [33]: "1982-10-31T11:00:11Z" (404910011) transition_time 0x4ec-0x4f4 (8)
0x4f0|18 22 6f bb                                    |."o.            |
0x4f0|            00 00 00 00 19 09 34 4b            |    ......4K    |      [34]: "1983-04-24T12:00:11Z" (420033611) transition_time 0x4f4-0x4fc (8)
0x4f0|                                    00 00 00 00|            ....|      [35]: "1983-10-30T11:00:12Z" (436359612) transition_time 0x4fc-0x504 (8)
0x500|1a 02 51 bc                                    |..Q.            |
0x500|            00 00 00 00 1a 2b 14 1c            |    .....+..    |      [36]: "1983-11-30T09:00:12Z" (439030812) transition_time 0x504-0x50c (8)
0x500|                                    00 00 00 00|            ....|      [37]: "1984-04-29T11:00:12Z" (452084412) transition_time 0x50c-0x514 (8)
0x510|1a f2 42 bc                                    |..B.            |
0x510|            00 00 00 00 1b e2 25 ac            |    ......%.    |      [38]: "1984-10-28T10:00:12Z" (467805612) transition_time 0x514-0x51c (8)
0x510|                                    00 00 00 00|            ....|      [39]: "1985-04-28T11:00:12Z" (483534012) transition_time 0x51c-0x524 (8)
0x520|1c d2 24 bc                                    |..$.            |
0x520|            00 00 00 00 1d c2 07 ad            |    ........    |      [40]: "1985-10-27T10:00:13Z" (499255213) transition_time 0x524-0x52c (8)
0x520|                                    00 00 00 00|            ....|      [41]: "1986-04-27T11:00:13Z" (514983613) transition_time 0x52c-0x534 (8)
0x530|1e b2 06 bd                                    |....            |
0x530|            00 00 00 00 1f a1 e9 ad            |    ........    |      [42]: "1986-10-26T10:00:13Z" (530704813) transition_time 0x534-0x53c (8)
0x530|                                    00 00 00 00|            ....|      [43]: "1987-04-05T11:00:13Z" (544618813) transition_time 0x53c-0x544 (8)
0x540|20 76 39 3d                                    | v9=            |
0x540|            00 00 00 00 21 81 cb ad            |    ....!...    |      [44]: "1987-10-25T10:00:13Z" (562154413) transition_time 0x544-0x54c (8)
0x540|                                    00 00 00 00|            ....|      [45]: "1988-04-03T11:00:14Z" (576068414) transition_time 0x54c-0x554 (8)
0x550|22 56 1b 3e                                    |"V.>            |
0x550|            00 00 00 00 23 6a e8 2e            |    ....#j..    |      [46]: "1988-10-30T10:00:14Z" (594208814) transition_time 0x554-0x55c (8)
0x550|                                    00 00 00 00|            ....|      [47]: "1989-04-02T11:00:14Z" (607518014) transition_time 0x55c-0x564 (8)
0x560|24 35 fd 3e                                    |$5.>            |
0x560|            00 00 00 00 25 4a ca 2e            |    ....%J..    |      [48]: "1989-10-29T10:00:14Z" (625658414) transition_time 0x564-0x56c (8)
0x560|                                    00 00 00 00|            ....|      [49]: "1990-04-01T11:00:15Z" (638967615) transition_time 0x56c-0x574 (8)
0x570|26 15 df 3f                                    |&..?            |
0x570|            00 00 00 00 27 2a ac 2f            |    ....'*./    |      [50]: "1990-10-28T10:00:15Z" (657108015) transition_time 0x574-0x57c (8)
0x570|                                    00 00 00 00|            ....|      [51]: "1991-04-07T11:00:16Z" (671022016) transition_time 0x57c-0x584 (8)
0x580|27 fe fb c0                                    |'...            |
0x580|            00 00 00 00 29 0a 8e 30            |    ....)..0    |      [52]: "1991-10-27T10:00:16Z" (688557616) transition_time 0x584-0x58c (8)
0x580|                                    00 00 00 00|            ....|      [53]: "1992-04-05T11:00:16Z" (702471616) transition_time 0x58c-0x594 (8)
0x590|29 de dd c0                                    |)...            |
0x590|            00 00 00 00 2a ea 70 31            |    ....*.p1    |      [54]: "1992-10-25T10:00:17Z" (720007217) transition_time 0x594-0x59c (8)
0x590|                                    00 00 00 00|            ....|      [55]: "1993-04-04T11:00:17Z" (733921217) transition_time 0x59c-0x5a4 (8)
0x5a0|2b be bf c1                                    |+...            |
0x5a0|            00 00 00 00 2c d3 8c b2            |    ....,...    |      [56]: "1993-10-31T10:00:18Z" (752061618) transition_time 0x5a4-0x5ac (8)
0x5a0|                                    00 00 00 00|            ....|      [57]: "1994-04-03T11:00:18Z" (765370818) transition_time 0x5ac-0x5b4 (8)
0x5b0|2d 9e a1 c2                                    |-...            |
0x5b0|            00 00 00 00 2e b3 6e b3            |    ......n.    |      [58]: "1994-10-30T10:00:19Z" (783511219) transition_time 0x5b4-0x5bc (8)
0x5b0|                                    00 00 00 00|            ....|      [59]: "1995-04-02T11:00:19Z" (796820419) transition_time 0x5bc-0x5c4 (8)
0x5c0|2f 7e 83 c3                                    |/~..            |
0x5c0|            00 00 00 00 30 93 50 b3            |    ....0.P.    |      [60]: "1995-10-29T10:00:19Z" (814960819) transition_time 0x5c4-0x5cc (8)
0x5c0|                                    00 00 00 00|            ....|      [61]: "1996-04-07T11:00:20Z" (828874820) transition_time 0x5cc-0x5d4 (8)
0x5d0|31 67 a0 44                                    |1g.D            |
0x5d0|            00 00 00 00 32 73 32 b4            |    ....2s2.    |      [62]: "1996-10-27T10:00:20Z" (846410420) transition_time 0x5d4-0x5dc (8)
0x5d0|                                    00 00 00 00|            ....|      [63]: "1997-04-06T11:00:20Z" (860324420) transition_time 0x5dc-0x5e4 (8)
0x5e0|33 47 82 44                                    |3G.D            |
0x5e0|            00 00 00 00 34 53 14 b5            |    ....4S..    |      [64]: "1997-10-26T10:00:21Z" (877860021) transition_time 0x5e4-0x5ec (8)
0x5e0|                                    00 00 00 00|            ....|      [65]: "1998-04-05T11:00:21Z" (891774021) transition_time 0x5ec-0x5f4 (8)
0x5f0|35 27 64 45                                    |5'dE            |
0x5f0|            00 00 00 00 36 32 f6 b5            |    ....62..    |      [66]: "1998-10-25T10:00:21Z" (909309621) transition_time 0x5f4-0x5fc (8)
0x5f0|                                    00 00 00 00|            ....|      [67]: "1999-04-04T11:00:22Z" (923223622) transition_time 0x5fc-0x604 (8)
0x600|37 07 46 46                                    |7.FF            |
0x600|            00 00 00 00 38 1c 13 36            |    ....8..6    |      [68]: "1999-10-31T10:00:22Z" (941364022) transition_time 0x604-0x60c (8)
0x600|                                    00 00 00 00|            ....|      [69]: "2000-04-02T11:00:22Z" (954673222) transition_time 0x60c-0x614 (8)
0x610|38 e7 28 46                                    |8.(F            |
0x610|            00 00 00 00 39 fb f5 36            |    ....9..6    |      [70]: "2000-10-29T10:00:22Z" (972813622) transition_time 0x614-0x61c (8)
0x610|                                    00 00 00 00|            ....|      [71]: "2001-04-01T11:00:22Z" (986122822) transition_time 0x61c-0x624 (8)
0x620|3a c7 0a 46                                    |:..F            |
0x620|            00 00 00 00 3b db d7 36            |    ....;..6    |      [72]: "2001-10-28T10:00:22Z" (1004263222) transition_time 0x624-0x62c (8)
0x620|                                    00 00 00 00|            ....|      [73]: "2002-04-07T11:00:22Z" (1018177222) transition_time 0x62c-0x634 (8)
0x630|3c b0 26 c6                                    |<.&.            |
0x630|            00 00 00 00 3d bb b9 36            |    ....=..6    |      [74]: "2002-10-27T10:00:22Z" (1035712822) transition_time 0x634-0x63c (8)
0x630|                                    00 00 00 00|            ....|      [75]: "2003-04-06T11:00:22Z" (1049626822) transition_time 0x63c-0x644 (8)
0x640|3e 90 08 c6                                    |>...            |
0x640|            00 00 00 00 3f 9b 9b 36            |    ....?..6    |      [76]: "2003-10-26T10:00:22Z" (1067162422) transition_time 0x644-0x64c (8)
0x640|                                    00 00 00 00|            ....|      [77]: "2004-04-04T11:00:22Z" (1081076422) transition_time 0x64c-0x654 (8)
0x650|40 6f ea c6                                    |@o..            |
0x650|            00 00 00 00 41 84 b7 b6            |    ....A...    |      [78]: "2004-10-31T10:00:22Z" (1099216822) transition_time 0x654-0x65c (8)
0x650|                                    00 00 00 00|            ....|      [79]: "2005-04-03T11:00:22Z" (1112526022) transition_time 0x65c-0x664 (8)
0x660|42 4f cc c6                                    |BO..            |
0x660|            00 00 00 00 43 64 99 b6            |    ....Cd..    |      [80]: "2005-10-30T10:00:22Z" (1130666422) transition_time 0x664-0x66c (8)
0x660|                                    00 00 00 00|            ....|      [81]: "2006-04-02T11:00:23Z" (1143975623) transition_time 0x66c-0x674 (8)
0x670|44 2f ae c7                                    |D/..            |
0x670|            00 00 00 00 45 44 7b b7            |    ....ED{.    |      [82]: "2006-10-29T10:00:23Z" (1162116023) transition_time 0x674-0x67c (8)
0x670|                                    00 00 00 00|            ....|      [83]: "2007-03-11T11:00:23Z" (1173610823) transition_time 0x67c-0x684 (8)
0x680|45 f3 e1 47                                    |E..G            |
0x680|            00 00 00 00 47 2d 98 37            |    ....G-.7    |      [84]: "2007-11-04T10:00:23Z" (1194170423) transition_time 0x684-0x68c (8)
0x680|                                    00 00 00 00|            ....|      [85]: "2008-03-09T11:00:23Z" (1205060423) transition_time 0x68c-0x694 (8)
0x690|47 d3 c3 47                                    |G..G            |
0x690|            00 00 00 00 49 0d 7a 37            |    ....I.z7    |      [86]: "2008-11-02T10:00:23Z" (1225620023) transition_time 0x694-0x69c (8)
0x690|                                    00 00 00 00|            ....|      [87]: "2009-03-08T11:00:24Z" (1236510024) transition_time 0x69c-0x6a4 (8)
0x6a0|49 b3 a5 48                                    |I..H            |
0x6a0|            00 00 00 00 4a ed 5c 38            |    ....J.\8    |      [88]: "2009-11-01T10:00:24Z" (1257069624) transition_time 0x6a4-0x6ac (8)
0x6a0|                                    00 00 00 00|            ....|      [89]: "2010-03-14T11:00:24Z" (1268564424) transition_time 0x6ac-0x6b4 (8)
0x6b0|4b 9c c1 c8                                    |K...            |
0x6b0|            00 00 00 00 4c d6 78 b8            |    ....L.x.    |      [90]: "2010-11-07T10:00:24Z" (1289124024) transition_time 0x6b4-0x6bc (8)
0x6b0|                                    00 00 00 00|            ....|      [91]: "2011-03-13T11:00:24Z" (1300014024) transition_time 0x6bc-0x6c4 (8)
0x6c0|4d 7c a3 c8                                    |M|..            |
0x6c0|            00 00 00 00 4e b6 5a b8            |    ....N.Z.    |      [92]: "2011-11-06T10:00:24Z" (1320573624) transition_time 0x6c4-0x6cc (8)
0x6c0|                                    00 00 00 00|            ....|      [93]: "2012-03-11T11:00:24Z" (1331463624) transition_time 0x6cc-0x6d4 (8)
0x6d0|4f 5c 85 c8                                    |O\..            |
0x6d0|            00 00 00 00 50 96 3c b9            |    ....P.<.    |      [94]: "2012-11-04T10:00:25Z" (1352023225) transition_time 0x6d4-0x6dc (8)
0x6d0|                                    00 00 00 00|            ....|      [95]: "2013-03-10T11:00:25Z" (1362913225) transition_time 0x6dc-0x6e4 (8)
0x6e0|51 3c 67 c9                                    |Q<g.            |
0x6e0|            00 00 00 00 52 76 1e b9            |    ....Rv..    |      [96]: "2013-11-03T10:00:25Z" (1383472825) transition_time 0x6e4-0x6ec (8)
0x6e0|                                    00 00 00 00|            ....|      [97]: "2014-03-09T11:00:25Z" (1394362825) transition_time 0x6ec-0x6f4 (8)
0x6f0|53 1c 49 c9                                    |S.I.            |
0x6f0|            00 00 00 00 54 56 00 b9            |    ....TV..    |      [98]: "2014-11-02T10:00:25Z" (1414922425) transition_time 0x6f4-0x6fc (8)
0x6f0|                                    00 00 00 00|            ....|      [99]: "2015-03-08T11:00:25Z" (1425812425) transition_time 0x6fc-0x704 (8)
0x700|54 fc 2b c9                                    |T.+.            |
0x700|            00 00 00 00 56 35 e2 ba            |    ....V5..    |      [100]: "2015-11-01T10:00:26Z" (1446372026) transition_time 0x704-0x70c (8)
0x700|                                    00 00 00 00|            ....|      [101]: "2016-03-13T11:00:26Z" (1457866826) transition_time 0x70c-0x714 (8)
0x710|56 e5 48 4a                                    |V.HJ            |
0x710|            00 00 00 00 58 1e ff 3a            |    ....X..:    |      [102]: "2016-11-06T10:00:26Z" (1478426426) transition_time 0x714-0x71c (8)
0x710|                                    00 00 00 00|            ....|      [103]: "2017-03-12T11:00:27Z" (1489316427) transition_time 0x71c-0x724 (8)
0x720|58 c5 2a 4b                                    |X.*K            |
0x720|            00 00 00 00 59 fe e1 3b            |    ....Y..;    |      [104]: "2017-11-05T10:00:27Z" (1509876027) transition_time 0x724-0x72c (8)
0x720|                                    00 00 00 00|            ....|      [105]: "2018-03-11T11:00:27Z" (1520766027) transition_time 0x72c-0x734 (8)
0x730|5a a5 0c 4b                                    |Z..K            |
0x730|            00 00 00 00 5b de c3 3b            |    ....[..;    |      [106]: "2018-11-04T10:00:27Z" (1541325627) transition_time 0x734-0x73c (8)
0x730|                                    00 00 00 00|            ....|      [107]: "2019-03-10T11:00:27Z" (1552215627) transition_time 0x73c-0x744 (8)
0x740|5c 84 ee 4b                                    |\..K            |
0x740|            00 00 00 00 5d be a5 3b            |    ....]..;    |      [108]: "2019-11-03T10:00:27Z" (1572775227) transition_time 0x744-0x74c (8)
0x740|                                    00 00 00 00|            ....|      [109]: "2020-03-08T11:00:27Z" (1583665227) transition_time 0x74c-0x754 (8)
0x750|5e 64 d0 4b                                    |^d.K            |
0x750|            00 00 00 00 5f 9e 87 3b            |    ...._..;    |      [110]: "2020-11-01T10:00:27Z" (1604224827) transition_time 0x754-0x75c (8)
0x750|                                    00 00 00 00|            ....|      [111]: "2021-03-14T11:00:27Z" (1615719627) transition_time 0x75c-0x764 (8)
0x760|60 4d ec cb                                    |`M..            |
0x760|            00 00 00 00 61 87 a3 bb            |    ....a...    |      [112]: "2021-11-07T10:00:27Z" (1636279227) transition_time 0x764-0x76c (8)
0x760|                                    00 00 00 00|            ....|      [113]: "2022-03-13T11:00:27Z" (1647169227) transition_time 0x76c-0x774 (8)
0x770|62 2d ce cb                                    |b-..            |
0x770|            00 00 00 00 63 67 85 bb            |    ....cg..    |      [114]: "2022-11-06T10:00:27Z" (1667728827) transition_time 0x774-0x77c (8)
0x770|                                    00 00 00 00|            ....|      [115]: "2023-03-12T11:00:27Z" (1678618827) transition_time 0x77c-0x784 (8)
0x780|64 0d b0 cb                                    |d...            |
0x780|            00 00 00 00 64 9b 78 1b            |    ....d.x.    |      [116]: "2023-06-28T00:00:27Z" (1687910427) transition_time 0x784-0x78c (8)
     |                                               |                |    transition_types[0:117]: 0x78c-0x801 (117)
0x780|                                    01         |            .   |      [0]: 1 transition_type 0x78c-0x78d (1)
0x780|                                       02      |             .  |      [1]: 2 transition_type 0x78d-0x78e (1)
0x780|                                          03   |              . |      [2]: 3 transition_type 0x78e-0x78f (1)
0x780|                                             04|               .|      [3]: 4 transition_type 0x78f-0x790 (1)
0x790|02                                             |.               |      [4]: 2 transition_type 0x790-0x791 (1)
0x790|   05                                          | .              |      [5]: 5 transition_type 0x791-0x792 (1)
0x790|      06                                       |  .             |      [6]: 6 transition_type 0x792-0x793 (1)
0x790|         05                                    |   .            |      [7]: 5 transition_type 0x793-0x794 (1)
0x790|            06                                 |    .           |      [8]: 6 transition_type 0x794-0x795 (1)
0x790|               05                              |     .          |      [9]: 5 transition_type 0x795-0x796 (1)
0x790|                  06                           |      .         |      [10]: 6 transition_type 0x796-0x797 (1)
0x790|                     05                        |       .        |      [11]: 5 transition_type 0x797-0x798 (1)
0x790|                        06                     |        .       |      [12]: 6 transition_type 0x798-0x799 (1)
0x790|                           05                  |         .      |      [13]: 5 transition_type 0x799-0x79a (1)
0x790|                              06               |          .     |      [14]: 6 transition_type 0x79a-0x79b (1)
0x790|                                 05            |           .    |      [15]: 5 transition_type 0x79b-0x79c (1)
0x790|                                    06         |            .   |      [16]: 6 transition_type 0x79c-0x79d (1)
0x790|                                       05      |             .  |      [17]: 5 transition_type 0x79d-0x79e (1)
0x790|                                          06   |              . |      [18]: 6 transition_type 0x79e-0x79f (1)
0x790|                                             05|               .|      [19]: 5 transition_type 0x79f-0x7a0 (1)
0x7a0|06                                             |.               |      [20]: 6 transition_type 0x7a0-0x7a1 (1)
0x7a0|   05                                          | .              |      [21]: 5 transition_type 0x7a1-0x7a2 (1)
0x7a0|      06                                       |  .             |      [22]: 6 transition_type 0x7a2-0x7a3 (1)
0x7a0|         05                                    |   .            |      [23]: 5 transition_type 0x7a3-0x7a4 (1)
0x7a0|            06                                 |    .           |      [24]: 6 transition_type 0x7a4-0x7a5 (1)
0x7a0|               05                              |     .          |      [25]: 5 transition_type 0x7a5-0x7a6 (1)
0x7a0|                  06                           |      .         |      [26]: 6 transition_type 0x7a6-0x7a7 (1)
0x7a0|                     05                        |       .        |      [27]: 5 transition_type 0x7a7-0x7a8 (1)
0x7a0|                        06                     |        .       |      [28]: 6 transition_type 0x7a8-0x7a9 (1)
0x7a0|                           05                  |         .      |      [29]: 5 transition_type 0x7a9-0x7aa (1)
0x7a0|                              06               |          .     |      [30]: 6 transition_type 0x7aa-0x7ab (1)
0x7a0|                                 05            |           .    |      [31]: 5 transition_type 0x7ab-0x7ac (1)
0x7a0|                                    06         |            .   |      [32]: 6 transition_type 0x7ac-0x7ad (1)
0x7a0|                                       05      |             .  |      [33]: 5 transition_type 0x7ad-0x7ae (1)
0x7a0|                                          06   |              . |      [34]: 6 transition_type 0x7ae-0x7af (1)
0x7a0|                                             07|               .|      [35]: 7 transition_type 0x7af-0x7b0 (1)
0x7b0|09                                             |.               |      [36]: 9 transition_type 0x7b0-0x7b1 (1)
0x7b0|   08                                          | .              |      [37]: 8 transition_type 0x7b1-0x7b2 (1)
0x7b0|      09                                       |  .             |      [38]: 9 transition_type 0x7b2-0x7b3 (1)
0x7b0|         08                                    |   .            |      [39]: 8 transition_type 0x7b3-0x7b4 (1)
0x7b0|            09                                 |    .           |      [40]: 9 transition_type 0x7b4-0x7b5 (1)
0x7b0|               08                              |     .          |      [41]: 8 transition_type 0x7b5-0x7b6 (1)
0x7b0|                  09                           |      .         |      [42]: 9 transition_type 0x7b6-0x7b7 (1)
0x7b0|                     08                        |       .        |      [43]: 8 transition_type 0x7b7-0x7b8 (1)
0x7b0|                        09                     |        .       |      [44]: 9 transition_type 0x7b8-0x7b9 (1)
0x7b0|                           08                  |         .      |      [45]: 8 transition_type 0x7b9-0x7ba (1)
0x7b0|                              09               |          .     |      [46]: 9 transition_type 0x7ba-0x7bb (1)
0x7b0|                                 08            |           .    |      [47]: 8 transition_type 0x7bb-0x7bc (1)
0x7b0|                                    09         |            .   |      [48]: 9 transition_type 0x7bc-0x7bd (1)
0x7b0|                                       08      |             .  |      [49]: 8 transition_type 0x7bd-0x7be (1)
0x7b0|                                          09   |              . |      [50]: 9 transition_type 0x7be-0x7bf (1)
0x7b0|                                             08|               .|      [51]: 8 transition_type 0x7bf-0x7c0 (1)
0x7c0|09                                             |.               |      [52]: 9 transition_type 0x7c0-0x7c1 (1)
0x7c0|   08                                          | .              |      [53]: 8 transition_type 0x7c1-0x7c2 (1)
0x7c0|      09                                       |  .             |      [54]: 9 transition_type 0x7c2-0x7c3 (1)
0x7c0|         08                                    |   .            |      [55]: 8 transition_type 0x7c3-0x7c4 (1)
0x7c0|            09                                 |    .           |      [56]: 9 transition_type 0x7c4-0x7c5 (1)
0x7c0|               08                              |     .          |      [57]: 8 transition_type 0x7c5-0x7c6 (1)
0x7c0|                  09                           |      .         |      [58]: 9 transition_type 0x7c6-0x7c7 (1)
0x7c0|                     08                        |       .        |      [59]: 8 transition_type 0x7c7-0x7c8 (1)
0x7c0|                        09                     |        .       |      [60]: 9 transition_type 0x7c8-0x7c9 (1)
0x7c0|                           08                  |         .      |      [61]: 8 transition_type 0x7c9-0x7ca (1)
0x7c0|                              09               |          .     |      [62]: 9 transition_type 0x7ca-0x7cb (1)
0x7c0|                                 08            |           .    |      [63]: 8 transition_type 0x7cb-0x7cc (1)
0x7c0|                                    09         |            .   |      [64]: 9 transition_type 0x7cc-0x7cd (1)
0x7c0|                                       08      |             .  |      [65]: 8 transition_type 0x7cd-0x7ce (1)
0x7c0|                                          09   |              . |      [66]: 9 transition_type 0x7ce-0x7cf (1)
0x7c0|                                             08|               .|      [67]: 8 transition_type 0x7cf-0x7d0 (1)
0x7d0|09                                             |.               |      [68]: 9 transition_type 0x7d0-0x7d1 (1)
0x7d0|   08                                          | .              |      [69]: 8 transition_type 0x7d1-0x7d2 (1)
0x7d0|      09                                       |  .             |      [70]: 9 transition_type 0x7d2-0x7d3 (1)
0x7d0|         08                                    |   .            |      [71]: 8 transition_type 0x7d3-0x7d4 (1)
0x7d0|            09                                 |    .           |      [72]: 9 transition_type 0x7d4-0x7d5 (1)
0x7d0|               08                              |     .          |      [73]: 8 transition_type 0x7d5-0x7d6 (1)
0x7d0|                  09                           |      .         |      [74]: 9 transition_type 0x7d6-0x7d7 (1)
0x7d0|                     08                        |       .        |      [75]: 8 transition_type 0x7d7-0x7d8 (1)
0x7d0|                        09                     |        .       |      [76]: 9 transition_type 0x7d8-0x7d9 (1)
0x7d0|                           08                  |         .      |      [77]: 8 transition_type 0x7d9-0x7da (1)
0x7d0|                              09               |          .     |      [78]: 9 transition_type 0x7da-0x7db (1)
0x7d0|                                 08            |           .    |      [79]: 8 transition_type 0x7db-0x7dc (1)
0x7d0|                                    09         |            .   |      [80]: 9 transition_type 0x7dc-0x7dd (1)
0x7d0|                                       08      |             .  |      [81]: 8 transition_type 0x7dd-0x7de (1)
0x7d0|                                          09   |              . |      [82]: 9 transition_type 0x7de-0x7df (1)
0x7d0|                                             08|               .|      [83]: 8 transition_type 0x7df-0x7e0 (1)
0x7e0|09                                             |.               |      [84]: 9 transition_type 0x7e0-0x7e1 (1)
0x7e0|   08                                          | .              |      [85]: 8 transition_type 0x7e1-0x7e2 (1)
0x7e0|      09                                       |  .             |      [86]: 9 transition_type 0x7e2-0x7e3 (1)
0x7e0|         08                                    |   .            |      [87]: 8 transition_type 0x7e3-0x7e4 (1)
0x7e0|            09                                 |    .           |      [88]: 9 transition_type 0x7e4-0x7e5 (1)
0x7e0|               08                              |     .          |      [89]: 8 transition_type 0x7e5-0x7e6 (1)
0x7e0|                  09                           |      .         |      [90]: 9 transition_type 0x7e6-0x7e7 (1)
0x7e0|                     08                        |       .        |      [91]: 8 transition_type 0x7e7-0x7e8 (1)
0x7e0|                        09                     |        .       |      [92]: 9 transition_type 0x7e8-0x7e9 (1)
0x7e0|                           08                  |         .      |      [93]: 8 transition_type 0x7e9-0x7ea (1)
0x7e0|                              09               |          .     |      [94]: 9 transition_type 0x7ea-0x7eb (1)
0x7e0|                                 08            |           .    |      [95]: 8 transition_type 0x7eb-0x7ec (1)
0x7e0|                                    09         |            .   |      [96]: 9 transition_type 0x7ec-0x7ed (1)
0x7e0|                                       08      |             .  |      [97]: 8 transition_type 0x7ed-0x7ee (1)
0x7e0|                                          09   |              . |      [98]: 9 transition_type 0x7ee-0x7ef (1)
0x7e0|                                             08|               .|      [99]: 8 transition_type 0x7ef-0x7f0 (1)
0x7f0|09                                             |.               |      [100]: 9 transition_type 0x7f0-0x7f1 (1)
0x7f0|   08                                          | .              |      [101]: 8 transition_type 0x7f1-0x7f2 (1)
0x7f0|      09                                       |  .             |      [102]: 9 transition_type 0x7f2-0x7f3 (1)
0x7f0|         08                                    |   .            |      [103]: 8 transition_type 0x7f3-0x7f4 (1)
0x7f0|            09                                 |    .           |      [104]: 9 transition_type 0x7f4-0x7f5 (1)
0x7f0|               08                              |     .          |      [105]: 8 transition_type 0x7f5-0x7f6 (1)
0x7f0|                  09                           |      .         |      [106]: 9 transition_type 0x7f6-0x7f7 (1)
0x7f0|                     08                        |       .        |      [107]: 8 transition_type 0x7f7-0x7f8 (1)
0x7f0|                        09                     |        .       |      [108]: 9 transition_type 0x7f8-0x7f9 (1)
0x7f0|                           08                  |         .      |      [109]: 8 transition_type 0x7f9-0x7fa (1)
0x7f0|                              09               |          .     |      [110]: 9 transition_type 0x7fa-0x7fb (1)
0x7f0|                                 08            |           .    |      [111]: 8 transition_type 0x7fb-0x7fc (1)
0x7f0|                                    09         |            .   |      [112]: 9 transition_type 0x7fc-0x7fd (1)
0x7f0|                                       08      |             .  |      [113]: 8 transition_type 0x7fd-0x7fe (1)
0x7f0|                                          09   |              . |      [114]: 9 transition_type 0x7fe-0x7ff (1)
0x7f0|                                             08|               .|      [115]: 8 transition_type 0x7ff-0x800 (1)
0x800|08                                             |.               |      [116]: 8 transition_type 0x800-0x801 (1)
     |                                               |                |    local_time_type_records[0:10]: 0x801-0x83d (60)
     |                                               |                |      [0]{}: local_time_type 0x801-0x807 (6)
0x800|   00 00 c4 f8                                 | ....           |        utoff: 50424 (valid) 0x801-0x805 (4)
0x800|               00                              |     .          |        dst: 0 (valid) 0x805-0x806 (1)
0x800|                  00                           |      .         |        idx: 0 (valid) 0x806-0x807 (1)
     |                                               |                |      [1]{}: local_time_type 0x807-0x80d (6)
0x800|                     ff ff 73 78               |       ..sx     |        utoff: -35976 (valid) 0x807-0x80b (4)
0x800|                                 00            |           .    |        dst: 0 (valid) 0x80b-0x80c (1)
0x800|                                    00         |            .   |        idx: 0 (valid) 0x80c-0x80d (1)
     |                                               |                |      [2]{}: local_time_type 0x80d-0x813 (6)
0x800|                                       ff ff 73|             ..s|        utoff: -36000 (valid) 0x80d-0x811 (4)
0x810|60                                             |`               |
0x810|   00                                          | .              |        dst: 0 (valid) 0x811-0x812 (1)
0x810|      04                                       |  .             |        idx: 4 (valid) 0x812-0x813 (1)
     |                                               |                |      [3]{}: local_time_type 0x813-0x819 (6)
0x810|         ff ff 81 70                           |   ...p         |        utoff: -32400 (valid) 0x813-0x817 (4)
0x810|                     01                        |       .        |        dst: 1 (valid) 0x817-0x818 (1)
0x810|                        08                     |        .       |        idx: 8 (valid) 0x818-0x819 (1)
     |                                               |                |      [4]{}: local_time_type 0x819-0x81f (6)
0x810|                           ff ff 81 70         |         ...p   |        utoff: -32400 (valid) 0x819-0x81d (4)
0x810|                                       01      |             .  |        dst: 1 (valid) 0x81d-0x81e (1)
0x810|                                          0c   |              . |        idx: 12 (valid) 0x81e-0x81f (1)
     |                                               |                |      [5]{}: local_time_type 0x81f-0x825 (6)
0x810|                                             ff|               .|        utoff: -36000 (valid) 0x81f-0x823 (4)
0x820|ff 73 60                                       |.s`             |
0x820|         00                                    |   .            |        dst: 0 (valid) 0x823-0x824 (1)
0x820|            10                                 |    .           |        idx: 16 (valid) 0x824-0x825 (1)
     |                                               |                |      [6]{}: local_time_type 0x825-0x82b (6)
0x820|               ff ff 81 70                     |     ...p       |        utoff: -32400 (valid) 0x825-0x829 (4)
0x820|                           01                  |         .      |        dst: 1 (valid) 0x829-0x82a (1)
0x820|                              15               |          .     |        idx: 21 (valid) 0x82a-0x82b (1)
     |                                               |                |      [7]{}: local_time_type 0x82b-0x831 (6)
0x820|                                 ff ff 81 70   |           ...p |        utoff: -32400 (valid) 0x82b-0x82f (4)
0x820|                                             00|               .|        dst: 0 (valid) 0x82f-0x830 (1)
0x830|1a                                             |.               |        idx: 26 (valid) 0x830-0x831 (1)
     |                                               |                |      [8]{}: local_time_type 0x831-0x837 (6)
0x830|   ff ff 8f 80                                 | ....           |        utoff: -28800 (valid) 0x831-0x835 (4)
0x830|               01                              |     .          |        dst: 1 (valid) 0x835-0x836 (1)
0x830|                  1e                           |      .         |        idx: 30 (valid) 0x836-0x837 (1)
     |                                               |                |      [9]{}: local_time_type 0x837-0x83d (6)
0x830|                     ff ff 81 70               |       ...p     |        utoff: -32400 (valid) 0x837-0x83b (4)
0x830|                                 00            |           .    |        dst: 0 (valid) 0x83b-0x83c (1)
0x830|                                    23         |            #   |        idx: 35 (valid) 0x83c-0x83d (1)
     |                                               |                |    time_zone_designations[0:9]: 0x83d-0x865 (40)
0x830|                                       4c 4d 54|             LMT|      [0]: "LMT" time_zone_designation 0x83d-0x841 (4)
0x840|00                                             |.               |
0x840|   41 53 54 00                                 | AST.           |      [1]: "AST" time_zone_designation 0x841-0x845 (4)
0x840|               41 57 54 00                     |     AWT.       |      [2]: "AWT" time_zone_designation 0x845-0x849 (4)
0x840|                           41 50 54 00         |         APT.   |      [3]: "APT" time_zone_designation 0x849-0x84d (4)
0x840|                                       41 48 53|             AHS|      [4]: "AHST" time_zone_designation 0x84d-0x852 (5)
0x850|54 00                                          |T.              |
0x850|      41 48 44 54 00                           |  AHDT.         |      [5]: "AHDT" time_zone_designation 0x852-0x857 (5)
0x850|                     59 53 54 00               |       YST.     |      [6]: "YST" time_zone_designation 0x857-0x85b (4)
0x850|                                 41 4b 44 54 00|           AKDT.|      [7]: "AKDT" time_zone_designation 0x85b-0x860 (5)
0x860|41 4b 53 54 00                                 |AKST.           |      [8]: "AKST" time_zone_designation 0x860-0x865 (5)
     |                                               |                |    leap_second_records[0:27]: 0x865-0x9a9 (324)
     |                                               |                |      [0]{}: leap_second_record 0x865-0x871 (12)
0x860|               00 00 00 00 04 b2 58 00         |     ......X.   |        occur: "1972-07-01T00:00:00Z" (78796800) 0x865-0x86d (8)
0x860|                                       00 00 00|             ...|        corr: 1 0x86d-0x871 (4)
0x870|01                                             |.               |
     |                                               |                |      [1]{}: leap_second_record 0x871-0x87d (12)
0x870|   00 00 00 00 05 a4 ec 01                     | ........       |        occur: "1973-01-01T00:00:01Z" (94694401) 0x871-0x879 (8)
0x870|                           00 00 00 02         |         ....   |        corr: 2 0x879-0x87d (4)
     |                                               |                |      [2]{}: leap_second_record 0x87d-0x889 (12)
0x870|                                       00 00 00|             ...|        occur: "1974-01-01T00:00:02Z" (126230402) 0x87d-0x885 (8)
0x880|00 07 86 1f 82                                 |.....           |
0x880|               00 00 00 03                     |     ....       |        corr: 3 0x885-0x889 (4)
     |                                               |                |      [3]{}: leap_second_record 0x889-0x895 (12)
0x880|                           00 00 00 00 09 67 53|         .....gS|        occur: "1975-01-01T00:00:03Z" (157766403) 0x889-0x891 (8)
0x890|03                                             |.               |
0x890|   00 00 00 04                                 | ....           |        corr: 4 0x891-0x895 (4)
     |                                               |                |      [4]{}: leap_second_record 0x895-0x8a1 (12)
0x890|               00 00 00 00 0b 48 86 84         |     .....H..   |        occur: "1976-01-01T00:00:04Z" (189302404) 0x895-0x89d (8)
0x890|                                       00 00 00|             ...|        corr: 5 0x89d-0x8a1 (4)
0x8a0|05                                             |.               |
     |                                               |                |      [5]{}: leap_second_record 0x8a1-0x8ad (12)
0x8a0|   00 00 00 00 0d 2b 0b 85                     | .....+..       |        occur: "1977-01-01T00:00:05Z" (220924805) 0x8a1-0x8a9 (8)
0x8a0|                           00 00 00 06         |         ....   |        corr: 6 0x8a9-0x8ad (4)
     |                                               |                |      [6]{}: leap_second_record 0x8ad-0x8b9 (12)
0x8a0|                                       00 00 00|             ...|        occur: "1978-01-01T00:00:06Z" (252460806) 0x8ad-0x8b5 (8)
0x8b0|00 0f 0c 3f 06                                 |...?.           |
0x8b0|               00 00 00 07                     |     ....       |        corr: 7 0x8b5-0x8b9 (4)
     |                                               |                |      [7]{}: leap_second_record 0x8b9-0x8c5 (12)
0x8b0|                           00 00 00 00 10 ed 72|         ......r|        occur: "1979-01-01T00:00:07Z" (283996807) 0x8b9-0x8c1 (8)
0x8c0|87                                             |.               |
0x8c0|   00 00 00 08                                 | ....           |        corr: 8 0x8c1-0x8c5 (4)
     |                                               |                |      [8]{}: leap_second_record 0x8c5-0x8d1 (12)
0x8c0|               00 00 00 00 12 ce a6 08         |     ........   |        occur: "1980-01-01T00:00:08Z" (315532808) 0x8c5-0x8cd (8)
0x8c0|                                       00 00 00|             ...|        corr: 9 0x8cd-0x8d1 (4)
0x8d0|09                                             |.               |
     |                                               |                |      [9]{}: leap_second_record 0x8d1-0x8dd (12)
0x8d0|   00 00 00 00 15 9f ca 89                     | ........       |        occur: "1981-07-01T00:00:09Z" (362793609) 0x8d1-0x8d9 (8)
0x8d0|                           00 00 00 0a         |         ....   |        corr: 10 0x8d9-0x8dd (4)
     |                                               |                |      [10]{}: leap_second_record 0x8dd-0x8e9 (12)
0x8d0|                                       00 00 00|             ...|        occur: "1982-07-01T00:00:10Z" (394329610) 0x8dd-0x8e5 (8)
0x8e0|00 17 80 fe 0a                                 |.....           |
0x8e0|               00 00 00 0b                     |     ....       |        corr: 11 0x8e5-0x8e9 (4)
     |                                               |                |      [11]{}: leap_second_record 0x8e9-0x8f5 (12)
0x8e0|                           00 00 00 00 19 62 31|         .....b1|        occur: "1983-07-01T00:00:11Z" (425865611) 0x8e9-0x8f1 (8)
0x8f0|8b                                             |.               |
0x8f0|   00 00 00 0c                                 | ....           |        corr: 12 0x8f1-0x8f5 (4)
     |                                               |                |      [12]{}: leap_second_record 0x8f5-0x901 (12)
0x8f0|               00 00 00 00 1d 25 ea 0c         |     .....%..   |        occur: "1985-07-01T00:00:12Z" (489024012) 0x8f5-0x8fd (8)
0x8f0|                                       00 00 00|             ...|        corr: 13 0x8fd-0x901 (4)
0x900|0d                                             |.               |
     |                                               |                |      [13]{}: leap_second_record 0x901-0x90d (12)
0x900|   00 00 00 00 21 da e5 0d                     | ....!...       |        occur: "1988-01-01T00:00:13Z" (567993613) 0x901-0x909 (8)
0x900|                           00 00 00 0e         |         ....   |        corr: 14 0x909-0x90d (4)
     |                                               |                |      [14]{}: leap_second_record 0x90d-0x919 (12)
0x900|                                       00 00 00|             ...|        occur: "1990-01-01T00:00:14Z" (631152014) 0x90d-0x915 (8)
0x910|00 25 9e 9d 8e                                 |.%...           |
0x910|               00 00 00 0f                     |     ....       |        corr: 15 0x915-0x919 (4)
     |                                               |                |      [15]{}: leap_second_record 0x919-0x925 (12)
0x910|                           00 00 00 00 27 7f d1|         ....'..|        occur: "1991-01-01T00:00:15Z" (662688015) 0x919-0x921 (8)
0x920|0f                                             |.               |
0x920|   00 00 00 10                                 | ....           |        corr: 16 0x921-0x925 (4)
     |                                               |                |      [16]{}: leap_second_record 0x925-0x931 (12)
0x920|               00 00 00 00 2a 50 f5 90         |     ....*P..   |        occur: "1992-07-01T00:00:16Z" (709948816) 0x925-0x92d (8)
0x920|                                       00 00 00|             ...|        corr: 17 0x92d-0x931 (4)
0x930|11                                             |.               |
     |                                               |                |      [17]{}: leap_second_record 0x931-0x93d (12)
0x930|   00 00 00 00 2c 32 29 11                     | ....,2).       |        occur: "1993-07-01T00:00:17Z" (741484817) 0x931-0x939 (8)
0x930|                           00 00 00 12         |         ....   |        corr: 18 0x939-0x93d (4)
     |                                               |                |      [18]{}: leap_second_record 0x93d-0x949 (12)
0x930|                                       00 00 00|             ...|        occur: "1994-07-01T00:00:18Z" (773020818) 0x93d-0x945 (8)
0x940|00 2e 13 5c 92                                 |...\.           |
0x940|               00 00 00 13                     |     ....       |        corr: 19 0x945-0x949 (4)
     |                                               |                |      [19]{}: leap_second_record 0x949-0x955 (12)
0x940|                           00 00 00 00 30 e7 24|         ....0.$|        occur: "1996-01-01T00:00:19Z" (820454419) 0x949-0x951 (8)
0x950|13                                             |.               |
0x950|   00 00 00 14                                 | ....           |        corr: 20 0x951-0x955 (4)
     |                                               |                |      [20]{}: leap_second_record 0x955-0x961 (12)
0x950|               00 00 00 00 33 b8 48 94         |     ....3.H.   |        occur: "1997-07-01T00:00:20Z" (867715220) 0x955-0x95d (8)
0x950|                                       00 00 00|             ...|        corr: 21 0x95d-0x961 (4)
0x960|15                                             |.               |
     |                                               |                |      [21]{}: leap_second_record 0x961-0x96d (12)
0x960|   00 00 00 00 36 8c 10 15                     | ....6...       |        occur: "1999-01-01T00:00:21Z" (915148821) 0x961-0x969 (8)
0x960|                           00 00 00 16         |         ....   |        corr: 22 0x969-0x96d (4)
     |                                               |                |      [22]{}: leap_second_record 0x96d-0x979 (12)
0x960|                                       00 00 00|             ...|        occur: "2006-01-01T00:00:22Z" (1136073622) 0x96d-0x975 (8)
0x970|00 43 b7 1b 96                                 |.C...           |
0x970|               00 00 00 17                     |     ....       |        corr: 23 0x975-0x979 (4)
     |                                               |                |      [23]{}: leap_second_record 0x979-0x985 (12)
0x970|                           00 00 00 00 49 5c 07|         ....I\.|        occur: "2009-01-01T00:00:23Z" (1230768023) 0x979-0x981 (8)
0x980|97                                             |.               |
0x980|   00 00 00 18                                 | ....           |        corr: 24 0x981-0x985 (4)
     |                                               |                |      [24]{}: leap_second_record 0x985-0x991 (12)
0x980|               00 00 00 00 4f ef 93 18         |     ....O...   |        occur: "2012-07-01T00:00:24Z" (1341100824) 0x985-0x98d (8)
0x980|                                       00 00 00|             ...|        corr: 25 0x98d-0x991 (4)
0x990|19                                             |.               |
     |                                               |                |      [25]{}: leap_second_record 0x991-0x99d (12)
0x990|   00 00 00 00 55 93 2d 99                     | ....U.-.       |        occur: "2015-07-01T00:00:25Z" (1435708825) 0x991-0x999 (8)
0x990|                           00 00 00 1a         |         ....   |        corr: 26 0x999-0x99d (4)
     |                                               |                |      [26]{}: leap_second_record 0x99d-0x9a9 (12)
0x990|                                       00 00 00|             ...|        occur: "2017-01-01T00:00:26Z" (1483228826) 0x99d-0x9a5 (8)
0x9a0|00 58 68 46 9a                                 |.XhF.           |
0x9a0|               00 00 00 1b                     |     ....       |        corr: 27 0x9a5-0x9a9 (4)
     |                                               |                |    standard_wall_indicators[0:10]: 0x9a9-0x9b3 (10)
0x9a0|                           00                  |         .      |      [0]: 0 standard_wall_indicator (valid) 0x9a9-0x9aa (1)
0x9a0|                              00               |          .     |      [1]: 0 standard_wall_indicator (valid) 0x9aa-0x9ab (1)
0x9a0|                                 00            |           .    |      [2]: 0 standard_wall_indicator (valid) 0x9ab-0x9ac (1)
0x9a0|                                    00         |            .   |      [3]: 0 standard_wall_indicator (valid) 0x9ac-0x9ad (1)
0x9a0|                                       01      |             .  |      [4]: 1 standard_wall_indicator (valid) 0x9ad-0x9ae (1)
0x9a0|                                          00   |              . |      [5]: 0 standard_wall_indicator (valid) 0x9ae-0x9af (1)
0x9a0|                                             00|               .|      [6]: 0 standard_wall_indicator (valid) 0x9af-0x9b0 (1)
0x9b0|00                                             |.               |      [7]: 0 standard_wall_indicator (valid) 0x9b0-0x9b1 (1)
0x9b0|   00                                          | .              |      [8]: 0 standard_wall_indicator (valid) 0x9b1-0x9b2 (1)
0x9b0|      00                                       |  .             |      [9]: 0 standard_wall_indicator (valid) 0x9b2-0x9b3 (1)
     |                                               |                |    ut_local_indicators[0:10]: 0x9b3-0x9bd (10)
0x9b0|         00                                    |   .            |      [0]: 0 ut_local_indicator (valid) 0x9b3-0x9b4 (1)
0x9b0|            00                                 |    .           |      [1]: 0 ut_local_indicator (valid) 0x9b4-0x9b5 (1)
0x9b0|               00                              |     .          |      [2]: 0 ut_local_indicator (valid) 0x9b5-0x9b6 (1)
0x9b0|                  00                           |      .         |      [3]: 0 ut_local_indicator (valid) 0x9b6-0x9b7 (1)
0x9b0|                     01                        |       .        |      [4]: 1 ut_local_indicator (valid) 0x9b7-0x9b8 (1)
0x9b0|                        00                     |        .       |      [5]: 0 ut_local_indicator (valid) 0x9b8-0x9b9 (1)
0x9b0|                           00                  |         .      |      [6]: 0 ut_local_indicator (valid) 0x9b9-0x9ba (1)
0x9b0|                              00               |          .     |      [7]: 0 ut_local_indicator (valid) 0x9ba-0x9bb (1)
0x9b0|                                 00            |           .    |      [8]: 0 ut_local_indicator (valid) 0x9bb-0x9bc (1)
0x9b0|                                    00         |            .   |      [9]: 0 ut_local_indicator (valid) 0x9bc-0x9bd (1)
     |                                               |                |  footer{}: 0x9bd-0x9bf (2)
0x9b0|                                       0a      |             .  |    nl1: 10 (valid) 0x9bd-0x9be (1)
     |                                               |                |    tz_string: "" 0x9be-0x9be (0)
0x9b0|                                          0a|  |              .||    nl2: 10 (valid) 0x9be-0x9bf (1)
