$ fq -d tzif dv Andorra
     |00 01 02 03 04 05 06 07 08 09 0a 0b 0c 0d 0e 0f|0123456789abcdef|.{}: Andorra (tzif) 0x0-0x6ce (1742)
     |                                               |                |  v1header{}: 0x0-0x2c (44)
0x000|54 5a 69 66                                    |TZif            |    magic: 0x545a6966 (valid) 0x0-0x4 (4)
0x000|            32                                 |    2           |    ver: "2" (0x32) (valid) 0x4-0x5 (1)
0x000|               00 00 00 00 00 00 00 00 00 00 00|     ...........|    reserved: raw bits 0x5-0x14 (15)
0x010|00 00 00 00                                    |....            |
0x010|            00 00 00 05                        |    ....        |    isutcnt: 5 0x14-0x18 (4)
0x010|                        00 00 00 05            |        ....    |    isstdcnt: 5 0x18-0x1c (4)
0x010|                                    00 00 00 00|            ....|    leapcnt: 0 0x1c-0x20 (4)
0x020|00 00 00 6c                                    |...l            |    timecnt: 108 0x20-0x24 (4)
0x020|            00 00 00 05                        |    ....        |    typecnt: 5 0x24-0x28 (4)
0x020|                        00 00 00 11            |        ....    |    charcnt: 17 0x28-0x2c (4)
     |                                               |                |  v1datablock{}: 0x2c-0x281 (597)
     |                                               |                |    transition_times[0:108]: 0x2c-0x1dc (432)
0x020|                                    80 00 00 00|            ....|      [0]: "1901-12-13T20:45:52Z" (-2147483648) transition_time 0x2c-0x30 (4)
0x030|d4 41 db 00                                    |.A..            |      [1]: "1946-09-30T00:00:00Z" (-733881600) transition_time 0x30-0x34 (4)
0x030|            1c ac ae 10                        |    ....        |      [2]: "1985-03-31T01:00:00Z" (481078800) transition_time 0x34-0x38 (4)
0x030|                        1d 9c 9f 10            |        ....    |      [3]: "1985-09-29T01:00:00Z" (496803600) transition_time 0x38-0x3c (4)
0x030|                                    1e 8c 90 10|            ....|      [4]: "1986-03-30T01:00:00Z" (512528400) transition_time 0x3c-0x40 (4)
0x040|1f 7c 81 10                                    |.|..            |      [5]: "1986-09-28T01:00:00Z" (528253200) transition_time 0x40-0x44 (4)
0x040|            20 6c 72 10                        |     lr.        |      [6]: "1987-03-29T01:00:00Z" (543978000) transition_time 0x44-0x48 (4)
0x040|                        21 5c 63 10            |        !\c.    |      [7]: "1987-09-27T01:00:00Z" (559702800) transition_time 0x48-0x4c (4)
0x040|                                    22 4c 54 10|            "LT.|      [8]: "1988-03-27T01:00:00Z" (575427600) transition_time 0x4c-0x50 (4)
0x050|23 3c 45 10                                    |#<E.            |      [9]: "1988-09-25T01:00:00Z" (591152400) transition_time 0x50-0x54 (4)
0x050|            24 2c 36 10                        |    $,6.        |      [10]: "1989-03-26T01:00:00Z" (606877200) transition_time 0x54-0x58 (4)
0x050|                        25 1c 27 10            |        %.'.    |      [11]: "1989-09-24T01:00:00Z" (622602000) transition_time 0x58-0x5c (4)
0x050|                                    26 0c 18 10|            &...|      [12]: "1990-03-25T01:00:00Z" (638326800) transition_time 0x5c-0x60 (4)
0x060|27 05 43 90                                    |'.C.            |      [13]: "1990-09-30T01:00:00Z" (654656400) transition_time 0x60-0x64 (4)
0x060|            27 f5 34 90                        |    '.4.        |      [14]: "1991-03-31T01:00:00Z" (670381200) transition_time 0x64-0x68 (4)
0x060|                        28 e5 25 90            |        (.%.    |      [15]: "1991-09-29T01:00:00Z" (686106000) transition_time 0x68-0x6c (4)
0x060|                                    29 d5 16 90|            )...|      [16]: "1992-03-29T01:00:00Z" (701830800) transition_time 0x6c-0x70 (4)
0x070|2a c5 07 90                                    |*...            |      [17]: "1992-09-27T01:00:00Z" (717555600) transition_time 0x70-0x74 (4)
0x070|            2b b4 f8 90                        |    +...        |      [18]: "1993-03-28T01:00:00Z" (733280400) transition_time 0x74-0x78 (4)
0x070|                        2c a4 e9 90            |        ,...    |      [19]: "1993-09-26T01:00:00Z" (749005200) transition_time 0x78-0x7c (4)
0x070|                                    2d 94 da 90|            -...|      [20]: "1994-03-27T01:00:00Z" (764730000) transition_time 0x7c-0x80 (4)
0x080|2e 84 cb 90                                    |....            |      [21]: "1994-09-25T01:00:00Z" (780454800) transition_time 0x80-0x84 (4)
0x080|            2f 74 bc 90                        |    /t..        |      [22]: "1995-03-26T01:00:00Z" (796179600) transition_time 0x84-0x88 (4)
0x080|                        30 64 ad 90            |        0d..    |      [23]: "1995-09-24T01:00:00Z" (811904400) transition_time 0x88-0x8c (4)
0x080|                                    31 5d d9 10|            1]..|      [24]: "1996-03-31T01:00:00Z" (828234000) transition_time 0x8c-0x90 (4)
0x090|32 72 b4 10                                    |2r..            |      [25]: "1996-10-27T01:00:00Z" (846378000) transition_time 0x90-0x94 (4)
0x090|            33 3d bb 10                        |    3=..        |      [26]: "1997-03-30T01:00:00Z" (859683600) transition_time 0x94-0x98 (4)
0x090|                        34 52 96 10            |        4R..    |      [27]: "1997-10-26T01:00:00Z" (877827600) transition_time 0x98-0x9c (4)
0x090|                                    35 1d 9d 10|            5...|      [28]: "1998-03-29T01:00:00Z" (891133200) transition_time 0x9c-0xa0 (4)
0x0a0|36 32 78 10                                    |62x.            |      [29]: "1998-10-25T01:00:00Z" (909277200) transition_time 0xa0-0xa4 (4)
0x0a0|            36 fd 7f 10                        |    6...        |      [30]: "1999-03-28T01:00:00Z" (922582800) transition_time 0xa4-0xa8 (4)
0x0a0|                        38 1b 94 90            |        8...    |      [31]: "1999-10-31T01:00:00Z" (941331600) transition_time 0xa8-0xac (4)
0x0a0|                                    38 dd 61 10|            8.a.|      [32]: "2000-03-26T01:00:00Z" (954032400) transition_time 0xac-0xb0 (4)
0x0b0|39 fb 76 90                                    |9.v.            |      [33]: "2000-10-29T01:00:00Z" (972781200) transition_time 0xb0-0xb4 (4)
0x0b0|            3a bd 43 10                        |    :.C.        |      [34]: "2001-03-25T01:00:00Z" (985482000) transition_time 0xb4-0xb8 (4)
0x0b0|                        3b db 58 90            |        ;.X.    |      [35]: "2001-10-28T01:00:00Z" (1004230800) transition_time 0xb8-0xbc (4)
0x0b0|                                    3c a6 5f 90|            <._.|      [36]: "2002-03-31T01:00:00Z" (1017536400) transition_time 0xbc-0xc0 (4)
0x0c0|3d bb 3a 90                                    |=.:.            |      [37]: "2002-10-27T01:00:00Z" (1035680400) transition_time 0xc0-0xc4 (4)
0x0c0|            3e 86 41 90                        |    >.A.        |      [38]: "2003-03-30T01:00:00Z" (1048986000) transition_time 0xc4-0xc8 (4)
0x0c0|                        3f 9b 1c 90            |        ?...    |      [39]: "2003-10-26T01:00:00Z" (1067130000) transition_time 0xc8-0xcc (4)
0x0c0|                                    40 66 23 90|            @f#.|      [40]: "2004-03-28T01:00:00Z" (1080435600) transition_time 0xcc-0xd0 (4)
0x0d0|41 84 39 10                                    |A.9.            |      [41]: "2004-10-31T01:00:00Z" (1099184400) transition_time 0xd0-0xd4 (4)
0x0d0|            42 46 05 90                        |    BF..        |      [42]: "2005-03-27T01:00:00Z" (1111885200) transition_time 0xd4-0xd8 (4)
0x0d0|                        43 64 1b 10            |        Cd..    |      [43]: "2005-10-30T01:00:00Z" (1130634000) transition_time 0xd8-0xdc (4)
0x0d0|                                    44 25 e7 90|            D%..|      [44]: "2006-03-26T01:00:00Z" (1143334800) transition_time 0xdc-0xe0 (4)
0x0e0|45 43 fd 10                                    |EC..            |      [45]: "2006-10-29T01:00:00Z" (1162083600) transition_time 0xe0-0xe4 (4)
0x0e0|            46 05 c9 90                        |    F...        |      [46]: "2007-03-25T01:00:00Z" (1174784400) transition_time 0xe4-0xe8 (4)
0x0e0|                        47 23 df 10            |        G#..    |      [47]: "2007-10-28T01:00:00Z" (1193533200) transition_time 0xe8-0xec (4)
0x0e0|                                    47 ee e6 10|            G...|      [48]: "2008-03-30T01:00:00Z" (1206838800) transition_time 0xec-0xf0 (4)
0x0f0|49 03 c1 10                                    |I...            |      [49]: "2008-10-26T01:00:00Z" (1224982800) transition_time 0xf0-0xf4 (4)
0x0f0|            49 ce c8 10                        |    I...        |      [50]: "2009-03-29T01:00:00Z" (1238288400) transition_time 0xf4-0xf8 (4)
0x0f0|                        4a e3 a3 10            |        J...    |      [51]: "2009-10-25T01:00:00Z" (1256432400) transition_time 0xf8-0xfc (4)
0x0f0|                                    4b ae aa 10|            K...|      [52]: "2010-03-28T01:00:00Z" (1269738000) transition_time 0xfc-0x100 (4)
0x100|4c cc bf 90                                    |L...            |      [53]: "2010-10-31T01:00:00Z" (1288486800) transition_time 0x100-0x104 (4)
0x100|            4d 8e 8c 10                        |    M...        |      [54]: "2011-03-27T01:00:00Z" (1301187600) transition_time 0x104-0x108 (4)
0x100|                        4e ac a1 90            |        N...    |      [55]: "2011-10-30T01:00:00Z" (1319936400) transition_time 0x108-0x10c (4)
0x100|                                    4f 6e 6e 10|            Onn.|      [56]: "2012-03-25T01:00:00Z" (1332637200) transition_time 0x10c-0x110 (4)
0x110|50 8c 83 90                                    |P...            |      [57]: "2012-10-28T01:00:00Z" (1351386000) transition_time 0x110-0x114 (4)
0x110|            51 57 8a 90                        |    QW..        |      [58]: "2013-03-31T01:00:00Z" (1364691600) transition_time 0x114-0x118 (4)
0x110|                        52 6c 65 90            |        Rle.    |      [59]: "2013-10-27T01:00:00Z" (1382835600) transition_time 0x118-0x11c (4)
0x110|                                    53 37 6c 90|            S7l.|      [60]: "2014-03-30T01:00:00Z" (1396141200) transition_time 0x11c-0x120 (4)
0x120|54 4c 47 90                                    |TLG.            |      [61]: "2014-10-26T01:00:00Z" (1414285200) transition_time 0x120-0x124 (4)
0x120|            55 17 4e 90                        |    U.N.        |      [62]: "2015-03-29T01:00:00Z" (1427590800) transition_time 0x124-0x128 (4)
0x120|                        56 2c 29 90            |        V,).    |      [63]: "2015-10-25T01:00:00Z" (1445734800) transition_time 0x128-0x12c (4)
0x120|                                    56 f7 30 90|            V.0.|      [64]: "2016-03-27T01:00:00Z" (1459040400) transition_time 0x12c-0x130 (4)
0x130|58 15 46 10                                    |X.F.            |      [65]: "2016-10-30T01:00:00Z" (1477789200) transition_time 0x130-0x134 (4)
0x130|            58 d7 12 90                        |    X...        |      [66]: "2017-03-26T01:00:00Z" (1490490000) transition_time 0x134-0x138 (4)
0x130|                        59 f5 28 10            |        Y.(.    |      [67]: "2017-10-29T01:00:00Z" (1509238800) transition_time 0x138-0x13c (4)
0x130|                                    5a b6 f4 90|            Z...|      [68]: "2018-03-25T01:00:00Z" (1521939600) transition_time 0x13c-0x140 (4)
0x140|5b d5 0a 10                                    |[...            |      [69]: "2018-10-28T01:00:00Z" (1540688400) transition_time 0x140-0x144 (4)
0x140|            5c a0 11 10                        |    \...        |      [70]: "2019-03-31T01:00:00Z" (1553994000) transition_time 0x144-0x148 (4)
0x140|                        5d b4 ec 10            |        ]...    |      [71]: "2019-10-27T01:00:00Z" (1572138000) transition_time 0x148-0x14c (4)
0x140|                                    5e 7f f3 10|            ^...|      [72]: "2020-03-29T01:00:00Z" (1585443600) transition_time 0x14c-0x150 (4)
0x150|5f 94 ce 10                                    |_...            |      [73]: "2020-10-25T01:00:00Z" (1603587600) transition_time 0x150-0x154 (4)
0x150|            60 5f d5 10                        |    `_..        |      [74]: "2021-03-28T01:00:00Z" (1616893200) transition_time 0x154-0x158 (4)
0x150|                        61 7d ea 90            |        a}..    |      [75]: "2021-10-31T01:00:00Z" (1635642000) transition_time 0x158-0x15c (4)
0x150|                                    62 3f b7 10|            b?..|      [76]: "2022-03-27T01:00:00Z" (1648342800) transition_time 0x15c-0x160 (4)
0x160|63 5d cc 90                                    |c]..            |      [77]: "2022-10-30T01:00:00Z" (1667091600) transition_time 0x160-0x164 (4)
0x160|            64 1f 99 10                        |    d...        |      [78]: "2023-03-26T01:00:00Z" (1679792400) transition_time 0x164-0x168 (4)
0x160|                        65 3d ae 90            |        e=..    |      [79]: "2023-10-29T01:00:00Z" (1698541200) transition_time 0x168-0x16c (4)
0x160|                                    66 08 b5 90|            f...|      [80]: "2024-03-31T01:00:00Z" (1711846800) transition_time 0x16c-0x170 (4)
0x170|67 1d 90 90                                    |g...            |      [81]: "2024-10-27T01:00:00Z" (1729990800) transition_time 0x170-0x174 (4)
0x170|            67 e8 97 90                        |    g...        |      [82]: "2025-03-30T01:00:00Z" (1743296400) transition_time 0x174-0x178 (4)
0x170|                        68 fd 72 90            |        h.r.    |      [83]: "2025-10-26T01:00:00Z" (1761440400) transition_time 0x178-0x17c (4)
0x170|                                    69 c8 79 90|            i.y.|      [84]: "2026-03-29T01:00:00Z" (1774746000) transition_time 0x17c-0x180 (4)
0x180|6a dd 54 90                                    |j.T.            |      [85]: "2026-10-25T01:00:00Z" (1792890000) transition_time 0x180-0x184 (4)
0x180|            6b a8 5b 90                        |    k.[.        |      [86]: "2027-03-28T01:00:00Z" (1806195600) transition_time 0x184-0x188 (4)
0x180|                        6c c6 71 10            |        l.q.    |      [87]: "2027-10-31T01:00:00Z" (1824944400) transition_time 0x188-0x18c (4)
0x180|                                    6d 88 3d 90|            m.=.|      [88]: "2028-03-26T01:00:00Z" (1837645200) transition_time 0x18c-0x190 (4)
0x190|6e a6 53 10                                    |n.S.            |      [89]: "2028-10-29T01:00:00Z" (1856394000) transition_time 0x190-0x194 (4)
0x190|            6f 68 1f 90                        |    oh..        |      [90]: "2029-03-25T01:00:00Z" (1869094800) transition_time 0x194-0x198 (4)
0x190|                        70 86 35 10            |        p.5.    |      [91]: "2029-10-28T01:00:00Z" (1887843600) transition_time 0x198-0x19c (4)
0x190|                                    71 51 3c 10|            qQ<.|      [92]: "2030-03-31T01:00:00Z" (1901149200) transition_time 0x19c-0x1a0 (4)
0x1a0|72 66 17 10                                    |rf..            |      [93]: "2030-10-27T01:00:00Z" (1919293200) transition_time 0x1a0-0x1a4 (4)
0x1a0|            73 31 1e 10                        |    s1..        |      [94]: "2031-03-30T01:00:00Z" (1932598800) transition_time 0x1a4-0x1a8 (4)
0x1a0|                        74 45 f9 10            |        tE..    |      [95]: "2031-10-26T01:00:00Z" (1950742800) transition_time 0x1a8-0x1ac (4)
0x1a0|                                    75 11 00 10|            u...|      [96]: "2032-03-28T01:00:00Z" (1964048400) transition_time 0x1ac-0x1b0 (4)
0x1b0|76 2f 15 90                                    |v/..            |      [97]: "2032-10-31T01:00:00Z" (1982797200) transition_time 0x1b0-0x1b4 (4)
0x1b0|            76 f0 e2 10                        |    v...        |      [98]: "2033-03-27T01:00:00Z" (1995498000) transition_time 0x1b4-0x1b8 (4)
0x1b0|                        78 0e f7 90            |        x...    |      [99]: "2033-10-30T01:00:00Z" (2014246800) transition_time 0x1b8-0x1bc (4)
0x1b0|                                    78 d0 c4 10|            x...|      [100]: "2034-03-26T01:00:00Z" (2026947600) transition_time 0x1bc-0x1c0 (4)
0x1c0|79 ee d9 90                                    |y...            |      [101]: "2034-10-29T01:00:00Z" (2045696400) transition_time 0x1c0-0x1c4 (4)
0x1c0|            7a b0 a6 10                        |    z...        |      [102]: "2035-03-25T01:00:00Z" (2058397200) transition_time 0x1c4-0x1c8 (4)
0x1c0|                        7b ce bb 90            |        {...    |      [103]: "2035-10-28T01:00:00Z" (2077146000) transition_time 0x1c8-0x1cc (4)
0x1c0|                                    7c 99 c2 90|            |...|      [104]: "2036-03-30T01:00:00Z" (2090451600) transition_time 0x1cc-0x1d0 (4)
0x1d0|7d ae 9d 90                                    |}...            |      [105]: "2036-10-26T01:00:00Z" (2108595600) transition_time 0x1d0-0x1d4 (4)
0x1d0|            7e 79 a4 90                        |    ~y..        |      [106]: "2037-03-29T01:00:00Z" (2121901200) transition_time 0x1d4-0x1d8 (4)
0x1d0|                        7f 8e 7f 90            |        ....    |      [107]: "2037-10-25T01:00:00Z" (2140045200) transition_time 0x1d8-0x1dc (4)
     |                                               |                |    transition_types[0:108]: 0x1dc-0x248 (108)
0x1d0|                                    01         |            .   |      [0]: 1 transition_type 0x1dc-0x1dd (1)
0x1d0|                                       02      |             .  |      [1]: 2 transition_type 0x1dd-0x1de (1)
0x1d0|                                          03   |              . |      [2]: 3 transition_type 0x1de-0x1df (1)
0x1d0|                                             04|               .|      [3]: 4 transition_type 0x1df-0x1e0 (1)
0x1e0|03                                             |.               |      [4]: 3 transition_type 0x1e0-0x1e1 (1)
0x1e0|   04                                          | .              |      [5]: 4 transition_type 0x1e1-0x1e2 (1)
0x1e0|      03                                       |  .             |      [6]: 3 transition_type 0x1e2-0x1e3 (1)
0x1e0|         04                                    |   .            |      [7]: 4 transition_type 0x1e3-0x1e4 (1)
0x1e0|            03                                 |    .           |      [8]: 3 transition_type 0x1e4-0x1e5 (1)
0x1e0|               04                              |     .          |      [9]: 4 transition_type 0x1e5-0x1e6 (1)
0x1e0|                  03                           |      .         |      [10]: 3 transition_type 0x1e6-0x1e7 (1)
0x1e0|                     04                        |       .        |      [11]: 4 transition_type 0x1e7-0x1e8 (1)
0x1e0|                        03                     |        .       |      [12]: 3 transition_type 0x1e8-0x1e9 (1)
0x1e0|                           04                  |         .      |      [13]: 4 transition_type 0x1e9-0x1ea (1)
0x1e0|                              03               |          .     |      [14]: 3 transition_type 0x1ea-0x1eb (1)
0x1e0|                                 04            |           .    |      [15]: 4 transition_type 0x1eb-0x1ec (1)
0x1e0|                                    03         |            .   |      [16]: 3 transition_type 0x1ec-0x1ed (1)
0x1e0|                                       04      |             .  |      [17]: 4 transition_type 0x1ed-0x1ee (1)
0x1e0|                                          03   |              . |      [18]: 3 transition_type 0x1ee-0x1ef (1)
0x1e0|                                             04|               .|      [19]: 4 transition_type 0x1ef-0x1f0 (1)
0x1f0|03                                             |.               |      [20]: 3 transition_type 0x1f0-0x1f1 (1)
0x1f0|   04                                          | .              |      [21]: 4 transition_type 0x1f1-0x1f2 (1)
0x1f0|      03                                       |  .             |      [22]: 3 transition_type 0x1f2-0x1f3 (1)
0x1f0|         04                                    |   .            |      [23]: 4 transition_type 0x1f3-0x1f4 (1)
0x1f0|            03                                 |    .           |      [24]: 3 transition_type 0x1f4-0x1f5 (1)
0x1f0|               04                              |     .          |      [25]: 4 transition_type 0x1f5-0x1f6 (1)
0x1f0|                  03                           |      .         |      [26]: 3 transition_type 0x1f6-0x1f7 (1)
0x1f0|                     04                        |       .        |      [27]: 4 transition_type 0x1f7-0x1f8 (1)
0x1f0|                        03                     |        .       |      [28]: 3 transition_type 0x1f8-0x1f9 (1)
0x1f0|                           04                  |         .      |      [29]: 4 transition_type 0x1f9-0x1fa (1)
0x1f0|                              03               |          .     |      [30]: 3 transition_type 0x1fa-0x1fb (1)
0x1f0|                                 04            |           .    |      [31]: 4 transition_type 0x1fb-0x1fc (1)
0x1f0|                                    03         |            .   |      [32]: 3 transition_type 0x1fc-0x1fd (1)
0x1f0|                                       04      |             .  |      [33]: 4 transition_type 0x1fd-0x1fe (1)
0x1f0|                                          03   |              . |      [34]: 3 transition_type 0x1fe-0x1ff (1)
0x1f0|                                             04|               .|      [35]: 4 transition_type 0x1ff-0x200 (1)
0x200|03                                             |.               |      [36]: 3 transition_type 0x200-0x201 (1)
0x200|   04                                          | .              |      [37]: 4 transition_type 0x201-0x202 (1)
0x200|      03                                       |  .             |      [38]: 3 transition_type 0x202-0x203 (1)
0x200|         04                                    |   .            |      [39]: 4 transition_type 0x203-0x204 (1)
0x200|            03                                 |    .           |      [40]: 3 transition_type 0x204-0x205 (1)
0x200|               04                              |     .          |      [41]: 4 transition_type 0x205-0x206 (1)
0x200|                  03                           |      .         |      [42]: 3 transition_type 0x206-0x207 (1)
0x200|                     04                        |       .        |      [43]: 4 transition_type 0x207-0x208 (1)
0x200|                        03                     |        .       |      [44]: 3 transition_type 0x208-0x209 (1)
0x200|                           04                  |         .      |      [45]: 4 transition_type 0x209-0x20a (1)
0x200|                              03               |          .     |      [46]: 3 transition_type 0x20a-0x20b (1)
0x200|                                 04            |           .    |      [47]: 4 transition_type 0x20b-0x20c (1)
0x200|                                    03         |            .   |      [48]: 3 transition_type 0x20c-0x20d (1)
0x200|                                       04      |             .  |      [49]: 4 transition_type 0x20d-0x20e (1)
0x200|                                          03   |              . |      [50]: 3 transition_type 0x20e-0x20f (1)
0x200|                                             04|               .|      [51]: 4 transition_type 0x20f-0x210 (1)
0x210|03                                             |.               |      [52]: 3 transition_type 0x210-0x211 (1)
0x210|   04                                          | .              |      [53]: 4 transition_type 0x211-0x212 (1)
0x210|      03                                       |  .             |      [54]: 3 transition_type 0x212-0x213 (1)
0x210|         04                                    |   .            |      [55]: 4 transition_type 0x213-0x214 (1)
0x210|            03                                 |    .           |      [56]: 3 transition_type 0x214-0x215 (1)
0x210|               04                              |     .          |      [57]: 4 transition_type 0x215-0x216 (1)
0x210|                  03                           |      .         |      [58]: 3 transition_type 0x216-0x217 (1)
0x210|                     04                        |       .        |      [59]: 4 transition_type 0x217-0x218 (1)
0x210|                        03                     |        .       |      [60]: 3 transition_type 0x218-0x219 (1)
0x210|                           04                  |         .      |      [61]: 4 transition_type 0x219-0x21a (1)
0x210|                              03               |          .     |      [62]: 3 transition_type 0x21a-0x21b (1)
0x210|                                 04            |           .    |      [63]: 4 transition_type 0x21b-0x21c (1)
0x210|                                    03         |            .   |      [64]: 3 transition_type 0x21c-0x21d (1)
0x210|                                       04      |             .  |      [65]: 4 transition_type 0x21d-0x21e (1)
0x210|                                          03   |              . |      [66]: 3 transition_type 0x21e-0x21f (1)
0x210|                                             04|               .|      [67]: 4 transition_type 0x21f-0x220 (1)
0x220|03                                             |.               |      [68]: 3 transition_type 0x220-0x221 (1)
0x220|   04                                          | .              |      [69]: 4 transition_type 0x221-0x222 (1)
0x220|      03                                       |  .             |      [70]: 3 transition_type 0x222-0x223 (1)
0x220|         04                                    |   .            |      [71]: 4 transition_type 0x223-0x224 (1)
0x220|            03                                 |    .           |      [72]: 3 transition_type 0x224-0x225 (1)
0x220|               04                              |     .          |      [73]: 4 transition_type 0x225-0x226 (1)
0x220|                  03                           |      .         |      [74]: 3 transition_type 0x226-0x227 (1)
0x220|                     04                        |       .        |      [75]: 4 transition_type 0x227-0x228 (1)
0x220|                        03                     |        .       |      [76]: 3 transition_type 0x228-0x229 (1)
0x220|                           04                  |         .      |      [77]: 4 transition_type 0x229-0x22a (1)
0x220|                              03               |          .     |      [78]: 3 transition_type 0x22a-0x22b (1)
0x220|                                 04            |           .    |      [79]: 4 transition_type 0x22b-0x22c (1)
0x220|                                    03         |            .   |      [80]: 3 transition_type 0x22c-0x22d (1)
0x220|                                       04      |             .  |      [81]: 4 transition_type 0x22d-0x22e (1)
0x220|                                          03   |              . |      [82]: 3 transition_type 0x22e-0x22f (1)
0x220|                                             04|               .|      [83]: 4 transition_type 0x22f-0x230 (1)
0x230|03                                             |.               |      [84]: 3 transition_type 0x230-0x231 (1)
0x230|   04                                          | .              |      [85]: 4 transition_type 0x231-0x232 (1)
0x230|      03                                       |  .             |      [86]: 3 transition_type 0x232-0x233 (1)
0x230|         04                                    |   .            |      [87]: 4 transition_type 0x233-0x234 (1)
0x230|            03                                 |    .           |      [88]: 3 transition_type 0x234-0x235 (1)
0x230|               04                              |     .          |      [89]: 4 transition_type 0x235-0x236 (1)
0x230|                  03                           |      .         |      [90]: 3 transition_type 0x236-0x237 (1)
0x230|                     04                        |       .        |      [91]: 4 transition_type 0x237-0x238 (1)
0x230|                        03                     |        .       |      [92]: 3 transition_type 0x238-0x239 (1)
0x230|                           04                  |         .      |      [93]: 4 transition_type 0x239-0x23a (1)
0x230|                              03               |          .     |      [94]: 3 transition_type 0x23a-0x23b (1)
0x230|                                 04            |           .    |      [95]: 4 transition_type 0x23b-0x23c (1)
0x230|                                    03         |            .   |      [96]: 3 transition_type 0x23c-0x23d (1)
0x230|                                       04      |             .  |      [97]: 4 transition_type 0x23d-0x23e (1)
0x230|                                          03   |              . |      [98]: 3 transition_type 0x23e-0x23f (1)
0x230|                                             04|               .|      [99]: 4 transition_type 0x23f-0x240 (1)
0x240|03                                             |.               |      [100]: 3 transition_type 0x240-0x241 (1)
0x240|   04                                          | .              |      [101]: 4 transition_type 0x241-0x242 (1)
0x240|      03                                       |  .             |      [102]: 3 transition_type 0x242-0x243 (1)
0x240|         04                                    |   .            |      [103]: 4 transition_type 0x243-0x244 (1)
0x240|            03                                 |    .           |      [104]: 3 transition_type 0x244-0x245 (1)
0x240|               04                              |     .          |      [105]: 4 transition_type 0x245-0x246 (1)
0x240|                  03                           |      .         |      [106]: 3 transition_type 0x246-0x247 (1)
0x240|                     04                        |       .        |      [107]: 4 transition_type 0x247-0x248 (1)
     |                                               |                |    local_time_type_records[0:5]: 0x248-0x266 (30)
     |                                               |                |      [0]{}: local_time_type 0x248-0x24e (6)
0x240|                        00 00 01 6c            |        ...l    |        utoff: 364 (valid) 0x248-0x24c (4)
0x240|                                    00         |            .   |        dst: 0 (valid) 0x24c-0x24d (1)
0x240|                                       00      |             .  |        idx: 0 (valid) 0x24d-0x24e (1)
     |                                               |                |      [1]{}: local_time_type 0x24e-0x254 (6)
0x240|                                          00 00|              ..|        utoff: 0 (valid) 0x24e-0x252 (4)
0x250|00 00                                          |..              |
0x250|      00                                       |  .             |        dst: 0 (valid) 0x252-0x253 (1)
0x250|         04                                    |   .            |        idx: 4 (valid) 0x253-0x254 (1)
     |                                               |                |      [2]{}: local_time_type 0x254-0x25a (6)
0x250|            00 00 0e 10                        |    ....        |        utoff: 3600 (valid) 0x254-0x258 (4)
0x250|                        00                     |        .       |        dst: 0 (valid) 0x258-0x259 (1)
0x250|                           08                  |         .      |        idx: 8 (valid) 0x259-0x25a (1)
     |                                               |                |      [3]{}: local_time_type 0x25a-0x260 (6)
0x250|                              00 00 1c 20      |          ...   |        utoff: 7200 (valid) 0x25a-0x25e (4)
0x250|                                          01   |              . |        dst: 1 (valid) 0x25e-0x25f (1)
0x250|                                             0c|               .|        idx: 12 (valid) 0x25f-0x260 (1)
     |                                               |                |      [4]{}: local_time_type 0x260-0x266 (6)
0x260|00 00 0e 10                                    |....            |        utoff: 3600 (valid) 0x260-0x264 (4)
0x260|            00                                 |    .           |        dst: 0 (valid) 0x264-0x265 (1)
0x260|               08                              |     .          |        idx: 8 (valid) 0x265-0x266 (1)
     |                                               |                |    time_zone_designations[0:4]: 0x266-0x277 (17)
0x260|                  4c 4d 54 00                  |      LMT.      |      [0]: "LMT" time_zone_designation 0x266-0x26a (4)
0x260|                              57 45 54 00      |          WET.  |      [1]: "WET" time_zone_designation 0x26a-0x26e (4)
0x260|                                          43 45|              CE|      [2]: "CET" time_zone_designation 0x26e-0x272 (4)
0x270|54 00                                          |T.              |
0x270|      43 45 53 54 00                           |  CEST.         |      [3]: "CEST" time_zone_designation 0x272-0x277 (5)
     |                                               |                |    leap_second_records[0:0]: 0x277-0x277 (0)
     |                                               |                |    standard_wall_indicators[0:5]: 0x277-0x27c (5)
0x270|                     00                        |       .        |      [0]: 0 standard_wall_indicator (valid) 0x277-0x278 (1)
0x270|                        00                     |        .       |      [1]: 0 standard_wall_indicator (valid) 0x278-0x279 (1)
0x270|                           00                  |         .      |      [2]: 0 standard_wall_indicator (valid) 0x279-0x27a (1)
0x270|                              01               |          .     |      [3]: 1 standard_wall_indicator (valid) 0x27a-0x27b (1)
0x270|                                 01            |           .    |      [4]: 1 standard_wall_indicator (valid) 0x27b-0x27c (1)
     |                                               |                |    ut_local_indicators[0:5]: 0x27c-0x281 (5)
0x270|                                    00         |            .   |      [0]: 0 ut_local_indicator (valid) 0x27c-0x27d (1)
0x270|                                       00      |             .  |      [1]: 0 ut_local_indicator (valid) 0x27d-0x27e (1)
0x270|                                          00   |              . |      [2]: 0 ut_local_indicator (valid) 0x27e-0x27f (1)
0x270|                                             01|               .|      [3]: 1 ut_local_indicator (valid) 0x27f-0x280 (1)
0x280|01                                             |.               |      [4]: 1 ut_local_indicator (valid) 0x280-0x281 (1)
     |                                               |                |  v2plusheader{}: 0x281-0x2ad (44)
0x280|   54 5a 69 66                                 | TZif           |    magic: 0x545a6966 (valid) 0x281-0x285 (4)
0x280|               32                              |     2          |    ver: "2" (0x32) (valid) 0x285-0x286 (1)
0x280|                  00 00 00 00 00 00 00 00 00 00|      ..........|    reserved: raw bits 0x286-0x295 (15)
0x290|00 00 00 00 00                                 |.....           |
0x290|               00 00 00 05                     |     ....       |    isutcnt: 5 0x295-0x299 (4)
0x290|                           00 00 00 05         |         ....   |    isstdcnt: 5 0x299-0x29d (4)
0x290|                                       00 00 00|             ...|    leapcnt: 0 0x29d-0x2a1 (4)
0x2a0|00                                             |.               |
0x2a0|   00 00 00 6c                                 | ...l           |    timecnt: 108 0x2a1-0x2a5 (4)
0x2a0|               00 00 00 05                     |     ....       |    typecnt: 5 0x2a5-0x2a9 (4)
0x2a0|                           00 00 00 11         |         ....   |    charcnt: 17 0x2a9-0x2ad (4)
     |                                               |                |  v2plusdatablock{}: 0x2ad-0x6b2 (1029)
     |                                               |                |    transition_times[0:108]: 0x2ad-0x60d (864)
0x2a0|                                       ff ff ff|             ...|      [0]: "1900-12-31T23:53:56Z" (-2177453164) transition_time 0x2ad-0x2b5 (8)
0x2b0|ff 7e 36 b3 94                                 |.~6..           |
0x2b0|               ff ff ff ff d4 41 db 00         |     .....A..   |      [1]: "1946-09-30T00:00:00Z" (-733881600) transition_time 0x2b5-0x2bd (8)
0x2b0|                                       00 00 00|             ...|      [2]: "1985-03-31T01:00:00Z" (481078800) transition_time 0x2bd-0x2c5 (8)
0x2c0|00 1c ac ae 10                                 |.....           |
0x2c0|               00 00 00 00 1d 9c 9f 10         |     ........   |      [3]: "1985-09-29T01:00:00Z" (496803600) transition_time 0x2c5-0x2cd (8)
0x2c0|                                       00 00 00|             ...|      [4]: "1986-03-30T01:00:00Z" (512528400) transition_time 0x2cd-0x2d5 (8)
0x2d0|00 1e 8c 90 10                                 |.....           |
0x2d0|               00 00 00 00 1f 7c 81 10         |     .....|..   |      [5]: "1986-09-28T01:00:00Z" (528253200) transition_time 0x2d5-0x2dd (8)
0x2d0|                                       00 00 00|             ...|      [6]: "1987-03-29T01:00:00Z" (543978000) transition_time 0x2dd-0x2e5 (8)
0x2e0|00 20 6c 72 10                                 |. lr.           |
0x2e0|               00 00 00 00 21 5c 63 10         |     ....!\c.   |      [7]: "1987-09-27T01:00:00Z" (559702800) transition_time 0x2e5-0x2ed (8)
0x2e0|                                       00 00 00|             ...|      [8]: "1988-03-27T01:00:00Z" (575427600) transition_time 0x2ed-0x2f5 (8)
0x2f0|00 22 4c 54 10                                 |."LT.           |
0x2f0|               00 00 00 00 23 3c 45 10         |     ....#<E.   |      [9]: "1988-09-25T01:00:00Z" (591152400) transition_time 0x2f5-0x2fd (8)
0x2f0|                                       00 00 00|             ...|      [10]: "1989-03-26T01:00:00Z" (606877200) transition_time 0x2fd-0x305 (8)
0x300|00 24 2c 36 10                                 |.$,6.           |
0x300|               00 00 00 00 25 1c 27 10         |     ....%.'.   |      [11]: "1989-09-24T01:00:00Z" (622602000) transition_time 0x305-0x30d (8)
0x300|                                       00 00 00|             ...|      [12]: "1990-03-25T01:00:00Z" (638326800) transition_time 0x30d-0x315 (8)
0x310|00 26 0c 18 10                                 |.&...           |
0x310|               00 00 00 00 27 05 43 90         |     ....'.C.   |      [13]: "1990-09-30T01:00:00Z" (654656400) transition_time 0x315-0x31d (8)
0x310|                                       00 00 00|             ...|      [14]: "1991-03-31T01:00:00Z" (670381200) transition_time 0x31d-0x325 (8)
0x320|00 27 f5 34 90                                 |.'.4.           |
0x320|               00 00 00 00 28 e5 25 90         |     ....(.%.   |      [15]: "1991-09-29T01:00:00Z" (686106000) transition_time 0x325-0x32d (8)
0x320|                                       00 00 00|             ...|      [16]: "1992-03-29T01:00:00Z" (701830800) transition_time 0x32d-0x335 (8)
0x330|00 29 d5 16 90                                 |.)...           |
0x330|               00 00 00 00 2a c5 07 90         |     ....*...   |      [17]: "1992-09-27T01:00:00Z" (717555600) transition_time 0x335-0x33d (8)
0x330|                                       00 00 00|             ...|      [18]: "1993-03-28T01:00:00Z" (733280400) transition_time 0x33d-0x345 (8)
0x340|00 2b b4 f8 90                                 |.+...           |
0x340|               00 00 00 00 2c a4 e9 90         |     ....,...   |      [19]: "1993-09-26T01:00:00Z" (749005200) transition_time 0x345-0x34d (8)
0x340|                                       00 00 00|             ...|      [20]: "1994-03-27T01:00:00Z" (764730000) transition_time 0x34d-0x355 (8)
0x350|00 2d 94 da 90                                 |.-...           |
0x350|               00 00 00 00 2e 84 cb 90         |     ........   |      [21]: "1994-09-25T01:00:00Z" (780454800) transition_time 0x355-0x35d (8)
0x350|                                       00 00 00|             ...|      [22]: "1995-03-26T01:00:00Z" (796179600) transition_time 0x35d-0x365 (8)
0x360|00 2f 74 bc 90                                 |./t..           |
0x360|               00 00 00 00 30 64 ad 90         |     ....0d..   |      [23]: "1995-09-24T01:00:00Z" (811904400) transition_time 0x365-0x36d (8)
0x360|                                       00 00 00|             ...|      [24]: "1996-03-31T01:00:00Z" (828234000) transition_time 0x36d-0x375 (8)
0x370|00 31 5d d9 10                                 |.1]..           |
0x370|               00 00 00 00 32 72 b4 10         |     ....2r..   |      [25]: "1996-10-27T01:00:00Z" (846378000) transition_time 0x375-0x37d (8)
0x370|                                       00 00 00|             ...|      [26]: "1997-03-30T01:00:00Z" (859683600) transition_time 0x37d-0x385 (8)
0x380|00 33 3d bb 10                                 |.3=..           |
0x380|               00 00 00 00 34 52 96 10         |     ....4R..   |      [27]: "1997-10-26T01:00:00Z" (877827600) transition_time 0x385-0x38d (8)
0x380|                                       00 00 00|             ...|      [28]: "1998-03-29T01:00:00Z" (891133200) transition_time 0x38d-0x395 (8)
0x390|00 35 1d 9d 10                                 |.5...           |
0x390|               00 00 00 00 36 32 78 10         |     ....62x.   |      [29]: "1998-10-25T01:00:00Z" (909277200) transition_time 0x395-0x39d (8)
0x390|                                       00 00 00|             ...|      [30]: "1999-03-28T01:00:00Z" (922582800) transition_time 0x39d-0x3a5 (8)
0x3a0|00 36 fd 7f 10                                 |.6...           |
0x3a0|               00 00 00 00 38 1b 94 90         |     ....8...   |      [31]: "1999-10-31T01:00:00Z" (941331600) transition_time 0x3a5-0x3ad (8)
0x3a0|                                       00 00 00|             ...|      [32]: "2000-03-26T01:00:00Z" (954032400) transition_time 0x3ad-0x3b5 (8)
0x3b0|00 38 dd 61 10                                 |.8.a.           |
0x3b0|               00 00 00 00 39 fb 76 90         |     ....9.v.   |      [33]: "2000-10-29T01:00:00Z" (972781200) transition_time 0x3b5-0x3bd (8)
0x3b0|                                       00 00 00|             ...|      [34]: "2001-03-25T01:00:00Z" (985482000) transition_time 0x3bd-0x3c5 (8)
0x3c0|00 3a bd 43 10                                 |.:.C.           |
0x3c0|               00 00 00 00 3b db 58 90         |     ....;.X.   |      [35]: "2001-10-28T01:00:00Z" (1004230800) transition_time 0x3c5-0x3cd (8)
0x3c0|                                       00 00 00|             ...|      [36]: "2002-03-31T01:00:00Z" (1017536400) transition_time 0x3cd-0x3d5 (8)
0x3d0|00 3c a6 5f 90                                 |.<._.           |
0x3d0|               00 00 00 00 3d bb 3a 90         |     ....=.:.   |      [37]: "2002-10-27T01:00:00Z" (1035680400) transition_time 0x3d5-0x3dd (8)
0x3d0|                                       00 00 00|             ...|      [38]: "2003-03-30T01:00:00Z" (1048986000) transition_time 0x3dd-0x3e5 (8)
0x3e0|00 3e 86 41 90                                 |.>.A.           |
0x3e0|               00 00 00 00 3f 9b 1c 90         |     ....?...   |      [39]: "2003-10-26T01:00:00Z" (1067130000) transition_time 0x3e5-0x3ed (8)
0x3e0|                                       00 00 00|             ...|      [40]: "2004-03-28T01:00:00Z" (1080435600) transition_time 0x3ed-0x3f5 (8)
0x3f0|00 40 66 23 90                                 |.@f#.           |
0x3f0|               00 00 00 00 41 84 39 10         |     ....A.9.   |      [41]: "2004-10-31T01:00:00Z" (1099184400) transition_time 0x3f5-0x3fd (8)
0x3f0|                                       00 00 00|             ...|      [42]: "2005-03-27T01:00:00Z" (1111885200) transition_time 0x3fd-0x405 (8)
0x400|00 42 46 05 90                                 |.BF..           |
0x400|               00 00 00 00 43 64 1b 10         |     ....Cd..   |      [43]: "2005-10-30T01:00:00Z" (1130634000) transition_time 0x405-0x40d (8)
0x400|                                       00 00 00|             ...|      [44]: "2006-03-26T01:00:00Z" (1143334800) transition_time 0x40d-0x415 (8)
0x410|00 44 25 e7 90                                 |.D%..           |
0x410|               00 00 00 00 45 43 fd 10         |     ....EC..   |      [45]: "2006-10-29T01:00:00Z" (1162083600) transition_time 0x415-0x41d (8)
0x410|                                       00 00 00|             ...|      [46]: "2007-03-25T01:00:00Z" (1174784400) transition_time 0x41d-0x425 (8)
0x420|00 46 05 c9 90                                 |.F...           |
0x420|               00 00 00 00 47 23 df 10         |     ....G#..   |      [47]: "2007-10-28T01:00:00Z" (1193533200) transition_time 0x425-0x42d (8)
0x420|                                       00 00 00|             ...|      [48]: "2008-03-30T01:00:00Z" (1206838800) transition_time 0x42d-0x435 (8)
0x430|00 47 ee e6 10                                 |.G...           |
0x430|               00 00 00 00 49 03 c1 10         |     ....I...   |      [49]: "2008-10-26T01:00:00Z" (1224982800) transition_time 0x435-0x43d (8)
0x430|                                       00 00 00|             ...|      [50]: "2009-03-29T01:00:00Z" (1238288400) transition_time 0x43d-0x445 (8)
0x440|00 49 ce c8 10                                 |.I...           |
0x440|               00 00 00 00 4a e3 a3 10         |     ....J...   |      [51]: "2009-10-25T01:00:00Z" (1256432400) transition_time 0x445-0x44d (8)
0x440|                                       00 00 00|             ...|      [52]: "2010-03-28T01:00:00Z" (1269738000) transition_time 0x44d-0x455 (8)
0x450|00 4b ae aa 10                                 |.K...           |
0x450|               00 00 00 00 4c cc bf 90         |     ....L...   |      [53]: "2010-10-31T01:00:00Z" (1288486800) transition_time 0x455-0x45d (8)
0x450|                                       00 00 00|             ...|      [54]: "2011-03-27T01:00:00Z" (1301187600) transition_time 0x45d-0x465 (8)
0x460|00 4d 8e 8c 10                                 |.M...           |
0x460|               00 00 00 00 4e ac a1 90         |     ....N...   |      [55]: "2011-10-30T01:00:00Z" (1319936400) transition_time 0x465-0x46d (8)
0x460|                                       00 00 00|             ...|      [56]: "2012-03-25T01:00:00Z" (1332637200) transition_time 0x46d-0x475 (8)
0x470|00 4f 6e 6e 10                                 |.Onn.           |
0x470|               00 00 00 00 50 8c 83 90         |     ....P...   |      [57]: "2012-10-28T01:00:00Z" (1351386000) transition_time 0x475-0x47d (8)
0x470|                                       00 00 00|             ...|      [58]: "2013-03-31T01:00:00Z" (1364691600) transition_time 0x47d-0x485 (8)
0x480|00 51 57 8a 90                                 |.QW..           |
0x480|               00 00 00 00 52 6c 65 90         |     ....Rle.   |      [59]: "2013-10-27T01:00:00Z" (1382835600) transition_time 0x485-0x48d (8)
0x480|                                       00 00 00|             ...|      [60]: "2014-03-30T01:00:00Z" (1396141200) transition_time 0x48d-0x495 (8)
0x490|00 53 37 6c 90                                 |.S7l.           |
0x490|               00 00 00 00 54 4c 47 90         |     ....TLG.   |      [61]: "2014-10-26T01:00:00Z" (1414285200) transition_time 0x495-0x49d (8)
0x490|                                       00 00 00|             ...|      [62]: "2015-03-29T01:00:00Z" (1427590800) transition_time 0x49d-0x4a5 (8)
0x4a0|00 55 17 4e 90                                 |.U.N.           |
0x4a0|               00 00 00 00 56 2c 29 90         |     ....V,).   |      [63]: "2015-10-25T01:00:00Z" (1445734800) transition_time 0x4a5-0x4ad (8)
0x4a0|                                       00 00 00|             ...|      [64]: "2016-03-27T01:00:00Z" (1459040400) transition_time 0x4ad-0x4b5 (8)
0x4b0|00 56 f7 30 90                                 |.V.0.           |
0x4b0|               00 00 00 00 58 15 46 10         |     ....X.F.   |      [65]: "2016-10-30T01:00:00Z" (1477789200) transition_time 0x4b5-0x4bd (8)
0x4b0|                                       00 00 00|             ...|      [66]: "2017-03-26T01:00:00Z" (1490490000) transition_time 0x4bd-0x4c5 (8)
0x4c0|00 58 d7 12 90                                 |.X...           |
0x4c0|               00 00 00 00 59 f5 28 10         |     ....Y.(.   |      [67]: "2017-10-29T01:00:00Z" (1509238800) transition_time 0x4c5-0x4cd (8)
0x4c0|                                       00 00 00|             ...|      [68]: "2018-03-25T01:00:00Z" (1521939600) transition_time 0x4cd-0x4d5 (8)
0x4d0|00 5a b6 f4 90                                 |.Z...           |
0x4d0|               00 00 00 00 5b d5 0a 10         |     ....[...   |      [69]: "2018-10-28T01:00:00Z" (1540688400) transition_time 0x4d5-0x4dd (8)
0x4d0|                                       00 00 00|             ...|      [70]: "2019-03-31T01:00:00Z" (1553994000) transition_time 0x4dd-0x4e5 (8)
0x4e0|00 5c a0 11 10                                 |.\...           |
0x4e0|               00 00 00 00 5d b4 ec 10         |     ....]...   |      [71]: "2019-10-27T01:00:00Z" (1572138000) transition_time 0x4e5-0x4ed (8)
0x4e0|                                       00 00 00|             ...|      [72]: "2020-03-29T01:00:00Z" (1585443600) transition_time 0x4ed-0x4f5 (8)
0x4f0|00 5e 7f f3 10                                 |.^...           |
0x4f0|               00 00 00 00 5f 94 ce 10         |     ...._...   |      [73]: "2020-10-25T01:00:00Z" (1603587600) transition_time 0x4f5-0x4fd (8)
0x4f0|                                       00 00 00|             ...|      [74]: "2021-03-28T01:00:00Z" (1616893200) transition_time 0x4fd-0x505 (8)
0x500|00 60 5f d5 10                                 |.`_..           |
0x500|               00 00 00 00 61 7d ea 90         |     ....a}..   |      [75]: "2021-10-31T01:00:00Z" (1635642000) transition_time 0x505-0x50d (8)
0x500|                                       00 00 00|             ...|      [76]: "2022-03-27T01:00:00Z" (1648342800) transition_time 0x50d-0x515 (8)
0x510|00 62 3f b7 10                                 |.b?..           |
0x510|               00 00 00 00 63 5d cc 90         |     ....c]..   |      [77]: "2022-10-30T01:00:00Z" (1667091600) transition_time 0x515-0x51d (8)
0x510|                                       00 00 00|             ...|      [78]: "2023-03-26T01:00:00Z" (1679792400) transition_time 0x51d-0x525 (8)
0x520|00 64 1f 99 10                                 |.d...           |
0x520|               00 00 00 00 65 3d ae 90         |     ....e=..   |      [79]: "2023-10-29T01:00:00Z" (1698541200) transition_time 0x525-0x52d (8)
0x520|                                       00 00 00|             ...|      [80]: "2024-03-31T01:00:00Z" (1711846800) transition_time 0x52d-0x535 (8)
0x530|00 66 08 b5 90                                 |.f...           |
0x530|               00 00 00 00 67 1d 90 90         |     ....g...   |      [81]: "2024-10-27T01:00:00Z" (1729990800) transition_time 0x535-0x53d (8)
0x530|                                       00 00 00|             ...|      [82]: "2025-03-30T01:00:00Z" (1743296400) transition_time 0x53d-0x545 (8)
0x540|00 67 e8 97 90                                 |.g...           |
0x540|               00 00 00 00 68 fd 72 90         |     ....h.r.   |      [83]: "2025-10-26T01:00:00Z" (1761440400) transition_time 0x545-0x54d (8)
0x540|                                       00 00 00|             ...|      [84]: "2026-03-29T01:00:00Z" (1774746000) transition_time 0x54d-0x555 (8)
0x550|00 69 c8 79 90                                 |.i.y.           |
0x550|               00 00 00 00 6a dd 54 90         |     ....j.T.   |      [85]: "2026-10-25T01:00:00Z" (1792890000) transition_time 0x555-0x55d (8)
0x550|                                       00 00 00|             ...|      [86]: "2027-03-28T01:00:00Z" (1806195600) transition_time 0x55d-0x565 (8)
0x560|00 6b a8 5b 90                                 |.k.[.           |
0x560|               00 00 00 00 6c c6 71 10         |     ....l.q.   |      [87]: "2027-10-31T01:00:00Z" (1824944400) transition_time 0x565-0x56d (8)
0x560|                                       00 00 00|             ...|      [88]: "2028-03-26T01:00:00Z" (1837645200) transition_time 0x56d-0x575 (8)
0x570|00 6d 88 3d 90                                 |.m.=.           |
0x570|               00 00 00 00 6e a6 53 10         |     ....n.S.   |      [89]: "2028-10-29T01:00:00Z" (1856394000) transition_time 0x575-0x57d (8)
0x570|                                       00 00 00|             ...|      [90]: "2029-03-25T01:00:00Z" (1869094800) transition_time 0x57d-0x585 (8)
0x580|00 6f 68 1f 90                                 |.oh..           |
0x580|               00 00 00 00 70 86 35 10         |     ....p.5.   |      [91]: "2029-10-28T01:00:00Z" (1887843600) transition_time 0x585-0x58d (8)
0x580|                                       00 00 00|             ...|      [92]: "2030-03-31T01:00:00Z" (1901149200) transition_time 0x58d-0x595 (8)
0x590|00 71 51 3c 10                                 |.qQ<.           |
0x590|               00 00 00 00 72 66 17 10         |     ....rf..   |      [93]: "2030-10-27T01:00:00Z" (1919293200) transition_time 0x595-0x59d (8)
0x590|                                       00 00 00|             ...|      [94]: "2031-03-30T01:00:00Z" (1932598800) transition_time 0x59d-0x5a5 (8)
0x5a0|00 73 31 1e 10                                 |.s1..           |
0x5a0|               00 00 00 00 74 45 f9 10         |     ....tE..   |      [95]: "2031-10-26T01:00:00Z" (1950742800) transition_time 0x5a5-0x5ad (8)
0x5a0|                                       00 00 00|             ...|      [96]: "2032-03-28T01:00:00Z" (1964048400) transition_time 0x5ad-0x5b5 (8)
0x5b0|00 75 11 00 10                                 |.u...           |
0x5b0|               00 00 00 00 76 2f 15 90         |     ....v/..   |      [97]: "2032-10-31T01:00:00Z" (1982797200) transition_time 0x5b5-0x5bd (8)
0x5b0|                                       00 00 00|             ...|      [98]: "2033-03-27T01:00:00Z" (1995498000) transition_time 0x5bd-0x5c5 (8)
0x5c0|00 76 f0 e2 10                                 |.v...           |
0x5c0|               00 00 00 00 78 0e f7 90         |     ....x...   |      [99]: "2033-10-30T01:00:00Z" (2014246800) transition_time 0x5c5-0x5cd (8)
0x5c0|                                       00 00 00|             ...|      [100]: "2034-03-26T01:00:00Z" (2026947600) transition_time 0x5cd-0x5d5 (8)
0x5d0|00 78 d0 c4 10                                 |.x...           |
0x5d0|               00 00 00 00 79 ee d9 90         |     ....y...   |      [101]: "2034-10-29T01:00:00Z" (2045696400) transition_time 0x5d5-0x5dd (8)
0x5d0|                                       00 00 00|             ...|      [102]: "2035-03-25T01:00:00Z" (2058397200) transition_time 0x5dd-0x5e5 (8)
0x5e0|00 7a b0 a6 10                                 |.z...           |
0x5e0|               00 00 00 00 7b ce bb 90         |     ....{...   |      [103]: "2035-10-28T01:00:00Z" (2077146000) transition_time 0x5e5-0x5ed (8)
0x5e0|                                       00 00 00|             ...|      [104]: "2036-03-30T01:00:00Z" (2090451600) transition_time 0x5ed-0x5f5 (8)
0x5f0|00 7c 99 c2 90                                 |.|...           |
0x5f0|               00 00 00 00 7d ae 9d 90         |     ....}...   |      [105]: "2036-10-26T01:00:00Z" (2108595600) transition_time 0x5f5-0x5fd (8)
0x5f0|                                       00 00 00|             ...|      [106]: "2037-03-29T01:00:00Z" (2121901200) transition_time 0x5fd-0x605 (8)
0x600|00 7e 79 a4 90                                 |.~y..           |
0x600|               00 00 00 00 7f 8e 7f 90         |     ........   |      [107]: "2037-10-25T01:00:00Z" (2140045200) transition_time 0x605-0x60d (8)
     |                                               |                |    transition_types[0:108]: 0x60d-0x679 (108)
0x600|                                       01      |             .  |      [0]: 1 transition_type 0x60d-0x60e (1)
0x600|                                          02   |              . |      [1]: 2 transition_type 0x60e-0x60f (1)
0x600|                                             03|               .|      [2]: 3 transition_type 0x60f-0x610 (1)
0x610|04                                             |.               |      [3]: 4 transition_type 0x610-0x611 (1)
0x610|   03                                          | .              |      [4]: 3 transition_type 0x611-0x612 (1)
0x610|      04                                       |  .             |      [5]: 4 transition_type 0x612-0x613 (1)
0x610|         03                                    |   .            |      [6]: 3 transition_type 0x613-0x614 (1)
0x610|            04                                 |    .           |      [7]: 4 transition_type 0x614-0x615 (1)
0x610|               03                              |     .          |      [8]: 3 transition_type 0x615-0x616 (1)
0x610|                  04                           |      .         |      [9]: 4 transition_type 0x616-0x617 (1)
0x610|                     03                        |       .        |      [10]: 3 transition_type 0x617-0x618 (1)
0x610|                        04                     |        .       |      [11]: 4 transition_type 0x618-0x619 (1)
0x610|                           03                  |         .      |      [12]: 3 transition_type 0x619-0x61a (1)
0x610|                              04               |          .     |      [13]: 4 transition_type 0x61a-0x61b (1)
0x610|                                 03            |           .    |      [14]: 3 transition_type 0x61b-0x61c (1)
0x610|                                    04         |            .   |      [15]: 4 transition_type 0x61c-0x61d (1)
0x610|                                       03      |             .  |      [16]: 3 transition_type 0x61d-0x61e (1)
0x610|                                          04   |              . |      [17]: 4 transition_type 0x61e-0x61f (1)
0x610|                                             03|               .|      [18]: 3 transition_type 0x61f-0x620 (1)
0x620|04                                             |.               |      [19]: 4 transition_type 0x620-0x621 (1)
0x620|   03                                          | .              |      [20]: 3 transition_type 0x621-0x622 (1)
0x620|      04                                       |  .             |      [21]: 4 transition_type 0x622-0x623 (1)
0x620|         03                                    |   .            |      [22]: 3 transition_type 0x623-0x624 (1)
0x620|            04                                 |    .           |      [23]: 4 transition_type 0x624-0x625 (1)
0x620|               03                              |     .          |      [24]: 3 transition_type 0x625-0x626 (1)
0x620|                  04                           |      .         |      [25]: 4 transition_type 0x626-0x627 (1)
0x620|                     03                        |       .        |      [26]: 3 transition_type 0x627-0x628 (1)
0x620|                        04                     |        .       |      [27]: 4 transition_type 0x628-0x629 (1)
0x620|                           03                  |         .      |      [28]: 3 transition_type 0x629-0x62a (1)
0x620|                              04               |          .     |      [29]: 4 transition_type 0x62a-0x62b (1)
0x620|                                 03            |           .    |      [30]: 3 transition_type 0x62b-0x62c (1)
0x620|                                    04         |            .   |      [31]: 4 transition_type 0x62c-0x62d (1)
0x620|                                       03      |             .  |      [32]: 3 transition_type 0x62d-0x62e (1)
0x620|                                          04   |              . |      [33]: 4 transition_type 0x62e-0x62f (1)
0x620|                                             03|               .|      [34]: 3 transition_type 0x62f-0x630 (1)
0x630|04                                             |.               |      [35]: 4 transition_type 0x630-0x631 (1)
0x630|   03                                          | .              |      [36]: 3 transition_type 0x631-0x632 (1)
0x630|      04                                       |  .             |      [37]: 4 transition_type 0x632-0x633 (1)
0x630|         03                                    |   .            |      [38]: 3 transition_type 0x633-0x634 (1)
0x630|            04                                 |    .           |      [39]: 4 transition_type 0x634-0x635 (1)
0x630|               03                              |     .          |      [40]: 3 transition_type 0x635-0x636 (1)
0x630|                  04                           |      .         |      [41]: 4 transition_type 0x636-0x637 (1)
0x630|                     03                        |       .        |      [42]: 3 transition_type 0x637-0x638 (1)
0x630|                        04                     |        .       |      [43]: 4 transition_type 0x638-0x639 (1)
0x630|                           03                  |         .      |      [44]: 3 transition_type 0x639-0x63a (1)
0x630|                              04               |          .     |      [45]: 4 transition_type 0x63a-0x63b (1)
0x630|                                 03            |           .    |      [46]: 3 transition_type 0x63b-0x63c (1)
0x630|                                    04         |            .   |      [47]: 4 transition_type 0x63c-0x63d (1)
0x630|                                       03      |             .  |      [48]: 3 transition_type 0x63d-0x63e (1)
0x630|                                          04   |              . |      [49]: 4 transition_type 0x63e-0x63f (1)
0x630|                                             03|               .|      [50]: 3 transition_type 0x63f-0x640 (1)
0x640|04                                             |.               |      [51]: 4 transition_type 0x640-0x641 (1)
0x640|   03                                          | .              |      [52]: 3 transition_type 0x641-0x642 (1)
0x640|      04                                       |  .             |      [53]: 4 transition_type 0x642-0x643 (1)
0x640|         03                                    |   .            |      [54]: 3 transition_type 0x643-0x644 (1)
0x640|            04                                 |    .           |      [55]: 4 transition_type 0x644-0x645 (1)
0x640|               03                              |     .          |      [56]: 3 transition_type 0x645-0x646 (1)
0x640|                  04                           |      .         |      [57]: 4 transition_type 0x646-0x647 (1)
0x640|                     03                        |       .        |      [58]: 3 transition_type 0x647-0x648 (1)
0x640|                        04                     |        .       |      [59]: 4 transition_type 0x648-0x649 (1)
0x640|                           03                  |         .      |      [60]: 3 transition_type 0x649-0x64a (1)
0x640|                              04               |          .     |      [61]: 4 transition_type 0x64a-0x64b (1)
0x640|                                 03            |           .    |      [62]: 3 transition_type 0x64b-0x64c (1)
0x640|                                    04         |            .   |      [63]: 4 transition_type 0x64c-0x64d (1)
0x640|                                       03      |             .  |      [64]: 3 transition_type 0x64d-0x64e (1)
0x640|                                          04   |              . |      [65]: 4 transition_type 0x64e-0x64f (1)
0x640|                                             03|               .|      [66]: 3 transition_type 0x64f-0x650 (1)
0x650|04                                             |.               |      [67]: 4 transition_type 0x650-0x651 (1)
0x650|   03                                          | .              |      [68]: 3 transition_type 0x651-0x652 (1)
0x650|      04                                       |  .             |      [69]: 4 transition_type 0x652-0x653 (1)
0x650|         03                                    |   .            |      [70]: 3 transition_type 0x653-0x654 (1)
0x650|            04                                 |    .           |      [71]: 4 transition_type 0x654-0x655 (1)
0x650|               03                              |     .          |      [72]: 3 transition_type 0x655-0x656 (1)
0x650|                  04                           |      .         |      [73]: 4 transition_type 0x656-0x657 (1)
0x650|                     03                        |       .        |      [74]: 3 transition_type 0x657-0x658 (1)
0x650|                        04                     |        .       |      [75]: 4 transition_type 0x658-0x659 (1)
0x650|                           03                  |         .      |      [76]: 3 transition_type 0x659-0x65a (1)
0x650|                              04               |          .     |      [77]: 4 transition_type 0x65a-0x65b (1)
0x650|                                 03            |           .    |      [78]: 3 transition_type 0x65b-0x65c (1)
0x650|                                    04         |            .   |      [79]: 4 transition_type 0x65c-0x65d (1)
0x650|                                       03      |             .  |      [80]: 3 transition_type 0x65d-0x65e (1)
0x650|                                          04   |              . |      [81]: 4 transition_type 0x65e-0x65f (1)
0x650|                                             03|               .|      [82]: 3 transition_type 0x65f-0x660 (1)
0x660|04                                             |.               |      [83]: 4 transition_type 0x660-0x661 (1)
0x660|   03                                          | .              |      [84]: 3 transition_type 0x661-0x662 (1)
0x660|      04                                       |  .             |      [85]: 4 transition_type 0x662-0x663 (1)
0x660|         03                                    |   .            |      [86]: 3 transition_type 0x663-0x664 (1)
0x660|            04                                 |    .           |      [87]: 4 transition_type 0x664-0x665 (1)
0x660|               03                              |     .          |      [88]: 3 transition_type 0x665-0x666 (1)
0x660|                  04                           |      .         |      [89]: 4 transition_type 0x666-0x667 (1)
0x660|                     03                        |       .        |      [90]: 3 transition_type 0x667-0x668 (1)
0x660|                        04                     |        .       |      [91]: 4 transition_type 0x668-0x669 (1)
0x660|                           03                  |         .      |      [92]: 3 transition_type 0x669-0x66a (1)
0x660|                              04               |          .     |      [93]: 4 transition_type 0x66a-0x66b (1)
0x660|                                 03            |           .    |      [94]: 3 transition_type 0x66b-0x66c (1)
0x660|                                    04         |            .   |      [95]: 4 transition_type 0x66c-0x66d (1)
0x660|                                       03      |             .  |      [96]: 3 transition_type 0x66d-0x66e (1)
0x660|                                          04   |              . |      [97]: 4 transition_type 0x66e-0x66f (1)
0x660|                                             03|               .|      [98]: 3 transition_type 0x66f-0x670 (1)
0x670|04                                             |.               |      [99]: 4 transition_type 0x670-0x671 (1)
0x670|   03                                          | .              |      [100]: 3 transition_type 0x671-0x672 (1)
0x670|      04                                       |  .             |      [101]: 4 transition_type 0x672-0x673 (1)
0x670|         03                                    |   .            |      [102]: 3 transition_type 0x673-0x674 (1)
0x670|            04                                 |    .           |      [103]: 4 transition_type 0x674-0x675 (1)
0x670|               03                              |     .          |      [104]: 3 transition_type 0x675-0x676 (1)
0x670|                  04                           |      .         |      [105]: 4 transition_type 0x676-0x677 (1)
0x670|                     03                        |       .        |      [106]: 3 transition_type 0x677-0x678 (1)
0x670|                        04                     |        .       |      [107]: 4 transition_type 0x678-0x679 (1)
     |                                               |                |    local_time_type_records[0:5]: 0x679-0x697 (30)
     |                                               |                |      [0]{}: local_time_type 0x679-0x67f (6)
0x670|                           00 00 01 6c         |         ...l   |        utoff: 364 (valid) 0x679-0x67d (4)
0x670|                                       00      |             .  |        dst: 0 (valid) 0x67d-0x67e (1)
0x670|                                          00   |              . |        idx: 0 (valid) 0x67e-0x67f (1)
     |                                               |                |      [1]{}: local_time_type 0x67f-0x685 (6)
0x670|                                             00|               .|        utoff: 0 (valid) 0x67f-0x683 (4)
0x680|00 00 00                                       |...             |
0x680|         00                                    |   .            |        dst: 0 (valid) 0x683-0x684 (1)
0x680|            04                                 |    .           |        idx: 4 (valid) 0x684-0x685 (1)
     |                                               |                |      [2]{}: local_time_type 0x685-0x68b (6)
0x680|               00 00 0e 10                     |     ....       |        utoff: 3600 (valid) 0x685-0x689 (4)
0x680|                           00                  |         .      |        dst: 0 (valid) 0x689-0x68a (1)
0x680|                              08               |          .     |        idx: 8 (valid) 0x68a-0x68b (1)
     |                                               |                |      [3]{}: local_time_type 0x68b-0x691 (6)
0x680|                                 00 00 1c 20   |           ...  |        utoff: 7200 (valid) 0x68b-0x68f (4)
0x680|                                             01|               .|        dst: 1 (valid) 0x68f-0x690 (1)
0x690|0c                                             |.               |        idx: 12 (valid) 0x690-0x691 (1)
     |                                               |                |      [4]{}: local_time_type 0x691-0x697 (6)
0x690|   00 00 0e 10                                 | ....           |        utoff: 3600 (valid) 0x691-0x695 (4)
0x690|               00                              |     .          |        dst: 0 (valid) 0x695-0x696 (1)
0x690|                  08                           |      .         |        idx: 8 (valid) 0x696-0x697 (1)
     |                                               |                |    time_zone_designations[0:4]: 0x697-0x6a8 (17)
0x690|                     4c 4d 54 00               |       LMT.     |      [0]: "LMT" time_zone_designation 0x697-0x69b (4)
0x690|                                 57 45 54 00   |           WET. |      [1]: "WET" time_zone_designation 0x69b-0x69f (4)
0x690|                                             43|               C|      [2]: "CET" time_zone_designation 0x69f-0x6a3 (4)
0x6a0|45 54 00                                       |ET.             |
0x6a0|         43 45 53 54 00                        |   CEST.        |      [3]: "CEST" time_zone_designation 0x6a3-0x6a8 (5)
     |                                               |                |    leap_second_records[0:0]: 0x6a8-0x6a8 (0)
     |                                               |                |    standard_wall_indicators[0:5]: 0x6a8-0x6ad (5)
0x6a0|                        00                     |        .       |      [0]: 0 standard_wall_indicator (valid) 0x6a8-0x6a9 (1)
0x6a0|                           00                  |         .      |      [1]: 0 standard_wall_indicator (valid) 0x6a9-0x6aa (1)
0x6a0|                              00               |          .     |      [2]: 0 standard_wall_indicator (valid) 0x6aa-0x6ab (1)
0x6a0|                                 01            |           .    |      [3]: 1 standard_wall_indicator (valid) 0x6ab-0x6ac (1)
0x6a0|                                    01         |            .   |      [4]: 1 standard_wall_indicator (valid) 0x6ac-0x6ad (1)
     |                                               |                |    ut_local_indicators[0:5]: 0x6ad-0x6b2 (5)
0x6a0|                                       00      |             .  |      [0]: 0 ut_local_indicator (valid) 0x6ad-0x6ae (1)
0x6a0|                                          00   |              . |      [1]: 0 ut_local_indicator (valid) 0x6ae-0x6af (1)
0x6a0|                                             00|               .|      [2]: 0 ut_local_indicator (valid) 0x6af-0x6b0 (1)
0x6b0|01                                             |.               |      [3]: 1 ut_local_indicator (valid) 0x6b0-0x6b1 (1)
0x6b0|   01                                          | .              |      [4]: 1 ut_local_indicator (valid) 0x6b1-0x6b2 (1)
     |                                               |                |  footer{}: 0x6b2-0x6ce (28)
0x6b0|      0a                                       |  .             |    nl1: 10 (valid) 0x6b2-0x6b3 (1)
0x6b0|         43 45 54 2d 31 43 45 53 54 2c 4d 33 2e|   CET-1CEST,M3.|    tz_string: "CET-1CEST,M3.5.0,M10.5.0/3" 0x6b3-0x6cd (26)
0x6c0|35 2e 30 2c 4d 31 30 2e 35 2e 30 2f 33         |5.0,M10.5.0/3   |
0x6c0|                                       0a|     |             .| |    nl2: 10 (valid) 0x6cd-0x6ce (1)
