$ fq -d tzif dv Apia
     |00 01 02 03 04 05 06 07 08 09 0a 0b 0c 0d 0e 0f|0123456789abcdef|.{}: Apia (tzif) 0x0-0x264 (612)
     |                                               |                |  v1header{}: 0x0-0x2c (44)
0x000|54 5a 69 66                                    |TZif            |    magic: 0x545a6966 (valid) 0x0-0x4 (4)
0x000|            32                                 |    2           |    ver: "2" (0x32) (valid) 0x4-0x5 (1)
0x000|               00 00 00 00 00 00 00 00 00 00 00|     ...........|    reserved: raw bits 0x5-0x14 (15)
0x010|00 00 00 00                                    |....            |
0x010|            00 00 00 00                        |    ....        |    isutcnt: 0 0x14-0x18 (4)
0x010|                        00 00 00 00            |        ....    |    isstdcnt: 0 0x18-0x1c (4)
0x010|                                    00 00 00 00|            ....|    leapcnt: 0 0x1c-0x20 (4)
0x020|00 00 00 1b                                    |....            |    timecnt: 27 0x20-0x24 (4)
0x020|            00 00 00 07                        |    ....        |    typecnt: 7 0x24-0x28 (4)
0x020|                        00 00 00 1a            |        ....    |    charcnt: 26 0x28-0x2c (4)
     |                                               |                |  v1datablock{}: 0x2c-0xf7 (203)
     |                                               |                |    transition_times[0:27]: 0x2c-0x98 (108)
0x020|                                    80 00 00 00|            ....|      [0]: "1901-12-13T20:45:52Z" (-2147483648) transition_time 0x2c-0x30 (4)
0x030|91 05 fc 00                                    |....            |      [1]: "1911-01-01T11:26:56Z" (-1861878784) transition_time 0x30-0x34 (4)
0x030|            da 62 04 38                        |    .b.8        |      [2]: "1950-01-01T11:30:00Z" (-631110600) transition_time 0x34-0x38 (4)
0x030|                        4c 9f 27 b0            |        L.'.    |      [3]: "2010-09-26T11:00:00Z" (1285498800) transition_time 0x38-0x3c (4)
0x030|                                    4d 97 2b e0|            M.+.|      [4]: "2011-04-02T14:00:00Z" (1301752800) transition_time 0x3c-0x40 (4)
0x040|4e 7d e2 60                                    |N}.`            |      [5]: "2011-09-24T14:00:00Z" (1316872800) transition_time 0x40-0x44 (4)
0x040|            4e fd 8b a0                        |    N...        |      [6]: "2011-12-30T10:00:00Z" (1325239200) transition_time 0x44-0x48 (4)
0x040|                        4f 77 0d e0            |        Ow..    |      [7]: "2012-03-31T14:00:00Z" (1333202400) transition_time 0x48-0x4c (4)
0x040|                                    50 66 fe e0|            Pf..|      [8]: "2012-09-29T14:00:00Z" (1348927200) transition_time 0x4c-0x50 (4)
0x050|51 60 2a 60                                    |Q`*`            |      [9]: "2013-04-06T14:00:00Z" (1365256800) transition_time 0x50-0x54 (4)
0x050|            52 46 e0 e0                        |    RF..        |      [10]: "2013-09-28T14:00:00Z" (1380376800) transition_time 0x54-0x58 (4)
0x050|                        53 40 0c 60            |        S@.`    |      [11]: "2014-04-05T14:00:00Z" (1396706400) transition_time 0x58-0x5c (4)
0x050|                                    54 26 c2 e0|            T&..|      [12]: "2014-09-27T14:00:00Z" (1411826400) transition_time 0x5c-0x60 (4)
0x060|55 1f ee 60                                    |U..`            |      [13]: "2015-04-04T14:00:00Z" (1428156000) transition_time 0x60-0x64 (4)
0x060|            56 06 a4 e0                        |    V...        |      [14]: "2015-09-26T14:00:00Z" (1443276000) transition_time 0x64-0x68 (4)
0x060|                        56 ff d0 60            |        V..`    |      [15]: "2016-04-02T14:00:00Z" (1459605600) transition_time 0x68-0x6c (4)
0x060|                                    57 e6 86 e0|            W...|      [16]: "2016-09-24T14:00:00Z" (1474725600) transition_time 0x6c-0x70 (4)
0x070|58 df b2 60                                    |X..`            |      [17]: "2017-04-01T14:00:00Z" (1491055200) transition_time 0x70-0x74 (4)
0x070|            59 c6 68 e0                        |    Y.h.        |      [18]: "2017-09-23T14:00:00Z" (1506175200) transition_time 0x74-0x78 (4)
0x070|                        5a bf 94 60            |        Z..`    |      [19]: "2018-03-31T14:00:00Z" (1522504800) transition_time 0x78-0x7c (4)
0x070|                                    5b af 85 60|            [..`|      [20]: "2018-09-29T14:00:00Z" (1538229600) transition_time 0x7c-0x80 (4)
0x080|5c a8 b0 e0                                    |\...            |      [21]: "2019-04-06T14:00:00Z" (1554559200) transition_time 0x80-0x84 (4)
0x080|            5d 8f 67 60                        |    ].g`        |      [22]: "2019-09-28T14:00:00Z" (1569679200) transition_time 0x84-0x88 (4)
0x080|                        5e 88 92 e0            |        ^...    |      [23]: "2020-04-04T14:00:00Z" (1586008800) transition_time 0x88-0x8c (4)
0x080|                                    5f 6f 49 60|            _oI`|      [24]: "2020-09-26T14:00:00Z" (1601128800) transition_time 0x8c-0x90 (4)
0x090|60 68 74 e0                                    |`ht.            |      [25]: "2021-04-03T14:00:00Z" (1617458400) transition_time 0x90-0x94 (4)
0x090|            7f ff ff ff                        |    ....        |      [26]: "2038-01-19T03:14:07Z" (2147483647) transition_time 0x94-0x98 (4)
     |                                               |                |    transition_types[0:27]: 0x98-0xb3 (27)
0x090|                        01                     |        .       |      [0]: 1 transition_type 0x98-0x99 (1)
0x090|                           02                  |         .      |      [1]: 2 transition_type 0x99-0x9a (1)
0x090|                              04               |          .     |      [2]: 4 transition_type 0x9a-0x9b (1)
0x090|                                 03            |           .    |      [3]: 3 transition_type 0x9b-0x9c (1)
0x090|                                    04         |            .   |      [4]: 4 transition_type 0x9c-0x9d (1)
0x090|                                       03      |             .  |      [5]: 3 transition_type 0x9d-0x9e (1)
0x090|                                          06   |              . |      [6]: 6 transition_type 0x9e-0x9f (1)
0x090|                                             05|               .|      [7]: 5 transition_type 0x9f-0xa0 (1)
0x0a0|06                                             |.               |      [8]: 6 transition_type 0xa0-0xa1 (1)
0x0a0|   05                                          | .              |      [9]: 5 transition_type 0xa1-0xa2 (1)
0x0a0|      06                                       |  .             |      [10]: 6 transition_type 0xa2-0xa3 (1)
0x0a0|         05                                    |   .            |      [11]: 5 transition_type 0xa3-0xa4 (1)
0x0a0|            06                                 |    .           |      [12]: 6 transition_type 0xa4-0xa5 (1)
0x0a0|               05                              |     .          |      [13]: 5 transition_type 0xa5-0xa6 (1)
0x0a0|                  06                           |      .         |      [14]: 6 transition_type 0xa6-0xa7 (1)
0x0a0|                     05                        |       .        |      [15]: 5 transition_type 0xa7-0xa8 (1)
0x0a0|                        06                     |        .       |      [16]: 6 transition_type 0xa8-0xa9 (1)
0x0a0|                           05                  |         .      |      [17]: 5 transition_type 0xa9-0xaa (1)
0x0a0|                              06               |          .     |      [18]: 6 transition_type 0xaa-0xab (1)
0x0a0|                                 05            |           .    |      [19]: 5 transition_type 0xab-0xac (1)
0x0a0|                                    06         |            .   |      [20]: 6 transition_type 0xac-0xad (1)
0x0a0|                                       05      |             .  |      [21]: 5 transition_type 0xad-0xae (1)
0x0a0|                                          06   |              . |      [22]: 6 transition_type 0xae-0xaf (1)
0x0a0|                                             05|               .|      [23]: 5 transition_type 0xaf-0xb0 (1)
0x0b0|06                                             |.               |      [24]: 6 transition_type 0xb0-0xb1 (1)
0x0b0|   05                                          | .              |      [25]: 5 transition_type 0xb1-0xb2 (1)
0x0b0|      05                                       |  .             |      [26]: 5 transition_type 0xb2-0xb3 (1)
     |                                               |                |    local_time_type_records[0:7]: 0xb3-0xdd (42)
     |                                               |                |      [0]{}: local_time_type 0xb3-0xb9 (6)
0x0b0|         00 00 b0 80                           |   ....         |        utoff: 45184 (valid) 0xb3-0xb7 (4)
0x0b0|                     00                        |       .        |        dst: 0 (valid) 0xb7-0xb8 (1)
0x0b0|                        00                     |        .       |        idx: 0 (valid) 0xb8-0xb9 (1)
     |                                               |                |      [1]{}: local_time_type 0xb9-0xbf (6)
0x0b0|                           ff ff 5f 00         |         .._.   |        utoff: -41216 (valid) 0xb9-0xbd (4)
0x0b0|                                       00      |             .  |        dst: 0 (valid) 0xbd-0xbe (1)
0x0b0|                                          00   |              . |        idx: 0 (valid) 0xbe-0xbf (1)
     |                                               |                |      [2]{}: local_time_type 0xbf-0xc5 (6)
0x0b0|                                             ff|               .|        utoff: -41400 (valid) 0xbf-0xc3 (4)
0x0c0|ff 5e 48                                       |.^H             |
0x0c0|         00                                    |   .            |        dst: 0 (valid) 0xc3-0xc4 (1)
0x0c0|            04                                 |    .           |        idx: 4 (valid) 0xc4-0xc5 (1)
     |                                               |                |      [3]{}: local_time_type 0xc5-0xcb (6)
0x0c0|               ff ff 73 60                     |     ..s`       |        utoff: -36000 (valid) 0xc5-0xc9 (4)
0x0c0|                           01                  |         .      |        dst: 1 (valid) 0xc9-0xca (1)
0x0c0|                              0a               |          .     |        idx: 10 (valid) 0xca-0xcb (1)
     |                                               |                |      [4]{}: local_time_type 0xcb-0xd1 (6)
0x0c0|                                 ff ff 65 50   |           ..eP |        utoff: -39600 (valid) 0xcb-0xcf (4)
0x0c0|                                             00|               .|        dst: 0 (valid) 0xcf-0xd0 (1)
0x0d0|0e                                             |.               |        idx: 14 (valid) 0xd0-0xd1 (1)
     |                                               |                |      [5]{}: local_time_type 0xd1-0xd7 (6)
0x0d0|   00 00 b6 d0                                 | ....           |        utoff: 46800 (valid) 0xd1-0xd5 (4)
0x0d0|               00                              |     .          |        dst: 0 (valid) 0xd5-0xd6 (1)
0x0d0|                  12                           |      .         |        idx: 18 (valid) 0xd6-0xd7 (1)
     |                                               |                |      [6]{}: local_time_type 0xd7-0xdd (6)
0x0d0|                     00 00 c4 e0               |       ....     |        utoff: 50400 (valid) 0xd7-0xdb (4)
0x0d0|                                 01            |           .    |        dst: 1 (valid) 0xdb-0xdc (1)
0x0d0|                                    16         |            .   |        idx: 22 (valid) 0xdc-0xdd (1)
     |                                               |                |    time_zone_designations[0:6]: 0xdd-0xf7 (26)
0x0d0|                                       4c 4d 54|             LMT|      [0]: "LMT" time_zone_designation 0xdd-0xe1 (4)
0x0e0|00                                             |.               |
0x0e0|   2d 31 31 33 30 00                           | -1130.         |      [1]: "-1130" time_zone_designation 0xe1-0xe7 (6)
0x0e0|                     2d 31 30 00               |       -10.     |      [2]: "-10" time_zone_designation 0xe7-0xeb (4)
0x0e0|                                 2d 31 31 00   |           -11. |      [3]: "-11" time_zone_designation 0xeb-0xef (4)
0x0e0|                                             2b|               +|      [4]: "+13" time_zone_designation 0xef-0xf3 (4)
0x0f0|31 33 00                                       |13.             |
0x0f0|         2b 31 34 00                           |   +14.         |      [5]: "+14" time_zone_designation 0xf3-0xf7 (4)
     |                                               |                |    leap_second_records[0:0]: 0xf7-0xf7 (0)
     |                                               |                |    standard_wall_indicators[0:0]: 0xf7-0xf7 (0)
     |                                               |                |    ut_local_indicators[0:0]: 0xf7-0xf7 (0)
     |                                               |                |  v2plusheader{}: 0xf7-0x123 (44)
0x0f0|                     54 5a 69 66               |       TZif     |    magic: 0x545a6966 (valid) 0xf7-0xfb (4)
0x0f0|                                 32            |           2    |    ver: "2" (0x32) (valid) 0xfb-0xfc (1)
0x0f0|                                    00 00 00 00|            ....|    reserved: raw bits 0xfc-0x10b (15)
0x100|00 00 00 00 00 00 00 00 00 00 00               |...........     |
0x100|                                 00 00 00 00   |           .... |    isutcnt: 0 0x10b-0x10f (4)
0x100|                                             00|               .|    isstdcnt: 0 0x10f-0x113 (4)
0x110|00 00 00                                       |...             |
0x110|         00 00 00 00                           |   ....         |    leapcnt: 0 0x113-0x117 (4)
0x110|                     00 00 00 1b               |       ....     |    timecnt: 27 0x117-0x11b (4)
0x110|                                 00 00 00 07   |           .... |    typecnt: 7 0x11b-0x11f (4)
0x110|                                             00|               .|    charcnt: 26 0x11f-0x123 (4)
0x120|00 00 1a                                       |...             |
     |                                               |                |  v2plusdatablock{}: 0x123-0x25a (311)
     |                                               |                |    transition_times[0:27]: 0x123-0x1fb (216)
0x120|         ff ff ff ff 6e 3d c9 00               |   ....n=..     |      [0]: "1892-07-04T11:26:56Z" (-2445424384) transition_time 0x123-0x12b (8)
0x120|                                 ff ff ff ff 91|           .....|      [1]: "1911-01-01T11:26:56Z" (-1861878784) transition_time 0x12b-0x133 (8)
0x130|05 fc 00                                       |...             |
0x130|         ff ff ff ff da 62 04 38               |   .....b.8     |      [2]: "1950-01-01T11:30:00Z" (-631110600) transition_time 0x133-0x13b (8)
0x130|                                 00 00 00 00 4c|           ....L|      [3]: "2010-09-26T11:00:00Z" (1285498800) transition_time 0x13b-0x143 (8)
0x140|9f 27 b0                                       |.'.             |
0x140|         00 00 00 00 4d 97 2b e0               |   ....M.+.     |      [4]: "2011-04-02T14:00:00Z" (1301752800) transition_time 0x143-0x14b (8)
0x140|                                 00 00 00 00 4e|           ....N|      [5]: "2011-09-24T14:00:00Z" (1316872800) transition_time 0x14b-0x153 (8)
0x150|7d e2 60                                       |}.`             |
0x150|         00 00 00 00 4e fd 8b a0               |   ....N...     |      [6]: "2011-12-30T10:00:00Z" (1325239200) transition_time 0x153-0x15b (8)
0x150|                                 00 00 00 00 4f|           ....O|      [7]: "2012-03-31T14:00:00Z" (1333202400) transition_time 0x15b-0x163 (8)
0x160|77 0d e0                                       |w..             |
0x160|         00 00 00 00 50 66 fe e0               |   ....Pf..     |      [8]: "2012-09-29T14:00:00Z" (1348927200) transition_time 0x163-0x16b (8)
0x160|                                 00 00 00 00 51|           ....Q|      [9]: "2013-04-06T14:00:00Z" (1365256800) transition_time 0x16b-0x173 (8)
0x170|60 2a 60                                       |`*`             |
0x170|         00 00 00 00 52 46 e0 e0               |   ....RF..     |      [10]: "2013-09-28T14:00:00Z" (1380376800) transition_time 0x173-0x17b (8)
0x170|                                 00 00 00 00 53|           ....S|      [11]: "2014-04-05T14:00:00Z" (1396706400) transition_time 0x17b-0x183 (8)
0x180|40 0c 60                                       |@.`             |
0x180|         00 00 00 00 54 26 c2 e0               |   ....T&..     |      [12]: "2014-09-27T14:00:00Z" (1411826400) transition_time 0x183-0x18b (8)
0x180|                                 00 00 00 00 55|           ....U|      [13]: "2015-04-04T14:00:00Z" (1428156000) transition_time 0x18b-0x193 (8)
0x190|1f ee 60                                       |..`             |
0x190|         00 00 00 00 56 06 a4 e0               |   ....V...     |      [14]: "2015-09-26T14:00:00Z" (1443276000) transition_time 0x193-0x19b (8)
0x190|                                 00 00 00 00 56|           ....V|      [15]: "2016-04-02T14:00:00Z" (1459605600) transition_time 0x19b-0x1a3 (8)
0x1a0|ff d0 60                                       |..`             |
0x1a0|         00 00 00 00 57 e6 86 e0               |   ....W...     |      [16]: "2016-09-24T14:00:00Z" (1474725600) transition_time 0x1a3-0x1ab (8)
0x1a0|                                 00 00 00 00 58|           ....X|      [17]: "2017-04-01T14:00:00Z" (1491055200) transition_time 0x1ab-0x1b3 (8)
0x1b0|df b2 60                                       |..`             |
0x1b0|         00 00 00 00 59 c6 68 e0               |   ....Y.h.     |      [18]: "2017-09-23T14:00:00Z" (1506175200) transition_time 0x1b3-0x1bb (8)
0x1b0|                                 00 00 00 00 5a|           ....Z|      [19]: "2018-03-31T14:00:00Z" (1522504800) transition_time 0x1bb-0x1c3 (8)
0x1c0|bf 94 60                                       |..`             |
0x1c0|         00 00 00 00 5b af 85 60               |   ....[..`     |      [20]: "2018-09-29T14:00:00Z" (1538229600) transition_time 0x1c3-0x1cb (8)
0x1c0|                                 00 00 00 00 5c|           ....\|      [21]: "2019-04-06T14:00:00Z" (1554559200) transition_time 0x1cb-0x1d3 (8)
0x1d0|a8 b0 e0                                       |...             |
0x1d0|         00 00 00 00 5d 8f 67 60               |   ....].g`     |      [22]: "2019-09-28T14:00:00Z" (1569679200) transition_time 0x1d3-0x1db (8)
0x1d0|                                 00 00 00 00 5e|           ....^|      [23]: "2020-04-04T14:00:00Z" (1586008800) transition_time 0x1db-0x1e3 (8)
0x1e0|88 92 e0                                       |...             |
0x1e0|         00 00 00 00 5f 6f 49 60               |   ...._oI`     |      [24]: "2020-09-26T14:00:00Z" (1601128800) transition_time 0x1e3-0x1eb (8)
0x1e0|                                 00 00 00 00 60|           ....`|      [25]: "2021-04-03T14:00:00Z" (1617458400) transition_time 0x1eb-0x1f3 (8)
0x1f0|68 74 e0                                       |ht.             |
0x1f0|         00 00 00 00 7f ff ff ff               |   ........     |      [26]: "2038-01-19T03:14:07Z" (2147483647) transition_time 0x1f3-0x1fb (8)
     |                                               |                |    transition_types[0:27]: 0x1fb-0x216 (27)
0x1f0|                                 01            |           .    |      [0]: 1 transition_type 0x1fb-0x1fc (1)
0x1f0|                                    02         |            .   |      [1]: 2 transition_type 0x1fc-0x1fd (1)
0x1f0|                                       04      |             .  |      [2]: 4 transition_type 0x1fd-0x1fe (1)
0x1f0|                                          03   |              . |      [3]: 3 transition_type 0x1fe-0x1ff (1)
0x1f0|                                             04|               .|      [4]: 4 transition_type 0x1ff-0x200 (1)
0x200|03                                             |.               |      [5]: 3 transition_type 0x200-0x201 (1)
0x200|   06                                          | .              |      [6]: 6 transition_type 0x201-0x202 (1)
0x200|      05                                       |  .             |      [7]: 5 transition_type 0x202-0x203 (1)
0x200|         06                                    |   .            |      [8]: 6 transition_type 0x203-0x204 (1)
0x200|            05                                 |    .           |      [9]: 5 transition_type 0x204-0x205 (1)
0x200|               06                              |     .          |      [10]: 6 transition_type 0x205-0x206 (1)
0x200|                  05                           |      .         |      [11]: 5 transition_type 0x206-0x207 (1)
0x200|                     06                        |       .        |      [12]: 6 transition_type 0x207-0x208 (1)
0x200|                        05                     |        .       |      [13]: 5 transition_type 0x208-0x209 (1)
0x200|                           06                  |         .      |      [14]: 6 transition_type 0x209-0x20a (1)
0x200|                              05               |          .     |      [15]: 5 transition_type 0x20a-0x20b (1)
0x200|                                 06            |           .    |      [16]: 6 transition_type 0x20b-0x20c (1)
0x200|                                    05         |            .   |      [17]: 5 transition_type 0x20c-0x20d (1)
0x200|                                       06      |             .  |      [18]: 6 transition_type 0x20d-0x20e (1)
0x200|                                          05   |              . |      [19]: 5 transition_type 0x20e-0x20f (1)
0x200|                                             06|               .|      [20]: 6 transition_type 0x20f-0x210 (1)
0x210|05                                             |.               |      [21]: 5 transition_type 0x210-0x211 (1)
0x210|   06                                          | .              |      [22]: 6 transition_type 0x211-0x212 (1)
0x210|      05                                       |  .             |      [23]: 5 transition_type 0x212-0x213 (1)
0x210|         06                                    |   .            |      [24]: 6 transition_type 0x213-0x214 (1)
0x210|            05                                 |    .           |      [25]: 5 transition_type 0x214-0x215 (1)
0x210|               05                              |     .          |      [26]: 5 transition_type 0x215-0x216 (1)
     |                                               |                |    local_time_type_records[0:7]: 0x216-0x240 (42)
     |                                               |                |      [0]{}: local_time_type 0x216-0x21c (6)
0x210|                  00 00 b0 80                  |      ....      |        utoff: 45184 (valid) 0x216-0x21a (4)
0x210|                              00               |          .     |        dst: 0 (valid) 0x21a-0x21b (1)
0x210|                                 00            |           .    |        idx: 0 (valid) 0x21b-0x21c (1)
     |                                               |                |      [1]{}: local_time_type 0x21c-0x222 (6)
0x210|                                    ff ff 5f 00|            .._.|        utoff: -41216 (valid) 0x21c-0x220 (4)
0x220|00                                             |.               |        dst: 0 (valid) 0x220-0x221 (1)
0x220|   00                                          | .              |        idx: 0 (valid) 0x221-0x222 (1)
     |                                               |                |      [2]{}: local_time_type 0x222-0x228 (6)
0x220|      ff ff 5e 48                              |  ..^H          |        utoff: -41400 (valid) 0x222-0x226 (4)
0x220|                  00                           |      .         |        dst: 0 (valid) 0x226-0x227 (1)
0x220|                     04                        |       .        |        idx: 4 (valid) 0x227-0x228 (1)
     |                                               |                |      [3]{}: local_time_type 0x228-0x22e (6)
0x220|                        ff ff 73 60            |        ..s`    |        utoff: -36000 (valid) 0x228-0x22c (4)
0x220|                                    01         |            .   |        dst: 1 (valid) 0x22c-0x22d (1)
0x220|                                       0a      |             .  |        idx: 10 (valid) 0x22d-0x22e (1)
     |                                               |                |      [4]{}: local_time_type 0x22e-0x234 (6)
0x220|                                          ff ff|              ..|        utoff: -39600 (valid) 0x22e-0x232 (4)
0x230|65 50                                          |eP              |
0x230|      00                                       |  .             |        dst: 0 (valid) 0x232-0x233 (1)
0x230|         0e                                    |   .            |        idx: 14 (valid) 0x233-0x234 (1)
     |                                               |                |      [5]{}: local_time_type 0x234-0x23a (6)
0x230|            00 00 b6 d0                        |    ....        |        utoff: 46800 (valid) 0x234-0x238 (4)
0x230|                        00                     |        .       |        dst: 0 (valid) 0x238-0x239 (1)
0x230|                           12                  |         .      |        idx: 18 (valid) 0x239-0x23a (1)
     |                                               |                |      [6]{}: local_time_type 0x23a-0x240 (6)
0x230|                              00 00 c4 e0      |          ....  |        utoff: 50400 (valid) 0x23a-0x23e (4)
0x230|                                          01   |              . |        dst: 1 (valid) 0x23e-0x23f (1)
0x230|                                             16|               .|        idx: 22 (valid) 0x23f-0x240 (1)
     |                                               |                |    time_zone_designations[0:6]: 0x240-0x25a (26)
0x240|4c 4d 54 00                                    |LMT.            |      [0]: "LMT" time_zone_designation 0x240-0x244 (4)
0x240|            2d 31 31 33 30 00                  |    -1130.      |      [1]: "-1130" time_zone_designation 0x244-0x24a (6)
0x240|                              2d 31 30 00      |          -10.  |      [2]: "-10" time_zone_designation 0x24a-0x24e (4)
0x240|                                          2d 31|              -1|      [3]: "-11" time_zone_designation 0x24e-0x252 (4)
0x250|31 00                                          |1.              |
0x250|      2b 31 33 00                              |  +13.          |      [4]: "+13" time_zone_designation 0x252-0x256 (4)
0x250|                  2b 31 34 00                  |      +14.      |      [5]: "+14" time_zone_designation 0x256-0x25a (4)
     |                                               |                |    leap_second_records[0:0]: 0x25a-0x25a (0)
     |                                               |                |    standard_wall_indicators[0:0]: 0x25a-0x25a (0)
     |                                               |                |    ut_local_indicators[0:0]: 0x25a-0x25a (0)
     |                                               |                |  footer{}: 0x25a-0x264 (10)
0x250|                              0a               |          .     |    nl1: 10 (valid) 0x25a-0x25b (1)
0x250|                                 3c 2b 31 33 3e|           <+13>|    tz_string: "<+13>-13" 0x25b-0x263 (8)
0x260|2d 31 33                                       |-13             |
0x260|         0a|                                   |   .|           |    nl2: 10 (valid) 0x263-0x264 (1)
