$ fq -d tzif dv Aqtobe
     |00 01 02 03 04 05 06 07 08 09 0a 0b 0c 0d 0e 0f|0123456789abcdef|.{}: Aqtobe (tzif) 0x0-0x607.7 (1544)
     |                                               |                |  v1header{}: 0x0-0x2b.7 (44)
0x000|54 5a 69 66                                    |TZif            |    magic: 0x545a6966 (valid) 0x0-0x3.7 (4)
0x000|            32                                 |    2           |    ver: "2" (0x32) (valid) 0x4-0x4.7 (1)
0x000|               00 00 00 00 00 00 00 00 00 00 00|     ...........|    reserved: raw bits 0x5-0x13.7 (15)
0x010|00 00 00 00                                    |....            |
0x010|            00 00 00 00                        |    ....        |    isutcnt: 0 0x14-0x17.7 (4)
0x010|                        00 00 00 0b            |        ....    |    isstdcnt: 11 0x18-0x1b.7 (4)
0x010|                                    00 00 00 1b|            ....|    leapcnt: 27 0x1c-0x1f.7 (4)
0x020|00 00 00 34                                    |...4            |    timecnt: 52 0x20-0x23.7 (4)
0x020|            00 00 00 0b                        |    ....        |    typecnt: 11 0x24-0x27.7 (4)
0x020|                        00 00 00 10            |        ....    |    charcnt: 16 0x28-0x2b.7 (4)
     |                                               |                |  v1datablock{}: 0x2c-0x264.7 (569)
     |                                               |                |    transition_times[0:52]: 0x2c-0xfb.7 (208)
0x020|                                    aa 19 8e 68|            ...h|      [0]: "1924-05-01T20:11:20Z" (-1441165720) transition_time 0x2c-0x2f.7 (4)
0x030|b5 a3 fd 40                                    |...@            |      [1]: "1930-06-20T20:00:00Z" (-1247544000) transition_time 0x30-0x33.7 (4)
0x030|            15 27 8b b9                        |    .'..        |      [2]: "1981-03-31T19:00:09Z" (354913209) transition_time 0x34-0x37.7 (4)
0x030|                        16 18 c0 2a            |        ...*    |      [3]: "1981-09-30T18:00:10Z" (370720810) transition_time 0x38-0x3b.7 (4)
0x030|                                    17 08 b1 2a|            ...*|      [4]: "1982-03-31T18:00:10Z" (386445610) transition_time 0x3c-0x3f.7 (4)
0x040|17 f9 f3 ab                                    |....            |      [5]: "1982-09-30T18:00:11Z" (402256811) transition_time 0x40-0x43.7 (4)
0x040|            18 e9 f2 bb                        |    ....        |      [6]: "1983-03-31T19:00:11Z" (417985211) transition_time 0x44-0x47.7 (4)
0x040|                        19 db 27 2c            |        ..',    |      [7]: "1983-09-30T18:00:12Z" (433792812) transition_time 0x48-0x4b.7 (4)
0x040|                                    1a cc 77 bc|            ..w.|      [8]: "1984-03-31T19:00:12Z" (449607612) transition_time 0x4c-0x4f.7 (4)
0x050|1b bc 84 dc                                    |....            |      [9]: "1984-09-29T21:00:12Z" (465339612) transition_time 0x50-0x53.7 (4)
0x050|            1c ac 75 dc                        |    ..u.        |      [10]: "1985-03-30T21:00:12Z" (481064412) transition_time 0x54-0x57.7 (4)
0x050|                        1d 9c 66 dd            |        ..f.    |      [11]: "1985-09-28T21:00:13Z" (496789213) transition_time 0x58-0x5b.7 (4)
0x050|                                    1e 8c 57 dd|            ..W.|      [12]: "1986-03-29T21:00:13Z" (512514013) transition_time 0x5c-0x5f.7 (4)
0x060|1f 7c 48 dd                                    |.|H.            |      [13]: "1986-09-27T21:00:13Z" (528238813) transition_time 0x60-0x63.7 (4)
0x060|            20 6c 39 dd                        |     l9.        |      [14]: "1987-03-28T21:00:13Z" (543963613) transition_time 0x64-0x67.7 (4)
0x060|                        21 5c 2a dd            |        !\*.    |      [15]: "1987-09-26T21:00:13Z" (559688413) transition_time 0x68-0x6b.7 (4)
0x060|                                    22 4c 1b de|            "L..|      [16]: "1988-03-26T21:00:14Z" (575413214) transition_time 0x6c-0x6f.7 (4)
0x070|23 3c 0c de                                    |#<..            |      [17]: "1988-09-24T21:00:14Z" (591138014) transition_time 0x70-0x73.7 (4)
0x070|            24 2b fd de                        |    $+..        |      [18]: "1989-03-25T21:00:14Z" (606862814) transition_time 0x74-0x77.7 (4)
0x070|                        25 1b ee de            |        %...    |      [19]: "1989-09-23T21:00:14Z" (622587614) transition_time 0x78-0x7b.7 (4)
0x070|                                    26 0b df df|            &...|      [20]: "1990-03-24T21:00:15Z" (638312415) transition_time 0x7c-0x7f.7 (4)
0x080|27 05 0b 5f                                    |'.._            |      [21]: "1990-09-29T21:00:15Z" (654642015) transition_time 0x80-0x83.7 (4)
0x080|            27 f4 fc 60                        |    '..`        |      [22]: "1991-03-30T21:00:16Z" (670366816) transition_time 0x84-0x87.7 (4)
0x080|                        28 e4 fb 70            |        (..p    |      [23]: "1991-09-28T22:00:16Z" (686095216) transition_time 0x88-0x8b.7 (4)
0x080|                                    29 78 a3 70|            )x.p|      [24]: "1992-01-18T22:00:16Z" (695772016) transition_time 0x8c-0x8f.7 (4)
0x090|29 d4 de 60                                    |)..`            |      [25]: "1992-03-28T21:00:16Z" (701816416) transition_time 0x90-0x93.7 (4)
0x090|            2a c4 cf 61                        |    *..a        |      [26]: "1992-09-26T21:00:17Z" (717541217) transition_time 0x94-0x97.7 (4)
0x090|                        2b b4 c0 61            |        +..a    |      [27]: "1993-03-27T21:00:17Z" (733266017) transition_time 0x98-0x9b.7 (4)
0x090|                                    2c a4 b1 62|            ,..b|      [28]: "1993-09-25T21:00:18Z" (748990818) transition_time 0x9c-0x9f.7 (4)
0x0a0|2d 94 a2 62                                    |-..b            |      [29]: "1994-03-26T21:00:18Z" (764715618) transition_time 0xa0-0xa3.7 (4)
0x0a0|            2e 84 93 63                        |    ...c        |      [30]: "1994-09-24T21:00:19Z" (780440419) transition_time 0xa4-0xa7.7 (4)
0x0a0|                        2f 74 84 63            |        /t.c    |      [31]: "1995-03-25T21:00:19Z" (796165219) transition_time 0xa8-0xab.7 (4)
0x0a0|                                    30 64 75 63|            0duc|      [32]: "1995-09-23T21:00:19Z" (811890019) transition_time 0xac-0xaf.7 (4)
0x0b0|31 5d a0 e4                                    |1]..            |      [33]: "1996-03-30T21:00:20Z" (828219620) transition_time 0xb0-0xb3.7 (4)
0x0b0|            32 72 7b e4                        |    2r{.        |      [34]: "1996-10-26T21:00:20Z" (846363620) transition_time 0xb4-0xb7.7 (4)
0x0b0|                        33 3d 82 e4            |        3=..    |      [35]: "1997-03-29T21:00:20Z" (859669220) transition_time 0xb8-0xbb.7 (4)
0x0b0|                                    34 52 5d e5|            4R].|      [36]: "1997-10-25T21:00:21Z" (877813221) transition_time 0xbc-0xbf.7 (4)
0x0c0|35 1d 64 e5                                    |5.d.            |      [37]: "1998-03-28T21:00:21Z" (891118821) transition_time 0xc0-0xc3.7 (4)
0x0c0|            36 32 3f e5                        |    62?.        |      [38]: "1998-10-24T21:00:21Z" (909262821) transition_time 0xc4-0xc7.7 (4)
0x0c0|                        36 fd 46 e6            |        6.F.    |      [39]: "1999-03-27T21:00:22Z" (922568422) transition_time 0xc8-0xcb.7 (4)
0x0c0|                                    38 1b 5c 66|            8.\f|      [40]: "1999-10-30T21:00:22Z" (941317222) transition_time 0xcc-0xcf.7 (4)
0x0d0|38 dd 28 e6                                    |8.(.            |      [41]: "2000-03-25T21:00:22Z" (954018022) transition_time 0xd0-0xd3.7 (4)
0x0d0|            39 fb 3e 66                        |    9.>f        |      [42]: "2000-10-28T21:00:22Z" (972766822) transition_time 0xd4-0xd7.7 (4)
0x0d0|                        3a bd 0a e6            |        :...    |      [43]: "2001-03-24T21:00:22Z" (985467622) transition_time 0xd8-0xdb.7 (4)
0x0d0|                                    3b db 20 66|            ;. f|      [44]: "2001-10-27T21:00:22Z" (1004216422) transition_time 0xdc-0xdf.7 (4)
0x0e0|3c a6 27 66                                    |<.'f            |      [45]: "2002-03-30T21:00:22Z" (1017522022) transition_time 0xe0-0xe3.7 (4)
0x0e0|            3d bb 02 66                        |    =..f        |      [46]: "2002-10-26T21:00:22Z" (1035666022) transition_time 0xe4-0xe7.7 (4)
0x0e0|                        3e 86 09 66            |        >..f    |      [47]: "2003-03-29T21:00:22Z" (1048971622) transition_time 0xe8-0xeb.7 (4)
0x0e0|                                    3f 9a e4 66|            ?..f|      [48]: "2003-10-25T21:00:22Z" (1067115622) transition_time 0xec-0xef.7 (4)
0x0f0|40 65 eb 66                                    |@e.f            |      [49]: "2004-03-27T21:00:22Z" (1080421222) transition_time 0xf0-0xf3.7 (4)
0x0f0|            41 84 00 e6                        |    A...        |      [50]: "2004-10-30T21:00:22Z" (1099170022) transition_time 0xf4-0xf7.7 (4)
0x0f0|                        64 9b 78 1b            |        d.x.    |      [51]: "2023-06-28T00:00:27Z" (1687910427) transition_time 0xf8-0xfb.7 (4)
     |                                               |                |    transition_types[0:52]: 0xfc-0x12f.7 (52)
0x0f0|                                    01         |            .   |      [0]: 1 transition_type 0xfc-0xfc.7 (1)
0x0f0|                                       02      |             .  |      [1]: 2 transition_type 0xfd-0xfd.7 (1)
0x0f0|                                          03   |              . |      [2]: 3 transition_type 0xfe-0xfe.7 (1)
0x0f0|                                             04|               .|      [3]: 4 transition_type 0xff-0xff.7 (1)
0x100|03                                             |.               |      [4]: 3 transition_type 0x100-0x100.7 (1)
0x100|   02                                          | .              |      [5]: 2 transition_type 0x101-0x101.7 (1)
0x100|      03                                       |  .             |      [6]: 3 transition_type 0x102-0x102.7 (1)
0x100|         02                                    |   .            |      [7]: 2 transition_type 0x103-0x103.7 (1)
0x100|            03                                 |    .           |      [8]: 3 transition_type 0x104-0x104.7 (1)
0x100|               05                              |     .          |      [9]: 5 transition_type 0x105-0x105.7 (1)
0x100|                  06                           |      .         |      [10]: 6 transition_type 0x106-0x106.7 (1)
0x100|                     05                        |       .        |      [11]: 5 transition_type 0x107-0x107.7 (1)
0x100|                        06                     |        .       |      [12]: 6 transition_type 0x108-0x108.7 (1)
0x100|                           05                  |         .      |      [13]: 5 transition_type 0x109-0x109.7 (1)
0x100|                              06               |          .     |      [14]: 6 transition_type 0x10a-0x10a.7 (1)
0x100|                                 05            |           .    |      [15]: 5 transition_type 0x10b-0x10b.7 (1)
0x100|                                    06         |            .   |      [16]: 6 transition_type 0x10c-0x10c.7 (1)
0x100|                                       05      |             .  |      [17]: 5 transition_type 0x10d-0x10d.7 (1)
0x100|                                          06   |              . |      [18]: 6 transition_type 0x10e-0x10e.7 (1)
0x100|                                             05|               .|      [19]: 5 transition_type 0x10f-0x10f.7 (1)
0x110|06                                             |.               |      [20]: 6 transition_type 0x110-0x110.7 (1)
0x110|   05                                          | .              |      [21]: 5 transition_type 0x111-0x111.7 (1)
0x110|      07                                       |  .             |      [22]: 7 transition_type 0x112-0x112.7 (1)
0x110|         08                                    |   .            |      [23]: 8 transition_type 0x113-0x113.7 (1)
0x110|            05                                 |    .           |      [24]: 5 transition_type 0x114-0x114.7 (1)
0x110|               06                              |     .          |      [25]: 6 transition_type 0x115-0x115.7 (1)
0x110|                  05                           |      .         |      [26]: 5 transition_type 0x116-0x116.7 (1)
0x110|                     06                        |       .        |      [27]: 6 transition_type 0x117-0x117.7 (1)
0x110|                        05                     |        .       |      [28]: 5 transition_type 0x118-0x118.7 (1)
0x110|                           06                  |         .      |      [29]: 6 transition_type 0x119-0x119.7 (1)
0x110|                              05               |          .     |      [30]: 5 transition_type 0x11a-0x11a.7 (1)
0x110|                                 06            |           .    |      [31]: 6 transition_type 0x11b-0x11b.7 (1)
0x110|                                    05         |            .   |      [32]: 5 transition_type 0x11c-0x11c.7 (1)
0x110|                                       06      |             .  |      [33]: 6 transition_type 0x11d-0x11d.7 (1)
0x110|                                          05   |              . |      [34]: 5 transition_type 0x11e-0x11e.7 (1)
0x110|                                             06|               .|      [35]: 6 transition_type 0x11f-0x11f.7 (1)
0x120|05                                             |.               |      [36]: 5 transition_type 0x120-0x120.7 (1)
0x120|   06                                          | .              |      [37]: 6 transition_type 0x121-0x121.7 (1)
0x120|      05                                       |  .             |      [38]: 5 transition_type 0x122-0x122.7 (1)
0x120|         06                                    |   .            |      [39]: 6 transition_type 0x123-0x123.7 (1)
0x120|            05                                 |    .           |      [40]: 5 transition_type 0x124-0x124.7 (1)
0x120|               06                              |     .          |      [41]: 6 transition_type 0x125-0x125.7 (1)
0x120|                  05                           |      .         |      [42]: 5 transition_type 0x126-0x126.7 (1)
0x120|                     06                        |       .        |      [43]: 6 transition_type 0x127-0x127.7 (1)
0x120|                        05                     |        .       |      [44]: 5 transition_type 0x128-0x128.7 (1)
0x120|                           06                  |         .      |      [45]: 6 transition_type 0x129-0x129.7 (1)
0x120|                              05               |          .     |      [46]: 5 transition_type 0x12a-0x12a.7 (1)
0x120|                                 06            |           .    |      [47]: 6 transition_type 0x12b-0x12b.7 (1)
0x120|                                    05         |            .   |      [48]: 5 transition_type 0x12c-0x12c.7 (1)
0x120|                                       06      |             .  |      [49]: 6 transition_type 0x12d-0x12d.7 (1)
0x120|                                          05   |              . |      [50]: 5 transition_type 0x12e-0x12e.7 (1)
0x120|                                             05|               .|      [51]: 5 transition_type 0x12f-0x12f.7 (1)
     |                                               |                |    local_time_type_records[0:11]: 0x130-0x171.7 (66)
     |                                               |                |      [0]{}: local_time_type 0x130-0x135.7 (6)
0x130|00 00 35 98                                    |..5.            |        utoff: 13720 (valid) 0x130-0x133.7 (4)
0x130|            00                                 |    .           |        dst: 0 (valid) 0x134-0x134.7 (1)
0x130|               00                              |     .          |        idx: 0 (valid) 0x135-0x135.7 (1)
     |                                               |                |      [1]{}: local_time_type 0x136-0x13b.7 (6)
0x130|                  00 00 38 40                  |      ..8@      |        utoff: 14400 (valid) 0x136-0x139.7 (4)
0x130|                              00               |          .     |        dst: 0 (valid) 0x13a-0x13a.7 (1)
0x130|                                 04            |           .    |        idx: 4 (valid) 0x13b-0x13b.7 (1)
     |                                               |                |      [2]{}: local_time_type 0x13c-0x141.7 (6)
0x130|                                    00 00 46 50|            ..FP|        utoff: 18000 (valid) 0x13c-0x13f.7 (4)
0x140|00                                             |.               |        dst: 0 (valid) 0x140-0x140.7 (1)
0x140|   08                                          | .              |        idx: 8 (valid) 0x141-0x141.7 (1)
     |                                               |                |      [3]{}: local_time_type 0x142-0x147.7 (6)
0x140|      00 00 54 60                              |  ..T`          |        utoff: 21600 (valid) 0x142-0x145.7 (4)
0x140|                  01                           |      .         |        dst: 1 (valid) 0x146-0x146.7 (1)
0x140|                     0c                        |       .        |        idx: 12 (valid) 0x147-0x147.7 (1)
     |                                               |                |      [4]{}: local_time_type 0x148-0x14d.7 (6)
0x140|                        00 00 54 60            |        ..T`    |        utoff: 21600 (valid) 0x148-0x14b.7 (4)
0x140|                                    00         |            .   |        dst: 0 (valid) 0x14c-0x14c.7 (1)
0x140|                                       0c      |             .  |        idx: 12 (valid) 0x14d-0x14d.7 (1)
     |                                               |                |      [5]{}: local_time_type 0x14e-0x153.7 (6)
0x140|                                          00 00|              ..|        utoff: 18000 (valid) 0x14e-0x151.7 (4)
0x150|46 50                                          |FP              |
0x150|      00                                       |  .             |        dst: 0 (valid) 0x152-0x152.7 (1)
0x150|         08                                    |   .            |        idx: 8 (valid) 0x153-0x153.7 (1)
     |                                               |                |      [6]{}: local_time_type 0x154-0x159.7 (6)
0x150|            00 00 54 60                        |    ..T`        |        utoff: 21600 (valid) 0x154-0x157.7 (4)
0x150|                        01                     |        .       |        dst: 1 (valid) 0x158-0x158.7 (1)
0x150|                           0c                  |         .      |        idx: 12 (valid) 0x159-0x159.7 (1)
     |                                               |                |      [7]{}: local_time_type 0x15a-0x15f.7 (6)
0x150|                              00 00 46 50      |          ..FP  |        utoff: 18000 (valid) 0x15a-0x15d.7 (4)
0x150|                                          01   |              . |        dst: 1 (valid) 0x15e-0x15e.7 (1)
0x150|                                             08|               .|        idx: 8 (valid) 0x15f-0x15f.7 (1)
     |                                               |                |      [8]{}: local_time_type 0x160-0x165.7 (6)
0x160|00 00 38 40                                    |..8@            |        utoff: 14400 (valid) 0x160-0x163.7 (4)
0x160|            00                                 |    .           |        dst: 0 (valid) 0x164-0x164.7 (1)
0x160|               04                              |     .          |        idx: 4 (valid) 0x165-0x165.7 (1)
     |                                               |                |      [9]{}: local_time_type 0x166-0x16b.7 (6)
0x160|                  00 00 54 60                  |      ..T`      |        utoff: 21600 (valid) 0x166-0x169.7 (4)
0x160|                              01               |          .     |        dst: 1 (valid) 0x16a-0x16a.7 (1)
0x160|                                 0c            |           .    |        idx: 12 (valid) 0x16b-0x16b.7 (1)
     |                                               |                |      [10]{}: local_time_type 0x16c-0x171.7 (6)
0x160|                                    00 00 46 50|            ..FP|        utoff: 18000 (valid) 0x16c-0x16f.7 (4)
0x170|00                                             |.               |        dst: 0 (valid) 0x170-0x170.7 (1)
0x170|   08                                          | .              |        idx: 8 (valid) 0x171-0x171.7 (1)
     |                                               |                |    time_zone_designations[0:4]: 0x172-0x181.7 (16)
0x170|      4c 4d 54 00                              |  LMT.          |      [0]: "LMT" time_zone_designation 0x172-0x175.7 (4)
0x170|                  2b 30 34 00                  |      +04.      |      [1]: "+04" time_zone_designation 0x176-0x179.7 (4)
0x170|                              2b 30 35 00      |          +05.  |      [2]: "+05" time_zone_designation 0x17a-0x17d.7 (4)
0x170|                                          2b 30|              +0|      [3]: "+06" time_zone_designation 0x17e-0x181.7 (4)
0x180|36 00                                          |6.              |
     |                                               |                |    leap_second_records[0:27]: 0x182-0x259.7 (216)
     |                                               |                |      [0]{}: leap_second_record 0x182-0x189.7 (8)
0x180|      04 b2 58 00                              |  ..X.          |        occur: "1972-07-01T00:00:00Z" (78796800) 0x182-0x185.7 (4)
0x180|                  00 00 00 01                  |      ....      |        corr: 1 0x186-0x189.7 (4)
     |                                               |                |      [1]{}: leap_second_record 0x18a-0x191.7 (8)
0x180|                              05 a4 ec 01      |          ....  |        occur: "1973-01-01T00:00:01Z" (94694401) 0x18a-0x18d.7 (4)
0x180|                                          00 00|              ..|        corr: 2 0x18e-0x191.7 (4)
0x190|00 02                                          |..              |
     |                                               |                |      [2]{}: leap_second_record 0x192-0x199.7 (8)
0x190|      07 86 1f 82                              |  ....          |        occur: "1974-01-01T00:00:02Z" (126230402) 0x192-0x195.7 (4)
0x190|                  00 00 00 03                  |      ....      |        corr: 3 0x196-0x199.7 (4)
     |                                               |                |      [3]{}: leap_second_record 0x19a-0x1a1.7 (8)
0x190|                              09 67 53 03      |          .gS.  |        occur: "1975-01-01T00:00:03Z" (157766403) 0x19a-0x19d.7 (4)
0x190|                                          00 00|              ..|        corr: 4 0x19e-0x1a1.7 (4)
0x1a0|00 04                                          |..              |
     |                                               |                |      [4]{}: leap_second_record 0x1a2-0x1a9.7 (8)
0x1a0|      0b 48 86 84                              |  .H..          |        occur: "1976-01-01T00:00:04Z" (189302404) 0x1a2-0x1a5.7 (4)
0x1a0|                  00 00 00 05                  |      ....      |        corr: 5 0x1a6-0x1a9.7 (4)
     |                                               |                |      [5]{}: leap_second_record 0x1aa-0x1b1.7 (8)
0x1a0|                              0d 2b 0b 85      |          .+..  |        occur: "1977-01-01T00:00:05Z" (220924805) 0x1aa-0x1ad.7 (4)
0x1a0|                                          00 00|              ..|        corr: 6 0x1ae-0x1b1.7 (4)
0x1b0|00 06                                          |..              |
     |                                               |                |      [6]{}: leap_second_record 0x1b2-0x1b9.7 (8)
0x1b0|      0f 0c 3f 06                              |  ..?.          |        occur: "1978-01-01T00:00:06Z" (252460806) 0x1b2-0x1b5.7 (4)
0x1b0|                  00 00 00 07                  |      ....      |        corr: 7 0x1b6-0x1b9.7 (4)
     |                                               |                |      [7]{}: leap_second_record 0x1ba-0x1c1.7 (8)
0x1b0|                              10 ed 72 87      |          ..r.  |        occur: "1979-01-01T00:00:07Z" (283996807) 0x1ba-0x1bd.7 (4)
0x1b0|                                          00 00|              ..|        corr: 8 0x1be-0x1c1.7 (4)
0x1c0|00 08                                          |..              |
     |                                               |                |      [8]{}: leap_second_record 0x1c2-0x1c9.7 (8)
0x1c0|      12 ce a6 08                              |  ....          |        occur: "1980-01-01T00:00:08Z" (315532808) 0x1c2-0x1c5.7 (4)
0x1c0|                  00 00 00 09                  |      ....      |        corr: 9 0x1c6-0x1c9.7 (4)
     |                                               |                |      [9]{}: leap_second_record 0x1ca-0x1d1.7 (8)
0x1c0|                              15 9f ca 89      |          ....  |        occur: "1981-07-01T00:00:09Z" (362793609) 0x1ca-0x1cd.7 (4)
0x1c0|                                          00 00|              ..|        corr: 10 0x1ce-0x1d1.7 (4)
0x1d0|00 0a                                          |..              |
     |                                               |                |      [10]{}: leap_second_record 0x1d2-0x1d9.7 (8)
0x1d0|      17 80 fe 0a                              |  ....          |        occur: "1982-07-01T00:00:10Z" (394329610) 0x1d2-0x1d5.7 (4)
0x1d0|                  00 00 00 0b                  |      ....      |        corr: 11 0x1d6-0x1d9.7 (4)
     |                                               |                |      [11]{}: leap_second_record 0x1da-0x1e1.7 (8)
0x1d0|                              19 62 31 8b      |          .b1.  |        occur: "1983-07-01T00:00:11Z" (425865611) 0x1da-0x1dd.7 (4)
0x1d0|                                          00 00|              ..|        corr: 12 0x1de-0x1e1.7 (4)
0x1e0|00 0c                                          |..              |
     |                                               |                |      [12]{}: leap_second_record 0x1e2-0x1e9.7 (8)
0x1e0|      1d 25 ea 0c                              |  .%..          |        occur: "1985-07-01T00:00:12Z" (489024012) 0x1e2-0x1e5.7 (4)
0x1e0|                  00 00 00 0d                  |      ....      |        corr: 13 0x1e6-0x1e9.7 (4)
     |                                               |                |      [13]{}: leap_second_record 0x1ea-0x1f1.7 (8)
0x1e0|                              21 da e5 0d      |          !...  |        occur: "1988-01-01T00:00:13Z" (567993613) 0x1ea-0x1ed.7 (4)
0x1e0|                                          00 00|              ..|        corr: 14 0x1ee-0x1f1.7 (4)
0x1f0|00 0e                                          |..              |
     |                                               |                |      [14]{}: leap_second_record 0x1f2-0x1f9.7 (8)
0x1f0|      25 9e 9d 8e                              |  %...          |        occur: "1990-01-01T00:00:14Z" (631152014) 0x1f2-0x1f5.7 (4)
0x1f0|                  00 00 00 0f                  |      ....      |        corr: 15 0x1f6-0x1f9.7 (4)
     |                                               |                |      [15]{}: leap_second_record 0x1fa-0x201.7 (8)
0x1f0|                              27 7f d1 0f      |          '...  |        occur: "1991-01-01T00:00:15Z" (662688015) 0x1fa-0x1fd.7 (4)
0x1f0|                                          00 00|              ..|        corr: 16 0x1fe-0x201.7 (4)
0x200|00 10                                          |..              |
     |                                               |                |      [16]{}: leap_second_record 0x202-0x209.7 (8)
0x200|      2a 50 f5 90                              |  *P..          |        occur: "1992-07-01T00:00:16Z" (709948816) 0x202-0x205.7 (4)
0x200|                  00 00 00 11                  |      ....      |        corr: 17 0x206-0x209.7 (4)
     |                                               |                |      [17]{}: leap_second_record 0x20a-0x211.7 (8)
0x200|                              2c 32 29 11      |          ,2).  |        occur: "1993-07-01T00:00:17Z" (741484817) 0x20a-0x20d.7 (4)
0x200|                                          00 00|              ..|        corr: 18 0x20e-0x211.7 (4)
0x210|00 12                                          |..              |
     |                                               |                |      [18]{}: leap_second_record 0x212-0x219.7 (8)
0x210|      2e 13 5c 92                              |  ..\.          |        occur: "1994-07-01T00:00:18Z" (773020818) 0x212-0x215.7 (4)
0x210|                  00 00 00 13                  |      ....      |        corr: 19 0x216-0x219.7 (4)
     |                                               |                |      [19]{}: leap_second_record 0x21a-0x221.7 (8)
0x210|                              30 e7 24 13      |          0.$.  |        occur: "1996-01-01T00:00:19Z" (820454419) 0x21a-0x21d.7 (4)
0x210|                                          00 00|              ..|        corr: 20 0x21e-0x221.7 (4)
0x220|00 14                                          |..              |
     |                                               |                |      [20]{}: leap_second_record 0x222-0x229.7 (8)
0x220|      33 b8 48 94                              |  3.H.          |        occur: "1997-07-01T00:00:20Z" (867715220) 0x222-0x225.7 (4)
0x220|                  00 00 00 15                  |      ....      |        corr: 21 0x226-0x229.7 (4)
     |                                               |                |      [21]{}: leap_second_record 0x22a-0x231.7 (8)
0x220|                              36 8c 10 15      |          6...  |        occur: "1999-01-01T00:00:21Z" (915148821) 0x22a-0x22d.7 (4)
0x220|                                          00 00|              ..|        corr: 22 0x22e-0x231.7 (4)
0x230|00 16                                          |..              |
     |                                               |                |      [22]{}: leap_second_record 0x232-0x239.7 (8)
0x230|      43 b7 1b 96                              |  C...          |        occur: "2006-01-01T00:00:22Z" (1136073622) 0x232-0x235.7 (4)
0x230|                  00 00 00 17                  |      ....      |        corr: 23 0x236-0x239.7 (4)
     |                                               |                |      [23]{}: leap_second_record 0x23a-0x241.7 (8)
0x230|                              49 5c 07 97      |          I\..  |        occur: "2009-01-01T00:00:23Z" (1230768023) 0x23a-0x23d.7 (4)
0x230|                                          00 00|              ..|        corr: 24 0x23e-0x241.7 (4)
0x240|00 18                                          |..              |
     |                                               |                |      [24]{}: leap_second_record 0x242-0x249.7 (8)
0x240|      4f ef 93 18                              |  O...          |        occur: "2012-07-01T00:00:24Z" (1341100824) 0x242-0x245.7 (4)
0x240|                  00 00 00 19                  |      ....      |        corr: 25 0x246-0x249.7 (4)
     |                                               |                |      [25]{}: leap_second_record 0x24a-0x251.7 (8)
0x240|                              55 93 2d 99      |          U.-.  |        occur: "2015-07-01T00:00:25Z" (1435708825) 0x24a-0x24d.7 (4)
0x240|                                          00 00|              ..|        corr: 26 0x24e-0x251.7 (4)
0x250|00 1a                                          |..              |
     |                                               |                |      [26]{}: leap_second_record 0x252-0x259.7 (8)
0x250|      58 68 46 9a                              |  XhF.          |        occur: "2017-01-01T00:00:26Z" (1483228826) 0x252-0x255.7 (4)
0x250|                  00 00 00 1b                  |      ....      |        corr: 27 0x256-0x259.7 (4)
     |                                               |                |    standard_wall_indicators[0:11]: 0x25a-0x264.7 (11)
0x250|                              00               |          .     |      [0]: 0 standard_wall_indicator (valid) 0x25a-0x25a.7 (1)
0x250|                                 00            |           .    |      [1]: 0 standard_wall_indicator (valid) 0x25b-0x25b.7 (1)
0x250|                                    00         |            .   |      [2]: 0 standard_wall_indicator (valid) 0x25c-0x25c.7 (1)
0x250|                                       00      |             .  |      [3]: 0 standard_wall_indicator (valid) 0x25d-0x25d.7 (1)
0x250|                                          00   |              . |      [4]: 0 standard_wall_indicator (valid) 0x25e-0x25e.7 (1)
0x250|                                             01|               .|      [5]: 1 standard_wall_indicator (valid) 0x25f-0x25f.7 (1)
0x260|01                                             |.               |      [6]: 1 standard_wall_indicator (valid) 0x260-0x260.7 (1)
0x260|   01                                          | .              |      [7]: 1 standard_wall_indicator (valid) 0x261-0x261.7 (1)
0x260|      01                                       |  .             |      [8]: 1 standard_wall_indicator (valid) 0x262-0x262.7 (1)
0x260|         01                                    |   .            |      [9]: 1 standard_wall_indicator (valid) 0x263-0x263.7 (1)
0x260|            01                                 |    .           |      [10]: 1 standard_wall_indicator (valid) 0x264-0x264.7 (1)
     |                                               |                |    ut_local_indicators[0:0]: 0x265-NA (0)
     |                                               |                |  v2plusheader{}: 0x265-0x290.7 (44)
0x260|               54 5a 69 66                     |     TZif       |    magic: 0x545a6966 (valid) 0x265-0x268.7 (4)
0x260|                           32                  |         2      |    ver: "2" (0x32) (valid) 0x269-0x269.7 (1)
0x260|                              00 00 00 00 00 00|          ......|    reserved: raw bits 0x26a-0x278.7 (15)
0x270|00 00 00 00 00 00 00 00 00                     |.........       |
0x270|                           00 00 00 00         |         ....   |    isutcnt: 0 0x279-0x27c.7 (4)
0x270|                                       00 00 00|             ...|    isstdcnt: 11 0x27d-0x280.7 (4)
0x280|0b                                             |.               |
0x280|   00 00 00 1b                                 | ....           |    leapcnt: 27 0x281-0x284.7 (4)
0x280|               00 00 00 34                     |     ...4       |    timecnt: 52 0x285-0x288.7 (4)
0x280|                           00 00 00 0b         |         ....   |    typecnt: 11 0x289-0x28c.7 (4)
0x280|                                       00 00 00|             ...|    charcnt: 16 0x28d-0x290.7 (4)
0x290|10                                             |.               |
     |                                               |                |  v2plusdatablock{}: 0x291-0x605.7 (885)
     |                                               |                |    transition_times[0:52]: 0x291-0x430.7 (416)
0x290|   ff ff ff ff aa 19 8e 68                     | .......h       |      [0]: "1924-05-01T20:11:20Z" (-1441165720) transition_time 0x291-0x298.7 (8)
0x290|                           ff ff ff ff b5 a3 fd|         .......|      [1]: "1930-06-20T20:00:00Z" (-1247544000) transition_time 0x299-0x2a0.7 (8)
0x2a0|40                                             |@               |
0x2a0|   00 00 00 00 15 27 8b b9                     | .....'..       |      [2]: "1981-03-31T19:00:09Z" (354913209) transition_time 0x2a1-0x2a8.7 (8)
0x2a0|                           00 00 00 00 16 18 c0|         .......|      [3]: "1981-09-30T18:00:10Z" (370720810) transition_time 0x2a9-0x2b0.7 (8)
0x2b0|2a                                             |*               |
0x2b0|   00 00 00 00 17 08 b1 2a                     | .......*       |      [4]: "1982-03-31T18:00:10Z" (386445610) transition_time 0x2b1-0x2b8.7 (8)
0x2b0|                           00 00 00 00 17 f9 f3|         .......|      [5]: "1982-09-30T18:00:11Z" (402256811) transition_time 0x2b9-0x2c0.7 (8)
0x2c0|ab                                             |.               |
0x2c0|   00 00 00 00 18 e9 f2 bb                     | ........       |      [6]: "1983-03-31T19:00:11Z" (417985211) transition_time 0x2c1-0x2c8.7 (8)
0x2c0|                           00 00 00 00 19 db 27|         ......'|      [7]: "1983-09-30T18:00:12Z" (433792812) transition_time 0x2c9-0x2d0.7 (8)
0x2d0|2c                                             |,               |
0x2d0|   00 00 00 00 1a cc 77 bc                     | ......w.       |      [8]: "1984-03-31T19:00:12Z" (449607612) transition_time 0x2d1-0x2d8.7 (8)
0x2d0|                           00 00 00 00 1b bc 84|         .......|      [9]: "1984-09-29T21:00:12Z" (465339612) transition_time 0x2d9-0x2e0.7 (8)
0x2e0|dc                                             |.               |
0x2e0|   00 00 00 00 1c ac 75 dc                     | ......u.       |      [10]: "1985-03-30T21:00:12Z" (481064412) transition_time 0x2e1-0x2e8.7 (8)
0x2e0|                           00 00 00 00 1d 9c 66|         ......f|      [11]: "1985-09-28T21:00:13Z" (496789213) transition_time 0x2e9-0x2f0.7 (8)
0x2f0|dd                                             |.               |
0x2f0|   00 00 00 00 1e 8c 57 dd                     | ......W.       |      [12]: "1986-03-29T21:00:13Z" (512514013) transition_time 0x2f1-0x2f8.7 (8)
0x2f0|                           00 00 00 00 1f 7c 48|         .....|H|      [13]: "1986-09-27T21:00:13Z" (528238813) transition_time 0x2f9-0x300.7 (8)
0x300|dd                                             |.               |
0x300|   00 00 00 00 20 6c 39 dd                     | .... l9.       |      [14]: "1987-03-28T21:00:13Z" (543963613) transition_time 0x301-0x308.7 (8)
0x300|                           00 00 00 00 21 5c 2a|         ....!\*|      [15]: "1987-09-26T21:00:13Z" (559688413) transition_time 0x309-0x310.7 (8)
0x310|dd                                             |.               |
0x310|   00 00 00 00 22 4c 1b de                     | ...."L..       |      [16]: "1988-03-26T21:00:14Z" (575413214) transition_time 0x311-0x318.7 (8)
0x310|                           00 00 00 00 23 3c 0c|         ....#<.|      [17]: "1988-09-24T21:00:14Z" (591138014) transition_time 0x319-0x320.7 (8)
0x320|de                                             |.               |
0x320|   00 00 00 00 24 2b fd de                     | ....$+..       |      [18]: "1989-03-25T21:00:14Z" (606862814) transition_time 0x321-0x328.7 (8)
0x320|                           00 00 00 00 25 1b ee|         ....%..|      [19]: "1989-09-23T21:00:14Z" (622587614) transition_time 0x329-0x330.7 (8)
0x330|de                                             |.               |
0x330|   00 00 00 00 26 0b df df                     | ....&...       |      [20]: "1990-03-24T21:00:15Z" (638312415) transition_time 0x331-0x338.7 (8)
0x330|                           00 00 00 00 27 05 0b|         ....'..|      [21]: "1990-09-29T21:00:15Z" (654642015) transition_time 0x339-0x340.7 (8)
0x340|5f                                             |_               |
0x340|   00 00 00 00 27 f4 fc 60                     | ....'..`       |      [22]: "1991-03-30T21:00:16Z" (670366816) transition_time 0x341-0x348.7 (8)
0x340|                           00 00 00 00 28 e4 fb|         ....(..|      [23]: "1991-09-28T22:00:16Z" (686095216) transition_time 0x349-0x350.7 (8)
0x350|70                                             |p               |
0x350|   00 00 00 00 29 78 a3 70                     | ....)x.p       |      [24]: "1992-01-18T22:00:16Z" (695772016) transition_time 0x351-0x358.7 (8)
0x350|                           00 00 00 00 29 d4 de|         ....)..|      [25]: "1992-03-28T21:00:16Z" (701816416) transition_time 0x359-0x360.7 (8)
0x360|60                                             |`               |
0x360|   00 00 00 00 2a c4 cf 61                     | ....*..a       |      [26]: "1992-09-26T21:00:17Z" (717541217) transition_time 0x361-0x368.7 (8)
0x360|                           00 00 00 00 2b b4 c0|         ....+..|      [27]: "1993-03-27T21:00:17Z" (733266017) transition_time 0x369-0x370.7 (8)
0x370|61                                             |a               |
0x370|   00 00 00 00 2c a4 b1 62                     | ....,..b       |      [28]: "1993-09-25T21:00:18Z" (748990818) transition_time 0x371-0x378.7 (8)
0x370|                           00 00 00 00 2d 94 a2|         ....-..|      [29]: "1994-03-26T21:00:18Z" (764715618) transition_time 0x379-0x380.7 (8)
0x380|62                                             |b               |
0x380|   00 00 00 00 2e 84 93 63                     | .......c       |      [30]: "1994-09-24T21:00:19Z" (780440419) transition_time 0x381-0x388.7 (8)
0x380|                           00 00 00 00 2f 74 84|         ..../t.|      [31]: "1995-03-25T21:00:19Z" (796165219) transition_time 0x389-0x390.7 (8)
0x390|63                                             |c               |
0x390|   00 00 00 00 30 64 75 63                     | ....0duc       |      [32]: "1995-09-23T21:00:19Z" (811890019) transition_time 0x391-0x398.7 (8)
0x390|                           00 00 00 00 31 5d a0|         ....1].|      [33]: "1996-03-30T21:00:20Z" (828219620) transition_time 0x399-0x3a0.7 (8)
0x3a0|e4                                             |.               |
0x3a0|   00 00 00 00 32 72 7b e4                     | ....2r{.       |      [34]: "1996-10-26T21:00:20Z" (846363620) transition_time 0x3a1-0x3a8.7 (8)
0x3a0|                           00 00 00 00 33 3d 82|         ....3=.|      [35]: "1997-03-29T21:00:20Z" (859669220) transition_time 0x3a9-0x3b0.7 (8)
0x3b0|e4                                             |.               |
0x3b0|   00 00 00 00 34 52 5d e5                     | ....4R].       |      [36]: "1997-10-25T21:00:21Z" (877813221) transition_time 0x3b1-0x3b8.7 (8)
0x3b0|                           00 00 00 00 35 1d 64|         ....5.d|      [37]: "1998-03-28T21:00:21Z" (891118821) transition_time 0x3b9-0x3c0.7 (8)
0x3c0|e5                                             |.               |
0x3c0|   00 00 00 00 36 32 3f e5                     | ....62?.       |      [38]: "1998-10-24T21:00:21Z" (909262821) transition_time 0x3c1-0x3c8.7 (8)
0x3c0|                           00 00 00 00 36 fd 46|         ....6.F|      [39]: "1999-03-27T21:00:22Z" (922568422) transition_time 0x3c9-0x3d0.7 (8)
0x3d0|e6                                             |.               |
0x3d0|   00 00 00 00 38 1b 5c 66                     | ....8.\f       |      [40]: "1999-10-30T21:00:22Z" (941317222) transition_time 0x3d1-0x3d8.7 (8)
0x3d0|                           00 00 00 00 38 dd 28|         ....8.(|      [41]: "2000-03-25T21:00:22Z" (954018022) transition_time 0x3d9-0x3e0.7 (8)
0x3e0|e6                                             |.               |
0x3e0|   00 00 00 00 39 fb 3e 66                     | ....9.>f       |      [42]: "2000-10-28T21:00:22Z" (972766822) transition_time 0x3e1-0x3e8.7 (8)
0x3e0|                           00 00 00 00 3a bd 0a|         ....:..|      [43]: "2001-03-24T21:00:22Z" (985467622) transition_time 0x3e9-0x3f0.7 (8)
0x3f0|e6                                             |.               |
0x3f0|   00 00 00 00 3b db 20 66                     | ....;. f       |      [44]: "2001-10-27T21:00:22Z" (1004216422) transition_time 0x3f1-0x3f8.7 (8)
0x3f0|                           00 00 00 00 3c a6 27|         ....<.'|      [45]: "2002-03-30T21:00:22Z" (1017522022) transition_time 0x3f9-0x400.7 (8)
0x400|66                                             |f               |
0x400|   00 00 00 00 3d bb 02 66                     | ....=..f       |      [46]: "2002-10-26T21:00:22Z" (1035666022) transition_time 0x401-0x408.7 (8)
0x400|                           00 00 00 00 3e 86 09|         ....>..|      [47]: "2003-03-29T21:00:22Z" (1048971622) transition_time 0x409-0x410.7 (8)
0x410|66                                             |f               |
0x410|   00 00 00 00 3f 9a e4 66                     | ....?..f       |      [48]: "2003-10-25T21:00:22Z" (1067115622) transition_time 0x411-0x418.7 (8)
0x410|                           00 00 00 00 40 65 eb|         ....@e.|      [49]: "2004-03-27T21:00:22Z" (1080421222) transition_time 0x419-0x420.7 (8)
0x420|66                                             |f               |
0x420|   00 00 00 00 41 84 00 e6                     | ....A...       |      [50]: "2004-10-30T21:00:22Z" (1099170022) transition_time 0x421-0x428.7 (8)
0x420|                           00 00 00 00 64 9b 78|         ....d.x|      [51]: "2023-06-28T00:00:27Z" (1687910427) transition_time 0x429-0x430.7 (8)
0x430|1b                                             |.               |
     |                                               |                |    transition_types[0:52]: 0x431-0x464.7 (52)
0x430|   01                                          | .              |      [0]: 1 transition_type 0x431-0x431.7 (1)
0x430|      02                                       |  .             |      [1]: 2 transition_type 0x432-0x432.7 (1)
0x430|         03                                    |   .            |      [2]: 3 transition_type 0x433-0x433.7 (1)
0x430|            04                                 |    .           |      [3]: 4 transition_type 0x434-0x434.7 (1)
0x430|               03                              |     .          |      [4]: 3 transition_type 0x435-0x435.7 (1)
0x430|                  02                           |      .         |      [5]: 2 transition_type 0x436-0x436.7 (1)
0x430|                     03                        |       .        |      [6]: 3 transition_type 0x437-0x437.7 (1)
0x430|                        02                     |        .       |      [7]: 2 transition_type 0x438-0x438.7 (1)
0x430|                           03                  |         .      |      [8]: 3 transition_type 0x439-0x439.7 (1)
0x430|                              05               |          .     |      [9]: 5 transition_type 0x43a-0x43a.7 (1)
0x430|                                 06            |           .    |      [10]: 6 transition_type 0x43b-0x43b.7 (1)
0x430|                                    05         |            .   |      [11]: 5 transition_type 0x43c-0x43c.7 (1)
0x430|                                       06      |             .  |      [12]: 6 transition_type 0x43d-0x43d.7 (1)
0x430|                                          05   |              . |      [13]: 5 transition_type 0x43e-0x43e.7 (1)
0x430|                                             06|               .|      [14]: 6 transition_type 0x43f-0x43f.7 (1)
0x440|05                                             |.               |      [15]: 5 transition_type 0x440-0x440.7 (1)
0x440|   06                                          | .              |      [16]: 6 transition_type 0x441-0x441.7 (1)
0x440|      05                                       |  .             |      [17]: 5 transition_type 0x442-0x442.7 (1)
0x440|         06                                    |   .            |      [18]: 6 transition_type 0x443-0x443.7 (1)
0x440|            05                                 |    .           |      [19]: 5 transition_type 0x444-0x444.7 (1)
0x440|               06                              |     .          |      [20]: 6 transition_type 0x445-0x445.7 (1)
0x440|                  05                           |      .         |      [21]: 5 transition_type 0x446-0x446.7 (1)
0x440|                     07                        |       .        |      [22]: 7 transition_type 0x447-0x447.7 (1)
0x440|                        08                     |        .       |      [23]: 8 transition_type 0x448-0x448.7 (1)
0x440|                           05                  |         .      |      [24]: 5 transition_type 0x449-0x449.7 (1)
0x440|                              06               |          .     |      [25]: 6 transition_type 0x44a-0x44a.7 (1)
0x440|                                 05            |           .    |      [26]: 5 transition_type 0x44b-0x44b.7 (1)
0x440|                                    06         |            .   |      [27]: 6 transition_type 0x44c-0x44c.7 (1)
0x440|                                       05      |             .  |      [28]: 5 transition_type 0x44d-0x44d.7 (1)
0x440|                                          06   |              . |      [29]: 6 transition_type 0x44e-0x44e.7 (1)
0x440|                                             05|               .|      [30]: 5 transition_type 0x44f-0x44f.7 (1)
0x450|06                                             |.               |      [31]: 6 transition_type 0x450-0x450.7 (1)
0x450|   05                                          | .              |      [32]: 5 transition_type 0x451-0x451.7 (1)
0x450|      06                                       |  .             |      [33]: 6 transition_type 0x452-0x452.7 (1)
0x450|         05                                    |   .            |      [34]: 5 transition_type 0x453-0x453.7 (1)
0x450|            06                                 |    .           |      [35]: 6 transition_type 0x454-0x454.7 (1)
0x450|               05                              |     .          |      [36]: 5 transition_type 0x455-0x455.7 (1)
0x450|                  06                           |      .         |      [37]: 6 transition_type 0x456-0x456.7 (1)
0x450|                     05                        |       .        |      [38]: 5 transition_type 0x457-0x457.7 (1)
0x450|                        06                     |        .       |      [39]: 6 transition_type 0x458-0x458.7 (1)
0x450|                           05                  |         .      |      [40]: 5 transition_type 0x459-0x459.7 (1)
0x450|                              06               |          .     |      [41]: 6 transition_type 0x45a-0x45a.7 (1)
0x450|                                 05            |           .    |      [42]: 5 transition_type 0x45b-0x45b.7 (1)
0x450|                                    06         |            .   |      [43]: 6 transition_type 0x45c-0x45c.7 (1)
0x450|                                       05      |             .  |      [44]: 5 transition_type 0x45d-0x45d.7 (1)
0x450|                                          06   |              . |      [45]: 6 transition_type 0x45e-0x45e.7 (1)
0x450|                                             05|               .|      [46]: 5 transition_type 0x45f-0x45f.7 (1)
0x460|06                                             |.               |      [47]: 6 transition_type 0x460-0x460.7 (1)
0x460|   05                                          | .              |      [48]: 5 transition_type 0x461-0x461.7 (1)
0x460|      06                                       |  .             |      [49]: 6 transition_type 0x462-0x462.7 (1)
0x460|         05                                    |   .            |      [50]: 5 transition_type 0x463-0x463.7 (1)
0x460|            05                                 |    .           |      [51]: 5 transition_type 0x464-0x464.7 (1)
     |                                               |                |    local_time_type_records[0:11]: 0x465-0x4a6.7 (66)
     |                                               |                |      [0]{}: local_time_type 0x465-0x46a.7 (6)
0x460|               00 00 35 98                     |     ..5.       |        utoff: 13720 (valid) 0x465-0x468.7 (4)
0x460|                           00                  |         .      |        dst: 0 (valid) 0x469-0x469.7 (1)
0x460|                              00               |          .     |        idx: 0 (valid) 0x46a-0x46a.7 (1)
     |                                               |                |      [1]{}: local_time_type 0x46b-0x470.7 (6)
0x460|                                 00 00 38 40   |           ..8@ |        utoff: 14400 (valid) 0x46b-0x46e.7 (4)
0x460|                                             00|               .|        dst: 0 (valid) 0x46f-0x46f.7 (1)
0x470|04                                             |.               |        idx: 4 (valid) 0x470-0x470.7 (1)
     |                                               |                |      [2]{}: local_time_type 0x471-0x476.7 (6)
0x470|   00 00 46 50                                 | ..FP           |        utoff: 18000 (valid) 0x471-0x474.7 (4)
0x470|               00                              |     .          |        dst: 0 (valid) 0x475-0x475.7 (1)
0x470|                  08                           |      .         |        idx: 8 (valid) 0x476-0x476.7 (1)
     |                                               |                |      [3]{}: local_time_type 0x477-0x47c.7 (6)
0x470|                     00 00 54 60               |       ..T`     |        utoff: 21600 (valid) 0x477-0x47a.7 (4)
0x470|                                 01            |           .    |        dst: 1 (valid) 0x47b-0x47b.7 (1)
0x470|                                    0c         |            .   |        idx: 12 (valid) 0x47c-0x47c.7 (1)
     |                                               |                |      [4]{}: local_time_type 0x47d-0x482.7 (6)
0x470|                                       00 00 54|             ..T|        utoff: 21600 (valid) 0x47d-0x480.7 (4)
0x480|60                                             |`               |
0x480|   00                                          | .              |        dst: 0 (valid) 0x481-0x481.7 (1)
0x480|      0c                                       |  .             |        idx: 12 (valid) 0x482-0x482.7 (1)
     |                                               |                |      [5]{}: local_time_type 0x483-0x488.7 (6)
0x480|         00 00 46 50                           |   ..FP         |        utoff: 18000 (valid) 0x483-0x486.7 (4)
0x480|                     00                        |       .        |        dst: 0 (valid) 0x487-0x487.7 (1)
0x480|                        08                     |        .       |        idx: 8 (valid) 0x488-0x488.7 (1)
     |                                               |                |      [6]{}: local_time_type 0x489-0x48e.7 (6)
0x480|                           00 00 54 60         |         ..T`   |        utoff: 21600 (valid) 0x489-0x48c.7 (4)
0x480|                                       01      |             .  |        dst: 1 (valid) 0x48d-0x48d.7 (1)
0x480|                                          0c   |              . |        idx: 12 (valid) 0x48e-0x48e.7 (1)
     |                                               |                |      [7]{}: local_time_type 0x48f-0x494.7 (6)
0x480|                                             00|               .|        utoff: 18000 (valid) 0x48f-0x492.7 (4)
0x490|00 46 50                                       |.FP             |
0x490|         01                                    |   .            |        dst: 1 (valid) 0x493-0x493.7 (1)
0x490|            08                                 |    .           |        idx: 8 (valid) 0x494-0x494.7 (1)
     |                                               |                |      [8]{}: local_time_type 0x495-0x49a.7 (6)
0x490|               00 00 38 40                     |     ..8@       |        utoff: 14400 (valid) 0x495-0x498.7 (4)
0x490|                           00                  |         .      |        dst: 0 (valid) 0x499-0x499.7 (1)
0x490|                              04               |          .     |        idx: 4 (valid) 0x49a-0x49a.7 (1)
     |                                               |                |      [9]{}: local_time_type 0x49b-0x4a0.7 (6)
0x490|                                 00 00 54 60   |           ..T` |        utoff: 21600 (valid) 0x49b-0x49e.7 (4)
0x490|                                             01|               .|        dst: 1 (valid) 0x49f-0x49f.7 (1)
0x4a0|0c                                             |.               |        idx: 12 (valid) 0x4a0-0x4a0.7 (1)
     |                                               |                |      [10]{}: local_time_type 0x4a1-0x4a6.7 (6)
0x4a0|   00 00 46 50                                 | ..FP           |        utoff: 18000 (valid) 0x4a1-0x4a4.7 (4)
0x4a0|               00                              |     .          |        dst: 0 (valid) 0x4a5-0x4a5.7 (1)
0x4a0|                  08                           |      .         |        idx: 8 (valid) 0x4a6-0x4a6.7 (1)
     |                                               |                |    time_zone_designations[0:4]: 0x4a7-0x4b6.7 (16)
0x4a0|                     4c 4d 54 00               |       LMT.     |      [0]: "LMT" time_zone_designation 0x4a7-0x4aa.7 (4)
0x4a0|                                 2b 30 34 00   |           +04. |      [1]: "+04" time_zone_designation 0x4ab-0x4ae.7 (4)
0x4a0|                                             2b|               +|      [2]: "+05" time_zone_designation 0x4af-0x4b2.7 (4)
0x4b0|30 35 00                                       |05.             |
0x4b0|         2b 30 36 00                           |   +06.         |      [3]: "+06" time_zone_designation 0x4b3-0x4b6.7 (4)
     |                                               |                |    leap_second_records[0:27]: 0x4b7-0x5fa.7 (324)
     |                                               |                |      [0]{}: leap_second_record 0x4b7-0x4c2.7 (12)
0x4b0|                     00 00 00 00 04 b2 58 00   |       ......X. |        occur: "1972-07-01T00:00:00Z" (78796800) 0x4b7-0x4be.7 (8)
0x4b0|                                             00|               .|        corr: 1 0x4bf-0x4c2.7 (4)
0x4c0|00 00 01                                       |...             |
     |                                               |                |      [1]{}: leap_second_record 0x4c3-0x4ce.7 (12)
0x4c0|         00 00 00 00 05 a4 ec 01               |   ........     |        occur: "1973-01-01T00:00:01Z" (94694401) 0x4c3-0x4ca.7 (8)
0x4c0|                                 00 00 00 02   |           .... |        corr: 2 0x4cb-0x4ce.7 (4)
     |                                               |                |      [2]{}: leap_second_record 0x4cf-0x4da.7 (12)
0x4c0|                                             00|               .|        occur: "1974-01-01T00:00:02Z" (126230402) 0x4cf-0x4d6.7 (8)
0x4d0|00 00 00 07 86 1f 82                           |.......         |
0x4d0|                     00 00 00 03               |       ....     |        corr: 3 0x4d7-0x4da.7 (4)
     |                                               |                |      [3]{}: leap_second_record 0x4db-0x4e6.7 (12)
0x4d0|                                 00 00 00 00 09|           .....|        occur: "1975-01-01T00:00:03Z" (157766403) 0x4db-0x4e2.7 (8)
0x4e0|67 53 03                                       |gS.             |
0x4e0|         00 00 00 04                           |   ....         |        corr: 4 0x4e3-0x4e6.7 (4)
     |                                               |                |      [4]{}: leap_second_record 0x4e7-0x4f2.7 (12)
0x4e0|                     00 00 00 00 0b 48 86 84   |       .....H.. |        occur: "1976-01-01T00:00:04Z" (189302404) 0x4e7-0x4ee.7 (8)
0x4e0|                                             00|               .|        corr: 5 0x4ef-0x4f2.7 (4)
0x4f0|00 00 05                                       |...             |
     |                                               |                |      [5]{}: leap_second_record 0x4f3-0x4fe.7 (12)
0x4f0|         00 00 00 00 0d 2b 0b 85               |   .....+..     |        occur: "1977-01-01T00:00:05Z" (220924805) 0x4f3-0x4fa.7 (8)
0x4f0|                                 00 00 00 06   |           .... |        corr: 6 0x4fb-0x4fe.7 (4)
     |                                               |                |      [6]{}: leap_second_record 0x4ff-0x50a.7 (12)
0x4f0|                                             00|               .|        occur: "1978-01-01T00:00:06Z" (252460806) 0x4ff-0x506.7 (8)
0x500|00 00 00 0f 0c 3f 06                           |.....?.         |
0x500|                     00 00 00 07               |       ....     |        corr: 7 0x507-0x50a.7 (4)
     |                                               |                |      [7]{}: leap_second_record 0x50b-0x516.7 (12)
0x500|                                 00 00 00 00 10|           .....|        occur: "1979-01-01T00:00:07Z" (283996807) 0x50b-0x512.7 (8)
0x510|ed 72 87                                       |.r.             |
0x510|         00 00 00 08                           |   ....         |        corr: 8 0x513-0x516.7 (4)
     |                                               |                |      [8]{}: leap_second_record 0x517-0x522.7 (12)
0x510|                     00 00 00 00 12 ce a6 08   |       ........ |        occur: "1980-01-01T00:00:08Z" (315532808) 0x517-0x51e.7 (8)
0x510|                                             00|               .|        corr: 9 0x51f-0x522.7 (4)
0x520|00 00 09                                       |...             |
     |                                               |                |      [9]{}: leap_second_record 0x523-0x52e.7 (12)
0x520|         00 00 00 00 15 9f ca 89               |   ........     |        occur: "1981-07-01T00:00:09Z" (362793609) 0x523-0x52a.7 (8)
0x520|                                 00 00 00 0a   |           .... |        corr: 10 0x52b-0x52e.7 (4)
     |                                               |                |      [10]{}: leap_second_record 0x52f-0x53a.7 (12)
0x520|                                             00|               .|        occur: "1982-07-01T00:00:10Z" (394329610) 0x52f-0x536.7 (8)
0x530|00 00 00 17 80 fe 0a                           |.......         |
0x530|                     00 00 00 0b               |       ....     |        corr: 11 0x537-0x53a.7 (4)
     |                                               |                |      [11]{}: leap_second_record 0x53b-0x546.7 (12)
0x530|                                 00 00 00 00 19|           .....|        occur: "1983-07-01T00:00:11Z" (425865611) 0x53b-0x542.7 (8)
0x540|62 31 8b                                       |b1.             |
0x540|         00 00 00 0c                           |   ....         |        corr: 12 0x543-0x546.7 (4)
     |                                               |                |      [12]{}: leap_second_record 0x547-0x552.7 (12)
0x540|                     00 00 00 00 1d 25 ea 0c   |       .....%.. |        occur: "1985-07-01T00:00:12Z" (489024012) 0x547-0x54e.7 (8)
0x540|                                             00|               .|        corr: 13 0x54f-0x552.7 (4)
0x550|00 00 0d                                       |...             |
     |                                               |                |      [13]{}: leap_second_record 0x553-0x55e.7 (12)
0x550|         00 00 00 00 21 da e5 0d               |   ....!...     |        occur: "1988-01-01T00:00:13Z" (567993613) 0x553-0x55a.7 (8)
0x550|                                 00 00 00 0e   |           .... |        corr: 14 0x55b-0x55e.7 (4)
     |                                               |                |      [14]{}: leap_second_record 0x55f-0x56a.7 (12)
0x550|                                             00|               .|        occur: "1990-01-01T00:00:14Z" (631152014) 0x55f-0x566.7 (8)
0x560|00 00 00 25 9e 9d 8e                           |...%...         |
0x560|                     00 00 00 0f               |       ....     |        corr: 15 0x567-0x56a.7 (4)
     |                                               |                |      [15]{}: leap_second_record 0x56b-0x576.7 (12)
0x560|                                 00 00 00 00 27|           ....'|        occur: "1991-01-01T00:00:15Z" (662688015) 0x56b-0x572.7 (8)
0x570|7f d1 0f                                       |...             |
0x570|         00 00 00 10                           |   ....         |        corr: 16 0x573-0x576.7 (4)
     |                                               |                |      [16]{}: leap_second_record 0x577-0x582.7 (12)
0x570|                     00 00 00 00 2a 50 f5 90   |       ....*P.. |        occur: "1992-07-01T00:00:16Z" (709948816) 0x577-0x57e.7 (8)
0x570|                                             00|               .|        corr: 17 0x57f-0x582.7 (4)
0x580|00 00 11                                       |...             |
     |                                               |                |      [17]{}: leap_second_record 0x583-0x58e.7 (12)
0x580|         00 00 00 00 2c 32 29 11               |   ....,2).     |        occur: "1993-07-01T00:00:17Z" (741484817) 0x583-0x58a.7 (8)
0x580|                                 00 00 00 12   |           .... |        corr: 18 0x58b-0x58e.7 (4)
     |                                               |                |      [18]{}: leap_second_record 0x58f-0x59a.7 (12)
0x580|                                             00|               .|        occur: "1994-07-01T00:00:18Z" (773020818) 0x58f-0x596.7 (8)
0x590|00 00 00 2e 13 5c 92                           |.....\.         |
0x590|                     00 00 00 13               |       ....     |        corr: 19 0x597-0x59a.7 (4)
     |                                               |                |      [19]{}: leap_second_record 0x59b-0x5a6.7 (12)
0x590|                                 00 00 00 00 30|           ....0|        occur: "1996-01-01T00:00:19Z" (820454419) 0x59b-0x5a2.7 (8)
0x5a0|e7 24 13                                       |.$.             |
0x5a0|         00 00 00 14                           |   ....         |        corr: 20 0x5a3-0x5a6.7 (4)
     |                                               |                |      [20]{}: leap_second_record 0x5a7-0x5b2.7 (12)
0x5a0|                     00 00 00 00 33 b8 48 94   |       ....3.H. |        occur: "1997-07-01T00:00:20Z" (867715220) 0x5a7-0x5ae.7 (8)
0x5a0|                                             00|               .|        corr: 21 0x5af-0x5b2.7 (4)
0x5b0|00 00 15                                       |...             |
     |                                               |                |      [21]{}: leap_second_record 0x5b3-0x5be.7 (12)
0x5b0|         00 00 00 00 36 8c 10 15               |   ....6...     |        occur: "1999-01-01T00:00:21Z" (915148821) 0x5b3-0x5ba.7 (8)
0x5b0|                                 00 00 00 16   |           .... |        corr: 22 0x5bb-0x5be.7 (4)
     |                                               |                |      [22]{}: leap_second_record 0x5bf-0x5ca.7 (12)
0x5b0|                                             00|               .|        occur: "2006-01-01T00:00:22Z" (1136073622) 0x5bf-0x5c6.7 (8)
0x5c0|00 00 00 43 b7 1b 96                           |...C...         |
0x5c0|                     00 00 00 17               |       ....     |        corr: 23 0x5c7-0x5ca.7 (4)
     |                                               |                |      [23]{}: leap_second_record 0x5cb-0x5d6.7 (12)
0x5c0|                                 00 00 00 00 49|           ....I|        occur: "2009-01-01T00:00:23Z" (1230768023) 0x5cb-0x5d2.7 (8)
0x5d0|5c 07 97                                       |\..             |
0x5d0|         00 00 00 18                           |   ....         |        corr: 24 0x5d3-0x5d6.7 (4)
     |                                               |                |      [24]{}: leap_second_record 0x5d7-0x5e2.7 (12)
0x5d0|                     00 00 00 00 4f ef 93 18   |       ....O... |        occur: "2012-07-01T00:00:24Z" (1341100824) 0x5d7-0x5de.7 (8)
0x5d0|                                             00|               .|        corr: 25 0x5df-0x5e2.7 (4)
0x5e0|00 00 19                                       |...             |
     |                                               |                |      [25]{}: leap_second_record 0x5e3-0x5ee.7 (12)
0x5e0|         00 00 00 00 55 93 2d 99               |   ....U.-.     |        occur: "2015-07-01T00:00:25Z" (1435708825) 0x5e3-0x5ea.7 (8)
0x5e0|                                 00 00 00 1a   |           .... |        corr: 26 0x5eb-0x5ee.7 (4)
     |                                               |                |      [26]{}: leap_second_record 0x5ef-0x5fa.7 (12)
0x5e0|                                             00|               .|        occur: "2017-01-01T00:00:26Z" (1483228826) 0x5ef-0x5f6.7 (8)
0x5f0|00 00 00 58 68 46 9a                           |...XhF.         |
0x5f0|                     00 00 00 1b               |       ....     |        corr: 27 0x5f7-0x5fa.7 (4)
     |                                               |                |    standard_wall_indicators[0:11]: 0x5fb-0x605.7 (11)
0x5f0|                                 00            |           .    |      [0]: 0 standard_wall_indicator (valid) 0x5fb-0x5fb.7 (1)
0x5f0|                                    00         |            .   |      [1]: 0 standard_wall_indicator (valid) 0x5fc-0x5fc.7 (1)
0x5f0|                                       00      |             .  |      [2]: 0 standard_wall_indicator (valid) 0x5fd-0x5fd.7 (1)
0x5f0|                                          00   |              . |      [3]: 0 standard_wall_indicator (valid) 0x5fe-0x5fe.7 (1)
0x5f0|                                             00|               .|      [4]: 0 standard_wall_indicator (valid) 0x5ff-0x5ff.7 (1)
0x600|01                                             |.               |      [5]: 1 standard_wall_indicator (valid) 0x600-0x600.7 (1)
0x600|   01                                          | .              |      [6]: 1 standard_wall_indicator (valid) 0x601-0x601.7 (1)
0x600|      01                                       |  .             |      [7]: 1 standard_wall_indicator (valid) 0x602-0x602.7 (1)
0x600|         01                                    |   .            |      [8]: 1 standard_wall_indicator (valid) 0x603-0x603.7 (1)
0x600|            01                                 |    .           |      [9]: 1 standard_wall_indicator (valid) 0x604-0x604.7 (1)
0x600|               01                              |     .          |      [10]: 1 standard_wall_indicator (valid) 0x605-0x605.7 (1)
     |                                               |                |    ut_local_indicators[0:0]: 0x606-NA (0)
     |                                               |                |  footer{}: 0x606-0x607.7 (2)
0x600|                  0a                           |      .         |    nl1: 10 (valid) 0x606-0x606.7 (1)
     |                                               |                |    tz_string: "" 0x607-NA (0)
0x600|                     0a|                       |       .|       |    nl2: 10 (valid) 0x607-0x607.7 (1)
