$ fq -d tzif dv Araguaina
     |00 01 02 03 04 05 06 07 08 09 0a 0b 0c 0d 0e 0f|0123456789abcdef|.{}: Araguaina (tzif) 0x0-0x589.7 (1418)
     |                                               |                |  v1header{}: 0x0-0x2b.7 (44)
0x000|54 5a 69 66                                    |TZif            |    magic: 0x545a6966 (valid) 0x0-0x3.7 (4)
0x000|            32                                 |    2           |    ver: "2" (0x32) (valid) 0x4-0x4.7 (1)
0x000|               00 00 00 00 00 00 00 00 00 00 00|     ...........|    reserved: raw bits 0x5-0x13.7 (15)
0x010|00 00 00 00                                    |....            |
0x010|            00 00 00 00                        |    ....        |    isutcnt: 0 0x14-0x17.7 (4)
0x010|                        00 00 00 00            |        ....    |    isstdcnt: 0 0x18-0x1b.7 (4)
0x010|                                    00 00 00 1b|            ....|    leapcnt: 27 0x1c-0x1f.7 (4)
0x020|00 00 00 34                                    |...4            |    timecnt: 52 0x20-0x23.7 (4)
0x020|            00 00 00 03                        |    ....        |    typecnt: 3 0x24-0x27.7 (4)
0x020|                        00 00 00 0c            |        ....    |    charcnt: 12 0x28-0x2b.7 (4)
     |                                               |                |  v1datablock{}: 0x2c-0x225.7 (506)
     |                                               |                |    transition_times[0:52]: 0x2c-0xfb.7 (208)
0x020|                                    96 aa 74 30|            ..t0|      [0]: "1914-01-01T03:12:48Z" (-1767214032) transition_time 0x2c-0x2f.7 (4)
0x030|b8 0f 49 e0                                    |..I.            |      [1]: "1931-10-03T14:00:00Z" (-1206957600) transition_time 0x30-0x33.7 (4)
0x030|            b8 fd 40 a0                        |    ..@.        |      [2]: "1932-04-01T02:00:00Z" (-1191362400) transition_time 0x34-0x37.7 (4)
0x030|                        b9 f1 34 30            |        ..40    |      [3]: "1932-10-03T03:00:00Z" (-1175374800) transition_time 0x38-0x3b.7 (4)
0x030|                                    ba de 74 20|            ..t |      [4]: "1933-04-01T02:00:00Z" (-1159826400) transition_time 0x3c-0x3f.7 (4)
0x040|da 38 ae 30                                    |.8.0            |      [5]: "1949-12-01T03:00:00Z" (-633819600) transition_time 0x40-0x43.7 (4)
0x040|            da eb fa 30                        |    ...0        |      [6]: "1950-04-16T03:00:00Z" (-622069200) transition_time 0x44-0x47.7 (4)
0x040|                        dc 19 e1 b0            |        ....    |      [7]: "1950-12-01T03:00:00Z" (-602283600) transition_time 0x48-0x4b.7 (4)
0x040|                                    dc b9 59 20|            ..Y |      [8]: "1951-04-01T02:00:00Z" (-591832800) transition_time 0x4c-0x4f.7 (4)
0x050|dd fb 15 30                                    |...0            |      [9]: "1951-12-01T03:00:00Z" (-570747600) transition_time 0x50-0x53.7 (4)
0x050|            de 9b de 20                        |    ...         |      [10]: "1952-04-01T02:00:00Z" (-560210400) transition_time 0x54-0x57.7 (4)
0x050|                        df dd 9a 30            |        ...0    |      [11]: "1952-12-01T03:00:00Z" (-539125200) transition_time 0x58-0x5b.7 (4)
0x050|                                    e0 54 33 20|            .T3 |      [12]: "1953-03-01T02:00:00Z" (-531352800) transition_time 0x5c-0x5f.7 (4)
0x060|f4 97 ff b0                                    |....            |      [13]: "1963-12-09T03:00:00Z" (-191365200) transition_time 0x60-0x63.7 (4)
0x060|            f5 05 5e 20                        |    ..^         |      [14]: "1964-03-01T02:00:00Z" (-184197600) transition_time 0x64-0x67.7 (4)
0x060|                        f6 c0 64 30            |        ..d0    |      [15]: "1965-01-31T03:00:00Z" (-155163600) transition_time 0x68-0x6b.7 (4)
0x060|                                    f7 0e 1e a0|            ....|      [16]: "1965-03-31T02:00:00Z" (-150069600) transition_time 0x6c-0x6f.7 (4)
0x070|f8 51 2c 30                                    |.Q,0            |      [17]: "1965-12-01T03:00:00Z" (-128898000) transition_time 0x70-0x73.7 (4)
0x070|            f8 c7 c5 20                        |    ...         |      [18]: "1966-03-01T02:00:00Z" (-121125600) transition_time 0x74-0x77.7 (4)
0x070|                        fa 0a d2 b0            |        ....    |      [19]: "1966-11-01T03:00:00Z" (-99954000) transition_time 0x78-0x7b.7 (4)
0x070|                                    fa a8 f8 a0|            ....|      [20]: "1967-03-01T02:00:00Z" (-89589600) transition_time 0x7c-0x7f.7 (4)
0x080|fb ec 06 30                                    |...0            |      [21]: "1967-11-01T03:00:00Z" (-68418000) transition_time 0x80-0x83.7 (4)
0x080|            fc 8b 7d a0                        |    ..}.        |      [22]: "1968-03-01T02:00:00Z" (-57967200) transition_time 0x84-0x87.7 (4)
0x080|                        1d c9 8e 3d            |        ...=    |      [23]: "1985-11-02T03:00:13Z" (499748413) transition_time 0x88-0x8b.7 (4)
0x080|                                    1e 78 d7 ad|            .x..|      [24]: "1986-03-15T02:00:13Z" (511236013) transition_time 0x8c-0x8f.7 (4)
0x090|1f a0 35 bd                                    |..5.            |      [25]: "1986-10-25T03:00:13Z" (530593213) transition_time 0x90-0x93.7 (4)
0x090|            20 33 cf ad                        |     3..        |      [26]: "1987-02-14T02:00:13Z" (540266413) transition_time 0x94-0x97.7 (4)
0x090|                        21 81 69 3d            |        !.i=    |      [27]: "1987-10-25T03:00:13Z" (562129213) transition_time 0x98-0x9b.7 (4)
0x090|                                    22 0b c8 ae|            "...|      [28]: "1988-02-07T02:00:14Z" (571197614) transition_time 0x9c-0x9f.7 (4)
0x0a0|23 58 10 be                                    |#X..            |      [29]: "1988-10-16T03:00:14Z" (592974014) transition_time 0xa0-0xa3.7 (4)
0x0a0|            23 e2 70 2e                        |    #.p.        |      [30]: "1989-01-29T02:00:14Z" (602042414) transition_time 0xa4-0xa7.7 (4)
0x0a0|                        25 37 f2 be            |        %7..    |      [31]: "1989-10-15T03:00:14Z" (624423614) transition_time 0xa8-0xab.7 (4)
0x0a0|                                    25 d4 c7 2f|            %../|      [32]: "1990-02-11T02:00:15Z" (634701615) transition_time 0xac-0xaf.7 (4)
0x0b0|30 80 79 43                                    |0.yC            |      [33]: "1995-10-15T03:00:19Z" (813726019) transition_time 0xb0-0xb3.7 (4)
0x0b0|            31 1d 4d b4                        |    1.M.        |      [34]: "1996-02-11T02:00:20Z" (824004020) transition_time 0xb4-0xb7.7 (4)
0x0b0|                        32 57 20 c4            |        2W .    |      [35]: "1996-10-06T03:00:20Z" (844570820) transition_time 0xb8-0xbb.7 (4)
0x0b0|                                    33 06 6a 34|            3.j4|      [36]: "1997-02-16T02:00:20Z" (856058420) transition_time 0xbc-0xbf.7 (4)
0x0c0|34 38 54 45                                    |48TE            |      [37]: "1997-10-06T03:00:21Z" (876106821) transition_time 0xc0-0xc3.7 (4)
0x0c0|            34 f8 c1 35                        |    4..5        |      [38]: "1998-03-01T02:00:21Z" (888717621) transition_time 0xc4-0xc7.7 (4)
0x0c0|                        36 20 1f 45            |        6 .E    |      [39]: "1998-10-11T03:00:21Z" (908074821) transition_time 0xc8-0xcb.7 (4)
0x0c0|                                    36 cf 68 b6|            6.h.|      [40]: "1999-02-21T02:00:22Z" (919562422) transition_time 0xcc-0xcf.7 (4)
0x0d0|37 f6 c6 c6                                    |7...            |      [41]: "1999-10-03T03:00:22Z" (938919622) transition_time 0xd0-0xd3.7 (4)
0x0d0|            38 b8 85 36                        |    8..6        |      [42]: "2000-02-27T02:00:22Z" (951616822) transition_time 0xd4-0xd7.7 (4)
0x0d0|                        39 df e3 46            |        9..F    |      [43]: "2000-10-08T03:00:22Z" (970974022) transition_time 0xd8-0xdb.7 (4)
0x0d0|                                    3a 8f 2c b6|            :.,.|      [44]: "2001-02-18T02:00:22Z" (982461622) transition_time 0xdc-0xdf.7 (4)
0x0e0|3b c8 ff c6                                    |;...            |      [45]: "2001-10-14T03:00:22Z" (1003028422) transition_time 0xe0-0xe3.7 (4)
0x0e0|            3c 6f 0e b6                        |    <o..        |      [46]: "2002-02-17T02:00:22Z" (1013911222) transition_time 0xe4-0xe7.7 (4)
0x0e0|                        3d c4 91 46            |        =..F    |      [47]: "2002-11-03T03:00:22Z" (1036292422) transition_time 0xe8-0xeb.7 (4)
0x0e0|                                    3e 4e f0 b6|            >N..|      [48]: "2003-02-16T02:00:22Z" (1045360822) transition_time 0xec-0xef.7 (4)
0x0f0|50 83 65 49                                    |P.eI            |      [49]: "2012-10-21T03:00:25Z" (1350788425) transition_time 0xf0-0xf3.7 (4)
0x0f0|            51 20 39 b9                        |    Q 9.        |      [50]: "2013-02-17T02:00:25Z" (1361066425) transition_time 0xf4-0xf7.7 (4)
0x0f0|                        64 9b 78 1b            |        d.x.    |      [51]: "2023-06-28T00:00:27Z" (1687910427) transition_time 0xf8-0xfb.7 (4)
     |                                               |                |    transition_types[0:52]: 0xfc-0x12f.7 (52)
0x0f0|                                    02         |            .   |      [0]: 2 transition_type 0xfc-0xfc.7 (1)
0x0f0|                                       01      |             .  |      [1]: 1 transition_type 0xfd-0xfd.7 (1)
0x0f0|                                          02   |              . |      [2]: 2 transition_type 0xfe-0xfe.7 (1)
0x0f0|                                             01|               .|      [3]: 1 transition_type 0xff-0xff.7 (1)
0x100|02                                             |.               |      [4]: 2 transition_type 0x100-0x100.7 (1)
0x100|   01                                          | .              |      [5]: 1 transition_type 0x101-0x101.7 (1)
0x100|      02                                       |  .             |      [6]: 2 transition_type 0x102-0x102.7 (1)
0x100|         01                                    |   .            |      [7]: 1 transition_type 0x103-0x103.7 (1)
0x100|            02                                 |    .           |      [8]: 2 transition_type 0x104-0x104.7 (1)
0x100|               01                              |     .          |      [9]: 1 transition_type 0x105-0x105.7 (1)
0x100|                  02                           |      .         |      [10]: 2 transition_type 0x106-0x106.7 (1)
0x100|                     01                        |       .        |      [11]: 1 transition_type 0x107-0x107.7 (1)
0x100|                        02                     |        .       |      [12]: 2 transition_type 0x108-0x108.7 (1)
0x100|                           01                  |         .      |      [13]: 1 transition_type 0x109-0x109.7 (1)
0x100|                              02               |          .     |      [14]: 2 transition_type 0x10a-0x10a.7 (1)
0x100|                                 01            |           .    |      [15]: 1 transition_type 0x10b-0x10b.7 (1)
0x100|                                    02         |            .   |      [16]: 2 transition_type 0x10c-0x10c.7 (1)
0x100|                                       01      |             .  |      [17]: 1 transition_type 0x10d-0x10d.7 (1)
0x100|                                          02   |              . |      [18]: 2 transition_type 0x10e-0x10e.7 (1)
0x100|                                             01|               .|      [19]: 1 transition_type 0x10f-0x10f.7 (1)
0x110|02                                             |.               |      [20]: 2 transition_type 0x110-0x110.7 (1)
0x110|   01                                          | .              |      [21]: 1 transition_type 0x111-0x111.7 (1)
0x110|      02                                       |  .             |      [22]: 2 transition_type 0x112-0x112.7 (1)
0x110|         01                                    |   .            |      [23]: 1 transition_type 0x113-0x113.7 (1)
0x110|            02                                 |    .           |      [24]: 2 transition_type 0x114-0x114.7 (1)
0x110|               01                              |     .          |      [25]: 1 transition_type 0x115-0x115.7 (1)
0x110|                  02                           |      .         |      [26]: 2 transition_type 0x116-0x116.7 (1)
0x110|                     01                        |       .        |      [27]: 1 transition_type 0x117-0x117.7 (1)
0x110|                        02                     |        .       |      [28]: 2 transition_type 0x118-0x118.7 (1)
0x110|                           01                  |         .      |      [29]: 1 transition_type 0x119-0x119.7 (1)
0x110|                              02               |          .     |      [30]: 2 transition_type 0x11a-0x11a.7 (1)
0x110|                                 01            |           .    |      [31]: 1 transition_type 0x11b-0x11b.7 (1)
0x110|                                    02         |            .   |      [32]: 2 transition_type 0x11c-0x11c.7 (1)
0x110|                                       01      |             .  |      [33]: 1 transition_type 0x11d-0x11d.7 (1)
0x110|                                          02   |              . |      [34]: 2 transition_type 0x11e-0x11e.7 (1)
0x110|                                             01|               .|      [35]: 1 transition_type 0x11f-0x11f.7 (1)
0x120|02                                             |.               |      [36]: 2 transition_type 0x120-0x120.7 (1)
0x120|   01                                          | .              |      [37]: 1 transition_type 0x121-0x121.7 (1)
0x120|      02                                       |  .             |      [38]: 2 transition_type 0x122-0x122.7 (1)
0x120|         01                                    |   .            |      [39]: 1 transition_type 0x123-0x123.7 (1)
0x120|            02                                 |    .           |      [40]: 2 transition_type 0x124-0x124.7 (1)
0x120|               01                              |     .          |      [41]: 1 transition_type 0x125-0x125.7 (1)
0x120|                  02                           |      .         |      [42]: 2 transition_type 0x126-0x126.7 (1)
0x120|                     01                        |       .        |      [43]: 1 transition_type 0x127-0x127.7 (1)
0x120|                        02                     |        .       |      [44]: 2 transition_type 0x128-0x128.7 (1)
0x120|                           01                  |         .      |      [45]: 1 transition_type 0x129-0x129.7 (1)
0x120|                              02               |          .     |      [46]: 2 transition_type 0x12a-0x12a.7 (1)
0x120|                                 01            |           .    |      [47]: 1 transition_type 0x12b-0x12b.7 (1)
0x120|                                    02         |            .   |      [48]: 2 transition_type 0x12c-0x12c.7 (1)
0x120|                                       01      |             .  |      [49]: 1 transition_type 0x12d-0x12d.7 (1)
0x120|                                          02   |              . |      [50]: 2 transition_type 0x12e-0x12e.7 (1)
0x120|                                             02|               .|      [51]: 2 transition_type 0x12f-0x12f.7 (1)
     |                                               |                |    local_time_type_records[0:3]: 0x130-0x141.7 (18)
     |                                               |                |      [0]{}: local_time_type 0x130-0x135.7 (6)
0x130|ff ff d2 d0                                    |....            |        utoff: -11568 (valid) 0x130-0x133.7 (4)
0x130|            00                                 |    .           |        dst: 0 (valid) 0x134-0x134.7 (1)
0x130|               00                              |     .          |        idx: 0 (valid) 0x135-0x135.7 (1)
     |                                               |                |      [1]{}: local_time_type 0x136-0x13b.7 (6)
0x130|                  ff ff e3 e0                  |      ....      |        utoff: -7200 (valid) 0x136-0x139.7 (4)
0x130|                              01               |          .     |        dst: 1 (valid) 0x13a-0x13a.7 (1)
0x130|                                 04            |           .    |        idx: 4 (valid) 0x13b-0x13b.7 (1)
     |                                               |                |      [2]{}: local_time_type 0x13c-0x141.7 (6)
0x130|                                    ff ff d5 d0|            ....|        utoff: -10800 (valid) 0x13c-0x13f.7 (4)
0x140|00                                             |.               |        dst: 0 (valid) 0x140-0x140.7 (1)
0x140|   08                                          | .              |        idx: 8 (valid) 0x141-0x141.7 (1)
     |                                               |                |    time_zone_designations[0:3]: 0x142-0x14d.7 (12)
0x140|      4c 4d 54 00                              |  LMT.          |      [0]: "LMT" time_zone_designation 0x142-0x145.7 (4)
0x140|                  2d 30 32 00                  |      -02.      |      [1]: "-02" time_zone_designation 0x146-0x149.7 (4)
0x140|                              2d 30 33 00      |          -03.  |      [2]: "-03" time_zone_designation 0x14a-0x14d.7 (4)
     |                                               |                |    leap_second_records[0:27]: 0x14e-0x225.7 (216)
     |                                               |                |      [0]{}: leap_second_record 0x14e-0x155.7 (8)
0x140|                                          04 b2|              ..|        occur: "1972-07-01T00:00:00Z" (78796800) 0x14e-0x151.7 (4)
0x150|58 00                                          |X.              |
0x150|      00 00 00 01                              |  ....          |        corr: 1 0x152-0x155.7 (4)
     |                                               |                |      [1]{}: leap_second_record 0x156-0x15d.7 (8)
0x150|                  05 a4 ec 01                  |      ....      |        occur: "1973-01-01T00:00:01Z" (94694401) 0x156-0x159.7 (4)
0x150|                              00 00 00 02      |          ....  |        corr: 2 0x15a-0x15d.7 (4)
     |                                               |                |      [2]{}: leap_second_record 0x15e-0x165.7 (8)
0x150|                                          07 86|              ..|        occur: "1974-01-01T00:00:02Z" (126230402) 0x15e-0x161.7 (4)
0x160|1f 82                                          |..              |
0x160|      00 00 00 03                              |  ....          |        corr: 3 0x162-0x165.7 (4)
     |                                               |                |      [3]{}: leap_second_record 0x166-0x16d.7 (8)
0x160|                  09 67 53 03                  |      .gS.      |        occur: "1975-01-01T00:00:03Z" (157766403) 0x166-0x169.7 (4)
0x160|                              00 00 00 04      |          ....  |        corr: 4 0x16a-0x16d.7 (4)
     |                                               |                |      [4]{}: leap_second_record 0x16e-0x175.7 (8)
0x160|                                          0b 48|              .H|        occur: "1976-01-01T00:00:04Z" (189302404) 0x16e-0x171.7 (4)
0x170|86 84                                          |..              |
0x170|      00 00 00 05                              |  ....          |        corr: 5 0x172-0x175.7 (4)
     |                                               |                |      [5]{}: leap_second_record 0x176-0x17d.7 (8)
0x170|                  0d 2b 0b 85                  |      .+..      |        occur: "1977-01-01T00:00:05Z" (220924805) 0x176-0x179.7 (4)
0x170|                              00 00 00 06      |          ....  |        corr: 6 0x17a-0x17d.7 (4)
     |                                               |                |      [6]{}: leap_second_record 0x17e-0x185.7 (8)
0x170|                                          0f 0c|              ..|        occur: "1978-01-01T00:00:06Z" (252460806) 0x17e-0x181.7 (4)
0x180|3f 06                                          |?.              |
0x180|      00 00 00 07                              |  ....          |        corr: 7 0x182-0x185.7 (4)
     |                                               |                |      [7]{}: leap_second_record 0x186-0x18d.7 (8)
0x180|                  10 ed 72 87                  |      ..r.      |        occur: "1979-01-01T00:00:07Z" (283996807) 0x186-0x189.7 (4)
0x180|                              00 00 00 08      |          ....  |        corr: 8 0x18a-0x18d.7 (4)
     |                                               |                |      [8]{}: leap_second_record 0x18e-0x195.7 (8)
0x180|                                          12 ce|              ..|        occur: "1980-01-01T00:00:08Z" (315532808) 0x18e-0x191.7 (4)
0x190|a6 08                                          |..              |
0x190|      00 00 00 09                              |  ....          |        corr: 9 0x192-0x195.7 (4)
     |                                               |                |      [9]{}: leap_second_record 0x196-0x19d.7 (8)
0x190|                  15 9f ca 89                  |      ....      |        occur: "1981-07-01T00:00:09Z" (362793609) 0x196-0x199.7 (4)
0x190|                              00 00 00 0a      |          ....  |        corr: 10 0x19a-0x19d.7 (4)
     |                                               |                |      [10]{}: leap_second_record 0x19e-0x1a5.7 (8)
0x190|                                          17 80|              ..|        occur: "1982-07-01T00:00:10Z" (394329610) 0x19e-0x1a1.7 (4)
0x1a0|fe 0a                                          |..              |
0x1a0|      00 00 00 0b                              |  ....          |        corr: 11 0x1a2-0x1a5.7 (4)
     |                                               |                |      [11]{}: leap_second_record 0x1a6-0x1ad.7 (8)
0x1a0|                  19 62 31 8b                  |      .b1.      |        occur: "1983-07-01T00:00:11Z" (425865611) 0x1a6-0x1a9.7 (4)
0x1a0|                              00 00 00 0c      |          ....  |        corr: 12 0x1aa-0x1ad.7 (4)
     |                                               |                |      [12]{}: leap_second_record 0x1ae-0x1b5.7 (8)
0x1a0|                                          1d 25|              .%|        occur: "1985-07-01T00:00:12Z" (489024012) 0x1ae-0x1b1.7 (4)
0x1b0|ea 0c                                          |..              |
0x1b0|      00 00 00 0d                              |  ....          |        corr: 13 0x1b2-0x1b5.7 (4)
     |                                               |                |      [13]{}: leap_second_record 0x1b6-0x1bd.7 (8)
0x1b0|                  21 da e5 0d                  |      !...      |        occur: "1988-01-01T00:00:13Z" (567993613) 0x1b6-0x1b9.7 (4)
0x1b0|                              00 00 00 0e      |          ....  |        corr: 14 0x1ba-0x1bd.7 (4)
     |                                               |                |      [14]{}: leap_second_record 0x1be-0x1c5.7 (8)
0x1b0|                                          25 9e|              %.|        occur: "1990-01-01T00:00:14Z" (631152014) 0x1be-0x1c1.7 (4)
0x1c0|9d 8e                                          |..              |
0x1c0|      00 00 00 0f                              |  ....          |        corr: 15 0x1c2-0x1c5.7 (4)
     |                                               |                |      [15]{}: leap_second_record 0x1c6-0x1cd.7 (8)
0x1c0|                  27 7f d1 0f                  |      '...      |        occur: "1991-01-01T00:00:15Z" (662688015) 0x1c6-0x1c9.7 (4)
0x1c0|                              00 00 00 10      |          ....  |        corr: 16 0x1ca-0x1cd.7 (4)
     |                                               |                |      [16]{}: leap_second_record 0x1ce-0x1d5.7 (8)
0x1c0|                                          2a 50|              *P|        occur: "1992-07-01T00:00:16Z" (709948816) 0x1ce-0x1d1.7 (4)
0x1d0|f5 90                                          |..              |
0x1d0|      00 00 00 11                              |  ....          |        corr: 17 0x1d2-0x1d5.7 (4)
     |                                               |                |      [17]{}: leap_second_record 0x1d6-0x1dd.7 (8)
0x1d0|                  2c 32 29 11                  |      ,2).      |        occur: "1993-07-01T00:00:17Z" (741484817) 0x1d6-0x1d9.7 (4)
0x1d0|                              00 00 00 12      |          ....  |        corr: 18 0x1da-0x1dd.7 (4)
     |                                               |                |      [18]{}: leap_second_record 0x1de-0x1e5.7 (8)
0x1d0|                                          2e 13|              ..|        occur: "1994-07-01T00:00:18Z" (773020818) 0x1de-0x1e1.7 (4)
0x1e0|5c 92                                          |\.              |
0x1e0|      00 00 00 13                              |  ....          |        corr: 19 0x1e2-0x1e5.7 (4)
     |                                               |                |      [19]{}: leap_second_record 0x1e6-0x1ed.7 (8)
0x1e0|                  30 e7 24 13                  |      0.$.      |        occur: "1996-01-01T00:00:19Z" (820454419) 0x1e6-0x1e9.7 (4)
0x1e0|                              00 00 00 14      |          ....  |        corr: 20 0x1ea-0x1ed.7 (4)
     |                                               |                |      [20]{}: leap_second_record 0x1ee-0x1f5.7 (8)
0x1e0|                                          33 b8|              3.|        occur: "1997-07-01T00:00:20Z" (867715220) 0x1ee-0x1f1.7 (4)
0x1f0|48 94                                          |H.              |
0x1f0|      00 00 00 15                              |  ....          |        corr: 21 0x1f2-0x1f5.7 (4)
     |                                               |                |      [21]{}: leap_second_record 0x1f6-0x1fd.7 (8)
0x1f0|                  36 8c 10 15                  |      6...      |        occur: "1999-01-01T00:00:21Z" (915148821) 0x1f6-0x1f9.7 (4)
0x1f0|                              00 00 00 16      |          ....  |        corr: 22 0x1fa-0x1fd.7 (4)
     |                                               |                |      [22]{}: leap_second_record 0x1fe-0x205.7 (8)
0x1f0|                                          43 b7|              C.|        occur: "2006-01-01T00:00:22Z" (1136073622) 0x1fe-0x201.7 (4)
0x200|1b 96                                          |..              |
0x200|      00 00 00 17                              |  ....          |        corr: 23 0x202-0x205.7 (4)
     |                                               |                |      [23]{}: leap_second_record 0x206-0x20d.7 (8)
0x200|                  49 5c 07 97                  |      I\..      |        occur: "2009-01-01T00:00:23Z" (1230768023) 0x206-0x209.7 (4)
0x200|                              00 00 00 18      |          ....  |        corr: 24 0x20a-0x20d.7 (4)
     |                                               |                |      [24]{}: leap_second_record 0x20e-0x215.7 (8)
0x200|                                          4f ef|              O.|        occur: "2012-07-01T00:00:24Z" (1341100824) 0x20e-0x211.7 (4)
0x210|93 18                                          |..              |
0x210|      00 00 00 19                              |  ....          |        corr: 25 0x212-0x215.7 (4)
     |                                               |                |      [25]{}: leap_second_record 0x216-0x21d.7 (8)
0x210|                  55 93 2d 99                  |      U.-.      |        occur: "2015-07-01T00:00:25Z" (1435708825) 0x216-0x219.7 (4)
0x210|                              00 00 00 1a      |          ....  |        corr: 26 0x21a-0x21d.7 (4)
     |                                               |                |      [26]{}: leap_second_record 0x21e-0x225.7 (8)
0x210|                                          58 68|              Xh|        occur: "2017-01-01T00:00:26Z" (1483228826) 0x21e-0x221.7 (4)
0x220|46 9a                                          |F.              |
0x220|      00 00 00 1b                              |  ....          |        corr: 27 0x222-0x225.7 (4)
     |                                               |                |    standard_wall_indicators[0:0]: 0x226-NA (0)
     |                                               |                |    ut_local_indicators[0:0]: 0x226-NA (0)
     |                                               |                |  v2plusheader{}: 0x226-0x251.7 (44)
0x220|                  54 5a 69 66                  |      TZif      |    magic: 0x545a6966 (valid) 0x226-0x229.7 (4)
0x220|                              32               |          2     |    ver: "2" (0x32) (valid) 0x22a-0x22a.7 (1)
0x220|                                 00 00 00 00 00|           .....|    reserved: raw bits 0x22b-0x239.7 (15)
0x230|00 00 00 00 00 00 00 00 00 00                  |..........      |
0x230|                              00 00 00 00      |          ....  |    isutcnt: 0 0x23a-0x23d.7 (4)
0x230|                                          00 00|              ..|    isstdcnt: 0 0x23e-0x241.7 (4)
0x240|00 00                                          |..              |
0x240|      00 00 00 1b                              |  ....          |    leapcnt: 27 0x242-0x245.7 (4)
0x240|                  00 00 00 34                  |      ...4      |    timecnt: 52 0x246-0x249.7 (4)
0x240|                              00 00 00 03      |          ....  |    typecnt: 3 0x24a-0x24d.7 (4)
0x240|                                          00 00|              ..|    charcnt: 12 0x24e-0x251.7 (4)
0x250|00 0c                                          |..              |
     |                                               |                |  v2plusdatablock{}: 0x252-0x587.7 (822)
     |                                               |                |    transition_times[0:52]: 0x252-0x3f1.7 (416)
0x250|      ff ff ff ff 96 aa 74 30                  |  ......t0      |      [0]: "1914-01-01T03:12:48Z" (-1767214032) transition_time 0x252-0x259.7 (8)
0x250|                              ff ff ff ff b8 0f|          ......|      [1]: "1931-10-03T14:00:00Z" (-1206957600) transition_time 0x25a-0x261.7 (8)
0x260|49 e0                                          |I.              |
0x260|      ff ff ff ff b8 fd 40 a0                  |  ......@.      |      [2]: "1932-04-01T02:00:00Z" (-1191362400) transition_time 0x262-0x269.7 (8)
0x260|                              ff ff ff ff b9 f1|          ......|      [3]: "1932-10-03T03:00:00Z" (-1175374800) transition_time 0x26a-0x271.7 (8)
0x270|34 30                                          |40              |
0x270|      ff ff ff ff ba de 74 20                  |  ......t       |      [4]: "1933-04-01T02:00:00Z" (-1159826400) transition_time 0x272-0x279.7 (8)
0x270|                              ff ff ff ff da 38|          .....8|      [5]: "1949-12-01T03:00:00Z" (-633819600) transition_time 0x27a-0x281.7 (8)
0x280|ae 30                                          |.0              |
0x280|      ff ff ff ff da eb fa 30                  |  .......0      |      [6]: "1950-04-16T03:00:00Z" (-622069200) transition_time 0x282-0x289.7 (8)
0x280|                              ff ff ff ff dc 19|          ......|      [7]: "1950-12-01T03:00:00Z" (-602283600) transition_time 0x28a-0x291.7 (8)
0x290|e1 b0                                          |..              |
0x290|      ff ff ff ff dc b9 59 20                  |  ......Y       |      [8]: "1951-04-01T02:00:00Z" (-591832800) transition_time 0x292-0x299.7 (8)
0x290|                              ff ff ff ff dd fb|          ......|      [9]: "1951-12-01T03:00:00Z" (-570747600) transition_time 0x29a-0x2a1.7 (8)
0x2a0|15 30                                          |.0              |
0x2a0|      ff ff ff ff de 9b de 20                  |  .......       |      [10]: "1952-04-01T02:00:00Z" (-560210400) transition_time 0x2a2-0x2a9.7 (8)
0x2a0|                              ff ff ff ff df dd|          ......|      [11]: "1952-12-01T03:00:00Z" (-539125200) transition_time 0x2aa-0x2b1.7 (8)
0x2b0|9a 30                                          |.0              |
0x2b0|      ff ff ff ff e0 54 33 20                  |  .....T3       |      [12]: "1953-03-01T02:00:00Z" (-531352800) transition_time 0x2b2-0x2b9.7 (8)
0x2b0|                              ff ff ff ff f4 97|          ......|      [13]: "1963-12-09T03:00:00Z" (-191365200) transition_time 0x2ba-0x2c1.7 (8)
0x2c0|ff b0                                          |..              |
0x2c0|      ff ff ff ff f5 05 5e 20                  |  ......^       |      [14]: "1964-03-01T02:00:00Z" (-184197600) transition_time 0x2c2-0x2c9.7 (8)
0x2c0|                              ff ff ff ff f6 c0|          ......|      [15]: "1965-01-31T03:00:00Z" (-155163600) transition_time 0x2ca-0x2d1.7 (8)
0x2d0|64 30                                          |d0              |
0x2d0|      ff ff ff ff f7 0e 1e a0                  |  ........      |      [16]: "1965-03-31T02:00:00Z" (-150069600) transition_time 0x2d2-0x2d9.7 (8)
0x2d0|                              ff ff ff ff f8 51|          .....Q|      [17]: "1965-12-01T03:00:00Z" (-128898000) transition_time 0x2da-0x2e1.7 (8)
0x2e0|2c 30                                          |,0              |
0x2e0|      ff ff ff ff f8 c7 c5 20                  |  .......       |      [18]: "1966-03-01T02:00:00Z" (-121125600) transition_time 0x2e2-0x2e9.7 (8)
0x2e0|                              ff ff ff ff fa 0a|          ......|      [19]: "1966-11-01T03:00:00Z" (-99954000) transition_time 0x2ea-0x2f1.7 (8)
0x2f0|d2 b0                                          |..              |
0x2f0|      ff ff ff ff fa a8 f8 a0                  |  ........      |      [20]: "1967-03-01T02:00:00Z" (-89589600) transition_time 0x2f2-0x2f9.7 (8)
0x2f0|                              ff ff ff ff fb ec|          ......|      [21]: "1967-11-01T03:00:00Z" (-68418000) transition_time 0x2fa-0x301.7 (8)
0x300|06 30                                          |.0              |
0x300|      ff ff ff ff fc 8b 7d a0                  |  ......}.      |      [22]: "1968-03-01T02:00:00Z" (-57967200) transition_time 0x302-0x309.7 (8)
0x300|                              00 00 00 00 1d c9|          ......|      [23]: "1985-11-02T03:00:13Z" (499748413) transition_time 0x30a-0x311.7 (8)
0x310|8e 3d                                          |.=              |
0x310|      00 00 00 00 1e 78 d7 ad                  |  .....x..      |      [24]: "1986-03-15T02:00:13Z" (511236013) transition_time 0x312-0x319.7 (8)
0x310|                              00 00 00 00 1f a0|          ......|      [25]: "1986-10-25T03:00:13Z" (530593213) transition_time 0x31a-0x321.7 (8)
0x320|35 bd                                          |5.              |
0x320|      00 00 00 00 20 33 cf ad                  |  .... 3..      |      [26]: "1987-02-14T02:00:13Z" (540266413) transition_time 0x322-0x329.7 (8)
0x320|                              00 00 00 00 21 81|          ....!.|      [27]: "1987-10-25T03:00:13Z" (562129213) transition_time 0x32a-0x331.7 (8)
0x330|69 3d                                          |i=              |
0x330|      00 00 00 00 22 0b c8 ae                  |  ...."...      |      [28]: "1988-02-07T02:00:14Z" (571197614) transition_time 0x332-0x339.7 (8)
0x330|                              00 00 00 00 23 58|          ....#X|      [29]: "1988-10-16T03:00:14Z" (592974014) transition_time 0x33a-0x341.7 (8)
0x340|10 be                                          |..              |
0x340|      00 00 00 00 23 e2 70 2e                  |  ....#.p.      |      [30]: "1989-01-29T02:00:14Z" (602042414) transition_time 0x342-0x349.7 (8)
0x340|                              00 00 00 00 25 37|          ....%7|      [31]: "1989-10-15T03:00:14Z" (624423614) transition_time 0x34a-0x351.7 (8)
0x350|f2 be                                          |..              |
0x350|      00 00 00 00 25 d4 c7 2f                  |  ....%../      |      [32]: "1990-02-11T02:00:15Z" (634701615) transition_time 0x352-0x359.7 (8)
0x350|                              00 00 00 00 30 80|          ....0.|      [33]: "1995-10-15T03:00:19Z" (813726019) transition_time 0x35a-0x361.7 (8)
0x360|79 43                                          |yC              |
0x360|      00 00 00 00 31 1d 4d b4                  |  ....1.M.      |      [34]: "1996-02-11T02:00:20Z" (824004020) transition_time 0x362-0x369.7 (8)
0x360|                              00 00 00 00 32 57|          ....2W|      [35]: "1996-10-06T03:00:20Z" (844570820) transition_time 0x36a-0x371.7 (8)
0x370|20 c4                                          | .              |
0x370|      00 00 00 00 33 06 6a 34                  |  ....3.j4      |      [36]: "1997-02-16T02:00:20Z" (856058420) transition_time 0x372-0x379.7 (8)
0x370|                              00 00 00 00 34 38|          ....48|      [37]: "1997-10-06T03:00:21Z" (876106821) transition_time 0x37a-0x381.7 (8)
0x380|54 45                                          |TE              |
0x380|      00 00 00 00 34 f8 c1 35                  |  ....4..5      |      [38]: "1998-03-01T02:00:21Z" (888717621) transition_time 0x382-0x389.7 (8)
0x380|                              00 00 00 00 36 20|          ....6 |      [39]: "1998-10-11T03:00:21Z" (908074821) transition_time 0x38a-0x391.7 (8)
0x390|1f 45                                          |.E              |
0x390|      00 00 00 00 36 cf 68 b6                  |  ....6.h.      |      [40]: "1999-02-21T02:00:22Z" (919562422) transition_time 0x392-0x399.7 (8)
0x390|                              00 00 00 00 37 f6|          ....7.|      [41]: "1999-10-03T03:00:22Z" (938919622) transition_time 0x39a-0x3a1.7 (8)
0x3a0|c6 c6                                          |..              |
0x3a0|      00 00 00 00 38 b8 85 36                  |  ....8..6      |      [42]: "2000-02-27T02:00:22Z" (951616822) transition_time 0x3a2-0x3a9.7 (8)
0x3a0|                              00 00 00 00 39 df|          ....9.|      [43]: "2000-10-08T03:00:22Z" (970974022) transition_time 0x3aa-0x3b1.7 (8)
0x3b0|e3 46                                          |.F              |
0x3b0|      00 00 00 00 3a 8f 2c b6                  |  ....:.,.      |      [44]: "2001-02-18T02:00:22Z" (982461622) transition_time 0x3b2-0x3b9.7 (8)
0x3b0|                              00 00 00 00 3b c8|          ....;.|      [45]: "2001-10-14T03:00:22Z" (1003028422) transition_time 0x3ba-0x3c1.7 (8)
0x3c0|ff c6                                          |..              |
0x3c0|      00 00 00 00 3c 6f 0e b6                  |  ....<o..      |      [46]: "2002-02-17T02:00:22Z" (1013911222) transition_time 0x3c2-0x3c9.7 (8)
0x3c0|                              00 00 00 00 3d c4|          ....=.|      [47]: "2002-11-03T03:00:22Z" (1036292422) transition_time 0x3ca-0x3d1.7 (8)
0x3d0|91 46                                          |.F              |
0x3d0|      00 00 00 00 3e 4e f0 b6                  |  ....>N..      |      [48]: "2003-02-16T02:00:22Z" (1045360822) transition_time 0x3d2-0x3d9.7 (8)
0x3d0|                              00 00 00 00 50 83|          ....P.|      [49]: "2012-10-21T03:00:25Z" (1350788425) transition_time 0x3da-0x3e1.7 (8)
0x3e0|65 49                                          |eI              |
0x3e0|      00 00 00 00 51 20 39 b9                  |  ....Q 9.      |      [50]: "2013-02-17T02:00:25Z" (1361066425) transition_time 0x3e2-0x3e9.7 (8)
0x3e0|                              00 00 00 00 64 9b|          ....d.|      [51]: "2023-06-28T00:00:27Z" (1687910427) transition_time 0x3ea-0x3f1.7 (8)
0x3f0|78 1b                                          |x.              |
     |                                               |                |    transition_types[0:52]: 0x3f2-0x425.7 (52)
0x3f0|      02                                       |  .             |      [0]: 2 transition_type 0x3f2-0x3f2.7 (1)
0x3f0|         01                                    |   .            |      [1]: 1 transition_type 0x3f3-0x3f3.7 (1)
0x3f0|            02                                 |    .           |      [2]: 2 transition_type 0x3f4-0x3f4.7 (1)
0x3f0|               01                              |     .          |      [3]: 1 transition_type 0x3f5-0x3f5.7 (1)
0x3f0|                  02                           |      .         |      [4]: 2 transition_type 0x3f6-0x3f6.7 (1)
0x3f0|                     01                        |       .        |      [5]: 1 transition_type 0x3f7-0x3f7.7 (1)
0x3f0|                        02                     |        .       |      [6]: 2 transition_type 0x3f8-0x3f8.7 (1)
0x3f0|                           01                  |         .      |      [7]: 1 transition_type 0x3f9-0x3f9.7 (1)
0x3f0|                              02               |          .     |      [8]: 2 transition_type 0x3fa-0x3fa.7 (1)
0x3f0|                                 01            |           .    |      [9]: 1 transition_type 0x3fb-0x3fb.7 (1)
0x3f0|                                    02         |            .   |      [10]: 2 transition_type 0x3fc-0x3fc.7 (1)
0x3f0|                                       01      |             .  |      [11]: 1 transition_type 0x3fd-0x3fd.7 (1)
0x3f0|                                          02   |              . |      [12]: 2 transition_type 0x3fe-0x3fe.7 (1)
0x3f0|                                             01|               .|      [13]: 1 transition_type 0x3ff-0x3ff.7 (1)
0x400|02                                             |.               |      [14]: 2 transition_type 0x400-0x400.7 (1)
0x400|   01                                          | .              |      [15]: 1 transition_type 0x401-0x401.7 (1)
0x400|      02                                       |  .             |      [16]: 2 transition_type 0x402-0x402.7 (1)
0x400|         01                                    |   .            |      [17]: 1 transition_type 0x403-0x403.7 (1)
0x400|            02                                 |    .           |      [18]: 2 transition_type 0x404-0x404.7 (1)
0x400|               01                              |     .          |      [19]: 1 transition_type 0x405-0x405.7 (1)
0x400|                  02                           |      .         |      [20]: 2 transition_type 0x406-0x406.7 (1)
0x400|                     01                        |       .        |      [21]: 1 transition_type 0x407-0x407.7 (1)
0x400|                        02                     |        .       |      [22]: 2 transition_type 0x408-0x408.7 (1)
0x400|                           01                  |         .      |      [23]: 1 transition_type 0x409-0x409.7 (1)
0x400|                              02               |          .     |      [24]: 2 transition_type 0x40a-0x40a.7 (1)
0x400|                                 01            |           .    |      [25]: 1 transition_type 0x40b-0x40b.7 (1)
0x400|                                    02         |            .   |      [26]: 2 transition_type 0x40c-0x40c.7 (1)
0x400|                                       01      |             .  |      [27]: 1 transition_type 0x40d-0x40d.7 (1)
0x400|                                          02   |              . |      [28]: 2 transition_type 0x40e-0x40e.7 (1)
0x400|                                             01|               .|      [29]: 1 transition_type 0x40f-0x40f.7 (1)
0x410|02                                             |.               |      [30]: 2 transition_type 0x410-0x410.7 (1)
0x410|   01                                          | .              |      [31]: 1 transition_type 0x411-0x411.7 (1)
0x410|      02                                       |  .             |      [32]: 2 transition_type 0x412-0x412.7 (1)
0x410|         01                                    |   .            |      [33]: 1 transition_type 0x413-0x413.7 (1)
0x410|            02                                 |    .           |      [34]: 2 transition_type 0x414-0x414.7 (1)
0x410|               01                              |     .          |      [35]: 1 transition_type 0x415-0x415.7 (1)
0x410|                  02                           |      .         |      [36]: 2 transition_type 0x416-0x416.7 (1)
0x410|                     01                        |       .        |      [37]: 1 transition_type 0x417-0x417.7 (1)
0x410|                        02                     |        .       |      [38]: 2 transition_type 0x418-0x418.7 (1)
0x410|                           01                  |         .      |      [39]: 1 transition_type 0x419-0x419.7 (1)
0x410|                              02               |          .     |      [40]: 2 transition_type 0x41a-0x41a.7 (1)
0x410|                                 01            |           .    |      [41]: 1 transition_type 0x41b-0x41b.7 (1)
0x410|                                    02         |            .   |      [42]: 2 transition_type 0x41c-0x41c.7 (1)
0x410|                                       01      |             .  |      [43]: 1 transition_type 0x41d-0x41d.7 (1)
0x410|                                          02   |              . |      [44]: 2 transition_type 0x41e-0x41e.7 (1)
0x410|                                             01|               .|      [45]: 1 transition_type 0x41f-0x41f.7 (1)
0x420|02                                             |.               |      [46]: 2 transition_type 0x420-0x420.7 (1)
0x420|   01                                          | .              |      [47]: 1 transition_type 0x421-0x421.7 (1)
0x420|      02                                       |  .             |      [48]: 2 transition_type 0x422-0x422.7 (1)
0x420|         01                                    |   .            |      [49]: 1 transition_type 0x423-0x423.7 (1)
0x420|            02                                 |    .           |      [50]: 2 transition_type 0x424-0x424.7 (1)
0x420|               02                              |     .          |      [51]: 2 transition_type 0x425-0x425.7 (1)
     |                                               |                |    local_time_type_records[0:3]: 0x426-0x437.7 (18)
     |                                               |                |      [0]{}: local_time_type 0x426-0x42b.7 (6)
0x420|                  ff ff d2 d0                  |      ....      |        utoff: -11568 (valid) 0x426-0x429.7 (4)
0x420|                              00               |          .     |        dst: 0 (valid) 0x42a-0x42a.7 (1)
0x420|                                 00            |           .    |        idx: 0 (valid) 0x42b-0x42b.7 (1)
     |                                               |                |      [1]{}: local_time_type 0x42c-0x431.7 (6)
0x420|                                    ff ff e3 e0|            ....|        utoff: -7200 (valid) 0x42c-0x42f.7 (4)
0x430|01                                             |.               |        dst: 1 (valid) 0x430-0x430.7 (1)
0x430|   04                                          | .              |        idx: 4 (valid) 0x431-0x431.7 (1)
     |                                               |                |      [2]{}: local_time_type 0x432-0x437.7 (6)
0x430|      ff ff d5 d0                              |  ....          |        utoff: -10800 (valid) 0x432-0x435.7 (4)
0x430|                  00                           |      .         |        dst: 0 (valid) 0x436-0x436.7 (1)
0x430|                     08                        |       .        |        idx: 8 (valid) 0x437-0x437.7 (1)
     |                                               |                |    time_zone_designations[0:3]: 0x438-0x443.7 (12)
0x430|                        4c 4d 54 00            |        LMT.    |      [0]: "LMT" time_zone_designation 0x438-0x43b.7 (4)
0x430|                                    2d 30 32 00|            -02.|      [1]: "-02" time_zone_designation 0x43c-0x43f.7 (4)
0x440|2d 30 33 00                                    |-03.            |      [2]: "-03" time_zone_designation 0x440-0x443.7 (4)
     |                                               |                |    leap_second_records[0:27]: 0x444-0x587.7 (324)
     |                                               |                |      [0]{}: leap_second_record 0x444-0x44f.7 (12)
0x440|            00 00 00 00 04 b2 58 00            |    ......X.    |        occur: "1972-07-01T00:00:00Z" (78796800) 0x444-0x44b.7 (8)
0x440|                                    00 00 00 01|            ....|        corr: 1 0x44c-0x44f.7 (4)
     |                                               |                |      [1]{}: leap_second_record 0x450-0x45b.7 (12)
0x450|00 00 00 00 05 a4 ec 01                        |........        |        occur: "1973-01-01T00:00:01Z" (94694401) 0x450-0x457.7 (8)
0x450|                        00 00 00 02            |        ....    |        corr: 2 0x458-0x45b.7 (4)
     |                                               |                |      [2]{}: leap_second_record 0x45c-0x467.7 (12)
0x450|                                    00 00 00 00|            ....|        occur: "1974-01-01T00:00:02Z" (126230402) 0x45c-0x463.7 (8)
0x460|07 86 1f 82                                    |....            |
0x460|            00 00 00 03                        |    ....        |        corr: 3 0x464-0x467.7 (4)
     |                                               |                |      [3]{}: leap_second_record 0x468-0x473.7 (12)
0x460|                        00 00 00 00 09 67 53 03|        .....gS.|        occur: "1975-01-01T00:00:03Z" (157766403) 0x468-0x46f.7 (8)
0x470|00 00 00 04                                    |....            |        corr: 4 0x470-0x473.7 (4)
     |                                               |                |      [4]{}: leap_second_record 0x474-0x47f.7 (12)
0x470|            00 00 00 00 0b 48 86 84            |    .....H..    |        occur: "1976-01-01T00:00:04Z" (189302404) 0x474-0x47b.7 (8)
0x470|                                    00 00 00 05|            ....|        corr: 5 0x47c-0x47f.7 (4)
     |                                               |                |      [5]{}: leap_second_record 0x480-0x48b.7 (12)
0x480|00 00 00 00 0d 2b 0b 85                        |.....+..        |        occur: "1977-01-01T00:00:05Z" (220924805) 0x480-0x487.7 (8)
0x480|                        00 00 00 06            |        ....    |        corr: 6 0x488-0x48b.7 (4)
     |                                               |                |      [6]{}: leap_second_record 0x48c-0x497.7 (12)
0x480|                                    00 00 00 00|            ....|        occur: "1978-01-01T00:00:06Z" (252460806) 0x48c-0x493.7 (8)
0x490|0f 0c 3f 06                                    |..?.            |
0x490|            00 00 00 07                        |    ....        |        corr: 7 0x494-0x497.7 (4)
     |                                               |                |      [7]{}: leap_second_record 0x498-0x4a3.7 (12)
0x490|                        00 00 00 00 10 ed 72 87|        ......r.|        occur: "1979-01-01T00:00:07Z" (283996807) 0x498-0x49f.7 (8)
0x4a0|00 00 00 08                                    |....            |        corr: 8 0x4a0-0x4a3.7 (4)
     |                                               |                |      [8]{}: leap_second_record 0x4a4-0x4af.7 (12)
0x4a0|            00 00 00 00 12 ce a6 08            |    ........    |        occur: "1980-01-01T00:00:08Z" (315532808) 0x4a4-0x4ab.7 (8)
0x4a0|                                    00 00 00 09|            ....|        corr: 9 0x4ac-0x4af.7 (4)
     |                                               |                |      [9]{}: leap_second_record 0x4b0-0x4bb.7 (12)
0x4b0|00 00 00 00 15 9f ca 89                        |........        |        occur: "1981-07-01T00:00:09Z" (362793609) 0x4b0-0x4b7.7 (8)
0x4b0|                        00 00 00 0a            |        ....    |        corr: 10 0x4b8-0x4bb.7 (4)
     |                                               |                |      [10]{}: leap_second_record 0x4bc-0x4c7.7 (12)
0x4b0|                                    00 00 00 00|            ....|        occur: "1982-07-01T00:00:10Z" (394329610) 0x4bc-0x4c3.7 (8)
0x4c0|17 80 fe 0a                                    |....            |
0x4c0|            00 00 00 0b                        |    ....        |        corr: 11 0x4c4-0x4c7.7 (4)
     |                                               |                |      [11]{}: leap_second_record 0x4c8-0x4d3.7 (12)
0x4c0|                        00 00 00 00 19 62 31 8b|        .....b1.|        occur: "1983-07-01T00:00:11Z" (425865611) 0x4c8-0x4cf.7 (8)
0x4d0|00 00 00 0c                                    |....            |        corr: 12 0x4d0-0x4d3.7 (4)
     |                                               |                |      [12]{}: leap_second_record 0x4d4-0x4df.7 (12)
0x4d0|            00 00 00 00 1d 25 ea 0c            |    .....%..    |        occur: "1985-07-01T00:00:12Z" (489024012) 0x4d4-0x4db.7 (8)
0x4d0|                                    00 00 00 0d|            ....|        corr: 13 0x4dc-0x4df.7 (4)
     |                                               |                |      [13]{}: leap_second_record 0x4e0-0x4eb.7 (12)
0x4e0|00 00 00 00 21 da e5 0d                        |....!...        |        occur: "1988-01-01T00:00:13Z" (567993613) 0x4e0-0x4e7.7 (8)
0x4e0|                        00 00 00 0e            |        ....    |        corr: 14 0x4e8-0x4eb.7 (4)
     |                                               |                |      [14]{}: leap_second_record 0x4ec-0x4f7.7 (12)
0x4e0|                                    00 00 00 00|            ....|        occur: "1990-01-01T00:00:14Z" (631152014) 0x4ec-0x4f3.7 (8)
0x4f0|25 9e 9d 8e                                    |%...            |
0x4f0|            00 00 00 0f                        |    ....        |        corr: 15 0x4f4-0x4f7.7 (4)
     |                                               |                |      [15]{}: leap_second_record 0x4f8-0x503.7 (12)
0x4f0|                        00 00 00 00 27 7f d1 0f|        ....'...|        occur: "1991-01-01T00:00:15Z" (662688015) 0x4f8-0x4ff.7 (8)
0x500|00 00 00 10                                    |....            |        corr: 16 0x500-0x503.7 (4)
     |                                               |                |      [16]{}: leap_second_record 0x504-0x50f.7 (12)
0x500|            00 00 00 00 2a 50 f5 90            |    ....*P..    |        occur: "1992-07-01T00:00:16Z" (709948816) 0x504-0x50b.7 (8)
0x500|                                    00 00 00 11|            ....|        corr: 17 0x50c-0x50f.7 (4)
     |                                               |                |      [17]{}: leap_second_record 0x510-0x51b.7 (12)
0x510|00 00 00 00 2c 32 29 11                        |....,2).        |        occur: "1993-07-01T00:00:17Z" (741484817) 0x510-0x517.7 (8)
0x510|                        00 00 00 12            |        ....    |        corr: 18 0x518-0x51b.7 (4)
     |                                               |                |      [18]{}: leap_second_record 0x51c-0x527.7 (12)
0x510|                                    00 00 00 00|            ....|        occur: "1994-07-01T00:00:18Z" (773020818) 0x51c-0x523.7 (8)
0x520|2e 13 5c 92                                    |..\.            |
0x520|            00 00 00 13                        |    ....        |        corr: 19 0x524-0x527.7 (4)
     |                                               |                |      [19]{}: leap_second_record 0x528-0x533.7 (12)
0x520|                        00 00 00 00 30 e7 24 13|        ....0.$.|        occur: "1996-01-01T00:00:19Z" (820454419) 0x528-0x52f.7 (8)
0x530|00 00 00 14                                    |....            |        corr: 20 0x530-0x533.7 (4)
     |                                               |                |      [20]{}: leap_second_record 0x534-0x53f.7 (12)
0x530|            00 00 00 00 33 b8 48 94            |    ....3.H.    |        occur: "1997-07-01T00:00:20Z" (867715220) 0x534-0x53b.7 (8)
0x530|                                    00 00 00 15|            ....|        corr: 21 0x53c-0x53f.7 (4)
     |                                               |                |      [21]{}: leap_second_record 0x540-0x54b.7 (12)
0x540|00 00 00 00 36 8c 10 15                        |....6...        |        occur: "1999-01-01T00:00:21Z" (915148821) 0x540-0x547.7 (8)
0x540|                        00 00 00 16            |        ....    |        corr: 22 0x548-0x54b.7 (4)
     |                                               |                |      [22]{}: leap_second_record 0x54c-0x557.7 (12)
0x540|                                    00 00 00 00|            ....|        occur: "2006-01-01T00:00:22Z" (1136073622) 0x54c-0x553.7 (8)
0x550|43 b7 1b 96                                    |C...            |
0x550|            00 00 00 17                        |    ....        |        corr: 23 0x554-0x557.7 (4)
     |                                               |                |      [23]{}: leap_second_record 0x558-0x563.7 (12)
0x550|                        00 00 00 00 49 5c 07 97|        ....I\..|        occur: "2009-01-01T00:00:23Z" (1230768023) 0x558-0x55f.7 (8)
0x560|00 00 00 18                                    |....            |        corr: 24 0x560-0x563.7 (4)
     |                                               |                |      [24]{}: leap_second_record 0x564-0x56f.7 (12)
0x560|            00 00 00 00 4f ef 93 18            |    ....O...    |        occur: "2012-07-01T00:00:24Z" (1341100824) 0x564-0x56b.7 (8)
0x560|                                    00 00 00 19|            ....|        corr: 25 0x56c-0x56f.7 (4)
     |                                               |                |      [25]{}: leap_second_record 0x570-0x57b.7 (12)
0x570|00 00 00 00 55 93 2d 99                        |....U.-.        |        occur: "2015-07-01T00:00:25Z" (1435708825) 0x570-0x577.7 (8)
0x570|                        00 00 00 1a            |        ....    |        corr: 26 0x578-0x57b.7 (4)
     |                                               |                |      [26]{}: leap_second_record 0x57c-0x587.7 (12)
0x570|                                    00 00 00 00|            ....|        occur: "2017-01-01T00:00:26Z" (1483228826) 0x57c-0x583.7 (8)
0x580|58 68 46 9a                                    |XhF.            |
0x580|            00 00 00 1b                        |    ....        |        corr: 27 0x584-0x587.7 (4)
     |                                               |                |    standard_wall_indicators[0:0]: 0x588-NA (0)
     |                                               |                |    ut_local_indicators[0:0]: 0x588-NA (0)
     |                                               |                |  footer{}: 0x588-0x589.7 (2)
0x580|                        0a                     |        .       |    nl1: 10 (valid) 0x588-0x588.7 (1)
     |                                               |                |    tz_string: "" 0x589-NA (0)
0x580|                           0a|                 |         .|     |    nl2: 10 (valid) 0x589-0x589.7 (1)
