$ fq -d tzif dv Ashgabat
     |00 01 02 03 04 05 06 07 08 09 0a 0b 0c 0d 0e 0f|0123456789abcdef|.{}: Ashgabat (tzif) 0x0-0x480 (1152)
     |                                               |                |  v1header{}: 0x0-0x2c (44)
0x000|54 5a 69 66                                    |TZif            |    magic: 0x545a6966 (valid) 0x0-0x4 (4)
0x000|            32                                 |    2           |    ver: "2" (0x32) (valid) 0x4-0x5 (1)
0x000|               00 00 00 00 00 00 00 00 00 00 00|     ...........|    reserved: raw bits 0x5-0x14 (15)
0x010|00 00 00 00                                    |....            |
0x010|            00 00 00 00                        |    ....        |    isutcnt: 0 0x14-0x18 (4)
0x010|                        00 00 00 09            |        ....    |    isstdcnt: 9 0x18-0x1c (4)
0x010|                                    00 00 00 1b|            ....|    leapcnt: 27 0x1c-0x20 (4)
0x020|00 00 00 1a                                    |....            |    timecnt: 26 0x20-0x24 (4)
0x020|            00 00 00 09                        |    ....        |    typecnt: 9 0x24-0x28 (4)
0x020|                        00 00 00 10            |        ....    |    charcnt: 16 0x28-0x2c (4)
     |                                               |                |  v1datablock{}: 0x2c-0x1d5 (425)
     |                                               |                |    transition_times[0:26]: 0x2c-0x94 (104)
0x020|                                    aa 19 8d 44|            ...D|      [0]: "1924-05-01T20:06:28Z" (-1441166012) transition_time 0x2c-0x30 (4)
0x030|b5 a3 fd 40                                    |...@            |      [1]: "1930-06-20T20:00:00Z" (-1247544000) transition_time 0x30-0x34 (4)
0x030|            15 27 8b b9                        |    .'..        |      [2]: "1981-03-31T19:00:09Z" (354913209) transition_time 0x34-0x38 (4)
0x030|                        16 18 c0 2a            |        ...*    |      [3]: "1981-09-30T18:00:10Z" (370720810) transition_time 0x38-0x3c (4)
0x030|                                    17 08 bf 3a|            ...:|      [4]: "1982-03-31T19:00:10Z" (386449210) transition_time 0x3c-0x40 (4)
0x040|17 f9 f3 ab                                    |....            |      [5]: "1982-09-30T18:00:11Z" (402256811) transition_time 0x40-0x44 (4)
0x040|            18 e9 f2 bb                        |    ....        |      [6]: "1983-03-31T19:00:11Z" (417985211) transition_time 0x44-0x48 (4)
0x040|                        19 db 27 2c            |        ..',    |      [7]: "1983-09-30T18:00:12Z" (433792812) transition_time 0x48-0x4c (4)
0x040|                                    1a cc 77 bc|            ..w.|      [8]: "1984-03-31T19:00:12Z" (449607612) transition_time 0x4c-0x50 (4)
0x050|1b bc 84 dc                                    |....            |      [9]: "1984-09-29T21:00:12Z" (465339612) transition_time 0x50-0x54 (4)
0x050|            1c ac 75 dc                        |    ..u.        |      [10]: "1985-03-30T21:00:12Z" (481064412) transition_time 0x54-0x58 (4)
0x050|                        1d 9c 66 dd            |        ..f.    |      [11]: "1985-09-28T21:00:13Z" (496789213) transition_time 0x58-0x5c (4)
0x050|                                    1e 8c 57 dd|            ..W.|      [12]: "1986-03-29T21:00:13Z" (512514013) transition_time 0x5c-0x60 (4)
0x060|1f 7c 48 dd                                    |.|H.            |      [13]: "1986-09-27T21:00:13Z" (528238813) transition_time 0x60-0x64 (4)
0x060|            20 6c 39 dd                        |     l9.        |      [14]: "1987-03-28T21:00:13Z" (543963613) transition_time 0x64-0x68 (4)
0x060|                        21 5c 2a dd            |        !\*.    |      [15]: "1987-09-26T21:00:13Z" (559688413) transition_time 0x68-0x6c (4)
0x060|                                    22 4c 1b de|            "L..|      [16]: "1988-03-26T21:00:14Z" (575413214) transition_time 0x6c-0x70 (4)
0x070|23 3c 0c de                                    |#<..            |      [17]: "1988-09-24T21:00:14Z" (591138014) transition_time 0x70-0x74 (4)
0x070|            24 2b fd de                        |    $+..        |      [18]: "1989-03-25T21:00:14Z" (606862814) transition_time 0x74-0x78 (4)
0x070|                        25 1b ee de            |        %...    |      [19]: "1989-09-23T21:00:14Z" (622587614) transition_time 0x78-0x7c (4)
0x070|                                    26 0b df df|            &...|      [20]: "1990-03-24T21:00:15Z" (638312415) transition_time 0x7c-0x80 (4)
0x080|27 05 0b 5f                                    |'.._            |      [21]: "1990-09-29T21:00:15Z" (654642015) transition_time 0x80-0x84 (4)
0x080|            27 f4 fc 60                        |    '..`        |      [22]: "1991-03-30T21:00:16Z" (670366816) transition_time 0x84-0x88 (4)
0x080|                        28 e4 fb 70            |        (..p    |      [23]: "1991-09-28T22:00:16Z" (686095216) transition_time 0x88-0x8c (4)
0x080|                                    29 78 a3 70|            )x.p|      [24]: "1992-01-18T22:00:16Z" (695772016) transition_time 0x8c-0x90 (4)
0x090|64 9b 78 1b                                    |d.x.            |      [25]: "2023-06-28T00:00:27Z" (1687910427) transition_time 0x90-0x94 (4)
     |                                               |                |    transition_types[0:26]: 0x94-0xae (26)
0x090|            01                                 |    .           |      [0]: 1 transition_type 0x94-0x95 (1)
0x090|               03                              |     .          |      [1]: 3 transition_type 0x95-0x96 (1)
0x090|                  02                           |      .         |      [2]: 2 transition_type 0x96-0x97 (1)
0x090|                     03                        |       .        |      [3]: 3 transition_type 0x97-0x98 (1)
0x090|                        02                     |        .       |      [4]: 2 transition_type 0x98-0x99 (1)
0x090|                           03                  |         .      |      [5]: 3 transition_type 0x99-0x9a (1)
0x090|                              02               |          .     |      [6]: 2 transition_type 0x9a-0x9b (1)
0x090|                                 03            |           .    |      [7]: 3 transition_type 0x9b-0x9c (1)
0x090|                                    02         |            .   |      [8]: 2 transition_type 0x9c-0x9d (1)
0x090|                                       04      |             .  |      [9]: 4 transition_type 0x9d-0x9e (1)
0x090|                                          05   |              . |      [10]: 5 transition_type 0x9e-0x9f (1)
0x090|                                             04|               .|      [11]: 4 transition_type 0x9f-0xa0 (1)
0x0a0|05                                             |.               |      [12]: 5 transition_type 0xa0-0xa1 (1)
0x0a0|   04                                          | .              |      [13]: 4 transition_type 0xa1-0xa2 (1)
0x0a0|      05                                       |  .             |      [14]: 5 transition_type 0xa2-0xa3 (1)
0x0a0|         04                                    |   .            |      [15]: 4 transition_type 0xa3-0xa4 (1)
0x0a0|            05                                 |    .           |      [16]: 5 transition_type 0xa4-0xa5 (1)
0x0a0|               04                              |     .          |      [17]: 4 transition_type 0xa5-0xa6 (1)
0x0a0|                  05                           |      .         |      [18]: 5 transition_type 0xa6-0xa7 (1)
0x0a0|                     04                        |       .        |      [19]: 4 transition_type 0xa7-0xa8 (1)
0x0a0|                        05                     |        .       |      [20]: 5 transition_type 0xa8-0xa9 (1)
0x0a0|                           04                  |         .      |      [21]: 4 transition_type 0xa9-0xaa (1)
0x0a0|                              06               |          .     |      [22]: 6 transition_type 0xaa-0xab (1)
0x0a0|                                 07            |           .    |      [23]: 7 transition_type 0xab-0xac (1)
0x0a0|                                    03         |            .   |      [24]: 3 transition_type 0xac-0xad (1)
0x0a0|                                       03      |             .  |      [25]: 3 transition_type 0xad-0xae (1)
     |                                               |                |    local_time_type_records[0:9]: 0xae-0xe4 (54)
     |                                               |                |      [0]{}: local_time_type 0xae-0xb4 (6)
0x0a0|                                          00 00|              ..|        utoff: 14012 (valid) 0xae-0xb2 (4)
0x0b0|36 bc                                          |6.              |
0x0b0|      00                                       |  .             |        dst: 0 (valid) 0xb2-0xb3 (1)
0x0b0|         00                                    |   .            |        idx: 0 (valid) 0xb3-0xb4 (1)
     |                                               |                |      [1]{}: local_time_type 0xb4-0xba (6)
0x0b0|            00 00 38 40                        |    ..8@        |        utoff: 14400 (valid) 0xb4-0xb8 (4)
0x0b0|                        00                     |        .       |        dst: 0 (valid) 0xb8-0xb9 (1)
0x0b0|                           04                  |         .      |        idx: 4 (valid) 0xb9-0xba (1)
     |                                               |                |      [2]{}: local_time_type 0xba-0xc0 (6)
0x0b0|                              00 00 54 60      |          ..T`  |        utoff: 21600 (valid) 0xba-0xbe (4)
0x0b0|                                          01   |              . |        dst: 1 (valid) 0xbe-0xbf (1)
0x0b0|                                             08|               .|        idx: 8 (valid) 0xbf-0xc0 (1)
     |                                               |                |      [3]{}: local_time_type 0xc0-0xc6 (6)
0x0c0|00 00 46 50                                    |..FP            |        utoff: 18000 (valid) 0xc0-0xc4 (4)
0x0c0|            00                                 |    .           |        dst: 0 (valid) 0xc4-0xc5 (1)
0x0c0|               0c                              |     .          |        idx: 12 (valid) 0xc5-0xc6 (1)
     |                                               |                |      [4]{}: local_time_type 0xc6-0xcc (6)
0x0c0|                  00 00 46 50                  |      ..FP      |        utoff: 18000 (valid) 0xc6-0xca (4)
0x0c0|                              00               |          .     |        dst: 0 (valid) 0xca-0xcb (1)
0x0c0|                                 0c            |           .    |        idx: 12 (valid) 0xcb-0xcc (1)
     |                                               |                |      [5]{}: local_time_type 0xcc-0xd2 (6)
0x0c0|                                    00 00 54 60|            ..T`|        utoff: 21600 (valid) 0xcc-0xd0 (4)
0x0d0|01                                             |.               |        dst: 1 (valid) 0xd0-0xd1 (1)
0x0d0|   08                                          | .              |        idx: 8 (valid) 0xd1-0xd2 (1)
     |                                               |                |      [6]{}: local_time_type 0xd2-0xd8 (6)
0x0d0|      00 00 46 50                              |  ..FP          |        utoff: 18000 (valid) 0xd2-0xd6 (4)
0x0d0|                  01                           |      .         |        dst: 1 (valid) 0xd6-0xd7 (1)
0x0d0|                     0c                        |       .        |        idx: 12 (valid) 0xd7-0xd8 (1)
     |                                               |                |      [7]{}: local_time_type 0xd8-0xde (6)
0x0d0|                        00 00 38 40            |        ..8@    |        utoff: 14400 (valid) 0xd8-0xdc (4)
0x0d0|                                    00         |            .   |        dst: 0 (valid) 0xdc-0xdd (1)
0x0d0|                                       04      |             .  |        idx: 4 (valid) 0xdd-0xde (1)
     |                                               |                |      [8]{}: local_time_type 0xde-0xe4 (6)
0x0d0|                                          00 00|              ..|        utoff: 18000 (valid) 0xde-0xe2 (4)
0x0e0|46 50                                          |FP              |
0x0e0|      00                                       |  .             |        dst: 0 (valid) 0xe2-0xe3 (1)
0x0e0|         0c                                    |   .            |        idx: 12 (valid) 0xe3-0xe4 (1)
     |                                               |                |    time_zone_designations[0:4]: 0xe4-0xf4 (16)
0x0e0|            4c 4d 54 00                        |    LMT.        |      [0]: "LMT" time_zone_designation 0xe4-0xe8 (4)
0x0e0|                        2b 30 34 00            |        +04.    |      [1]: "+04" time_zone_designation 0xe8-0xec (4)
0x0e0|                                    2b 30 36 00|            +06.|      [2]: "+06" time_zone_designation 0xec-0xf0 (4)
0x0f0|2b 30 35 00                                    |+05.            |      [3]: "+05" time_zone_designation 0xf0-0xf4 (4)
     |                                               |                |    leap_second_records[0:27]: 0xf4-0x1cc (216)
     |                                               |                |      [0]{}: leap_second_record 0xf4-0xfc (8)
0x0f0|            04 b2 58 00                        |    ..X.        |        occur: "1972-07-01T00:00:00Z" (78796800) 0xf4-0xf8 (4)
0x0f0|                        00 00 00 01            |        ....    |        corr: 1 0xf8-0xfc (4)
     |                                               |                |      [1]{}: leap_second_record 0xfc-0x104 (8)
0x0f0|                                    05 a4 ec 01|            ....|        occur: "1973-01-01T00:00:01Z" (94694401) 0xfc-0x100 (4)
0x100|00 00 00 02                                    |....            |        corr: 2 0x100-0x104 (4)
     |                                               |                |      [2]{}: leap_second_record 0x104-0x10c (8)
0x100|            07 86 1f 82                        |    ....        |        occur: "1974-01-01T00:00:02Z" (126230402) 0x104-0x108 (4)
0x100|                        00 00 00 03            |        ....    |        corr: 3 0x108-0x10c (4)
     |                                               |                |      [3]{}: leap_second_record 0x10c-0x114 (8)
0x100|                                    09 67 53 03|            .gS.|        occur: "1975-01-01T00:00:03Z" (157766403) 0x10c-0x110 (4)
0x110|00 00 00 04                                    |....            |        corr: 4 0x110-0x114 (4)
     |                                               |                |      [4]{}: leap_second_record 0x114-0x11c (8)
0x110|            0b 48 86 84                        |    .H..        |        occur: "1976-01-01T00:00:04Z" (189302404) 0x114-0x118 (4)
0x110|                        00 00 00 05            |        ....    |        corr: 5 0x118-0x11c (4)
     |                                               |                |      [5]{}: leap_second_record 0x11c-0x124 (8)
0x110|                                    0d 2b 0b 85|            .+..|        occur: "1977-01-01T00:00:05Z" (220924805) 0x11c-0x120 (4)
0x120|00 00 00 06                                    |....            |        corr: 6 0x120-0x124 (4)
     |                                               |                |      [6]{}: leap_second_record 0x124-0x12c (8)
0x120|            0f 0c 3f 06                        |    ..?.        |        occur: "1978-01-01T00:00:06Z" (252460806) 0x124-0x128 (4)
0x120|                        00 00 00 07            |        ....    |        corr: 7 0x128-0x12c (4)
     |                                               |                |      [7]{}: leap_second_record 0x12c-0x134 (8)
0x120|                                    10 ed 72 87|            ..r.|        occur: "1979-01-01T00:00:07Z" (283996807) 0x12c-0x130 (4)
0x130|00 00 00 08                                    |....            |        corr: 8 0x130-0x134 (4)
     |                                               |                |      [8]{}: leap_second_record 0x134-0x13c (8)
0x130|            12 ce a6 08                        |    ....        |        occur: "1980-01-01T00:00:08Z" (315532808) 0x134-0x138 (4)
0x130|                        00 00 00 09            |        ....    |        corr: 9 0x138-0x13c (4)
     |                                               |                |      [9]{}: leap_second_record 0x13c-0x144 (8)
0x130|                                    15 9f ca 89|            ....|        occur: "1981-07-01T00:00:09Z" (362793609) 0x13c-0x140 (4)
0x140|00 00 00 0a                                    |....            |        corr: 10 0x140-0x144 (4)
     |                                               |                |      [10]{}: leap_second_record 0x144-0x14c (8)
0x140|            17 80 fe 0a                        |    ....        |        occur: "1982-07-01T00:00:10Z" (394329610) 0x144-0x148 (4)
0x140|                        00 00 00 0b            |        ....    |        corr: 11 0x148-0x14c (4)
     |                                               |                |      [11]{}: leap_second_record 0x14c-0x154 (8)
0x140|                                    19 62 31 8b|            .b1.|        occur: "1983-07-01T00:00:11Z" (425865611) 0x14c-0x150 (4)
0x150|00 00 00 0c                                    |....            |        corr: 12 0x150-0x154 (4)
     |                                               |                |      [12]{}: leap_second_record 0x154-0x15c (8)
0x150|            1d 25 ea 0c                        |    .%..        |        occur: "1985-07-01T00:00:12Z" (489024012) 0x154-0x158 (4)
0x150|                        00 00 00 0d            |        ....    |        corr: 13 0x158-0x15c (4)
     |                                               |                |      [13]{}: leap_second_record 0x15c-0x164 (8)
0x150|                                    21 da e5 0d|            !...|        occur: "1988-01-01T00:00:13Z" (567993613) 0x15c-0x160 (4)
0x160|00 00 00 0e                                    |....            |        corr: 14 0x160-0x164 (4)
     |                                               |                |      [14]{}: leap_second_record 0x164-0x16c (8)
0x160|            25 9e 9d 8e                        |    %...        |        occur: "1990-01-01T00:00:14Z" (631152014) 0x164-0x168 (4)
0x160|                        00 00 00 0f            |        ....    |        corr: 15 0x168-0x16c (4)
     |                                               |                |      [15]{}: leap_second_record 0x16c-0x174 (8)
0x160|                                    27 7f d1 0f|            '...|        occur: "1991-01-01T00:00:15Z" (662688015) 0x16c-0x170 (4)
0x170|00 00 00 10                                    |....            |        corr: 16 0x170-0x174 (4)
     |                                               |                |      [16]{}: leap_second_record 0x174-0x17c (8)
0x170|            2a 50 f5 90                        |    *P..        |        occur: "1992-07-01T00:00:16Z" (709948816) 0x174-0x178 (4)
0x170|                        00 00 00 11            |        ....    |        corr: 17 0x178-0x17c (4)
     |                                               |                |      [17]{}: leap_second_record 0x17c-0x184 (8)
0x170|                                    2c 32 29 11|            ,2).|        occur: "1993-07-01T00:00:17Z" (741484817) 0x17c-0x180 (4)
0x180|00 00 00 12                                    |....            |        corr: 18 0x180-0x184 (4)
     |                                               |                |      [18]{}: leap_second_record 0x184-0x18c (8)
0x180|            2e 13 5c 92                        |    ..\.        |        occur: "1994-07-01T00:00:18Z" (773020818) 0x184-0x188 (4)
0x180|                        00 00 00 13            |        ....    |        corr: 19 0x188-0x18c (4)
     |                                               |                |      [19]{}: leap_second_record 0x18c-0x194 (8)
0x180|                                    30 e7 24 13|            0.$.|        occur: "1996-01-01T00:00:19Z" (820454419) 0x18c-0x190 (4)
0x190|00 00 00 14                                    |....            |        corr: 20 0x190-0x194 (4)
     |                                               |                |      [20]{}: leap_second_record 0x194-0x19c (8)
0x190|            33 b8 48 94                        |    3.H.        |        occur: "1997-07-01T00:00:20Z" (867715220) 0x194-0x198 (4)
0x190|                        00 00 00 15            |        ....    |        corr: 21 0x198-0x19c (4)
     |                                               |                |      [21]{}: leap_second_record 0x19c-0x1a4 (8)
0x190|                                    36 8c 10 15|            6...|        occur: "1999-01-01T00:00:21Z" (915148821) 0x19c-0x1a0 (4)
0x1a0|00 00 00 16                                    |....            |        corr: 22 0x1a0-0x1a4 (4)
     |                                               |                |      [22]{}: leap_second_record 0x1a4-0x1ac (8)
0x1a0|            43 b7 1b 96                        |    C...        |        occur: "2006-01-01T00:00:22Z" (1136073622) 0x1a4-0x1a8 (4)
0x1a0|                        00 00 00 17            |        ....    |        corr: 23 0x1a8-0x1ac (4)
     |                                               |                |      [23]{}: leap_second_record 0x1ac-0x1b4 (8)
0x1a0|                                    49 5c 07 97|            I\..|        occur: "2009-01-01T00:00:23Z" (1230768023) 0x1ac-0x1b0 (4)
0x1b0|00 00 00 18                                    |....            |        corr: 24 0x1b0-0x1b4 (4)
     |                                               |                |      [24]{}: leap_second_record 0x1b4-0x1bc (8)
0x1b0|            4f ef 93 18                        |    O...        |        occur: "2012-07-01T00:00:24Z" (1341100824) 0x1b4-0x1b8 (4)
0x1b0|                        00 00 00 19            |        ....    |        corr: 25 0x1b8-0x1bc (4)
     |                                               |                |      [25]{}: leap_second_record 0x1bc-0x1c4 (8)
0x1b0|                                    55 93 2d 99|            U.-.|        occur: "2015-07-01T00:00:25Z" (1435708825) 0x1bc-0x1c0 (4)
0x1c0|00 00 00 1a                                    |....            |        corr: 26 0x1c0-0x1c4 (4)
     |                                               |                |      [26]{}: leap_second_record 0x1c4-0x1cc (8)
0x1c0|            58 68 46 9a                        |    XhF.        |        occur: "2017-01-01T00:00:26Z" (1483228826) 0x1c4-0x1c8 (4)
0x1c0|                        00 00 00 1b            |        ....    |        corr: 27 0x1c8-0x1cc (4)
     |                                               |                |    standard_wall_indicators[0:9]: 0x1cc-0x1d5 (9)
0x1c0|                                    00         |            .   |      [0]: 0 standard_wall_indicator (valid) 0x1cc-0x1cd (1)
0x1c0|                                       00      |             .  |      [1]: 0 standard_wall_indicator (valid) 0x1cd-0x1ce (1)
0x1c0|                                          00   |              . |      [2]: 0 standard_wall_indicator (valid) 0x1ce-0x1cf (1)
0x1c0|                                             00|               .|      [3]: 0 standard_wall_indicator (valid) 0x1cf-0x1d0 (1)
0x1d0|01                                             |.               |      [4]: 1 standard_wall_indicator (valid) 0x1d0-0x1d1 (1)
0x1d0|   01                                          | .              |      [5]: 1 standard_wall_indicator (valid) 0x1d1-0x1d2 (1)
0x1d0|      01                                       |  .             |      [6]: 1 standard_wall_indicator (valid) 0x1d2-0x1d3 (1)
0x1d0|         01                                    |   .            |      [7]: 1 standard_wall_indicator (valid) 0x1d3-0x1d4 (1)
0x1d0|            00                                 |    .           |      [8]: 0 standard_wall_indicator (valid) 0x1d4-0x1d5 (1)
     |                                               |                |    ut_local_indicators[0:0]: 0x1d5-0x1d5 (0)
     |                                               |                |  v2plusheader{}: 0x1d5-0x201 (44)
0x1d0|               54 5a 69 66                     |     TZif       |    magic: 0x545a6966 (valid) 0x1d5-0x1d9 (4)
0x1d0|                           32                  |         2      |    ver: "2" (0x32) (valid) 0x1d9-0x1da (1)
0x1d0|                              00 00 00 00 00 00|          ......|    reserved: raw bits 0x1da-0x1e9 (15)
0x1e0|00 00 00 00 00 00 00 00 00                     |.........       |
0x1e0|                           00 00 00 00         |         ....   |    isutcnt: 0 0x1e9-0x1ed (4)
0x1e0|                                       00 00 00|             ...|    isstdcnt: 9 0x1ed-0x1f1 (4)
0x1f0|09                                             |.               |
0x1f0|   00 00 00 1b                                 | ....           |    leapcnt: 27 0x1f1-0x1f5 (4)
0x1f0|               00 00 00 1a                     |     ....       |    timecnt: 26 0x1f5-0x1f9 (4)
0x1f0|                           00 00 00 09         |         ....   |    typecnt: 9 0x1f9-0x1fd (4)
0x1f0|                                       00 00 00|             ...|    charcnt: 16 0x1fd-0x201 (4)
0x200|10                                             |.               |
     |                                               |                |  v2plusdatablock{}: 0x201-0x47e (637)
     |                                               |                |    transition_times[0:26]: 0x201-0x2d1 (208)
0x200|   ff ff ff ff aa 19 8d 44                     | .......D       |      [0]: "1924-05-01T20:06:28Z" (-1441166012) transition_time 0x201-0x209 (8)
0x200|                           ff ff ff ff b5 a3 fd|         .......|      [1]: "1930-06-20T20:00:00Z" (-1247544000) transition_time 0x209-0x211 (8)
0x210|40                                             |@               |
0x210|   00 00 00 00 15 27 8b b9                     | .....'..       |      [2]: "1981-03-31T19:00:09Z" (354913209) transition_time 0x211-0x219 (8)
0x210|                           00 00 00 00 16 18 c0|         .......|      [3]: "1981-09-30T18:00:10Z" (370720810) transition_time 0x219-0x221 (8)
0x220|2a                                             |*               |
0x220|   00 00 00 00 17 08 bf 3a                     | .......:       |      [4]: "1982-03-31T19:00:10Z" (386449210) transition_time 0x221-0x229 (8)
0x220|                           00 00 00 00 17 f9 f3|         .......|      [5]: "1982-09-30T18:00:11Z" (402256811) transition_time 0x229-0x231 (8)
0x230|ab                                             |.               |
0x230|   00 00 00 00 18 e9 f2 bb                     | ........       |      [6]: "1983-03-31T19:00:11Z" (417985211) transition_time 0x231-0x239 (8)
0x230|                           00 00 00 00 19 db 27|         ......'|      [7]: "1983-09-30T18:00:12Z" (433792812) transition_time 0x239-0x241 (8)
0x240|2c                                             |,               |
0x240|   00 00 00 00 1a cc 77 bc                     | ......w.       |      [8]: "1984-03-31T19:00:12Z" (449607612) transition_time 0x241-0x249 (8)
0x240|                           00 00 00 00 1b bc 84|         .......|      [9]: "1984-09-29T21:00:12Z" (465339612) transition_time 0x249-0x251 (8)
0x250|dc                                             |.               |
0x250|   00 00 00 00 1c ac 75 dc                     | ......u.       |      [10]: "1985-03-30T21:00:12Z" (481064412) transition_time 0x251-0x259 (8)
0x250|                           00 00 00 00 1d 9c 66|         ......f|      [11]: "1985-09-28T21:00:13Z" (496789213) transition_time 0x259-0x261 (8)
0x260|dd                                             |.               |
0x260|   00 00 00 00 1e 8c 57 dd                     | ......W.       |      [12]: "1986-03-29T21:00:13Z" (512514013) transition_time 0x261-0x269 (8)
0x260|                           00 00 00 00 1f 7c 48|         .....|H|      [13]: "1986-09-27T21:00:13Z" (528238813) transition_time 0x269-0x271 (8)
0x270|dd                                             |.               |
0x270|   00 00 00 00 20 6c 39 dd                     | .... l9.       |      [14]: "1987-03-28T21:00:13Z" (543963613) transition_time 0x271-0x279 (8)
0x270|                           00 00 00 00 21 5c 2a|         ....!\*|      [15]: "1987-09-26T21:00:13Z" (559688413) transition_time 0x279-0x281 (8)
0x280|dd                                             |.               |
0x280|   00 00 00 00 22 4c 1b de                     | ...."L..       |      [16]: "1988-03-26T21:00:14Z" (575413214) transition_time 0x281-0x289 (8)
0x280|                           00 00 00 00 23 3c 0c|         ....#<.|      [17]: "1988-09-24T21:00:14Z" (591138014) transition_time 0x289-0x291 (8)
0x290|de                                             |.               |
0x290|   00 00 00 00 24 2b fd de                     | ....$+..       |      [18]: "1989-03-25T21:00:14Z" (606862814) transition_time 0x291-0x299 (8)
0x290|                           00 00 00 00 25 1b ee|         ....%..|      [19]: "1989-09-23T21:00:14Z" (622587614) transition_time 0x299-0x2a1 (8)
0x2a0|de                                             |.               |
0x2a0|   00 00 00 00 26 0b df df                     | ....&...       |      [20]: "1990-03-24T21:00:15Z" (638312415) transition_time 0x2a1-0x2a9 (8)
0x2a0|                           00 00 00 00 27 05 0b|         ....'..|      [21]: "1990-09-29T21:00:15Z" (654642015) transition_time 0x2a9-0x2b1 (8)
0x2b0|5f                                             |_               |
0x2b0|   00 00 00 00 27 f4 fc 60                     | ....'..`       |      [22]: "1991-03-30T21:00:16Z" (670366816) transition_time 0x2b1-0x2b9 (8)
0x2b0|                           00 00 00 00 28 e4 fb|         ....(..|      [23]: "1991-09-28T22:00:16Z" (686095216) transition_time 0x2b9-0x2c1 (8)
0x2c0|70                                             |p               |
0x2c0|   00 00 00 00 29 78 a3 70                     | ....)x.p       |      [24]: "1992-01-18T22:00:16Z" (695772016) transition_time 0x2c1-0x2c9 (8)
0x2c0|                           00 00 00 00 64 9b 78|         ....d.x|      [25]: "2023-06-28T00:00:27Z" (1687910427) transition_time 0x2c9-0x2d1 (8)
0x2d0|1b                                             |.               |
     |                                               |                |    transition_types[0:26]: 0x2d1-0x2eb (26)
0x2d0|   01                                          | .              |      [0]: 1 transition_type 0x2d1-0x2d2 (1)
0x2d0|      03                                       |  .             |      [1]: 3 transition_type 0x2d2-0x2d3 (1)
0x2d0|         02                                    |   .            |      [2]: 2 transition_type 0x2d3-0x2d4 (1)
0x2d0|            03                                 |    .           |      [3]: 3 transition_type 0x2d4-0x2d5 (1)
0x2d0|               02                              |     .          |      [4]: 2 transition_type 0x2d5-0x2d6 (1)
0x2d0|                  03                           |      .         |      [5]: 3 transition_type 0x2d6-0x2d7 (1)
0x2d0|                     02                        |       .        |      [6]: 2 transition_type 0x2d7-0x2d8 (1)
0x2d0|                        03                     |        .       |      [7]: 3 transition_type 0x2d8-0x2d9 (1)
0x2d0|                           02                  |         .      |      [8]: 2 transition_type 0x2d9-0x2da (1)
0x2d0|                              04               |          .     |      [9]: 4 transition_type 0x2da-0x2db (1)
0x2d0|                                 05            |           .    |      [10]: 5 transition_type 0x2db-0x2dc (1)
0x2d0|                                    04         |            .   |      [11]: 4 transition_type 0x2dc-0x2dd (1)
0x2d0|                                       05      |             .  |      [12]: 5 transition_type 0x2dd-0x2de (1)
0x2d0|                                          04   |              . |      [13]: 4 transition_type 0x2de-0x2df (1)
0x2d0|                                             05|               .|      [14]: 5 transition_type 0x2df-0x2e0 (1)
0x2e0|04                                             |.               |      [15]: 4 transition_type 0x2e0-0x2e1 (1)
0x2e0|   05                                          | .              |      [16]: 5 transition_type 0x2e1-0x2e2 (1)
0x2e0|      04                                       |  .             |      [17]: 4 transition_type 0x2e2-0x2e3 (1)
0x2e0|         05                                    |   .            |      [18]: 5 transition_type 0x2e3-0x2e4 (1)
0x2e0|            04                                 |    .           |      [19]: 4 transition_type 0x2e4-0x2e5 (1)
0x2e0|               05                              |     .          |      [20]: 5 transition_type 0x2e5-0x2e6 (1)
0x2e0|                  04                           |      .         |      [21]: 4 transition_type 0x2e6-0x2e7 (1)
0x2e0|                     06                        |       .        |      [22]: 6 transition_type 0x2e7-0x2e8 (1)
0x2e0|                        07                     |        .       |      [23]: 7 transition_type 0x2e8-0x2e9 (1)
0x2e0|                           03                  |         .      |      [24]: 3 transition_type 0x2e9-0x2ea (1)
0x2e0|                              03               |          .     |      [25]: 3 transition_type 0x2ea-0x2eb (1)
     |                                               |                |    local_time_type_records[0:9]: 0x2eb-0x321 (54)
     |                                               |                |      [0]{}: local_time_type 0x2eb-0x2f1 (6)
0x2e0|                                 00 00 36 bc   |           ..6. |        utoff: 14012 (valid) 0x2eb-0x2ef (4)
0x2e0|                                             00|               .|        dst: 0 (valid) 0x2ef-0x2f0 (1)
0x2f0|00                                             |.               |        idx: 0 (valid) 0x2f0-0x2f1 (1)
     |                                               |                |      [1]{}: local_time_type 0x2f1-0x2f7 (6)
0x2f0|   00 00 38 40                                 | ..8@           |        utoff: 14400 (valid) 0x2f1-0x2f5 (4)
0x2f0|               00                              |     .          |        dst: 0 (valid) 0x2f5-0x2f6 (1)
0x2f0|                  04                           |      .         |        idx: 4 (valid) 0x2f6-0x2f7 (1)
     |                                               |                |      [2]{}: local_time_type 0x2f7-0x2fd (6)
0x2f0|                     00 00 54 60               |       ..T`     |        utoff: 21600 (valid) 0x2f7-0x2fb (4)
0x2f0|                                 01            |           .    |        dst: 1 (valid) 0x2fb-0x2fc (1)
0x2f0|                                    08         |            .   |        idx: 8 (valid) 0x2fc-0x2fd (1)
     |                                               |                |      [3]{}: local_time_type 0x2fd-0x303 (6)
0x2f0|                                       00 00 46|             ..F|        utoff: 18000 (valid) 0x2fd-0x301 (4)
0x300|50                                             |P               |
0x300|   00                                          | .              |        dst: 0 (valid) 0x301-0x302 (1)
0x300|      0c                                       |  .             |        idx: 12 (valid) 0x302-0x303 (1)
     |                                               |                |      [4]{}: local_time_type 0x303-0x309 (6)
0x300|         00 00 46 50                           |   ..FP         |        utoff: 18000 (valid) 0x303-0x307 (4)
0x300|                     00                        |       .        |        dst: 0 (valid) 0x307-0x308 (1)
0x300|                        0c                     |        .       |        idx: 12 (valid) 0x308-0x309 (1)
     |                                               |                |      [5]{}: local_time_type 0x309-0x30f (6)
0x300|                           00 00 54 60         |         ..T`   |        utoff: 21600 (valid) 0x309-0x30d (4)
0x300|                                       01      |             .  |        dst: 1 (valid) 0x30d-0x30e (1)
0x300|                                          08   |              . |        idx: 8 (valid) 0x30e-0x30f (1)
     |                                               |                |      [6]{}: local_time_type 0x30f-0x315 (6)
0x300|                                             00|               .|        utoff: 18000 (valid) 0x30f-0x313 (4)
0x310|00 46 50                                       |.FP             |
0x310|         01                                    |   .            |        dst: 1 (valid) 0x313-0x314 (1)
0x310|            0c                                 |    .           |        idx: 12 (valid) 0x314-0x315 (1)
     |                                               |                |      [7]{}: local_time_type 0x315-0x31b (6)
0x310|               00 00 38 40                     |     ..8@       |        utoff: 14400 (valid) 0x315-0x319 (4)
0x310|                           00                  |         .      |        dst: 0 (valid) 0x319-0x31a (1)
0x310|                              04               |          .     |        idx: 4 (valid) 0x31a-0x31b (1)
     |                                               |                |      [8]{}: local_time_type 0x31b-0x321 (6)
0x310|                                 00 00 46 50   |           ..FP |        utoff: 18000 (valid) 0x31b-0x31f (4)
0x310|                                             00|               .|        dst: 0 (valid) 0x31f-0x320 (1)
0x320|0c                                             |.               |        idx: 12 (valid) 0x320-0x321 (1)
     |                                               |                |    time_zone_designations[0:4]: 0x321-0x331 (16)
0x320|   4c 4d 54 00                                 | LMT.           |      [0]: "LMT" time_zone_designation 0x321-0x325 (4)
0x320|               2b 30 34 00                     |     +04.       |      [1]: "+04" time_zone_designation 0x325-0x329 (4)
0x320|                           2b 30 36 00         |         +06.   |      [2]: "+06" time_zone_designation 0x329-0x32d (4)
0x320|                                       2b 30 35|             +05|      [3]: "+05" time_zone_designation 0x32d-0x331 (4)
0x330|00                                             |.               |
     |                                               |                |    leap_second_records[0:27]: 0x331-0x475 (324)
     |                                               |                |      [0]{}: leap_second_record 0x331-0x33d (12)
0x330|   00 00 00 00 04 b2 58 00                     | ......X.       |        occur: "1972-07-01T00:00:00Z" (78796800) 0x331-0x339 (8)
0x330|                           00 00 00 01         |         ....   |        corr: 1 0x339-0x33d (4)
     |                                               |                |      [1]{}: leap_second_record 0x33d-0x349 (12)
0x330|                                       00 00 00|             ...|        occur: "1973-01-01T00:00:01Z" (94694401) 0x33d-0x345 (8)
0x340|00 05 a4 ec 01                                 |.....           |
0x340|               00 00 00 02                     |     ....       |        corr: 2 0x345-0x349 (4)
     |                                               |                |      [2]{}: leap_second_record 0x349-0x355 (12)
0x340|                           00 00 00 00 07 86 1f|         .......|        occur: "1974-01-01T00:00:02Z" (126230402) 0x349-0x351 (8)
0x350|82                                             |.               |
0x350|   00 00 00 03                                 | ....           |        corr: 3 0x351-0x355 (4)
     |                                               |                |      [3]{}: leap_second_record 0x355-0x361 (12)
0x350|               00 00 00 00 09 67 53 03         |     .....gS.   |        occur: "1975-01-01T00:00:03Z" (157766403) 0x355-0x35d (8)
0x350|                                       00 00 00|             ...|        corr: 4 0x35d-0x361 (4)
0x360|04                                             |.               |
     |                                               |                |      [4]{}: leap_second_record 0x361-0x36d (12)
0x360|   00 00 00 00 0b 48 86 84                     | .....H..       |        occur: "1976-01-01T00:00:04Z" (189302404) 0x361-0x369 (8)
0x360|                           00 00 00 05         |         ....   |        corr: 5 0x369-0x36d (4)
     |                                               |                |      [5]{}: leap_second_record 0x36d-0x379 (12)
0x360|                                       00 00 00|             ...|        occur: "1977-01-01T00:00:05Z" (220924805) 0x36d-0x375 (8)
0x370|00 0d 2b 0b 85                                 |..+..           |
0x370|               00 00 00 06                     |     ....       |        corr: 6 0x375-0x379 (4)
     |                                               |                |      [6]{}: leap_second_record 0x379-0x385 (12)
0x370|                           00 00 00 00 0f 0c 3f|         ......?|        occur: "1978-01-01T00:00:06Z" (252460806) 0x379-0x381 (8)
0x380|06                                             |.               |
0x380|   00 00 00 07                                 | ....           |        corr: 7 0x381-0x385 (4)
     |                                               |                |      [7]{}: leap_second_record 0x385-0x391 (12)
0x380|               00 00 00 00 10 ed 72 87         |     ......r.   |        occur: "1979-01-01T00:00:07Z" (283996807) 0x385-0x38d (8)
0x380|                                       00 00 00|             ...|        corr: 8 0x38d-0x391 (4)
0x390|08                                             |.               |
     |                                               |                |      [8]{}: leap_second_record 0x391-0x39d (12)
0x390|   00 00 00 00 12 ce a6 08                     | ........       |        occur: "1980-01-01T00:00:08Z" (315532808) 0x391-0x399 (8)
0x390|                           00 00 00 09         |         ....   |        corr: 9 0x399-0x39d (4)
     |                                               |                |      [9]{}: leap_second_record 0x39d-0x3a9 (12)
0x390|                                       00 00 00|             ...|        occur: "1981-07-01T00:00:09Z" (362793609) 0x39d-0x3a5 (8)
0x3a0|00 15 9f ca 89                                 |.....           |
0x3a0|               00 00 00 0a                     |     ....       |        corr: 10 0x3a5-0x3a9 (4)
     |                                               |                |      [10]{}: leap_second_record 0x3a9-0x3b5 (12)
0x3a0|                           00 00 00 00 17 80 fe|         .......|        occur: "1982-07-01T00:00:10Z" (394329610) 0x3a9-0x3b1 (8)
0x3b0|0a                                             |.               |
0x3b0|   00 00 00 0b                                 | ....           |        corr: 11 0x3b1-0x3b5 (4)
     |                                               |                |      [11]{}: leap_second_record 0x3b5-0x3c1 (12)
0x3b0|               00 00 00 00 19 62 31 8b         |     .....b1.   |        occur: "1983-07-01T00:00:11Z" (425865611) 0x3b5-0x3bd (8)
0x3b0|                                       00 00 00|             ...|        corr: 12 0x3bd-0x3c1 (4)
0x3c0|0c                                             |.               |
     |                                               |                |      [12]{}: leap_second_record 0x3c1-0x3cd (12)
0x3c0|   00 00 00 00 1d 25 ea 0c                     | .....%..       |        occur: "1985-07-01T00:00:12Z" (489024012) 0x3c1-0x3c9 (8)
0x3c0|                           00 00 00 0d         |         ....   |        corr: 13 0x3c9-0x3cd (4)
     |                                               |                |      [13]{}: leap_second_record 0x3cd-0x3d9 (12)
0x3c0|                                       00 00 00|             ...|        occur: "1988-01-01T00:00:13Z" (567993613) 0x3cd-0x3d5 (8)
0x3d0|00 21 da e5 0d                                 |.!...           |
0x3d0|               00 00 00 0e                     |     ....       |        corr: 14 0x3d5-0x3d9 (4)
     |                                               |                |      [14]{}: leap_second_record 0x3d9-0x3e5 (12)
0x3d0|                           00 00 00 00 25 9e 9d|         ....%..|        occur: "1990-01-01T00:00:14Z" (631152014) 0x3d9-0x3e1 (8)
0x3e0|8e                                             |.               |
0x3e0|   00 00 00 0f                                 | ....           |        corr: 15 0x3e1-0x3e5 (4)
     |                                               |                |      [15]{}: leap_second_record 0x3e5-0x3f1 (12)
0x3e0|               00 00 00 00 27 7f d1 0f         |     ....'...   |        occur: "1991-01-01T00:00:15Z" (662688015) 0x3e5-0x3ed (8)
0x3e0|                                       00 00 00|             ...|        corr: 16 0x3ed-0x3f1 (4)
0x3f0|10                                             |.               |
     |                                               |                |      [16]{}: leap_second_record 0x3f1-0x3fd (12)
0x3f0|   00 00 00 00 2a 50 f5 90                     | ....*P..       |        occur: "1992-07-01T00:00:16Z" (709948816) 0x3f1-0x3f9 (8)
0x3f0|                           00 00 00 11         |         ....   |        corr: 17 0x3f9-0x3fd (4)
     |                                               |                |      [17]{}: leap_second_record 0x3fd-0x409 (12)
0x3f0|                                       00 00 00|             ...|        occur: "1993-07-01T00:00:17Z" (741484817) 0x3fd-0x405 (8)
0x400|00 2c 32 29 11                                 |.,2).           |
0x400|               00 00 00 12                     |     ....       |        corr: 18 0x405-0x409 (4)
     |                                               |                |      [18]{}: leap_second_record 0x409-0x415 (12)
0x400|                           00 00 00 00 2e 13 5c|         ......\|        occur: "1994-07-01T00:00:18Z" (773020818) 0x409-0x411 (8)
0x410|92                                             |.               |
0x410|   00 00 00 13                                 | ....           |        corr: 19 0x411-0x415 (4)
     |                                               |                |      [19]{}: leap_second_record 0x415-0x421 (12)
0x410|               00 00 00 00 30 e7 24 13         |     ....0.$.   |        occur: "1996-01-01T00:00:19Z" (820454419) 0x415-0x41d (8)
0x410|                                       00 00 00|             ...|        corr: 20 0x41d-0x421 (4)
0x420|14                                             |.               |
     |                                               |                |      [20]{}: leap_second_record 0x421-0x42d (12)
0x420|   00 00 00 00 33 b8 48 94                     | ....3.H.       |        occur: "1997-07-01T00:00:20Z" (867715220) 0x421-0x429 (8)
0x420|                           00 00 00 15         |         ....   |        corr: 21 0x429-0x42d (4)
     |                                               |                |      [21]{}: leap_second_record 0x42d-0x439 (12)
0x420|                                       00 00 00|             ...|        occur: "1999-01-01T00:00:21Z" (915148821) 0x42d-0x435 (8)
0x430|00 36 8c 10 15                                 |.6...           |
0x430|               00 00 00 16                     |     ....       |        corr: 22 0x435-0x439 (4)
     |                                               |                |      [22]{}: leap_second_record 0x439-0x445 (12)
0x430|                           00 00 00 00 43 b7 1b|         ....C..|        occur: "2006-01-01T00:00:22Z" (1136073622) 0x439-0x441 (8)
0x440|96                                             |.               |
0x440|   00 00 00 17                                 | ....           |        corr: 23 0x441-0x445 (4)
     |                                               |                |      [23]{}: leap_second_record 0x445-0x451 (12)
0x440|               00 00 00 00 49 5c 07 97         |     ....I\..   |        occur: "2009-01-01T00:00:23Z" (1230768023) 0x445-0x44d (8)
0x440|                                       00 00 00|             ...|        corr: 24 0x44d-0x451 (4)
0x450|18                                             |.               |
     |                                               |                |      [24]{}: leap_second_record 0x451-0x45d (12)
0x450|   00 00 00 00 4f ef 93 18                     | ....O...       |        occur: "2012-07-01T00:00:24Z" (1341100824) 0x451-0x459 (8)
0x450|                           00 00 00 19         |         ....   |        corr: 25 0x459-0x45d (4)
     |                                               |                |      [25]{}: leap_second_record 0x45d-0x469 (12)
0x450|                                       00 00 00|             ...|        occur: "2015-07-01T00:00:25Z" (1435708825) 0x45d-0x465 (8)
0x460|00 55 93 2d 99                                 |.U.-.           |
0x460|               00 00 00 1a                     |     ....       |        corr: 26 0x465-0x469 (4)
     |                                               |                |      [26]{}: leap_second_record 0x469-0x475 (12)
0x460|                           00 00 00 00 58 68 46|         ....XhF|        occur: "2017-01-01T00:00:26Z" (1483228826) 0x469-0x471 (8)
0x470|9a                                             |.               |
0x470|   00 00 00 1b                                 | ....           |        corr: 27 0x471-0x475 (4)
     |                                               |                |    standard_wall_indicators[0:9]: 0x475-0x47e (9)
0x470|               00                              |     .          |      [0]: 0 standard_wall_indicator (valid) 0x475-0x476 (1)
0x470|                  00                           |      .         |      [1]: 0 standard_wall_indicator (valid) 0x476-0x477 (1)
0x470|                     00                        |       .        |      [2]: 0 standard_wall_indicator (valid) 0x477-0x478 (1)
0x470|                        00                     |        .       |      [3]: 0 standard_wall_indicator (valid) 0x478-0x479 (1)
0x470|                           01                  |         .      |      [4]: 1 standard_wall_indicator (valid) 0x479-0x47a (1)
0x470|                              01               |          .     |      [5]: 1 standard_wall_indicator (valid) 0x47a-0x47b (1)
0x470|                                 01            |           .    |      [6]: 1 standard_wall_indicator (valid) 0x47b-0x47c (1)
0x470|                                    01         |            .   |      [7]: 1 standard_wall_indicator (valid) 0x47c-0x47d (1)
0x470|                                       00      |             .  |      [8]: 0 standard_wall_indicator (valid) 0x47d-0x47e (1)
     |                                               |                |    ut_local_indicators[0:0]: 0x47e-0x47e (0)
     |                                               |                |  footer{}: 0x47e-0x480 (2)
0x470|                                          0a   |              . |    nl1: 10 (valid) 0x47e-0x47f (1)
     |                                               |                |    tz_string: "" 0x47f-0x47f (0)
0x470|                                             0a|               .|    nl2: 10 (valid) 0x47f-0x480 (1)
