$ fq -d tzif dv Asuncion
     |00 01 02 03 04 05 06 07 08 09 0a 0b 0c 0d 0e 0f|0123456789abcdef|.{}: Asuncion (tzif) 0x0-0x864 (2148)
     |                                               |                |  v1header{}: 0x0-0x2c (44)
0x000|54 5a 69 66                                    |TZif            |    magic: 0x545a6966 (valid) 0x0-0x4 (4)
0x000|            32                                 |    2           |    ver: "2" (0x32) (valid) 0x4-0x5 (1)
0x000|               00 00 00 00 00 00 00 00 00 00 00|     ...........|    reserved: raw bits 0x5-0x14 (15)
0x010|00 00 00 00                                    |....            |
0x010|            00 00 00 00                        |    ....        |    isutcnt: 0 0x14-0x18 (4)
0x010|                        00 00 00 00            |        ....    |    isstdcnt: 0 0x18-0x1c (4)
0x010|                                    00 00 00 1b|            ....|    leapcnt: 27 0x1c-0x20 (4)
0x020|00 00 00 65                                    |...e            |    timecnt: 101 0x20-0x24 (4)
0x020|            00 00 00 06                        |    ....        |    typecnt: 6 0x24-0x28 (4)
0x020|                        00 00 00 10            |        ....    |    charcnt: 16 0x28-0x2c (4)
     |                                               |                |  v1datablock{}: 0x2c-0x331 (773)
     |                                               |                |    transition_times[0:101]: 0x2c-0x1c0 (404)
0x020|                                    80 00 00 00|            ....|      [0]: "1901-12-13T20:45:52Z" (-2147483648) transition_time 0x2c-0x30 (4)
0x030|b8 17 f5 90                                    |....            |      [1]: "1931-10-10T03:50:40Z" (-1206389360) transition_time 0x30-0x34 (4)
0x030|            05 2b da 41                        |    .+.A        |      [2]: "1972-10-01T04:00:01Z" (86760001) transition_time 0x34-0x38 (4)
0x030|                        07 fc f0 b3            |        ....    |      [3]: "1974-04-01T03:00:03Z" (134017203) transition_time 0x38-0x3c (4)
0x030|                                    0a cf 74 c4|            ..t.|      [4]: "1975-10-01T04:00:04Z" (181368004) transition_time 0x3c-0x40 (4)
0x040|0b 97 ca b5                                    |....            |      [5]: "1976-03-01T03:00:05Z" (194497205) transition_time 0x40-0x44 (4)
0x040|            0c b1 f9 c5                        |    ....        |      [6]: "1976-10-01T04:00:05Z" (212990405) transition_time 0x44-0x48 (4)
0x040|                        0d 78 fe 36            |        .x.6    |      [7]: "1977-03-01T03:00:06Z" (226033206) transition_time 0x48-0x4c (4)
0x040|                                    0e 93 2d 46|            ..-F|      [8]: "1977-10-01T04:00:06Z" (244526406) transition_time 0x4c-0x50 (4)
0x050|0f 5a 31 b7                                    |.Z1.            |      [9]: "1978-03-01T03:00:07Z" (257569207) transition_time 0x50-0x54 (4)
0x050|            10 74 60 c7                        |    .t`.        |      [10]: "1978-10-01T04:00:07Z" (276062407) transition_time 0x54-0x58 (4)
0x050|                        11 64 43 b8            |        .dC.    |      [11]: "1979-04-01T03:00:08Z" (291783608) transition_time 0x58-0x5c (4)
0x050|                                    12 55 94 48|            .U.H|      [12]: "1979-10-01T04:00:08Z" (307598408) transition_time 0x5c-0x60 (4)
0x060|13 46 c8 b9                                    |.F..            |      [13]: "1980-04-01T03:00:09Z" (323406009) transition_time 0x60-0x64 (4)
0x060|            14 38 19 49                        |    .8.I        |      [14]: "1980-10-01T04:00:09Z" (339220809) transition_time 0x64-0x68 (4)
0x060|                        15 27 fc 39            |        .'.9    |      [15]: "1981-04-01T03:00:09Z" (354942009) transition_time 0x68-0x6c (4)
0x060|                                    16 19 4c ca|            ..L.|      [16]: "1981-10-01T04:00:10Z" (370756810) transition_time 0x6c-0x70 (4)
0x070|17 09 2f ba                                    |../.            |      [17]: "1982-04-01T03:00:10Z" (386478010) transition_time 0x70-0x74 (4)
0x070|            17 fa 80 4b                        |    ...K        |      [18]: "1982-10-01T04:00:11Z" (402292811) transition_time 0x74-0x78 (4)
0x070|                        18 ea 63 3b            |        ..c;    |      [19]: "1983-04-01T03:00:11Z" (418014011) transition_time 0x78-0x7c (4)
0x070|                                    19 db b3 cc|            ....|      [20]: "1983-10-01T04:00:12Z" (433828812) transition_time 0x7c-0x80 (4)
0x080|1a cc e8 3c                                    |...<            |      [21]: "1984-04-01T03:00:12Z" (449636412) transition_time 0x80-0x84 (4)
0x080|            1b be 38 cc                        |    ..8.        |      [22]: "1984-10-01T04:00:12Z" (465451212) transition_time 0x84-0x88 (4)
0x080|                        1c ae 1b bc            |        ....    |      [23]: "1985-04-01T03:00:12Z" (481172412) transition_time 0x88-0x8c (4)
0x080|                                    1d 9f 6c 4d|            ..lM|      [24]: "1985-10-01T04:00:13Z" (496987213) transition_time 0x8c-0x90 (4)
0x090|1e 8f 4f 3d                                    |..O=            |      [25]: "1986-04-01T03:00:13Z" (512708413) transition_time 0x90-0x94 (4)
0x090|            1f 80 9f cd                        |    ....        |      [26]: "1986-10-01T04:00:13Z" (528523213) transition_time 0x94-0x98 (4)
0x090|                        20 70 82 bd            |         p..    |      [27]: "1987-04-01T03:00:13Z" (544244413) transition_time 0x98-0x9c (4)
0x090|                                    21 61 d3 4d|            !a.M|      [28]: "1987-10-01T04:00:13Z" (560059213) transition_time 0x9c-0xa0 (4)
0x0a0|22 53 07 be                                    |"S..            |      [29]: "1988-04-01T03:00:14Z" (575866814) transition_time 0xa0-0xa4 (4)
0x0a0|            23 44 58 4e                        |    #DXN        |      [30]: "1988-10-01T04:00:14Z" (591681614) transition_time 0xa4-0xa8 (4)
0x0a0|                        24 34 3b 3e            |        $4;>    |      [31]: "1989-04-01T03:00:14Z" (607402814) transition_time 0xa8-0xac (4)
0x0a0|                                    25 41 3b 4e|            %A;N|      [32]: "1989-10-22T04:00:14Z" (625032014) transition_time 0xac-0xb0 (4)
0x0b0|26 15 6e bf                                    |&.n.            |      [33]: "1990-04-01T03:00:15Z" (638938815) transition_time 0xb0-0xb4 (4)
0x0b0|            27 06 bf 4f                        |    '..O        |      [34]: "1990-10-01T04:00:15Z" (654753615) transition_time 0xb4-0xb8 (4)
0x0b0|                        27 f6 a2 40            |        '..@    |      [35]: "1991-04-01T03:00:16Z" (670474816) transition_time 0xb8-0xbc (4)
0x0b0|                                    28 ee 8a 50|            (..P|      [36]: "1991-10-06T04:00:16Z" (686721616) transition_time 0xbc-0xc0 (4)
0x0c0|29 b0 48 c0                                    |).H.            |      [37]: "1992-03-01T03:00:16Z" (699418816) transition_time 0xc0-0xc4 (4)
0x0c0|            2a cf bd d1                        |    *...        |      [38]: "1992-10-05T04:00:17Z" (718257617) transition_time 0xc4-0xc8 (4)
0x0c0|                        2b b9 09 41            |        +..A    |      [39]: "1993-03-31T03:00:17Z" (733546817) transition_time 0xc8-0xcc (4)
0x0c0|                                    2c ab ab 52|            ,..R|      [40]: "1993-10-01T04:00:18Z" (749448018) transition_time 0xcc-0xd0 (4)
0x0d0|2d 70 0c c2                                    |-p..            |      [41]: "1994-02-27T03:00:18Z" (762318018) transition_time 0xd0-0xd4 (4)
0x0d0|            2e 8c de d3                        |    ....        |      [42]: "1994-10-01T04:00:19Z" (780984019) transition_time 0xd4-0xd8 (4)
0x0d0|                        2f 4f ee c3            |        /O..    |      [43]: "1995-02-26T03:00:19Z" (793767619) transition_time 0xd8-0xdc (4)
0x0d0|                                    30 6e 12 53|            0n.S|      [44]: "1995-10-01T04:00:19Z" (812520019) transition_time 0xdc-0xe0 (4)
0x0e0|31 36 68 44                                    |16hD            |      [45]: "1996-03-01T03:00:20Z" (825649220) transition_time 0xe0-0xe4 (4)
0x0e0|            32 57 2e d4                        |    2W..        |      [46]: "1996-10-06T04:00:20Z" (844574420) transition_time 0xe4-0xe8 (4)
0x0e0|                        33 0f b2 c4            |        3...    |      [47]: "1997-02-23T03:00:20Z" (856666820) transition_time 0xe8-0xec (4)
0x0e0|                                    34 37 10 d5|            47..|      [48]: "1997-10-05T04:00:21Z" (876024021) transition_time 0xec-0xf0 (4)
0x0f0|34 f8 cf 45                                    |4..E            |      [49]: "1998-03-01T03:00:21Z" (888721221) transition_time 0xf0-0xf4 (4)
0x0f0|            36 16 f2 d5                        |    6...        |      [50]: "1998-10-04T04:00:21Z" (907473621) transition_time 0xf4-0xf8 (4)
0x0f0|                        36 e1 eb c6            |        6...    |      [51]: "1999-03-07T03:00:22Z" (920775622) transition_time 0xf8-0xfc (4)
0x0f0|                                    37 f6 d4 d6|            7...|      [52]: "1999-10-03T04:00:22Z" (938923222) transition_time 0xfc-0x100 (4)
0x100|38 c1 cd c6                                    |8...            |      [53]: "2000-03-05T03:00:22Z" (952225222) transition_time 0x100-0x104 (4)
0x100|            39 d6 b6 d6                        |    9...        |      [54]: "2000-10-01T04:00:22Z" (970372822) transition_time 0x104-0x108 (4)
0x100|                        3a a1 af c6            |        :...    |      [55]: "2001-03-04T03:00:22Z" (983674822) transition_time 0x108-0x10c (4)
0x100|                                    3b bf d3 56|            ;..V|      [56]: "2001-10-07T04:00:22Z" (1002427222) transition_time 0x10c-0x110 (4)
0x110|3c af b6 46                                    |<..F            |      [57]: "2002-04-07T03:00:22Z" (1018148422) transition_time 0x110-0x114 (4)
0x110|            3d 71 90 d6                        |    =q..        |      [58]: "2002-09-01T04:00:22Z" (1030852822) transition_time 0x114-0x118 (4)
0x110|                        3e 8f 98 46            |        >..F    |      [59]: "2003-04-06T03:00:22Z" (1049598022) transition_time 0x118-0x11c (4)
0x110|                                    3f 5a ad 56|            ?Z.V|      [60]: "2003-09-07T04:00:22Z" (1062907222) transition_time 0x11c-0x120 (4)
0x120|40 6f 7a 46                                    |@ozF            |      [61]: "2004-04-04T03:00:22Z" (1081047622) transition_time 0x120-0x124 (4)
0x120|            41 71 ee 56                        |    Aq.V        |      [62]: "2004-10-17T04:00:22Z" (1097985622) transition_time 0x124-0x128 (4)
0x120|                        42 33 ac c6            |        B3..    |      [63]: "2005-03-13T03:00:22Z" (1110682822) transition_time 0x128-0x12c (4)
0x120|                                    43 51 d0 56|            CQ.V|      [64]: "2005-10-16T04:00:22Z" (1129435222) transition_time 0x12c-0x130 (4)
0x130|44 13 8e c7                                    |D...            |      [65]: "2006-03-12T03:00:23Z" (1142132423) transition_time 0x130-0x134 (4)
0x130|            45 31 b2 57                        |    E1.W        |      [66]: "2006-10-15T04:00:23Z" (1160884823) transition_time 0x134-0x138 (4)
0x130|                        45 f3 70 c7            |        E.p.    |      [67]: "2007-03-11T03:00:23Z" (1173582023) transition_time 0x138-0x13c (4)
0x130|                                    47 1a ce d7|            G...|      [68]: "2007-10-21T04:00:23Z" (1192939223) transition_time 0x13c-0x140 (4)
0x140|47 d3 52 c7                                    |G.R.            |      [69]: "2008-03-09T03:00:23Z" (1205031623) transition_time 0x140-0x144 (4)
0x140|            48 fa b0 d7                        |    H...        |      [70]: "2008-10-19T04:00:23Z" (1224388823) transition_time 0x144-0x148 (4)
0x140|                        49 b3 34 c8            |        I.4.    |      [71]: "2009-03-08T03:00:24Z" (1236481224) transition_time 0x148-0x14c (4)
0x140|                                    4a da 92 d8|            J...|      [72]: "2009-10-18T04:00:24Z" (1255838424) transition_time 0x14c-0x150 (4)
0x150|4b c1 3b 48                                    |K.;H            |      [73]: "2010-04-11T03:00:24Z" (1270954824) transition_time 0x150-0x154 (4)
0x150|            4c a7 ff d8                        |    L...        |      [74]: "2010-10-03T04:00:24Z" (1286078424) transition_time 0x154-0x158 (4)
0x150|                        4d a1 1d 48            |        M..H    |      [75]: "2011-04-10T03:00:24Z" (1302404424) transition_time 0x158-0x15c (4)
0x150|                                    4e 87 e1 d8|            N...|      [76]: "2011-10-02T04:00:24Z" (1317528024) transition_time 0x15c-0x160 (4)
0x160|4f 80 ff 48                                    |O..H            |      [77]: "2012-04-08T03:00:24Z" (1333854024) transition_time 0x160-0x164 (4)
0x160|            50 70 fe 59                        |    Pp.Y        |      [78]: "2012-10-07T04:00:25Z" (1349582425) transition_time 0x164-0x168 (4)
0x160|                        51 4e 6c 49            |        QNlI    |      [79]: "2013-03-24T03:00:25Z" (1364094025) transition_time 0x168-0x16c (4)
0x160|                                    52 50 e0 59|            RP.Y|      [80]: "2013-10-06T04:00:25Z" (1381032025) transition_time 0x16c-0x170 (4)
0x170|53 2e 4e 49                                    |S.NI            |      [81]: "2014-03-23T03:00:25Z" (1395543625) transition_time 0x170-0x174 (4)
0x170|            54 30 c2 59                        |    T0.Y        |      [82]: "2014-10-05T04:00:25Z" (1412481625) transition_time 0x174-0x178 (4)
0x170|                        55 0e 30 49            |        U.0I    |      [83]: "2015-03-22T03:00:25Z" (1426993225) transition_time 0x178-0x17c (4)
0x170|                                    56 10 a4 5a|            V..Z|      [84]: "2015-10-04T04:00:26Z" (1443931226) transition_time 0x17c-0x180 (4)
0x180|56 f7 4c ca                                    |V.L.            |      [85]: "2016-03-27T03:00:26Z" (1459047626) transition_time 0x180-0x184 (4)
0x180|            57 f0 86 5a                        |    W..Z        |      [86]: "2016-10-02T04:00:26Z" (1475380826) transition_time 0x184-0x188 (4)
0x180|                        58 d7 2e cb            |        X...    |      [87]: "2017-03-26T03:00:27Z" (1490497227) transition_time 0x188-0x18c (4)
0x180|                                    59 d0 68 5b|            Y.h[|      [88]: "2017-10-01T04:00:27Z" (1506830427) transition_time 0x18c-0x190 (4)
0x190|5a b7 10 cb                                    |Z...            |      [89]: "2018-03-25T03:00:27Z" (1521946827) transition_time 0x190-0x194 (4)
0x190|            5b b9 84 db                        |    [...        |      [90]: "2018-10-07T04:00:27Z" (1538884827) transition_time 0x194-0x198 (4)
0x190|                        5c 96 f2 cb            |        \...    |      [91]: "2019-03-24T03:00:27Z" (1553396427) transition_time 0x198-0x19c (4)
0x190|                                    5d 99 66 db|            ].f.|      [92]: "2019-10-06T04:00:27Z" (1570334427) transition_time 0x19c-0x1a0 (4)
0x1a0|5e 76 d4 cb                                    |^v..            |      [93]: "2020-03-22T03:00:27Z" (1584846027) transition_time 0x1a0-0x1a4 (4)
0x1a0|            5f 79 48 db                        |    _yH.        |      [94]: "2020-10-04T04:00:27Z" (1601784027) transition_time 0x1a4-0x1a8 (4)
0x1a0|                        60 5f f1 4b            |        `_.K    |      [95]: "2021-03-28T03:00:27Z" (1616900427) transition_time 0x1a8-0x1ac (4)
0x1a0|                                    61 59 2a db|            aY*.|      [96]: "2021-10-03T04:00:27Z" (1633233627) transition_time 0x1ac-0x1b0 (4)
0x1b0|62 3f d3 4b                                    |b?.K            |      [97]: "2022-03-27T03:00:27Z" (1648350027) transition_time 0x1b0-0x1b4 (4)
0x1b0|            63 39 0c db                        |    c9..        |      [98]: "2022-10-02T04:00:27Z" (1664683227) transition_time 0x1b4-0x1b8 (4)
0x1b0|                        64 1f b5 4b            |        d..K    |      [99]: "2023-03-26T03:00:27Z" (1679799627) transition_time 0x1b8-0x1bc (4)
0x1b0|                                    64 9b 78 1b|            d.x.|      [100]: "2023-06-28T00:00:27Z" (1687910427) transition_time 0x1bc-0x1c0 (4)
     |                                               |                |    transition_types[0:101]: 0x1c0-0x225 (101)
0x1c0|01                                             |.               |      [0]: 1 transition_type 0x1c0-0x1c1 (1)
0x1c0|   02                                          | .              |      [1]: 2 transition_type 0x1c1-0x1c2 (1)
0x1c0|      03                                       |  .             |      [2]: 3 transition_type 0x1c2-0x1c3 (1)
0x1c0|         02                                    |   .            |      [3]: 2 transition_type 0x1c3-0x1c4 (1)
0x1c0|            04                                 |    .           |      [4]: 4 transition_type 0x1c4-0x1c5 (1)
0x1c0|               02                              |     .          |      [5]: 2 transition_type 0x1c5-0x1c6 (1)
0x1c0|                  04                           |      .         |      [6]: 4 transition_type 0x1c6-0x1c7 (1)
0x1c0|                     02                        |       .        |      [7]: 2 transition_type 0x1c7-0x1c8 (1)
0x1c0|                        04                     |        .       |      [8]: 4 transition_type 0x1c8-0x1c9 (1)
0x1c0|                           02                  |         .      |      [9]: 2 transition_type 0x1c9-0x1ca (1)
0x1c0|                              04               |          .     |      [10]: 4 transition_type 0x1ca-0x1cb (1)
0x1c0|                                 02            |           .    |      [11]: 2 transition_type 0x1cb-0x1cc (1)
0x1c0|                                    04         |            .   |      [12]: 4 transition_type 0x1cc-0x1cd (1)
0x1c0|                                       02      |             .  |      [13]: 2 transition_type 0x1cd-0x1ce (1)
0x1c0|                                          04   |              . |      [14]: 4 transition_type 0x1ce-0x1cf (1)
0x1c0|                                             02|               .|      [15]: 2 transition_type 0x1cf-0x1d0 (1)
0x1d0|04                                             |.               |      [16]: 4 transition_type 0x1d0-0x1d1 (1)
0x1d0|   02                                          | .              |      [17]: 2 transition_type 0x1d1-0x1d2 (1)
0x1d0|      04                                       |  .             |      [18]: 4 transition_type 0x1d2-0x1d3 (1)
0x1d0|         02                                    |   .            |      [19]: 2 transition_type 0x1d3-0x1d4 (1)
0x1d0|            04                                 |    .           |      [20]: 4 transition_type 0x1d4-0x1d5 (1)
0x1d0|               02                              |     .          |      [21]: 2 transition_type 0x1d5-0x1d6 (1)
0x1d0|                  04                           |      .         |      [22]: 4 transition_type 0x1d6-0x1d7 (1)
0x1d0|                     02                        |       .        |      [23]: 2 transition_type 0x1d7-0x1d8 (1)
0x1d0|                        04                     |        .       |      [24]: 4 transition_type 0x1d8-0x1d9 (1)
0x1d0|                           02                  |         .      |      [25]: 2 transition_type 0x1d9-0x1da (1)
0x1d0|                              04               |          .     |      [26]: 4 transition_type 0x1da-0x1db (1)
0x1d0|                                 02            |           .    |      [27]: 2 transition_type 0x1db-0x1dc (1)
0x1d0|                                    04         |            .   |      [28]: 4 transition_type 0x1dc-0x1dd (1)
0x1d0|                                       02      |             .  |      [29]: 2 transition_type 0x1dd-0x1de (1)
0x1d0|                                          04   |              . |      [30]: 4 transition_type 0x1de-0x1df (1)
0x1d0|                                             02|               .|      [31]: 2 transition_type 0x1df-0x1e0 (1)
0x1e0|04                                             |.               |      [32]: 4 transition_type 0x1e0-0x1e1 (1)
0x1e0|   02                                          | .              |      [33]: 2 transition_type 0x1e1-0x1e2 (1)
0x1e0|      04                                       |  .             |      [34]: 4 transition_type 0x1e2-0x1e3 (1)
0x1e0|         02                                    |   .            |      [35]: 2 transition_type 0x1e3-0x1e4 (1)
0x1e0|            04                                 |    .           |      [36]: 4 transition_type 0x1e4-0x1e5 (1)
0x1e0|               02                              |     .          |      [37]: 2 transition_type 0x1e5-0x1e6 (1)
0x1e0|                  04                           |      .         |      [38]: 4 transition_type 0x1e6-0x1e7 (1)
0x1e0|                     02                        |       .        |      [39]: 2 transition_type 0x1e7-0x1e8 (1)
0x1e0|                        04                     |        .       |      [40]: 4 transition_type 0x1e8-0x1e9 (1)
0x1e0|                           02                  |         .      |      [41]: 2 transition_type 0x1e9-0x1ea (1)
0x1e0|                              04               |          .     |      [42]: 4 transition_type 0x1ea-0x1eb (1)
0x1e0|                                 02            |           .    |      [43]: 2 transition_type 0x1eb-0x1ec (1)
0x1e0|                                    04         |            .   |      [44]: 4 transition_type 0x1ec-0x1ed (1)
0x1e0|                                       02      |             .  |      [45]: 2 transition_type 0x1ed-0x1ee (1)
0x1e0|                                          04   |              . |      [46]: 4 transition_type 0x1ee-0x1ef (1)
0x1e0|                                             02|               .|      [47]: 2 transition_type 0x1ef-0x1f0 (1)
0x1f0|04                                             |.               |      [48]: 4 transition_type 0x1f0-0x1f1 (1)
0x1f0|   02                                          | .              |      [49]: 2 transition_type 0x1f1-0x1f2 (1)
0x1f0|      04                                       |  .             |      [50]: 4 transition_type 0x1f2-0x1f3 (1)
0x1f0|         02                                    |   .            |      [51]: 2 transition_type 0x1f3-0x1f4 (1)
0x1f0|            04                                 |    .           |      [52]: 4 transition_type 0x1f4-0x1f5 (1)
0x1f0|               02                              |     .          |      [53]: 2 transition_type 0x1f5-0x1f6 (1)
0x1f0|                  04                           |      .         |      [54]: 4 transition_type 0x1f6-0x1f7 (1)
0x1f0|                     02                        |       .        |      [55]: 2 transition_type 0x1f7-0x1f8 (1)
0x1f0|                        04                     |        .       |      [56]: 4 transition_type 0x1f8-0x1f9 (1)
0x1f0|                           02                  |         .      |      [57]: 2 transition_type 0x1f9-0x1fa (1)
0x1f0|                              04               |          .     |      [58]: 4 transition_type 0x1fa-0x1fb (1)
0x1f0|                                 02            |           .    |      [59]: 2 transition_type 0x1fb-0x1fc (1)
0x1f0|                                    04         |            .   |      [60]: 4 transition_type 0x1fc-0x1fd (1)
0x1f0|                                       02      |             .  |      [61]: 2 transition_type 0x1fd-0x1fe (1)
0x1f0|                                          04   |              . |      [62]: 4 transition_type 0x1fe-0x1ff (1)
0x1f0|                                             02|               .|      [63]: 2 transition_type 0x1ff-0x200 (1)
0x200|04                                             |.               |      [64]: 4 transition_type 0x200-0x201 (1)
0x200|   02                                          | .              |      [65]: 2 transition_type 0x201-0x202 (1)
0x200|      04                                       |  .             |      [66]: 4 transition_type 0x202-0x203 (1)
0x200|         02                                    |   .            |      [67]: 2 transition_type 0x203-0x204 (1)
0x200|            04                                 |    .           |      [68]: 4 transition_type 0x204-0x205 (1)
0x200|               02                              |     .          |      [69]: 2 transition_type 0x205-0x206 (1)
0x200|                  04                           |      .         |      [70]: 4 transition_type 0x206-0x207 (1)
0x200|                     02                        |       .        |      [71]: 2 transition_type 0x207-0x208 (1)
0x200|                        04                     |        .       |      [72]: 4 transition_type 0x208-0x209 (1)
0x200|                           02                  |         .      |      [73]: 2 transition_type 0x209-0x20a (1)
0x200|                              04               |          .     |      [74]: 4 transition_type 0x20a-0x20b (1)
0x200|                                 02            |           .    |      [75]: 2 transition_type 0x20b-0x20c (1)
0x200|                                    04         |            .   |      [76]: 4 transition_type 0x20c-0x20d (1)
0x200|                                       02      |             .  |      [77]: 2 transition_type 0x20d-0x20e (1)
0x200|                                          04   |              . |      [78]: 4 transition_type 0x20e-0x20f (1)
0x200|                                             02|               .|      [79]: 2 transition_type 0x20f-0x210 (1)
0x210|04                                             |.               |      [80]: 4 transition_type 0x210-0x211 (1)
0x210|   02                                          | .              |      [81]: 2 transition_type 0x211-0x212 (1)
0x210|      04                                       |  .             |      [82]: 4 transition_type 0x212-0x213 (1)
0x210|         02                                    |   .            |      [83]: 2 transition_type 0x213-0x214 (1)
0x210|            04                                 |    .           |      [84]: 4 transition_type 0x214-0x215 (1)
0x210|               02                              |     .          |      [85]: 2 transition_type 0x215-0x216 (1)
0x210|                  04                           |      .         |      [86]: 4 transition_type 0x216-0x217 (1)
0x210|                     02                        |       .        |      [87]: 2 transition_type 0x217-0x218 (1)
0x210|                        04                     |        .       |      [88]: 4 transition_type 0x218-0x219 (1)
0x210|                           02                  |         .      |      [89]: 2 transition_type 0x219-0x21a (1)
0x210|                              04               |          .     |      [90]: 4 transition_type 0x21a-0x21b (1)
0x210|                                 02            |           .    |      [91]: 2 transition_type 0x21b-0x21c (1)
0x210|                                    04         |            .   |      [92]: 4 transition_type 0x21c-0x21d (1)
0x210|                                       02      |             .  |      [93]: 2 transition_type 0x21d-0x21e (1)
0x210|                                          04   |              . |      [94]: 4 transition_type 0x21e-0x21f (1)
0x210|                                             02|               .|      [95]: 2 transition_type 0x21f-0x220 (1)
0x220|04                                             |.               |      [96]: 4 transition_type 0x220-0x221 (1)
0x220|   02                                          | .              |      [97]: 2 transition_type 0x221-0x222 (1)
0x220|      04                                       |  .             |      [98]: 4 transition_type 0x222-0x223 (1)
0x220|         02                                    |   .            |      [99]: 2 transition_type 0x223-0x224 (1)
0x220|            02                                 |    .           |      [100]: 2 transition_type 0x224-0x225 (1)
     |                                               |                |    local_time_type_records[0:6]: 0x225-0x249 (36)
     |                                               |                |      [0]{}: local_time_type 0x225-0x22b (6)
0x220|               ff ff c9 f0                     |     ....       |        utoff: -13840 (valid) 0x225-0x229 (4)
0x220|                           00                  |         .      |        dst: 0 (valid) 0x229-0x22a (1)
0x220|                              00               |          .     |        idx: 0 (valid) 0x22a-0x22b (1)
     |                                               |                |      [1]{}: local_time_type 0x22b-0x231 (6)
0x220|                                 ff ff c9 f0   |           .... |        utoff: -13840 (valid) 0x22b-0x22f (4)
0x220|                                             00|               .|        dst: 0 (valid) 0x22f-0x230 (1)
0x230|04                                             |.               |        idx: 4 (valid) 0x230-0x231 (1)
     |                                               |                |      [2]{}: local_time_type 0x231-0x237 (6)
0x230|   ff ff c7 c0                                 | ....           |        utoff: -14400 (valid) 0x231-0x235 (4)
0x230|               00                              |     .          |        dst: 0 (valid) 0x235-0x236 (1)
0x230|                  08                           |      .         |        idx: 8 (valid) 0x236-0x237 (1)
     |                                               |                |      [3]{}: local_time_type 0x237-0x23d (6)
0x230|                     ff ff d5 d0               |       ....     |        utoff: -10800 (valid) 0x237-0x23b (4)
0x230|                                 00            |           .    |        dst: 0 (valid) 0x23b-0x23c (1)
0x230|                                    0c         |            .   |        idx: 12 (valid) 0x23c-0x23d (1)
     |                                               |                |      [4]{}: local_time_type 0x23d-0x243 (6)
0x230|                                       ff ff d5|             ...|        utoff: -10800 (valid) 0x23d-0x241 (4)
0x240|d0                                             |.               |
0x240|   01                                          | .              |        dst: 1 (valid) 0x241-0x242 (1)
0x240|      0c                                       |  .             |        idx: 12 (valid) 0x242-0x243 (1)
     |                                               |                |      [5]{}: local_time_type 0x243-0x249 (6)
0x240|         ff ff c7 c0                           |   ....         |        utoff: -14400 (valid) 0x243-0x247 (4)
0x240|                     00                        |       .        |        dst: 0 (valid) 0x247-0x248 (1)
0x240|                        08                     |        .       |        idx: 8 (valid) 0x248-0x249 (1)
     |                                               |                |    time_zone_designations[0:4]: 0x249-0x259 (16)
0x240|                           4c 4d 54 00         |         LMT.   |      [0]: "LMT" time_zone_designation 0x249-0x24d (4)
0x240|                                       41 4d 54|             AMT|      [1]: "AMT" time_zone_designation 0x24d-0x251 (4)
0x250|00                                             |.               |
0x250|   2d 30 34 00                                 | -04.           |      [2]: "-04" time_zone_designation 0x251-0x255 (4)
0x250|               2d 30 33 00                     |     -03.       |      [3]: "-03" time_zone_designation 0x255-0x259 (4)
     |                                               |                |    leap_second_records[0:27]: 0x259-0x331 (216)
     |                                               |                |      [0]{}: leap_second_record 0x259-0x261 (8)
0x250|                           04 b2 58 00         |         ..X.   |        occur: "1972-07-01T00:00:00Z" (78796800) 0x259-0x25d (4)
0x250|                                       00 00 00|             ...|        corr: 1 0x25d-0x261 (4)
0x260|01                                             |.               |
     |                                               |                |      [1]{}: leap_second_record 0x261-0x269 (8)
0x260|   05 a4 ec 01                                 | ....           |        occur: "1973-01-01T00:00:01Z" (94694401) 0x261-0x265 (4)
0x260|               00 00 00 02                     |     ....       |        corr: 2 0x265-0x269 (4)
     |                                               |                |      [2]{}: leap_second_record 0x269-0x271 (8)
0x260|                           07 86 1f 82         |         ....   |        occur: "1974-01-01T00:00:02Z" (126230402) 0x269-0x26d (4)
0x260|                                       00 00 00|             ...|        corr: 3 0x26d-0x271 (4)
0x270|03                                             |.               |
     |                                               |                |      [3]{}: leap_second_record 0x271-0x279 (8)
0x270|   09 67 53 03                                 | .gS.           |        occur: "1975-01-01T00:00:03Z" (157766403) 0x271-0x275 (4)
0x270|               00 00 00 04                     |     ....       |        corr: 4 0x275-0x279 (4)
     |                                               |                |      [4]{}: leap_second_record 0x279-0x281 (8)
0x270|                           0b 48 86 84         |         .H..   |        occur: "1976-01-01T00:00:04Z" (189302404) 0x279-0x27d (4)
0x270|                                       00 00 00|             ...|        corr: 5 0x27d-0x281 (4)
0x280|05                                             |.               |
     |                                               |                |      [5]{}: leap_second_record 0x281-0x289 (8)
0x280|   0d 2b 0b 85                                 | .+..           |        occur: "1977-01-01T00:00:05Z" (220924805) 0x281-0x285 (4)
0x280|               00 00 00 06                     |     ....       |        corr: 6 0x285-0x289 (4)
     |                                               |                |      [6]{}: leap_second_record 0x289-0x291 (8)
0x280|                           0f 0c 3f 06         |         ..?.   |        occur: "1978-01-01T00:00:06Z" (252460806) 0x289-0x28d (4)
0x280|                                       00 00 00|             ...|        corr: 7 0x28d-0x291 (4)
0x290|07                                             |.               |
     |                                               |                |      [7]{}: leap_second_record 0x291-0x299 (8)
0x290|   10 ed 72 87                                 | ..r.           |        occur: "1979-01-01T00:00:07Z" (283996807) 0x291-0x295 (4)
0x290|               00 00 00 08                     |     ....       |        corr: 8 0x295-0x299 (4)
     |                                               |                |      [8]{}: leap_second_record 0x299-0x2a1 (8)
0x290|                           12 ce a6 08         |         ....   |        occur: "1980-01-01T00:00:08Z" (315532808) 0x299-0x29d (4)
0x290|                                       00 00 00|             ...|        corr: 9 0x29d-0x2a1 (4)
0x2a0|09                                             |.               |
     |                                               |                |      [9]{}: leap_second_record 0x2a1-0x2a9 (8)
0x2a0|   15 9f ca 89                                 | ....           |        occur: "1981-07-01T00:00:09Z" (362793609) 0x2a1-0x2a5 (4)
0x2a0|               00 00 00 0a                     |     ....       |        corr: 10 0x2a5-0x2a9 (4)
     |                                               |                |      [10]{}: leap_second_record 0x2a9-0x2b1 (8)
0x2a0|                           17 80 fe 0a         |         ....   |        occur: "1982-07-01T00:00:10Z" (394329610) 0x2a9-0x2ad (4)
0x2a0|                                       00 00 00|             ...|        corr: 11 0x2ad-0x2b1 (4)
0x2b0|0b                                             |.               |
     |                                               |                |      [11]{}: leap_second_record 0x2b1-0x2b9 (8)
0x2b0|   19 62 31 8b                                 | .b1.           |        occur: "1983-07-01T00:00:11Z" (425865611) 0x2b1-0x2b5 (4)
0x2b0|               00 00 00 0c                     |     ....       |        corr: 12 0x2b5-0x2b9 (4)
     |                                               |                |      [12]{}: leap_second_record 0x2b9-0x2c1 (8)
0x2b0|                           1d 25 ea 0c         |         .%..   |        occur: "1985-07-01T00:00:12Z" (489024012) 0x2b9-0x2bd (4)
0x2b0|                                       00 00 00|             ...|        corr: 13 0x2bd-0x2c1 (4)
0x2c0|0d                                             |.               |
     |                                               |                |      [13]{}: leap_second_record 0x2c1-0x2c9 (8)
0x2c0|   21 da e5 0d                                 | !...           |        occur: "1988-01-01T00:00:13Z" (567993613) 0x2c1-0x2c5 (4)
0x2c0|               00 00 00 0e                     |     ....       |        corr: 14 0x2c5-0x2c9 (4)
     |                                               |                |      [14]{}: leap_second_record 0x2c9-0x2d1 (8)
0x2c0|                           25 9e 9d 8e         |         %...   |        occur: "1990-01-01T00:00:14Z" (631152014) 0x2c9-0x2cd (4)
0x2c0|                                       00 00 00|             ...|        corr: 15 0x2cd-0x2d1 (4)
0x2d0|0f                                             |.               |
     |                                               |                |      [15]{}: leap_second_record 0x2d1-0x2d9 (8)
0x2d0|   27 7f d1 0f                                 | '...           |        occur: "1991-01-01T00:00:15Z" (662688015) 0x2d1-0x2d5 (4)
0x2d0|               00 00 00 10                     |     ....       |        corr: 16 0x2d5-0x2d9 (4)
     |                                               |                |      [16]{}: leap_second_record 0x2d9-0x2e1 (8)
0x2d0|                           2a 50 f5 90         |         *P..   |        occur: "1992-07-01T00:00:16Z" (709948816) 0x2d9-0x2dd (4)
0x2d0|                                       00 00 00|             ...|        corr: 17 0x2dd-0x2e1 (4)
0x2e0|11                                             |.               |
     |                                               |                |      [17]{}: leap_second_record 0x2e1-0x2e9 (8)
0x2e0|   2c 32 29 11                                 | ,2).           |        occur: "1993-07-01T00:00:17Z" (741484817) 0x2e1-0x2e5 (4)
0x2e0|               00 00 00 12                     |     ....       |        corr: 18 0x2e5-0x2e9 (4)
     |                                               |                |      [18]{}: leap_second_record 0x2e9-0x2f1 (8)
0x2e0|                           2e 13 5c 92         |         ..\.   |        occur: "1994-07-01T00:00:18Z" (773020818) 0x2e9-0x2ed (4)
0x2e0|                                       00 00 00|             ...|        corr: 19 0x2ed-0x2f1 (4)
0x2f0|13                                             |.               |
     |                                               |                |      [19]{}: leap_second_record 0x2f1-0x2f9 (8)
0x2f0|   30 e7 24 13                                 | 0.$.           |        occur: "1996-01-01T00:00:19Z" (820454419) 0x2f1-0x2f5 (4)
0x2f0|               00 00 00 14                     |     ....       |        corr: 20 0x2f5-0x2f9 (4)
     |                                               |                |      [20]{}: leap_second_record 0x2f9-0x301 (8)
0x2f0|                           33 b8 48 94         |         3.H.   |        occur: "1997-07-01T00:00:20Z" (867715220) 0x2f9-0x2fd (4)
0x2f0|                                       00 00 00|             ...|        corr: 21 0x2fd-0x301 (4)
0x300|15                                             |.               |
     |                                               |                |      [21]{}: leap_second_record 0x301-0x309 (8)
0x300|   36 8c 10 15                                 | 6...           |        occur: "1999-01-01T00:00:21Z" (915148821) 0x301-0x305 (4)
0x300|               00 00 00 16                     |     ....       |        corr: 22 0x305-0x309 (4)
     |                                               |                |      [22]{}: leap_second_record 0x309-0x311 (8)
0x300|                           43 b7 1b 96         |         C...   |        occur: "2006-01-01T00:00:22Z" (1136073622) 0x309-0x30d (4)
0x300|                                       00 00 00|             ...|        corr: 23 0x30d-0x311 (4)
0x310|17                                             |.               |
     |                                               |                |      [23]{}: leap_second_record 0x311-0x319 (8)
0x310|   49 5c 07 97                                 | I\..           |        occur: "2009-01-01T00:00:23Z" (1230768023) 0x311-0x315 (4)
0x310|               00 00 00 18                     |     ....       |        corr: 24 0x315-0x319 (4)
     |                                               |                |      [24]{}: leap_second_record 0x319-0x321 (8)
0x310|                           4f ef 93 18         |         O...   |        occur: "2012-07-01T00:00:24Z" (1341100824) 0x319-0x31d (4)
0x310|                                       00 00 00|             ...|        corr: 25 0x31d-0x321 (4)
0x320|19                                             |.               |
     |                                               |                |      [25]{}: leap_second_record 0x321-0x329 (8)
0x320|   55 93 2d 99                                 | U.-.           |        occur: "2015-07-01T00:00:25Z" (1435708825) 0x321-0x325 (4)
0x320|               00 00 00 1a                     |     ....       |        corr: 26 0x325-0x329 (4)
     |                                               |                |      [26]{}: leap_second_record 0x329-0x331 (8)
0x320|                           58 68 46 9a         |         XhF.   |        occur: "2017-01-01T00:00:26Z" (1483228826) 0x329-0x32d (4)
0x320|                                       00 00 00|             ...|        corr: 27 0x32d-0x331 (4)
0x330|1b                                             |.               |
     |                                               |                |    standard_wall_indicators[0:0]: 0x331-0x331 (0)
     |                                               |                |    ut_local_indicators[0:0]: 0x331-0x331 (0)
     |                                               |                |  v2plusheader{}: 0x331-0x35d (44)
0x330|   54 5a 69 66                                 | TZif           |    magic: 0x545a6966 (valid) 0x331-0x335 (4)
0x330|               32                              |     2          |    ver: "2" (0x32) (valid) 0x335-0x336 (1)
0x330|                  00 00 00 00 00 00 00 00 00 00|      ..........|    reserved: raw bits 0x336-0x345 (15)
0x340|00 00 00 00 00                                 |.....           |
0x340|               00 00 00 00                     |     ....       |    isutcnt: 0 0x345-0x349 (4)
0x340|                           00 00 00 00         |         ....   |    isstdcnt: 0 0x349-0x34d (4)
0x340|                                       00 00 00|             ...|    leapcnt: 27 0x34d-0x351 (4)
0x350|1b                                             |.               |
0x350|   00 00 00 65                                 | ...e           |    timecnt: 101 0x351-0x355 (4)
0x350|               00 00 00 06                     |     ....       |    typecnt: 6 0x355-0x359 (4)
0x350|                           00 00 00 10         |         ....   |    charcnt: 16 0x359-0x35d (4)
     |                                               |                |  v2plusdatablock{}: 0x35d-0x862 (1285)
     |                                               |                |    transition_times[0:101]: 0x35d-0x685 (808)
0x350|                                       ff ff ff|             ...|      [0]: "1890-01-01T03:50:40Z" (-2524507760) transition_time 0x35d-0x365 (8)
0x360|ff 69 87 11 90                                 |.i...           |
0x360|               ff ff ff ff b8 17 f5 90         |     ........   |      [1]: "1931-10-10T03:50:40Z" (-1206389360) transition_time 0x365-0x36d (8)
0x360|                                       00 00 00|             ...|      [2]: "1972-10-01T04:00:01Z" (86760001) transition_time 0x36d-0x375 (8)
0x370|00 05 2b da 41                                 |..+.A           |
0x370|               00 00 00 00 07 fc f0 b3         |     ........   |      [3]: "1974-04-01T03:00:03Z" (134017203) transition_time 0x375-0x37d (8)
0x370|                                       00 00 00|             ...|      [4]: "1975-10-01T04:00:04Z" (181368004) transition_time 0x37d-0x385 (8)
0x380|00 0a cf 74 c4                                 |...t.           |
0x380|               00 00 00 00 0b 97 ca b5         |     ........   |      [5]: "1976-03-01T03:00:05Z" (194497205) transition_time 0x385-0x38d (8)
0x380|                                       00 00 00|             ...|      [6]: "1976-10-01T04:00:05Z" (212990405) transition_time 0x38d-0x395 (8)
0x390|00 0c b1 f9 c5                                 |.....           |
0x390|               00 00 00 00 0d 78 fe 36         |     .....x.6   |      [7]: "1977-03-01T03:00:06Z" (226033206) transition_time 0x395-0x39d (8)
0x390|                                       00 00 00|             ...|      [8]: "1977-10-01T04:00:06Z" (244526406) transition_time 0x39d-0x3a5 (8)
0x3a0|00 0e 93 2d 46                                 |...-F           |
0x3a0|               00 00 00 00 0f 5a 31 b7         |     .....Z1.   |      [9]: "1978-03-01T03:00:07Z" (257569207) transition_time 0x3a5-0x3ad (8)
0x3a0|                                       00 00 00|             ...|      [10]: "1978-10-01T04:00:07Z" (276062407) transition_time 0x3ad-0x3b5 (8)
0x3b0|00 10 74 60 c7                                 |..t`.           |
0x3b0|               00 00 00 00 11 64 43 b8         |     .....dC.   |      [11]: "1979-04-01T03:00:08Z" (291783608) transition_time 0x3b5-0x3bd (8)
0x3b0|                                       00 00 00|             ...|      [12]: "1979-10-01T04:00:08Z" (307598408) transition_time 0x3bd-0x3c5 (8)
0x3c0|00 12 55 94 48                                 |..U.H           |
0x3c0|               00 00 00 00 13 46 c8 b9         |     .....F..   |      [13]: "1980-04-01T03:00:09Z" (323406009) transition_time 0x3c5-0x3cd (8)
0x3c0|                                       00 00 00|             ...|      [14]: "1980-10-01T04:00:09Z" (339220809) transition_time 0x3cd-0x3d5 (8)
0x3d0|00 14 38 19 49                                 |..8.I           |
0x3d0|               00 00 00 00 15 27 fc 39         |     .....'.9   |      [15]: "1981-04-01T03:00:09Z" (354942009) transition_time 0x3d5-0x3dd (8)
0x3d0|                                       00 00 00|             ...|      [16]: "1981-10-01T04:00:10Z" (370756810) transition_time 0x3dd-0x3e5 (8)
0x3e0|00 16 19 4c ca                                 |...L.           |
0x3e0|               00 00 00 00 17 09 2f ba         |     ....../.   |      [17]: "1982-04-01T03:00:10Z" (386478010) transition_time 0x3e5-0x3ed (8)
0x3e0|                                       00 00 00|             ...|      [18]: "1982-10-01T04:00:11Z" (402292811) transition_time 0x3ed-0x3f5 (8)
0x3f0|00 17 fa 80 4b                                 |....K           |
0x3f0|               00 00 00 00 18 ea 63 3b         |     ......c;   |      [19]: "1983-04-01T03:00:11Z" (418014011) transition_time 0x3f5-0x3fd (8)
0x3f0|                                       00 00 00|             ...|      [20]: "1983-10-01T04:00:12Z" (433828812) transition_time 0x3fd-0x405 (8)
0x400|00 19 db b3 cc                                 |.....           |
0x400|               00 00 00 00 1a cc e8 3c         |     .......<   |      [21]: "1984-04-01T03:00:12Z" (449636412) transition_time 0x405-0x40d (8)
0x400|                                       00 00 00|             ...|      [22]: "1984-10-01T04:00:12Z" (465451212) transition_time 0x40d-0x415 (8)
0x410|00 1b be 38 cc                                 |...8.           |
0x410|               00 00 00 00 1c ae 1b bc         |     ........   |      [23]: "1985-04-01T03:00:12Z" (481172412) transition_time 0x415-0x41d (8)
0x410|                                       00 00 00|             ...|      [24]: "1985-10-01T04:00:13Z" (496987213) transition_time 0x41d-0x425 (8)
0x420|00 1d 9f 6c 4d                                 |...lM           |
0x420|               00 00 00 00 1e 8f 4f 3d         |     ......O=   |      [25]: "1986-04-01T03:00:13Z" (512708413) transition_time 0x425-0x42d (8)
0x420|                                       00 00 00|             ...|      [26]: "1986-10-01T04:00:13Z" (528523213) transition_time 0x42d-0x435 (8)
0x430|00 1f 80 9f cd                                 |.....           |
0x430|               00 00 00 00 20 70 82 bd         |     .... p..   |      [27]: "1987-04-01T03:00:13Z" (544244413) transition_time 0x435-0x43d (8)
0x430|                                       00 00 00|             ...|      [28]: "1987-10-01T04:00:13Z" (560059213) transition_time 0x43d-0x445 (8)
0x440|00 21 61 d3 4d                                 |.!a.M           |
0x440|               00 00 00 00 22 53 07 be         |     ...."S..   |      [29]: "1988-04-01T03:00:14Z" (575866814) transition_time 0x445-0x44d (8)
0x440|                                       00 00 00|             ...|      [30]: "1988-10-01T04:00:14Z" (591681614) transition_time 0x44d-0x455 (8)
0x450|00 23 44 58 4e                                 |.#DXN           |
0x450|               00 00 00 00 24 34 3b 3e         |     ....$4;>   |      [31]: "1989-04-01T03:00:14Z" (607402814) transition_time 0x455-0x45d (8)
0x450|                                       00 00 00|             ...|      [32]: "1989-10-22T04:00:14Z" (625032014) transition_time 0x45d-0x465 (8)
0x460|00 25 41 3b 4e                                 |.%A;N           |
0x460|               00 00 00 00 26 15 6e bf         |     ....&.n.   |      [33]: "1990-04-01T03:00:15Z" (638938815) transition_time 0x465-0x46d (8)
0x460|                                       00 00 00|             ...|      [34]: "1990-10-01T04:00:15Z" (654753615) transition_time 0x46d-0x475 (8)
0x470|00 27 06 bf 4f                                 |.'..O           |
0x470|               00 00 00 00 27 f6 a2 40         |     ....'..@   |      [35]: "1991-04-01T03:00:16Z" (670474816) transition_time 0x475-0x47d (8)
0x470|                                       00 00 00|             ...|      [36]: "1991-10-06T04:00:16Z" (686721616) transition_time 0x47d-0x485 (8)
0x480|00 28 ee 8a 50                                 |.(..P           |
0x480|               00 00 00 00 29 b0 48 c0         |     ....).H.   |      [37]: "1992-03-01T03:00:16Z" (699418816) transition_time 0x485-0x48d (8)
0x480|                                       00 00 00|             ...|      [38]: "1992-10-05T04:00:17Z" (718257617) transition_time 0x48d-0x495 (8)
0x490|00 2a cf bd d1                                 |.*...           |
0x490|               00 00 00 00 2b b9 09 41         |     ....+..A   |      [39]: "1993-03-31T03:00:17Z" (733546817) transition_time 0x495-0x49d (8)
0x490|                                       00 00 00|             ...|      [40]: "1993-10-01T04:00:18Z" (749448018) transition_time 0x49d-0x4a5 (8)
0x4a0|00 2c ab ab 52                                 |.,..R           |
0x4a0|               00 00 00 00 2d 70 0c c2         |     ....-p..   |      [41]: "1994-02-27T03:00:18Z" (762318018) transition_time 0x4a5-0x4ad (8)
0x4a0|                                       00 00 00|             ...|      [42]: "1994-10-01T04:00:19Z" (780984019) transition_time 0x4ad-0x4b5 (8)
0x4b0|00 2e 8c de d3                                 |.....           |
0x4b0|               00 00 00 00 2f 4f ee c3         |     ..../O..   |      [43]: "1995-02-26T03:00:19Z" (793767619) transition_time 0x4b5-0x4bd (8)
0x4b0|                                       00 00 00|             ...|      [44]: "1995-10-01T04:00:19Z" (812520019) transition_time 0x4bd-0x4c5 (8)
0x4c0|00 30 6e 12 53                                 |.0n.S           |
0x4c0|               00 00 00 00 31 36 68 44         |     ....16hD   |      [45]: "1996-03-01T03:00:20Z" (825649220) transition_time 0x4c5-0x4cd (8)
0x4c0|                                       00 00 00|             ...|      [46]: "1996-10-06T04:00:20Z" (844574420) transition_time 0x4cd-0x4d5 (8)
0x4d0|00 32 57 2e d4                                 |.2W..           |
0x4d0|               00 00 00 00 33 0f b2 c4         |     ....3...   |      [47]: "1997-02-23T03:00:20Z" (856666820) transition_time 0x4d5-0x4dd (8)
0x4d0|                                       00 00 00|             ...|      [48]: "1997-10-05T04:00:21Z" (876024021) transition_time 0x4dd-0x4e5 (8)
0x4e0|00 34 37 10 d5                                 |.47..           |
0x4e0|               00 00 00 00 34 f8 cf 45         |     ....4..E   |      [49]: "1998-03-01T03:00:21Z" (888721221) transition_time 0x4e5-0x4ed (8)
0x4e0|                                       00 00 00|             ...|      [50]: "1998-10-04T04:00:21Z" (907473621) transition_time 0x4ed-0x4f5 (8)
0x4f0|00 36 16 f2 d5                                 |.6...           |
0x4f0|               00 00 00 00 36 e1 eb c6         |     ....6...   |      [51]: "1999-03-07T03:00:22Z" (920775622) transition_time 0x4f5-0x4fd (8)
0x4f0|                                       00 00 00|             ...|      [52]: "1999-10-03T04:00:22Z" (938923222) transition_time 0x4fd-0x505 (8)
0x500|00 37 f6 d4 d6                                 |.7...           |
0x500|               00 00 00 00 38 c1 cd c6         |     ....8...   |      [53]: "2000-03-05T03:00:22Z" (952225222) transition_time 0x505-0x50d (8)
0x500|                                       00 00 00|             ...|      [54]: "2000-10-01T04:00:22Z" (970372822) transition_time 0x50d-0x515 (8)
0x510|00 39 d6 b6 d6                                 |.9...           |
0x510|               00 00 00 00 3a a1 af c6         |     ....:...   |      [55]: "2001-03-04T03:00:22Z" (983674822) transition_time 0x515-0x51d (8)
0x510|                                       00 00 00|             ...|      [56]: "2001-10-07T04:00:22Z" (1002427222) transition_time 0x51d-0x525 (8)
0x520|00 3b bf d3 56                                 |.;..V           |
0x520|               00 00 00 00 3c af b6 46         |     ....<..F   |      [57]: "2002-04-07T03:00:22Z" (1018148422) transition_time 0x525-0x52d (8)
0x520|                                       00 00 00|             ...|      [58]: "2002-09-01T04:00:22Z" (1030852822) transition_time 0x52d-0x535 (8)
0x530|00 3d 71 90 d6                                 |.=q..           |
0x530|               00 00 00 00 3e 8f 98 46         |     ....>..F   |      [59]: "2003-04-06T03:00:22Z" (1049598022) transition_time 0x535-0x53d (8)
0x530|                                       00 00 00|             ...|      [60]: "2003-09-07T04:00:22Z" (1062907222) transition_time 0x53d-0x545 (8)
0x540|00 3f 5a ad 56                                 |.?Z.V           |
0x540|               00 00 00 00 40 6f 7a 46         |     ....@ozF   |      [61]: "2004-04-04T03:00:22Z" (1081047622) transition_time 0x545-0x54d (8)
0x540|                                       00 00 00|             ...|      [62]: "2004-10-17T04:00:22Z" (1097985622) transition_time 0x54d-0x555 (8)
0x550|00 41 71 ee 56                                 |.Aq.V           |
0x550|               00 00 00 00 42 33 ac c6         |     ....B3..   |      [63]: "2005-03-13T03:00:22Z" (1110682822) transition_time 0x555-0x55d (8)
0x550|                                       00 00 00|             ...|      [64]: "2005-10-16T04:00:22Z" (1129435222) transition_time 0x55d-0x565 (8)
0x560|00 43 51 d0 56                                 |.CQ.V           |
0x560|               00 00 00 00 44 13 8e c7         |     ....D...   |      [65]: "2006-03-12T03:00:23Z" (1142132423) transition_time 0x565-0x56d (8)
0x560|                                       00 00 00|             ...|      [66]: "2006-10-15T04:00:23Z" (1160884823) transition_time 0x56d-0x575 (8)
0x570|00 45 31 b2 57                                 |.E1.W           |
0x570|               00 00 00 00 45 f3 70 c7         |     ....E.p.   |      [67]: "2007-03-11T03:00:23Z" (1173582023) transition_time 0x575-0x57d (8)
0x570|                                       00 00 00|             ...|      [68]: "2007-10-21T04:00:23Z" (1192939223) transition_time 0x57d-0x585 (8)
0x580|00 47 1a ce d7                                 |.G...           |
0x580|               00 00 00 00 47 d3 52 c7         |     ....G.R.   |      [69]: "2008-03-09T03:00:23Z" (1205031623) transition_time 0x585-0x58d (8)
0x580|                                       00 00 00|             ...|      [70]: "2008-10-19T04:00:23Z" (1224388823) transition_time 0x58d-0x595 (8)
0x590|00 48 fa b0 d7                                 |.H...           |
0x590|               00 00 00 00 49 b3 34 c8         |     ....I.4.   |      [71]: "2009-03-08T03:00:24Z" (1236481224) transition_time 0x595-0x59d (8)
0x590|                                       00 00 00|             ...|      [72]: "2009-10-18T04:00:24Z" (1255838424) transition_time 0x59d-0x5a5 (8)
0x5a0|00 4a da 92 d8                                 |.J...           |
0x5a0|               00 00 00 00 4b c1 3b 48         |     ....K.;H   |      [73]: "2010-04-11T03:00:24Z" (1270954824) transition_time 0x5a5-0x5ad (8)
0x5a0|                                       00 00 00|             ...|      [74]: "2010-10-03T04:00:24Z" (1286078424) transition_time 0x5ad-0x5b5 (8)
0x5b0|00 4c a7 ff d8                                 |.L...           |
0x5b0|               00 00 00 00 4d a1 1d 48         |     ....M..H   |      [75]: "2011-04-10T03:00:24Z" (1302404424) transition_time 0x5b5-0x5bd (8)
0x5b0|                                       00 00 00|             ...|      [76]: "2011-10-02T04:00:24Z" (1317528024) transition_time 0x5bd-0x5c5 (8)
0x5c0|00 4e 87 e1 d8                                 |.N...           |
0x5c0|               00 00 00 00 4f 80 ff 48         |     ....O..H   |      [77]: "2012-04-08T03:00:24Z" (1333854024) transition_time 0x5c5-0x5cd (8)
0x5c0|                                       00 00 00|             ...|      [78]: "2012-10-07T04:00:25Z" (1349582425) transition_time 0x5cd-0x5d5 (8)
0x5d0|00 50 70 fe 59                                 |.Pp.Y           |
0x5d0|               00 00 00 00 51 4e 6c 49         |     ....QNlI   |      [79]: "2013-03-24T03:00:25Z" (1364094025) transition_time 0x5d5-0x5dd (8)
0x5d0|                                       00 00 00|             ...|      [80]: "2013-10-06T04:00:25Z" (1381032025) transition_time 0x5dd-0x5e5 (8)
0x5e0|00 52 50 e0 59                                 |.RP.Y           |
0x5e0|               00 00 00 00 53 2e 4e 49         |     ....S.NI   |      [81]: "2014-03-23T03:00:25Z" (1395543625) transition_time 0x5e5-0x5ed (8)
0x5e0|                                       00 00 00|             ...|      [82]: "2014-10-05T04:00:25Z" (1412481625) transition_time 0x5ed-0x5f5 (8)
0x5f0|00 54 30 c2 59                                 |.T0.Y           |
0x5f0|               00 00 00 00 55 0e 30 49         |     ....U.0I   |      [83]: "2015-03-22T03:00:25Z" (1426993225) transition_time 0x5f5-0x5fd (8)
0x5f0|                                       00 00 00|             ...|      [84]: "2015-10-04T04:00:26Z" (1443931226) transition_time 0x5fd-0x605 (8)
0x600|00 56 10 a4 5a                                 |.V..Z           |
0x600|               00 00 00 00 56 f7 4c ca         |     ....V.L.   |      [85]: "2016-03-27T03:00:26Z" (1459047626) transition_time 0x605-0x60d (8)
0x600|                                       00 00 00|             ...|      [86]: "2016-10-02T04:00:26Z" (1475380826) transition_time 0x60d-0x615 (8)
0x610|00 57 f0 86 5a                                 |.W..Z           |
0x610|               00 00 00 00 58 d7 2e cb         |     ....X...   |      [87]: "2017-03-26T03:00:27Z" (1490497227) transition_time 0x615-0x61d (8)
0x610|                                       00 00 00|             ...|      [88]: "2017-10-01T04:00:27Z" (1506830427) transition_time 0x61d-0x625 (8)
0x620|00 59 d0 68 5b                                 |.Y.h[           |
0x620|               00 00 00 00 5a b7 10 cb         |     ....Z...   |      [89]: "2018-03-25T03:00:27Z" (1521946827) transition_time 0x625-0x62d (8)
0x620|                                       00 00 00|             ...|      [90]: "2018-10-07T04:00:27Z" (1538884827) transition_time 0x62d-0x635 (8)
0x630|00 5b b9 84 db                                 |.[...           |
0x630|               00 00 00 00 5c 96 f2 cb         |     ....\...   |      [91]: "2019-03-24T03:00:27Z" (1553396427) transition_time 0x635-0x63d (8)
0x630|                                       00 00 00|             ...|      [92]: "2019-10-06T04:00:27Z" (1570334427) transition_time 0x63d-0x645 (8)
0x640|00 5d 99 66 db                                 |.].f.           |
0x640|               00 00 00 00 5e 76 d4 cb         |     ....^v..   |      [93]: "2020-03-22T03:00:27Z" (1584846027) transition_time 0x645-0x64d (8)
0x640|                                       00 00 00|             ...|      [94]: "2020-10-04T04:00:27Z" (1601784027) transition_time 0x64d-0x655 (8)
0x650|00 5f 79 48 db                                 |._yH.           |
0x650|               00 00 00 00 60 5f f1 4b         |     ....`_.K   |      [95]: "2021-03-28T03:00:27Z" (1616900427) transition_time 0x655-0x65d (8)
0x650|                                       00 00 00|             ...|      [96]: "2021-10-03T04:00:27Z" (1633233627) transition_time 0x65d-0x665 (8)
0x660|00 61 59 2a db                                 |.aY*.           |
0x660|               00 00 00 00 62 3f d3 4b         |     ....b?.K   |      [97]: "2022-03-27T03:00:27Z" (1648350027) transition_time 0x665-0x66d (8)
0x660|                                       00 00 00|             ...|      [98]: "2022-10-02T04:00:27Z" (1664683227) transition_time 0x66d-0x675 (8)
0x670|00 63 39 0c db                                 |.c9..           |
0x670|               00 00 00 00 64 1f b5 4b         |     ....d..K   |      [99]: "2023-03-26T03:00:27Z" (1679799627) transition_time 0x675-0x67d (8)
0x670|                                       00 00 00|             ...|      [100]: "2023-06-28T00:00:27Z" (1687910427) transition_time 0x67d-0x685 (8)
0x680|00 64 9b 78 1b                                 |.d.x.           |
     |                                               |                |    transition_types[0:101]: 0x685-0x6ea (101)
0x680|               01                              |     .          |      [0]: 1 transition_type 0x685-0x686 (1)
0x680|                  02                           |      .         |      [1]: 2 transition_type 0x686-0x687 (1)
0x680|                     03                        |       .        |      [2]: 3 transition_type 0x687-0x688 (1)
0x680|                        02                     |        .       |      [3]: 2 transition_type 0x688-0x689 (1)
0x680|                           04                  |         .      |      [4]: 4 transition_type 0x689-0x68a (1)
0x680|                              02               |          .     |      [5]: 2 transition_type 0x68a-0x68b (1)
0x680|                                 04            |           .    |      [6]: 4 transition_type 0x68b-0x68c (1)
0x680|                                    02         |            .   |      [7]: 2 transition_type 0x68c-0x68d (1)
0x680|                                       04      |             .  |      [8]: 4 transition_type 0x68d-0x68e (1)
0x680|                                          02   |              . |      [9]: 2 transition_type 0x68e-0x68f (1)
0x680|                                             04|               .|      [10]: 4 transition_type 0x68f-0x690 (1)
0x690|02                                             |.               |      [11]: 2 transition_type 0x690-0x691 (1)
0x690|   04                                          | .              |      [12]: 4 transition_type 0x691-0x692 (1)
0x690|      02                                       |  .             |      [13]: 2 transition_type 0x692-0x693 (1)
0x690|         04                                    |   .            |      [14]: 4 transition_type 0x693-0x694 (1)
0x690|            02                                 |    .           |      [15]: 2 transition_type 0x694-0x695 (1)
0x690|               04                              |     .          |      [16]: 4 transition_type 0x695-0x696 (1)
0x690|                  02                           |      .         |      [17]: 2 transition_type 0x696-0x697 (1)
0x690|                     04                        |       .        |      [18]: 4 transition_type 0x697-0x698 (1)
0x690|                        02                     |        .       |      [19]: 2 transition_type 0x698-0x699 (1)
0x690|                           04                  |         .      |      [20]: 4 transition_type 0x699-0x69a (1)
0x690|                              02               |          .     |      [21]: 2 transition_type 0x69a-0x69b (1)
0x690|                                 04            |           .    |      [22]: 4 transition_type 0x69b-0x69c (1)
0x690|                                    02         |            .   |      [23]: 2 transition_type 0x69c-0x69d (1)
0x690|                                       04      |             .  |      [24]: 4 transition_type 0x69d-0x69e (1)
0x690|                                          02   |              . |      [25]: 2 transition_type 0x69e-0x69f (1)
0x690|                                             04|               .|      [26]: 4 transition_type 0x69f-0x6a0 (1)
0x6a0|02                                             |.               |      [27]: 2 transition_type 0x6a0-0x6a1 (1)
0x6a0|   04                                          | .              |      [28]: 4 transition_type 0x6a1-0x6a2 (1)
0x6a0|      02                                       |  .             |      [29]: 2 transition_type 0x6a2-0x6a3 (1)
0x6a0|         04                                    |   .            |      [30]: 4 transition_type 0x6a3-0x6a4 (1)
0x6a0|            02                                 |    .           |      [31]: 2 transition_type 0x6a4-0x6a5 (1)
0x6a0|               04                              |     .          |      [32]: 4 transition_type 0x6a5-0x6a6 (1)
0x6a0|                  02                           |      .         |      [33]: 2 transition_type 0x6a6-0x6a7 (1)
0x6a0|                     04                        |       .        |      [34]: 4 transition_type 0x6a7-0x6a8 (1)
0x6a0|                        02                     |        .       |      [35]: 2 transition_type 0x6a8-0x6a9 (1)
0x6a0|                           04                  |         .      |      [36]: 4 transition_type 0x6a9-0x6aa (1)
0x6a0|                              02               |          .     |      [37]: 2 transition_type 0x6aa-0x6ab (1)
0x6a0|                                 04            |           .    |      [38]: 4 transition_type 0x6ab-0x6ac (1)
0x6a0|                                    02         |            .   |      [39]: 2 transition_type 0x6ac-0x6ad (1)
0x6a0|                                       04      |             .  |      [40]: 4 transition_type 0x6ad-0x6ae (1)
0x6a0|                                          02   |              . |      [41]: 2 transition_type 0x6ae-0x6af (1)
0x6a0|                                             04|               .|      [42]: 4 transition_type 0x6af-0x6b0 (1)
0x6b0|02                                             |.               |      [43]: 2 transition_type 0x6b0-0x6b1 (1)
0x6b0|   04                                          | .              |      [44]: 4 transition_type 0x6b1-0x6b2 (1)
0x6b0|      02                                       |  .             |      [45]: 2 transition_type 0x6b2-0x6b3 (1)
0x6b0|         04                                    |   .            |      [46]: 4 transition_type 0x6b3-0x6b4 (1)
0x6b0|            02                                 |    .           |      [47]: 2 transition_type 0x6b4-0x6b5 (1)
0x6b0|               04                              |     .          |      [48]: 4 transition_type 0x6b5-0x6b6 (1)
0x6b0|                  02                           |      .         |      [49]: 2 transition_type 0x6b6-0x6b7 (1)
0x6b0|                     04                        |       .        |      [50]: 4 transition_type 0x6b7-0x6b8 (1)
0x6b0|                        02                     |        .       |      [51]: 2 transition_type 0x6b8-0x6b9 (1)
0x6b0|                           04                  |         .      |      [52]: 4 transition_type 0x6b9-0x6ba (1)
0x6b0|                              02               |          .     |      [53]: 2 transition_type 0x6ba-0x6bb (1)
0x6b0|                                 04            |           .    |      [54]: 4 transition_type 0x6bb-0x6bc (1)
0x6b0|                                    02         |            .   |      [55]: 2 transition_type 0x6bc-0x6bd (1)
0x6b0|                                       04      |             .  |      [56]: 4 transition_type 0x6bd-0x6be (1)
0x6b0|                                          02   |              . |      [57]: 2 transition_type 0x6be-0x6bf (1)
0x6b0|                                             04|               .|      [58]: 4 transition_type 0x6bf-0x6c0 (1)
0x6c0|02                                             |.               |      [59]: 2 transition_type 0x6c0-0x6c1 (1)
0x6c0|   04                                          | .              |      [60]: 4 transition_type 0x6c1-0x6c2 (1)
0x6c0|      02                                       |  .             |      [61]: 2 transition_type 0x6c2-0x6c3 (1)
0x6c0|         04                                    |   .            |      [62]: 4 transition_type 0x6c3-0x6c4 (1)
0x6c0|            02                                 |    .           |      [63]: 2 transition_type 0x6c4-0x6c5 (1)
0x6c0|               04                              |     .          |      [64]: 4 transition_type 0x6c5-0x6c6 (1)
0x6c0|                  02                           |      .         |      [65]: 2 transition_type 0x6c6-0x6c7 (1)
0x6c0|                     04                        |       .        |      [66]: 4 transition_type 0x6c7-0x6c8 (1)
0x6c0|                        02                     |        .       |      [67]: 2 transition_type 0x6c8-0x6c9 (1)
0x6c0|                           04                  |         .      |      [68]: 4 transition_type 0x6c9-0x6ca (1)
0x6c0|                              02               |          .     |      [69]: 2 transition_type 0x6ca-0x6cb (1)
0x6c0|                                 04            |           .    |      [70]: 4 transition_type 0x6cb-0x6cc (1)
0x6c0|                                    02         |            .   |      [71]: 2 transition_type 0x6cc-0x6cd (1)
0x6c0|                                       04      |             .  |      [72]: 4 transition_type 0x6cd-0x6ce (1)
0x6c0|                                          02   |              . |      [73]: 2 transition_type 0x6ce-0x6cf (1)
0x6c0|                                             04|               .|      [74]: 4 transition_type 0x6cf-0x6d0 (1)
0x6d0|02                                             |.               |      [75]: 2 transition_type 0x6d0-0x6d1 (1)
0x6d0|   04                                          | .              |      [76]: 4 transition_type 0x6d1-0x6d2 (1)
0x6d0|      02                                       |  .             |      [77]: 2 transition_type 0x6d2-0x6d3 (1)
0x6d0|         04                                    |   .            |      [78]: 4 transition_type 0x6d3-0x6d4 (1)
0x6d0|            02                                 |    .           |      [79]: 2 transition_type 0x6d4-0x6d5 (1)
0x6d0|               04                              |     .          |      [80]: 4 transition_type 0x6d5-0x6d6 (1)
0x6d0|                  02                           |      .         |      [81]: 2 transition_type 0x6d6-0x6d7 (1)
0x6d0|                     04                        |       .        |      [82]: 4 transition_type 0x6d7-0x6d8 (1)
0x6d0|                        02                     |        .       |      [83]: 2 transition_type 0x6d8-0x6d9 (1)
0x6d0|                           04                  |         .      |      [84]: 4 transition_type 0x6d9-0x6da (1)
0x6d0|                              02               |          .     |      [85]: 2 transition_type 0x6da-0x6db (1)
0x6d0|                                 04            |           .    |      [86]: 4 transition_type 0x6db-0x6dc (1)
0x6d0|                                    02         |            .   |      [87]: 2 transition_type 0x6dc-0x6dd (1)
0x6d0|                                       04      |             .  |      [88]: 4 transition_type 0x6dd-0x6de (1)
0x6d0|                                          02   |              . |      [89]: 2 transition_type 0x6de-0x6df (1)
0x6d0|                                             04|               .|      [90]: 4 transition_type 0x6df-0x6e0 (1)
0x6e0|02                                             |.               |      [91]: 2 transition_type 0x6e0-0x6e1 (1)
0x6e0|   04                                          | .              |      [92]: 4 transition_type 0x6e1-0x6e2 (1)
0x6e0|      02                                       |  .             |      [93]: 2 transition_type 0x6e2-0x6e3 (1)
0x6e0|         04                                    |   .            |      [94]: 4 transition_type 0x6e3-0x6e4 (1)
0x6e0|            02                                 |    .           |      [95]: 2 transition_type 0x6e4-0x6e5 (1)
0x6e0|               04                              |     .          |      [96]: 4 transition_type 0x6e5-0x6e6 (1)
0x6e0|                  02                           |      .         |      [97]: 2 transition_type 0x6e6-0x6e7 (1)
0x6e0|                     04                        |       .        |      [98]: 4 transition_type 0x6e7-0x6e8 (1)
0x6e0|                        02                     |        .       |      [99]: 2 transition_type 0x6e8-0x6e9 (1)
0x6e0|                           02                  |         .      |      [100]: 2 transition_type 0x6e9-0x6ea (1)
     |                                               |                |    local_time_type_records[0:6]: 0x6ea-0x70e (36)
     |                                               |                |      [0]{}: local_time_type 0x6ea-0x6f0 (6)
0x6e0|                              ff ff c9 f0      |          ....  |        utoff: -13840 (valid) 0x6ea-0x6ee (4)
0x6e0|                                          00   |              . |        dst: 0 (valid) 0x6ee-0x6ef (1)
0x6e0|                                             00|               .|        idx: 0 (valid) 0x6ef-0x6f0 (1)
     |                                               |                |      [1]{}: local_time_type 0x6f0-0x6f6 (6)
0x6f0|ff ff c9 f0                                    |....            |        utoff: -13840 (valid) 0x6f0-0x6f4 (4)
0x6f0|            00                                 |    .           |        dst: 0 (valid) 0x6f4-0x6f5 (1)
0x6f0|               04                              |     .          |        idx: 4 (valid) 0x6f5-0x6f6 (1)
     |                                               |                |      [2]{}: local_time_type 0x6f6-0x6fc (6)
0x6f0|                  ff ff c7 c0                  |      ....      |        utoff: -14400 (valid) 0x6f6-0x6fa (4)
0x6f0|                              00               |          .     |        dst: 0 (valid) 0x6fa-0x6fb (1)
0x6f0|                                 08            |           .    |        idx: 8 (valid) 0x6fb-0x6fc (1)
     |                                               |                |      [3]{}: local_time_type 0x6fc-0x702 (6)
0x6f0|                                    ff ff d5 d0|            ....|        utoff: -10800 (valid) 0x6fc-0x700 (4)
0x700|00                                             |.               |        dst: 0 (valid) 0x700-0x701 (1)
0x700|   0c                                          | .              |        idx: 12 (valid) 0x701-0x702 (1)
     |                                               |                |      [4]{}: local_time_type 0x702-0x708 (6)
0x700|      ff ff d5 d0                              |  ....          |        utoff: -10800 (valid) 0x702-0x706 (4)
0x700|                  01                           |      .         |        dst: 1 (valid) 0x706-0x707 (1)
0x700|                     0c                        |       .        |        idx: 12 (valid) 0x707-0x708 (1)
     |                                               |                |      [5]{}: local_time_type 0x708-0x70e (6)
0x700|                        ff ff c7 c0            |        ....    |        utoff: -14400 (valid) 0x708-0x70c (4)
0x700|                                    00         |            .   |        dst: 0 (valid) 0x70c-0x70d (1)
0x700|                                       08      |             .  |        idx: 8 (valid) 0x70d-0x70e (1)
     |                                               |                |    time_zone_designations[0:4]: 0x70e-0x71e (16)
0x700|                                          4c 4d|              LM|      [0]: "LMT" time_zone_designation 0x70e-0x712 (4)
0x710|54 00                                          |T.              |
0x710|      41 4d 54 00                              |  AMT.          |      [1]: "AMT" time_zone_designation 0x712-0x716 (4)
0x710|                  2d 30 34 00                  |      -04.      |      [2]: "-04" time_zone_designation 0x716-0x71a (4)
0x710|                              2d 30 33 00      |          -03.  |      [3]: "-03" time_zone_designation 0x71a-0x71e (4)
     |                                               |                |    leap_second_records[0:27]: 0x71e-0x862 (324)
     |                                               |                |      [0]{}: leap_second_record 0x71e-0x72a (12)
0x710|                                          00 00|              ..|        occur: "1972-07-01T00:00:00Z" (78796800) 0x71e-0x726 (8)
0x720|00 00 04 b2 58 00                              |....X.          |
0x720|                  00 00 00 01                  |      ....      |        corr: 1 0x726-0x72a (4)
     |                                               |                |      [1]{}: leap_second_record 0x72a-0x736 (12)
0x720|                              00 00 00 00 05 a4|          ......|        occur: "1973-01-01T00:00:01Z" (94694401) 0x72a-0x732 (8)
0x730|ec 01                                          |..              |
0x730|      00 00 00 02                              |  ....          |        corr: 2 0x732-0x736 (4)
     |                                               |                |      [2]{}: leap_second_record 0x736-0x742 (12)
0x730|                  00 00 00 00 07 86 1f 82      |      ........  |        occur: "1974-01-01T00:00:02Z" (126230402) 0x736-0x73e (8)
0x730|                                          00 00|              ..|        corr: 3 0x73e-0x742 (4)
0x740|00 03                                          |..              |
     |                                               |                |      [3]{}: leap_second_record 0x742-0x74e (12)
0x740|      00 00 00 00 09 67 53 03                  |  .....gS.      |        occur: "1975-01-01T00:00:03Z" (157766403) 0x742-0x74a (8)
0x740|                              00 00 00 04      |          ....  |        corr: 4 0x74a-0x74e (4)
     |                                               |                |      [4]{}: leap_second_record 0x74e-0x75a (12)
0x740|                                          00 00|              ..|        occur: "1976-01-01T00:00:04Z" (189302404) 0x74e-0x756 (8)
0x750|00 00 0b 48 86 84                              |...H..          |
0x750|                  00 00 00 05                  |      ....      |        corr: 5 0x756-0x75a (4)
     |                                               |                |      [5]{}: leap_second_record 0x75a-0x766 (12)
0x750|                              00 00 00 00 0d 2b|          .....+|        occur: "1977-01-01T00:00:05Z" (220924805) 0x75a-0x762 (8)
0x760|0b 85                                          |..              |
0x760|      00 00 00 06                              |  ....          |        corr: 6 0x762-0x766 (4)
     |                                               |                |      [6]{}: leap_second_record 0x766-0x772 (12)
0x760|                  00 00 00 00 0f 0c 3f 06      |      ......?.  |        occur: "1978-01-01T00:00:06Z" (252460806) 0x766-0x76e (8)
0x760|                                          00 00|              ..|        corr: 7 0x76e-0x772 (4)
0x770|00 07                                          |..              |
     |                                               |                |      [7]{}: leap_second_record 0x772-0x77e (12)
0x770|      00 00 00 00 10 ed 72 87                  |  ......r.      |        occur: "1979-01-01T00:00:07Z" (283996807) 0x772-0x77a (8)
0x770|                              00 00 00 08      |          ....  |        corr: 8 0x77a-0x77e (4)
     |                                               |                |      [8]{}: leap_second_record 0x77e-0x78a (12)
0x770|                                          00 00|              ..|        occur: "1980-01-01T00:00:08Z" (315532808) 0x77e-0x786 (8)
0x780|00 00 12 ce a6 08                              |......          |
0x780|                  00 00 00 09                  |      ....      |        corr: 9 0x786-0x78a (4)
     |                                               |                |      [9]{}: leap_second_record 0x78a-0x796 (12)
0x780|                              00 00 00 00 15 9f|          ......|        occur: "1981-07-01T00:00:09Z" (362793609) 0x78a-0x792 (8)
0x790|ca 89                                          |..              |
0x790|      00 00 00 0a                              |  ....          |        corr: 10 0x792-0x796 (4)
     |                                               |                |      [10]{}: leap_second_record 0x796-0x7a2 (12)
0x790|                  00 00 00 00 17 80 fe 0a      |      ........  |        occur: "1982-07-01T00:00:10Z" (394329610) 0x796-0x79e (8)
0x790|                                          00 00|              ..|        corr: 11 0x79e-0x7a2 (4)
0x7a0|00 0b                                          |..              |
     |                                               |                |      [11]{}: leap_second_record 0x7a2-0x7ae (12)
0x7a0|      00 00 00 00 19 62 31 8b                  |  .....b1.      |        occur: "1983-07-01T00:00:11Z" (425865611) 0x7a2-0x7aa (8)
0x7a0|                              00 00 00 0c      |          ....  |        corr: 12 0x7aa-0x7ae (4)
     |                                               |                |      [12]{}: leap_second_record 0x7ae-0x7ba (12)
0x7a0|                                          00 00|              ..|        occur: "1985-07-01T00:00:12Z" (489024012) 0x7ae-0x7b6 (8)
0x7b0|00 00 1d 25 ea 0c                              |...%..          |
0x7b0|                  00 00 00 0d                  |      ....      |        corr: 13 0x7b6-0x7ba (4)
     |                                               |                |      [13]{}: leap_second_record 0x7ba-0x7c6 (12)
0x7b0|                              00 00 00 00 21 da|          ....!.|        occur: "1988-01-01T00:00:13Z" (567993613) 0x7ba-0x7c2 (8)
0x7c0|e5 0d                                          |..              |
0x7c0|      00 00 00 0e                              |  ....          |        corr: 14 0x7c2-0x7c6 (4)
     |                                               |                |      [14]{}: leap_second_record 0x7c6-0x7d2 (12)
0x7c0|                  00 00 00 00 25 9e 9d 8e      |      ....%...  |        occur: "1990-01-01T00:00:14Z" (631152014) 0x7c6-0x7ce (8)
0x7c0|                                          00 00|              ..|        corr: 15 0x7ce-0x7d2 (4)
0x7d0|00 0f                                          |..              |
     |                                               |                |      [15]{}: leap_second_record 0x7d2-0x7de (12)
0x7d0|      00 00 00 00 27 7f d1 0f                  |  ....'...      |        occur: "1991-01-01T00:00:15Z" (662688015) 0x7d2-0x7da (8)
0x7d0|                              00 00 00 10      |          ....  |        corr: 16 0x7da-0x7de (4)
     |                                               |                |      [16]{}: leap_second_record 0x7de-0x7ea (12)
0x7d0|                                          00 00|              ..|        occur: "1992-07-01T00:00:16Z" (709948816) 0x7de-0x7e6 (8)
0x7e0|00 00 2a 50 f5 90                              |..*P..          |
0x7e0|                  00 00 00 11                  |      ....      |        corr: 17 0x7e6-0x7ea (4)
     |                                               |                |      [17]{}: leap_second_record 0x7ea-0x7f6 (12)
0x7e0|                              00 00 00 00 2c 32|          ....,2|        occur: "1993-07-01T00:00:17Z" (741484817) 0x7ea-0x7f2 (8)
0x7f0|29 11                                          |).              |
0x7f0|      00 00 00 12                              |  ....          |        corr: 18 0x7f2-0x7f6 (4)
     |                                               |                |      [18]{}: leap_second_record 0x7f6-0x802 (12)
0x7f0|                  00 00 00 00 2e 13 5c 92      |      ......\.  |        occur: "1994-07-01T00:00:18Z" (773020818) 0x7f6-0x7fe (8)
0x7f0|                                          00 00|              ..|        corr: 19 0x7fe-0x802 (4)
0x800|00 13                                          |..              |
     |                                               |                |      [19]{}: leap_second_record 0x802-0x80e (12)
0x800|      00 00 00 00 30 e7 24 13                  |  ....0.$.      |        occur: "1996-01-01T00:00:19Z" (820454419) 0x802-0x80a (8)
0x800|                              00 00 00 14      |          ....  |        corr: 20 0x80a-0x80e (4)
     |                                               |                |      [20]{}: leap_second_record 0x80e-0x81a (12)
0x800|                                          00 00|              ..|        occur: "1997-07-01T00:00:20Z" (867715220) 0x80e-0x816 (8)
0x810|00 00 33 b8 48 94                              |..3.H.          |
0x810|                  00 00 00 15                  |      ....      |        corr: 21 0x816-0x81a (4)
     |                                               |                |      [21]{}: leap_second_record 0x81a-0x826 (12)
0x810|                              00 00 00 00 36 8c|          ....6.|        occur: "1999-01-01T00:00:21Z" (915148821) 0x81a-0x822 (8)
0x820|10 15                                          |..              |
0x820|      00 00 00 16                              |  ....          |        corr: 22 0x822-0x826 (4)
     |                                               |                |      [22]{}: leap_second_record 0x826-0x832 (12)
0x820|                  00 00 00 00 43 b7 1b 96      |      ....C...  |        occur: "2006-01-01T00:00:22Z" (1136073622) 0x826-0x82e (8)
0x820|                                          00 00|              ..|        corr: 23 0x82e-0x832 (4)
0x830|00 17                                          |..              |
     |                                               |                |      [23]{}: leap_second_record 0x832-0x83e (12)
0x830|      00 00 00 00 49 5c 07 97                  |  ....I\..      |        occur: "2009-01-01T00:00:23Z" (1230768023) 0x832-0x83a (8)
0x830|                              00 00 00 18      |          ....  |        corr: 24 0x83a-0x83e (4)
     |                                               |                |      [24]{}: leap_second_record 0x83e-0x84a (12)
0x830|                                          00 00|              ..|        occur: "2012-07-01T00:00:24Z" (1341100824) 0x83e-0x846 (8)
0x840|00 00 4f ef 93 18                              |..O...          |
0x840|                  00 00 00 19                  |      ....      |        corr: 25 0x846-0x84a (4)
     |                                               |                |      [25]{}: leap_second_record 0x84a-0x856 (12)
0x840|                              00 00 00 00 55 93|          ....U.|        occur: "2015-07-01T00:00:25Z" (1435708825) 0x84a-0x852 (8)
0x850|2d 99                                          |-.              |
0x850|      00 00 00 1a                              |  ....          |        corr: 26 0x852-0x856 (4)
     |                                               |                |      [26]{}: leap_second_record 0x856-0x862 (12)
0x850|                  00 00 00 00 58 68 46 9a      |      ....XhF.  |        occur: "2017-01-01T00:00:26Z" (1483228826) 0x856-0x85e (8)
0x850|                                          00 00|              ..|        corr: 27 0x85e-0x862 (4)
0x860|00 1b                                          |..              |
     |                                               |                |    standard_wall_indicators[0:0]: 0x862-0x862 (0)
     |                                               |                |    ut_local_indicators[0:0]: 0x862-0x862 (0)
     |                                               |                |  footer{}: 0x862-0x864 (2)
0x860|      0a                                       |  .             |    nl1: 10 (valid) 0x862-0x863 (1)
     |                                               |                |    tz_string: "" 0x863-0x863 (0)
0x860|         0a|                                   |   .|           |    nl2: 10 (valid) 0x863-0x864 (1)
