$ fq -d tzif dv Athens
     |00 01 02 03 04 05 06 07 08 09 0a 0b 0c 0d 0e 0f|0123456789abcdef|.{}: Athens (tzif) 0x0-0x8d6 (2262)
     |                                               |                |  v1header{}: 0x0-0x2c (44)
0x000|54 5a 69 66                                    |TZif            |    magic: 0x545a6966 (valid) 0x0-0x4 (4)
0x000|            32                                 |    2           |    ver: "2" (0x32) (valid) 0x4-0x5 (1)
0x000|               00 00 00 00 00 00 00 00 00 00 00|     ...........|    reserved: raw bits 0x5-0x14 (15)
0x010|00 00 00 00                                    |....            |
0x010|            00 00 00 0a                        |    ....        |    isutcnt: 10 0x14-0x18 (4)
0x010|                        00 00 00 0a            |        ....    |    isstdcnt: 10 0x18-0x1c (4)
0x010|                                    00 00 00 00|            ....|    leapcnt: 0 0x1c-0x20 (4)
0x020|00 00 00 8a                                    |....            |    timecnt: 138 0x20-0x24 (4)
0x020|            00 00 00 0a                        |    ....        |    typecnt: 10 0x24-0x28 (4)
0x020|                        00 00 00 1a            |        ....    |    charcnt: 26 0x28-0x2c (4)
     |                                               |                |  v1datablock{}: 0x2c-0x348 (796)
     |                                               |                |    transition_times[0:138]: 0x2c-0x254 (552)
0x020|                                    80 00 00 00|            ....|      [0]: "1901-12-13T20:45:52Z" (-2147483648) transition_time 0x2c-0x30 (4)
0x030|9b 80 21 80                                    |..!.            |      [1]: "1916-07-27T22:26:08Z" (-1686101632) transition_time 0x30-0x34 (4)
0x030|            b9 7c e9 e0                        |    .|..        |      [2]: "1932-07-06T22:00:00Z" (-1182996000) transition_time 0x34-0x38 (4)
0x030|                        b9 c6 af d0            |        ....    |      [3]: "1932-08-31T21:00:00Z" (-1178161200) transition_time 0x38-0x3c (4)
0x030|                                    c9 f2 63 e0|            ..c.|      [4]: "1941-04-06T22:00:00Z" (-906861600) transition_time 0x3c-0x40 (4)
0x040|ca 10 a8 50                                    |...P            |      [5]: "1941-04-29T21:00:00Z" (-904878000) transition_time 0x40-0x44 (4)
0x040|            cc e7 4b 10                        |    ..K.        |      [6]: "1942-11-02T01:00:00Z" (-857257200) transition_time 0x44-0x48 (4)
0x040|                        cd aa 4c f0            |        ..L.    |      [7]: "1943-03-29T23:00:00Z" (-844477200) transition_time 0x48-0x4c (4)
0x040|                                    ce a2 18 e0|            ....|      [8]: "1943-10-03T22:00:00Z" (-828237600) transition_time 0x4c-0x50 (4)
0x050|cf 93 69 70                                    |..ip            |      [9]: "1944-04-03T23:00:00Z" (-812422800) transition_time 0x50-0x54 (4)
0x050|            df 13 9e 60                        |    ...`        |      [10]: "1952-06-30T22:00:00Z" (-552362400) transition_time 0x54-0x58 (4)
0x050|                        df b7 0a 50            |        ...P    |      [11]: "1952-11-01T21:00:00Z" (-541652400) transition_time 0x58-0x5c (4)
0x050|                                    09 ec 5e 60|            ..^`|      [12]: "1975-04-11T22:00:00Z" (166485600) transition_time 0x5c-0x60 (4)
0x060|0b 18 f4 60                                    |...`            |      [13]: "1975-11-25T22:00:00Z" (186184800) transition_time 0x60-0x64 (4)
0x060|            0b cd ae 00                        |    ....        |      [14]: "1976-04-11T00:00:00Z" (198028800) transition_time 0x64-0x68 (4)
0x060|                        0c bd 9f 00            |        ....    |      [15]: "1976-10-10T00:00:00Z" (213753600) transition_time 0x68-0x6c (4)
0x060|                                    0d a4 55 80|            ..U.|      [16]: "1977-04-03T00:00:00Z" (228873600) transition_time 0x6c-0x70 (4)
0x070|0e 8c 5d 80                                    |..].            |      [17]: "1977-09-26T00:00:00Z" (244080000) transition_time 0x70-0x74 (4)
0x070|            0f 84 37 80                        |    ..7.        |      [18]: "1978-04-02T00:00:00Z" (260323200) transition_time 0x74-0x78 (4)
0x070|                        10 6a fc 10            |        .j..    |      [19]: "1978-09-24T01:00:00Z" (275446800) transition_time 0x78-0x7c (4)
0x070|                                    11 64 7b f0|            .d{.|      [20]: "1979-04-01T07:00:00Z" (291798000) transition_time 0x7c-0x80 (4)
0x080|12 52 aa f0                                    |.R..            |      [21]: "1979-09-28T23:00:00Z" (307407600) transition_time 0x80-0x84 (4)
0x080|            13 46 82 60                        |    .F.`        |      [22]: "1980-03-31T22:00:00Z" (323388000) transition_time 0x84-0x88 (4)
0x080|                        14 33 c2 50            |        .3.P    |      [23]: "1980-09-27T21:00:00Z" (338936400) transition_time 0x88-0x8c (4)
0x080|                                    15 23 eb 90|            .#..|      [24]: "1981-03-29T01:00:00Z" (354675600) transition_time 0x8c-0x90 (4)
0x090|16 13 dc 90                                    |....            |      [25]: "1981-09-27T01:00:00Z" (370400400) transition_time 0x90-0x94 (4)
0x090|            17 03 cd 90                        |    ....        |      [26]: "1982-03-28T01:00:00Z" (386125200) transition_time 0x94-0x98 (4)
0x090|                        17 f3 be 90            |        ....    |      [27]: "1982-09-26T01:00:00Z" (401850000) transition_time 0x98-0x9c (4)
0x090|                                    18 e3 af 90|            ....|      [28]: "1983-03-27T01:00:00Z" (417574800) transition_time 0x9c-0xa0 (4)
0x0a0|19 d3 a0 90                                    |....            |      [29]: "1983-09-25T01:00:00Z" (433299600) transition_time 0xa0-0xa4 (4)
0x0a0|            1a c3 91 90                        |    ....        |      [30]: "1984-03-25T01:00:00Z" (449024400) transition_time 0xa4-0xa8 (4)
0x0a0|                        1b bc bd 10            |        ....    |      [31]: "1984-09-30T01:00:00Z" (465354000) transition_time 0xa8-0xac (4)
0x0a0|                                    1c ac ae 10|            ....|      [32]: "1985-03-31T01:00:00Z" (481078800) transition_time 0xac-0xb0 (4)
0x0b0|1d 9c 9f 10                                    |....            |      [33]: "1985-09-29T01:00:00Z" (496803600) transition_time 0xb0-0xb4 (4)
0x0b0|            1e 8c 90 10                        |    ....        |      [34]: "1986-03-30T01:00:00Z" (512528400) transition_time 0xb4-0xb8 (4)
0x0b0|                        1f 7c 81 10            |        .|..    |      [35]: "1986-09-28T01:00:00Z" (528253200) transition_time 0xb8-0xbc (4)
0x0b0|                                    20 6c 72 10|             lr.|      [36]: "1987-03-29T01:00:00Z" (543978000) transition_time 0xbc-0xc0 (4)
0x0c0|21 5c 63 10                                    |!\c.            |      [37]: "1987-09-27T01:00:00Z" (559702800) transition_time 0xc0-0xc4 (4)
0x0c0|            22 4c 54 10                        |    "LT.        |      [38]: "1988-03-27T01:00:00Z" (575427600) transition_time 0xc4-0xc8 (4)
0x0c0|                        23 3c 45 10            |        #<E.    |      [39]: "1988-09-25T01:00:00Z" (591152400) transition_time 0xc8-0xcc (4)
0x0c0|                                    24 2c 36 10|            $,6.|      [40]: "1989-03-26T01:00:00Z" (606877200) transition_time 0xcc-0xd0 (4)
0x0d0|25 1c 27 10                                    |%.'.            |      [41]: "1989-09-24T01:00:00Z" (622602000) transition_time 0xd0-0xd4 (4)
0x0d0|            26 0c 18 10                        |    &...        |      [42]: "1990-03-25T01:00:00Z" (638326800) transition_time 0xd4-0xd8 (4)
0x0d0|                        27 05 43 90            |        '.C.    |      [43]: "1990-09-30T01:00:00Z" (654656400) transition_time 0xd8-0xdc (4)
0x0d0|                                    27 f5 34 90|            '.4.|      [44]: "1991-03-31T01:00:00Z" (670381200) transition_time 0xdc-0xe0 (4)
0x0e0|28 e5 25 90                                    |(.%.            |      [45]: "1991-09-29T01:00:00Z" (686106000) transition_time 0xe0-0xe4 (4)
0x0e0|            29 d5 16 90                        |    )...        |      [46]: "1992-03-29T01:00:00Z" (701830800) transition_time 0xe4-0xe8 (4)
0x0e0|                        2a c5 07 90            |        *...    |      [47]: "1992-09-27T01:00:00Z" (717555600) transition_time 0xe8-0xec (4)
0x0e0|                                    2b b4 f8 90|            +...|      [48]: "1993-03-28T01:00:00Z" (733280400) transition_time 0xec-0xf0 (4)
0x0f0|2c a4 e9 90                                    |,...            |      [49]: "1993-09-26T01:00:00Z" (749005200) transition_time 0xf0-0xf4 (4)
0x0f0|            2d 94 da 90                        |    -...        |      [50]: "1994-03-27T01:00:00Z" (764730000) transition_time 0xf4-0xf8 (4)
0x0f0|                        2e 84 cb 90            |        ....    |      [51]: "1994-09-25T01:00:00Z" (780454800) transition_time 0xf8-0xfc (4)
0x0f0|                                    2f 74 bc 90|            /t..|      [52]: "1995-03-26T01:00:00Z" (796179600) transition_time 0xfc-0x100 (4)
0x100|30 64 ad 90                                    |0d..            |      [53]: "1995-09-24T01:00:00Z" (811904400) transition_time 0x100-0x104 (4)
0x100|            31 5d d9 10                        |    1]..        |      [54]: "1996-03-31T01:00:00Z" (828234000) transition_time 0x104-0x108 (4)
0x100|                        32 72 b4 10            |        2r..    |      [55]: "1996-10-27T01:00:00Z" (846378000) transition_time 0x108-0x10c (4)
0x100|                                    33 3d bb 10|            3=..|      [56]: "1997-03-30T01:00:00Z" (859683600) transition_time 0x10c-0x110 (4)
0x110|34 52 96 10                                    |4R..            |      [57]: "1997-10-26T01:00:00Z" (877827600) transition_time 0x110-0x114 (4)
0x110|            35 1d 9d 10                        |    5...        |      [58]: "1998-03-29T01:00:00Z" (891133200) transition_time 0x114-0x118 (4)
0x110|                        36 32 78 10            |        62x.    |      [59]: "1998-10-25T01:00:00Z" (909277200) transition_time 0x118-0x11c (4)
0x110|                                    36 fd 7f 10|            6...|      [60]: "1999-03-28T01:00:00Z" (922582800) transition_time 0x11c-0x120 (4)
0x120|38 1b 94 90                                    |8...            |      [61]: "1999-10-31T01:00:00Z" (941331600) transition_time 0x120-0x124 (4)
0x120|            38 dd 61 10                        |    8.a.        |      [62]: "2000-03-26T01:00:00Z" (954032400) transition_time 0x124-0x128 (4)
0x120|                        39 fb 76 90            |        9.v.    |      [63]: "2000-10-29T01:00:00Z" (972781200) transition_time 0x128-0x12c (4)
0x120|                                    3a bd 43 10|            :.C.|      [64]: "2001-03-25T01:00:00Z" (985482000) transition_time 0x12c-0x130 (4)
0x130|3b db 58 90                                    |;.X.            |      [65]: "2001-10-28T01:00:00Z" (1004230800) transition_time 0x130-0x134 (4)
0x130|            3c a6 5f 90                        |    <._.        |      [66]: "2002-03-31T01:00:00Z" (1017536400) transition_time 0x134-0x138 (4)
0x130|                        3d bb 3a 90            |        =.:.    |      [67]: "2002-10-27T01:00:00Z" (1035680400) transition_time 0x138-0x13c (4)
0x130|                                    3e 86 41 90|            >.A.|      [68]: "2003-03-30T01:00:00Z" (1048986000) transition_time 0x13c-0x140 (4)
0x140|3f 9b 1c 90                                    |?...            |      [69]: "2003-10-26T01:00:00Z" (1067130000) transition_time 0x140-0x144 (4)
0x140|            40 66 23 90                        |    @f#.        |      [70]: "2004-03-28T01:00:00Z" (1080435600) transition_time 0x144-0x148 (4)
0x140|                        41 84 39 10            |        A.9.    |      [71]: "2004-10-31T01:00:00Z" (1099184400) transition_time 0x148-0x14c (4)
0x140|                                    42 46 05 90|            BF..|      [72]: "2005-03-27T01:00:00Z" (1111885200) transition_time 0x14c-0x150 (4)
0x150|43 64 1b 10                                    |Cd..            |      [73]: "2005-10-30T01:00:00Z" (1130634000) transition_time 0x150-0x154 (4)
0x150|            44 25 e7 90                        |    D%..        |      [74]: "2006-03-26T01:00:00Z" (1143334800) transition_time 0x154-0x158 (4)
0x150|                        45 43 fd 10            |        EC..    |      [75]: "2006-10-29T01:00:00Z" (1162083600) transition_time 0x158-0x15c (4)
0x150|                                    46 05 c9 90|            F...|      [76]: "2007-03-25T01:00:00Z" (1174784400) transition_time 0x15c-0x160 (4)
0x160|47 23 df 10                                    |G#..            |      [77]: "2007-10-28T01:00:00Z" (1193533200) transition_time 0x160-0x164 (4)
0x160|            47 ee e6 10                        |    G...        |      [78]: "2008-03-30T01:00:00Z" (1206838800) transition_time 0x164-0x168 (4)
0x160|                        49 03 c1 10            |        I...    |      [79]: "2008-10-26T01:00:00Z" (1224982800) transition_time 0x168-0x16c (4)
0x160|                                    49 ce c8 10|            I...|      [80]: "2009-03-29T01:00:00Z" (1238288400) transition_time 0x16c-0x170 (4)
0x170|4a e3 a3 10                                    |J...            |      [81]: "2009-10-25T01:00:00Z" (1256432400) transition_time 0x170-0x174 (4)
0x170|            4b ae aa 10                        |    K...        |      [82]: "2010-03-28T01:00:00Z" (1269738000) transition_time 0x174-0x178 (4)
0x170|                        4c cc bf 90            |        L...    |      [83]: "2010-10-31T01:00:00Z" (1288486800) transition_time 0x178-0x17c (4)
0x170|                                    4d 8e 8c 10|            M...|      [84]: "2011-03-27T01:00:00Z" (1301187600) transition_time 0x17c-0x180 (4)
0x180|4e ac a1 90                                    |N...            |      [85]: "2011-10-30T01:00:00Z" (1319936400) transition_time 0x180-0x184 (4)
0x180|            4f 6e 6e 10                        |    Onn.        |      [86]: "2012-03-25T01:00:00Z" (1332637200) transition_time 0x184-0x188 (4)
0x180|                        50 8c 83 90            |        P...    |      [87]: "2012-10-28T01:00:00Z" (1351386000) transition_time 0x188-0x18c (4)
0x180|                                    51 57 8a 90|            QW..|      [88]: "2013-03-31T01:00:00Z" (1364691600) transition_time 0x18c-0x190 (4)
0x190|52 6c 65 90                                    |Rle.            |      [89]: "2013-10-27T01:00:00Z" (1382835600) transition_time 0x190-0x194 (4)
0x190|            53 37 6c 90                        |    S7l.        |      [90]: "2014-03-30T01:00:00Z" (1396141200) transition_time 0x194-0x198 (4)
0x190|                        54 4c 47 90            |        TLG.    |      [91]: "2014-10-26T01:00:00Z" (1414285200) transition_time 0x198-0x19c (4)
0x190|                                    55 17 4e 90|            U.N.|      [92]: "2015-03-29T01:00:00Z" (1427590800) transition_time 0x19c-0x1a0 (4)
0x1a0|56 2c 29 90                                    |V,).            |      [93]: "2015-10-25T01:00:00Z" (1445734800) transition_time 0x1a0-0x1a4 (4)
0x1a0|            56 f7 30 90                        |    V.0.        |      [94]: "2016-03-27T01:00:00Z" (1459040400) transition_time 0x1a4-0x1a8 (4)
0x1a0|                        58 15 46 10            |        X.F.    |      [95]: "2016-10-30T01:00:00Z" (1477789200) transition_time 0x1a8-0x1ac (4)
0x1a0|                                    58 d7 12 90|            X...|      [96]: "2017-03-26T01:00:00Z" (1490490000) transition_time 0x1ac-0x1b0 (4)
0x1b0|59 f5 28 10                                    |Y.(.            |      [97]: "2017-10-29T01:00:00Z" (1509238800) transition_time 0x1b0-0x1b4 (4)
0x1b0|            5a b6 f4 90                        |    Z...        |      [98]: "2018-03-25T01:00:00Z" (1521939600) transition_time 0x1b4-0x1b8 (4)
0x1b0|                        5b d5 0a 10            |        [...    |      [99]: "2018-10-28T01:00:00Z" (1540688400) transition_time 0x1b8-0x1bc (4)
0x1b0|                                    5c a0 11 10|            \...|      [100]: "2019-03-31T01:00:00Z" (1553994000) transition_time 0x1bc-0x1c0 (4)
0x1c0|5d b4 ec 10                                    |]...            |      [101]: "2019-10-27T01:00:00Z" (1572138000) transition_time 0x1c0-0x1c4 (4)
0x1c0|            5e 7f f3 10                        |    ^...        |      [102]: "2020-03-29T01:00:00Z" (1585443600) transition_time 0x1c4-0x1c8 (4)
0x1c0|                        5f 94 ce 10            |        _...    |      [103]: "2020-10-25T01:00:00Z" (1603587600) transition_time 0x1c8-0x1cc (4)
0x1c0|                                    60 5f d5 10|            `_..|      [104]: "2021-03-28T01:00:00Z" (1616893200) transition_time 0x1cc-0x1d0 (4)
0x1d0|61 7d ea 90                                    |a}..            |      [105]: "2021-10-31T01:00:00Z" (1635642000) transition_time 0x1d0-0x1d4 (4)
0x1d0|            62 3f b7 10                        |    b?..        |      [106]: "2022-03-27T01:00:00Z" (1648342800) transition_time 0x1d4-0x1d8 (4)
0x1d0|                        63 5d cc 90            |        c]..    |      [107]: "2022-10-30T01:00:00Z" (1667091600) transition_time 0x1d8-0x1dc (4)
0x1d0|                                    64 1f 99 10|            d...|      [108]: "2023-03-26T01:00:00Z" (1679792400) transition_time 0x1dc-0x1e0 (4)
0x1e0|65 3d ae 90                                    |e=..            |      [109]: "2023-10-29T01:00:00Z" (1698541200) transition_time 0x1e0-0x1e4 (4)
0x1e0|            66 08 b5 90                        |    f...        |      [110]: "2024-03-31T01:00:00Z" (1711846800) transition_time 0x1e4-0x1e8 (4)
0x1e0|                        67 1d 90 90            |        g...    |      [111]: "2024-10-27T01:00:00Z" (1729990800) transition_time 0x1e8-0x1ec (4)
0x1e0|                                    67 e8 97 90|            g...|      [112]: "2025-03-30T01:00:00Z" (1743296400) transition_time 0x1ec-0x1f0 (4)
0x1f0|68 fd 72 90                                    |h.r.            |      [113]: "2025-10-26T01:00:00Z" (1761440400) transition_time 0x1f0-0x1f4 (4)
0x1f0|            69 c8 79 90                        |    i.y.        |      [114]: "2026-03-29T01:00:00Z" (1774746000) transition_time 0x1f4-0x1f8 (4)
0x1f0|                        6a dd 54 90            |        j.T.    |      [115]: "2026-10-25T01:00:00Z" (1792890000) transition_time 0x1f8-0x1fc (4)
0x1f0|                                    6b a8 5b 90|            k.[.|      [116]: "2027-03-28T01:00:00Z" (1806195600) transition_time 0x1fc-0x200 (4)
0x200|6c c6 71 10                                    |l.q.            |      [117]: "2027-10-31T01:00:00Z" (1824944400) transition_time 0x200-0x204 (4)
0x200|            6d 88 3d 90                        |    m.=.        |      [118]: "2028-03-26T01:00:00Z" (1837645200) transition_time 0x204-0x208 (4)
0x200|                        6e a6 53 10            |        n.S.    |      [119]: "2028-10-29T01:00:00Z" (1856394000) transition_time 0x208-0x20c (4)
0x200|                                    6f 68 1f 90|            oh..|      [120]: "2029-03-25T01:00:00Z" (1869094800) transition_time 0x20c-0x210 (4)
0x210|70 86 35 10                                    |p.5.            |      [121]: "2029-10-28T01:00:00Z" (1887843600) transition_time 0x210-0x214 (4)
0x210|            71 51 3c 10                        |    qQ<.        |      [122]: "2030-03-31T01:00:00Z" (1901149200) transition_time 0x214-0x218 (4)
0x210|                        72 66 17 10            |        rf..    |      [123]: "2030-10-27T01:00:00Z" (1919293200) transition_time 0x218-0x21c (4)
0x210|                                    73 31 1e 10|            s1..|      [124]: "2031-03-30T01:00:00Z" (1932598800) transition_time 0x21c-0x220 (4)
0x220|74 45 f9 10                                    |tE..            |      [125]: "2031-10-26T01:00:00Z" (1950742800) transition_time 0x220-0x224 (4)
0x220|            75 11 00 10                        |    u...        |      [126]: "2032-03-28T01:00:00Z" (1964048400) transition_time 0x224-0x228 (4)
0x220|                        76 2f 15 90            |        v/..    |      [127]: "2032-10-31T01:00:00Z" (1982797200) transition_time 0x228-0x22c (4)
0x220|                                    76 f0 e2 10|            v...|      [128]: "2033-03-27T01:00:00Z" (1995498000) transition_time 0x22c-0x230 (4)
0x230|78 0e f7 90                                    |x...            |      [129]: "2033-10-30T01:00:00Z" (2014246800) transition_time 0x230-0x234 (4)
0x230|            78 d0 c4 10                        |    x...        |      [130]: "2034-03-26T01:00:00Z" (2026947600) transition_time 0x234-0x238 (4)
0x230|                        79 ee d9 90            |        y...    |      [131]: "2034-10-29T01:00:00Z" (2045696400) transition_time 0x238-0x23c (4)
0x230|                                    7a b0 a6 10|            z...|      [132]: "2035-03-25T01:00:00Z" (2058397200) transition_time 0x23c-0x240 (4)
0x240|7b ce bb 90                                    |{...            |      [133]: "2035-10-28T01:00:00Z" (2077146000) transition_time 0x240-0x244 (4)
0x240|            7c 99 c2 90                        |    |...        |      [134]: "2036-03-30T01:00:00Z" (2090451600) transition_time 0x244-0x248 (4)
0x240|                        7d ae 9d 90            |        }...    |      [135]: "2036-10-26T01:00:00Z" (2108595600) transition_time 0x248-0x24c (4)
0x240|                                    7e 79 a4 90|            ~y..|      [136]: "2037-03-29T01:00:00Z" (2121901200) transition_time 0x24c-0x250 (4)
0x250|7f 8e 7f 90                                    |....            |      [137]: "2037-10-25T01:00:00Z" (2140045200) transition_time 0x250-0x254 (4)
     |                                               |                |    transition_types[0:138]: 0x254-0x2de (138)
0x250|            01                                 |    .           |      [0]: 1 transition_type 0x254-0x255 (1)
0x250|               03                              |     .          |      [1]: 3 transition_type 0x255-0x256 (1)
0x250|                  02                           |      .         |      [2]: 2 transition_type 0x256-0x257 (1)
0x250|                     03                        |       .        |      [3]: 3 transition_type 0x257-0x258 (1)
0x250|                        02                     |        .       |      [4]: 2 transition_type 0x258-0x259 (1)
0x250|                           05                  |         .      |      [5]: 5 transition_type 0x259-0x25a (1)
0x250|                              04               |          .     |      [6]: 4 transition_type 0x25a-0x25b (1)
0x250|                                 05            |           .    |      [7]: 5 transition_type 0x25b-0x25c (1)
0x250|                                    04         |            .   |      [8]: 4 transition_type 0x25c-0x25d (1)
0x250|                                       03      |             .  |      [9]: 3 transition_type 0x25d-0x25e (1)
0x250|                                          02   |              . |      [10]: 2 transition_type 0x25e-0x25f (1)
0x250|                                             03|               .|      [11]: 3 transition_type 0x25f-0x260 (1)
0x260|06                                             |.               |      [12]: 6 transition_type 0x260-0x261 (1)
0x260|   07                                          | .              |      [13]: 7 transition_type 0x261-0x262 (1)
0x260|      06                                       |  .             |      [14]: 6 transition_type 0x262-0x263 (1)
0x260|         07                                    |   .            |      [15]: 7 transition_type 0x263-0x264 (1)
0x260|            06                                 |    .           |      [16]: 6 transition_type 0x264-0x265 (1)
0x260|               07                              |     .          |      [17]: 7 transition_type 0x265-0x266 (1)
0x260|                  06                           |      .         |      [18]: 6 transition_type 0x266-0x267 (1)
0x260|                     03                        |       .        |      [19]: 3 transition_type 0x267-0x268 (1)
0x260|                        02                     |        .       |      [20]: 2 transition_type 0x268-0x269 (1)
0x260|                           03                  |         .      |      [21]: 3 transition_type 0x269-0x26a (1)
0x260|                              02               |          .     |      [22]: 2 transition_type 0x26a-0x26b (1)
0x260|                                 03            |           .    |      [23]: 3 transition_type 0x26b-0x26c (1)
0x260|                                    08         |            .   |      [24]: 8 transition_type 0x26c-0x26d (1)
0x260|                                       09      |             .  |      [25]: 9 transition_type 0x26d-0x26e (1)
0x260|                                          08   |              . |      [26]: 8 transition_type 0x26e-0x26f (1)
0x260|                                             09|               .|      [27]: 9 transition_type 0x26f-0x270 (1)
0x270|08                                             |.               |      [28]: 8 transition_type 0x270-0x271 (1)
0x270|   09                                          | .              |      [29]: 9 transition_type 0x271-0x272 (1)
0x270|      08                                       |  .             |      [30]: 8 transition_type 0x272-0x273 (1)
0x270|         09                                    |   .            |      [31]: 9 transition_type 0x273-0x274 (1)
0x270|            08                                 |    .           |      [32]: 8 transition_type 0x274-0x275 (1)
0x270|               09                              |     .          |      [33]: 9 transition_type 0x275-0x276 (1)
0x270|                  08                           |      .         |      [34]: 8 transition_type 0x276-0x277 (1)
0x270|                     09                        |       .        |      [35]: 9 transition_type 0x277-0x278 (1)
0x270|                        08                     |        .       |      [36]: 8 transition_type 0x278-0x279 (1)
0x270|                           09                  |         .      |      [37]: 9 transition_type 0x279-0x27a (1)
0x270|                              08               |          .     |      [38]: 8 transition_type 0x27a-0x27b (1)
0x270|                                 09            |           .    |      [39]: 9 transition_type 0x27b-0x27c (1)
0x270|                                    08         |            .   |      [40]: 8 transition_type 0x27c-0x27d (1)
0x270|                                       09      |             .  |      [41]: 9 transition_type 0x27d-0x27e (1)
0x270|                                          08   |              . |      [42]: 8 transition_type 0x27e-0x27f (1)
0x270|                                             09|               .|      [43]: 9 transition_type 0x27f-0x280 (1)
0x280|08                                             |.               |      [44]: 8 transition_type 0x280-0x281 (1)
0x280|   09                                          | .              |      [45]: 9 transition_type 0x281-0x282 (1)
0x280|      08                                       |  .             |      [46]: 8 transition_type 0x282-0x283 (1)
0x280|         09                                    |   .            |      [47]: 9 transition_type 0x283-0x284 (1)
0x280|            08                                 |    .           |      [48]: 8 transition_type 0x284-0x285 (1)
0x280|               09                              |     .          |      [49]: 9 transition_type 0x285-0x286 (1)
0x280|                  08                           |      .         |      [50]: 8 transition_type 0x286-0x287 (1)
0x280|                     09                        |       .        |      [51]: 9 transition_type 0x287-0x288 (1)
0x280|                        08                     |        .       |      [52]: 8 transition_type 0x288-0x289 (1)
0x280|                           09                  |         .      |      [53]: 9 transition_type 0x289-0x28a (1)
0x280|                              08               |          .     |      [54]: 8 transition_type 0x28a-0x28b (1)
0x280|                                 09            |           .    |      [55]: 9 transition_type 0x28b-0x28c (1)
0x280|                                    08         |            .   |      [56]: 8 transition_type 0x28c-0x28d (1)
0x280|                                       09      |             .  |      [57]: 9 transition_type 0x28d-0x28e (1)
0x280|                                          08   |              . |      [58]: 8 transition_type 0x28e-0x28f (1)
0x280|                                             09|               .|      [59]: 9 transition_type 0x28f-0x290 (1)
0x290|08                                             |.               |      [60]: 8 transition_type 0x290-0x291 (1)
0x290|   09                                          | .              |      [61]: 9 transition_type 0x291-0x292 (1)
0x290|      08                                       |  .             |      [62]: 8 transition_type 0x292-0x293 (1)
0x290|         09                                    |   .            |      [63]: 9 transition_type 0x293-0x294 (1)
0x290|            08                                 |    .           |      [64]: 8 transition_type 0x294-0x295 (1)
0x290|               09                              |     .          |      [65]: 9 transition_type 0x295-0x296 (1)
0x290|                  08                           |      .         |      [66]: 8 transition_type 0x296-0x297 (1)
0x290|                     09                        |       .        |      [67]: 9 transition_type 0x297-0x298 (1)
0x290|                        08                     |        .       |      [68]: 8 transition_type 0x298-0x299 (1)
0x290|                           09                  |         .      |      [69]: 9 transition_type 0x299-0x29a (1)
0x290|                              08               |          .     |      [70]: 8 transition_type 0x29a-0x29b (1)
0x290|                                 09            |           .    |      [71]: 9 transition_type 0x29b-0x29c (1)
0x290|                                    08         |            .   |      [72]: 8 transition_type 0x29c-0x29d (1)
0x290|                                       09      |             .  |      [73]: 9 transition_type 0x29d-0x29e (1)
0x290|                                          08   |              . |      [74]: 8 transition_type 0x29e-0x29f (1)
0x290|                                             09|               .|      [75]: 9 transition_type 0x29f-0x2a0 (1)
0x2a0|08                                             |.               |      [76]: 8 transition_type 0x2a0-0x2a1 (1)
0x2a0|   09                                          | .              |      [77]: 9 transition_type 0x2a1-0x2a2 (1)
0x2a0|      08                                       |  .             |      [78]: 8 transition_type 0x2a2-0x2a3 (1)
0x2a0|         09                                    |   .            |      [79]: 9 transition_type 0x2a3-0x2a4 (1)
0x2a0|            08                                 |    .           |      [80]: 8 transition_type 0x2a4-0x2a5 (1)
0x2a0|               09                              |     .          |      [81]: 9 transition_type 0x2a5-0x2a6 (1)
0x2a0|                  08                           |      .         |      [82]: 8 transition_type 0x2a6-0x2a7 (1)
0x2a0|                     09                        |       .        |      [83]: 9 transition_type 0x2a7-0x2a8 (1)
0x2a0|                        08                     |        .       |      [84]: 8 transition_type 0x2a8-0x2a9 (1)
0x2a0|                           09                  |         .      |      [85]: 9 transition_type 0x2a9-0x2aa (1)
0x2a0|                              08               |          .     |      [86]: 8 transition_type 0x2aa-0x2ab (1)
0x2a0|                                 09            |           .    |      [87]: 9 transition_type 0x2ab-0x2ac (1)
0x2a0|                                    08         |            .   |      [88]: 8 transition_type 0x2ac-0x2ad (1)
0x2a0|                                       09      |             .  |      [89]: 9 transition_type 0x2ad-0x2ae (1)
0x2a0|                                          08   |              . |      [90]: 8 transition_type 0x2ae-0x2af (1)
0x2a0|                                             09|               .|      [91]: 9 transition_type 0x2af-0x2b0 (1)
0x2b0|08                                             |.               |      [92]: 8 transition_type 0x2b0-0x2b1 (1)
0x2b0|   09                                          | .              |      [93]: 9 transition_type 0x2b1-0x2b2 (1)
0x2b0|      08                                       |  .             |      [94]: 8 transition_type 0x2b2-0x2b3 (1)
0x2b0|         09                                    |   .            |      [95]: 9 transition_type 0x2b3-0x2b4 (1)
0x2b0|            08                                 |    .           |      [96]: 8 transition_type 0x2b4-0x2b5 (1)
0x2b0|               09                              |     .          |      [97]: 9 transition_type 0x2b5-0x2b6 (1)
0x2b0|                  08                           |      .         |      [98]: 8 transition_type 0x2b6-0x2b7 (1)
0x2b0|                     09                        |       .        |      [99]: 9 transition_type 0x2b7-0x2b8 (1)
0x2b0|                        08                     |        .       |      [100]: 8 transition_type 0x2b8-0x2b9 (1)
0x2b0|                           09                  |         .      |      [101]: 9 transition_type 0x2b9-0x2ba (1)
0x2b0|                              08               |          .     |      [102]: 8 transition_type 0x2ba-0x2bb (1)
0x2b0|                                 09            |           .    |      [103]: 9 transition_type 0x2bb-0x2bc (1)
0x2b0|                                    08         |            .   |      [104]: 8 transition_type 0x2bc-0x2bd (1)
0x2b0|                                       09      |             .  |      [105]: 9 transition_type 0x2bd-0x2be (1)
0x2b0|                                          08   |              . |      [106]: 8 transition_type 0x2be-0x2bf (1)
0x2b0|                                             09|               .|      [107]: 9 transition_type 0x2bf-0x2c0 (1)
0x2c0|08                                             |.               |      [108]: 8 transition_type 0x2c0-0x2c1 (1)
0x2c0|   09                                          | .              |      [109]: 9 transition_type 0x2c1-0x2c2 (1)
0x2c0|      08                                       |  .             |      [110]: 8 transition_type 0x2c2-0x2c3 (1)
0x2c0|         09                                    |   .            |      [111]: 9 transition_type 0x2c3-0x2c4 (1)
0x2c0|            08                                 |    .           |      [112]: 8 transition_type 0x2c4-0x2c5 (1)
0x2c0|               09                              |     .          |      [113]: 9 transition_type 0x2c5-0x2c6 (1)
0x2c0|                  08                           |      .         |      [114]: 8 transition_type 0x2c6-0x2c7 (1)
0x2c0|                     09                        |       .        |      [115]: 9 transition_type 0x2c7-0x2c8 (1)
0x2c0|                        08                     |        .       |      [116]: 8 transition_type 0x2c8-0x2c9 (1)
0x2c0|                           09                  |         .      |      [117]: 9 transition_type 0x2c9-0x2ca (1)
0x2c0|                              08               |          .     |      [118]: 8 transition_type 0x2ca-0x2cb (1)
0x2c0|                                 09            |           .    |      [119]: 9 transition_type 0x2cb-0x2cc (1)
0x2c0|                                    08         |            .   |      [120]: 8 transition_type 0x2cc-0x2cd (1)
0x2c0|                                       09      |             .  |      [121]: 9 transition_type 0x2cd-0x2ce (1)
0x2c0|                                          08   |              . |      [122]: 8 transition_type 0x2ce-0x2cf (1)
0x2c0|                                             09|               .|      [123]: 9 transition_type 0x2cf-0x2d0 (1)
0x2d0|08                                             |.               |      [124]: 8 transition_type 0x2d0-0x2d1 (1)
0x2d0|   09                                          | .              |      [125]: 9 transition_type 0x2d1-0x2d2 (1)
0x2d0|      08                                       |  .             |      [126]: 8 transition_type 0x2d2-0x2d3 (1)
0x2d0|         09                                    |   .            |      [127]: 9 transition_type 0x2d3-0x2d4 (1)
0x2d0|            08                                 |    .           |      [128]: 8 transition_type 0x2d4-0x2d5 (1)
0x2d0|               09                              |     .          |      [129]: 9 transition_type 0x2d5-0x2d6 (1)
0x2d0|                  08                           |      .         |      [130]: 8 transition_type 0x2d6-0x2d7 (1)
0x2d0|                     09                        |       .        |      [131]: 9 transition_type 0x2d7-0x2d8 (1)
0x2d0|                        08                     |        .       |      [132]: 8 transition_type 0x2d8-0x2d9 (1)
0x2d0|                           09                  |         .      |      [133]: 9 transition_type 0x2d9-0x2da (1)
0x2d0|                              08               |          .     |      [134]: 8 transition_type 0x2da-0x2db (1)
0x2d0|                                 09            |           .    |      [135]: 9 transition_type 0x2db-0x2dc (1)
0x2d0|                                    08         |            .   |      [136]: 8 transition_type 0x2dc-0x2dd (1)
0x2d0|                                       09      |             .  |      [137]: 9 transition_type 0x2dd-0x2de (1)
     |                                               |                |    local_time_type_records[0:10]: 0x2de-0x31a (60)
     |                                               |                |      [0]{}: local_time_type 0x2de-0x2e4 (6)
0x2d0|                                          00 00|              ..|        utoff: 5692 (valid) 0x2de-0x2e2 (4)
0x2e0|16 3c                                          |.<              |
0x2e0|      00                                       |  .             |        dst: 0 (valid) 0x2e2-0x2e3 (1)
0x2e0|         00                                    |   .            |        idx: 0 (valid) 0x2e3-0x2e4 (1)
     |                                               |                |      [1]{}: local_time_type 0x2e4-0x2ea (6)
0x2e0|            00 00 16 3c                        |    ...<        |        utoff: 5692 (valid) 0x2e4-0x2e8 (4)
0x2e0|                        00                     |        .       |        dst: 0 (valid) 0x2e8-0x2e9 (1)
0x2e0|                           04                  |         .      |        idx: 4 (valid) 0x2e9-0x2ea (1)
     |                                               |                |      [2]{}: local_time_type 0x2ea-0x2f0 (6)
0x2e0|                              00 00 2a 30      |          ..*0  |        utoff: 10800 (valid) 0x2ea-0x2ee (4)
0x2e0|                                          01   |              . |        dst: 1 (valid) 0x2ee-0x2ef (1)
0x2e0|                                             08|               .|        idx: 8 (valid) 0x2ef-0x2f0 (1)
     |                                               |                |      [3]{}: local_time_type 0x2f0-0x2f6 (6)
0x2f0|00 00 1c 20                                    |...             |        utoff: 7200 (valid) 0x2f0-0x2f4 (4)
0x2f0|            00                                 |    .           |        dst: 0 (valid) 0x2f4-0x2f5 (1)
0x2f0|               0d                              |     .          |        idx: 13 (valid) 0x2f5-0x2f6 (1)
     |                                               |                |      [4]{}: local_time_type 0x2f6-0x2fc (6)
0x2f0|                  00 00 0e 10                  |      ....      |        utoff: 3600 (valid) 0x2f6-0x2fa (4)
0x2f0|                              00               |          .     |        dst: 0 (valid) 0x2fa-0x2fb (1)
0x2f0|                                 11            |           .    |        idx: 17 (valid) 0x2fb-0x2fc (1)
     |                                               |                |      [5]{}: local_time_type 0x2fc-0x302 (6)
0x2f0|                                    00 00 1c 20|            ... |        utoff: 7200 (valid) 0x2fc-0x300 (4)
0x300|01                                             |.               |        dst: 1 (valid) 0x300-0x301 (1)
0x300|   15                                          | .              |        idx: 21 (valid) 0x301-0x302 (1)
     |                                               |                |      [6]{}: local_time_type 0x302-0x308 (6)
0x300|      00 00 2a 30                              |  ..*0          |        utoff: 10800 (valid) 0x302-0x306 (4)
0x300|                  01                           |      .         |        dst: 1 (valid) 0x306-0x307 (1)
0x300|                     08                        |       .        |        idx: 8 (valid) 0x307-0x308 (1)
     |                                               |                |      [7]{}: local_time_type 0x308-0x30e (6)
0x300|                        00 00 1c 20            |        ...     |        utoff: 7200 (valid) 0x308-0x30c (4)
0x300|                                    00         |            .   |        dst: 0 (valid) 0x30c-0x30d (1)
0x300|                                       0d      |             .  |        idx: 13 (valid) 0x30d-0x30e (1)
     |                                               |                |      [8]{}: local_time_type 0x30e-0x314 (6)
0x300|                                          00 00|              ..|        utoff: 10800 (valid) 0x30e-0x312 (4)
0x310|2a 30                                          |*0              |
0x310|      01                                       |  .             |        dst: 1 (valid) 0x312-0x313 (1)
0x310|         08                                    |   .            |        idx: 8 (valid) 0x313-0x314 (1)
     |                                               |                |      [9]{}: local_time_type 0x314-0x31a (6)
0x310|            00 00 1c 20                        |    ...         |        utoff: 7200 (valid) 0x314-0x318 (4)
0x310|                        00                     |        .       |        dst: 0 (valid) 0x318-0x319 (1)
0x310|                           0d                  |         .      |        idx: 13 (valid) 0x319-0x31a (1)
     |                                               |                |    time_zone_designations[0:6]: 0x31a-0x334 (26)
0x310|                              4c 4d 54 00      |          LMT.  |      [0]: "LMT" time_zone_designation 0x31a-0x31e (4)
0x310|                                          41 4d|              AM|      [1]: "AMT" time_zone_designation 0x31e-0x322 (4)
0x320|54 00                                          |T.              |
0x320|      45 45 53 54 00                           |  EEST.         |      [2]: "EEST" time_zone_designation 0x322-0x327 (5)
0x320|                     45 45 54 00               |       EET.     |      [3]: "EET" time_zone_designation 0x327-0x32b (4)
0x320|                                 43 45 54 00   |           CET. |      [4]: "CET" time_zone_designation 0x32b-0x32f (4)
0x320|                                             43|               C|      [5]: "CEST" time_zone_designation 0x32f-0x334 (5)
0x330|45 53 54 00                                    |EST.            |
     |                                               |                |    leap_second_records[0:0]: 0x334-0x334 (0)
     |                                               |                |    standard_wall_indicators[0:10]: 0x334-0x33e (10)
0x330|            00                                 |    .           |      [0]: 0 standard_wall_indicator (valid) 0x334-0x335 (1)
0x330|               00                              |     .          |      [1]: 0 standard_wall_indicator (valid) 0x335-0x336 (1)
0x330|                  00                           |      .         |      [2]: 0 standard_wall_indicator (valid) 0x336-0x337 (1)
0x330|                     00                        |       .        |      [3]: 0 standard_wall_indicator (valid) 0x337-0x338 (1)
0x330|                        00                     |        .       |      [4]: 0 standard_wall_indicator (valid) 0x338-0x339 (1)
0x330|                           00                  |         .      |      [5]: 0 standard_wall_indicator (valid) 0x339-0x33a (1)
0x330|                              01               |          .     |      [6]: 1 standard_wall_indicator (valid) 0x33a-0x33b (1)
0x330|                                 01            |           .    |      [7]: 1 standard_wall_indicator (valid) 0x33b-0x33c (1)
0x330|                                    01         |            .   |      [8]: 1 standard_wall_indicator (valid) 0x33c-0x33d (1)
0x330|                                       01      |             .  |      [9]: 1 standard_wall_indicator (valid) 0x33d-0x33e (1)
     |                                               |                |    ut_local_indicators[0:10]: 0x33e-0x348 (10)
0x330|                                          00   |              . |      [0]: 0 ut_local_indicator (valid) 0x33e-0x33f (1)
0x330|                                             00|               .|      [1]: 0 ut_local_indicator (valid) 0x33f-0x340 (1)
0x340|00                                             |.               |      [2]: 0 ut_local_indicator (valid) 0x340-0x341 (1)
0x340|   00                                          | .              |      [3]: 0 ut_local_indicator (valid) 0x341-0x342 (1)
0x340|      00                                       |  .             |      [4]: 0 ut_local_indicator (valid) 0x342-0x343 (1)
0x340|         00                                    |   .            |      [5]: 0 ut_local_indicator (valid) 0x343-0x344 (1)
0x340|            00                                 |    .           |      [6]: 0 ut_local_indicator (valid) 0x344-0x345 (1)
0x340|               00                              |     .          |      [7]: 0 ut_local_indicator (valid) 0x345-0x346 (1)
0x340|                  01                           |      .         |      [8]: 1 ut_local_indicator (valid) 0x346-0x347 (1)
0x340|                     01                        |       .        |      [9]: 1 ut_local_indicator (valid) 0x347-0x348 (1)
     |                                               |                |  v2plusheader{}: 0x348-0x374 (44)
0x340|                        54 5a 69 66            |        TZif    |    magic: 0x545a6966 (valid) 0x348-0x34c (4)
0x340|                                    32         |            2   |    ver: "2" (0x32) (valid) 0x34c-0x34d (1)
0x340|                                       00 00 00|             ...|    reserved: raw bits 0x34d-0x35c (15)
0x350|00 00 00 00 00 00 00 00 00 00 00 00            |............    |
0x350|                                    00 00 00 0a|            ....|    isutcnt: 10 0x35c-0x360 (4)
0x360|00 00 00 0a                                    |....            |    isstdcnt: 10 0x360-0x364 (4)
0x360|            00 00 00 00                        |    ....        |    leapcnt: 0 0x364-0x368 (4)
0x360|                        00 00 00 8a            |        ....    |    timecnt: 138 0x368-0x36c (4)
0x360|                                    00 00 00 0a|            ....|    typecnt: 10 0x36c-0x370 (4)
0x370|00 00 00 1a                                    |....            |    charcnt: 26 0x370-0x374 (4)
     |                                               |                |  v2plusdatablock{}: 0x374-0x8b8 (1348)
     |                                               |                |    transition_times[0:138]: 0x374-0x7c4 (1104)
0x370|            ff ff ff ff 74 3f 98 44            |    ....t?.D    |      [0]: "1895-09-13T22:25:08Z" (-2344642492) transition_time 0x374-0x37c (8)
0x370|                                    ff ff ff ff|            ....|      [1]: "1916-07-27T22:26:08Z" (-1686101632) transition_time 0x37c-0x384 (8)
0x380|9b 80 21 80                                    |..!.            |
0x380|            ff ff ff ff b9 7c e9 e0            |    .....|..    |      [2]: "1932-07-06T22:00:00Z" (-1182996000) transition_time 0x384-0x38c (8)
0x380|                                    ff ff ff ff|            ....|      [3]: "1932-08-31T21:00:00Z" (-1178161200) transition_time 0x38c-0x394 (8)
0x390|b9 c6 af d0                                    |....            |
0x390|            ff ff ff ff c9 f2 63 e0            |    ......c.    |      [4]: "1941-04-06T22:00:00Z" (-906861600) transition_time 0x394-0x39c (8)
0x390|                                    ff ff ff ff|            ....|      [5]: "1941-04-29T21:00:00Z" (-904878000) transition_time 0x39c-0x3a4 (8)
0x3a0|ca 10 a8 50                                    |...P            |
0x3a0|            ff ff ff ff cc e7 4b 10            |    ......K.    |      [6]: "1942-11-02T01:00:00Z" (-857257200) transition_time 0x3a4-0x3ac (8)
0x3a0|                                    ff ff ff ff|            ....|      [7]: "1943-03-29T23:00:00Z" (-844477200) transition_time 0x3ac-0x3b4 (8)
0x3b0|cd aa 4c f0                                    |..L.            |
0x3b0|            ff ff ff ff ce a2 18 e0            |    ........    |      [8]: "1943-10-03T22:00:00Z" (-828237600) transition_time 0x3b4-0x3bc (8)
0x3b0|                                    ff ff ff ff|            ....|      [9]: "1944-04-03T23:00:00Z" (-812422800) transition_time 0x3bc-0x3c4 (8)
0x3c0|cf 93 69 70                                    |..ip            |
0x3c0|            ff ff ff ff df 13 9e 60            |    .......`    |      [10]: "1952-06-30T22:00:00Z" (-552362400) transition_time 0x3c4-0x3cc (8)
0x3c0|                                    ff ff ff ff|            ....|      [11]: "1952-11-01T21:00:00Z" (-541652400) transition_time 0x3cc-0x3d4 (8)
0x3d0|df b7 0a 50                                    |...P            |
0x3d0|            00 00 00 00 09 ec 5e 60            |    ......^`    |      [12]: "1975-04-11T22:00:00Z" (166485600) transition_time 0x3d4-0x3dc (8)
0x3d0|                                    00 00 00 00|            ....|      [13]: "1975-11-25T22:00:00Z" (186184800) transition_time 0x3dc-0x3e4 (8)
0x3e0|0b 18 f4 60                                    |...`            |
0x3e0|            00 00 00 00 0b cd ae 00            |    ........    |      [14]: "1976-04-11T00:00:00Z" (198028800) transition_time 0x3e4-0x3ec (8)
0x3e0|                                    00 00 00 00|            ....|      [15]: "1976-10-10T00:00:00Z" (213753600) transition_time 0x3ec-0x3f4 (8)
0x3f0|0c bd 9f 00                                    |....            |
0x3f0|            00 00 00 00 0d a4 55 80            |    ......U.    |      [16]: "1977-04-03T00:00:00Z" (228873600) transition_time 0x3f4-0x3fc (8)
0x3f0|                                    00 00 00 00|            ....|      [17]: "1977-09-26T00:00:00Z" (244080000) transition_time 0x3fc-0x404 (8)
0x400|0e 8c 5d 80                                    |..].            |
0x400|            00 00 00 00 0f 84 37 80            |    ......7.    |      [18]: "1978-04-02T00:00:00Z" (260323200) transition_time 0x404-0x40c (8)
0x400|                                    00 00 00 00|            ....|      [19]: "1978-09-24T01:00:00Z" (275446800) transition_time 0x40c-0x414 (8)
0x410|10 6a fc 10                                    |.j..            |
0x410|            00 00 00 00 11 64 7b f0            |    .....d{.    |      [20]: "1979-04-01T07:00:00Z" (291798000) transition_time 0x414-0x41c (8)
0x410|                                    00 00 00 00|            ....|      [21]: "1979-09-28T23:00:00Z" (307407600) transition_time 0x41c-0x424 (8)
0x420|12 52 aa f0                                    |.R..            |
0x420|            00 00 00 00 13 46 82 60            |    .....F.`    |      [22]: "1980-03-31T22:00:00Z" (323388000) transition_time 0x424-0x42c (8)
0x420|                                    00 00 00 00|            ....|      [23]: "1980-09-27T21:00:00Z" (338936400) transition_time 0x42c-0x434 (8)
0x430|14 33 c2 50                                    |.3.P            |
0x430|            00 00 00 00 15 23 eb 90            |    .....#..    |      [24]: "1981-03-29T01:00:00Z" (354675600) transition_time 0x434-0x43c (8)
0x430|                                    00 00 00 00|            ....|      [25]: "1981-09-27T01:00:00Z" (370400400) transition_time 0x43c-0x444 (8)
0x440|16 13 dc 90                                    |....            |
0x440|            00 00 00 00 17 03 cd 90            |    ........    |      [26]: "1982-03-28T01:00:00Z" (386125200) transition_time 0x444-0x44c (8)
0x440|                                    00 00 00 00|            ....|      [27]: "1982-09-26T01:00:00Z" (401850000) transition_time 0x44c-0x454 (8)
0x450|17 f3 be 90                                    |....            |
0x450|            00 00 00 00 18 e3 af 90            |    ........    |      [28]: "1983-03-27T01:00:00Z" (417574800) transition_time 0x454-0x45c (8)
0x450|                                    00 00 00 00|            ....|      [29]: "1983-09-25T01:00:00Z" (433299600) transition_time 0x45c-0x464 (8)
0x460|19 d3 a0 90                                    |....            |
0x460|            00 00 00 00 1a c3 91 90            |    ........    |      [30]: "1984-03-25T01:00:00Z" (449024400) transition_time 0x464-0x46c (8)
0x460|                                    00 00 00 00|            ....|      [31]: "1984-09-30T01:00:00Z" (465354000) transition_time 0x46c-0x474 (8)
0x470|1b bc bd 10                                    |....            |
0x470|            00 00 00 00 1c ac ae 10            |    ........    |      [32]: "1985-03-31T01:00:00Z" (481078800) transition_time 0x474-0x47c (8)
0x470|                                    00 00 00 00|            ....|      [33]: "1985-09-29T01:00:00Z" (496803600) transition_time 0x47c-0x484 (8)
0x480|1d 9c 9f 10                                    |....            |
0x480|            00 00 00 00 1e 8c 90 10            |    ........    |      [34]: "1986-03-30T01:00:00Z" (512528400) transition_time 0x484-0x48c (8)
0x480|                                    00 00 00 00|            ....|      [35]: "1986-09-28T01:00:00Z" (528253200) transition_time 0x48c-0x494 (8)
0x490|1f 7c 81 10                                    |.|..            |
0x490|            00 00 00 00 20 6c 72 10            |    .... lr.    |      [36]: "1987-03-29T01:00:00Z" (543978000) transition_time 0x494-0x49c (8)
0x490|                                    00 00 00 00|            ....|      [37]: "1987-09-27T01:00:00Z" (559702800) transition_time 0x49c-0x4a4 (8)
0x4a0|21 5c 63 10                                    |!\c.            |
0x4a0|            00 00 00 00 22 4c 54 10            |    ...."LT.    |      [38]: "1988-03-27T01:00:00Z" (575427600) transition_time 0x4a4-0x4ac (8)
0x4a0|                                    00 00 00 00|            ....|      [39]: "1988-09-25T01:00:00Z" (591152400) transition_time 0x4ac-0x4b4 (8)
0x4b0|23 3c 45 10                                    |#<E.            |
0x4b0|            00 00 00 00 24 2c 36 10            |    ....$,6.    |      [40]: "1989-03-26T01:00:00Z" (606877200) transition_time 0x4b4-0x4bc (8)
0x4b0|                                    00 00 00 00|            ....|      [41]: "1989-09-24T01:00:00Z" (622602000) transition_time 0x4bc-0x4c4 (8)
0x4c0|25 1c 27 10                                    |%.'.            |
0x4c0|            00 00 00 00 26 0c 18 10            |    ....&...    |      [42]: "1990-03-25T01:00:00Z" (638326800) transition_time 0x4c4-0x4cc (8)
0x4c0|                                    00 00 00 00|            ....|      [43]: "1990-09-30T01:00:00Z" (654656400) transition_time 0x4cc-0x4d4 (8)
0x4d0|27 05 43 90                                    |'.C.            |
0x4d0|            00 00 00 00 27 f5 34 90            |    ....'.4.    |      [44]: "1991-03-31T01:00:00Z" (670381200) transition_time 0x4d4-0x4dc (8)
0x4d0|                                    00 00 00 00|            ....|      [45]: "1991-09-29T01:00:00Z" (686106000) transition_time 0x4dc-0x4e4 (8)
0x4e0|28 e5 25 90                                    |(.%.            |
0x4e0|            00 00 00 00 29 d5 16 90            |    ....)...    |      [46]: "1992-03-29T01:00:00Z" (701830800) transition_time 0x4e4-0x4ec (8)
0x4e0|                                    00 00 00 00|            ....|      [47]: "1992-09-27T01:00:00Z" (717555600) transition_time 0x4ec-0x4f4 (8)
0x4f0|2a c5 07 90                                    |*...            |
0x4f0|            00 00 00 00 2b b4 f8 90            |    ....+...    |      [48]: "1993-03-28T01:00:00Z" (733280400) transition_time 0x4f4-0x4fc (8)
0x4f0|                                    00 00 00 00|            ....|      [49]: "1993-09-26T01:00:00Z" (749005200) transition_time 0x4fc-0x504 (8)
0x500|2c a4 e9 90                                    |,...            |
0x500|            00 00 00 00 2d 94 da 90            |    ....-...    |      [50]: "1994-03-27T01:00:00Z" (764730000) transition_time 0x504-0x50c (8)
0x500|                                    00 00 00 00|            ....|      [51]: "1994-09-25T01:00:00Z" (780454800) transition_time 0x50c-0x514 (8)
0x510|2e 84 cb 90                                    |....            |
0x510|            00 00 00 00 2f 74 bc 90            |    ..../t..    |      [52]: "1995-03-26T01:00:00Z" (796179600) transition_time 0x514-0x51c (8)
0x510|                                    00 00 00 00|            ....|      [53]: "1995-09-24T01:00:00Z" (811904400) transition_time 0x51c-0x524 (8)
0x520|30 64 ad 90                                    |0d..            |
0x520|            00 00 00 00 31 5d d9 10            |    ....1]..    |      [54]: "1996-03-31T01:00:00Z" (828234000) transition_time 0x524-0x52c (8)
0x520|                                    00 00 00 00|            ....|      [55]: "1996-10-27T01:00:00Z" (846378000) transition_time 0x52c-0x534 (8)
0x530|32 72 b4 10                                    |2r..            |
0x530|            00 00 00 00 33 3d bb 10            |    ....3=..    |      [56]: "1997-03-30T01:00:00Z" (859683600) transition_time 0x534-0x53c (8)
0x530|                                    00 00 00 00|            ....|      [57]: "1997-10-26T01:00:00Z" (877827600) transition_time 0x53c-0x544 (8)
0x540|34 52 96 10                                    |4R..            |
0x540|            00 00 00 00 35 1d 9d 10            |    ....5...    |      [58]: "1998-03-29T01:00:00Z" (891133200) transition_time 0x544-0x54c (8)
0x540|                                    00 00 00 00|            ....|      [59]: "1998-10-25T01:00:00Z" (909277200) transition_time 0x54c-0x554 (8)
0x550|36 32 78 10                                    |62x.            |
0x550|            00 00 00 00 36 fd 7f 10            |    ....6...    |      [60]: "1999-03-28T01:00:00Z" (922582800) transition_time 0x554-0x55c (8)
0x550|                                    00 00 00 00|            ....|      [61]: "1999-10-31T01:00:00Z" (941331600) transition_time 0x55c-0x564 (8)
0x560|38 1b 94 90                                    |8...            |
0x560|            00 00 00 00 38 dd 61 10            |    ....8.a.    |      [62]: "2000-03-26T01:00:00Z" (954032400) transition_time 0x564-0x56c (8)
0x560|                                    00 00 00 00|            ....|      [63]: "2000-10-29T01:00:00Z" (972781200) transition_time 0x56c-0x574 (8)
0x570|39 fb 76 90                                    |9.v.            |
0x570|            00 00 00 00 3a bd 43 10            |    ....:.C.    |      [64]: "2001-03-25T01:00:00Z" (985482000) transition_time 0x574-0x57c (8)
0x570|                                    00 00 00 00|            ....|      [65]: "2001-10-28T01:00:00Z" (1004230800) transition_time 0x57c-0x584 (8)
0x580|3b db 58 90                                    |;.X.            |
0x580|            00 00 00 00 3c a6 5f 90            |    ....<._.    |      [66]: "2002-03-31T01:00:00Z" (1017536400) transition_time 0x584-0x58c (8)
0x580|                                    00 00 00 00|            ....|      [67]: "2002-10-27T01:00:00Z" (1035680400) transition_time 0x58c-0x594 (8)
0x590|3d bb 3a 90                                    |=.:.            |
0x590|            00 00 00 00 3e 86 41 90            |    ....>.A.    |      [68]: "2003-03-30T01:00:00Z" (1048986000) transition_time 0x594-0x59c (8)
0x590|                                    00 00 00 00|            ....|      [69]: "2003-10-26T01:00:00Z" (1067130000) transition_time 0x59c-0x5a4 (8)
0x5a0|3f 9b 1c 90                                    |?...            |
0x5a0|            00 00 00 00 40 66 23 90            |    ....@f#.    |      [70]: "2004-03-28T01:00:00Z" (1080435600) transition_time 0x5a4-0x5ac (8)
0x5a0|                                    00 00 00 00|            ....|      [71]: "2004-10-31T01:00:00Z" (1099184400) transition_time 0x5ac-0x5b4 (8)
0x5b0|41 84 39 10                                    |A.9.            |
0x5b0|            00 00 00 00 42 46 05 90            |    ....BF..    |      [72]: "2005-03-27T01:00:00Z" (1111885200) transition_time 0x5b4-0x5bc (8)
0x5b0|                                    00 00 00 00|            ....|      [73]: "2005-10-30T01:00:00Z" (1130634000) transition_time 0x5bc-0x5c4 (8)
0x5c0|43 64 1b 10                                    |Cd..            |
0x5c0|            00 00 00 00 44 25 e7 90            |    ....D%..    |      [74]: "2006-03-26T01:00:00Z" (1143334800) transition_time 0x5c4-0x5cc (8)
0x5c0|                                    00 00 00 00|            ....|      [75]: "2006-10-29T01:00:00Z" (1162083600) transition_time 0x5cc-0x5d4 (8)
0x5d0|45 43 fd 10                                    |EC..            |
0x5d0|            00 00 00 00 46 05 c9 90            |    ....F...    |      [76]: "2007-03-25T01:00:00Z" (1174784400) transition_time 0x5d4-0x5dc (8)
0x5d0|                                    00 00 00 00|            ....|      [77]: "2007-10-28T01:00:00Z" (1193533200) transition_time 0x5dc-0x5e4 (8)
0x5e0|47 23 df 10                                    |G#..            |
0x5e0|            00 00 00 00 47 ee e6 10            |    ....G...    |      [78]: "2008-03-30T01:00:00Z" (1206838800) transition_time 0x5e4-0x5ec (8)
0x5e0|                                    00 00 00 00|            ....|      [79]: "2008-10-26T01:00:00Z" (1224982800) transition_time 0x5ec-0x5f4 (8)
0x5f0|49 03 c1 10                                    |I...            |
0x5f0|            00 00 00 00 49 ce c8 10            |    ....I...    |      [80]: "2009-03-29T01:00:00Z" (1238288400) transition_time 0x5f4-0x5fc (8)
0x5f0|                                    00 00 00 00|            ....|      [81]: "2009-10-25T01:00:00Z" (1256432400) transition_time 0x5fc-0x604 (8)
0x600|4a e3 a3 10                                    |J...            |
0x600|            00 00 00 00 4b ae aa 10            |    ....K...    |      [82]: "2010-03-28T01:00:00Z" (1269738000) transition_time 0x604-0x60c (8)
0x600|                                    00 00 00 00|            ....|      [83]: "2010-10-31T01:00:00Z" (1288486800) transition_time 0x60c-0x614 (8)
0x610|4c cc bf 90                                    |L...            |
0x610|            00 00 00 00 4d 8e 8c 10            |    ....M...    |      [84]: "2011-03-27T01:00:00Z" (1301187600) transition_time 0x614-0x61c (8)
0x610|                                    00 00 00 00|            ....|      [85]: "2011-10-30T01:00:00Z" (1319936400) transition_time 0x61c-0x624 (8)
0x620|4e ac a1 90                                    |N...            |
0x620|            00 00 00 00 4f 6e 6e 10            |    ....Onn.    |      [86]: "2012-03-25T01:00:00Z" (1332637200) transition_time 0x624-0x62c (8)
0x620|                                    00 00 00 00|            ....|      [87]: "2012-10-28T01:00:00Z" (1351386000) transition_time 0x62c-0x634 (8)
0x630|50 8c 83 90                                    |P...            |
0x630|            00 00 00 00 51 57 8a 90            |    ....QW..    |      [88]: "2013-03-31T01:00:00Z" (1364691600) transition_time 0x634-0x63c (8)
0x630|                                    00 00 00 00|            ....|      [89]: "2013-10-27T01:00:00Z" (1382835600) transition_time 0x63c-0x644 (8)
0x640|52 6c 65 90                                    |Rle.            |
0x640|            00 00 00 00 53 37 6c 90            |    ....S7l.    |      [90]: "2014-03-30T01:00:00Z" (1396141200) transition_time 0x644-0x64c (8)
0x640|                                    00 00 00 00|            ....|      [91]: "2014-10-26T01:00:00Z" (1414285200) transition_time 0x64c-0x654 (8)
0x650|54 4c 47 90                                    |TLG.            |
0x650|            00 00 00 00 55 17 4e 90            |    ....U.N.    |      [92]: "2015-03-29T01:00:00Z" (1427590800) transition_time 0x654-0x65c (8)
0x650|                                    00 00 00 00|            ....|      [93]: "2015-10-25T01:00:00Z" (1445734800) transition_time 0x65c-0x664 (8)
0x660|56 2c 29 90                                    |V,).            |
0x660|            00 00 00 00 56 f7 30 90            |    ....V.0.    |      [94]: "2016-03-27T01:00:00Z" (1459040400) transition_time 0x664-0x66c (8)
0x660|                                    00 00 00 00|            ....|      [95]: "2016-10-30T01:00:00Z" (1477789200) transition_time 0x66c-0x674 (8)
0x670|58 15 46 10                                    |X.F.            |
0x670|            00 00 00 00 58 d7 12 90            |    ....X...    |      [96]: "2017-03-26T01:00:00Z" (1490490000) transition_time 0x674-0x67c (8)
0x670|                                    00 00 00 00|            ....|      [97]: "2017-10-29T01:00:00Z" (1509238800) transition_time 0x67c-0x684 (8)
0x680|59 f5 28 10                                    |Y.(.            |
0x680|            00 00 00 00 5a b6 f4 90            |    ....Z...    |      [98]: "2018-03-25T01:00:00Z" (1521939600) transition_time 0x684-0x68c (8)
0x680|                                    00 00 00 00|            ....|      [99]: "2018-10-28T01:00:00Z" (1540688400) transition_time 0x68c-0x694 (8)
0x690|5b d5 0a 10                                    |[...            |
0x690|            00 00 00 00 5c a0 11 10            |    ....\...    |      [100]: "2019-03-31T01:00:00Z" (1553994000) transition_time 0x694-0x69c (8)
0x690|                                    00 00 00 00|            ....|      [101]: "2019-10-27T01:00:00Z" (1572138000) transition_time 0x69c-0x6a4 (8)
0x6a0|5d b4 ec 10                                    |]...            |
0x6a0|            00 00 00 00 5e 7f f3 10            |    ....^...    |      [102]: "2020-03-29T01:00:00Z" (1585443600) transition_time 0x6a4-0x6ac (8)
0x6a0|                                    00 00 00 00|            ....|      [103]: "2020-10-25T01:00:00Z" (1603587600) transition_time 0x6ac-0x6b4 (8)
0x6b0|5f 94 ce 10                                    |_...            |
0x6b0|            00 00 00 00 60 5f d5 10            |    ....`_..    |      [104]: "2021-03-28T01:00:00Z" (1616893200) transition_time 0x6b4-0x6bc (8)
0x6b0|                                    00 00 00 00|            ....|      [105]: "2021-10-31T01:00:00Z" (1635642000) transition_time 0x6bc-0x6c4 (8)
0x6c0|61 7d ea 90                                    |a}..            |
0x6c0|            00 00 00 00 62 3f b7 10            |    ....b?..    |      [106]: "2022-03-27T01:00:00Z" (1648342800) transition_time 0x6c4-0x6cc (8)
0x6c0|                                    00 00 00 00|            ....|      [107]: "2022-10-30T01:00:00Z" (1667091600) transition_time 0x6cc-0x6d4 (8)
0x6d0|63 5d cc 90                                    |c]..            |
0x6d0|            00 00 00 00 64 1f 99 10            |    ....d...    |      [108]: "2023-03-26T01:00:00Z" (1679792400) transition_time 0x6d4-0x6dc (8)
0x6d0|                                    00 00 00 00|            ....|      [109]: "2023-10-29T01:00:00Z" (1698541200) transition_time 0x6dc-0x6e4 (8)
0x6e0|65 3d ae 90                                    |e=..            |
0x6e0|            00 00 00 00 66 08 b5 90            |    ....f...    |      [110]: "2024-03-31T01:00:00Z" (1711846800) transition_time 0x6e4-0x6ec (8)
0x6e0|                                    00 00 00 00|            ....|      [111]: "2024-10-27T01:00:00Z" (1729990800) transition_time 0x6ec-0x6f4 (8)
0x6f0|67 1d 90 90                                    |g...            |
0x6f0|            00 00 00 00 67 e8 97 90            |    ....g...    |      [112]: "2025-03-30T01:00:00Z" (1743296400) transition_time 0x6f4-0x6fc (8)
0x6f0|                                    00 00 00 00|            ....|      [113]: "2025-10-26T01:00:00Z" (1761440400) transition_time 0x6fc-0x704 (8)
0x700|68 fd 72 90                                    |h.r.            |
0x700|            00 00 00 00 69 c8 79 90            |    ....i.y.    |      [114]: "2026-03-29T01:00:00Z" (1774746000) transition_time 0x704-0x70c (8)
0x700|                                    00 00 00 00|            ....|      [115]: "2026-10-25T01:00:00Z" (1792890000) transition_time 0x70c-0x714 (8)
0x710|6a dd 54 90                                    |j.T.            |
0x710|            00 00 00 00 6b a8 5b 90            |    ....k.[.    |      [116]: "2027-03-28T01:00:00Z" (1806195600) transition_time 0x714-0x71c (8)
0x710|                                    00 00 00 00|            ....|      [117]: "2027-10-31T01:00:00Z" (1824944400) transition_time 0x71c-0x724 (8)
0x720|6c c6 71 10                                    |l.q.            |
0x720|            00 00 00 00 6d 88 3d 90            |    ....m.=.    |      [118]: "2028-03-26T01:00:00Z" (1837645200) transition_time 0x724-0x72c (8)
0x720|                                    00 00 00 00|            ....|      [119]: "2028-10-29T01:00:00Z" (1856394000) transition_time 0x72c-0x734 (8)
0x730|6e a6 53 10                                    |n.S.            |
0x730|            00 00 00 00 6f 68 1f 90            |    ....oh..    |      [120]: "2029-03-25T01:00:00Z" (1869094800) transition_time 0x734-0x73c (8)
0x730|                                    00 00 00 00|            ....|      [121]: "2029-10-28T01:00:00Z" (1887843600) transition_time 0x73c-0x744 (8)
0x740|70 86 35 10                                    |p.5.            |
0x740|            00 00 00 00 71 51 3c 10            |    ....qQ<.    |      [122]: "2030-03-31T01:00:00Z" (1901149200) transition_time 0x744-0x74c (8)
0x740|                                    00 00 00 00|            ....|      [123]: "2030-10-27T01:00:00Z" (1919293200) transition_time 0x74c-0x754 (8)
0x750|72 66 17 10                                    |rf..            |
0x750|            00 00 00 00 73 31 1e 10            |    ....s1..    |      [124]: "2031-03-30T01:00:00Z" (1932598800) transition_time 0x754-0x75c (8)
0x750|                                    00 00 00 00|            ....|      [125]: "2031-10-26T01:00:00Z" (1950742800) transition_time 0x75c-0x764 (8)
0x760|74 45 f9 10                                    |tE..            |
0x760|            00 00 00 00 75 11 00 10            |    ....u...    |      [126]: "2032-03-28T01:00:00Z" (1964048400) transition_time 0x764-0x76c (8)
0x760|                                    00 00 00 00|            ....|      [127]: "2032-10-31T01:00:00Z" (1982797200) transition_time 0x76c-0x774 (8)
0x770|76 2f 15 90                                    |v/..            |
0x770|            00 00 00 00 76 f0 e2 10            |    ....v...    |      [128]: "2033-03-27T01:00:00Z" (1995498000) transition_time 0x774-0x77c (8)
0x770|                                    00 00 00 00|            ....|      [129]: "2033-10-30T01:00:00Z" (2014246800) transition_time 0x77c-0x784 (8)
0x780|78 0e f7 90                                    |x...            |
0x780|            00 00 00 00 78 d0 c4 10            |    ....x...    |      [130]: "2034-03-26T01:00:00Z" (2026947600) transition_time 0x784-0x78c (8)
0x780|                                    00 00 00 00|            ....|      [131]: "2034-10-29T01:00:00Z" (2045696400) transition_time 0x78c-0x794 (8)
0x790|79 ee d9 90                                    |y...            |
0x790|            00 00 00 00 7a b0 a6 10            |    ....z...    |      [132]: "2035-03-25T01:00:00Z" (2058397200) transition_time 0x794-0x79c (8)
0x790|                                    00 00 00 00|            ....|      [133]: "2035-10-28T01:00:00Z" (2077146000) transition_time 0x79c-0x7a4 (8)
0x7a0|7b ce bb 90                                    |{...            |
0x7a0|            00 00 00 00 7c 99 c2 90            |    ....|...    |      [134]: "2036-03-30T01:00:00Z" (2090451600) transition_time 0x7a4-0x7ac (8)
0x7a0|                                    00 00 00 00|            ....|      [135]: "2036-10-26T01:00:00Z" (2108595600) transition_time 0x7ac-0x7b4 (8)
0x7b0|7d ae 9d 90                                    |}...            |
0x7b0|            00 00 00 00 7e 79 a4 90            |    ....~y..    |      [136]: "2037-03-29T01:00:00Z" (2121901200) transition_time 0x7b4-0x7bc (8)
0x7b0|                                    00 00 00 00|            ....|      [137]: "2037-10-25T01:00:00Z" (2140045200) transition_time 0x7bc-0x7c4 (8)
0x7c0|7f 8e 7f 90                                    |....            |
     |                                               |                |    transition_types[0:138]: 0x7c4-0x84e (138)
0x7c0|            01                                 |    .           |      [0]: 1 transition_type 0x7c4-0x7c5 (1)
0x7c0|               03                              |     .          |      [1]: 3 transition_type 0x7c5-0x7c6 (1)
0x7c0|                  02                           |      .         |      [2]: 2 transition_type 0x7c6-0x7c7 (1)
0x7c0|                     03                        |       .        |      [3]: 3 transition_type 0x7c7-0x7c8 (1)
0x7c0|                        02                     |        .       |      [4]: 2 transition_type 0x7c8-0x7c9 (1)
0x7c0|                           05                  |         .      |      [5]: 5 transition_type 0x7c9-0x7ca (1)
0x7c0|                              04               |          .     |      [6]: 4 transition_type 0x7ca-0x7cb (1)
0x7c0|                                 05            |           .    |      [7]: 5 transition_type 0x7cb-0x7cc (1)
0x7c0|                                    04         |            .   |      [8]: 4 transition_type 0x7cc-0x7cd (1)
0x7c0|                                       03      |             .  |      [9]: 3 transition_type 0x7cd-0x7ce (1)
0x7c0|                                          02   |              . |      [10]: 2 transition_type 0x7ce-0x7cf (1)
0x7c0|                                             03|               .|      [11]: 3 transition_type 0x7cf-0x7d0 (1)
0x7d0|06                                             |.               |      [12]: 6 transition_type 0x7d0-0x7d1 (1)
0x7d0|   07                                          | .              |      [13]: 7 transition_type 0x7d1-0x7d2 (1)
0x7d0|      06                                       |  .             |      [14]: 6 transition_type 0x7d2-0x7d3 (1)
0x7d0|         07                                    |   .            |      [15]: 7 transition_type 0x7d3-0x7d4 (1)
0x7d0|            06                                 |    .           |      [16]: 6 transition_type 0x7d4-0x7d5 (1)
0x7d0|               07                              |     .          |      [17]: 7 transition_type 0x7d5-0x7d6 (1)
0x7d0|                  06                           |      .         |      [18]: 6 transition_type 0x7d6-0x7d7 (1)
0x7d0|                     03                        |       .        |      [19]: 3 transition_type 0x7d7-0x7d8 (1)
0x7d0|                        02                     |        .       |      [20]: 2 transition_type 0x7d8-0x7d9 (1)
0x7d0|                           03                  |         .      |      [21]: 3 transition_type 0x7d9-0x7da (1)
0x7d0|                              02               |          .     |      [22]: 2 transition_type 0x7da-0x7db (1)
0x7d0|                                 03            |           .    |      [23]: 3 transition_type 0x7db-0x7dc (1)
0x7d0|                                    08         |            .   |      [24]: 8 transition_type 0x7dc-0x7dd (1)
0x7d0|                                       09      |             .  |      [25]: 9 transition_type 0x7dd-0x7de (1)
0x7d0|                                          08   |              . |      [26]: 8 transition_type 0x7de-0x7df (1)
0x7d0|                                             09|               .|      [27]: 9 transition_type 0x7df-0x7e0 (1)
0x7e0|08                                             |.               |      [28]: 8 transition_type 0x7e0-0x7e1 (1)
0x7e0|   09                                          | .              |      [29]: 9 transition_type 0x7e1-0x7e2 (1)
0x7e0|      08                                       |  .             |      [30]: 8 transition_type 0x7e2-0x7e3 (1)
0x7e0|         09                                    |   .            |      [31]: 9 transition_type 0x7e3-0x7e4 (1)
0x7e0|            08                                 |    .           |      [32]: 8 transition_type 0x7e4-0x7e5 (1)
0x7e0|               09                              |     .          |      [33]: 9 transition_type 0x7e5-0x7e6 (1)
0x7e0|                  08                           |      .         |      [34]: 8 transition_type 0x7e6-0x7e7 (1)
0x7e0|                     09                        |       .        |      [35]: 9 transition_type 0x7e7-0x7e8 (1)
0x7e0|                        08                     |        .       |      [36]: 8 transition_type 0x7e8-0x7e9 (1)
0x7e0|                           09                  |         .      |      [37]: 9 transition_type 0x7e9-0x7ea (1)
0x7e0|                              08               |          .     |      [38]: 8 transition_type 0x7ea-0x7eb (1)
0x7e0|                                 09            |           .    |      [39]: 9 transition_type 0x7eb-0x7ec (1)
0x7e0|                                    08         |            .   |      [40]: 8 transition_type 0x7ec-0x7ed (1)
0x7e0|                                       09      |             .  |      [41]: 9 transition_type 0x7ed-0x7ee (1)
0x7e0|                                          08   |              . |      [42]: 8 transition_type 0x7ee-0x7ef (1)
0x7e0|                                             09|               .|      [43]: 9 transition_type 0x7ef-0x7f0 (1)
0x7f0|08                                             |.               |      [44]: 8 transition_type 0x7f0-0x7f1 (1)
0x7f0|   09                                          | .              |      [45]: 9 transition_type 0x7f1-0x7f2 (1)
0x7f0|      08                                       |  .             |      [46]: 8 transition_type 0x7f2-0x7f3 (1)
0x7f0|         09                                    |   .            |      [47]: 9 transition_type 0x7f3-0x7f4 (1)
0x7f0|            08                                 |    .           |      [48]: 8 transition_type 0x7f4-0x7f5 (1)
0x7f0|               09                              |     .          |      [49]: 9 transition_type 0x7f5-0x7f6 (1)
0x7f0|                  08                           |      .         |      [50]: 8 transition_type 0x7f6-0x7f7 (1)
0x7f0|                     09                        |       .        |      [51]: 9 transition_type 0x7f7-0x7f8 (1)
0x7f0|                        08                     |        .       |      [52]: 8 transition_type 0x7f8-0x7f9 (1)
0x7f0|                           09                  |         .      |      [53]: 9 transition_type 0x7f9-0x7fa (1)
0x7f0|                              08               |          .     |      [54]: 8 transition_type 0x7fa-0x7fb (1)
0x7f0|                                 09            |           .    |      [55]: 9 transition_type 0x7fb-0x7fc (1)
0x7f0|                                    08         |            .   |      [56]: 8 transition_type 0x7fc-0x7fd (1)
0x7f0|                                       09      |             .  |      [57]: 9 transition_type 0x7fd-0x7fe (1)
0x7f0|                                          08   |              . |      [58]: 8 transition_type 0x7fe-0x7ff (1)
0x7f0|                                             09|               .|      [59]: 9 transition_type 0x7ff-0x800 (1)
0x800|08                                             |.               |      [60]: 8 transition_type 0x800-0x801 (1)
0x800|   09                                          | .              |      [61]: 9 transition_type 0x801-0x802 (1)
0x800|      08                                       |  .             |      [62]: 8 transition_type 0x802-0x803 (1)
0x800|         09                                    |   .            |      [63]: 9 transition_type 0x803-0x804 (1)
0x800|            08                                 |    .           |      [64]: 8 transition_type 0x804-0x805 (1)
0x800|               09                              |     .          |      [65]: 9 transition_type 0x805-0x806 (1)
0x800|                  08                           |      .         |      [66]: 8 transition_type 0x806-0x807 (1)
0x800|                     09                        |       .        |      [67]: 9 transition_type 0x807-0x808 (1)
0x800|                        08                     |        .       |      [68]: 8 transition_type 0x808-0x809 (1)
0x800|                           09                  |         .      |      [69]: 9 transition_type 0x809-0x80a (1)
0x800|                              08               |          .     |      [70]: 8 transition_type 0x80a-0x80b (1)
0x800|                                 09            |           .    |      [71]: 9 transition_type 0x80b-0x80c (1)
0x800|                                    08         |            .   |      [72]: 8 transition_type 0x80c-0x80d (1)
0x800|                                       09      |             .  |      [73]: 9 transition_type 0x80d-0x80e (1)
0x800|                                          08   |              . |      [74]: 8 transition_type 0x80e-0x80f (1)
0x800|                                             09|               .|      [75]: 9 transition_type 0x80f-0x810 (1)
0x810|08                                             |.               |      [76]: 8 transition_type 0x810-0x811 (1)
0x810|   09                                          | .              |      [77]: 9 transition_type 0x811-0x812 (1)
0x810|      08                                       |  .             |      [78]: 8 transition_type 0x812-0x813 (1)
0x810|         09                                    |   .            |      [79]: 9 transition_type 0x813-0x814 (1)
0x810|            08                                 |    .           |      [80]: 8 transition_type 0x814-0x815 (1)
0x810|               09                              |     .          |      [81]: 9 transition_type 0x815-0x816 (1)
0x810|                  08                           |      .         |      [82]: 8 transition_type 0x816-0x817 (1)
0x810|                     09                        |       .        |      [83]: 9 transition_type 0x817-0x818 (1)
0x810|                        08                     |        .       |      [84]: 8 transition_type 0x818-0x819 (1)
0x810|                           09                  |         .      |      [85]: 9 transition_type 0x819-0x81a (1)
0x810|                              08               |          .     |      [86]: 8 transition_type 0x81a-0x81b (1)
0x810|                                 09            |           .    |      [87]: 9 transition_type 0x81b-0x81c (1)
0x810|                                    08         |            .   |      [88]: 8 transition_type 0x81c-0x81d (1)
0x810|                                       09      |             .  |      [89]: 9 transition_type 0x81d-0x81e (1)
0x810|                                          08   |              . |      [90]: 8 transition_type 0x81e-0x81f (1)
0x810|                                             09|               .|      [91]: 9 transition_type 0x81f-0x820 (1)
0x820|08                                             |.               |      [92]: 8 transition_type 0x820-0x821 (1)
0x820|   09                                          | .              |      [93]: 9 transition_type 0x821-0x822 (1)
0x820|      08                                       |  .             |      [94]: 8 transition_type 0x822-0x823 (1)
0x820|         09                                    |   .            |      [95]: 9 transition_type 0x823-0x824 (1)
0x820|            08                                 |    .           |      [96]: 8 transition_type 0x824-0x825 (1)
0x820|               09                              |     .          |      [97]: 9 transition_type 0x825-0x826 (1)
0x820|                  08                           |      .         |      [98]: 8 transition_type 0x826-0x827 (1)
0x820|                     09                        |       .        |      [99]: 9 transition_type 0x827-0x828 (1)
0x820|                        08                     |        .       |      [100]: 8 transition_type 0x828-0x829 (1)
0x820|                           09                  |         .      |      [101]: 9 transition_type 0x829-0x82a (1)
0x820|                              08               |          .     |      [102]: 8 transition_type 0x82a-0x82b (1)
0x820|                                 09            |           .    |      [103]: 9 transition_type 0x82b-0x82c (1)
0x820|                                    08         |            .   |      [104]: 8 transition_type 0x82c-0x82d (1)
0x820|                                       09      |             .  |      [105]: 9 transition_type 0x82d-0x82e (1)
0x820|                                          08   |              . |      [106]: 8 transition_type 0x82e-0x82f (1)
0x820|                                             09|               .|      [107]: 9 transition_type 0x82f-0x830 (1)
0x830|08                                             |.               |      [108]: 8 transition_type 0x830-0x831 (1)
0x830|   09                                          | .              |      [109]: 9 transition_type 0x831-0x832 (1)
0x830|      08                                       |  .             |      [110]: 8 transition_type 0x832-0x833 (1)
0x830|         09                                    |   .            |      [111]: 9 transition_type 0x833-0x834 (1)
0x830|            08                                 |    .           |      [112]: 8 transition_type 0x834-0x835 (1)
0x830|               09                              |     .          |      [113]: 9 transition_type 0x835-0x836 (1)
0x830|                  08                           |      .         |      [114]: 8 transition_type 0x836-0x837 (1)
0x830|                     09                        |       .        |      [115]: 9 transition_type 0x837-0x838 (1)
0x830|                        08                     |        .       |      [116]: 8 transition_type 0x838-0x839 (1)
0x830|                           09                  |         .      |      [117]: 9 transition_type 0x839-0x83a (1)
0x830|                              08               |          .     |      [118]: 8 transition_type 0x83a-0x83b (1)
0x830|                                 09            |           .    |      [119]: 9 transition_type 0x83b-0x83c (1)
0x830|                                    08         |            .   |      [120]: 8 transition_type 0x83c-0x83d (1)
0x830|                                       09      |             .  |      [121]: 9 transition_type 0x83d-0x83e (1)
0x830|                                          08   |              . |      [122]: 8 transition_type 0x83e-0x83f (1)
0x830|                                             09|               .|      [123]: 9 transition_type 0x83f-0x840 (1)
0x840|08                                             |.               |      [124]: 8 transition_type 0x840-0x841 (1)
0x840|   09                                          | .              |      [125]: 9 transition_type 0x841-0x842 (1)
0x840|      08                                       |  .             |      [126]: 8 transition_type 0x842-0x843 (1)
0x840|         09                                    |   .            |      [127]: 9 transition_type 0x843-0x844 (1)
0x840|            08                                 |    .           |      [128]: 8 transition_type 0x844-0x845 (1)
0x840|               09                              |     .          |      [129]: 9 transition_type 0x845-0x846 (1)
0x840|                  08                           |      .         |      [130]: 8 transition_type 0x846-0x847 (1)
0x840|                     09                        |       .        |      [131]: 9 transition_type 0x847-0x848 (1)
0x840|                        08                     |        .       |      [132]: 8 transition_type 0x848-0x849 (1)
0x840|                           09                  |         .      |      [133]: 9 transition_type 0x849-0x84a (1)
0x840|                              08               |          .     |      [134]: 8 transition_type 0x84a-0x84b (1)
0x840|                                 09            |           .    |      [135]: 9 transition_type 0x84b-0x84c (1)
0x840|                                    08         |            .   |      [136]: 8 transition_type 0x84c-0x84d (1)
0x840|                                       09      |             .  |      [137]: 9 transition_type 0x84d-0x84e (1)
     |                                               |                |    local_time_type_records[0:10]: 0x84e-0x88a (60)
     |                                               |                |      [0]{}: local_time_type 0x84e-0x854 (6)
0x840|                                          00 00|              ..|        utoff: 5692 (valid) 0x84e-0x852 (4)
0x850|16 3c                                          |.<              |
0x850|      00                                       |  .             |        dst: 0 (valid) 0x852-0x853 (1)
0x850|         00                                    |   .            |        idx: 0 (valid) 0x853-0x854 (1)
     |                                               |                |      [1]{}: local_time_type 0x854-0x85a (6)
0x850|            00 00 16 3c                        |    ...<        |        utoff: 5692 (valid) 0x854-0x858 (4)
0x850|                        00                     |        .       |        dst: 0 (valid) 0x858-0x859 (1)
0x850|                           04                  |         .      |        idx: 4 (valid) 0x859-0x85a (1)
     |                                               |                |      [2]{}: local_time_type 0x85a-0x860 (6)
0x850|                              00 00 2a 30      |          ..*0  |        utoff: 10800 (valid) 0x85a-0x85e (4)
0x850|                                          01   |              . |        dst: 1 (valid) 0x85e-0x85f (1)
0x850|                                             08|               .|        idx: 8 (valid) 0x85f-0x860 (1)
     |                                               |                |      [3]{}: local_time_type 0x860-0x866 (6)
0x860|00 00 1c 20                                    |...             |        utoff: 7200 (valid) 0x860-0x864 (4)
0x860|            00                                 |    .           |        dst: 0 (valid) 0x864-0x865 (1)
0x860|               0d                              |     .          |        idx: 13 (valid) 0x865-0x866 (1)
     |                                               |                |      [4]{}: local_time_type 0x866-0x86c (6)
0x860|                  00 00 0e 10                  |      ....      |        utoff: 3600 (valid) 0x866-0x86a (4)
0x860|                              00               |          .     |        dst: 0 (valid) 0x86a-0x86b (1)
0x860|                                 11            |           .    |        idx: 17 (valid) 0x86b-0x86c (1)
     |                                               |                |      [5]{}: local_time_type 0x86c-0x872 (6)
0x860|                                    00 00 1c 20|            ... |        utoff: 7200 (valid) 0x86c-0x870 (4)
0x870|01                                             |.               |        dst: 1 (valid) 0x870-0x871 (1)
0x870|   15                                          | .              |        idx: 21 (valid) 0x871-0x872 (1)
     |                                               |                |      [6]{}: local_time_type 0x872-0x878 (6)
0x870|      00 00 2a 30                              |  ..*0          |        utoff: 10800 (valid) 0x872-0x876 (4)
0x870|                  01                           |      .         |        dst: 1 (valid) 0x876-0x877 (1)
0x870|                     08                        |       .        |        idx: 8 (valid) 0x877-0x878 (1)
     |                                               |                |      [7]{}: local_time_type 0x878-0x87e (6)
0x870|                        00 00 1c 20            |        ...     |        utoff: 7200 (valid) 0x878-0x87c (4)
0x870|                                    00         |            .   |        dst: 0 (valid) 0x87c-0x87d (1)
0x870|                                       0d      |             .  |        idx: 13 (valid) 0x87d-0x87e (1)
     |                                               |                |      [8]{}: local_time_type 0x87e-0x884 (6)
0x870|                                          00 00|              ..|        utoff: 10800 (valid) 0x87e-0x882 (4)
0x880|2a 30                                          |*0              |
0x880|      01                                       |  .             |        dst: 1 (valid) 0x882-0x883 (1)
0x880|         08                                    |   .            |        idx: 8 (valid) 0x883-0x884 (1)
     |                                               |                |      [9]{}: local_time_type 0x884-0x88a (6)
0x880|            00 00 1c 20                        |    ...         |        utoff: 7200 (valid) 0x884-0x888 (4)
0x880|                        00                     |        .       |        dst: 0 (valid) 0x888-0x889 (1)
0x880|                           0d                  |         .      |        idx: 13 (valid) 0x889-0x88a (1)
     |                                               |                |    time_zone_designations[0:6]: 0x88a-0x8a4 (26)
0x880|                              4c 4d 54 00      |          LMT.  |      [0]: "LMT" time_zone_designation 0x88a-0x88e (4)
0x880|                                          41 4d|              AM|      [1]: "AMT" time_zone_designation 0x88e-0x892 (4)
0x890|54 00                                          |T.              |
0x890|      45 45 53 54 00                           |  EEST.         |      [2]: "EEST" time_zone_designation 0x892-0x897 (5)
0x890|                     45 45 54 00               |       EET.     |      [3]: "EET" time_zone_designation 0x897-0x89b (4)
0x890|                                 43 45 54 00   |           CET. |      [4]: "CET" time_zone_designation 0x89b-0x89f (4)
0x890|                                             43|               C|      [5]: "CEST" time_zone_designation 0x89f-0x8a4 (5)
0x8a0|45 53 54 00                                    |EST.            |
     |                                               |                |    leap_second_records[0:0]: 0x8a4-0x8a4 (0)
     |                                               |                |    standard_wall_indicators[0:10]: 0x8a4-0x8ae (10)
0x8a0|            00                                 |    .           |      [0]: 0 standard_wall_indicator (valid) 0x8a4-0x8a5 (1)
0x8a0|               00                              |     .          |      [1]: 0 standard_wall_indicator (valid) 0x8a5-0x8a6 (1)
0x8a0|                  00                           |      .         |      [2]: 0 standard_wall_indicator (valid) 0x8a6-0x8a7 (1)
0x8a0|                     00                        |       .        |      [3]: 0 standard_wall_indicator (valid) 0x8a7-0x8a8 (1)
0x8a0|                        00                     |        .       |      [4]: 0 standard_wall_indicator (valid) 0x8a8-0x8a9 (1)
0x8a0|                           00                  |         .      |      [5]: 0 standard_wall_indicator (valid) 0x8a9-0x8aa (1)
0x8a0|                              01               |          .     |      [6]: 1 standard_wall_indicator (valid) 0x8aa-0x8ab (1)
0x8a0|                                 01            |           .    |      [7]: 1 standard_wall_indicator (valid) 0x8ab-0x8ac (1)
0x8a0|                                    01         |            .   |      [8]: 1 standard_wall_indicator (valid) 0x8ac-0x8ad (1)
0x8a0|                                       01      |             .  |      [9]: 1 standard_wall_indicator (valid) 0x8ad-0x8ae (1)
     |                                               |                |    ut_local_indicators[0:10]: 0x8ae-0x8b8 (10)
0x8a0|                                          00   |              . |      [0]: 0 ut_local_indicator (valid) 0x8ae-0x8af (1)
0x8a0|                                             00|               .|      [1]: 0 ut_local_indicator (valid) 0x8af-0x8b0 (1)
0x8b0|00                                             |.               |      [2]: 0 ut_local_indicator (valid) 0x8b0-0x8b1 (1)
0x8b0|   00                                          | .              |      [3]: 0 ut_local_indicator (valid) 0x8b1-0x8b2 (1)
0x8b0|      00                                       |  .             |      [4]: 0 ut_local_indicator (valid) 0x8b2-0x8b3 (1)
0x8b0|         00                                    |   .            |      [5]: 0 ut_local_indicator (valid) 0x8b3-0x8b4 (1)
0x8b0|            00                                 |    .           |      [6]: 0 ut_local_indicator (valid) 0x8b4-0x8b5 (1)
0x8b0|               00                              |     .          |      [7]: 0 ut_local_indicator (valid) 0x8b5-0x8b6 (1)
0x8b0|                  01                           |      .         |      [8]: 1 ut_local_indicator (valid) 0x8b6-0x8b7 (1)
0x8b0|                     01                        |       .        |      [9]: 1 ut_local_indicator (valid) 0x8b7-0x8b8 (1)
     |                                               |                |  footer{}: 0x8b8-0x8d6 (30)
0x8b0|                        0a                     |        .       |    nl1: 10 (valid) 0x8b8-0x8b9 (1)
0x8b0|                           45 45 54 2d 32 45 45|         EET-2EE|    tz_string: "EET-2EEST,M3.5.0/3,M10.5.0/4" 0x8b9-0x8d5 (28)
0x8c0|53 54 2c 4d 33 2e 35 2e 30 2f 33 2c 4d 31 30 2e|ST,M3.5.0/3,M10.|
0x8d0|35 2e 30 2f 34                                 |5.0/4           |
0x8d0|               0a|                             |     .|         |    nl2: 10 (valid) 0x8d5-0x8d6 (1)
