$ fq -d tzif dv Atyrau
     |00 01 02 03 04 05 06 07 08 09 0a 0b 0c 0d 0e 0f|0123456789abcdef|.{}: Atyrau (tzif) 0x0-0x5f4 (1524)
     |                                               |                |  v1header{}: 0x0-0x2c (44)
0x000|54 5a 69 66                                    |TZif            |    magic: 0x545a6966 (valid) 0x0-0x4 (4)
0x000|            32                                 |    2           |    ver: "2" (0x32) (valid) 0x4-0x5 (1)
0x000|               00 00 00 00 00 00 00 00 00 00 00|     ...........|    reserved: raw bits 0x5-0x14 (15)
0x010|00 00 00 00                                    |....            |
0x010|            00 00 00 00                        |    ....        |    isutcnt: 0 0x14-0x18 (4)
0x010|                        00 00 00 0a            |        ....    |    isstdcnt: 10 0x18-0x1c (4)
0x010|                                    00 00 00 1b|            ....|    leapcnt: 27 0x1c-0x20 (4)
0x020|00 00 00 33                                    |...3            |    timecnt: 51 0x20-0x24 (4)
0x020|            00 00 00 0a                        |    ....        |    typecnt: 10 0x24-0x28 (4)
0x020|                        00 00 00 14            |        ....    |    charcnt: 20 0x28-0x2c (4)
     |                                               |                |  v1datablock{}: 0x2c-0x25d (561)
     |                                               |                |    transition_times[0:51]: 0x2c-0xf8 (204)
0x020|                                    aa 19 93 50|            ...P|      [0]: "1924-05-01T20:32:16Z" (-1441164464) transition_time 0x2c-0x30 (4)
0x030|b5 a4 0b 50                                    |...P            |      [1]: "1930-06-20T21:00:00Z" (-1247540400) transition_time 0x30-0x34 (4)
0x030|            16 18 ce 3a                        |    ...:        |      [2]: "1981-09-30T19:00:10Z" (370724410) transition_time 0x34-0x38 (4)
0x030|                        17 08 b1 2a            |        ...*    |      [3]: "1982-03-31T18:00:10Z" (386445610) transition_time 0x38-0x3c (4)
0x030|                                    17 f9 f3 ab|            ....|      [4]: "1982-09-30T18:00:11Z" (402256811) transition_time 0x3c-0x40 (4)
0x040|18 e9 f2 bb                                    |....            |      [5]: "1983-03-31T19:00:11Z" (417985211) transition_time 0x40-0x44 (4)
0x040|            19 db 27 2c                        |    ..',        |      [6]: "1983-09-30T18:00:12Z" (433792812) transition_time 0x44-0x48 (4)
0x040|                        1a cc 77 bc            |        ..w.    |      [7]: "1984-03-31T19:00:12Z" (449607612) transition_time 0x48-0x4c (4)
0x040|                                    1b bc 84 dc|            ....|      [8]: "1984-09-29T21:00:12Z" (465339612) transition_time 0x4c-0x50 (4)
0x050|1c ac 75 dc                                    |..u.            |      [9]: "1985-03-30T21:00:12Z" (481064412) transition_time 0x50-0x54 (4)
0x050|            1d 9c 66 dd                        |    ..f.        |      [10]: "1985-09-28T21:00:13Z" (496789213) transition_time 0x54-0x58 (4)
0x050|                        1e 8c 57 dd            |        ..W.    |      [11]: "1986-03-29T21:00:13Z" (512514013) transition_time 0x58-0x5c (4)
0x050|                                    1f 7c 48 dd|            .|H.|      [12]: "1986-09-27T21:00:13Z" (528238813) transition_time 0x5c-0x60 (4)
0x060|20 6c 39 dd                                    | l9.            |      [13]: "1987-03-28T21:00:13Z" (543963613) transition_time 0x60-0x64 (4)
0x060|            21 5c 2a dd                        |    !\*.        |      [14]: "1987-09-26T21:00:13Z" (559688413) transition_time 0x64-0x68 (4)
0x060|                        22 4c 1b de            |        "L..    |      [15]: "1988-03-26T21:00:14Z" (575413214) transition_time 0x68-0x6c (4)
0x060|                                    23 3c 0c de|            #<..|      [16]: "1988-09-24T21:00:14Z" (591138014) transition_time 0x6c-0x70 (4)
0x070|24 2b fd de                                    |$+..            |      [17]: "1989-03-25T21:00:14Z" (606862814) transition_time 0x70-0x74 (4)
0x070|            25 1b ee de                        |    %...        |      [18]: "1989-09-23T21:00:14Z" (622587614) transition_time 0x74-0x78 (4)
0x070|                        26 0b df df            |        &...    |      [19]: "1990-03-24T21:00:15Z" (638312415) transition_time 0x78-0x7c (4)
0x070|                                    27 05 0b 5f|            '.._|      [20]: "1990-09-29T21:00:15Z" (654642015) transition_time 0x7c-0x80 (4)
0x080|27 f4 fc 60                                    |'..`            |      [21]: "1991-03-30T21:00:16Z" (670366816) transition_time 0x80-0x84 (4)
0x080|            28 e4 fb 70                        |    (..p        |      [22]: "1991-09-28T22:00:16Z" (686095216) transition_time 0x84-0x88 (4)
0x080|                        29 78 a3 70            |        )x.p    |      [23]: "1992-01-18T22:00:16Z" (695772016) transition_time 0x88-0x8c (4)
0x080|                                    29 d4 de 60|            )..`|      [24]: "1992-03-28T21:00:16Z" (701816416) transition_time 0x8c-0x90 (4)
0x090|2a c4 cf 61                                    |*..a            |      [25]: "1992-09-26T21:00:17Z" (717541217) transition_time 0x90-0x94 (4)
0x090|            2b b4 c0 61                        |    +..a        |      [26]: "1993-03-27T21:00:17Z" (733266017) transition_time 0x94-0x98 (4)
0x090|                        2c a4 b1 62            |        ,..b    |      [27]: "1993-09-25T21:00:18Z" (748990818) transition_time 0x98-0x9c (4)
0x090|                                    2d 94 a2 62|            -..b|      [28]: "1994-03-26T21:00:18Z" (764715618) transition_time 0x9c-0xa0 (4)
0x0a0|2e 84 93 63                                    |...c            |      [29]: "1994-09-24T21:00:19Z" (780440419) transition_time 0xa0-0xa4 (4)
0x0a0|            2f 74 84 63                        |    /t.c        |      [30]: "1995-03-25T21:00:19Z" (796165219) transition_time 0xa4-0xa8 (4)
0x0a0|                        30 64 75 63            |        0duc    |      [31]: "1995-09-23T21:00:19Z" (811890019) transition_time 0xa8-0xac (4)
0x0a0|                                    31 5d a0 e4|            1]..|      [32]: "1996-03-30T21:00:20Z" (828219620) transition_time 0xac-0xb0 (4)
0x0b0|32 72 7b e4                                    |2r{.            |      [33]: "1996-10-26T21:00:20Z" (846363620) transition_time 0xb0-0xb4 (4)
0x0b0|            33 3d 82 e4                        |    3=..        |      [34]: "1997-03-29T21:00:20Z" (859669220) transition_time 0xb4-0xb8 (4)
0x0b0|                        34 52 5d e5            |        4R].    |      [35]: "1997-10-25T21:00:21Z" (877813221) transition_time 0xb8-0xbc (4)
0x0b0|                                    35 1d 64 e5|            5.d.|      [36]: "1998-03-28T21:00:21Z" (891118821) transition_time 0xbc-0xc0 (4)
0x0c0|36 32 3f e5                                    |62?.            |      [37]: "1998-10-24T21:00:21Z" (909262821) transition_time 0xc0-0xc4 (4)
0x0c0|            36 fd 46 e6                        |    6.F.        |      [38]: "1999-03-27T21:00:22Z" (922568422) transition_time 0xc4-0xc8 (4)
0x0c0|                        38 1b 6a 76            |        8.jv    |      [39]: "1999-10-30T22:00:22Z" (941320822) transition_time 0xc8-0xcc (4)
0x0c0|                                    38 dd 36 f6|            8.6.|      [40]: "2000-03-25T22:00:22Z" (954021622) transition_time 0xcc-0xd0 (4)
0x0d0|39 fb 4c 76                                    |9.Lv            |      [41]: "2000-10-28T22:00:22Z" (972770422) transition_time 0xd0-0xd4 (4)
0x0d0|            3a bd 18 f6                        |    :...        |      [42]: "2001-03-24T22:00:22Z" (985471222) transition_time 0xd4-0xd8 (4)
0x0d0|                        3b db 2e 76            |        ;..v    |      [43]: "2001-10-27T22:00:22Z" (1004220022) transition_time 0xd8-0xdc (4)
0x0d0|                                    3c a6 35 76|            <.5v|      [44]: "2002-03-30T22:00:22Z" (1017525622) transition_time 0xdc-0xe0 (4)
0x0e0|3d bb 10 76                                    |=..v            |      [45]: "2002-10-26T22:00:22Z" (1035669622) transition_time 0xe0-0xe4 (4)
0x0e0|            3e 86 17 76                        |    >..v        |      [46]: "2003-03-29T22:00:22Z" (1048975222) transition_time 0xe4-0xe8 (4)
0x0e0|                        3f 9a f2 76            |        ?..v    |      [47]: "2003-10-25T22:00:22Z" (1067119222) transition_time 0xe8-0xec (4)
0x0e0|                                    40 65 f9 76|            @e.v|      [48]: "2004-03-27T22:00:22Z" (1080424822) transition_time 0xec-0xf0 (4)
0x0f0|41 84 0e f6                                    |A...            |      [49]: "2004-10-30T22:00:22Z" (1099173622) transition_time 0xf0-0xf4 (4)
0x0f0|            64 9b 78 1b                        |    d.x.        |      [50]: "2023-06-28T00:00:27Z" (1687910427) transition_time 0xf4-0xf8 (4)
     |                                               |                |    transition_types[0:51]: 0xf8-0x12b (51)
0x0f0|                        01                     |        .       |      [0]: 1 transition_type 0xf8-0xf9 (1)
0x0f0|                           02                  |         .      |      [1]: 2 transition_type 0xf9-0xfa (1)
0x0f0|                              03               |          .     |      [2]: 3 transition_type 0xfa-0xfb (1)
0x0f0|                                 04            |           .    |      [3]: 4 transition_type 0xfb-0xfc (1)
0x0f0|                                    02         |            .   |      [4]: 2 transition_type 0xfc-0xfd (1)
0x0f0|                                       04      |             .  |      [5]: 4 transition_type 0xfd-0xfe (1)
0x0f0|                                          02   |              . |      [6]: 2 transition_type 0xfe-0xff (1)
0x0f0|                                             04|               .|      [7]: 4 transition_type 0xff-0x100 (1)
0x100|05                                             |.               |      [8]: 5 transition_type 0x100-0x101 (1)
0x100|   06                                          | .              |      [9]: 6 transition_type 0x101-0x102 (1)
0x100|      05                                       |  .             |      [10]: 5 transition_type 0x102-0x103 (1)
0x100|         06                                    |   .            |      [11]: 6 transition_type 0x103-0x104 (1)
0x100|            05                                 |    .           |      [12]: 5 transition_type 0x104-0x105 (1)
0x100|               06                              |     .          |      [13]: 6 transition_type 0x105-0x106 (1)
0x100|                  05                           |      .         |      [14]: 5 transition_type 0x106-0x107 (1)
0x100|                     06                        |       .        |      [15]: 6 transition_type 0x107-0x108 (1)
0x100|                        05                     |        .       |      [16]: 5 transition_type 0x108-0x109 (1)
0x100|                           06                  |         .      |      [17]: 6 transition_type 0x109-0x10a (1)
0x100|                              05               |          .     |      [18]: 5 transition_type 0x10a-0x10b (1)
0x100|                                 06            |           .    |      [19]: 6 transition_type 0x10b-0x10c (1)
0x100|                                    05         |            .   |      [20]: 5 transition_type 0x10c-0x10d (1)
0x100|                                       07      |             .  |      [21]: 7 transition_type 0x10d-0x10e (1)
0x100|                                          08   |              . |      [22]: 8 transition_type 0x10e-0x10f (1)
0x100|                                             05|               .|      [23]: 5 transition_type 0x10f-0x110 (1)
0x110|06                                             |.               |      [24]: 6 transition_type 0x110-0x111 (1)
0x110|   05                                          | .              |      [25]: 5 transition_type 0x111-0x112 (1)
0x110|      06                                       |  .             |      [26]: 6 transition_type 0x112-0x113 (1)
0x110|         05                                    |   .            |      [27]: 5 transition_type 0x113-0x114 (1)
0x110|            06                                 |    .           |      [28]: 6 transition_type 0x114-0x115 (1)
0x110|               05                              |     .          |      [29]: 5 transition_type 0x115-0x116 (1)
0x110|                  06                           |      .         |      [30]: 6 transition_type 0x116-0x117 (1)
0x110|                     05                        |       .        |      [31]: 5 transition_type 0x117-0x118 (1)
0x110|                        06                     |        .       |      [32]: 6 transition_type 0x118-0x119 (1)
0x110|                           05                  |         .      |      [33]: 5 transition_type 0x119-0x11a (1)
0x110|                              06               |          .     |      [34]: 6 transition_type 0x11a-0x11b (1)
0x110|                                 05            |           .    |      [35]: 5 transition_type 0x11b-0x11c (1)
0x110|                                    06         |            .   |      [36]: 6 transition_type 0x11c-0x11d (1)
0x110|                                       05      |             .  |      [37]: 5 transition_type 0x11d-0x11e (1)
0x110|                                          07   |              . |      [38]: 7 transition_type 0x11e-0x11f (1)
0x110|                                             08|               .|      [39]: 8 transition_type 0x11f-0x120 (1)
0x120|07                                             |.               |      [40]: 7 transition_type 0x120-0x121 (1)
0x120|   08                                          | .              |      [41]: 8 transition_type 0x121-0x122 (1)
0x120|      07                                       |  .             |      [42]: 7 transition_type 0x122-0x123 (1)
0x120|         08                                    |   .            |      [43]: 8 transition_type 0x123-0x124 (1)
0x120|            07                                 |    .           |      [44]: 7 transition_type 0x124-0x125 (1)
0x120|               08                              |     .          |      [45]: 8 transition_type 0x125-0x126 (1)
0x120|                  07                           |      .         |      [46]: 7 transition_type 0x126-0x127 (1)
0x120|                     08                        |       .        |      [47]: 8 transition_type 0x127-0x128 (1)
0x120|                        07                     |        .       |      [48]: 7 transition_type 0x128-0x129 (1)
0x120|                           05                  |         .      |      [49]: 5 transition_type 0x129-0x12a (1)
0x120|                              05               |          .     |      [50]: 5 transition_type 0x12a-0x12b (1)
     |                                               |                |    local_time_type_records[0:10]: 0x12b-0x167 (60)
     |                                               |                |      [0]{}: local_time_type 0x12b-0x131 (6)
0x120|                                 00 00 30 b0   |           ..0. |        utoff: 12464 (valid) 0x12b-0x12f (4)
0x120|                                             00|               .|        dst: 0 (valid) 0x12f-0x130 (1)
0x130|00                                             |.               |        idx: 0 (valid) 0x130-0x131 (1)
     |                                               |                |      [1]{}: local_time_type 0x131-0x137 (6)
0x130|   00 00 2a 30                                 | ..*0           |        utoff: 10800 (valid) 0x131-0x135 (4)
0x130|               00                              |     .          |        dst: 0 (valid) 0x135-0x136 (1)
0x130|                  04                           |      .         |        idx: 4 (valid) 0x136-0x137 (1)
     |                                               |                |      [2]{}: local_time_type 0x137-0x13d (6)
0x130|                     00 00 46 50               |       ..FP     |        utoff: 18000 (valid) 0x137-0x13b (4)
0x130|                                 00            |           .    |        dst: 0 (valid) 0x13b-0x13c (1)
0x130|                                    08         |            .   |        idx: 8 (valid) 0x13c-0x13d (1)
     |                                               |                |      [3]{}: local_time_type 0x13d-0x143 (6)
0x130|                                       00 00 54|             ..T|        utoff: 21600 (valid) 0x13d-0x141 (4)
0x140|60                                             |`               |
0x140|   00                                          | .              |        dst: 0 (valid) 0x141-0x142 (1)
0x140|      0c                                       |  .             |        idx: 12 (valid) 0x142-0x143 (1)
     |                                               |                |      [4]{}: local_time_type 0x143-0x149 (6)
0x140|         00 00 54 60                           |   ..T`         |        utoff: 21600 (valid) 0x143-0x147 (4)
0x140|                     01                        |       .        |        dst: 1 (valid) 0x147-0x148 (1)
0x140|                        0c                     |        .       |        idx: 12 (valid) 0x148-0x149 (1)
     |                                               |                |      [5]{}: local_time_type 0x149-0x14f (6)
0x140|                           00 00 46 50         |         ..FP   |        utoff: 18000 (valid) 0x149-0x14d (4)
0x140|                                       00      |             .  |        dst: 0 (valid) 0x14d-0x14e (1)
0x140|                                          08   |              . |        idx: 8 (valid) 0x14e-0x14f (1)
     |                                               |                |      [6]{}: local_time_type 0x14f-0x155 (6)
0x140|                                             00|               .|        utoff: 21600 (valid) 0x14f-0x153 (4)
0x150|00 54 60                                       |.T`             |
0x150|         01                                    |   .            |        dst: 1 (valid) 0x153-0x154 (1)
0x150|            0c                                 |    .           |        idx: 12 (valid) 0x154-0x155 (1)
     |                                               |                |      [7]{}: local_time_type 0x155-0x15b (6)
0x150|               00 00 46 50                     |     ..FP       |        utoff: 18000 (valid) 0x155-0x159 (4)
0x150|                           01                  |         .      |        dst: 1 (valid) 0x159-0x15a (1)
0x150|                              08               |          .     |        idx: 8 (valid) 0x15a-0x15b (1)
     |                                               |                |      [8]{}: local_time_type 0x15b-0x161 (6)
0x150|                                 00 00 38 40   |           ..8@ |        utoff: 14400 (valid) 0x15b-0x15f (4)
0x150|                                             00|               .|        dst: 0 (valid) 0x15f-0x160 (1)
0x160|10                                             |.               |        idx: 16 (valid) 0x160-0x161 (1)
     |                                               |                |      [9]{}: local_time_type 0x161-0x167 (6)
0x160|   00 00 46 50                                 | ..FP           |        utoff: 18000 (valid) 0x161-0x165 (4)
0x160|               00                              |     .          |        dst: 0 (valid) 0x165-0x166 (1)
0x160|                  08                           |      .         |        idx: 8 (valid) 0x166-0x167 (1)
     |                                               |                |    time_zone_designations[0:5]: 0x167-0x17b (20)
0x160|                     4c 4d 54 00               |       LMT.     |      [0]: "LMT" time_zone_designation 0x167-0x16b (4)
0x160|                                 2b 30 33 00   |           +03. |      [1]: "+03" time_zone_designation 0x16b-0x16f (4)
0x160|                                             2b|               +|      [2]: "+05" time_zone_designation 0x16f-0x173 (4)
0x170|30 35 00                                       |05.             |
0x170|         2b 30 36 00                           |   +06.         |      [3]: "+06" time_zone_designation 0x173-0x177 (4)
0x170|                     2b 30 34 00               |       +04.     |      [4]: "+04" time_zone_designation 0x177-0x17b (4)
     |                                               |                |    leap_second_records[0:27]: 0x17b-0x253 (216)
     |                                               |                |      [0]{}: leap_second_record 0x17b-0x183 (8)
0x170|                                 04 b2 58 00   |           ..X. |        occur: "1972-07-01T00:00:00Z" (78796800) 0x17b-0x17f (4)
0x170|                                             00|               .|        corr: 1 0x17f-0x183 (4)
0x180|00 00 01                                       |...             |
     |                                               |                |      [1]{}: leap_second_record 0x183-0x18b (8)
0x180|         05 a4 ec 01                           |   ....         |        occur: "1973-01-01T00:00:01Z" (94694401) 0x183-0x187 (4)
0x180|                     00 00 00 02               |       ....     |        corr: 2 0x187-0x18b (4)
     |                                               |                |      [2]{}: leap_second_record 0x18b-0x193 (8)
0x180|                                 07 86 1f 82   |           .... |        occur: "1974-01-01T00:00:02Z" (126230402) 0x18b-0x18f (4)
0x180|                                             00|               .|        corr: 3 0x18f-0x193 (4)
0x190|00 00 03                                       |...             |
     |                                               |                |      [3]{}: leap_second_record 0x193-0x19b (8)
0x190|         09 67 53 03                           |   .gS.         |        occur: "1975-01-01T00:00:03Z" (157766403) 0x193-0x197 (4)
0x190|                     00 00 00 04               |       ....     |        corr: 4 0x197-0x19b (4)
     |                                               |                |      [4]{}: leap_second_record 0x19b-0x1a3 (8)
0x190|                                 0b 48 86 84   |           .H.. |        occur: "1976-01-01T00:00:04Z" (189302404) 0x19b-0x19f (4)
0x190|                                             00|               .|        corr: 5 0x19f-0x1a3 (4)
0x1a0|00 00 05                                       |...             |
     |                                               |                |      [5]{}: leap_second_record 0x1a3-0x1ab (8)
0x1a0|         0d 2b 0b 85                           |   .+..         |        occur: "1977-01-01T00:00:05Z" (220924805) 0x1a3-0x1a7 (4)
0x1a0|                     00 00 00 06               |       ....     |        corr: 6 0x1a7-0x1ab (4)
     |                                               |                |      [6]{}: leap_second_record 0x1ab-0x1b3 (8)
0x1a0|                                 0f 0c 3f 06   |           ..?. |        occur: "1978-01-01T00:00:06Z" (252460806) 0x1ab-0x1af (4)
0x1a0|                                             00|               .|        corr: 7 0x1af-0x1b3 (4)
0x1b0|00 00 07                                       |...             |
     |                                               |                |      [7]{}: leap_second_record 0x1b3-0x1bb (8)
0x1b0|         10 ed 72 87                           |   ..r.         |        occur: "1979-01-01T00:00:07Z" (283996807) 0x1b3-0x1b7 (4)
0x1b0|                     00 00 00 08               |       ....     |        corr: 8 0x1b7-0x1bb (4)
     |                                               |                |      [8]{}: leap_second_record 0x1bb-0x1c3 (8)
0x1b0|                                 12 ce a6 08   |           .... |        occur: "1980-01-01T00:00:08Z" (315532808) 0x1bb-0x1bf (4)
0x1b0|                                             00|               .|        corr: 9 0x1bf-0x1c3 (4)
0x1c0|00 00 09                                       |...             |
     |                                               |                |      [9]{}: leap_second_record 0x1c3-0x1cb (8)
0x1c0|         15 9f ca 89                           |   ....         |        occur: "1981-07-01T00:00:09Z" (362793609) 0x1c3-0x1c7 (4)
0x1c0|                     00 00 00 0a               |       ....     |        corr: 10 0x1c7-0x1cb (4)
     |                                               |                |      [10]{}: leap_second_record 0x1cb-0x1d3 (8)
0x1c0|                                 17 80 fe 0a   |           .... |        occur: "1982-07-01T00:00:10Z" (394329610) 0x1cb-0x1cf (4)
0x1c0|                                             00|               .|        corr: 11 0x1cf-0x1d3 (4)
0x1d0|00 00 0b                                       |...             |
     |                                               |                |      [11]{}: leap_second_record 0x1d3-0x1db (8)
0x1d0|         19 62 31 8b                           |   .b1.         |        occur: "1983-07-01T00:00:11Z" (425865611) 0x1d3-0x1d7 (4)
0x1d0|                     00 00 00 0c               |       ....     |        corr: 12 0x1d7-0x1db (4)
     |                                               |                |      [12]{}: leap_second_record 0x1db-0x1e3 (8)
0x1d0|                                 1d 25 ea 0c   |           .%.. |        occur: "1985-07-01T00:00:12Z" (489024012) 0x1db-0x1df (4)
0x1d0|                                             00|               .|        corr: 13 0x1df-0x1e3 (4)
0x1e0|00 00 0d                                       |...             |
     |                                               |                |      [13]{}: leap_second_record 0x1e3-0x1eb (8)
0x1e0|         21 da e5 0d                           |   !...         |        occur: "1988-01-01T00:00:13Z" (567993613) 0x1e3-0x1e7 (4)
0x1e0|                     00 00 00 0e               |       ....     |        corr: 14 0x1e7-0x1eb (4)
     |                                               |                |      [14]{}: leap_second_record 0x1eb-0x1f3 (8)
0x1e0|                                 25 9e 9d 8e   |           %... |        occur: "1990-01-01T00:00:14Z" (631152014) 0x1eb-0x1ef (4)
0x1e0|                                             00|               .|        corr: 15 0x1ef-0x1f3 (4)
0x1f0|00 00 0f                                       |...             |
     |                                               |                |      [15]{}: leap_second_record 0x1f3-0x1fb (8)
0x1f0|         27 7f d1 0f                           |   '...         |        occur: "1991-01-01T00:00:15Z" (662688015) 0x1f3-0x1f7 (4)
0x1f0|                     00 00 00 10               |       ....     |        corr: 16 0x1f7-0x1fb (4)
     |                                               |                |      [16]{}: leap_second_record 0x1fb-0x203 (8)
0x1f0|                                 2a 50 f5 90   |           *P.. |        occur: "1992-07-01T00:00:16Z" (709948816) 0x1fb-0x1ff (4)
0x1f0|                                             00|               .|        corr: 17 0x1ff-0x203 (4)
0x200|00 00 11                                       |...             |
     |                                               |                |      [17]{}: leap_second_record 0x203-0x20b (8)
0x200|         2c 32 29 11                           |   ,2).         |        occur: "1993-07-01T00:00:17Z" (741484817) 0x203-0x207 (4)
0x200|                     00 00 00 12               |       ....     |        corr: 18 0x207-0x20b (4)
     |                                               |                |      [18]{}: leap_second_record 0x20b-0x213 (8)
0x200|                                 2e 13 5c 92   |           ..\. |        occur: "1994-07-01T00:00:18Z" (773020818) 0x20b-0x20f (4)
0x200|                                             00|               .|        corr: 19 0x20f-0x213 (4)
0x210|00 00 13                                       |...             |
     |                                               |                |      [19]{}: leap_second_record 0x213-0x21b (8)
0x210|         30 e7 24 13                           |   0.$.         |        occur: "1996-01-01T00:00:19Z" (820454419) 0x213-0x217 (4)
0x210|                     00 00 00 14               |       ....     |        corr: 20 0x217-0x21b (4)
     |                                               |                |      [20]{}: leap_second_record 0x21b-0x223 (8)
0x210|                                 33 b8 48 94   |           3.H. |        occur: "1997-07-01T00:00:20Z" (867715220) 0x21b-0x21f (4)
0x210|                                             00|               .|        corr: 21 0x21f-0x223 (4)
0x220|00 00 15                                       |...             |
     |                                               |                |      [21]{}: leap_second_record 0x223-0x22b (8)
0x220|         36 8c 10 15                           |   6...         |        occur: "1999-01-01T00:00:21Z" (915148821) 0x223-0x227 (4)
0x220|                     00 00 00 16               |       ....     |        corr: 22 0x227-0x22b (4)
     |                                               |                |      [22]{}: leap_second_record 0x22b-0x233 (8)
0x220|                                 43 b7 1b 96   |           C... |        occur: "2006-01-01T00:00:22Z" (1136073622) 0x22b-0x22f (4)
0x220|                                             00|               .|        corr: 23 0x22f-0x233 (4)
0x230|00 00 17                                       |...             |
     |                                               |                |      [23]{}: leap_second_record 0x233-0x23b (8)
0x230|         49 5c 07 97                           |   I\..         |        occur: "2009-01-01T00:00:23Z" (1230768023) 0x233-0x237 (4)
0x230|                     00 00 00 18               |       ....     |        corr: 24 0x237-0x23b (4)
     |                                               |                |      [24]{}: leap_second_record 0x23b-0x243 (8)
0x230|                                 4f ef 93 18   |           O... |        occur: "2012-07-01T00:00:24Z" (1341100824) 0x23b-0x23f (4)
0x230|                                             00|               .|        corr: 25 0x23f-0x243 (4)
0x240|00 00 19                                       |...             |
     |                                               |                |      [25]{}: leap_second_record 0x243-0x24b (8)
0x240|         55 93 2d 99                           |   U.-.         |        occur: "2015-07-01T00:00:25Z" (1435708825) 0x243-0x247 (4)
0x240|                     00 00 00 1a               |       ....     |        corr: 26 0x247-0x24b (4)
     |                                               |                |      [26]{}: leap_second_record 0x24b-0x253 (8)
0x240|                                 58 68 46 9a   |           XhF. |        occur: "2017-01-01T00:00:26Z" (1483228826) 0x24b-0x24f (4)
0x240|                                             00|               .|        corr: 27 0x24f-0x253 (4)
0x250|00 00 1b                                       |...             |
     |                                               |                |    standard_wall_indicators[0:10]: 0x253-0x25d (10)
0x250|         00                                    |   .            |      [0]: 0 standard_wall_indicator (valid) 0x253-0x254 (1)
0x250|            00                                 |    .           |      [1]: 0 standard_wall_indicator (valid) 0x254-0x255 (1)
0x250|               00                              |     .          |      [2]: 0 standard_wall_indicator (valid) 0x255-0x256 (1)
0x250|                  00                           |      .         |      [3]: 0 standard_wall_indicator (valid) 0x256-0x257 (1)
0x250|                     00                        |       .        |      [4]: 0 standard_wall_indicator (valid) 0x257-0x258 (1)
0x250|                        01                     |        .       |      [5]: 1 standard_wall_indicator (valid) 0x258-0x259 (1)
0x250|                           01                  |         .      |      [6]: 1 standard_wall_indicator (valid) 0x259-0x25a (1)
0x250|                              01               |          .     |      [7]: 1 standard_wall_indicator (valid) 0x25a-0x25b (1)
0x250|                                 01            |           .    |      [8]: 1 standard_wall_indicator (valid) 0x25b-0x25c (1)
0x250|                                    01         |            .   |      [9]: 1 standard_wall_indicator (valid) 0x25c-0x25d (1)
     |                                               |                |    ut_local_indicators[0:0]: 0x25d-0x25d (0)
     |                                               |                |  v2plusheader{}: 0x25d-0x289 (44)
0x250|                                       54 5a 69|             TZi|    magic: 0x545a6966 (valid) 0x25d-0x261 (4)
0x260|66                                             |f               |
0x260|   32                                          | 2              |    ver: "2" (0x32) (valid) 0x261-0x262 (1)
0x260|      00 00 00 00 00 00 00 00 00 00 00 00 00 00|  ..............|    reserved: raw bits 0x262-0x271 (15)
0x270|00                                             |.               |
0x270|   00 00 00 00                                 | ....           |    isutcnt: 0 0x271-0x275 (4)
0x270|               00 00 00 0a                     |     ....       |    isstdcnt: 10 0x275-0x279 (4)
0x270|                           00 00 00 1b         |         ....   |    leapcnt: 27 0x279-0x27d (4)
0x270|                                       00 00 00|             ...|    timecnt: 51 0x27d-0x281 (4)
0x280|33                                             |3               |
0x280|   00 00 00 0a                                 | ....           |    typecnt: 10 0x281-0x285 (4)
0x280|               00 00 00 14                     |     ....       |    charcnt: 20 0x285-0x289 (4)
     |                                               |                |  v2plusdatablock{}: 0x289-0x5f2 (873)
     |                                               |                |    transition_times[0:51]: 0x289-0x421 (408)
0x280|                           ff ff ff ff aa 19 93|         .......|      [0]: "1924-05-01T20:32:16Z" (-1441164464) transition_time 0x289-0x291 (8)
0x290|50                                             |P               |
0x290|   ff ff ff ff b5 a4 0b 50                     | .......P       |      [1]: "1930-06-20T21:00:00Z" (-1247540400) transition_time 0x291-0x299 (8)
0x290|                           00 00 00 00 16 18 ce|         .......|      [2]: "1981-09-30T19:00:10Z" (370724410) transition_time 0x299-0x2a1 (8)
0x2a0|3a                                             |:               |
0x2a0|   00 00 00 00 17 08 b1 2a                     | .......*       |      [3]: "1982-03-31T18:00:10Z" (386445610) transition_time 0x2a1-0x2a9 (8)
0x2a0|                           00 00 00 00 17 f9 f3|         .......|      [4]: "1982-09-30T18:00:11Z" (402256811) transition_time 0x2a9-0x2b1 (8)
0x2b0|ab                                             |.               |
0x2b0|   00 00 00 00 18 e9 f2 bb                     | ........       |      [5]: "1983-03-31T19:00:11Z" (417985211) transition_time 0x2b1-0x2b9 (8)
0x2b0|                           00 00 00 00 19 db 27|         ......'|      [6]: "1983-09-30T18:00:12Z" (433792812) transition_time 0x2b9-0x2c1 (8)
0x2c0|2c                                             |,               |
0x2c0|   00 00 00 00 1a cc 77 bc                     | ......w.       |      [7]: "1984-03-31T19:00:12Z" (449607612) transition_time 0x2c1-0x2c9 (8)
0x2c0|                           00 00 00 00 1b bc 84|         .......|      [8]: "1984-09-29T21:00:12Z" (465339612) transition_time 0x2c9-0x2d1 (8)
0x2d0|dc                                             |.               |
0x2d0|   00 00 00 00 1c ac 75 dc                     | ......u.       |      [9]: "1985-03-30T21:00:12Z" (481064412) transition_time 0x2d1-0x2d9 (8)
0x2d0|                           00 00 00 00 1d 9c 66|         ......f|      [10]: "1985-09-28T21:00:13Z" (496789213) transition_time 0x2d9-0x2e1 (8)
0x2e0|dd                                             |.               |
0x2e0|   00 00 00 00 1e 8c 57 dd                     | ......W.       |      [11]: "1986-03-29T21:00:13Z" (512514013) transition_time 0x2e1-0x2e9 (8)
0x2e0|                           00 00 00 00 1f 7c 48|         .....|H|      [12]: "1986-09-27T21:00:13Z" (528238813) transition_time 0x2e9-0x2f1 (8)
0x2f0|dd                                             |.               |
0x2f0|   00 00 00 00 20 6c 39 dd                     | .... l9.       |      [13]: "1987-03-28T21:00:13Z" (543963613) transition_time 0x2f1-0x2f9 (8)
0x2f0|                           00 00 00 00 21 5c 2a|         ....!\*|      [14]: "1987-09-26T21:00:13Z" (559688413) transition_time 0x2f9-0x301 (8)
0x300|dd                                             |.               |
0x300|   00 00 00 00 22 4c 1b de                     | ...."L..       |      [15]: "1988-03-26T21:00:14Z" (575413214) transition_time 0x301-0x309 (8)
0x300|                           00 00 00 00 23 3c 0c|         ....#<.|      [16]: "1988-09-24T21:00:14Z" (591138014) transition_time 0x309-0x311 (8)
0x310|de                                             |.               |
0x310|   00 00 00 00 24 2b fd de                     | ....$+..       |      [17]: "1989-03-25T21:00:14Z" (606862814) transition_time 0x311-0x319 (8)
0x310|                           00 00 00 00 25 1b ee|         ....%..|      [18]: "1989-09-23T21:00:14Z" (622587614) transition_time 0x319-0x321 (8)
0x320|de                                             |.               |
0x320|   00 00 00 00 26 0b df df                     | ....&...       |      [19]: "1990-03-24T21:00:15Z" (638312415) transition_time 0x321-0x329 (8)
0x320|                           00 00 00 00 27 05 0b|         ....'..|      [20]: "1990-09-29T21:00:15Z" (654642015) transition_time 0x329-0x331 (8)
0x330|5f                                             |_               |
0x330|   00 00 00 00 27 f4 fc 60                     | ....'..`       |      [21]: "1991-03-30T21:00:16Z" (670366816) transition_time 0x331-0x339 (8)
0x330|                           00 00 00 00 28 e4 fb|         ....(..|      [22]: "1991-09-28T22:00:16Z" (686095216) transition_time 0x339-0x341 (8)
0x340|70                                             |p               |
0x340|   00 00 00 00 29 78 a3 70                     | ....)x.p       |      [23]: "1992-01-18T22:00:16Z" (695772016) transition_time 0x341-0x349 (8)
0x340|                           00 00 00 00 29 d4 de|         ....)..|      [24]: "1992-03-28T21:00:16Z" (701816416) transition_time 0x349-0x351 (8)
0x350|60                                             |`               |
0x350|   00 00 00 00 2a c4 cf 61                     | ....*..a       |      [25]: "1992-09-26T21:00:17Z" (717541217) transition_time 0x351-0x359 (8)
0x350|                           00 00 00 00 2b b4 c0|         ....+..|      [26]: "1993-03-27T21:00:17Z" (733266017) transition_time 0x359-0x361 (8)
0x360|61                                             |a               |
0x360|   00 00 00 00 2c a4 b1 62                     | ....,..b       |      [27]: "1993-09-25T21:00:18Z" (748990818) transition_time 0x361-0x369 (8)
0x360|                           00 00 00 00 2d 94 a2|         ....-..|      [28]: "1994-03-26T21:00:18Z" (764715618) transition_time 0x369-0x371 (8)
0x370|62                                             |b               |
0x370|   00 00 00 00 2e 84 93 63                     | .......c       |      [29]: "1994-09-24T21:00:19Z" (780440419) transition_time 0x371-0x379 (8)
0x370|                           00 00 00 00 2f 74 84|         ..../t.|      [30]: "1995-03-25T21:00:19Z" (796165219) transition_time 0x379-0x381 (8)
0x380|63                                             |c               |
0x380|   00 00 00 00 30 64 75 63                     | ....0duc       |      [31]: "1995-09-23T21:00:19Z" (811890019) transition_time 0x381-0x389 (8)
0x380|                           00 00 00 00 31 5d a0|         ....1].|      [32]: "1996-03-30T21:00:20Z" (828219620) transition_time 0x389-0x391 (8)
0x390|e4                                             |.               |
0x390|   00 00 00 00 32 72 7b e4                     | ....2r{.       |      [33]: "1996-10-26T21:00:20Z" (846363620) transition_time 0x391-0x399 (8)
0x390|                           00 00 00 00 33 3d 82|         ....3=.|      [34]: "1997-03-29T21:00:20Z" (859669220) transition_time 0x399-0x3a1 (8)
0x3a0|e4                                             |.               |
0x3a0|   00 00 00 00 34 52 5d e5                     | ....4R].       |      [35]: "1997-10-25T21:00:21Z" (877813221) transition_time 0x3a1-0x3a9 (8)
0x3a0|                           00 00 00 00 35 1d 64|         ....5.d|      [36]: "1998-03-28T21:00:21Z" (891118821) transition_time 0x3a9-0x3b1 (8)
0x3b0|e5                                             |.               |
0x3b0|   00 00 00 00 36 32 3f e5                     | ....62?.       |      [37]: "1998-10-24T21:00:21Z" (909262821) transition_time 0x3b1-0x3b9 (8)
0x3b0|                           00 00 00 00 36 fd 46|         ....6.F|      [38]: "1999-03-27T21:00:22Z" (922568422) transition_time 0x3b9-0x3c1 (8)
0x3c0|e6                                             |.               |
0x3c0|   00 00 00 00 38 1b 6a 76                     | ....8.jv       |      [39]: "1999-10-30T22:00:22Z" (941320822) transition_time 0x3c1-0x3c9 (8)
0x3c0|                           00 00 00 00 38 dd 36|         ....8.6|      [40]: "2000-03-25T22:00:22Z" (954021622) transition_time 0x3c9-0x3d1 (8)
0x3d0|f6                                             |.               |
0x3d0|   00 00 00 00 39 fb 4c 76                     | ....9.Lv       |      [41]: "2000-10-28T22:00:22Z" (972770422) transition_time 0x3d1-0x3d9 (8)
0x3d0|                           00 00 00 00 3a bd 18|         ....:..|      [42]: "2001-03-24T22:00:22Z" (985471222) transition_time 0x3d9-0x3e1 (8)
0x3e0|f6                                             |.               |
0x3e0|   00 00 00 00 3b db 2e 76                     | ....;..v       |      [43]: "2001-10-27T22:00:22Z" (1004220022) transition_time 0x3e1-0x3e9 (8)
0x3e0|                           00 00 00 00 3c a6 35|         ....<.5|      [44]: "2002-03-30T22:00:22Z" (1017525622) transition_time 0x3e9-0x3f1 (8)
0x3f0|76                                             |v               |
0x3f0|   00 00 00 00 3d bb 10 76                     | ....=..v       |      [45]: "2002-10-26T22:00:22Z" (1035669622) transition_time 0x3f1-0x3f9 (8)
0x3f0|                           00 00 00 00 3e 86 17|         ....>..|      [46]: "2003-03-29T22:00:22Z" (1048975222) transition_time 0x3f9-0x401 (8)
0x400|76                                             |v               |
0x400|   00 00 00 00 3f 9a f2 76                     | ....?..v       |      [47]: "2003-10-25T22:00:22Z" (1067119222) transition_time 0x401-0x409 (8)
0x400|                           00 00 00 00 40 65 f9|         ....@e.|      [48]: "2004-03-27T22:00:22Z" (1080424822) transition_time 0x409-0x411 (8)
0x410|76                                             |v               |
0x410|   00 00 00 00 41 84 0e f6                     | ....A...       |      [49]: "2004-10-30T22:00:22Z" (1099173622) transition_time 0x411-0x419 (8)
0x410|                           00 00 00 00 64 9b 78|         ....d.x|      [50]: "2023-06-28T00:00:27Z" (1687910427) transition_time 0x419-0x421 (8)
0x420|1b                                             |.               |
     |                                               |                |    transition_types[0:51]: 0x421-0x454 (51)
0x420|   01                                          | .              |      [0]: 1 transition_type 0x421-0x422 (1)
0x420|      02                                       |  .             |      [1]: 2 transition_type 0x422-0x423 (1)
0x420|         03                                    |   .            |      [2]: 3 transition_type 0x423-0x424 (1)
0x420|            04                                 |    .           |      [3]: 4 transition_type 0x424-0x425 (1)
0x420|               02                              |     .          |      [4]: 2 transition_type 0x425-0x426 (1)
0x420|                  04                           |      .         |      [5]: 4 transition_type 0x426-0x427 (1)
0x420|                     02                        |       .        |      [6]: 2 transition_type 0x427-0x428 (1)
0x420|                        04                     |        .       |      [7]: 4 transition_type 0x428-0x429 (1)
0x420|                           05                  |         .      |      [8]: 5 transition_type 0x429-0x42a (1)
0x420|                              06               |          .     |      [9]: 6 transition_type 0x42a-0x42b (1)
0x420|                                 05            |           .    |      [10]: 5 transition_type 0x42b-0x42c (1)
0x420|                                    06         |            .   |      [11]: 6 transition_type 0x42c-0x42d (1)
0x420|                                       05      |             .  |      [12]: 5 transition_type 0x42d-0x42e (1)
0x420|                                          06   |              . |      [13]: 6 transition_type 0x42e-0x42f (1)
0x420|                                             05|               .|      [14]: 5 transition_type 0x42f-0x430 (1)
0x430|06                                             |.               |      [15]: 6 transition_type 0x430-0x431 (1)
0x430|   05                                          | .              |      [16]: 5 transition_type 0x431-0x432 (1)
0x430|      06                                       |  .             |      [17]: 6 transition_type 0x432-0x433 (1)
0x430|         05                                    |   .            |      [18]: 5 transition_type 0x433-0x434 (1)
0x430|            06                                 |    .           |      [19]: 6 transition_type 0x434-0x435 (1)
0x430|               05                              |     .          |      [20]: 5 transition_type 0x435-0x436 (1)
0x430|                  07                           |      .         |      [21]: 7 transition_type 0x436-0x437 (1)
0x430|                     08                        |       .        |      [22]: 8 transition_type 0x437-0x438 (1)
0x430|                        05                     |        .       |      [23]: 5 transition_type 0x438-0x439 (1)
0x430|                           06                  |         .      |      [24]: 6 transition_type 0x439-0x43a (1)
0x430|                              05               |          .     |      [25]: 5 transition_type 0x43a-0x43b (1)
0x430|                                 06            |           .    |      [26]: 6 transition_type 0x43b-0x43c (1)
0x430|                                    05         |            .   |      [27]: 5 transition_type 0x43c-0x43d (1)
0x430|                                       06      |             .  |      [28]: 6 transition_type 0x43d-0x43e (1)
0x430|                                          05   |              . |      [29]: 5 transition_type 0x43e-0x43f (1)
0x430|                                             06|               .|      [30]: 6 transition_type 0x43f-0x440 (1)
0x440|05                                             |.               |      [31]: 5 transition_type 0x440-0x441 (1)
0x440|   06                                          | .              |      [32]: 6 transition_type 0x441-0x442 (1)
0x440|      05                                       |  .             |      [33]: 5 transition_type 0x442-0x443 (1)
0x440|         06                                    |   .            |      [34]: 6 transition_type 0x443-0x444 (1)
0x440|            05                                 |    .           |      [35]: 5 transition_type 0x444-0x445 (1)
0x440|               06                              |     .          |      [36]: 6 transition_type 0x445-0x446 (1)
0x440|                  05                           |      .         |      [37]: 5 transition_type 0x446-0x447 (1)
0x440|                     07                        |       .        |      [38]: 7 transition_type 0x447-0x448 (1)
0x440|                        08                     |        .       |      [39]: 8 transition_type 0x448-0x449 (1)
0x440|                           07                  |         .      |      [40]: 7 transition_type 0x449-0x44a (1)
0x440|                              08               |          .     |      [41]: 8 transition_type 0x44a-0x44b (1)
0x440|                                 07            |           .    |      [42]: 7 transition_type 0x44b-0x44c (1)
0x440|                                    08         |            .   |      [43]: 8 transition_type 0x44c-0x44d (1)
0x440|                                       07      |             .  |      [44]: 7 transition_type 0x44d-0x44e (1)
0x440|                                          08   |              . |      [45]: 8 transition_type 0x44e-0x44f (1)
0x440|                                             07|               .|      [46]: 7 transition_type 0x44f-0x450 (1)
0x450|08                                             |.               |      [47]: 8 transition_type 0x450-0x451 (1)
0x450|   07                                          | .              |      [48]: 7 transition_type 0x451-0x452 (1)
0x450|      05                                       |  .             |      [49]: 5 transition_type 0x452-0x453 (1)
0x450|         05                                    |   .            |      [50]: 5 transition_type 0x453-0x454 (1)
     |                                               |                |    local_time_type_records[0:10]: 0x454-0x490 (60)
     |                                               |                |      [0]{}: local_time_type 0x454-0x45a (6)
0x450|            00 00 30 b0                        |    ..0.        |        utoff: 12464 (valid) 0x454-0x458 (4)
0x450|                        00                     |        .       |        dst: 0 (valid) 0x458-0x459 (1)
0x450|                           00                  |         .      |        idx: 0 (valid) 0x459-0x45a (1)
     |                                               |                |      [1]{}: local_time_type 0x45a-0x460 (6)
0x450|                              00 00 2a 30      |          ..*0  |        utoff: 10800 (valid) 0x45a-0x45e (4)
0x450|                                          00   |              . |        dst: 0 (valid) 0x45e-0x45f (1)
0x450|                                             04|               .|        idx: 4 (valid) 0x45f-0x460 (1)
     |                                               |                |      [2]{}: local_time_type 0x460-0x466 (6)
0x460|00 00 46 50                                    |..FP            |        utoff: 18000 (valid) 0x460-0x464 (4)
0x460|            00                                 |    .           |        dst: 0 (valid) 0x464-0x465 (1)
0x460|               08                              |     .          |        idx: 8 (valid) 0x465-0x466 (1)
     |                                               |                |      [3]{}: local_time_type 0x466-0x46c (6)
0x460|                  00 00 54 60                  |      ..T`      |        utoff: 21600 (valid) 0x466-0x46a (4)
0x460|                              00               |          .     |        dst: 0 (valid) 0x46a-0x46b (1)
0x460|                                 0c            |           .    |        idx: 12 (valid) 0x46b-0x46c (1)
     |                                               |                |      [4]{}: local_time_type 0x46c-0x472 (6)
0x460|                                    00 00 54 60|            ..T`|        utoff: 21600 (valid) 0x46c-0x470 (4)
0x470|01                                             |.               |        dst: 1 (valid) 0x470-0x471 (1)
0x470|   0c                                          | .              |        idx: 12 (valid) 0x471-0x472 (1)
     |                                               |                |      [5]{}: local_time_type 0x472-0x478 (6)
0x470|      00 00 46 50                              |  ..FP          |        utoff: 18000 (valid) 0x472-0x476 (4)
0x470|                  00                           |      .         |        dst: 0 (valid) 0x476-0x477 (1)
0x470|                     08                        |       .        |        idx: 8 (valid) 0x477-0x478 (1)
     |                                               |                |      [6]{}: local_time_type 0x478-0x47e (6)
0x470|                        00 00 54 60            |        ..T`    |        utoff: 21600 (valid) 0x478-0x47c (4)
0x470|                                    01         |            .   |        dst: 1 (valid) 0x47c-0x47d (1)
0x470|                                       0c      |             .  |        idx: 12 (valid) 0x47d-0x47e (1)
     |                                               |                |      [7]{}: local_time_type 0x47e-0x484 (6)
0x470|                                          00 00|              ..|        utoff: 18000 (valid) 0x47e-0x482 (4)
0x480|46 50                                          |FP              |
0x480|      01                                       |  .             |        dst: 1 (valid) 0x482-0x483 (1)
0x480|         08                                    |   .            |        idx: 8 (valid) 0x483-0x484 (1)
     |                                               |                |      [8]{}: local_time_type 0x484-0x48a (6)
0x480|            00 00 38 40                        |    ..8@        |        utoff: 14400 (valid) 0x484-0x488 (4)
0x480|                        00                     |        .       |        dst: 0 (valid) 0x488-0x489 (1)
0x480|                           10                  |         .      |        idx: 16 (valid) 0x489-0x48a (1)
     |                                               |                |      [9]{}: local_time_type 0x48a-0x490 (6)
0x480|                              00 00 46 50      |          ..FP  |        utoff: 18000 (valid) 0x48a-0x48e (4)
0x480|                                          00   |              . |        dst: 0 (valid) 0x48e-0x48f (1)
0x480|                                             08|               .|        idx: 8 (valid) 0x48f-0x490 (1)
     |                                               |                |    time_zone_designations[0:5]: 0x490-0x4a4 (20)
0x490|4c 4d 54 00                                    |LMT.            |      [0]: "LMT" time_zone_designation 0x490-0x494 (4)
0x490|            2b 30 33 00                        |    +03.        |      [1]: "+03" time_zone_designation 0x494-0x498 (4)
0x490|                        2b 30 35 00            |        +05.    |      [2]: "+05" time_zone_designation 0x498-0x49c (4)
0x490|                                    2b 30 36 00|            +06.|      [3]: "+06" time_zone_designation 0x49c-0x4a0 (4)
0x4a0|2b 30 34 00                                    |+04.            |      [4]: "+04" time_zone_designation 0x4a0-0x4a4 (4)
     |                                               |                |    leap_second_records[0:27]: 0x4a4-0x5e8 (324)
     |                                               |                |      [0]{}: leap_second_record 0x4a4-0x4b0 (12)
0x4a0|            00 00 00 00 04 b2 58 00            |    ......X.    |        occur: "1972-07-01T00:00:00Z" (78796800) 0x4a4-0x4ac (8)
0x4a0|                                    00 00 00 01|            ....|        corr: 1 0x4ac-0x4b0 (4)
     |                                               |                |      [1]{}: leap_second_record 0x4b0-0x4bc (12)
0x4b0|00 00 00 00 05 a4 ec 01                        |........        |        occur: "1973-01-01T00:00:01Z" (94694401) 0x4b0-0x4b8 (8)
0x4b0|                        00 00 00 02            |        ....    |        corr: 2 0x4b8-0x4bc (4)
     |                                               |                |      [2]{}: leap_second_record 0x4bc-0x4c8 (12)
0x4b0|                                    00 00 00 00|            ....|        occur: "1974-01-01T00:00:02Z" (126230402) 0x4bc-0x4c4 (8)
0x4c0|07 86 1f 82                                    |....            |
0x4c0|            00 00 00 03                        |    ....        |        corr: 3 0x4c4-0x4c8 (4)
     |                                               |                |      [3]{}: leap_second_record 0x4c8-0x4d4 (12)
0x4c0|                        00 00 00 00 09 67 53 03|        .....gS.|        occur: "1975-01-01T00:00:03Z" (157766403) 0x4c8-0x4d0 (8)
0x4d0|00 00 00 04                                    |....            |        corr: 4 0x4d0-0x4d4 (4)
     |                                               |                |      [4]{}: leap_second_record 0x4d4-0x4e0 (12)
0x4d0|            00 00 00 00 0b 48 86 84            |    .....H..    |        occur: "1976-01-01T00:00:04Z" (189302404) 0x4d4-0x4dc (8)
0x4d0|                                    00 00 00 05|            ....|        corr: 5 0x4dc-0x4e0 (4)
     |                                               |                |      [5]{}: leap_second_record 0x4e0-0x4ec (12)
0x4e0|00 00 00 00 0d 2b 0b 85                        |.....+..        |        occur: "1977-01-01T00:00:05Z" (220924805) 0x4e0-0x4e8 (8)
0x4e0|                        00 00 00 06            |        ....    |        corr: 6 0x4e8-0x4ec (4)
     |                                               |                |      [6]{}: leap_second_record 0x4ec-0x4f8 (12)
0x4e0|                                    00 00 00 00|            ....|        occur: "1978-01-01T00:00:06Z" (252460806) 0x4ec-0x4f4 (8)
0x4f0|0f 0c 3f 06                                    |..?.            |
0x4f0|            00 00 00 07                        |    ....        |        corr: 7 0x4f4-0x4f8 (4)
     |                                               |                |      [7]{}: leap_second_record 0x4f8-0x504 (12)
0x4f0|                        00 00 00 00 10 ed 72 87|        ......r.|        occur: "1979-01-01T00:00:07Z" (283996807) 0x4f8-0x500 (8)
0x500|00 00 00 08                                    |....            |        corr: 8 0x500-0x504 (4)
     |                                               |                |      [8]{}: leap_second_record 0x504-0x510 (12)
0x500|            00 00 00 00 12 ce a6 08            |    ........    |        occur: "1980-01-01T00:00:08Z" (315532808) 0x504-0x50c (8)
0x500|                                    00 00 00 09|            ....|        corr: 9 0x50c-0x510 (4)
     |                                               |                |      [9]{}: leap_second_record 0x510-0x51c (12)
0x510|00 00 00 00 15 9f ca 89                        |........        |        occur: "1981-07-01T00:00:09Z" (362793609) 0x510-0x518 (8)
0x510|                        00 00 00 0a            |        ....    |        corr: 10 0x518-0x51c (4)
     |                                               |                |      [10]{}: leap_second_record 0x51c-0x528 (12)
0x510|                                    00 00 00 00|            ....|        occur: "1982-07-01T00:00:10Z" (394329610) 0x51c-0x524 (8)
0x520|17 80 fe 0a                                    |....            |
0x520|            00 00 00 0b                        |    ....        |        corr: 11 0x524-0x528 (4)
     |                                               |                |      [11]{}: leap_second_record 0x528-0x534 (12)
0x520|                        00 00 00 00 19 62 31 8b|        .....b1.|        occur: "1983-07-01T00:00:11Z" (425865611) 0x528-0x530 (8)
0x530|00 00 00 0c                                    |....            |        corr: 12 0x530-0x534 (4)
     |                                               |                |      [12]{}: leap_second_record 0x534-0x540 (12)
0x530|            00 00 00 00 1d 25 ea 0c            |    .....%..    |        occur: "1985-07-01T00:00:12Z" (489024012) 0x534-0x53c (8)
0x530|                                    00 00 00 0d|            ....|        corr: 13 0x53c-0x540 (4)
     |                                               |                |      [13]{}: leap_second_record 0x540-0x54c (12)
0x540|00 00 00 00 21 da e5 0d                        |....!...        |        occur: "1988-01-01T00:00:13Z" (567993613) 0x540-0x548 (8)
0x540|                        00 00 00 0e            |        ....    |        corr: 14 0x548-0x54c (4)
     |                                               |                |      [14]{}: leap_second_record 0x54c-0x558 (12)
0x540|                                    00 00 00 00|            ....|        occur: "1990-01-01T00:00:14Z" (631152014) 0x54c-0x554 (8)
0x550|25 9e 9d 8e                                    |%...            |
0x550|            00 00 00 0f                        |    ....        |        corr: 15 0x554-0x558 (4)
     |                                               |                |      [15]{}: leap_second_record 0x558-0x564 (12)
0x550|                        00 00 00 00 27 7f d1 0f|        ....'...|        occur: "1991-01-01T00:00:15Z" (662688015) 0x558-0x560 (8)
0x560|00 00 00 10                                    |....            |        corr: 16 0x560-0x564 (4)
     |                                               |                |      [16]{}: leap_second_record 0x564-0x570 (12)
0x560|            00 00 00 00 2a 50 f5 90            |    ....*P..    |        occur: "1992-07-01T00:00:16Z" (709948816) 0x564-0x56c (8)
0x560|                                    00 00 00 11|            ....|        corr: 17 0x56c-0x570 (4)
     |                                               |                |      [17]{}: leap_second_record 0x570-0x57c (12)
0x570|00 00 00 00 2c 32 29 11                        |....,2).        |        occur: "1993-07-01T00:00:17Z" (741484817) 0x570-0x578 (8)
0x570|                        00 00 00 12            |        ....    |        corr: 18 0x578-0x57c (4)
     |                                               |                |      [18]{}: leap_second_record 0x57c-0x588 (12)
0x570|                                    00 00 00 00|            ....|        occur: "1994-07-01T00:00:18Z" (773020818) 0x57c-0x584 (8)
0x580|2e 13 5c 92                                    |..\.            |
0x580|            00 00 00 13                        |    ....        |        corr: 19 0x584-0x588 (4)
     |                                               |                |      [19]{}: leap_second_record 0x588-0x594 (12)
0x580|                        00 00 00 00 30 e7 24 13|        ....0.$.|        occur: "1996-01-01T00:00:19Z" (820454419) 0x588-0x590 (8)
0x590|00 00 00 14                                    |....            |        corr: 20 0x590-0x594 (4)
     |                                               |                |      [20]{}: leap_second_record 0x594-0x5a0 (12)
0x590|            00 00 00 00 33 b8 48 94            |    ....3.H.    |        occur: "1997-07-01T00:00:20Z" (867715220) 0x594-0x59c (8)
0x590|                                    00 00 00 15|            ....|        corr: 21 0x59c-0x5a0 (4)
     |                                               |                |      [21]{}: leap_second_record 0x5a0-0x5ac (12)
0x5a0|00 00 00 00 36 8c 10 15                        |....6...        |        occur: "1999-01-01T00:00:21Z" (915148821) 0x5a0-0x5a8 (8)
0x5a0|                        00 00 00 16            |        ....    |        corr: 22 0x5a8-0x5ac (4)
     |                                               |                |      [22]{}: leap_second_record 0x5ac-0x5b8 (12)
0x5a0|                                    00 00 00 00|            ....|        occur: "2006-01-01T00:00:22Z" (1136073622) 0x5ac-0x5b4 (8)
0x5b0|43 b7 1b 96                                    |C...            |
0x5b0|            00 00 00 17                        |    ....        |        corr: 23 0x5b4-0x5b8 (4)
     |                                               |                |      [23]{}: leap_second_record 0x5b8-0x5c4 (12)
0x5b0|                        00 00 00 00 49 5c 07 97|        ....I\..|        occur: "2009-01-01T00:00:23Z" (1230768023) 0x5b8-0x5c0 (8)
0x5c0|00 00 00 18                                    |....            |        corr: 24 0x5c0-0x5c4 (4)
     |                                               |                |      [24]{}: leap_second_record 0x5c4-0x5d0 (12)
0x5c0|            00 00 00 00 4f ef 93 18            |    ....O...    |        occur: "2012-07-01T00:00:24Z" (1341100824) 0x5c4-0x5cc (8)
0x5c0|                                    00 00 00 19|            ....|        corr: 25 0x5cc-0x5d0 (4)
     |                                               |                |      [25]{}: leap_second_record 0x5d0-0x5dc (12)
0x5d0|00 00 00 00 55 93 2d 99                        |....U.-.        |        occur: "2015-07-01T00:00:25Z" (1435708825) 0x5d0-0x5d8 (8)
0x5d0|                        00 00 00 1a            |        ....    |        corr: 26 0x5d8-0x5dc (4)
     |                                               |                |      [26]{}: leap_second_record 0x5dc-0x5e8 (12)
0x5d0|                                    00 00 00 00|            ....|        occur: "2017-01-01T00:00:26Z" (1483228826) 0x5dc-0x5e4 (8)
0x5e0|58 68 46 9a                                    |XhF.            |
0x5e0|            00 00 00 1b                        |    ....        |        corr: 27 0x5e4-0x5e8 (4)
     |                                               |                |    standard_wall_indicators[0:10]: 0x5e8-0x5f2 (10)
0x5e0|                        00                     |        .       |      [0]: 0 standard_wall_indicator (valid) 0x5e8-0x5e9 (1)
0x5e0|                           00                  |         .      |      [1]: 0 standard_wall_indicator (valid) 0x5e9-0x5ea (1)
0x5e0|                              00               |          .     |      [2]: 0 standard_wall_indicator (valid) 0x5ea-0x5eb (1)
0x5e0|                                 00            |           .    |      [3]: 0 standard_wall_indicator (valid) 0x5eb-0x5ec (1)
0x5e0|                                    00         |            .   |      [4]: 0 standard_wall_indicator (valid) 0x5ec-0x5ed (1)
0x5e0|                                       01      |             .  |      [5]: 1 standard_wall_indicator (valid) 0x5ed-0x5ee (1)
0x5e0|                                          01   |              . |      [6]: 1 standard_wall_indicator (valid) 0x5ee-0x5ef (1)
0x5e0|                                             01|               .|      [7]: 1 standard_wall_indicator (valid) 0x5ef-0x5f0 (1)
0x5f0|01                                             |.               |      [8]: 1 standard_wall_indicator (valid) 0x5f0-0x5f1 (1)
0x5f0|   01                                          | .              |      [9]: 1 standard_wall_indicator (valid) 0x5f1-0x5f2 (1)
     |                                               |                |    ut_local_indicators[0:0]: 0x5f2-0x5f2 (0)
     |                                               |                |  footer{}: 0x5f2-0x5f4 (2)
0x5f0|      0a                                       |  .             |    nl1: 10 (valid) 0x5f2-0x5f3 (1)
     |                                               |                |    tz_string: "" 0x5f3-0x5f3 (0)
0x5f0|         0a|                                   |   .|           |    nl2: 10 (valid) 0x5f3-0x5f4 (1)
