$ fq -d tzif dv Auckland
     |00 01 02 03 04 05 06 07 08 09 0a 0b 0c 0d 0e 0f|0123456789abcdef|.{}: Auckland (tzif) 0x0-0x985 (2437)
     |                                               |                |  v1header{}: 0x0-0x2c (44)
0x000|54 5a 69 66                                    |TZif            |    magic: 0x545a6966 (valid) 0x0-0x4 (4)
0x000|            32                                 |    2           |    ver: "2" (0x32) (valid) 0x4-0x5 (1)
0x000|               00 00 00 00 00 00 00 00 00 00 00|     ...........|    reserved: raw bits 0x5-0x14 (15)
0x010|00 00 00 00                                    |....            |
0x010|            00 00 00 00                        |    ....        |    isutcnt: 0 0x14-0x18 (4)
0x010|                        00 00 00 07            |        ....    |    isstdcnt: 7 0x18-0x1c (4)
0x010|                                    00 00 00 00|            ....|    leapcnt: 0 0x1c-0x20 (4)
0x020|00 00 00 9c                                    |....            |    timecnt: 156 0x20-0x24 (4)
0x020|            00 00 00 07                        |    ....        |    typecnt: 7 0x24-0x28 (4)
0x020|                        00 00 00 13            |        ....    |    charcnt: 19 0x28-0x2c (4)
     |                                               |                |  v1datablock{}: 0x2c-0x37c (848)
     |                                               |                |    transition_times[0:156]: 0x2c-0x29c (624)
0x020|                                    80 00 00 00|            ....|      [0]: "1901-12-13T20:45:52Z" (-2147483648) transition_time 0x2c-0x30 (4)
0x030|b0 b4 b2 e8                                    |....            |      [1]: "1927-11-05T14:30:00Z" (-1330335000) transition_time 0x30-0x34 (4)
0x030|            b1 51 87 58                        |    .Q.X        |      [2]: "1928-03-03T13:30:00Z" (-1320057000) transition_time 0x34-0x38 (4)
0x030|                        b2 78 e5 68            |        .x.h    |      [3]: "1928-10-13T14:30:00Z" (-1300699800) transition_time 0x38-0x3c (4)
0x030|                                    b3 43 e5 60|            .C.`|      [4]: "1929-03-16T14:00:00Z" (-1287396000) transition_time 0x3c-0x40 (4)
0x040|b4 58 c7 68                                    |.X.h            |      [5]: "1929-10-12T14:30:00Z" (-1269250200) transition_time 0x40-0x44 (4)
0x040|            b5 23 c7 60                        |    .#.`        |      [6]: "1930-03-15T14:00:00Z" (-1255946400) transition_time 0x44-0x48 (4)
0x040|                        b6 38 a9 68            |        .8.h    |      [7]: "1930-10-11T14:30:00Z" (-1237800600) transition_time 0x48-0x4c (4)
0x040|                                    b7 03 a9 60|            ...`|      [8]: "1931-03-14T14:00:00Z" (-1224496800) transition_time 0x4c-0x50 (4)
0x050|b8 18 8b 68                                    |...h            |      [9]: "1931-10-10T14:30:00Z" (-1206351000) transition_time 0x50-0x54 (4)
0x050|            b8 ec c5 e0                        |    ....        |      [10]: "1932-03-19T14:00:00Z" (-1192442400) transition_time 0x54-0x58 (4)
0x050|                        b9 f8 6d 68            |        ..mh    |      [11]: "1932-10-08T14:30:00Z" (-1174901400) transition_time 0x58-0x5c (4)
0x050|                                    ba cc a7 e0|            ....|      [12]: "1933-03-18T14:00:00Z" (-1160992800) transition_time 0x5c-0x60 (4)
0x060|bb d8 4f 68                                    |..Oh            |      [13]: "1933-10-07T14:30:00Z" (-1143451800) transition_time 0x60-0x64 (4)
0x060|            bc e3 e8 e0                        |    ....        |      [14]: "1934-04-28T14:00:00Z" (-1125914400) transition_time 0x64-0x68 (4)
0x060|                        bd ae f6 e8            |        ....    |      [15]: "1934-09-29T14:30:00Z" (-1112607000) transition_time 0x68-0x6c (4)
0x060|                                    be c3 ca e0|            ....|      [16]: "1935-04-27T14:00:00Z" (-1094464800) transition_time 0x6c-0x70 (4)
0x070|bf 8e d8 e8                                    |....            |      [17]: "1935-09-28T14:30:00Z" (-1081157400) transition_time 0x70-0x74 (4)
0x070|            c0 a3 ac e0                        |    ....        |      [18]: "1936-04-25T14:00:00Z" (-1063015200) transition_time 0x74-0x78 (4)
0x070|                        c1 6e ba e8            |        .n..    |      [19]: "1936-09-26T14:30:00Z" (-1049707800) transition_time 0x78-0x7c (4)
0x070|                                    c2 83 8e e0|            ....|      [20]: "1937-04-24T14:00:00Z" (-1031565600) transition_time 0x7c-0x80 (4)
0x080|c3 4e 9c e8                                    |.N..            |      [21]: "1937-09-25T14:30:00Z" (-1018258200) transition_time 0x80-0x84 (4)
0x080|            c4 63 70 e0                        |    .cp.        |      [22]: "1938-04-23T14:00:00Z" (-1000116000) transition_time 0x84-0x88 (4)
0x080|                        c5 2e 7e e8            |        ..~.    |      [23]: "1938-09-24T14:30:00Z" (-986808600) transition_time 0x88-0x8c (4)
0x080|                                    c6 4c 8d 60|            .L.`|      [24]: "1939-04-29T14:00:00Z" (-968061600) transition_time 0x8c-0x90 (4)
0x090|c7 0e 60 e8                                    |..`.            |      [25]: "1939-09-23T14:30:00Z" (-955359000) transition_time 0x90-0x94 (4)
0x090|            c8 2c 6f 60                        |    .,o`        |      [26]: "1940-04-27T14:00:00Z" (-936612000) transition_time 0x94-0x98 (4)
0x090|                        c8 f7 7d 68            |        ..}h    |      [27]: "1940-09-28T14:30:00Z" (-923304600) transition_time 0x98-0x9c (4)
0x090|                                    d2 da 9a 40|            ...@|      [28]: "1945-12-31T12:00:00Z" (-757425600) transition_time 0x9c-0xa0 (4)
0x0a0|09 18 fd e0                                    |....            |      [29]: "1974-11-02T14:00:00Z" (152632800) transition_time 0xa0-0xa4 (4)
0x0a0|            09 ac a5 e0                        |    ....        |      [30]: "1975-02-22T14:00:00Z" (162309600) transition_time 0xa4-0xa8 (4)
0x0a0|                        0a ef a5 60            |        ...`    |      [31]: "1975-10-25T14:00:00Z" (183477600) transition_time 0xa8-0xac (4)
0x0a0|                                    0b 9e fc e0|            ....|      [32]: "1976-03-06T14:00:00Z" (194968800) transition_time 0xac-0xb0 (4)
0x0b0|0c d8 c1 e0                                    |....            |      [33]: "1976-10-30T14:00:00Z" (215532000) transition_time 0xb0-0xb4 (4)
0x0b0|            0d 7e de e0                        |    .~..        |      [34]: "1977-03-05T14:00:00Z" (226418400) transition_time 0xb4-0xb8 (4)
0x0b0|                        0e b8 a3 e0            |        ....    |      [35]: "1977-10-29T14:00:00Z" (246981600) transition_time 0xb8-0xbc (4)
0x0b0|                                    0f 5e c0 e0|            .^..|      [36]: "1978-03-04T14:00:00Z" (257868000) transition_time 0xbc-0xc0 (4)
0x0c0|10 98 85 e0                                    |....            |      [37]: "1978-10-28T14:00:00Z" (278431200) transition_time 0xc0-0xc4 (4)
0x0c0|            11 3e a2 e0                        |    .>..        |      [38]: "1979-03-03T14:00:00Z" (289317600) transition_time 0xc4-0xc8 (4)
0x0c0|                        12 78 67 e0            |        .xg.    |      [39]: "1979-10-27T14:00:00Z" (309880800) transition_time 0xc8-0xcc (4)
0x0c0|                                    13 1e 84 e0|            ....|      [40]: "1980-03-01T14:00:00Z" (320767200) transition_time 0xcc-0xd0 (4)
0x0d0|14 58 49 e0                                    |.XI.            |      [41]: "1980-10-25T14:00:00Z" (341330400) transition_time 0xd0-0xd4 (4)
0x0d0|            14 fe 66 e0                        |    ..f.        |      [42]: "1981-02-28T14:00:00Z" (352216800) transition_time 0xd4-0xd8 (4)
0x0d0|                        16 38 2b e0            |        .8+.    |      [43]: "1981-10-24T14:00:00Z" (372780000) transition_time 0xd8-0xdc (4)
0x0d0|                                    16 e7 83 60|            ...`|      [44]: "1982-03-06T14:00:00Z" (384271200) transition_time 0xdc-0xe0 (4)
0x0e0|18 21 48 60                                    |.!H`            |      [45]: "1982-10-30T14:00:00Z" (404834400) transition_time 0xe0-0xe4 (4)
0x0e0|            18 c7 65 60                        |    ..e`        |      [46]: "1983-03-05T14:00:00Z" (415720800) transition_time 0xe4-0xe8 (4)
0x0e0|                        1a 01 2a 60            |        ..*`    |      [47]: "1983-10-29T14:00:00Z" (436284000) transition_time 0xe8-0xec (4)
0x0e0|                                    1a a7 47 60|            ..G`|      [48]: "1984-03-03T14:00:00Z" (447170400) transition_time 0xec-0xf0 (4)
0x0f0|1b e1 0c 60                                    |...`            |      [49]: "1984-10-27T14:00:00Z" (467733600) transition_time 0xf0-0xf4 (4)
0x0f0|            1c 87 29 60                        |    ..)`        |      [50]: "1985-03-02T14:00:00Z" (478620000) transition_time 0xf4-0xf8 (4)
0x0f0|                        1d c0 ee 60            |        ...`    |      [51]: "1985-10-26T14:00:00Z" (499183200) transition_time 0xf8-0xfc (4)
0x0f0|                                    1e 67 0b 60|            .g.`|      [52]: "1986-03-01T14:00:00Z" (510069600) transition_time 0xfc-0x100 (4)
0x100|1f a0 d0 60                                    |...`            |      [53]: "1986-10-25T14:00:00Z" (530632800) transition_time 0x100-0x104 (4)
0x100|            20 46 ed 60                        |     F.`        |      [54]: "1987-02-28T14:00:00Z" (541519200) transition_time 0x104-0x108 (4)
0x100|                        21 80 b2 60            |        !..`    |      [55]: "1987-10-24T14:00:00Z" (562082400) transition_time 0x108-0x10c (4)
0x100|                                    22 30 09 e0|            "0..|      [56]: "1988-03-05T14:00:00Z" (573573600) transition_time 0x10c-0x110 (4)
0x110|23 69 ce e0                                    |#i..            |      [57]: "1988-10-29T14:00:00Z" (594136800) transition_time 0x110-0x114 (4)
0x110|            24 0f eb e0                        |    $...        |      [58]: "1989-03-04T14:00:00Z" (605023200) transition_time 0x114-0x118 (4)
0x110|                        25 2e 01 60            |        %..`    |      [59]: "1989-10-07T14:00:00Z" (623772000) transition_time 0x118-0x11c (4)
0x110|                                    26 02 42 e0|            &.B.|      [60]: "1990-03-17T14:00:00Z" (637682400) transition_time 0x11c-0x120 (4)
0x120|27 0d e3 60                                    |'..`            |      [61]: "1990-10-06T14:00:00Z" (655221600) transition_time 0x120-0x124 (4)
0x120|            27 e2 24 e0                        |    '.$.        |      [62]: "1991-03-16T14:00:00Z" (669132000) transition_time 0x124-0x128 (4)
0x120|                        28 ed c5 60            |        (..`    |      [63]: "1991-10-05T14:00:00Z" (686671200) transition_time 0x128-0x12c (4)
0x120|                                    29 c2 06 e0|            )...|      [64]: "1992-03-14T14:00:00Z" (700581600) transition_time 0x12c-0x130 (4)
0x130|2a cd a7 60                                    |*..`            |      [65]: "1992-10-03T14:00:00Z" (718120800) transition_time 0x130-0x134 (4)
0x130|            2b ab 23 60                        |    +.#`        |      [66]: "1993-03-20T14:00:00Z" (732636000) transition_time 0x134-0x138 (4)
0x130|                        2c ad 89 60            |        ,..`    |      [67]: "1993-10-02T14:00:00Z" (749570400) transition_time 0x138-0x13c (4)
0x130|                                    2d 8b 05 60|            -..`|      [68]: "1994-03-19T14:00:00Z" (764085600) transition_time 0x13c-0x140 (4)
0x140|2e 8d 6b 60                                    |..k`            |      [69]: "1994-10-01T14:00:00Z" (781020000) transition_time 0x140-0x144 (4)
0x140|            2f 6a e7 60                        |    /j.`        |      [70]: "1995-03-18T14:00:00Z" (795535200) transition_time 0x144-0x148 (4)
0x140|                        30 6d 4d 60            |        0mM`    |      [71]: "1995-09-30T14:00:00Z" (812469600) transition_time 0x148-0x14c (4)
0x140|                                    31 4a c9 60|            1J.`|      [72]: "1996-03-16T14:00:00Z" (826984800) transition_time 0x14c-0x150 (4)
0x150|32 56 69 e0                                    |2Vi.            |      [73]: "1996-10-05T14:00:00Z" (844524000) transition_time 0x150-0x154 (4)
0x150|            33 2a ab 60                        |    3*.`        |      [74]: "1997-03-15T14:00:00Z" (858434400) transition_time 0x154-0x158 (4)
0x150|                        34 36 4b e0            |        46K.    |      [75]: "1997-10-04T14:00:00Z" (875973600) transition_time 0x158-0x15c (4)
0x150|                                    35 0a 8d 60|            5..`|      [76]: "1998-03-14T14:00:00Z" (889884000) transition_time 0x15c-0x160 (4)
0x160|36 16 2d e0                                    |6.-.            |      [77]: "1998-10-03T14:00:00Z" (907423200) transition_time 0x160-0x164 (4)
0x160|            36 f3 a9 e0                        |    6...        |      [78]: "1999-03-20T14:00:00Z" (921938400) transition_time 0x164-0x168 (4)
0x160|                        37 f6 0f e0            |        7...    |      [79]: "1999-10-02T14:00:00Z" (938872800) transition_time 0x168-0x16c (4)
0x160|                                    38 d3 8b e0|            8...|      [80]: "2000-03-18T14:00:00Z" (953388000) transition_time 0x16c-0x170 (4)
0x170|39 d5 f1 e0                                    |9...            |      [81]: "2000-09-30T14:00:00Z" (970322400) transition_time 0x170-0x174 (4)
0x170|            3a b3 6d e0                        |    :.m.        |      [82]: "2001-03-17T14:00:00Z" (984837600) transition_time 0x174-0x178 (4)
0x170|                        3b bf 0e 60            |        ;..`    |      [83]: "2001-10-06T14:00:00Z" (1002376800) transition_time 0x178-0x17c (4)
0x170|                                    3c 93 4f e0|            <.O.|      [84]: "2002-03-16T14:00:00Z" (1016287200) transition_time 0x17c-0x180 (4)
0x180|3d 9e f0 60                                    |=..`            |      [85]: "2002-10-05T14:00:00Z" (1033826400) transition_time 0x180-0x184 (4)
0x180|            3e 73 31 e0                        |    >s1.        |      [86]: "2003-03-15T14:00:00Z" (1047736800) transition_time 0x184-0x188 (4)
0x180|                        3f 7e d2 60            |        ?~.`    |      [87]: "2003-10-04T14:00:00Z" (1065276000) transition_time 0x188-0x18c (4)
0x180|                                    40 5c 4e 60|            @\N`|      [88]: "2004-03-20T14:00:00Z" (1079791200) transition_time 0x18c-0x190 (4)
0x190|41 5e b4 60                                    |A^.`            |      [89]: "2004-10-02T14:00:00Z" (1096725600) transition_time 0x190-0x194 (4)
0x190|            42 3c 30 60                        |    B<0`        |      [90]: "2005-03-19T14:00:00Z" (1111240800) transition_time 0x194-0x198 (4)
0x190|                        43 3e 96 60            |        C>.`    |      [91]: "2005-10-01T14:00:00Z" (1128175200) transition_time 0x198-0x19c (4)
0x190|                                    44 1c 12 60|            D..`|      [92]: "2006-03-18T14:00:00Z" (1142690400) transition_time 0x19c-0x1a0 (4)
0x1a0|45 1e 78 60                                    |E.x`            |      [93]: "2006-09-30T14:00:00Z" (1159624800) transition_time 0x1a0-0x1a4 (4)
0x1a0|            45 fb f4 60                        |    E..`        |      [94]: "2007-03-17T14:00:00Z" (1174140000) transition_time 0x1a4-0x1a8 (4)
0x1a0|                        46 fe 5a 60            |        F.Z`    |      [95]: "2007-09-29T14:00:00Z" (1191074400) transition_time 0x1a8-0x1ac (4)
0x1a0|                                    47 f7 85 e0|            G...|      [96]: "2008-04-05T14:00:00Z" (1207404000) transition_time 0x1ac-0x1b0 (4)
0x1b0|48 de 3c 60                                    |H.<`            |      [97]: "2008-09-27T14:00:00Z" (1222524000) transition_time 0x1b0-0x1b4 (4)
0x1b0|            49 d7 67 e0                        |    I.g.        |      [98]: "2009-04-04T14:00:00Z" (1238853600) transition_time 0x1b4-0x1b8 (4)
0x1b0|                        4a be 1e 60            |        J..`    |      [99]: "2009-09-26T14:00:00Z" (1253973600) transition_time 0x1b8-0x1bc (4)
0x1b0|                                    4b b7 49 e0|            K.I.|      [100]: "2010-04-03T14:00:00Z" (1270303200) transition_time 0x1bc-0x1c0 (4)
0x1c0|4c 9e 00 60                                    |L..`            |      [101]: "2010-09-25T14:00:00Z" (1285423200) transition_time 0x1c0-0x1c4 (4)
0x1c0|            4d 97 2b e0                        |    M.+.        |      [102]: "2011-04-02T14:00:00Z" (1301752800) transition_time 0x1c4-0x1c8 (4)
0x1c0|                        4e 7d e2 60            |        N}.`    |      [103]: "2011-09-24T14:00:00Z" (1316872800) transition_time 0x1c8-0x1cc (4)
0x1c0|                                    4f 77 0d e0|            Ow..|      [104]: "2012-03-31T14:00:00Z" (1333202400) transition_time 0x1cc-0x1d0 (4)
0x1d0|50 66 fe e0                                    |Pf..            |      [105]: "2012-09-29T14:00:00Z" (1348927200) transition_time 0x1d0-0x1d4 (4)
0x1d0|            51 60 2a 60                        |    Q`*`        |      [106]: "2013-04-06T14:00:00Z" (1365256800) transition_time 0x1d4-0x1d8 (4)
0x1d0|                        52 46 e0 e0            |        RF..    |      [107]: "2013-09-28T14:00:00Z" (1380376800) transition_time 0x1d8-0x1dc (4)
0x1d0|                                    53 40 0c 60|            S@.`|      [108]: "2014-04-05T14:00:00Z" (1396706400) transition_time 0x1dc-0x1e0 (4)
0x1e0|54 26 c2 e0                                    |T&..            |      [109]: "2014-09-27T14:00:00Z" (1411826400) transition_time 0x1e0-0x1e4 (4)
0x1e0|            55 1f ee 60                        |    U..`        |      [110]: "2015-04-04T14:00:00Z" (1428156000) transition_time 0x1e4-0x1e8 (4)
0x1e0|                        56 06 a4 e0            |        V...    |      [111]: "2015-09-26T14:00:00Z" (1443276000) transition_time 0x1e8-0x1ec (4)
0x1e0|                                    56 ff d0 60|            V..`|      [112]: "2016-04-02T14:00:00Z" (1459605600) transition_time 0x1ec-0x1f0 (4)
0x1f0|57 e6 86 e0                                    |W...            |      [113]: "2016-09-24T14:00:00Z" (1474725600) transition_time 0x1f0-0x1f4 (4)
0x1f0|            58 df b2 60                        |    X..`        |      [114]: "2017-04-01T14:00:00Z" (1491055200) transition_time 0x1f4-0x1f8 (4)
0x1f0|                        59 c6 68 e0            |        Y.h.    |      [115]: "2017-09-23T14:00:00Z" (1506175200) transition_time 0x1f8-0x1fc (4)
0x1f0|                                    5a bf 94 60|            Z..`|      [116]: "2018-03-31T14:00:00Z" (1522504800) transition_time 0x1fc-0x200 (4)
0x200|5b af 85 60                                    |[..`            |      [117]: "2018-09-29T14:00:00Z" (1538229600) transition_time 0x200-0x204 (4)
0x200|            5c a8 b0 e0                        |    \...        |      [118]: "2019-04-06T14:00:00Z" (1554559200) transition_time 0x204-0x208 (4)
0x200|                        5d 8f 67 60            |        ].g`    |      [119]: "2019-09-28T14:00:00Z" (1569679200) transition_time 0x208-0x20c (4)
0x200|                                    5e 88 92 e0|            ^...|      [120]: "2020-04-04T14:00:00Z" (1586008800) transition_time 0x20c-0x210 (4)
0x210|5f 6f 49 60                                    |_oI`            |      [121]: "2020-09-26T14:00:00Z" (1601128800) transition_time 0x210-0x214 (4)
0x210|            60 68 74 e0                        |    `ht.        |      [122]: "2021-04-03T14:00:00Z" (1617458400) transition_time 0x214-0x218 (4)
0x210|                        61 4f 2b 60            |        aO+`    |      [123]: "2021-09-25T14:00:00Z" (1632578400) transition_time 0x218-0x21c (4)
0x210|                                    62 48 56 e0|            bHV.|      [124]: "2022-04-02T14:00:00Z" (1648908000) transition_time 0x21c-0x220 (4)
0x220|63 2f 0d 60                                    |c/.`            |      [125]: "2022-09-24T14:00:00Z" (1664028000) transition_time 0x220-0x224 (4)
0x220|            64 28 38 e0                        |    d(8.        |      [126]: "2023-04-01T14:00:00Z" (1680357600) transition_time 0x224-0x228 (4)
0x220|                        65 0e ef 60            |        e..`    |      [127]: "2023-09-23T14:00:00Z" (1695477600) transition_time 0x228-0x22c (4)
0x220|                                    66 11 55 60|            f.U`|      [128]: "2024-04-06T14:00:00Z" (1712412000) transition_time 0x22c-0x230 (4)
0x230|66 f8 0b e0                                    |f...            |      [129]: "2024-09-28T14:00:00Z" (1727532000) transition_time 0x230-0x234 (4)
0x230|            67 f1 37 60                        |    g.7`        |      [130]: "2025-04-05T14:00:00Z" (1743861600) transition_time 0x234-0x238 (4)
0x230|                        68 d7 ed e0            |        h...    |      [131]: "2025-09-27T14:00:00Z" (1758981600) transition_time 0x238-0x23c (4)
0x230|                                    69 d1 19 60|            i..`|      [132]: "2026-04-04T14:00:00Z" (1775311200) transition_time 0x23c-0x240 (4)
0x240|6a b7 cf e0                                    |j...            |      [133]: "2026-09-26T14:00:00Z" (1790431200) transition_time 0x240-0x244 (4)
0x240|            6b b0 fb 60                        |    k..`        |      [134]: "2027-04-03T14:00:00Z" (1806760800) transition_time 0x244-0x248 (4)
0x240|                        6c 97 b1 e0            |        l...    |      [135]: "2027-09-25T14:00:00Z" (1821880800) transition_time 0x248-0x24c (4)
0x240|                                    6d 90 dd 60|            m..`|      [136]: "2028-04-01T14:00:00Z" (1838210400) transition_time 0x24c-0x250 (4)
0x250|6e 77 93 e0                                    |nw..            |      [137]: "2028-09-23T14:00:00Z" (1853330400) transition_time 0x250-0x254 (4)
0x250|            6f 70 bf 60                        |    op.`        |      [138]: "2029-03-31T14:00:00Z" (1869660000) transition_time 0x254-0x258 (4)
0x250|                        70 60 b0 60            |        p`.`    |      [139]: "2029-09-29T14:00:00Z" (1885384800) transition_time 0x258-0x25c (4)
0x250|                                    71 59 db e0|            qY..|      [140]: "2030-04-06T14:00:00Z" (1901714400) transition_time 0x25c-0x260 (4)
0x260|72 40 92 60                                    |r@.`            |      [141]: "2030-09-28T14:00:00Z" (1916834400) transition_time 0x260-0x264 (4)
0x260|            73 39 bd e0                        |    s9..        |      [142]: "2031-04-05T14:00:00Z" (1933164000) transition_time 0x264-0x268 (4)
0x260|                        74 20 74 60            |        t t`    |      [143]: "2031-09-27T14:00:00Z" (1948284000) transition_time 0x268-0x26c (4)
0x260|                                    75 19 9f e0|            u...|      [144]: "2032-04-03T14:00:00Z" (1964613600) transition_time 0x26c-0x270 (4)
0x270|76 00 56 60                                    |v.V`            |      [145]: "2032-09-25T14:00:00Z" (1979733600) transition_time 0x270-0x274 (4)
0x270|            76 f9 81 e0                        |    v...        |      [146]: "2033-04-02T14:00:00Z" (1996063200) transition_time 0x274-0x278 (4)
0x270|                        77 e0 38 60            |        w.8`    |      [147]: "2033-09-24T14:00:00Z" (2011183200) transition_time 0x278-0x27c (4)
0x270|                                    78 d9 63 e0|            x.c.|      [148]: "2034-04-01T14:00:00Z" (2027512800) transition_time 0x27c-0x280 (4)
0x280|79 c0 1a 60                                    |y..`            |      [149]: "2034-09-23T14:00:00Z" (2042632800) transition_time 0x280-0x284 (4)
0x280|            7a b9 45 e0                        |    z.E.        |      [150]: "2035-03-31T14:00:00Z" (2058962400) transition_time 0x284-0x288 (4)
0x280|                        7b a9 36 e0            |        {.6.    |      [151]: "2035-09-29T14:00:00Z" (2074687200) transition_time 0x288-0x28c (4)
0x280|                                    7c a2 62 60|            |.b`|      [152]: "2036-04-05T14:00:00Z" (2091016800) transition_time 0x28c-0x290 (4)
0x290|7d 89 18 e0                                    |}...            |      [153]: "2036-09-27T14:00:00Z" (2106136800) transition_time 0x290-0x294 (4)
0x290|            7e 82 44 60                        |    ~.D`        |      [154]: "2037-04-04T14:00:00Z" (2122466400) transition_time 0x294-0x298 (4)
0x290|                        7f 68 fa e0            |        .h..    |      [155]: "2037-09-26T14:00:00Z" (2137586400) transition_time 0x298-0x29c (4)
     |                                               |                |    transition_types[0:156]: 0x29c-0x338 (156)
0x290|                                    02         |            .   |      [0]: 2 transition_type 0x29c-0x29d (1)
0x290|                                       01      |             .  |      [1]: 1 transition_type 0x29d-0x29e (1)
0x290|                                          02   |              . |      [2]: 2 transition_type 0x29e-0x29f (1)
0x290|                                             03|               .|      [3]: 3 transition_type 0x29f-0x2a0 (1)
0x2a0|02                                             |.               |      [4]: 2 transition_type 0x2a0-0x2a1 (1)
0x2a0|   03                                          | .              |      [5]: 3 transition_type 0x2a1-0x2a2 (1)
0x2a0|      02                                       |  .             |      [6]: 2 transition_type 0x2a2-0x2a3 (1)
0x2a0|         03                                    |   .            |      [7]: 3 transition_type 0x2a3-0x2a4 (1)
0x2a0|            02                                 |    .           |      [8]: 2 transition_type 0x2a4-0x2a5 (1)
0x2a0|               03                              |     .          |      [9]: 3 transition_type 0x2a5-0x2a6 (1)
0x2a0|                  02                           |      .         |      [10]: 2 transition_type 0x2a6-0x2a7 (1)
0x2a0|                     03                        |       .        |      [11]: 3 transition_type 0x2a7-0x2a8 (1)
0x2a0|                        02                     |        .       |      [12]: 2 transition_type 0x2a8-0x2a9 (1)
0x2a0|                           03                  |         .      |      [13]: 3 transition_type 0x2a9-0x2aa (1)
0x2a0|                              02               |          .     |      [14]: 2 transition_type 0x2aa-0x2ab (1)
0x2a0|                                 03            |           .    |      [15]: 3 transition_type 0x2ab-0x2ac (1)
0x2a0|                                    02         |            .   |      [16]: 2 transition_type 0x2ac-0x2ad (1)
0x2a0|                                       03      |             .  |      [17]: 3 transition_type 0x2ad-0x2ae (1)
0x2a0|                                          02   |              . |      [18]: 2 transition_type 0x2ae-0x2af (1)
0x2a0|                                             03|               .|      [19]: 3 transition_type 0x2af-0x2b0 (1)
0x2b0|02                                             |.               |      [20]: 2 transition_type 0x2b0-0x2b1 (1)
0x2b0|   03                                          | .              |      [21]: 3 transition_type 0x2b1-0x2b2 (1)
0x2b0|      02                                       |  .             |      [22]: 2 transition_type 0x2b2-0x2b3 (1)
0x2b0|         03                                    |   .            |      [23]: 3 transition_type 0x2b3-0x2b4 (1)
0x2b0|            02                                 |    .           |      [24]: 2 transition_type 0x2b4-0x2b5 (1)
0x2b0|               03                              |     .          |      [25]: 3 transition_type 0x2b5-0x2b6 (1)
0x2b0|                  02                           |      .         |      [26]: 2 transition_type 0x2b6-0x2b7 (1)
0x2b0|                     03                        |       .        |      [27]: 3 transition_type 0x2b7-0x2b8 (1)
0x2b0|                        06                     |        .       |      [28]: 6 transition_type 0x2b8-0x2b9 (1)
0x2b0|                           04                  |         .      |      [29]: 4 transition_type 0x2b9-0x2ba (1)
0x2b0|                              05               |          .     |      [30]: 5 transition_type 0x2ba-0x2bb (1)
0x2b0|                                 04            |           .    |      [31]: 4 transition_type 0x2bb-0x2bc (1)
0x2b0|                                    05         |            .   |      [32]: 5 transition_type 0x2bc-0x2bd (1)
0x2b0|                                       04      |             .  |      [33]: 4 transition_type 0x2bd-0x2be (1)
0x2b0|                                          05   |              . |      [34]: 5 transition_type 0x2be-0x2bf (1)
0x2b0|                                             04|               .|      [35]: 4 transition_type 0x2bf-0x2c0 (1)
0x2c0|05                                             |.               |      [36]: 5 transition_type 0x2c0-0x2c1 (1)
0x2c0|   04                                          | .              |      [37]: 4 transition_type 0x2c1-0x2c2 (1)
0x2c0|      05                                       |  .             |      [38]: 5 transition_type 0x2c2-0x2c3 (1)
0x2c0|         04                                    |   .            |      [39]: 4 transition_type 0x2c3-0x2c4 (1)
0x2c0|            05                                 |    .           |      [40]: 5 transition_type 0x2c4-0x2c5 (1)
0x2c0|               04                              |     .          |      [41]: 4 transition_type 0x2c5-0x2c6 (1)
0x2c0|                  05                           |      .         |      [42]: 5 transition_type 0x2c6-0x2c7 (1)
0x2c0|                     04                        |       .        |      [43]: 4 transition_type 0x2c7-0x2c8 (1)
0x2c0|                        05                     |        .       |      [44]: 5 transition_type 0x2c8-0x2c9 (1)
0x2c0|                           04                  |         .      |      [45]: 4 transition_type 0x2c9-0x2ca (1)
0x2c0|                              05               |          .     |      [46]: 5 transition_type 0x2ca-0x2cb (1)
0x2c0|                                 04            |           .    |      [47]: 4 transition_type 0x2cb-0x2cc (1)
0x2c0|                                    05         |            .   |      [48]: 5 transition_type 0x2cc-0x2cd (1)
0x2c0|                                       04      |             .  |      [49]: 4 transition_type 0x2cd-0x2ce (1)
0x2c0|                                          05   |              . |      [50]: 5 transition_type 0x2ce-0x2cf (1)
0x2c0|                                             04|               .|      [51]: 4 transition_type 0x2cf-0x2d0 (1)
0x2d0|05                                             |.               |      [52]: 5 transition_type 0x2d0-0x2d1 (1)
0x2d0|   04                                          | .              |      [53]: 4 transition_type 0x2d1-0x2d2 (1)
0x2d0|      05                                       |  .             |      [54]: 5 transition_type 0x2d2-0x2d3 (1)
0x2d0|         04                                    |   .            |      [55]: 4 transition_type 0x2d3-0x2d4 (1)
0x2d0|            05                                 |    .           |      [56]: 5 transition_type 0x2d4-0x2d5 (1)
0x2d0|               04                              |     .          |      [57]: 4 transition_type 0x2d5-0x2d6 (1)
0x2d0|                  05                           |      .         |      [58]: 5 transition_type 0x2d6-0x2d7 (1)
0x2d0|                     04                        |       .        |      [59]: 4 transition_type 0x2d7-0x2d8 (1)
0x2d0|                        05                     |        .       |      [60]: 5 transition_type 0x2d8-0x2d9 (1)
0x2d0|                           04                  |         .      |      [61]: 4 transition_type 0x2d9-0x2da (1)
0x2d0|                              05               |          .     |      [62]: 5 transition_type 0x2da-0x2db (1)
0x2d0|                                 04            |           .    |      [63]: 4 transition_type 0x2db-0x2dc (1)
0x2d0|                                    05         |            .   |      [64]: 5 transition_type 0x2dc-0x2dd (1)
0x2d0|                                       04      |             .  |      [65]: 4 transition_type 0x2dd-0x2de (1)
0x2d0|                                          05   |              . |      [66]: 5 transition_type 0x2de-0x2df (1)
0x2d0|                                             04|               .|      [67]: 4 transition_type 0x2df-0x2e0 (1)
0x2e0|05                                             |.               |      [68]: 5 transition_type 0x2e0-0x2e1 (1)
0x2e0|   04                                          | .              |      [69]: 4 transition_type 0x2e1-0x2e2 (1)
0x2e0|      05                                       |  .             |      [70]: 5 transition_type 0x2e2-0x2e3 (1)
0x2e0|         04                                    |   .            |      [71]: 4 transition_type 0x2e3-0x2e4 (1)
0x2e0|            05                                 |    .           |      [72]: 5 transition_type 0x2e4-0x2e5 (1)
0x2e0|               04                              |     .          |      [73]: 4 transition_type 0x2e5-0x2e6 (1)
0x2e0|                  05                           |      .         |      [74]: 5 transition_type 0x2e6-0x2e7 (1)
0x2e0|                     04                        |       .        |      [75]: 4 transition_type 0x2e7-0x2e8 (1)
0x2e0|                        05                     |        .       |      [76]: 5 transition_type 0x2e8-0x2e9 (1)
0x2e0|                           04                  |         .      |      [77]: 4 transition_type 0x2e9-0x2ea (1)
0x2e0|                              05               |          .     |      [78]: 5 transition_type 0x2ea-0x2eb (1)
0x2e0|                                 04            |           .    |      [79]: 4 transition_type 0x2eb-0x2ec (1)
0x2e0|                                    05         |            .   |      [80]: 5 transition_type 0x2ec-0x2ed (1)
0x2e0|                                       04      |             .  |      [81]: 4 transition_type 0x2ed-0x2ee (1)
0x2e0|                                          05   |              . |      [82]: 5 transition_type 0x2ee-0x2ef (1)
0x2e0|                                             04|               .|      [83]: 4 transition_type 0x2ef-0x2f0 (1)
0x2f0|05                                             |.               |      [84]: 5 transition_type 0x2f0-0x2f1 (1)
0x2f0|   04                                          | .              |      [85]: 4 transition_type 0x2f1-0x2f2 (1)
0x2f0|      05                                       |  .             |      [86]: 5 transition_type 0x2f2-0x2f3 (1)
0x2f0|         04                                    |   .            |      [87]: 4 transition_type 0x2f3-0x2f4 (1)
0x2f0|            05                                 |    .           |      [88]: 5 transition_type 0x2f4-0x2f5 (1)
0x2f0|               04                              |     .          |      [89]: 4 transition_type 0x2f5-0x2f6 (1)
0x2f0|                  05                           |      .         |      [90]: 5 transition_type 0x2f6-0x2f7 (1)
0x2f0|                     04                        |       .        |      [91]: 4 transition_type 0x2f7-0x2f8 (1)
0x2f0|                        05                     |        .       |      [92]: 5 transition_type 0x2f8-0x2f9 (1)
0x2f0|                           04                  |         .      |      [93]: 4 transition_type 0x2f9-0x2fa (1)
0x2f0|                              05               |          .     |      [94]: 5 transition_type 0x2fa-0x2fb (1)
0x2f0|                                 04            |           .    |      [95]: 4 transition_type 0x2fb-0x2fc (1)
0x2f0|                                    05         |            .   |      [96]: 5 transition_type 0x2fc-0x2fd (1)
0x2f0|                                       04      |             .  |      [97]: 4 transition_type 0x2fd-0x2fe (1)
0x2f0|                                          05   |              . |      [98]: 5 transition_type 0x2fe-0x2ff (1)
0x2f0|                                             04|               .|      [99]: 4 transition_type 0x2ff-0x300 (1)
0x300|05                                             |.               |      [100]: 5 transition_type 0x300-0x301 (1)
0x300|   04                                          | .              |      [101]: 4 transition_type 0x301-0x302 (1)
0x300|      05                                       |  .             |      [102]: 5 transition_type 0x302-0x303 (1)
0x300|         04                                    |   .            |      [103]: 4 transition_type 0x303-0x304 (1)
0x300|            05                                 |    .           |      [104]: 5 transition_type 0x304-0x305 (1)
0x300|               04                              |     .          |      [105]: 4 transition_type 0x305-0x306 (1)
0x300|                  05                           |      .         |      [106]: 5 transition_type 0x306-0x307 (1)
0x300|                     04                        |       .        |      [107]: 4 transition_type 0x307-0x308 (1)
0x300|                        05                     |        .       |      [108]: 5 transition_type 0x308-0x309 (1)
0x300|                           04                  |         .      |      [109]: 4 transition_type 0x309-0x30a (1)
0x300|                              05               |          .     |      [110]: 5 transition_type 0x30a-0x30b (1)
0x300|                                 04            |           .    |      [111]: 4 transition_type 0x30b-0x30c (1)
0x300|                                    05         |            .   |      [112]: 5 transition_type 0x30c-0x30d (1)
0x300|                                       04      |             .  |      [113]: 4 transition_type 0x30d-0x30e (1)
0x300|                                          05   |              . |      [114]: 5 transition_type 0x30e-0x30f (1)
0x300|                                             04|               .|      [115]: 4 transition_type 0x30f-0x310 (1)
0x310|05                                             |.               |      [116]: 5 transition_type 0x310-0x311 (1)
0x310|   04                                          | .              |      [117]: 4 transition_type 0x311-0x312 (1)
0x310|      05                                       |  .             |      [118]: 5 transition_type 0x312-0x313 (1)
0x310|         04                                    |   .            |      [119]: 4 transition_type 0x313-0x314 (1)
0x310|            05                                 |    .           |      [120]: 5 transition_type 0x314-0x315 (1)
0x310|               04                              |     .          |      [121]: 4 transition_type 0x315-0x316 (1)
0x310|                  05                           |      .         |      [122]: 5 transition_type 0x316-0x317 (1)
0x310|                     04                        |       .        |      [123]: 4 transition_type 0x317-0x318 (1)
0x310|                        05                     |        .       |      [124]: 5 transition_type 0x318-0x319 (1)
0x310|                           04                  |         .      |      [125]: 4 transition_type 0x319-0x31a (1)
0x310|                              05               |          .     |      [126]: 5 transition_type 0x31a-0x31b (1)
0x310|                                 04            |           .    |      [127]: 4 transition_type 0x31b-0x31c (1)
0x310|                                    05         |            .   |      [128]: 5 transition_type 0x31c-0x31d (1)
0x310|                                       04      |             .  |      [129]: 4 transition_type 0x31d-0x31e (1)
0x310|                                          05   |              . |      [130]: 5 transition_type 0x31e-0x31f (1)
0x310|                                             04|               .|      [131]: 4 transition_type 0x31f-0x320 (1)
0x320|05                                             |.               |      [132]: 5 transition_type 0x320-0x321 (1)
0x320|   04                                          | .              |      [133]: 4 transition_type 0x321-0x322 (1)
0x320|      05                                       |  .             |      [134]: 5 transition_type 0x322-0x323 (1)
0x320|         04                                    |   .            |      [135]: 4 transition_type 0x323-0x324 (1)
0x320|            05                                 |    .           |      [136]: 5 transition_type 0x324-0x325 (1)
0x320|               04                              |     .          |      [137]: 4 transition_type 0x325-0x326 (1)
0x320|                  05                           |      .         |      [138]: 5 transition_type 0x326-0x327 (1)
0x320|                     04                        |       .        |      [139]: 4 transition_type 0x327-0x328 (1)
0x320|                        05                     |        .       |      [140]: 5 transition_type 0x328-0x329 (1)
0x320|                           04                  |         .      |      [141]: 4 transition_type 0x329-0x32a (1)
0x320|                              05               |          .     |      [142]: 5 transition_type 0x32a-0x32b (1)
0x320|                                 04            |           .    |      [143]: 4 transition_type 0x32b-0x32c (1)
0x320|                                    05         |            .   |      [144]: 5 transition_type 0x32c-0x32d (1)
0x320|                                       04      |             .  |      [145]: 4 transition_type 0x32d-0x32e (1)
0x320|                                          05   |              . |      [146]: 5 transition_type 0x32e-0x32f (1)
0x320|                                             04|               .|      [147]: 4 transition_type 0x32f-0x330 (1)
0x330|05                                             |.               |      [148]: 5 transition_type 0x330-0x331 (1)
0x330|   04                                          | .              |      [149]: 4 transition_type 0x331-0x332 (1)
0x330|      05                                       |  .             |      [150]: 5 transition_type 0x332-0x333 (1)
0x330|         04                                    |   .            |      [151]: 4 transition_type 0x333-0x334 (1)
0x330|            05                                 |    .           |      [152]: 5 transition_type 0x334-0x335 (1)
0x330|               04                              |     .          |      [153]: 4 transition_type 0x335-0x336 (1)
0x330|                  05                           |      .         |      [154]: 5 transition_type 0x336-0x337 (1)
0x330|                     04                        |       .        |      [155]: 4 transition_type 0x337-0x338 (1)
     |                                               |                |    local_time_type_records[0:7]: 0x338-0x362 (42)
     |                                               |                |      [0]{}: local_time_type 0x338-0x33e (6)
0x330|                        00 00 a3 d8            |        ....    |        utoff: 41944 (valid) 0x338-0x33c (4)
0x330|                                    00         |            .   |        dst: 0 (valid) 0x33c-0x33d (1)
0x330|                                       00      |             .  |        idx: 0 (valid) 0x33d-0x33e (1)
     |                                               |                |      [1]{}: local_time_type 0x33e-0x344 (6)
0x330|                                          00 00|              ..|        utoff: 45000 (valid) 0x33e-0x342 (4)
0x340|af c8                                          |..              |
0x340|      01                                       |  .             |        dst: 1 (valid) 0x342-0x343 (1)
0x340|         04                                    |   .            |        idx: 4 (valid) 0x343-0x344 (1)
     |                                               |                |      [2]{}: local_time_type 0x344-0x34a (6)
0x340|            00 00 a1 b8                        |    ....        |        utoff: 41400 (valid) 0x344-0x348 (4)
0x340|                        00                     |        .       |        dst: 0 (valid) 0x348-0x349 (1)
0x340|                           09                  |         .      |        idx: 9 (valid) 0x349-0x34a (1)
     |                                               |                |      [3]{}: local_time_type 0x34a-0x350 (6)
0x340|                              00 00 a8 c0      |          ....  |        utoff: 43200 (valid) 0x34a-0x34e (4)
0x340|                                          01   |              . |        dst: 1 (valid) 0x34e-0x34f (1)
0x340|                                             04|               .|        idx: 4 (valid) 0x34f-0x350 (1)
     |                                               |                |      [4]{}: local_time_type 0x350-0x356 (6)
0x350|00 00 b6 d0                                    |....            |        utoff: 46800 (valid) 0x350-0x354 (4)
0x350|            01                                 |    .           |        dst: 1 (valid) 0x354-0x355 (1)
0x350|               0e                              |     .          |        idx: 14 (valid) 0x355-0x356 (1)
     |                                               |                |      [5]{}: local_time_type 0x356-0x35c (6)
0x350|                  00 00 a8 c0                  |      ....      |        utoff: 43200 (valid) 0x356-0x35a (4)
0x350|                              00               |          .     |        dst: 0 (valid) 0x35a-0x35b (1)
0x350|                                 04            |           .    |        idx: 4 (valid) 0x35b-0x35c (1)
     |                                               |                |      [6]{}: local_time_type 0x35c-0x362 (6)
0x350|                                    00 00 a8 c0|            ....|        utoff: 43200 (valid) 0x35c-0x360 (4)
0x360|00                                             |.               |        dst: 0 (valid) 0x360-0x361 (1)
0x360|   04                                          | .              |        idx: 4 (valid) 0x361-0x362 (1)
     |                                               |                |    time_zone_designations[0:4]: 0x362-0x375 (19)
0x360|      4c 4d 54 00                              |  LMT.          |      [0]: "LMT" time_zone_designation 0x362-0x366 (4)
0x360|                  4e 5a 53 54 00               |      NZST.     |      [1]: "NZST" time_zone_designation 0x366-0x36b (5)
0x360|                                 4e 5a 4d 54 00|           NZMT.|      [2]: "NZMT" time_zone_designation 0x36b-0x370 (5)
0x370|4e 5a 44 54 00                                 |NZDT.           |      [3]: "NZDT" time_zone_designation 0x370-0x375 (5)
     |                                               |                |    leap_second_records[0:0]: 0x375-0x375 (0)
     |                                               |                |    standard_wall_indicators[0:7]: 0x375-0x37c (7)
0x370|               00                              |     .          |      [0]: 0 standard_wall_indicator (valid) 0x375-0x376 (1)
0x370|                  00                           |      .         |      [1]: 0 standard_wall_indicator (valid) 0x376-0x377 (1)
0x370|                     00                        |       .        |      [2]: 0 standard_wall_indicator (valid) 0x377-0x378 (1)
0x370|                        00                     |        .       |      [3]: 0 standard_wall_indicator (valid) 0x378-0x379 (1)
0x370|                           01                  |         .      |      [4]: 1 standard_wall_indicator (valid) 0x379-0x37a (1)
0x370|                              01               |          .     |      [5]: 1 standard_wall_indicator (valid) 0x37a-0x37b (1)
0x370|                                 00            |           .    |      [6]: 0 standard_wall_indicator (valid) 0x37b-0x37c (1)
     |                                               |                |    ut_local_indicators[0:0]: 0x37c-0x37c (0)
     |                                               |                |  v2plusheader{}: 0x37c-0x3a8 (44)
0x370|                                    54 5a 69 66|            TZif|    magic: 0x545a6966 (valid) 0x37c-0x380 (4)
0x380|32                                             |2               |    ver: "2" (0x32) (valid) 0x380-0x381 (1)
0x380|   00 00 00 00 00 00 00 00 00 00 00 00 00 00 00| ...............|    reserved: raw bits 0x381-0x390 (15)
0x390|00 00 00 00                                    |....            |    isutcnt: 0 0x390-0x394 (4)
0x390|            00 00 00 07                        |    ....        |    isstdcnt: 7 0x394-0x398 (4)
0x390|                        00 00 00 00            |        ....    |    leapcnt: 0 0x398-0x39c (4)
0x390|                                    00 00 00 9c|            ....|    timecnt: 156 0x39c-0x3a0 (4)
0x3a0|00 00 00 07                                    |....            |    typecnt: 7 0x3a0-0x3a4 (4)
0x3a0|            00 00 00 13                        |    ....        |    charcnt: 19 0x3a4-0x3a8 (4)
     |                                               |                |  v2plusdatablock{}: 0x3a8-0x968 (1472)
     |                                               |                |    transition_times[0:156]: 0x3a8-0x888 (1248)
0x3a0|                        ff ff ff ff 41 b7 4c a8|        ....A.L.|      [0]: "1868-11-01T12:20:56Z" (-3192435544) transition_time 0x3a8-0x3b0 (8)
0x3b0|ff ff ff ff b0 b4 b2 e8                        |........        |      [1]: "1927-11-05T14:30:00Z" (-1330335000) transition_time 0x3b0-0x3b8 (8)
0x3b0|                        ff ff ff ff b1 51 87 58|        .....Q.X|      [2]: "1928-03-03T13:30:00Z" (-1320057000) transition_time 0x3b8-0x3c0 (8)
0x3c0|ff ff ff ff b2 78 e5 68                        |.....x.h        |      [3]: "1928-10-13T14:30:00Z" (-1300699800) transition_time 0x3c0-0x3c8 (8)
0x3c0|                        ff ff ff ff b3 43 e5 60|        .....C.`|      [4]: "1929-03-16T14:00:00Z" (-1287396000) transition_time 0x3c8-0x3d0 (8)
0x3d0|ff ff ff ff b4 58 c7 68                        |.....X.h        |      [5]: "1929-10-12T14:30:00Z" (-1269250200) transition_time 0x3d0-0x3d8 (8)
0x3d0|                        ff ff ff ff b5 23 c7 60|        .....#.`|      [6]: "1930-03-15T14:00:00Z" (-1255946400) transition_time 0x3d8-0x3e0 (8)
0x3e0|ff ff ff ff b6 38 a9 68                        |.....8.h        |      [7]: "1930-10-11T14:30:00Z" (-1237800600) transition_time 0x3e0-0x3e8 (8)
0x3e0|                        ff ff ff ff b7 03 a9 60|        .......`|      [8]: "1931-03-14T14:00:00Z" (-1224496800) transition_time 0x3e8-0x3f0 (8)
0x3f0|ff ff ff ff b8 18 8b 68                        |.......h        |      [9]: "1931-10-10T14:30:00Z" (-1206351000) transition_time 0x3f0-0x3f8 (8)
0x3f0|                        ff ff ff ff b8 ec c5 e0|        ........|      [10]: "1932-03-19T14:00:00Z" (-1192442400) transition_time 0x3f8-0x400 (8)
0x400|ff ff ff ff b9 f8 6d 68                        |......mh        |      [11]: "1932-10-08T14:30:00Z" (-1174901400) transition_time 0x400-0x408 (8)
0x400|                        ff ff ff ff ba cc a7 e0|        ........|      [12]: "1933-03-18T14:00:00Z" (-1160992800) transition_time 0x408-0x410 (8)
0x410|ff ff ff ff bb d8 4f 68                        |......Oh        |      [13]: "1933-10-07T14:30:00Z" (-1143451800) transition_time 0x410-0x418 (8)
0x410|                        ff ff ff ff bc e3 e8 e0|        ........|      [14]: "1934-04-28T14:00:00Z" (-1125914400) transition_time 0x418-0x420 (8)
0x420|ff ff ff ff bd ae f6 e8                        |........        |      [15]: "1934-09-29T14:30:00Z" (-1112607000) transition_time 0x420-0x428 (8)
0x420|                        ff ff ff ff be c3 ca e0|        ........|      [16]: "1935-04-27T14:00:00Z" (-1094464800) transition_time 0x428-0x430 (8)
0x430|ff ff ff ff bf 8e d8 e8                        |........        |      [17]: "1935-09-28T14:30:00Z" (-1081157400) transition_time 0x430-0x438 (8)
0x430|                        ff ff ff ff c0 a3 ac e0|        ........|      [18]: "1936-04-25T14:00:00Z" (-1063015200) transition_time 0x438-0x440 (8)
0x440|ff ff ff ff c1 6e ba e8                        |.....n..        |      [19]: "1936-09-26T14:30:00Z" (-1049707800) transition_time 0x440-0x448 (8)
0x440|                        ff ff ff ff c2 83 8e e0|        ........|      [20]: "1937-04-24T14:00:00Z" (-1031565600) transition_time 0x448-0x450 (8)
0x450|ff ff ff ff c3 4e 9c e8                        |.....N..        |      [21]: "1937-09-25T14:30:00Z" (-1018258200) transition_time 0x450-0x458 (8)
0x450|                        ff ff ff ff c4 63 70 e0|        .....cp.|      [22]: "1938-04-23T14:00:00Z" (-1000116000) transition_time 0x458-0x460 (8)
0x460|ff ff ff ff c5 2e 7e e8                        |......~.        |      [23]: "1938-09-24T14:30:00Z" (-986808600) transition_time 0x460-0x468 (8)
0x460|                        ff ff ff ff c6 4c 8d 60|        .....L.`|      [24]: "1939-04-29T14:00:00Z" (-968061600) transition_time 0x468-0x470 (8)
0x470|ff ff ff ff c7 0e 60 e8                        |......`.        |      [25]: "1939-09-23T14:30:00Z" (-955359000) transition_time 0x470-0x478 (8)
0x470|                        ff ff ff ff c8 2c 6f 60|        .....,o`|      [26]: "1940-04-27T14:00:00Z" (-936612000) transition_time 0x478-0x480 (8)
0x480|ff ff ff ff c8 f7 7d 68                        |......}h        |      [27]: "1940-09-28T14:30:00Z" (-923304600) transition_time 0x480-0x488 (8)
0x480|                        ff ff ff ff d2 da 9a 40|        .......@|      [28]: "1945-12-31T12:00:00Z" (-757425600) transition_time 0x488-0x490 (8)
0x490|00 00 00 00 09 18 fd e0                        |........        |      [29]: "1974-11-02T14:00:00Z" (152632800) transition_time 0x490-0x498 (8)
0x490|                        00 00 00 00 09 ac a5 e0|        ........|      [30]: "1975-02-22T14:00:00Z" (162309600) transition_time 0x498-0x4a0 (8)
0x4a0|00 00 00 00 0a ef a5 60                        |.......`        |      [31]: "1975-10-25T14:00:00Z" (183477600) transition_time 0x4a0-0x4a8 (8)
0x4a0|                        00 00 00 00 0b 9e fc e0|        ........|      [32]: "1976-03-06T14:00:00Z" (194968800) transition_time 0x4a8-0x4b0 (8)
0x4b0|00 00 00 00 0c d8 c1 e0                        |........        |      [33]: "1976-10-30T14:00:00Z" (215532000) transition_time 0x4b0-0x4b8 (8)
0x4b0|                        00 00 00 00 0d 7e de e0|        .....~..|      [34]: "1977-03-05T14:00:00Z" (226418400) transition_time 0x4b8-0x4c0 (8)
0x4c0|00 00 00 00 0e b8 a3 e0                        |........        |      [35]: "1977-10-29T14:00:00Z" (246981600) transition_time 0x4c0-0x4c8 (8)
0x4c0|                        00 00 00 00 0f 5e c0 e0|        .....^..|      [36]: "1978-03-04T14:00:00Z" (257868000) transition_time 0x4c8-0x4d0 (8)
0x4d0|00 00 00 00 10 98 85 e0                        |........        |      [37]: "1978-10-28T14:00:00Z" (278431200) transition_time 0x4d0-0x4d8 (8)
0x4d0|                        00 00 00 00 11 3e a2 e0|        .....>..|      [38]: "1979-03-03T14:00:00Z" (289317600) transition_time 0x4d8-0x4e0 (8)
0x4e0|00 00 00 00 12 78 67 e0                        |.....xg.        |      [39]: "1979-10-27T14:00:00Z" (309880800) transition_time 0x4e0-0x4e8 (8)
0x4e0|                        00 00 00 00 13 1e 84 e0|        ........|      [40]: "1980-03-01T14:00:00Z" (320767200) transition_time 0x4e8-0x4f0 (8)
0x4f0|00 00 00 00 14 58 49 e0                        |.....XI.        |      [41]: "1980-10-25T14:00:00Z" (341330400) transition_time 0x4f0-0x4f8 (8)
0x4f0|                        00 00 00 00 14 fe 66 e0|        ......f.|      [42]: "1981-02-28T14:00:00Z" (352216800) transition_time 0x4f8-0x500 (8)
0x500|00 00 00 00 16 38 2b e0                        |.....8+.        |      [43]: "1981-10-24T14:00:00Z" (372780000) transition_time 0x500-0x508 (8)
0x500|                        00 00 00 00 16 e7 83 60|        .......`|      [44]: "1982-03-06T14:00:00Z" (384271200) transition_time 0x508-0x510 (8)
0x510|00 00 00 00 18 21 48 60                        |.....!H`        |      [45]: "1982-10-30T14:00:00Z" (404834400) transition_time 0x510-0x518 (8)
0x510|                        00 00 00 00 18 c7 65 60|        ......e`|      [46]: "1983-03-05T14:00:00Z" (415720800) transition_time 0x518-0x520 (8)
0x520|00 00 00 00 1a 01 2a 60                        |......*`        |      [47]: "1983-10-29T14:00:00Z" (436284000) transition_time 0x520-0x528 (8)
0x520|                        00 00 00 00 1a a7 47 60|        ......G`|      [48]: "1984-03-03T14:00:00Z" (447170400) transition_time 0x528-0x530 (8)
0x530|00 00 00 00 1b e1 0c 60                        |.......`        |      [49]: "1984-10-27T14:00:00Z" (467733600) transition_time 0x530-0x538 (8)
0x530|                        00 00 00 00 1c 87 29 60|        ......)`|      [50]: "1985-03-02T14:00:00Z" (478620000) transition_time 0x538-0x540 (8)
0x540|00 00 00 00 1d c0 ee 60                        |.......`        |      [51]: "1985-10-26T14:00:00Z" (499183200) transition_time 0x540-0x548 (8)
0x540|                        00 00 00 00 1e 67 0b 60|        .....g.`|      [52]: "1986-03-01T14:00:00Z" (510069600) transition_time 0x548-0x550 (8)
0x550|00 00 00 00 1f a0 d0 60                        |.......`        |      [53]: "1986-10-25T14:00:00Z" (530632800) transition_time 0x550-0x558 (8)
0x550|                        00 00 00 00 20 46 ed 60|        .... F.`|      [54]: "1987-02-28T14:00:00Z" (541519200) transition_time 0x558-0x560 (8)
0x560|00 00 00 00 21 80 b2 60                        |....!..`        |      [55]: "1987-10-24T14:00:00Z" (562082400) transition_time 0x560-0x568 (8)
0x560|                        00 00 00 00 22 30 09 e0|        ...."0..|      [56]: "1988-03-05T14:00:00Z" (573573600) transition_time 0x568-0x570 (8)
0x570|00 00 00 00 23 69 ce e0                        |....#i..        |      [57]: "1988-10-29T14:00:00Z" (594136800) transition_time 0x570-0x578 (8)
0x570|                        00 00 00 00 24 0f eb e0|        ....$...|      [58]: "1989-03-04T14:00:00Z" (605023200) transition_time 0x578-0x580 (8)
0x580|00 00 00 00 25 2e 01 60                        |....%..`        |      [59]: "1989-10-07T14:00:00Z" (623772000) transition_time 0x580-0x588 (8)
0x580|                        00 00 00 00 26 02 42 e0|        ....&.B.|      [60]: "1990-03-17T14:00:00Z" (637682400) transition_time 0x588-0x590 (8)
0x590|00 00 00 00 27 0d e3 60                        |....'..`        |      [61]: "1990-10-06T14:00:00Z" (655221600) transition_time 0x590-0x598 (8)
0x590|                        00 00 00 00 27 e2 24 e0|        ....'.$.|      [62]: "1991-03-16T14:00:00Z" (669132000) transition_time 0x598-0x5a0 (8)
0x5a0|00 00 00 00 28 ed c5 60                        |....(..`        |      [63]: "1991-10-05T14:00:00Z" (686671200) transition_time 0x5a0-0x5a8 (8)
0x5a0|                        00 00 00 00 29 c2 06 e0|        ....)...|      [64]: "1992-03-14T14:00:00Z" (700581600) transition_time 0x5a8-0x5b0 (8)
0x5b0|00 00 00 00 2a cd a7 60                        |....*..`        |      [65]: "1992-10-03T14:00:00Z" (718120800) transition_time 0x5b0-0x5b8 (8)
0x5b0|                        00 00 00 00 2b ab 23 60|        ....+.#`|      [66]: "1993-03-20T14:00:00Z" (732636000) transition_time 0x5b8-0x5c0 (8)
0x5c0|00 00 00 00 2c ad 89 60                        |....,..`        |      [67]: "1993-10-02T14:00:00Z" (749570400) transition_time 0x5c0-0x5c8 (8)
0x5c0|                        00 00 00 00 2d 8b 05 60|        ....-..`|      [68]: "1994-03-19T14:00:00Z" (764085600) transition_time 0x5c8-0x5d0 (8)
0x5d0|00 00 00 00 2e 8d 6b 60                        |......k`        |      [69]: "1994-10-01T14:00:00Z" (781020000) transition_time 0x5d0-0x5d8 (8)
0x5d0|                        00 00 00 00 2f 6a e7 60|        ..../j.`|      [70]: "1995-03-18T14:00:00Z" (795535200) transition_time 0x5d8-0x5e0 (8)
0x5e0|00 00 00 00 30 6d 4d 60                        |....0mM`        |      [71]: "1995-09-30T14:00:00Z" (812469600) transition_time 0x5e0-0x5e8 (8)
0x5e0|                        00 00 00 00 31 4a c9 60|        ....1J.`|      [72]: "1996-03-16T14:00:00Z" (826984800) transition_time 0x5e8-0x5f0 (8)
0x5f0|00 00 00 00 32 56 69 e0                        |....2Vi.        |      [73]: "1996-10-05T14:00:00Z" (844524000) transition_time 0x5f0-0x5f8 (8)
0x5f0|                        00 00 00 00 33 2a ab 60|        ....3*.`|      [74]: "1997-03-15T14:00:00Z" (858434400) transition_time 0x5f8-0x600 (8)
0x600|00 00 00 00 34 36 4b e0                        |....46K.        |      [75]: "1997-10-04T14:00:00Z" (875973600) transition_time 0x600-0x608 (8)
0x600|                        00 00 00 00 35 0a 8d 60|        ....5..`|      [76]: "1998-03-14T14:00:00Z" (889884000) transition_time 0x608-0x610 (8)
0x610|00 00 00 00 36 16 2d e0                        |....6.-.        |      [77]: "1998-10-03T14:00:00Z" (907423200) transition_time 0x610-0x618 (8)
0x610|                        00 00 00 00 36 f3 a9 e0|        ....6...|      [78]: "1999-03-20T14:00:00Z" (921938400) transition_time 0x618-0x620 (8)
0x620|00 00 00 00 37 f6 0f e0                        |....7...        |      [79]: "1999-10-02T14:00:00Z" (938872800) transition_time 0x620-0x628 (8)
0x620|                        00 00 00 00 38 d3 8b e0|        ....8...|      [80]: "2000-03-18T14:00:00Z" (953388000) transition_time 0x628-0x630 (8)
0x630|00 00 00 00 39 d5 f1 e0                        |....9...        |      [81]: "2000-09-30T14:00:00Z" (970322400) transition_time 0x630-0x638 (8)
0x630|                        00 00 00 00 3a b3 6d e0|        ....:.m.|      [82]: "2001-03-17T14:00:00Z" (984837600) transition_time 0x638-0x640 (8)
0x640|00 00 00 00 3b bf 0e 60                        |....;..`        |      [83]: "2001-10-06T14:00:00Z" (1002376800) transition_time 0x640-0x648 (8)
0x640|                        00 00 00 00 3c 93 4f e0|        ....<.O.|      [84]: "2002-03-16T14:00:00Z" (1016287200) transition_time 0x648-0x650 (8)
0x650|00 00 00 00 3d 9e f0 60                        |....=..`        |      [85]: "2002-10-05T14:00:00Z" (1033826400) transition_time 0x650-0x658 (8)
0x650|                        00 00 00 00 3e 73 31 e0|        ....>s1.|      [86]: "2003-03-15T14:00:00Z" (1047736800) transition_time 0x658-0x660 (8)
0x660|00 00 00 00 3f 7e d2 60                        |....?~.`        |      [87]: "2003-10-04T14:00:00Z" (1065276000) transition_time 0x660-0x668 (8)
0x660|                        00 00 00 00 40 5c 4e 60|        ....@\N`|      [88]: "2004-03-20T14:00:00Z" (1079791200) transition_time 0x668-0x670 (8)
0x670|00 00 00 00 41 5e b4 60                        |....A^.`        |      [89]: "2004-10-02T14:00:00Z" (1096725600) transition_time 0x670-0x678 (8)
0x670|                        00 00 00 00 42 3c 30 60|        ....B<0`|      [90]: "2005-03-19T14:00:00Z" (1111240800) transition_time 0x678-0x680 (8)
0x680|00 00 00 00 43 3e 96 60                        |....C>.`        |      [91]: "2005-10-01T14:00:00Z" (1128175200) transition_time 0x680-0x688 (8)
0x680|                        00 00 00 00 44 1c 12 60|        ....D..`|      [92]: "2006-03-18T14:00:00Z" (1142690400) transition_time 0x688-0x690 (8)
0x690|00 00 00 00 45 1e 78 60                        |....E.x`        |      [93]: "2006-09-30T14:00:00Z" (1159624800) transition_time 0x690-0x698 (8)
0x690|                        00 00 00 00 45 fb f4 60|        ....E..`|      [94]: "2007-03-17T14:00:00Z" (1174140000) transition_time 0x698-0x6a0 (8)
0x6a0|00 00 00 00 46 fe 5a 60                        |....F.Z`        |      [95]: "2007-09-29T14:00:00Z" (1191074400) transition_time 0x6a0-0x6a8 (8)
0x6a0|                        00 00 00 00 47 f7 85 e0|        ....G...|      [96]: "2008-04-05T14:00:00Z" (1207404000) transition_time 0x6a8-0x6b0 (8)
0x6b0|00 00 00 00 48 de 3c 60                        |....H.<`        |      [97]: "2008-09-27T14:00:00Z" (1222524000) transition_time 0x6b0-0x6b8 (8)
0x6b0|                        00 00 00 00 49 d7 67 e0|        ....I.g.|      [98]: "2009-04-04T14:00:00Z" (1238853600) transition_time 0x6b8-0x6c0 (8)
0x6c0|00 00 00 00 4a be 1e 60                        |....J..`        |      [99]: "2009-09-26T14:00:00Z" (1253973600) transition_time 0x6c0-0x6c8 (8)
0x6c0|                        00 00 00 00 4b b7 49 e0|        ....K.I.|      [100]: "2010-04-03T14:00:00Z" (1270303200) transition_time 0x6c8-0x6d0 (8)
0x6d0|00 00 00 00 4c 9e 00 60                        |....L..`        |      [101]: "2010-09-25T14:00:00Z" (1285423200) transition_time 0x6d0-0x6d8 (8)
0x6d0|                        00 00 00 00 4d 97 2b e0|        ....M.+.|      [102]: "2011-04-02T14:00:00Z" (1301752800) transition_time 0x6d8-0x6e0 (8)
0x6e0|00 00 00 00 4e 7d e2 60                        |....N}.`        |      [103]: "2011-09-24T14:00:00Z" (1316872800) transition_time 0x6e0-0x6e8 (8)
0x6e0|                        00 00 00 00 4f 77 0d e0|        ....Ow..|      [104]: "2012-03-31T14:00:00Z" (1333202400) transition_time 0x6e8-0x6f0 (8)
0x6f0|00 00 00 00 50 66 fe e0                        |....Pf..        |      [105]: "2012-09-29T14:00:00Z" (1348927200) transition_time 0x6f0-0x6f8 (8)
0x6f0|                        00 00 00 00 51 60 2a 60|        ....Q`*`|      [106]: "2013-04-06T14:00:00Z" (1365256800) transition_time 0x6f8-0x700 (8)
0x700|00 00 00 00 52 46 e0 e0                        |....RF..        |      [107]: "2013-09-28T14:00:00Z" (1380376800) transition_time 0x700-0x708 (8)
0x700|                        00 00 00 00 53 40 0c 60|        ....S@.`|      [108]: "2014-04-05T14:00:00Z" (1396706400) transition_time 0x708-0x710 (8)
0x710|00 00 00 00 54 26 c2 e0                        |....T&..        |      [109]: "2014-09-27T14:00:00Z" (1411826400) transition_time 0x710-0x718 (8)
0x710|                        00 00 00 00 55 1f ee 60|        ....U..`|      [110]: "2015-04-04T14:00:00Z" (1428156000) transition_time 0x718-0x720 (8)
0x720|00 00 00 00 56 06 a4 e0                        |....V...        |      [111]: "2015-09-26T14:00:00Z" (1443276000) transition_time 0x720-0x728 (8)
0x720|                        00 00 00 00 56 ff d0 60|        ....V..`|      [112]: "2016-04-02T14:00:00Z" (1459605600) transition_time 0x728-0x730 (8)
0x730|00 00 00 00 57 e6 86 e0                        |....W...        |      [113]: "2016-09-24T14:00:00Z" (1474725600) transition_time 0x730-0x738 (8)
0x730|                        00 00 00 00 58 df b2 60|        ....X..`|      [114]: "2017-04-01T14:00:00Z" (1491055200) transition_time 0x738-0x740 (8)
0x740|00 00 00 00 59 c6 68 e0                        |....Y.h.        |      [115]: "2017-09-23T14:00:00Z" (1506175200) transition_time 0x740-0x748 (8)
0x740|                        00 00 00 00 5a bf 94 60|        ....Z..`|      [116]: "2018-03-31T14:00:00Z" (1522504800) transition_time 0x748-0x750 (8)
0x750|00 00 00 00 5b af 85 60                        |....[..`        |      [117]: "2018-09-29T14:00:00Z" (1538229600) transition_time 0x750-0x758 (8)
0x750|                        00 00 00 00 5c a8 b0 e0|        ....\...|      [118]: "2019-04-06T14:00:00Z" (1554559200) transition_time 0x758-0x760 (8)
0x760|00 00 00 00 5d 8f 67 60                        |....].g`        |      [119]: "2019-09-28T14:00:00Z" (1569679200) transition_time 0x760-0x768 (8)
0x760|                        00 00 00 00 5e 88 92 e0|        ....^...|      [120]: "2020-04-04T14:00:00Z" (1586008800) transition_time 0x768-0x770 (8)
0x770|00 00 00 00 5f 6f 49 60                        |...._oI`        |      [121]: "2020-09-26T14:00:00Z" (1601128800) transition_time 0x770-0x778 (8)
0x770|                        00 00 00 00 60 68 74 e0|        ....`ht.|      [122]: "2021-04-03T14:00:00Z" (1617458400) transition_time 0x778-0x780 (8)
0x780|00 00 00 00 61 4f 2b 60                        |....aO+`        |      [123]: "2021-09-25T14:00:00Z" (1632578400) transition_time 0x780-0x788 (8)
0x780|                        00 00 00 00 62 48 56 e0|        ....bHV.|      [124]: "2022-04-02T14:00:00Z" (1648908000) transition_time 0x788-0x790 (8)
0x790|00 00 00 00 63 2f 0d 60                        |....c/.`        |      [125]: "2022-09-24T14:00:00Z" (1664028000) transition_time 0x790-0x798 (8)
0x790|                        00 00 00 00 64 28 38 e0|        ....d(8.|      [126]: "2023-04-01T14:00:00Z" (1680357600) transition_time 0x798-0x7a0 (8)
0x7a0|00 00 00 00 65 0e ef 60                        |....e..`        |      [127]: "2023-09-23T14:00:00Z" (1695477600) transition_time 0x7a0-0x7a8 (8)
0x7a0|                        00 00 00 00 66 11 55 60|        ....f.U`|      [128]: "2024-04-06T14:00:00Z" (1712412000) transition_time 0x7a8-0x7b0 (8)
0x7b0|00 00 00 00 66 f8 0b e0                        |....f...        |      [129]: "2024-09-28T14:00:00Z" (1727532000) transition_time 0x7b0-0x7b8 (8)
0x7b0|                        00 00 00 00 67 f1 37 60|        ....g.7`|      [130]: "2025-04-05T14:00:00Z" (1743861600) transition_time 0x7b8-0x7c0 (8)
0x7c0|00 00 00 00 68 d7 ed e0                        |....h...        |      [131]: "2025-09-27T14:00:00Z" (1758981600) transition_time 0x7c0-0x7c8 (8)
0x7c0|                        00 00 00 00 69 d1 19 60|        ....i..`|      [132]: "2026-04-04T14:00:00Z" (1775311200) transition_time 0x7c8-0x7d0 (8)
0x7d0|00 00 00 00 6a b7 cf e0                        |....j...        |      [133]: "2026-09-26T14:00:00Z" (1790431200) transition_time 0x7d0-0x7d8 (8)
0x7d0|                        00 00 00 00 6b b0 fb 60|        ....k..`|      [134]: "2027-04-03T14:00:00Z" (1806760800) transition_time 0x7d8-0x7e0 (8)
0x7e0|00 00 00 00 6c 97 b1 e0                        |....l...        |      [135]: "2027-09-25T14:00:00Z" (1821880800) transition_time 0x7e0-0x7e8 (8)
0x7e0|                        00 00 00 00 6d 90 dd 60|        ....m..`|      [136]: "2028-04-01T14:00:00Z" (1838210400) transition_time 0x7e8-0x7f0 (8)
0x7f0|00 00 00 00 6e 77 93 e0                        |....nw..        |      [137]: "2028-09-23T14:00:00Z" (1853330400) transition_time 0x7f0-0x7f8 (8)
0x7f0|                        00 00 00 00 6f 70 bf 60|        ....op.`|      [138]: "2029-03-31T14:00:00Z" (1869660000) transition_time 0x7f8-0x800 (8)
0x800|00 00 00 00 70 60 b0 60                        |....p`.`        |      [139]: "2029-09-29T14:00:00Z" (1885384800) transition_time 0x800-0x808 (8)
0x800|                        00 00 00 00 71 59 db e0|        ....qY..|      [140]: "2030-04-06T14:00:00Z" (1901714400) transition_time 0x808-0x810 (8)
0x810|00 00 00 00 72 40 92 60                        |....r@.`        |      [141]: "2030-09-28T14:00:00Z" (1916834400) transition_time 0x810-0x818 (8)
0x810|                        00 00 00 00 73 39 bd e0|        ....s9..|      [142]: "2031-04-05T14:00:00Z" (1933164000) transition_time 0x818-0x820 (8)
0x820|00 00 00 00 74 20 74 60                        |....t t`        |      [143]: "2031-09-27T14:00:00Z" (1948284000) transition_time 0x820-0x828 (8)
0x820|                        00 00 00 00 75 19 9f e0|        ....u...|      [144]: "2032-04-03T14:00:00Z" (1964613600) transition_time 0x828-0x830 (8)
0x830|00 00 00 00 76 00 56 60                        |....v.V`        |      [145]: "2032-09-25T14:00:00Z" (1979733600) transition_time 0x830-0x838 (8)
0x830|                        00 00 00 00 76 f9 81 e0|        ....v...|      [146]: "2033-04-02T14:00:00Z" (1996063200) transition_time 0x838-0x840 (8)
0x840|00 00 00 00 77 e0 38 60                        |....w.8`        |      [147]: "2033-09-24T14:00:00Z" (2011183200) transition_time 0x840-0x848 (8)
0x840|                        00 00 00 00 78 d9 63 e0|        ....x.c.|      [148]: "2034-04-01T14:00:00Z" (2027512800) transition_time 0x848-0x850 (8)
0x850|00 00 00 00 79 c0 1a 60                        |....y..`        |      [149]: "2034-09-23T14:00:00Z" (2042632800) transition_time 0x850-0x858 (8)
0x850|                        00 00 00 00 7a b9 45 e0|        ....z.E.|      [150]: "2035-03-31T14:00:00Z" (2058962400) transition_time 0x858-0x860 (8)
0x860|00 00 00 00 7b a9 36 e0                        |....{.6.        |      [151]: "2035-09-29T14:00:00Z" (2074687200) transition_time 0x860-0x868 (8)
0x860|                        00 00 00 00 7c a2 62 60|        ....|.b`|      [152]: "2036-04-05T14:00:00Z" (2091016800) transition_time 0x868-0x870 (8)
0x870|00 00 00 00 7d 89 18 e0                        |....}...        |      [153]: "2036-09-27T14:00:00Z" (2106136800) transition_time 0x870-0x878 (8)
0x870|                        00 00 00 00 7e 82 44 60|        ....~.D`|      [154]: "2037-04-04T14:00:00Z" (2122466400) transition_time 0x878-0x880 (8)
0x880|00 00 00 00 7f 68 fa e0                        |.....h..        |      [155]: "2037-09-26T14:00:00Z" (2137586400) transition_time 0x880-0x888 (8)
     |                                               |                |    transition_types[0:156]: 0x888-0x924 (156)
0x880|                        02                     |        .       |      [0]: 2 transition_type 0x888-0x889 (1)
0x880|                           01                  |         .      |      [1]: 1 transition_type 0x889-0x88a (1)
0x880|                              02               |          .     |      [2]: 2 transition_type 0x88a-0x88b (1)
0x880|                                 03            |           .    |      [3]: 3 transition_type 0x88b-0x88c (1)
0x880|                                    02         |            .   |      [4]: 2 transition_type 0x88c-0x88d (1)
0x880|                                       03      |             .  |      [5]: 3 transition_type 0x88d-0x88e (1)
0x880|                                          02   |              . |      [6]: 2 transition_type 0x88e-0x88f (1)
0x880|                                             03|               .|      [7]: 3 transition_type 0x88f-0x890 (1)
0x890|02                                             |.               |      [8]: 2 transition_type 0x890-0x891 (1)
0x890|   03                                          | .              |      [9]: 3 transition_type 0x891-0x892 (1)
0x890|      02                                       |  .             |      [10]: 2 transition_type 0x892-0x893 (1)
0x890|         03                                    |   .            |      [11]: 3 transition_type 0x893-0x894 (1)
0x890|            02                                 |    .           |      [12]: 2 transition_type 0x894-0x895 (1)
0x890|               03                              |     .          |      [13]: 3 transition_type 0x895-0x896 (1)
0x890|                  02                           |      .         |      [14]: 2 transition_type 0x896-0x897 (1)
0x890|                     03                        |       .        |      [15]: 3 transition_type 0x897-0x898 (1)
0x890|                        02                     |        .       |      [16]: 2 transition_type 0x898-0x899 (1)
0x890|                           03                  |         .      |      [17]: 3 transition_type 0x899-0x89a (1)
0x890|                              02               |          .     |      [18]: 2 transition_type 0x89a-0x89b (1)
0x890|                                 03            |           .    |      [19]: 3 transition_type 0x89b-0x89c (1)
0x890|                                    02         |            .   |      [20]: 2 transition_type 0x89c-0x89d (1)
0x890|                                       03      |             .  |      [21]: 3 transition_type 0x89d-0x89e (1)
0x890|                                          02   |              . |      [22]: 2 transition_type 0x89e-0x89f (1)
0x890|                                             03|               .|      [23]: 3 transition_type 0x89f-0x8a0 (1)
0x8a0|02                                             |.               |      [24]: 2 transition_type 0x8a0-0x8a1 (1)
0x8a0|   03                                          | .              |      [25]: 3 transition_type 0x8a1-0x8a2 (1)
0x8a0|      02                                       |  .             |      [26]: 2 transition_type 0x8a2-0x8a3 (1)
0x8a0|         03                                    |   .            |      [27]: 3 transition_type 0x8a3-0x8a4 (1)
0x8a0|            06                                 |    .           |      [28]: 6 transition_type 0x8a4-0x8a5 (1)
0x8a0|               04                              |     .          |      [29]: 4 transition_type 0x8a5-0x8a6 (1)
0x8a0|                  05                           |      .         |      [30]: 5 transition_type 0x8a6-0x8a7 (1)
0x8a0|                     04                        |       .        |      [31]: 4 transition_type 0x8a7-0x8a8 (1)
0x8a0|                        05                     |        .       |      [32]: 5 transition_type 0x8a8-0x8a9 (1)
0x8a0|                           04                  |         .      |      [33]: 4 transition_type 0x8a9-0x8aa (1)
0x8a0|                              05               |          .     |      [34]: 5 transition_type 0x8aa-0x8ab (1)
0x8a0|                                 04            |           .    |      [35]: 4 transition_type 0x8ab-0x8ac (1)
0x8a0|                                    05         |            .   |      [36]: 5 transition_type 0x8ac-0x8ad (1)
0x8a0|                                       04      |             .  |      [37]: 4 transition_type 0x8ad-0x8ae (1)
0x8a0|                                          05   |              . |      [38]: 5 transition_type 0x8ae-0x8af (1)
0x8a0|                                             04|               .|      [39]: 4 transition_type 0x8af-0x8b0 (1)
0x8b0|05                                             |.               |      [40]: 5 transition_type 0x8b0-0x8b1 (1)
0x8b0|   04                                          | .              |      [41]: 4 transition_type 0x8b1-0x8b2 (1)
0x8b0|      05                                       |  .             |      [42]: 5 transition_type 0x8b2-0x8b3 (1)
0x8b0|         04                                    |   .            |      [43]: 4 transition_type 0x8b3-0x8b4 (1)
0x8b0|            05                                 |    .           |      [44]: 5 transition_type 0x8b4-0x8b5 (1)
0x8b0|               04                              |     .          |      [45]: 4 transition_type 0x8b5-0x8b6 (1)
0x8b0|                  05                           |      .         |      [46]: 5 transition_type 0x8b6-0x8b7 (1)
0x8b0|                     04                        |       .        |      [47]: 4 transition_type 0x8b7-0x8b8 (1)
0x8b0|                        05                     |        .       |      [48]: 5 transition_type 0x8b8-0x8b9 (1)
0x8b0|                           04                  |         .      |      [49]: 4 transition_type 0x8b9-0x8ba (1)
0x8b0|                              05               |          .     |      [50]: 5 transition_type 0x8ba-0x8bb (1)
0x8b0|                                 04            |           .    |      [51]: 4 transition_type 0x8bb-0x8bc (1)
0x8b0|                                    05         |            .   |      [52]: 5 transition_type 0x8bc-0x8bd (1)
0x8b0|                                       04      |             .  |      [53]: 4 transition_type 0x8bd-0x8be (1)
0x8b0|                                          05   |              . |      [54]: 5 transition_type 0x8be-0x8bf (1)
0x8b0|                                             04|               .|      [55]: 4 transition_type 0x8bf-0x8c0 (1)
0x8c0|05                                             |.               |      [56]: 5 transition_type 0x8c0-0x8c1 (1)
0x8c0|   04                                          | .              |      [57]: 4 transition_type 0x8c1-0x8c2 (1)
0x8c0|      05                                       |  .             |      [58]: 5 transition_type 0x8c2-0x8c3 (1)
0x8c0|         04                                    |   .            |      [59]: 4 transition_type 0x8c3-0x8c4 (1)
0x8c0|            05                                 |    .           |      [60]: 5 transition_type 0x8c4-0x8c5 (1)
0x8c0|               04                              |     .          |      [61]: 4 transition_type 0x8c5-0x8c6 (1)
0x8c0|                  05                           |      .         |      [62]: 5 transition_type 0x8c6-0x8c7 (1)
0x8c0|                     04                        |       .        |      [63]: 4 transition_type 0x8c7-0x8c8 (1)
0x8c0|                        05                     |        .       |      [64]: 5 transition_type 0x8c8-0x8c9 (1)
0x8c0|                           04                  |         .      |      [65]: 4 transition_type 0x8c9-0x8ca (1)
0x8c0|                              05               |          .     |      [66]: 5 transition_type 0x8ca-0x8cb (1)
0x8c0|                                 04            |           .    |      [67]: 4 transition_type 0x8cb-0x8cc (1)
0x8c0|                                    05         |            .   |      [68]: 5 transition_type 0x8cc-0x8cd (1)
0x8c0|                                       04      |             .  |      [69]: 4 transition_type 0x8cd-0x8ce (1)
0x8c0|                                          05   |              . |      [70]: 5 transition_type 0x8ce-0x8cf (1)
0x8c0|                                             04|               .|      [71]: 4 transition_type 0x8cf-0x8d0 (1)
0x8d0|05                                             |.               |      [72]: 5 transition_type 0x8d0-0x8d1 (1)
0x8d0|   04                                          | .              |      [73]: 4 transition_type 0x8d1-0x8d2 (1)
0x8d0|      05                                       |  .             |      [74]: 5 transition_type 0x8d2-0x8d3 (1)
0x8d0|         04                                    |   .            |      [75]: 4 transition_type 0x8d3-0x8d4 (1)
0x8d0|            05                                 |    .           |      [76]: 5 transition_type 0x8d4-0x8d5 (1)
0x8d0|               04                              |     .          |      [77]: 4 transition_type 0x8d5-0x8d6 (1)
0x8d0|                  05                           |      .         |      [78]: 5 transition_type 0x8d6-0x8d7 (1)
0x8d0|                     04                        |       .        |      [79]: 4 transition_type 0x8d7-0x8d8 (1)
0x8d0|                        05                     |        .       |      [80]: 5 transition_type 0x8d8-0x8d9 (1)
0x8d0|                           04                  |         .      |      [81]: 4 transition_type 0x8d9-0x8da (1)
0x8d0|                              05               |          .     |      [82]: 5 transition_type 0x8da-0x8db (1)
0x8d0|                                 04            |           .    |      [83]: 4 transition_type 0x8db-0x8dc (1)
0x8d0|                                    05         |            .   |      [84]: 5 transition_type 0x8dc-0x8dd (1)
0x8d0|                                       04      |             .  |      [85]: 4 transition_type 0x8dd-0x8de (1)
0x8d0|                                          05   |              . |      [86]: 5 transition_type 0x8de-0x8df (1)
0x8d0|                                             04|               .|      [87]: 4 transition_type 0x8df-0x8e0 (1)
0x8e0|05                                             |.               |      [88]: 5 transition_type 0x8e0-0x8e1 (1)
0x8e0|   04                                          | .              |      [89]: 4 transition_type 0x8e1-0x8e2 (1)
0x8e0|      05                                       |  .             |      [90]: 5 transition_type 0x8e2-0x8e3 (1)
0x8e0|         04                                    |   .            |      [91]: 4 transition_type 0x8e3-0x8e4 (1)
0x8e0|            05                                 |    .           |      [92]: 5 transition_type 0x8e4-0x8e5 (1)
0x8e0|               04                              |     .          |      [93]: 4 transition_type 0x8e5-0x8e6 (1)
0x8e0|                  05                           |      .         |      [94]: 5 transition_type 0x8e6-0x8e7 (1)
0x8e0|                     04                        |       .        |      [95]: 4 transition_type 0x8e7-0x8e8 (1)
0x8e0|                        05                     |        .       |      [96]: 5 transition_type 0x8e8-0x8e9 (1)
0x8e0|                           04                  |         .      |      [97]: 4 transition_type 0x8e9-0x8ea (1)
0x8e0|                              05               |          .     |      [98]: 5 transition_type 0x8ea-0x8eb (1)
0x8e0|                                 04            |           .    |      [99]: 4 transition_type 0x8eb-0x8ec (1)
0x8e0|                                    05         |            .   |      [100]: 5 transition_type 0x8ec-0x8ed (1)
0x8e0|                                       04      |             .  |      [101]: 4 transition_type 0x8ed-0x8ee (1)
0x8e0|                                          05   |              . |      [102]: 5 transition_type 0x8ee-0x8ef (1)
0x8e0|                                             04|               .|      [103]: 4 transition_type 0x8ef-0x8f0 (1)
0x8f0|05                                             |.               |      [104]: 5 transition_type 0x8f0-0x8f1 (1)
0x8f0|   04                                          | .              |      [105]: 4 transition_type 0x8f1-0x8f2 (1)
0x8f0|      05                                       |  .             |      [106]: 5 transition_type 0x8f2-0x8f3 (1)
0x8f0|         04                                    |   .            |      [107]: 4 transition_type 0x8f3-0x8f4 (1)
0x8f0|            05                                 |    .           |      [108]: 5 transition_type 0x8f4-0x8f5 (1)
0x8f0|               04                              |     .          |      [109]: 4 transition_type 0x8f5-0x8f6 (1)
0x8f0|                  05                           |      .         |      [110]: 5 transition_type 0x8f6-0x8f7 (1)
0x8f0|                     04                        |       .        |      [111]: 4 transition_type 0x8f7-0x8f8 (1)
0x8f0|                        05                     |        .       |      [112]: 5 transition_type 0x8f8-0x8f9 (1)
0x8f0|                           04                  |         .      |      [113]: 4 transition_type 0x8f9-0x8fa (1)
0x8f0|                              05               |          .     |      [114]: 5 transition_type 0x8fa-0x8fb (1)
0x8f0|                                 04            |           .    |      [115]: 4 transition_type 0x8fb-0x8fc (1)
0x8f0|                                    05         |            .   |      [116]: 5 transition_type 0x8fc-0x8fd (1)
0x8f0|                                       04      |             .  |      [117]: 4 transition_type 0x8fd-0x8fe (1)
0x8f0|                                          05   |              . |      [118]: 5 transition_type 0x8fe-0x8ff (1)
0x8f0|                                             04|               .|      [119]: 4 transition_type 0x8ff-0x900 (1)
0x900|05                                             |.               |      [120]: 5 transition_type 0x900-0x901 (1)
0x900|   04                                          | .              |      [121]: 4 transition_type 0x901-0x902 (1)
0x900|      05                                       |  .             |      [122]: 5 transition_type 0x902-0x903 (1)
0x900|         04                                    |   .            |      [123]: 4 transition_type 0x903-0x904 (1)
0x900|            05                                 |    .           |      [124]: 5 transition_type 0x904-0x905 (1)
0x900|               04                              |     .          |      [125]: 4 transition_type 0x905-0x906 (1)
0x900|                  05                           |      .         |      [126]: 5 transition_type 0x906-0x907 (1)
0x900|                     04                        |       .        |      [127]: 4 transition_type 0x907-0x908 (1)
0x900|                        05                     |        .       |      [128]: 5 transition_type 0x908-0x909 (1)
0x900|                           04                  |         .      |      [129]: 4 transition_type 0x909-0x90a (1)
0x900|                              05               |          .     |      [130]: 5 transition_type 0x90a-0x90b (1)
0x900|                                 04            |           .    |      [131]: 4 transition_type 0x90b-0x90c (1)
0x900|                                    05         |            .   |      [132]: 5 transition_type 0x90c-0x90d (1)
0x900|                                       04      |             .  |      [133]: 4 transition_type 0x90d-0x90e (1)
0x900|                                          05   |              . |      [134]: 5 transition_type 0x90e-0x90f (1)
0x900|                                             04|               .|      [135]: 4 transition_type 0x90f-0x910 (1)
0x910|05                                             |.               |      [136]: 5 transition_type 0x910-0x911 (1)
0x910|   04                                          | .              |      [137]: 4 transition_type 0x911-0x912 (1)
0x910|      05                                       |  .             |      [138]: 5 transition_type 0x912-0x913 (1)
0x910|         04                                    |   .            |      [139]: 4 transition_type 0x913-0x914 (1)
0x910|            05                                 |    .           |      [140]: 5 transition_type 0x914-0x915 (1)
0x910|               04                              |     .          |      [141]: 4 transition_type 0x915-0x916 (1)
0x910|                  05                           |      .         |      [142]: 5 transition_type 0x916-0x917 (1)
0x910|                     04                        |       .        |      [143]: 4 transition_type 0x917-0x918 (1)
0x910|                        05                     |        .       |      [144]: 5 transition_type 0x918-0x919 (1)
0x910|                           04                  |         .      |      [145]: 4 transition_type 0x919-0x91a (1)
0x910|                              05               |          .     |      [146]: 5 transition_type 0x91a-0x91b (1)
0x910|                                 04            |           .    |      [147]: 4 transition_type 0x91b-0x91c (1)
0x910|                                    05         |            .   |      [148]: 5 transition_type 0x91c-0x91d (1)
0x910|                                       04      |             .  |      [149]: 4 transition_type 0x91d-0x91e (1)
0x910|                                          05   |              . |      [150]: 5 transition_type 0x91e-0x91f (1)
0x910|                                             04|               .|      [151]: 4 transition_type 0x91f-0x920 (1)
0x920|05                                             |.               |      [152]: 5 transition_type 0x920-0x921 (1)
0x920|   04                                          | .              |      [153]: 4 transition_type 0x921-0x922 (1)
0x920|      05                                       |  .             |      [154]: 5 transition_type 0x922-0x923 (1)
0x920|         04                                    |   .            |      [155]: 4 transition_type 0x923-0x924 (1)
     |                                               |                |    local_time_type_records[0:7]: 0x924-0x94e (42)
     |                                               |                |      [0]{}: local_time_type 0x924-0x92a (6)
0x920|            00 00 a3 d8                        |    ....        |        utoff: 41944 (valid) 0x924-0x928 (4)
0x920|                        00                     |        .       |        dst: 0 (valid) 0x928-0x929 (1)
0x920|                           00                  |         .      |        idx: 0 (valid) 0x929-0x92a (1)
     |                                               |                |      [1]{}: local_time_type 0x92a-0x930 (6)
0x920|                              00 00 af c8      |          ....  |        utoff: 45000 (valid) 0x92a-0x92e (4)
0x920|                                          01   |              . |        dst: 1 (valid) 0x92e-0x92f (1)
0x920|                                             04|               .|        idx: 4 (valid) 0x92f-0x930 (1)
     |                                               |                |      [2]{}: local_time_type 0x930-0x936 (6)
0x930|00 00 a1 b8                                    |....            |        utoff: 41400 (valid) 0x930-0x934 (4)
0x930|            00                                 |    .           |        dst: 0 (valid) 0x934-0x935 (1)
0x930|               09                              |     .          |        idx: 9 (valid) 0x935-0x936 (1)
     |                                               |                |      [3]{}: local_time_type 0x936-0x93c (6)
0x930|                  00 00 a8 c0                  |      ....      |        utoff: 43200 (valid) 0x936-0x93a (4)
0x930|                              01               |          .     |        dst: 1 (valid) 0x93a-0x93b (1)
0x930|                                 04            |           .    |        idx: 4 (valid) 0x93b-0x93c (1)
     |                                               |                |      [4]{}: local_time_type 0x93c-0x942 (6)
0x930|                                    00 00 b6 d0|            ....|        utoff: 46800 (valid) 0x93c-0x940 (4)
0x940|01                                             |.               |        dst: 1 (valid) 0x940-0x941 (1)
0x940|   0e                                          | .              |        idx: 14 (valid) 0x941-0x942 (1)
     |                                               |                |      [5]{}: local_time_type 0x942-0x948 (6)
0x940|      00 00 a8 c0                              |  ....          |        utoff: 43200 (valid) 0x942-0x946 (4)
0x940|                  00                           |      .         |        dst: 0 (valid) 0x946-0x947 (1)
0x940|                     04                        |       .        |        idx: 4 (valid) 0x947-0x948 (1)
     |                                               |                |      [6]{}: local_time_type 0x948-0x94e (6)
0x940|                        00 00 a8 c0            |        ....    |        utoff: 43200 (valid) 0x948-0x94c (4)
0x940|                                    00         |            .   |        dst: 0 (valid) 0x94c-0x94d (1)
0x940|                                       04      |             .  |        idx: 4 (valid) 0x94d-0x94e (1)
     |                                               |                |    time_zone_designations[0:4]: 0x94e-0x961 (19)
0x940|                                          4c 4d|              LM|      [0]: "LMT" time_zone_designation 0x94e-0x952 (4)
0x950|54 00                                          |T.              |
0x950|      4e 5a 53 54 00                           |  NZST.         |      [1]: "NZST" time_zone_designation 0x952-0x957 (5)
0x950|                     4e 5a 4d 54 00            |       NZMT.    |      [2]: "NZMT" time_zone_designation 0x957-0x95c (5)
0x950|                                    4e 5a 44 54|            NZDT|      [3]: "NZDT" time_zone_designation 0x95c-0x961 (5)
0x960|00                                             |.               |
     |                                               |                |    leap_second_records[0:0]: 0x961-0x961 (0)
     |                                               |                |    standard_wall_indicators[0:7]: 0x961-0x968 (7)
0x960|   00                                          | .              |      [0]: 0 standard_wall_indicator (valid) 0x961-0x962 (1)
0x960|      00                                       |  .             |      [1]: 0 standard_wall_indicator (valid) 0x962-0x963 (1)
0x960|         00                                    |   .            |      [2]: 0 standard_wall_indicator (valid) 0x963-0x964 (1)
0x960|            00                                 |    .           |      [3]: 0 standard_wall_indicator (valid) 0x964-0x965 (1)
0x960|               01                              |     .          |      [4]: 1 standard_wall_indicator (valid) 0x965-0x966 (1)
0x960|                  01                           |      .         |      [5]: 1 standard_wall_indicator (valid) 0x966-0x967 (1)
0x960|                     00                        |       .        |      [6]: 0 standard_wall_indicator (valid) 0x967-0x968 (1)
     |                                               |                |    ut_local_indicators[0:0]: 0x968-0x968 (0)
     |                                               |                |  footer{}: 0x968-0x985 (29)
0x960|                        0a                     |        .       |    nl1: 10 (valid) 0x968-0x969 (1)
0x960|                           4e 5a 53 54 2d 31 32|         NZST-12|    tz_string: "NZST-12NZDT,M9.5.0,M4.1.0/3" 0x969-0x984 (27)
0x970|4e 5a 44 54 2c 4d 39 2e 35 2e 30 2c 4d 34 2e 31|NZDT,M9.5.0,M4.1|
0x980|2e 30 2f 33                                    |.0/3            |
0x980|            0a|                                |    .|          |    nl2: 10 (valid) 0x984-0x985 (1)
