$ fq -d tzif dv Azores
     |00 01 02 03 04 05 06 07 08 09 0a 0b 0c 0d 0e 0f|0123456789abcdef|.{}: Azores (tzif) 0x0-0xe20 (3616)
     |                                               |                |  v1header{}: 0x0-0x2c (44)
0x000|54 5a 69 66                                    |TZif            |    magic: 0x545a6966 (valid) 0x0-0x4 (4)
0x000|            32                                 |    2           |    ver: "2" (0x32) (valid) 0x4-0x5 (1)
0x000|               00 00 00 00 00 00 00 00 00 00 00|     ...........|    reserved: raw bits 0x5-0x14 (15)
0x010|00 00 00 00                                    |....            |
0x010|            00 00 00 0d                        |    ....        |    isutcnt: 13 0x14-0x18 (4)
0x010|                        00 00 00 0d            |        ....    |    isstdcnt: 13 0x18-0x1c (4)
0x010|                                    00 00 00 1b|            ....|    leapcnt: 27 0x1c-0x20 (4)
0x020|00 00 00 c3                                    |....            |    timecnt: 195 0x20-0x24 (4)
0x020|            00 00 00 0d                        |    ....        |    typecnt: 13 0x24-0x28 (4)
0x020|                        00 00 00 18            |        ....    |    charcnt: 24 0x28-0x2c (4)
     |                                               |                |  v1datablock{}: 0x2c-0x553 (1319)
     |                                               |                |    transition_times[0:195]: 0x2c-0x338 (780)
0x020|                                    80 00 00 00|            ....|      [0]: "1901-12-13T20:45:52Z" (-2147483648) transition_time 0x2c-0x30 (4)
0x030|92 e6 aa a0                                    |....            |      [1]: "1912-01-01T02:00:00Z" (-1830376800) transition_time 0x30-0x34 (4)
0x030|            9b 4b 89 90                        |    .K..        |      [2]: "1916-06-18T01:00:00Z" (-1689548400) transition_time 0x34-0x38 (4)
0x030|                        9b fe e3 a0            |        ....    |      [3]: "1916-11-01T02:00:00Z" (-1677794400) transition_time 0x38-0x3c (4)
0x030|                                    9c 9d 09 90|            ....|      [4]: "1917-03-01T01:00:00Z" (-1667430000) transition_time 0x3c-0x40 (4)
0x040|9d c9 9f 90                                    |....            |      [5]: "1917-10-15T01:00:00Z" (-1647730800) transition_time 0x40-0x44 (4)
0x040|            9e 7f 8e 90                        |    ....        |      [6]: "1918-03-02T01:00:00Z" (-1635807600) transition_time 0x44-0x48 (4)
0x040|                        9f aa d3 10            |        ....    |      [7]: "1918-10-15T01:00:00Z" (-1616194800) transition_time 0x48-0x4c (4)
0x040|                                    a0 5f 70 90|            ._p.|      [8]: "1919-03-01T01:00:00Z" (-1604358000) transition_time 0x4c-0x50 (4)
0x050|a1 8c 06 90                                    |....            |      [9]: "1919-10-15T01:00:00Z" (-1584658800) transition_time 0x50-0x54 (4)
0x050|            a2 41 f5 90                        |    .A..        |      [10]: "1920-03-01T01:00:00Z" (-1572735600) transition_time 0x54-0x58 (4)
0x050|                        a3 6e 8b 90            |        .n..    |      [11]: "1920-10-15T01:00:00Z" (-1553036400) transition_time 0x58-0x5c (4)
0x050|                                    a4 23 29 10|            .#).|      [12]: "1921-03-01T01:00:00Z" (-1541199600) transition_time 0x5c-0x60 (4)
0x060|a5 4f bf 10                                    |.O..            |      [13]: "1921-10-15T01:00:00Z" (-1521500400) transition_time 0x60-0x64 (4)
0x060|            aa 06 0b 90                        |    ....        |      [14]: "1924-04-17T01:00:00Z" (-1442444400) transition_time 0x64-0x68 (4)
0x060|                        aa f4 ab 10            |        ....    |      [15]: "1924-10-15T01:00:00Z" (-1426806000) transition_time 0x68-0x6c (4)
0x060|                                    ad c9 c4 10|            ....|      [16]: "1926-04-18T01:00:00Z" (-1379286000) transition_time 0x6c-0x70 (4)
0x070|ae a7 40 10                                    |..@.            |      [17]: "1926-10-03T01:00:00Z" (-1364770800) transition_time 0x70-0x74 (4)
0x070|            af a0 6b 90                        |    ..k.        |      [18]: "1927-04-10T01:00:00Z" (-1348441200) transition_time 0x74-0x78 (4)
0x070|                        b0 87 22 10            |        ..".    |      [19]: "1927-10-02T01:00:00Z" (-1333321200) transition_time 0x78-0x7c (4)
0x070|                                    b1 89 88 10|            ....|      [20]: "1928-04-15T01:00:00Z" (-1316386800) transition_time 0x7c-0x80 (4)
0x080|b2 70 3e 90                                    |.p>.            |      [21]: "1928-10-07T01:00:00Z" (-1301266800) transition_time 0x80-0x84 (4)
0x080|            b3 72 a4 90                        |    .r..        |      [22]: "1929-04-21T01:00:00Z" (-1284332400) transition_time 0x84-0x88 (4)
0x080|                        b4 50 20 90            |        .P .    |      [23]: "1929-10-06T01:00:00Z" (-1269817200) transition_time 0x88-0x8c (4)
0x080|                                    b7 32 68 90|            .2h.|      [24]: "1931-04-19T01:00:00Z" (-1221433200) transition_time 0x8c-0x90 (4)
0x090|b8 0f e4 90                                    |....            |      [25]: "1931-10-04T01:00:00Z" (-1206918000) transition_time 0x90-0x94 (4)
0x090|            b8 ff d5 90                        |    ....        |      [26]: "1932-04-03T01:00:00Z" (-1191193200) transition_time 0x94-0x98 (4)
0x090|                        b9 ef c6 90            |        ....    |      [27]: "1932-10-02T01:00:00Z" (-1175468400) transition_time 0x98-0x9c (4)
0x090|                                    bc c8 d4 10|            ....|      [28]: "1934-04-08T01:00:00Z" (-1127689200) transition_time 0x9c-0xa0 (4)
0x0a0|bd b8 c5 10                                    |....            |      [29]: "1934-10-07T01:00:00Z" (-1111964400) transition_time 0xa0-0xa4 (4)
0x0a0|            be 9f 7b 90                        |    ..{.        |      [30]: "1935-03-31T01:00:00Z" (-1096844400) transition_time 0xa4-0xa8 (4)
0x0a0|                        bf 98 a7 10            |        ....    |      [31]: "1935-10-06T01:00:00Z" (-1080514800) transition_time 0xa8-0xac (4)
0x0a0|                                    c0 9b 0d 10|            ....|      [32]: "1936-04-19T01:00:00Z" (-1063580400) transition_time 0xac-0xb0 (4)
0x0b0|c1 78 89 10                                    |.x..            |      [33]: "1936-10-04T01:00:00Z" (-1049065200) transition_time 0xb0-0xb4 (4)
0x0b0|            c2 68 7a 10                        |    .hz.        |      [34]: "1937-04-04T01:00:00Z" (-1033340400) transition_time 0xb4-0xb8 (4)
0x0b0|                        c3 58 6b 10            |        .Xk.    |      [35]: "1937-10-03T01:00:00Z" (-1017615600) transition_time 0xb8-0xbc (4)
0x0b0|                                    c4 3f 21 90|            .?!.|      [36]: "1938-03-27T01:00:00Z" (-1002495600) transition_time 0xbc-0xc0 (4)
0x0c0|c5 38 4d 10                                    |.8M.            |      [37]: "1938-10-02T01:00:00Z" (-986166000) transition_time 0xc0-0xc4 (4)
0x0c0|            c6 3a b3 10                        |    .:..        |      [38]: "1939-04-16T01:00:00Z" (-969231600) transition_time 0xc4-0xc8 (4)
0x0c0|                        c7 58 c8 90            |        .X..    |      [39]: "1939-11-19T01:00:00Z" (-950482800) transition_time 0xc8-0xcc (4)
0x0c0|                                    c7 d9 fb 90|            ....|      [40]: "1940-02-25T01:00:00Z" (-942015600) transition_time 0xcc-0xd0 (4)
0x0d0|c9 01 4b 90                                    |..K.            |      [41]: "1940-10-06T01:00:00Z" (-922662000) transition_time 0xd0-0xd4 (4)
0x0d0|            c9 f1 3c 90                        |    ..<.        |      [42]: "1941-04-06T01:00:00Z" (-906937200) transition_time 0xd4-0xd8 (4)
0x0d0|                        ca e2 7f 10            |        ....    |      [43]: "1941-10-06T01:00:00Z" (-891126000) transition_time 0xd8-0xdc (4)
0x0d0|                                    cb b5 6f 10|            ..o.|      [44]: "1942-03-15T01:00:00Z" (-877302000) transition_time 0xdc-0xe0 (4)
0x0e0|cb ec c0 00                                    |....            |      [45]: "1942-04-26T00:00:00Z" (-873676800) transition_time 0xe0-0xe4 (4)
0x0e0|            cc 80 68 00                        |    ..h.        |      [46]: "1942-08-16T00:00:00Z" (-864000000) transition_time 0xe4-0xe8 (4)
0x0e0|                        cc dc bf 10            |        ....    |      [47]: "1942-10-25T01:00:00Z" (-857948400) transition_time 0xe8-0xec (4)
0x0e0|                                    cd 95 51 10|            ..Q.|      [48]: "1943-03-14T01:00:00Z" (-845852400) transition_time 0xec-0xf0 (4)
0x0f0|cd c3 67 80                                    |..g.            |      [49]: "1943-04-18T00:00:00Z" (-842832000) transition_time 0xf0-0xf4 (4)
0x0f0|            ce 72 bf 00                        |    .r..        |      [50]: "1943-08-29T00:00:00Z" (-831340800) transition_time 0xf4-0xf8 (4)
0x0f0|                        ce c5 db 90            |        ....    |      [51]: "1943-10-31T01:00:00Z" (-825894000) transition_time 0xf8-0xfc (4)
0x0f0|                                    cf 75 33 10|            .u3.|      [52]: "1944-03-12T01:00:00Z" (-814402800) transition_time 0xfc-0x100 (4)
0x100|cf ac 84 00                                    |....            |      [53]: "1944-04-23T00:00:00Z" (-810777600) transition_time 0x100-0x104 (4)
0x100|            d0 52 a1 00                        |    .R..        |      [54]: "1944-08-27T00:00:00Z" (-799891200) transition_time 0x104-0x108 (4)
0x100|                        d0 a5 bd 90            |        ....    |      [55]: "1944-10-29T01:00:00Z" (-794444400) transition_time 0x108-0x10c (4)
0x100|                                    d1 55 15 10|            .U..|      [56]: "1945-03-11T01:00:00Z" (-782953200) transition_time 0x10c-0x110 (4)
0x110|d1 8c 66 00                                    |..f.            |      [57]: "1945-04-22T00:00:00Z" (-779328000) transition_time 0x110-0x114 (4)
0x110|            d2 32 83 00                        |    .2..        |      [58]: "1945-08-26T00:00:00Z" (-768441600) transition_time 0x114-0x118 (4)
0x110|                        d2 85 9f 90            |        ....    |      [59]: "1945-10-28T01:00:00Z" (-762994800) transition_time 0x118-0x11c (4)
0x110|                                    d3 59 e1 10|            .Y..|      [60]: "1946-04-07T01:00:00Z" (-749084400) transition_time 0x11c-0x120 (4)
0x120|d4 49 d2 10                                    |.I..            |      [61]: "1946-10-06T01:00:00Z" (-733359600) transition_time 0x120-0x124 (4)
0x120|            d5 39 ed 40                        |    .9.@        |      [62]: "1947-04-06T04:00:00Z" (-717624000) transition_time 0x124-0x128 (4)
0x120|                        d6 29 de 40            |        .).@    |      [63]: "1947-10-05T04:00:00Z" (-701899200) transition_time 0x128-0x12c (4)
0x120|                                    d7 19 cf 40|            ...@|      [64]: "1948-04-04T04:00:00Z" (-686174400) transition_time 0x12c-0x130 (4)
0x130|d8 09 c0 40                                    |...@            |      [65]: "1948-10-03T04:00:00Z" (-670449600) transition_time 0x130-0x134 (4)
0x130|            d8 f9 b1 40                        |    ...@        |      [66]: "1949-04-03T04:00:00Z" (-654724800) transition_time 0x134-0x138 (4)
0x130|                        d9 e9 a2 40            |        ...@    |      [67]: "1949-10-02T04:00:00Z" (-639000000) transition_time 0x138-0x13c (4)
0x130|                                    da d9 93 40|            ...@|      [68]: "1950-04-02T04:00:00Z" (-623275200) transition_time 0x13c-0x140 (4)
0x140|db c9 84 40                                    |...@            |      [69]: "1950-10-01T04:00:00Z" (-607550400) transition_time 0x140-0x144 (4)
0x140|            dc b9 75 40                        |    ..u@        |      [70]: "1951-04-01T04:00:00Z" (-591825600) transition_time 0x144-0x148 (4)
0x140|                        dd b2 a0 c0            |        ....    |      [71]: "1951-10-07T04:00:00Z" (-575496000) transition_time 0x148-0x14c (4)
0x140|                                    de a2 91 c0|            ....|      [72]: "1952-04-06T04:00:00Z" (-559771200) transition_time 0x14c-0x150 (4)
0x150|df 92 82 c0                                    |....            |      [73]: "1952-10-05T04:00:00Z" (-544046400) transition_time 0x150-0x154 (4)
0x150|            e0 82 73 c0                        |    ..s.        |      [74]: "1953-04-05T04:00:00Z" (-528321600) transition_time 0x154-0x158 (4)
0x150|                        e1 72 64 c0            |        .rd.    |      [75]: "1953-10-04T04:00:00Z" (-512596800) transition_time 0x158-0x15c (4)
0x150|                                    e2 62 55 c0|            .bU.|      [76]: "1954-04-04T04:00:00Z" (-496872000) transition_time 0x15c-0x160 (4)
0x160|e3 52 46 c0                                    |.RF.            |      [77]: "1954-10-03T04:00:00Z" (-481147200) transition_time 0x160-0x164 (4)
0x160|            e4 42 37 c0                        |    .B7.        |      [78]: "1955-04-03T04:00:00Z" (-465422400) transition_time 0x164-0x168 (4)
0x160|                        e5 32 28 c0            |        .2(.    |      [79]: "1955-10-02T04:00:00Z" (-449697600) transition_time 0x168-0x16c (4)
0x160|                                    e6 22 19 c0|            ."..|      [80]: "1956-04-01T04:00:00Z" (-433972800) transition_time 0x16c-0x170 (4)
0x170|e7 1b 45 40                                    |..E@            |      [81]: "1956-10-07T04:00:00Z" (-417643200) transition_time 0x170-0x174 (4)
0x170|            e8 0b 36 40                        |    ..6@        |      [82]: "1957-04-07T04:00:00Z" (-401918400) transition_time 0x174-0x178 (4)
0x170|                        e8 fb 27 40            |        ..'@    |      [83]: "1957-10-06T04:00:00Z" (-386193600) transition_time 0x178-0x17c (4)
0x170|                                    e9 eb 18 40|            ...@|      [84]: "1958-04-06T04:00:00Z" (-370468800) transition_time 0x17c-0x180 (4)
0x180|ea db 09 40                                    |...@            |      [85]: "1958-10-05T04:00:00Z" (-354744000) transition_time 0x180-0x184 (4)
0x180|            eb ca fa 40                        |    ...@        |      [86]: "1959-04-05T04:00:00Z" (-339019200) transition_time 0x184-0x188 (4)
0x180|                        ec ba eb 40            |        ...@    |      [87]: "1959-10-04T04:00:00Z" (-323294400) transition_time 0x188-0x18c (4)
0x180|                                    ed aa dc 40|            ...@|      [88]: "1960-04-03T04:00:00Z" (-307569600) transition_time 0x18c-0x190 (4)
0x190|ee 9a cd 40                                    |...@            |      [89]: "1960-10-02T04:00:00Z" (-291844800) transition_time 0x190-0x194 (4)
0x190|            ef 8a be 40                        |    ...@        |      [90]: "1961-04-02T04:00:00Z" (-276120000) transition_time 0x194-0x198 (4)
0x190|                        f0 7a af 40            |        .z.@    |      [91]: "1961-10-01T04:00:00Z" (-260395200) transition_time 0x198-0x19c (4)
0x190|                                    f1 6a a0 40|            .j.@|      [92]: "1962-04-01T04:00:00Z" (-244670400) transition_time 0x19c-0x1a0 (4)
0x1a0|f2 63 cb c0                                    |.c..            |      [93]: "1962-10-07T04:00:00Z" (-228340800) transition_time 0x1a0-0x1a4 (4)
0x1a0|            f3 53 bc c0                        |    .S..        |      [94]: "1963-04-07T04:00:00Z" (-212616000) transition_time 0x1a4-0x1a8 (4)
0x1a0|                        f4 43 ad c0            |        .C..    |      [95]: "1963-10-06T04:00:00Z" (-196891200) transition_time 0x1a8-0x1ac (4)
0x1a0|                                    f5 33 9e c0|            .3..|      [96]: "1964-04-05T04:00:00Z" (-181166400) transition_time 0x1ac-0x1b0 (4)
0x1b0|f6 23 8f c0                                    |.#..            |      [97]: "1964-10-04T04:00:00Z" (-165441600) transition_time 0x1b0-0x1b4 (4)
0x1b0|            f7 13 80 c0                        |    ....        |      [98]: "1965-04-04T04:00:00Z" (-149716800) transition_time 0x1b4-0x1b8 (4)
0x1b0|                        f8 03 71 c0            |        ..q.    |      [99]: "1965-10-03T04:00:00Z" (-133992000) transition_time 0x1b8-0x1bc (4)
0x1b0|                                    f8 f3 62 c0|            ..b.|      [100]: "1966-04-03T04:00:00Z" (-118267200) transition_time 0x1bc-0x1c0 (4)
0x1c0|0d 9b 29 16                                    |..).            |      [101]: "1977-03-27T01:00:06Z" (228272406) transition_time 0x1c0-0x1c4 (4)
0x1c0|            0e 8b 1a 16                        |    ....        |      [102]: "1977-09-25T01:00:06Z" (243997206) transition_time 0x1c4-0x1c8 (4)
0x1c0|                        0f 84 45 97            |        ..E.    |      [103]: "1978-04-02T01:00:07Z" (260326807) transition_time 0x1c8-0x1cc (4)
0x1c0|                                    10 74 36 97|            .t6.|      [104]: "1978-10-01T01:00:07Z" (276051607) transition_time 0x1cc-0x1d0 (4)
0x1d0|11 64 27 98                                    |.d'.            |      [105]: "1979-04-01T01:00:08Z" (291776408) transition_time 0x1d0-0x1d4 (4)
0x1d0|            12 54 26 a8                        |    .T&.        |      [106]: "1979-09-30T02:00:08Z" (307504808) transition_time 0x1d4-0x1d8 (4)
0x1d0|                        13 44 09 99            |        .D..    |      [107]: "1980-03-30T01:00:09Z" (323226009) transition_time 0x1d8-0x1dc (4)
0x1d0|                                    14 34 08 a9|            .4..|      [108]: "1980-09-28T02:00:09Z" (338954409) transition_time 0x1dc-0x1e0 (4)
0x1e0|15 23 f9 a9                                    |.#..            |      [109]: "1981-03-29T02:00:09Z" (354679209) transition_time 0x1e0-0x1e4 (4)
0x1e0|            16 13 ea aa                        |    ....        |      [110]: "1981-09-27T02:00:10Z" (370404010) transition_time 0x1e4-0x1e8 (4)
0x1e0|                        17 03 db aa            |        ....    |      [111]: "1982-03-28T02:00:10Z" (386128810) transition_time 0x1e8-0x1ec (4)
0x1e0|                                    17 f3 cc ab|            ....|      [112]: "1982-09-26T02:00:11Z" (401853611) transition_time 0x1ec-0x1f0 (4)
0x1f0|18 e3 cb bb                                    |....            |      [113]: "1983-03-27T03:00:11Z" (417582011) transition_time 0x1f0-0x1f4 (4)
0x1f0|            19 d3 ae ac                        |    ....        |      [114]: "1983-09-25T02:00:12Z" (433303212) transition_time 0x1f4-0x1f8 (4)
0x1f0|                        1a c3 9f ac            |        ....    |      [115]: "1984-03-25T02:00:12Z" (449028012) transition_time 0x1f8-0x1fc (4)
0x1f0|                                    1b bc cb 2c|            ...,|      [116]: "1984-09-30T02:00:12Z" (465357612) transition_time 0x1fc-0x200 (4)
0x200|1c ac bc 2c                                    |...,            |      [117]: "1985-03-31T02:00:12Z" (481082412) transition_time 0x200-0x204 (4)
0x200|            1d 9c ad 2d                        |    ...-        |      [118]: "1985-09-29T02:00:13Z" (496807213) transition_time 0x204-0x208 (4)
0x200|                        1e 8c 9e 2d            |        ...-    |      [119]: "1986-03-30T02:00:13Z" (512532013) transition_time 0x208-0x20c (4)
0x200|                                    1f 7c 8f 2d|            .|.-|      [120]: "1986-09-28T02:00:13Z" (528256813) transition_time 0x20c-0x210 (4)
0x210|20 6c 80 2d                                    | l.-            |      [121]: "1987-03-29T02:00:13Z" (543981613) transition_time 0x210-0x214 (4)
0x210|            21 5c 71 2d                        |    !\q-        |      [122]: "1987-09-27T02:00:13Z" (559706413) transition_time 0x214-0x218 (4)
0x210|                        22 4c 62 2e            |        "Lb.    |      [123]: "1988-03-27T02:00:14Z" (575431214) transition_time 0x218-0x21c (4)
0x210|                                    23 3c 53 2e|            #<S.|      [124]: "1988-09-25T02:00:14Z" (591156014) transition_time 0x21c-0x220 (4)
0x220|24 2c 44 2e                                    |$,D.            |      [125]: "1989-03-26T02:00:14Z" (606880814) transition_time 0x220-0x224 (4)
0x220|            25 1c 35 2e                        |    %.5.        |      [126]: "1989-09-24T02:00:14Z" (622605614) transition_time 0x224-0x228 (4)
0x220|                        26 0c 26 2f            |        &.&/    |      [127]: "1990-03-25T02:00:15Z" (638330415) transition_time 0x228-0x22c (4)
0x220|                                    27 05 51 af|            '.Q.|      [128]: "1990-09-30T02:00:15Z" (654660015) transition_time 0x22c-0x230 (4)
0x230|27 f5 42 b0                                    |'.B.            |      [129]: "1991-03-31T02:00:16Z" (670384816) transition_time 0x230-0x234 (4)
0x230|            28 e5 33 b0                        |    (.3.        |      [130]: "1991-09-29T02:00:16Z" (686109616) transition_time 0x234-0x238 (4)
0x230|                        29 d5 24 b0            |        ).$.    |      [131]: "1992-03-29T02:00:16Z" (701834416) transition_time 0x238-0x23c (4)
0x230|                                    2a c5 15 b1|            *...|      [132]: "1992-09-27T02:00:17Z" (717559217) transition_time 0x23c-0x240 (4)
0x240|2b b4 f8 a1                                    |+...            |      [133]: "1993-03-28T01:00:17Z" (733280417) transition_time 0x240-0x244 (4)
0x240|            2c a4 e9 a2                        |    ,...        |      [134]: "1993-09-26T01:00:18Z" (749005218) transition_time 0x244-0x248 (4)
0x240|                        2d 94 da a2            |        -...    |      [135]: "1994-03-27T01:00:18Z" (764730018) transition_time 0x248-0x24c (4)
0x240|                                    2e 84 cb a3|            ....|      [136]: "1994-09-25T01:00:19Z" (780454819) transition_time 0x24c-0x250 (4)
0x250|2f 74 bc a3                                    |/t..            |      [137]: "1995-03-26T01:00:19Z" (796179619) transition_time 0x250-0x254 (4)
0x250|            30 64 ad a3                        |    0d..        |      [138]: "1995-09-24T01:00:19Z" (811904419) transition_time 0x254-0x258 (4)
0x250|                        31 5d d9 24            |        1].$    |      [139]: "1996-03-31T01:00:20Z" (828234020) transition_time 0x258-0x25c (4)
0x250|                                    32 72 b4 24|            2r.$|      [140]: "1996-10-27T01:00:20Z" (846378020) transition_time 0x25c-0x260 (4)
0x260|33 3d bb 24                                    |3=.$            |      [141]: "1997-03-30T01:00:20Z" (859683620) transition_time 0x260-0x264 (4)
0x260|            34 52 96 25                        |    4R.%        |      [142]: "1997-10-26T01:00:21Z" (877827621) transition_time 0x264-0x268 (4)
0x260|                        35 1d 9d 25            |        5..%    |      [143]: "1998-03-29T01:00:21Z" (891133221) transition_time 0x268-0x26c (4)
0x260|                                    36 32 78 25|            62x%|      [144]: "1998-10-25T01:00:21Z" (909277221) transition_time 0x26c-0x270 (4)
0x270|36 fd 7f 26                                    |6..&            |      [145]: "1999-03-28T01:00:22Z" (922582822) transition_time 0x270-0x274 (4)
0x270|            38 1b 94 a6                        |    8...        |      [146]: "1999-10-31T01:00:22Z" (941331622) transition_time 0x274-0x278 (4)
0x270|                        38 dd 61 26            |        8.a&    |      [147]: "2000-03-26T01:00:22Z" (954032422) transition_time 0x278-0x27c (4)
0x270|                                    39 fb 76 a6|            9.v.|      [148]: "2000-10-29T01:00:22Z" (972781222) transition_time 0x27c-0x280 (4)
0x280|3a bd 43 26                                    |:.C&            |      [149]: "2001-03-25T01:00:22Z" (985482022) transition_time 0x280-0x284 (4)
0x280|            3b db 58 a6                        |    ;.X.        |      [150]: "2001-10-28T01:00:22Z" (1004230822) transition_time 0x284-0x288 (4)
0x280|                        3c a6 5f a6            |        <._.    |      [151]: "2002-03-31T01:00:22Z" (1017536422) transition_time 0x288-0x28c (4)
0x280|                                    3d bb 3a a6|            =.:.|      [152]: "2002-10-27T01:00:22Z" (1035680422) transition_time 0x28c-0x290 (4)
0x290|3e 86 41 a6                                    |>.A.            |      [153]: "2003-03-30T01:00:22Z" (1048986022) transition_time 0x290-0x294 (4)
0x290|            3f 9b 1c a6                        |    ?...        |      [154]: "2003-10-26T01:00:22Z" (1067130022) transition_time 0x294-0x298 (4)
0x290|                        40 66 23 a6            |        @f#.    |      [155]: "2004-03-28T01:00:22Z" (1080435622) transition_time 0x298-0x29c (4)
0x290|                                    41 84 39 26|            A.9&|      [156]: "2004-10-31T01:00:22Z" (1099184422) transition_time 0x29c-0x2a0 (4)
0x2a0|42 46 05 a6                                    |BF..            |      [157]: "2005-03-27T01:00:22Z" (1111885222) transition_time 0x2a0-0x2a4 (4)
0x2a0|            43 64 1b 26                        |    Cd.&        |      [158]: "2005-10-30T01:00:22Z" (1130634022) transition_time 0x2a4-0x2a8 (4)
0x2a0|                        44 25 e7 a7            |        D%..    |      [159]: "2006-03-26T01:00:23Z" (1143334823) transition_time 0x2a8-0x2ac (4)
0x2a0|                                    45 43 fd 27|            EC.'|      [160]: "2006-10-29T01:00:23Z" (1162083623) transition_time 0x2ac-0x2b0 (4)
0x2b0|46 05 c9 a7                                    |F...            |      [161]: "2007-03-25T01:00:23Z" (1174784423) transition_time 0x2b0-0x2b4 (4)
0x2b0|            47 23 df 27                        |    G#.'        |      [162]: "2007-10-28T01:00:23Z" (1193533223) transition_time 0x2b4-0x2b8 (4)
0x2b0|                        47 ee e6 27            |        G..'    |      [163]: "2008-03-30T01:00:23Z" (1206838823) transition_time 0x2b8-0x2bc (4)
0x2b0|                                    49 03 c1 27|            I..'|      [164]: "2008-10-26T01:00:23Z" (1224982823) transition_time 0x2bc-0x2c0 (4)
0x2c0|49 ce c8 28                                    |I..(            |      [165]: "2009-03-29T01:00:24Z" (1238288424) transition_time 0x2c0-0x2c4 (4)
0x2c0|            4a e3 a3 28                        |    J..(        |      [166]: "2009-10-25T01:00:24Z" (1256432424) transition_time 0x2c4-0x2c8 (4)
0x2c0|                        4b ae aa 28            |        K..(    |      [167]: "2010-03-28T01:00:24Z" (1269738024) transition_time 0x2c8-0x2cc (4)
0x2c0|                                    4c cc bf a8|            L...|      [168]: "2010-10-31T01:00:24Z" (1288486824) transition_time 0x2cc-0x2d0 (4)
0x2d0|4d 8e 8c 28                                    |M..(            |      [169]: "2011-03-27T01:00:24Z" (1301187624) transition_time 0x2d0-0x2d4 (4)
0x2d0|            4e ac a1 a8                        |    N...        |      [170]: "2011-10-30T01:00:24Z" (1319936424) transition_time 0x2d4-0x2d8 (4)
0x2d0|                        4f 6e 6e 28            |        Onn(    |      [171]: "2012-03-25T01:00:24Z" (1332637224) transition_time 0x2d8-0x2dc (4)
0x2d0|                                    50 8c 83 a9|            P...|      [172]: "2012-10-28T01:00:25Z" (1351386025) transition_time 0x2dc-0x2e0 (4)
0x2e0|51 57 8a a9                                    |QW..            |      [173]: "2013-03-31T01:00:25Z" (1364691625) transition_time 0x2e0-0x2e4 (4)
0x2e0|            52 6c 65 a9                        |    Rle.        |      [174]: "2013-10-27T01:00:25Z" (1382835625) transition_time 0x2e4-0x2e8 (4)
0x2e0|                        53 37 6c a9            |        S7l.    |      [175]: "2014-03-30T01:00:25Z" (1396141225) transition_time 0x2e8-0x2ec (4)
0x2e0|                                    54 4c 47 a9|            TLG.|      [176]: "2014-10-26T01:00:25Z" (1414285225) transition_time 0x2ec-0x2f0 (4)
0x2f0|55 17 4e a9                                    |U.N.            |      [177]: "2015-03-29T01:00:25Z" (1427590825) transition_time 0x2f0-0x2f4 (4)
0x2f0|            56 2c 29 aa                        |    V,).        |      [178]: "2015-10-25T01:00:26Z" (1445734826) transition_time 0x2f4-0x2f8 (4)
0x2f0|                        56 f7 30 aa            |        V.0.    |      [179]: "2016-03-27T01:00:26Z" (1459040426) transition_time 0x2f8-0x2fc (4)
0x2f0|                                    58 15 46 2a|            X.F*|      [180]: "2016-10-30T01:00:26Z" (1477789226) transition_time 0x2fc-0x300 (4)
0x300|58 d7 12 ab                                    |X...            |      [181]: "2017-03-26T01:00:27Z" (1490490027) transition_time 0x300-0x304 (4)
0x300|            59 f5 28 2b                        |    Y.(+        |      [182]: "2017-10-29T01:00:27Z" (1509238827) transition_time 0x304-0x308 (4)
0x300|                        5a b6 f4 ab            |        Z...    |      [183]: "2018-03-25T01:00:27Z" (1521939627) transition_time 0x308-0x30c (4)
0x300|                                    5b d5 0a 2b|            [..+|      [184]: "2018-10-28T01:00:27Z" (1540688427) transition_time 0x30c-0x310 (4)
0x310|5c a0 11 2b                                    |\..+            |      [185]: "2019-03-31T01:00:27Z" (1553994027) transition_time 0x310-0x314 (4)
0x310|            5d b4 ec 2b                        |    ]..+        |      [186]: "2019-10-27T01:00:27Z" (1572138027) transition_time 0x314-0x318 (4)
0x310|                        5e 7f f3 2b            |        ^..+    |      [187]: "2020-03-29T01:00:27Z" (1585443627) transition_time 0x318-0x31c (4)
0x310|                                    5f 94 ce 2b|            _..+|      [188]: "2020-10-25T01:00:27Z" (1603587627) transition_time 0x31c-0x320 (4)
0x320|60 5f d5 2b                                    |`_.+            |      [189]: "2021-03-28T01:00:27Z" (1616893227) transition_time 0x320-0x324 (4)
0x320|            61 7d ea ab                        |    a}..        |      [190]: "2021-10-31T01:00:27Z" (1635642027) transition_time 0x324-0x328 (4)
0x320|                        62 3f b7 2b            |        b?.+    |      [191]: "2022-03-27T01:00:27Z" (1648342827) transition_time 0x328-0x32c (4)
0x320|                                    63 5d cc ab|            c]..|      [192]: "2022-10-30T01:00:27Z" (1667091627) transition_time 0x32c-0x330 (4)
0x330|64 1f 99 2b                                    |d..+            |      [193]: "2023-03-26T01:00:27Z" (1679792427) transition_time 0x330-0x334 (4)
0x330|            64 9b 78 1b                        |    d.x.        |      [194]: "2023-06-28T00:00:27Z" (1687910427) transition_time 0x334-0x338 (4)
     |                                               |                |    transition_types[0:195]: 0x338-0x3fb (195)
0x330|                        01                     |        .       |      [0]: 1 transition_type 0x338-0x339 (1)
0x330|                           06                  |         .      |      [1]: 6 transition_type 0x339-0x33a (1)
0x330|                              02               |          .     |      [2]: 2 transition_type 0x33a-0x33b (1)
0x330|                                 03            |           .    |      [3]: 3 transition_type 0x33b-0x33c (1)
0x330|                                    04         |            .   |      [4]: 4 transition_type 0x33c-0x33d (1)
0x330|                                       05      |             .  |      [5]: 5 transition_type 0x33d-0x33e (1)
0x330|                                          04   |              . |      [6]: 4 transition_type 0x33e-0x33f (1)
0x330|                                             05|               .|      [7]: 5 transition_type 0x33f-0x340 (1)
0x340|04                                             |.               |      [8]: 4 transition_type 0x340-0x341 (1)
0x340|   05                                          | .              |      [9]: 5 transition_type 0x341-0x342 (1)
0x340|      04                                       |  .             |      [10]: 4 transition_type 0x342-0x343 (1)
0x340|         05                                    |   .            |      [11]: 5 transition_type 0x343-0x344 (1)
0x340|            04                                 |    .           |      [12]: 4 transition_type 0x344-0x345 (1)
0x340|               05                              |     .          |      [13]: 5 transition_type 0x345-0x346 (1)
0x340|                  04                           |      .         |      [14]: 4 transition_type 0x346-0x347 (1)
0x340|                     05                        |       .        |      [15]: 5 transition_type 0x347-0x348 (1)
0x340|                        04                     |        .       |      [16]: 4 transition_type 0x348-0x349 (1)
0x340|                           05                  |         .      |      [17]: 5 transition_type 0x349-0x34a (1)
0x340|                              04               |          .     |      [18]: 4 transition_type 0x34a-0x34b (1)
0x340|                                 05            |           .    |      [19]: 5 transition_type 0x34b-0x34c (1)
0x340|                                    04         |            .   |      [20]: 4 transition_type 0x34c-0x34d (1)
0x340|                                       05      |             .  |      [21]: 5 transition_type 0x34d-0x34e (1)
0x340|                                          04   |              . |      [22]: 4 transition_type 0x34e-0x34f (1)
0x340|                                             05|               .|      [23]: 5 transition_type 0x34f-0x350 (1)
0x350|04                                             |.               |      [24]: 4 transition_type 0x350-0x351 (1)
0x350|   05                                          | .              |      [25]: 5 transition_type 0x351-0x352 (1)
0x350|      04                                       |  .             |      [26]: 4 transition_type 0x352-0x353 (1)
0x350|         05                                    |   .            |      [27]: 5 transition_type 0x353-0x354 (1)
0x350|            04                                 |    .           |      [28]: 4 transition_type 0x354-0x355 (1)
0x350|               05                              |     .          |      [29]: 5 transition_type 0x355-0x356 (1)
0x350|                  04                           |      .         |      [30]: 4 transition_type 0x356-0x357 (1)
0x350|                     05                        |       .        |      [31]: 5 transition_type 0x357-0x358 (1)
0x350|                        04                     |        .       |      [32]: 4 transition_type 0x358-0x359 (1)
0x350|                           05                  |         .      |      [33]: 5 transition_type 0x359-0x35a (1)
0x350|                              04               |          .     |      [34]: 4 transition_type 0x35a-0x35b (1)
0x350|                                 05            |           .    |      [35]: 5 transition_type 0x35b-0x35c (1)
0x350|                                    04         |            .   |      [36]: 4 transition_type 0x35c-0x35d (1)
0x350|                                       05      |             .  |      [37]: 5 transition_type 0x35d-0x35e (1)
0x350|                                          04   |              . |      [38]: 4 transition_type 0x35e-0x35f (1)
0x350|                                             05|               .|      [39]: 5 transition_type 0x35f-0x360 (1)
0x360|04                                             |.               |      [40]: 4 transition_type 0x360-0x361 (1)
0x360|   05                                          | .              |      [41]: 5 transition_type 0x361-0x362 (1)
0x360|      04                                       |  .             |      [42]: 4 transition_type 0x362-0x363 (1)
0x360|         05                                    |   .            |      [43]: 5 transition_type 0x363-0x364 (1)
0x360|            04                                 |    .           |      [44]: 4 transition_type 0x364-0x365 (1)
0x360|               07                              |     .          |      [45]: 7 transition_type 0x365-0x366 (1)
0x360|                  04                           |      .         |      [46]: 4 transition_type 0x366-0x367 (1)
0x360|                     05                        |       .        |      [47]: 5 transition_type 0x367-0x368 (1)
0x360|                        04                     |        .       |      [48]: 4 transition_type 0x368-0x369 (1)
0x360|                           07                  |         .      |      [49]: 7 transition_type 0x369-0x36a (1)
0x360|                              04               |          .     |      [50]: 4 transition_type 0x36a-0x36b (1)
0x360|                                 05            |           .    |      [51]: 5 transition_type 0x36b-0x36c (1)
0x360|                                    04         |            .   |      [52]: 4 transition_type 0x36c-0x36d (1)
0x360|                                       07      |             .  |      [53]: 7 transition_type 0x36d-0x36e (1)
0x360|                                          04   |              . |      [54]: 4 transition_type 0x36e-0x36f (1)
0x360|                                             05|               .|      [55]: 5 transition_type 0x36f-0x370 (1)
0x370|04                                             |.               |      [56]: 4 transition_type 0x370-0x371 (1)
0x370|   07                                          | .              |      [57]: 7 transition_type 0x371-0x372 (1)
0x370|      04                                       |  .             |      [58]: 4 transition_type 0x372-0x373 (1)
0x370|         05                                    |   .            |      [59]: 5 transition_type 0x373-0x374 (1)
0x370|            04                                 |    .           |      [60]: 4 transition_type 0x374-0x375 (1)
0x370|               05                              |     .          |      [61]: 5 transition_type 0x375-0x376 (1)
0x370|                  04                           |      .         |      [62]: 4 transition_type 0x376-0x377 (1)
0x370|                     05                        |       .        |      [63]: 5 transition_type 0x377-0x378 (1)
0x370|                        04                     |        .       |      [64]: 4 transition_type 0x378-0x379 (1)
0x370|                           05                  |         .      |      [65]: 5 transition_type 0x379-0x37a (1)
0x370|                              04               |          .     |      [66]: 4 transition_type 0x37a-0x37b (1)
0x370|                                 05            |           .    |      [67]: 5 transition_type 0x37b-0x37c (1)
0x370|                                    04         |            .   |      [68]: 4 transition_type 0x37c-0x37d (1)
0x370|                                       05      |             .  |      [69]: 5 transition_type 0x37d-0x37e (1)
0x370|                                          04   |              . |      [70]: 4 transition_type 0x37e-0x37f (1)
0x370|                                             05|               .|      [71]: 5 transition_type 0x37f-0x380 (1)
0x380|04                                             |.               |      [72]: 4 transition_type 0x380-0x381 (1)
0x380|   05                                          | .              |      [73]: 5 transition_type 0x381-0x382 (1)
0x380|      04                                       |  .             |      [74]: 4 transition_type 0x382-0x383 (1)
0x380|         05                                    |   .            |      [75]: 5 transition_type 0x383-0x384 (1)
0x380|            04                                 |    .           |      [76]: 4 transition_type 0x384-0x385 (1)
0x380|               05                              |     .          |      [77]: 5 transition_type 0x385-0x386 (1)
0x380|                  04                           |      .         |      [78]: 4 transition_type 0x386-0x387 (1)
0x380|                     05                        |       .        |      [79]: 5 transition_type 0x387-0x388 (1)
0x380|                        04                     |        .       |      [80]: 4 transition_type 0x388-0x389 (1)
0x380|                           05                  |         .      |      [81]: 5 transition_type 0x389-0x38a (1)
0x380|                              04               |          .     |      [82]: 4 transition_type 0x38a-0x38b (1)
0x380|                                 05            |           .    |      [83]: 5 transition_type 0x38b-0x38c (1)
0x380|                                    04         |            .   |      [84]: 4 transition_type 0x38c-0x38d (1)
0x380|                                       05      |             .  |      [85]: 5 transition_type 0x38d-0x38e (1)
0x380|                                          04   |              . |      [86]: 4 transition_type 0x38e-0x38f (1)
0x380|                                             05|               .|      [87]: 5 transition_type 0x38f-0x390 (1)
0x390|04                                             |.               |      [88]: 4 transition_type 0x390-0x391 (1)
0x390|   05                                          | .              |      [89]: 5 transition_type 0x391-0x392 (1)
0x390|      04                                       |  .             |      [90]: 4 transition_type 0x392-0x393 (1)
0x390|         05                                    |   .            |      [91]: 5 transition_type 0x393-0x394 (1)
0x390|            04                                 |    .           |      [92]: 4 transition_type 0x394-0x395 (1)
0x390|               05                              |     .          |      [93]: 5 transition_type 0x395-0x396 (1)
0x390|                  04                           |      .         |      [94]: 4 transition_type 0x396-0x397 (1)
0x390|                     05                        |       .        |      [95]: 5 transition_type 0x397-0x398 (1)
0x390|                        04                     |        .       |      [96]: 4 transition_type 0x398-0x399 (1)
0x390|                           05                  |         .      |      [97]: 5 transition_type 0x399-0x39a (1)
0x390|                              04               |          .     |      [98]: 4 transition_type 0x39a-0x39b (1)
0x390|                                 05            |           .    |      [99]: 5 transition_type 0x39b-0x39c (1)
0x390|                                    09         |            .   |      [100]: 9 transition_type 0x39c-0x39d (1)
0x390|                                       07      |             .  |      [101]: 7 transition_type 0x39d-0x39e (1)
0x390|                                          08   |              . |      [102]: 8 transition_type 0x39e-0x39f (1)
0x390|                                             07|               .|      [103]: 7 transition_type 0x39f-0x3a0 (1)
0x3a0|08                                             |.               |      [104]: 8 transition_type 0x3a0-0x3a1 (1)
0x3a0|   07                                          | .              |      [105]: 7 transition_type 0x3a1-0x3a2 (1)
0x3a0|      08                                       |  .             |      [106]: 8 transition_type 0x3a2-0x3a3 (1)
0x3a0|         07                                    |   .            |      [107]: 7 transition_type 0x3a3-0x3a4 (1)
0x3a0|            08                                 |    .           |      [108]: 8 transition_type 0x3a4-0x3a5 (1)
0x3a0|               07                              |     .          |      [109]: 7 transition_type 0x3a5-0x3a6 (1)
0x3a0|                  08                           |      .         |      [110]: 8 transition_type 0x3a6-0x3a7 (1)
0x3a0|                     07                        |       .        |      [111]: 7 transition_type 0x3a7-0x3a8 (1)
0x3a0|                        08                     |        .       |      [112]: 8 transition_type 0x3a8-0x3a9 (1)
0x3a0|                           07                  |         .      |      [113]: 7 transition_type 0x3a9-0x3aa (1)
0x3a0|                              08               |          .     |      [114]: 8 transition_type 0x3aa-0x3ab (1)
0x3a0|                                 07            |           .    |      [115]: 7 transition_type 0x3ab-0x3ac (1)
0x3a0|                                    08         |            .   |      [116]: 8 transition_type 0x3ac-0x3ad (1)
0x3a0|                                       07      |             .  |      [117]: 7 transition_type 0x3ad-0x3ae (1)
0x3a0|                                          08   |              . |      [118]: 8 transition_type 0x3ae-0x3af (1)
0x3a0|                                             07|               .|      [119]: 7 transition_type 0x3af-0x3b0 (1)
0x3b0|08                                             |.               |      [120]: 8 transition_type 0x3b0-0x3b1 (1)
0x3b0|   07                                          | .              |      [121]: 7 transition_type 0x3b1-0x3b2 (1)
0x3b0|      08                                       |  .             |      [122]: 8 transition_type 0x3b2-0x3b3 (1)
0x3b0|         07                                    |   .            |      [123]: 7 transition_type 0x3b3-0x3b4 (1)
0x3b0|            08                                 |    .           |      [124]: 8 transition_type 0x3b4-0x3b5 (1)
0x3b0|               07                              |     .          |      [125]: 7 transition_type 0x3b5-0x3b6 (1)
0x3b0|                  08                           |      .         |      [126]: 8 transition_type 0x3b6-0x3b7 (1)
0x3b0|                     07                        |       .        |      [127]: 7 transition_type 0x3b7-0x3b8 (1)
0x3b0|                        08                     |        .       |      [128]: 8 transition_type 0x3b8-0x3b9 (1)
0x3b0|                           07                  |         .      |      [129]: 7 transition_type 0x3b9-0x3ba (1)
0x3b0|                              08               |          .     |      [130]: 8 transition_type 0x3ba-0x3bb (1)
0x3b0|                                 07            |           .    |      [131]: 7 transition_type 0x3bb-0x3bc (1)
0x3b0|                                    0a         |            .   |      [132]: 10 transition_type 0x3bc-0x3bd (1)
0x3b0|                                       0b      |             .  |      [133]: 11 transition_type 0x3bd-0x3be (1)
0x3b0|                                          0c   |              . |      [134]: 12 transition_type 0x3be-0x3bf (1)
0x3b0|                                             0b|               .|      [135]: 11 transition_type 0x3bf-0x3c0 (1)
0x3c0|0c                                             |.               |      [136]: 12 transition_type 0x3c0-0x3c1 (1)
0x3c0|   0b                                          | .              |      [137]: 11 transition_type 0x3c1-0x3c2 (1)
0x3c0|      0c                                       |  .             |      [138]: 12 transition_type 0x3c2-0x3c3 (1)
0x3c0|         0b                                    |   .            |      [139]: 11 transition_type 0x3c3-0x3c4 (1)
0x3c0|            0c                                 |    .           |      [140]: 12 transition_type 0x3c4-0x3c5 (1)
0x3c0|               0b                              |     .          |      [141]: 11 transition_type 0x3c5-0x3c6 (1)
0x3c0|                  0c                           |      .         |      [142]: 12 transition_type 0x3c6-0x3c7 (1)
0x3c0|                     0b                        |       .        |      [143]: 11 transition_type 0x3c7-0x3c8 (1)
0x3c0|                        0c                     |        .       |      [144]: 12 transition_type 0x3c8-0x3c9 (1)
0x3c0|                           0b                  |         .      |      [145]: 11 transition_type 0x3c9-0x3ca (1)
0x3c0|                              0c               |          .     |      [146]: 12 transition_type 0x3ca-0x3cb (1)
0x3c0|                                 0b            |           .    |      [147]: 11 transition_type 0x3cb-0x3cc (1)
0x3c0|                                    0c         |            .   |      [148]: 12 transition_type 0x3cc-0x3cd (1)
0x3c0|                                       0b      |             .  |      [149]: 11 transition_type 0x3cd-0x3ce (1)
0x3c0|                                          0c   |              . |      [150]: 12 transition_type 0x3ce-0x3cf (1)
0x3c0|                                             0b|               .|      [151]: 11 transition_type 0x3cf-0x3d0 (1)
0x3d0|0c                                             |.               |      [152]: 12 transition_type 0x3d0-0x3d1 (1)
0x3d0|   0b                                          | .              |      [153]: 11 transition_type 0x3d1-0x3d2 (1)
0x3d0|      0c                                       |  .             |      [154]: 12 transition_type 0x3d2-0x3d3 (1)
0x3d0|         0b                                    |   .            |      [155]: 11 transition_type 0x3d3-0x3d4 (1)
0x3d0|            0c                                 |    .           |      [156]: 12 transition_type 0x3d4-0x3d5 (1)
0x3d0|               0b                              |     .          |      [157]: 11 transition_type 0x3d5-0x3d6 (1)
0x3d0|                  0c                           |      .         |      [158]: 12 transition_type 0x3d6-0x3d7 (1)
0x3d0|                     0b                        |       .        |      [159]: 11 transition_type 0x3d7-0x3d8 (1)
0x3d0|                        0c                     |        .       |      [160]: 12 transition_type 0x3d8-0x3d9 (1)
0x3d0|                           0b                  |         .      |      [161]: 11 transition_type 0x3d9-0x3da (1)
0x3d0|                              0c               |          .     |      [162]: 12 transition_type 0x3da-0x3db (1)
0x3d0|                                 0b            |           .    |      [163]: 11 transition_type 0x3db-0x3dc (1)
0x3d0|                                    0c         |            .   |      [164]: 12 transition_type 0x3dc-0x3dd (1)
0x3d0|                                       0b      |             .  |      [165]: 11 transition_type 0x3dd-0x3de (1)
0x3d0|                                          0c   |              . |      [166]: 12 transition_type 0x3de-0x3df (1)
0x3d0|                                             0b|               .|      [167]: 11 transition_type 0x3df-0x3e0 (1)
0x3e0|0c                                             |.               |      [168]: 12 transition_type 0x3e0-0x3e1 (1)
0x3e0|   0b                                          | .              |      [169]: 11 transition_type 0x3e1-0x3e2 (1)
0x3e0|      0c                                       |  .             |      [170]: 12 transition_type 0x3e2-0x3e3 (1)
0x3e0|         0b                                    |   .            |      [171]: 11 transition_type 0x3e3-0x3e4 (1)
0x3e0|            0c                                 |    .           |      [172]: 12 transition_type 0x3e4-0x3e5 (1)
0x3e0|               0b                              |     .          |      [173]: 11 transition_type 0x3e5-0x3e6 (1)
0x3e0|                  0c                           |      .         |      [174]: 12 transition_type 0x3e6-0x3e7 (1)
0x3e0|                     0b                        |       .        |      [175]: 11 transition_type 0x3e7-0x3e8 (1)
0x3e0|                        0c                     |        .       |      [176]: 12 transition_type 0x3e8-0x3e9 (1)
0x3e0|                           0b                  |         .      |      [177]: 11 transition_type 0x3e9-0x3ea (1)
0x3e0|                              0c               |          .     |      [178]: 12 transition_type 0x3ea-0x3eb (1)
0x3e0|                                 0b            |           .    |      [179]: 11 transition_type 0x3eb-0x3ec (1)
0x3e0|                                    0c         |            .   |      [180]: 12 transition_type 0x3ec-0x3ed (1)
0x3e0|                                       0b      |             .  |      [181]: 11 transition_type 0x3ed-0x3ee (1)
0x3e0|                                          0c   |              . |      [182]: 12 transition_type 0x3ee-0x3ef (1)
0x3e0|                                             0b|               .|      [183]: 11 transition_type 0x3ef-0x3f0 (1)
0x3f0|0c                                             |.               |      [184]: 12 transition_type 0x3f0-0x3f1 (1)
0x3f0|   0b                                          | .              |      [185]: 11 transition_type 0x3f1-0x3f2 (1)
0x3f0|      0c                                       |  .             |      [186]: 12 transition_type 0x3f2-0x3f3 (1)
0x3f0|         0b                                    |   .            |      [187]: 11 transition_type 0x3f3-0x3f4 (1)
0x3f0|            0c                                 |    .           |      [188]: 12 transition_type 0x3f4-0x3f5 (1)
0x3f0|               0b                              |     .          |      [189]: 11 transition_type 0x3f5-0x3f6 (1)
0x3f0|                  0c                           |      .         |      [190]: 12 transition_type 0x3f6-0x3f7 (1)
0x3f0|                     0b                        |       .        |      [191]: 11 transition_type 0x3f7-0x3f8 (1)
0x3f0|                        0c                     |        .       |      [192]: 12 transition_type 0x3f8-0x3f9 (1)
0x3f0|                           0b                  |         .      |      [193]: 11 transition_type 0x3f9-0x3fa (1)
0x3f0|                              0b               |          .     |      [194]: 11 transition_type 0x3fa-0x3fb (1)
     |                                               |                |    local_time_type_records[0:13]: 0x3fb-0x449 (78)
     |                                               |                |      [0]{}: local_time_type 0x3fb-0x401 (6)
0x3f0|                                 ff ff e7 f0   |           .... |        utoff: -6160 (valid) 0x3fb-0x3ff (4)
0x3f0|                                             00|               .|        dst: 0 (valid) 0x3ff-0x400 (1)
0x400|00                                             |.               |        idx: 0 (valid) 0x400-0x401 (1)
     |                                               |                |      [1]{}: local_time_type 0x401-0x407 (6)
0x400|   ff ff e5 28                                 | ...(           |        utoff: -6872 (valid) 0x401-0x405 (4)
0x400|               00                              |     .          |        dst: 0 (valid) 0x405-0x406 (1)
0x400|                  04                           |      .         |        idx: 4 (valid) 0x406-0x407 (1)
     |                                               |                |      [2]{}: local_time_type 0x407-0x40d (6)
0x400|                     ff ff f1 f0               |       ....     |        utoff: -3600 (valid) 0x407-0x40b (4)
0x400|                                 01            |           .    |        dst: 1 (valid) 0x40b-0x40c (1)
0x400|                                    08         |            .   |        idx: 8 (valid) 0x40c-0x40d (1)
     |                                               |                |      [3]{}: local_time_type 0x40d-0x413 (6)
0x400|                                       ff ff e3|             ...|        utoff: -7200 (valid) 0x40d-0x411 (4)
0x410|e0                                             |.               |
0x410|   00                                          | .              |        dst: 0 (valid) 0x411-0x412 (1)
0x410|      0c                                       |  .             |        idx: 12 (valid) 0x412-0x413 (1)
     |                                               |                |      [4]{}: local_time_type 0x413-0x419 (6)
0x410|         ff ff f1 f0                           |   ....         |        utoff: -3600 (valid) 0x413-0x417 (4)
0x410|                     01                        |       .        |        dst: 1 (valid) 0x417-0x418 (1)
0x410|                        08                     |        .       |        idx: 8 (valid) 0x418-0x419 (1)
     |                                               |                |      [5]{}: local_time_type 0x419-0x41f (6)
0x410|                           ff ff e3 e0         |         ....   |        utoff: -7200 (valid) 0x419-0x41d (4)
0x410|                                       00      |             .  |        dst: 0 (valid) 0x41d-0x41e (1)
0x410|                                          0c   |              . |        idx: 12 (valid) 0x41e-0x41f (1)
     |                                               |                |      [6]{}: local_time_type 0x41f-0x425 (6)
0x410|                                             ff|               .|        utoff: -7200 (valid) 0x41f-0x423 (4)
0x420|ff e3 e0                                       |...             |
0x420|         00                                    |   .            |        dst: 0 (valid) 0x423-0x424 (1)
0x420|            0c                                 |    .           |        idx: 12 (valid) 0x424-0x425 (1)
     |                                               |                |      [7]{}: local_time_type 0x425-0x42b (6)
0x420|               00 00 00 00                     |     ....       |        utoff: 0 (valid) 0x425-0x429 (4)
0x420|                           01                  |         .      |        dst: 1 (valid) 0x429-0x42a (1)
0x420|                              10               |          .     |        idx: 16 (valid) 0x42a-0x42b (1)
     |                                               |                |      [8]{}: local_time_type 0x42b-0x431 (6)
0x420|                                 ff ff f1 f0   |           .... |        utoff: -3600 (valid) 0x42b-0x42f (4)
0x420|                                             00|               .|        dst: 0 (valid) 0x42f-0x430 (1)
0x430|08                                             |.               |        idx: 8 (valid) 0x430-0x431 (1)
     |                                               |                |      [9]{}: local_time_type 0x431-0x437 (6)
0x430|   ff ff f1 f0                                 | ....           |        utoff: -3600 (valid) 0x431-0x435 (4)
0x430|               00                              |     .          |        dst: 0 (valid) 0x435-0x436 (1)
0x430|                  08                           |      .         |        idx: 8 (valid) 0x436-0x437 (1)
     |                                               |                |      [10]{}: local_time_type 0x437-0x43d (6)
0x430|                     00 00 00 00               |       ....     |        utoff: 0 (valid) 0x437-0x43b (4)
0x430|                                 00            |           .    |        dst: 0 (valid) 0x43b-0x43c (1)
0x430|                                    14         |            .   |        idx: 20 (valid) 0x43c-0x43d (1)
     |                                               |                |      [11]{}: local_time_type 0x43d-0x443 (6)
0x430|                                       00 00 00|             ...|        utoff: 0 (valid) 0x43d-0x441 (4)
0x440|00                                             |.               |
0x440|   01                                          | .              |        dst: 1 (valid) 0x441-0x442 (1)
0x440|      10                                       |  .             |        idx: 16 (valid) 0x442-0x443 (1)
     |                                               |                |      [12]{}: local_time_type 0x443-0x449 (6)
0x440|         ff ff f1 f0                           |   ....         |        utoff: -3600 (valid) 0x443-0x447 (4)
0x440|                     00                        |       .        |        dst: 0 (valid) 0x447-0x448 (1)
0x440|                        08                     |        .       |        idx: 8 (valid) 0x448-0x449 (1)
     |                                               |                |    time_zone_designations[0:6]: 0x449-0x461 (24)
0x440|                           4c 4d 54 00         |         LMT.   |      [0]: "LMT" time_zone_designation 0x449-0x44d (4)
0x440|                                       48 4d 54|             HMT|      [1]: "HMT" time_zone_designation 0x44d-0x451 (4)
0x450|00                                             |.               |
0x450|   2d 30 31 00                                 | -01.           |      [2]: "-01" time_zone_designation 0x451-0x455 (4)
0x450|               2d 30 32 00                     |     -02.       |      [3]: "-02" time_zone_designation 0x455-0x459 (4)
0x450|                           2b 30 30 00         |         +00.   |      [4]: "+00" time_zone_designation 0x459-0x45d (4)
0x450|                                       57 45 54|             WET|      [5]: "WET" time_zone_designation 0x45d-0x461 (4)
0x460|00                                             |.               |
     |                                               |                |    leap_second_records[0:27]: 0x461-0x539 (216)
     |                                               |                |      [0]{}: leap_second_record 0x461-0x469 (8)
0x460|   04 b2 58 00                                 | ..X.           |        occur: "1972-07-01T00:00:00Z" (78796800) 0x461-0x465 (4)
0x460|               00 00 00 01                     |     ....       |        corr: 1 0x465-0x469 (4)
     |                                               |                |      [1]{}: leap_second_record 0x469-0x471 (8)
0x460|                           05 a4 ec 01         |         ....   |        occur: "1973-01-01T00:00:01Z" (94694401) 0x469-0x46d (4)
0x460|                                       00 00 00|             ...|        corr: 2 0x46d-0x471 (4)
0x470|02                                             |.               |
     |                                               |                |      [2]{}: leap_second_record 0x471-0x479 (8)
0x470|   07 86 1f 82                                 | ....           |        occur: "1974-01-01T00:00:02Z" (126230402) 0x471-0x475 (4)
0x470|               00 00 00 03                     |     ....       |        corr: 3 0x475-0x479 (4)
     |                                               |                |      [3]{}: leap_second_record 0x479-0x481 (8)
0x470|                           09 67 53 03         |         .gS.   |        occur: "1975-01-01T00:00:03Z" (157766403) 0x479-0x47d (4)
0x470|                                       00 00 00|             ...|        corr: 4 0x47d-0x481 (4)
0x480|04                                             |.               |
     |                                               |                |      [4]{}: leap_second_record 0x481-0x489 (8)
0x480|   0b 48 86 84                                 | .H..           |        occur: "1976-01-01T00:00:04Z" (189302404) 0x481-0x485 (4)
0x480|               00 00 00 05                     |     ....       |        corr: 5 0x485-0x489 (4)
     |                                               |                |      [5]{}: leap_second_record 0x489-0x491 (8)
0x480|                           0d 2b 0b 85         |         .+..   |        occur: "1977-01-01T00:00:05Z" (220924805) 0x489-0x48d (4)
0x480|                                       00 00 00|             ...|        corr: 6 0x48d-0x491 (4)
0x490|06                                             |.               |
     |                                               |                |      [6]{}: leap_second_record 0x491-0x499 (8)
0x490|   0f 0c 3f 06                                 | ..?.           |        occur: "1978-01-01T00:00:06Z" (252460806) 0x491-0x495 (4)
0x490|               00 00 00 07                     |     ....       |        corr: 7 0x495-0x499 (4)
     |                                               |                |      [7]{}: leap_second_record 0x499-0x4a1 (8)
0x490|                           10 ed 72 87         |         ..r.   |        occur: "1979-01-01T00:00:07Z" (283996807) 0x499-0x49d (4)
0x490|                                       00 00 00|             ...|        corr: 8 0x49d-0x4a1 (4)
0x4a0|08                                             |.               |
     |                                               |                |      [8]{}: leap_second_record 0x4a1-0x4a9 (8)
0x4a0|   12 ce a6 08                                 | ....           |        occur: "1980-01-01T00:00:08Z" (315532808) 0x4a1-0x4a5 (4)
0x4a0|               00 00 00 09                     |     ....       |        corr: 9 0x4a5-0x4a9 (4)
     |                                               |                |      [9]{}: leap_second_record 0x4a9-0x4b1 (8)
0x4a0|                           15 9f ca 89         |         ....   |        occur: "1981-07-01T00:00:09Z" (362793609) 0x4a9-0x4ad (4)
0x4a0|                                       00 00 00|             ...|        corr: 10 0x4ad-0x4b1 (4)
0x4b0|0a                                             |.               |
     |                                               |                |      [10]{}: leap_second_record 0x4b1-0x4b9 (8)
0x4b0|   17 80 fe 0a                                 | ....           |        occur: "1982-07-01T00:00:10Z" (394329610) 0x4b1-0x4b5 (4)
0x4b0|               00 00 00 0b                     |     ....       |        corr: 11 0x4b5-0x4b9 (4)
     |                                               |                |      [11]{}: leap_second_record 0x4b9-0x4c1 (8)
0x4b0|                           19 62 31 8b         |         .b1.   |        occur: "1983-07-01T00:00:11Z" (425865611) 0x4b9-0x4bd (4)
0x4b0|                                       00 00 00|             ...|        corr: 12 0x4bd-0x4c1 (4)
0x4c0|0c                                             |.               |
     |                                               |                |      [12]{}: leap_second_record 0x4c1-0x4c9 (8)
0x4c0|   1d 25 ea 0c                                 | .%..           |        occur: "1985-07-01T00:00:12Z" (489024012) 0x4c1-0x4c5 (4)
0x4c0|               00 00 00 0d                     |     ....       |        corr: 13 0x4c5-0x4c9 (4)
     |                                               |                |      [13]{}: leap_second_record 0x4c9-0x4d1 (8)
0x4c0|                           21 da e5 0d         |         !...   |        occur: "1988-01-01T00:00:13Z" (567993613) 0x4c9-0x4cd (4)
0x4c0|                                       00 00 00|             ...|        corr: 14 0x4cd-0x4d1 (4)
0x4d0|0e                                             |.               |
     |                                               |                |      [14]{}: leap_second_record 0x4d1-0x4d9 (8)
0x4d0|   25 9e 9d 8e                                 | %...           |        occur: "1990-01-01T00:00:14Z" (631152014) 0x4d1-0x4d5 (4)
0x4d0|               00 00 00 0f                     |     ....       |        corr: 15 0x4d5-0x4d9 (4)
     |                                               |                |      [15]{}: leap_second_record 0x4d9-0x4e1 (8)
0x4d0|                           27 7f d1 0f         |         '...   |        occur: "1991-01-01T00:00:15Z" (662688015) 0x4d9-0x4dd (4)
0x4d0|                                       00 00 00|             ...|        corr: 16 0x4dd-0x4e1 (4)
0x4e0|10                                             |.               |
     |                                               |                |      [16]{}: leap_second_record 0x4e1-0x4e9 (8)
0x4e0|   2a 50 f5 90                                 | *P..           |        occur: "1992-07-01T00:00:16Z" (709948816) 0x4e1-0x4e5 (4)
0x4e0|               00 00 00 11                     |     ....       |        corr: 17 0x4e5-0x4e9 (4)
     |                                               |                |      [17]{}: leap_second_record 0x4e9-0x4f1 (8)
0x4e0|                           2c 32 29 11         |         ,2).   |        occur: "1993-07-01T00:00:17Z" (741484817) 0x4e9-0x4ed (4)
0x4e0|                                       00 00 00|             ...|        corr: 18 0x4ed-0x4f1 (4)
0x4f0|12                                             |.               |
     |                                               |                |      [18]{}: leap_second_record 0x4f1-0x4f9 (8)
0x4f0|   2e 13 5c 92                                 | ..\.           |        occur: "1994-07-01T00:00:18Z" (773020818) 0x4f1-0x4f5 (4)
0x4f0|               00 00 00 13                     |     ....       |        corr: 19 0x4f5-0x4f9 (4)
     |                                               |                |      [19]{}: leap_second_record 0x4f9-0x501 (8)
0x4f0|                           30 e7 24 13         |         0.$.   |        occur: "1996-01-01T00:00:19Z" (820454419) 0x4f9-0x4fd (4)
0x4f0|                                       00 00 00|             ...|        corr: 20 0x4fd-0x501 (4)
0x500|14                                             |.               |
     |                                               |                |      [20]{}: leap_second_record 0x501-0x509 (8)
0x500|   33 b8 48 94                                 | 3.H.           |        occur: "1997-07-01T00:00:20Z" (867715220) 0x501-0x505 (4)
0x500|               00 00 00 15                     |     ....       |        corr: 21 0x505-0x509 (4)
     |                                               |                |      [21]{}: leap_second_record 0x509-0x511 (8)
0x500|                           36 8c 10 15         |         6...   |        occur: "1999-01-01T00:00:21Z" (915148821) 0x509-0x50d (4)
0x500|                                       00 00 00|             ...|        corr: 22 0x50d-0x511 (4)
0x510|16                                             |.               |
     |                                               |                |      [22]{}: leap_second_record 0x511-0x519 (8)
0x510|   43 b7 1b 96                                 | C...           |        occur: "2006-01-01T00:00:22Z" (1136073622) 0x511-0x515 (4)
0x510|               00 00 00 17                     |     ....       |        corr: 23 0x515-0x519 (4)
     |                                               |                |      [23]{}: leap_second_record 0x519-0x521 (8)
0x510|                           49 5c 07 97         |         I\..   |        occur: "2009-01-01T00:00:23Z" (1230768023) 0x519-0x51d (4)
0x510|                                       00 00 00|             ...|        corr: 24 0x51d-0x521 (4)
0x520|18                                             |.               |
     |                                               |                |      [24]{}: leap_second_record 0x521-0x529 (8)
0x520|   4f ef 93 18                                 | O...           |        occur: "2012-07-01T00:00:24Z" (1341100824) 0x521-0x525 (4)
0x520|               00 00 00 19                     |     ....       |        corr: 25 0x525-0x529 (4)
     |                                               |                |      [25]{}: leap_second_record 0x529-0x531 (8)
0x520|                           55 93 2d 99         |         U.-.   |        occur: "2015-07-01T00:00:25Z" (1435708825) 0x529-0x52d (4)
0x520|                                       00 00 00|             ...|        corr: 26 0x52d-0x531 (4)
0x530|1a                                             |.               |
     |                                               |                |      [26]{}: leap_second_record 0x531-0x539 (8)
0x530|   58 68 46 9a                                 | XhF.           |        occur: "2017-01-01T00:00:26Z" (1483228826) 0x531-0x535 (4)
0x530|               00 00 00 1b                     |     ....       |        corr: 27 0x535-0x539 (4)
     |                                               |                |    standard_wall_indicators[0:13]: 0x539-0x546 (13)
0x530|                           00                  |         .      |      [0]: 0 standard_wall_indicator (valid) 0x539-0x53a (1)
0x530|                              00               |          .     |      [1]: 0 standard_wall_indicator (valid) 0x53a-0x53b (1)
0x530|                                 00            |           .    |      [2]: 0 standard_wall_indicator (valid) 0x53b-0x53c (1)
0x530|                                    00         |            .   |      [3]: 0 standard_wall_indicator (valid) 0x53c-0x53d (1)
0x530|                                       01      |             .  |      [4]: 1 standard_wall_indicator (valid) 0x53d-0x53e (1)
0x530|                                          01   |              . |      [5]: 1 standard_wall_indicator (valid) 0x53e-0x53f (1)
0x530|                                             01|               .|      [6]: 1 standard_wall_indicator (valid) 0x53f-0x540 (1)
0x540|01                                             |.               |      [7]: 1 standard_wall_indicator (valid) 0x540-0x541 (1)
0x540|   01                                          | .              |      [8]: 1 standard_wall_indicator (valid) 0x541-0x542 (1)
0x540|      00                                       |  .             |      [9]: 0 standard_wall_indicator (valid) 0x542-0x543 (1)
0x540|         01                                    |   .            |      [10]: 1 standard_wall_indicator (valid) 0x543-0x544 (1)
0x540|            01                                 |    .           |      [11]: 1 standard_wall_indicator (valid) 0x544-0x545 (1)
0x540|               01                              |     .          |      [12]: 1 standard_wall_indicator (valid) 0x545-0x546 (1)
     |                                               |                |    ut_local_indicators[0:13]: 0x546-0x553 (13)
0x540|                  00                           |      .         |      [0]: 0 ut_local_indicator (valid) 0x546-0x547 (1)
0x540|                     00                        |       .        |      [1]: 0 ut_local_indicator (valid) 0x547-0x548 (1)
0x540|                        00                     |        .       |      [2]: 0 ut_local_indicator (valid) 0x548-0x549 (1)
0x540|                           00                  |         .      |      [3]: 0 ut_local_indicator (valid) 0x549-0x54a (1)
0x540|                              00               |          .     |      [4]: 0 ut_local_indicator (valid) 0x54a-0x54b (1)
0x540|                                 00            |           .    |      [5]: 0 ut_local_indicator (valid) 0x54b-0x54c (1)
0x540|                                    01         |            .   |      [6]: 1 ut_local_indicator (valid) 0x54c-0x54d (1)
0x540|                                       00      |             .  |      [7]: 0 ut_local_indicator (valid) 0x54d-0x54e (1)
0x540|                                          00   |              . |      [8]: 0 ut_local_indicator (valid) 0x54e-0x54f (1)
0x540|                                             00|               .|      [9]: 0 ut_local_indicator (valid) 0x54f-0x550 (1)
0x550|00                                             |.               |      [10]: 0 ut_local_indicator (valid) 0x550-0x551 (1)
0x550|   01                                          | .              |      [11]: 1 ut_local_indicator (valid) 0x551-0x552 (1)
0x550|      01                                       |  .             |      [12]: 1 ut_local_indicator (valid) 0x552-0x553 (1)
     |                                               |                |  v2plusheader{}: 0x553-0x57f (44)
0x550|         54 5a 69 66                           |   TZif         |    magic: 0x545a6966 (valid) 0x553-0x557 (4)
0x550|                     32                        |       2        |    ver: "2" (0x32) (valid) 0x557-0x558 (1)
0x550|                        00 00 00 00 00 00 00 00|        ........|    reserved: raw bits 0x558-0x567 (15)
0x560|00 00 00 00 00 00 00                           |.......         |
0x560|                     00 00 00 0d               |       ....     |    isutcnt: 13 0x567-0x56b (4)
0x560|                                 00 00 00 0d   |           .... |    isstdcnt: 13 0x56b-0x56f (4)
0x560|                                             00|               .|    leapcnt: 27 0x56f-0x573 (4)
0x570|00 00 1b                                       |...             |
0x570|         00 00 00 c3                           |   ....         |    timecnt: 195 0x573-0x577 (4)
0x570|                     00 00 00 0d               |       ....     |    typecnt: 13 0x577-0x57b (4)
0x570|                                 00 00 00 18   |           .... |    charcnt: 24 0x57b-0x57f (4)
     |                                               |                |  v2plusdatablock{}: 0x57f-0xe1e (2207)
     |                                               |                |    transition_times[0:195]: 0x57f-0xb97 (1560)
0x570|                                             ff|               .|      [0]: "1884-01-01T01:42:40Z" (-2713904240) transition_time 0x57f-0x587 (8)
0x580|ff ff ff 5e 3d 1b 90                           |...^=..         |
0x580|                     ff ff ff ff 92 e6 aa a0   |       ........ |      [1]: "1912-01-01T02:00:00Z" (-1830376800) transition_time 0x587-0x58f (8)
0x580|                                             ff|               .|      [2]: "1916-06-18T01:00:00Z" (-1689548400) transition_time 0x58f-0x597 (8)
0x590|ff ff ff 9b 4b 89 90                           |....K..         |
0x590|                     ff ff ff ff 9b fe e3 a0   |       ........ |      [3]: "1916-11-01T02:00:00Z" (-1677794400) transition_time 0x597-0x59f (8)
0x590|                                             ff|               .|      [4]: "1917-03-01T01:00:00Z" (-1667430000) transition_time 0x59f-0x5a7 (8)
0x5a0|ff ff ff 9c 9d 09 90                           |.......         |
0x5a0|                     ff ff ff ff 9d c9 9f 90   |       ........ |      [5]: "1917-10-15T01:00:00Z" (-1647730800) transition_time 0x5a7-0x5af (8)
0x5a0|                                             ff|               .|      [6]: "1918-03-02T01:00:00Z" (-1635807600) transition_time 0x5af-0x5b7 (8)
0x5b0|ff ff ff 9e 7f 8e 90                           |.......         |
0x5b0|                     ff ff ff ff 9f aa d3 10   |       ........ |      [7]: "1918-10-15T01:00:00Z" (-1616194800) transition_time 0x5b7-0x5bf (8)
0x5b0|                                             ff|               .|      [8]: "1919-03-01T01:00:00Z" (-1604358000) transition_time 0x5bf-0x5c7 (8)
0x5c0|ff ff ff a0 5f 70 90                           |...._p.         |
0x5c0|                     ff ff ff ff a1 8c 06 90   |       ........ |      [9]: "1919-10-15T01:00:00Z" (-1584658800) transition_time 0x5c7-0x5cf (8)
0x5c0|                                             ff|               .|      [10]: "1920-03-01T01:00:00Z" (-1572735600) transition_time 0x5cf-0x5d7 (8)
0x5d0|ff ff ff a2 41 f5 90                           |....A..         |
0x5d0|                     ff ff ff ff a3 6e 8b 90   |       .....n.. |      [11]: "1920-10-15T01:00:00Z" (-1553036400) transition_time 0x5d7-0x5df (8)
0x5d0|                                             ff|               .|      [12]: "1921-03-01T01:00:00Z" (-1541199600) transition_time 0x5df-0x5e7 (8)
0x5e0|ff ff ff a4 23 29 10                           |....#).         |
0x5e0|                     ff ff ff ff a5 4f bf 10   |       .....O.. |      [13]: "1921-10-15T01:00:00Z" (-1521500400) transition_time 0x5e7-0x5ef (8)
0x5e0|                                             ff|               .|      [14]: "1924-04-17T01:00:00Z" (-1442444400) transition_time 0x5ef-0x5f7 (8)
0x5f0|ff ff ff aa 06 0b 90                           |.......         |
0x5f0|                     ff ff ff ff aa f4 ab 10   |       ........ |      [15]: "1924-10-15T01:00:00Z" (-1426806000) transition_time 0x5f7-0x5ff (8)
0x5f0|                                             ff|               .|      [16]: "1926-04-18T01:00:00Z" (-1379286000) transition_time 0x5ff-0x607 (8)
0x600|ff ff ff ad c9 c4 10                           |.......         |
0x600|                     ff ff ff ff ae a7 40 10   |       ......@. |      [17]: "1926-10-03T01:00:00Z" (-1364770800) transition_time 0x607-0x60f (8)
0x600|                                             ff|               .|      [18]: "1927-04-10T01:00:00Z" (-1348441200) transition_time 0x60f-0x617 (8)
0x610|ff ff ff af a0 6b 90                           |.....k.         |
0x610|                     ff ff ff ff b0 87 22 10   |       ......". |      [19]: "1927-10-02T01:00:00Z" (-1333321200) transition_time 0x617-0x61f (8)
0x610|                                             ff|               .|      [20]: "1928-04-15T01:00:00Z" (-1316386800) transition_time 0x61f-0x627 (8)
0x620|ff ff ff b1 89 88 10                           |.......         |
0x620|                     ff ff ff ff b2 70 3e 90   |       .....p>. |      [21]: "1928-10-07T01:00:00Z" (-1301266800) transition_time 0x627-0x62f (8)
0x620|                                             ff|               .|      [22]: "1929-04-21T01:00:00Z" (-1284332400) transition_time 0x62f-0x637 (8)
0x630|ff ff ff b3 72 a4 90                           |....r..         |
0x630|                     ff ff ff ff b4 50 20 90   |       .....P . |      [23]: "1929-10-06T01:00:00Z" (-1269817200) transition_time 0x637-0x63f (8)
0x630|                                             ff|               .|      [24]: "1931-04-19T01:00:00Z" (-1221433200) transition_time 0x63f-0x647 (8)
0x640|ff ff ff b7 32 68 90                           |....2h.         |
0x640|                     ff ff ff ff b8 0f e4 90   |       ........ |      [25]: "1931-10-04T01:00:00Z" (-1206918000) transition_time 0x647-0x64f (8)
0x640|                                             ff|               .|      [26]: "1932-04-03T01:00:00Z" (-1191193200) transition_time 0x64f-0x657 (8)
0x650|ff ff ff b8 ff d5 90                           |.......         |
0x650|                     ff ff ff ff b9 ef c6 90   |       ........ |      [27]: "1932-10-02T01:00:00Z" (-1175468400) transition_time 0x657-0x65f (8)
0x650|                                             ff|               .|      [28]: "1934-04-08T01:00:00Z" (-1127689200) transition_time 0x65f-0x667 (8)
0x660|ff ff ff bc c8 d4 10                           |.......         |
0x660|                     ff ff ff ff bd b8 c5 10   |       ........ |      [29]: "1934-10-07T01:00:00Z" (-1111964400) transition_time 0x667-0x66f (8)
0x660|                                             ff|               .|      [30]: "1935-03-31T01:00:00Z" (-1096844400) transition_time 0x66f-0x677 (8)
0x670|ff ff ff be 9f 7b 90                           |.....{.         |
0x670|                     ff ff ff ff bf 98 a7 10   |       ........ |      [31]: "1935-10-06T01:00:00Z" (-1080514800) transition_time 0x677-0x67f (8)
0x670|                                             ff|               .|      [32]: "1936-04-19T01:00:00Z" (-1063580400) transition_time 0x67f-0x687 (8)
0x680|ff ff ff c0 9b 0d 10                           |.......         |
0x680|                     ff ff ff ff c1 78 89 10   |       .....x.. |      [33]: "1936-10-04T01:00:00Z" (-1049065200) transition_time 0x687-0x68f (8)
0x680|                                             ff|               .|      [34]: "1937-04-04T01:00:00Z" (-1033340400) transition_time 0x68f-0x697 (8)
0x690|ff ff ff c2 68 7a 10                           |....hz.         |
0x690|                     ff ff ff ff c3 58 6b 10   |       .....Xk. |      [35]: "1937-10-03T01:00:00Z" (-1017615600) transition_time 0x697-0x69f (8)
0x690|                                             ff|               .|      [36]: "1938-03-27T01:00:00Z" (-1002495600) transition_time 0x69f-0x6a7 (8)
0x6a0|ff ff ff c4 3f 21 90                           |....?!.         |
0x6a0|                     ff ff ff ff c5 38 4d 10   |       .....8M. |      [37]: "1938-10-02T01:00:00Z" (-986166000) transition_time 0x6a7-0x6af (8)
0x6a0|                                             ff|               .|      [38]: "1939-04-16T01:00:00Z" (-969231600) transition_time 0x6af-0x6b7 (8)
0x6b0|ff ff ff c6 3a b3 10                           |....:..         |
0x6b0|                     ff ff ff ff c7 58 c8 90   |       .....X.. |      [39]: "1939-11-19T01:00:00Z" (-950482800) transition_time 0x6b7-0x6bf (8)
0x6b0|                                             ff|               .|      [40]: "1940-02-25T01:00:00Z" (-942015600) transition_time 0x6bf-0x6c7 (8)
0x6c0|ff ff ff c7 d9 fb 90                           |.......         |
0x6c0|                     ff ff ff ff c9 01 4b 90   |       ......K. |      [41]: "1940-10-06T01:00:00Z" (-922662000) transition_time 0x6c7-0x6cf (8)
0x6c0|                                             ff|               .|      [42]: "1941-04-06T01:00:00Z" (-906937200) transition_time 0x6cf-0x6d7 (8)
0x6d0|ff ff ff c9 f1 3c 90                           |.....<.         |
0x6d0|                     ff ff ff ff ca e2 7f 10   |       ........ |      [43]: "1941-10-06T01:00:00Z" (-891126000) transition_time 0x6d7-0x6df (8)
0x6d0|                                             ff|               .|      [44]: "1942-03-15T01:00:00Z" (-877302000) transition_time 0x6df-0x6e7 (8)
0x6e0|ff ff ff cb b5 6f 10                           |.....o.         |
0x6e0|                     ff ff ff ff cb ec c0 00   |       ........ |      [45]: "1942-04-26T00:00:00Z" (-873676800) transition_time 0x6e7-0x6ef (8)
0x6e0|                                             ff|               .|      [46]: "1942-08-16T00:00:00Z" (-864000000) transition_time 0x6ef-0x6f7 (8)
0x6f0|ff ff ff cc 80 68 00                           |.....h.         |
0x6f0|                     ff ff ff ff cc dc bf 10   |       ........ |      [47]: "1942-10-25T01:00:00Z" (-857948400) transition_time 0x6f7-0x6ff (8)
0x6f0|                                             ff|               .|      [48]: "1943-03-14T01:00:00Z" (-845852400) transition_time 0x6ff-0x707 (8)
0x700|ff ff ff cd 95 51 10                           |.....Q.         |
0x700|                     ff ff ff ff cd c3 67 80   |       ......g. |      [49]: "1943-04-18T00:00:00Z" (-842832000) transition_time 0x707-0x70f (8)
0x700|                                             ff|               .|      [50]: "1943-08-29T00:00:00Z" (-831340800) transition_time 0x70f-0x717 (8)
0x710|ff ff ff ce 72 bf 00                           |....r..         |
0x710|                     ff ff ff ff ce c5 db 90   |       ........ |      [51]: "1943-10-31T01:00:00Z" (-825894000) transition_time 0x717-0x71f (8)
0x710|                                             ff|               .|      [52]: "1944-03-12T01:00:00Z" (-814402800) transition_time 0x71f-0x727 (8)
0x720|ff ff ff cf 75 33 10                           |....u3.         |
0x720|                     ff ff ff ff cf ac 84 00   |       ........ |      [53]: "1944-04-23T00:00:00Z" (-810777600) transition_time 0x727-0x72f (8)
0x720|                                             ff|               .|      [54]: "1944-08-27T00:00:00Z" (-799891200) transition_time 0x72f-0x737 (8)
0x730|ff ff ff d0 52 a1 00                           |....R..         |
0x730|                     ff ff ff ff d0 a5 bd 90   |       ........ |      [55]: "1944-10-29T01:00:00Z" (-794444400) transition_time 0x737-0x73f (8)
0x730|                                             ff|               .|      [56]: "1945-03-11T01:00:00Z" (-782953200) transition_time 0x73f-0x747 (8)
0x740|ff ff ff d1 55 15 10                           |....U..         |
0x740|                     ff ff ff ff d1 8c 66 00   |       ......f. |      [57]: "1945-04-22T00:00:00Z" (-779328000) transition_time 0x747-0x74f (8)
0x740|                                             ff|               .|      [58]: "1945-08-26T00:00:00Z" (-768441600) transition_time 0x74f-0x757 (8)
0x750|ff ff ff d2 32 83 00                           |....2..         |
0x750|                     ff ff ff ff d2 85 9f 90   |       ........ |      [59]: "1945-10-28T01:00:00Z" (-762994800) transition_time 0x757-0x75f (8)
0x750|                                             ff|               .|      [60]: "1946-04-07T01:00:00Z" (-749084400) transition_time 0x75f-0x767 (8)
0x760|ff ff ff d3 59 e1 10                           |....Y..         |
0x760|                     ff ff ff ff d4 49 d2 10   |       .....I.. |      [61]: "1946-10-06T01:00:00Z" (-733359600) transition_time 0x767-0x76f (8)
0x760|                                             ff|               .|      [62]: "1947-04-06T04:00:00Z" (-717624000) transition_time 0x76f-0x777 (8)
0x770|ff ff ff d5 39 ed 40                           |....9.@         |
0x770|                     ff ff ff ff d6 29 de 40   |       .....).@ |      [63]: "1947-10-05T04:00:00Z" (-701899200) transition_time 0x777-0x77f (8)
0x770|                                             ff|               .|      [64]: "1948-04-04T04:00:00Z" (-686174400) transition_time 0x77f-0x787 (8)
0x780|ff ff ff d7 19 cf 40                           |......@         |
0x780|                     ff ff ff ff d8 09 c0 40   |       .......@ |      [65]: "1948-10-03T04:00:00Z" (-670449600) transition_time 0x787-0x78f (8)
0x780|                                             ff|               .|      [66]: "1949-04-03T04:00:00Z" (-654724800) transition_time 0x78f-0x797 (8)
0x790|ff ff ff d8 f9 b1 40                           |......@         |
0x790|                     ff ff ff ff d9 e9 a2 40   |       .......@ |      [67]: "1949-10-02T04:00:00Z" (-639000000) transition_time 0x797-0x79f (8)
0x790|                                             ff|               .|      [68]: "1950-04-02T04:00:00Z" (-623275200) transition_time 0x79f-0x7a7 (8)
0x7a0|ff ff ff da d9 93 40                           |......@         |
0x7a0|                     ff ff ff ff db c9 84 40   |       .......@ |      [69]: "1950-10-01T04:00:00Z" (-607550400) transition_time 0x7a7-0x7af (8)
0x7a0|                                             ff|               .|      [70]: "1951-04-01T04:00:00Z" (-591825600) transition_time 0x7af-0x7b7 (8)
0x7b0|ff ff ff dc b9 75 40                           |.....u@         |
0x7b0|                     ff ff ff ff dd b2 a0 c0   |       ........ |      [71]: "1951-10-07T04:00:00Z" (-575496000) transition_time 0x7b7-0x7bf (8)
0x7b0|                                             ff|               .|      [72]: "1952-04-06T04:00:00Z" (-559771200) transition_time 0x7bf-0x7c7 (8)
0x7c0|ff ff ff de a2 91 c0                           |.......         |
0x7c0|                     ff ff ff ff df 92 82 c0   |       ........ |      [73]: "1952-10-05T04:00:00Z" (-544046400) transition_time 0x7c7-0x7cf (8)
0x7c0|                                             ff|               .|      [74]: "1953-04-05T04:00:00Z" (-528321600) transition_time 0x7cf-0x7d7 (8)
0x7d0|ff ff ff e0 82 73 c0                           |.....s.         |
0x7d0|                     ff ff ff ff e1 72 64 c0   |       .....rd. |      [75]: "1953-10-04T04:00:00Z" (-512596800) transition_time 0x7d7-0x7df (8)
0x7d0|                                             ff|               .|      [76]: "1954-04-04T04:00:00Z" (-496872000) transition_time 0x7df-0x7e7 (8)
0x7e0|ff ff ff e2 62 55 c0                           |....bU.         |
0x7e0|                     ff ff ff ff e3 52 46 c0   |       .....RF. |      [77]: "1954-10-03T04:00:00Z" (-481147200) transition_time 0x7e7-0x7ef (8)
0x7e0|                                             ff|               .|      [78]: "1955-04-03T04:00:00Z" (-465422400) transition_time 0x7ef-0x7f7 (8)
0x7f0|ff ff ff e4 42 37 c0                           |....B7.         |
0x7f0|                     ff ff ff ff e5 32 28 c0   |       .....2(. |      [79]: "1955-10-02T04:00:00Z" (-449697600) transition_time 0x7f7-0x7ff (8)
0x7f0|                                             ff|               .|      [80]: "1956-04-01T04:00:00Z" (-433972800) transition_time 0x7ff-0x807 (8)
0x800|ff ff ff e6 22 19 c0                           |...."..         |
0x800|                     ff ff ff ff e7 1b 45 40   |       ......E@ |      [81]: "1956-10-07T04:00:00Z" (-417643200) transition_time 0x807-0x80f (8)
0x800|                                             ff|               .|      [82]: "1957-04-07T04:00:00Z" (-401918400) transition_time 0x80f-0x817 (8)
0x810|ff ff ff e8 0b 36 40                           |.....6@         |
0x810|                     ff ff ff ff e8 fb 27 40   |       ......'@ |      [83]: "1957-10-06T04:00:00Z" (-386193600) transition_time 0x817-0x81f (8)
0x810|                                             ff|               .|      [84]: "1958-04-06T04:00:00Z" (-370468800) transition_time 0x81f-0x827 (8)
0x820|ff ff ff e9 eb 18 40                           |......@         |
0x820|                     ff ff ff ff ea db 09 40   |       .......@ |      [85]: "1958-10-05T04:00:00Z" (-354744000) transition_time 0x827-0x82f (8)
0x820|                                             ff|               .|      [86]: "1959-04-05T04:00:00Z" (-339019200) transition_time 0x82f-0x837 (8)
0x830|ff ff ff eb ca fa 40                           |......@         |
0x830|                     ff ff ff ff ec ba eb 40   |       .......@ |      [87]: "1959-10-04T04:00:00Z" (-323294400) transition_time 0x837-0x83f (8)
0x830|                                             ff|               .|      [88]: "1960-04-03T04:00:00Z" (-307569600) transition_time 0x83f-0x847 (8)
0x840|ff ff ff ed aa dc 40                           |......@         |
0x840|                     ff ff ff ff ee 9a cd 40   |       .......@ |      [89]: "1960-10-02T04:00:00Z" (-291844800) transition_time 0x847-0x84f (8)
0x840|                                             ff|               .|      [90]: "1961-04-02T04:00:00Z" (-276120000) transition_time 0x84f-0x857 (8)
0x850|ff ff ff ef 8a be 40                           |......@         |
0x850|                     ff ff ff ff f0 7a af 40   |       .....z.@ |      [91]: "1961-10-01T04:00:00Z" (-260395200) transition_time 0x857-0x85f (8)
0x850|                                             ff|               .|      [92]: "1962-04-01T04:00:00Z" (-244670400) transition_time 0x85f-0x867 (8)
0x860|ff ff ff f1 6a a0 40                           |....j.@         |
0x860|                     ff ff ff ff f2 63 cb c0   |       .....c.. |      [93]: "1962-10-07T04:00:00Z" (-228340800) transition_time 0x867-0x86f (8)
0x860|                                             ff|               .|      [94]: "1963-04-07T04:00:00Z" (-212616000) transition_time 0x86f-0x877 (8)
0x870|ff ff ff f3 53 bc c0                           |....S..         |
0x870|                     ff ff ff ff f4 43 ad c0   |       .....C.. |      [95]: "1963-10-06T04:00:00Z" (-196891200) transition_time 0x877-0x87f (8)
0x870|                                             ff|               .|      [96]: "1964-04-05T04:00:00Z" (-181166400) transition_time 0x87f-0x887 (8)
0x880|ff ff ff f5 33 9e c0                           |....3..         |
0x880|                     ff ff ff ff f6 23 8f c0   |       .....#.. |      [97]: "1964-10-04T04:00:00Z" (-165441600) transition_time 0x887-0x88f (8)
0x880|                                             ff|               .|      [98]: "1965-04-04T04:00:00Z" (-149716800) transition_time 0x88f-0x897 (8)
0x890|ff ff ff f7 13 80 c0                           |.......         |
0x890|                     ff ff ff ff f8 03 71 c0   |       ......q. |      [99]: "1965-10-03T04:00:00Z" (-133992000) transition_time 0x897-0x89f (8)
0x890|                                             ff|               .|      [100]: "1966-04-03T04:00:00Z" (-118267200) transition_time 0x89f-0x8a7 (8)
0x8a0|ff ff ff f8 f3 62 c0                           |.....b.         |
0x8a0|                     00 00 00 00 0d 9b 29 16   |       ......). |      [101]: "1977-03-27T01:00:06Z" (228272406) transition_time 0x8a7-0x8af (8)
0x8a0|                                             00|               .|      [102]: "1977-09-25T01:00:06Z" (243997206) transition_time 0x8af-0x8b7 (8)
0x8b0|00 00 00 0e 8b 1a 16                           |.......         |
0x8b0|                     00 00 00 00 0f 84 45 97   |       ......E. |      [103]: "1978-04-02T01:00:07Z" (260326807) transition_time 0x8b7-0x8bf (8)
0x8b0|                                             00|               .|      [104]: "1978-10-01T01:00:07Z" (276051607) transition_time 0x8bf-0x8c7 (8)
0x8c0|00 00 00 10 74 36 97                           |....t6.         |
0x8c0|                     00 00 00 00 11 64 27 98   |       .....d'. |      [105]: "1979-04-01T01:00:08Z" (291776408) transition_time 0x8c7-0x8cf (8)
0x8c0|                                             00|               .|      [106]: "1979-09-30T02:00:08Z" (307504808) transition_time 0x8cf-0x8d7 (8)
0x8d0|00 00 00 12 54 26 a8                           |....T&.         |
0x8d0|                     00 00 00 00 13 44 09 99   |       .....D.. |      [107]: "1980-03-30T01:00:09Z" (323226009) transition_time 0x8d7-0x8df (8)
0x8d0|                                             00|               .|      [108]: "1980-09-28T02:00:09Z" (338954409) transition_time 0x8df-0x8e7 (8)
0x8e0|00 00 00 14 34 08 a9                           |....4..         |
0x8e0|                     00 00 00 00 15 23 f9 a9   |       .....#.. |      [109]: "1981-03-29T02:00:09Z" (354679209) transition_time 0x8e7-0x8ef (8)
0x8e0|                                             00|               .|      [110]: "1981-09-27T02:00:10Z" (370404010) transition_time 0x8ef-0x8f7 (8)
0x8f0|00 00 00 16 13 ea aa                           |.......         |
0x8f0|                     00 00 00 00 17 03 db aa   |       ........ |      [111]: "1982-03-28T02:00:10Z" (386128810) transition_time 0x8f7-0x8ff (8)
0x8f0|                                             00|               .|      [112]: "1982-09-26T02:00:11Z" (401853611) transition_time 0x8ff-0x907 (8)
0x900|00 00 00 17 f3 cc ab                           |.......         |
0x900|                     00 00 00 00 18 e3 cb bb   |       ........ |      [113]: "1983-03-27T03:00:11Z" (417582011) transition_time 0x907-0x90f (8)
0x900|                                             00|               .|      [114]: "1983-09-25T02:00:12Z" (433303212) transition_time 0x90f-0x917 (8)
0x910|00 00 00 19 d3 ae ac                           |.......         |
0x910|                     00 00 00 00 1a c3 9f ac   |       ........ |      [115]: "1984-03-25T02:00:12Z" (449028012) transition_time 0x917-0x91f (8)
0x910|                                             00|               .|      [116]: "1984-09-30T02:00:12Z" (465357612) transition_time 0x91f-0x927 (8)
0x920|00 00 00 1b bc cb 2c                           |......,         |
0x920|                     00 00 00 00 1c ac bc 2c   |       ......., |      [117]: "1985-03-31T02:00:12Z" (481082412) transition_time 0x927-0x92f (8)
0x920|                                             00|               .|      [118]: "1985-09-29T02:00:13Z" (496807213) transition_time 0x92f-0x937 (8)
0x930|00 00 00 1d 9c ad 2d                           |......-         |
0x930|                     00 00 00 00 1e 8c 9e 2d   |       .......- |      [119]: "1986-03-30T02:00:13Z" (512532013) transition_time 0x937-0x93f (8)
0x930|                                             00|               .|      [120]: "1986-09-28T02:00:13Z" (528256813) transition_time 0x93f-0x947 (8)
0x940|00 00 00 1f 7c 8f 2d                           |....|.-         |
0x940|                     00 00 00 00 20 6c 80 2d   |       .... l.- |      [121]: "1987-03-29T02:00:13Z" (543981613) transition_time 0x947-0x94f (8)
0x940|                                             00|               .|      [122]: "1987-09-27T02:00:13Z" (559706413) transition_time 0x94f-0x957 (8)
0x950|00 00 00 21 5c 71 2d                           |...!\q-         |
0x950|                     00 00 00 00 22 4c 62 2e   |       ...."Lb. |      [123]: "1988-03-27T02:00:14Z" (575431214) transition_time 0x957-0x95f (8)
0x950|                                             00|               .|      [124]: "1988-09-25T02:00:14Z" (591156014) transition_time 0x95f-0x967 (8)
0x960|00 00 00 23 3c 53 2e                           |...#<S.         |
0x960|                     00 00 00 00 24 2c 44 2e   |       ....$,D. |      [125]: "1989-03-26T02:00:14Z" (606880814) transition_time 0x967-0x96f (8)
0x960|                                             00|               .|      [126]: "1989-09-24T02:00:14Z" (622605614) transition_time 0x96f-0x977 (8)
0x970|00 00 00 25 1c 35 2e                           |...%.5.         |
0x970|                     00 00 00 00 26 0c 26 2f   |       ....&.&/ |      [127]: "1990-03-25T02:00:15Z" (638330415) transition_time 0x977-0x97f (8)
0x970|                                             00|               .|      [128]: "1990-09-30T02:00:15Z" (654660015) transition_time 0x97f-0x987 (8)
0x980|00 00 00 27 05 51 af                           |...'.Q.         |
0x980|                     00 00 00 00 27 f5 42 b0   |       ....'.B. |      [129]: "1991-03-31T02:00:16Z" (670384816) transition_time 0x987-0x98f (8)
0x980|                                             00|               .|      [130]: "1991-09-29T02:00:16Z" (686109616) transition_time 0x98f-0x997 (8)
0x990|00 00 00 28 e5 33 b0                           |...(.3.         |
0x990|                     00 00 00 00 29 d5 24 b0   |       ....).$. |      [131]: "1992-03-29T02:00:16Z" (701834416) transition_time 0x997-0x99f (8)
0x990|                                             00|               .|      [132]: "1992-09-27T02:00:17Z" (717559217) transition_time 0x99f-0x9a7 (8)
0x9a0|00 00 00 2a c5 15 b1                           |...*...         |
0x9a0|                     00 00 00 00 2b b4 f8 a1   |       ....+... |      [133]: "1993-03-28T01:00:17Z" (733280417) transition_time 0x9a7-0x9af (8)
0x9a0|                                             00|               .|      [134]: "1993-09-26T01:00:18Z" (749005218) transition_time 0x9af-0x9b7 (8)
0x9b0|00 00 00 2c a4 e9 a2                           |...,...         |
0x9b0|                     00 00 00 00 2d 94 da a2   |       ....-... |      [135]: "1994-03-27T01:00:18Z" (764730018) transition_time 0x9b7-0x9bf (8)
0x9b0|                                             00|               .|      [136]: "1994-09-25T01:00:19Z" (780454819) transition_time 0x9bf-0x9c7 (8)
0x9c0|00 00 00 2e 84 cb a3                           |.......         |
0x9c0|                     00 00 00 00 2f 74 bc a3   |       ..../t.. |      [137]: "1995-03-26T01:00:19Z" (796179619) transition_time 0x9c7-0x9cf (8)
0x9c0|                                             00|               .|      [138]: "1995-09-24T01:00:19Z" (811904419) transition_time 0x9cf-0x9d7 (8)
0x9d0|00 00 00 30 64 ad a3                           |...0d..         |
0x9d0|                     00 00 00 00 31 5d d9 24   |       ....1].$ |      [139]: "1996-03-31T01:00:20Z" (828234020) transition_time 0x9d7-0x9df (8)
0x9d0|                                             00|               .|      [140]: "1996-10-27T01:00:20Z" (846378020) transition_time 0x9df-0x9e7 (8)
0x9e0|00 00 00 32 72 b4 24                           |...2r.$         |
0x9e0|                     00 00 00 00 33 3d bb 24   |       ....3=.$ |      [141]: "1997-03-30T01:00:20Z" (859683620) transition_time 0x9e7-0x9ef (8)
0x9e0|                                             00|               .|      [142]: "1997-10-26T01:00:21Z" (877827621) transition_time 0x9ef-0x9f7 (8)
0x9f0|00 00 00 34 52 96 25                           |...4R.%         |
0x9f0|                     00 00 00 00 35 1d 9d 25   |       ....5..% |      [143]: "1998-03-29T01:00:21Z" (891133221) transition_time 0x9f7-0x9ff (8)
0x9f0|                                             00|               .|      [144]: "1998-10-25T01:00:21Z" (909277221) transition_time 0x9ff-0xa07 (8)
0xa00|00 00 00 36 32 78 25                           |...62x%         |
0xa00|                     00 00 00 00 36 fd 7f 26   |       ....6..& |      [145]: "1999-03-28T01:00:22Z" (922582822) transition_time 0xa07-0xa0f (8)
0xa00|                                             00|               .|      [146]: "1999-10-31T01:00:22Z" (941331622) transition_time 0xa0f-0xa17 (8)
0xa10|00 00 00 38 1b 94 a6                           |...8...         |
0xa10|                     00 00 00 00 38 dd 61 26   |       ....8.a& |      [147]: "2000-03-26T01:00:22Z" (954032422) transition_time 0xa17-0xa1f (8)
0xa10|                                             00|               .|      [148]: "2000-10-29T01:00:22Z" (972781222) transition_time 0xa1f-0xa27 (8)
0xa20|00 00 00 39 fb 76 a6                           |...9.v.         |
0xa20|                     00 00 00 00 3a bd 43 26   |       ....:.C& |      [149]: "2001-03-25T01:00:22Z" (985482022) transition_time 0xa27-0xa2f (8)
0xa20|                                             00|               .|      [150]: "2001-10-28T01:00:22Z" (1004230822) transition_time 0xa2f-0xa37 (8)
0xa30|00 00 00 3b db 58 a6                           |...;.X.         |
0xa30|                     00 00 00 00 3c a6 5f a6   |       ....<._. |      [151]: "2002-03-31T01:00:22Z" (1017536422) transition_time 0xa37-0xa3f (8)
0xa30|                                             00|               .|      [152]: "2002-10-27T01:00:22Z" (1035680422) transition_time 0xa3f-0xa47 (8)
0xa40|00 00 00 3d bb 3a a6                           |...=.:.         |
0xa40|                     00 00 00 00 3e 86 41 a6   |       ....>.A. |      [153]: "2003-03-30T01:00:22Z" (1048986022) transition_time 0xa47-0xa4f (8)
0xa40|                                             00|               .|      [154]: "2003-10-26T01:00:22Z" (1067130022) transition_time 0xa4f-0xa57 (8)
0xa50|00 00 00 3f 9b 1c a6                           |...?...         |
0xa50|                     00 00 00 00 40 66 23 a6   |       ....@f#. |      [155]: "2004-03-28T01:00:22Z" (1080435622) transition_time 0xa57-0xa5f (8)
0xa50|                                             00|               .|      [156]: "2004-10-31T01:00:22Z" (1099184422) transition_time 0xa5f-0xa67 (8)
0xa60|00 00 00 41 84 39 26                           |...A.9&         |
0xa60|                     00 00 00 00 42 46 05 a6   |       ....BF.. |      [157]: "2005-03-27T01:00:22Z" (1111885222) transition_time 0xa67-0xa6f (8)
0xa60|                                             00|               .|      [158]: "2005-10-30T01:00:22Z" (1130634022) transition_time 0xa6f-0xa77 (8)
0xa70|00 00 00 43 64 1b 26                           |...Cd.&         |
0xa70|                     00 00 00 00 44 25 e7 a7   |       ....D%.. |      [159]: "2006-03-26T01:00:23Z" (1143334823) transition_time 0xa77-0xa7f (8)
0xa70|                                             00|               .|      [160]: "2006-10-29T01:00:23Z" (1162083623) transition_time 0xa7f-0xa87 (8)
0xa80|00 00 00 45 43 fd 27                           |...EC.'         |
0xa80|                     00 00 00 00 46 05 c9 a7   |       ....F... |      [161]: "2007-03-25T01:00:23Z" (1174784423) transition_time 0xa87-0xa8f (8)
0xa80|                                             00|               .|      [162]: "2007-10-28T01:00:23Z" (1193533223) transition_time 0xa8f-0xa97 (8)
0xa90|00 00 00 47 23 df 27                           |...G#.'         |
0xa90|                     00 00 00 00 47 ee e6 27   |       ....G..' |      [163]: "2008-03-30T01:00:23Z" (1206838823) transition_time 0xa97-0xa9f (8)
0xa90|                                             00|               .|      [164]: "2008-10-26T01:00:23Z" (1224982823) transition_time 0xa9f-0xaa7 (8)
0xaa0|00 00 00 49 03 c1 27                           |...I..'         |
0xaa0|                     00 00 00 00 49 ce c8 28   |       ....I..( |      [165]: "2009-03-29T01:00:24Z" (1238288424) transition_time 0xaa7-0xaaf (8)
0xaa0|                                             00|               .|      [166]: "2009-10-25T01:00:24Z" (1256432424) transition_time 0xaaf-0xab7 (8)
0xab0|00 00 00 4a e3 a3 28                           |...J..(         |
0xab0|                     00 00 00 00 4b ae aa 28   |       ....K..( |      [167]: "2010-03-28T01:00:24Z" (1269738024) transition_time 0xab7-0xabf (8)
0xab0|                                             00|               .|      [168]: "2010-10-31T01:00:24Z" (1288486824) transition_time 0xabf-0xac7 (8)
0xac0|00 00 00 4c cc bf a8                           |...L...         |
0xac0|                     00 00 00 00 4d 8e 8c 28   |       ....M..( |      [169]: "2011-03-27T01:00:24Z" (1301187624) transition_time 0xac7-0xacf (8)
0xac0|                                             00|               .|      [170]: "2011-10-30T01:00:24Z" (1319936424) transition_time 0xacf-0xad7 (8)
0xad0|00 00 00 4e ac a1 a8                           |...N...         |
0xad0|                     00 00 00 00 4f 6e 6e 28   |       ....Onn( |      [171]: "2012-03-25T01:00:24Z" (1332637224) transition_time 0xad7-0xadf (8)
0xad0|                                             00|               .|      [172]: "2012-10-28T01:00:25Z" (1351386025) transition_time 0xadf-0xae7 (8)
0xae0|00 00 00 50 8c 83 a9                           |...P...         |
0xae0|                     00 00 00 00 51 57 8a a9   |       ....QW.. |      [173]: "2013-03-31T01:00:25Z" (1364691625) transition_time 0xae7-0xaef (8)
0xae0|                                             00|               .|      [174]: "2013-10-27T01:00:25Z" (1382835625) transition_time 0xaef-0xaf7 (8)
0xaf0|00 00 00 52 6c 65 a9                           |...Rle.         |
0xaf0|                     00 00 00 00 53 37 6c a9   |       ....S7l. |      [175]: "2014-03-30T01:00:25Z" (1396141225) transition_time 0xaf7-0xaff (8)
0xaf0|                                             00|               .|      [176]: "2014-10-26T01:00:25Z" (1414285225) transition_time 0xaff-0xb07 (8)
0xb00|00 00 00 54 4c 47 a9                           |...TLG.         |
0xb00|                     00 00 00 00 55 17 4e a9   |       ....U.N. |      [177]: "2015-03-29T01:00:25Z" (1427590825) transition_time 0xb07-0xb0f (8)
0xb00|                                             00|               .|      [178]: "2015-10-25T01:00:26Z" (1445734826) transition_time 0xb0f-0xb17 (8)
0xb10|00 00 00 56 2c 29 aa                           |...V,).         |
0xb10|                     00 00 00 00 56 f7 30 aa   |       ....V.0. |      [179]: "2016-03-27T01:00:26Z" (1459040426) transition_time 0xb17-0xb1f (8)
0xb10|                                             00|               .|      [180]: "2016-10-30T01:00:26Z" (1477789226) transition_time 0xb1f-0xb27 (8)
0xb20|00 00 00 58 15 46 2a                           |...X.F*         |
0xb20|                     00 00 00 00 58 d7 12 ab   |       ....X... |      [181]: "2017-03-26T01:00:27Z" (1490490027) transition_time 0xb27-0xb2f (8)
0xb20|                                             00|               .|      [182]: "2017-10-29T01:00:27Z" (1509238827) transition_time 0xb2f-0xb37 (8)
0xb30|00 00 00 59 f5 28 2b                           |...Y.(+         |
0xb30|                     00 00 00 00 5a b6 f4 ab   |       ....Z... |      [183]: "2018-03-25T01:00:27Z" (1521939627) transition_time 0xb37-0xb3f (8)
0xb30|                                             00|               .|      [184]: "2018-10-28T01:00:27Z" (1540688427) transition_time 0xb3f-0xb47 (8)
0xb40|00 00 00 5b d5 0a 2b                           |...[..+         |
0xb40|                     00 00 00 00 5c a0 11 2b   |       ....\..+ |      [185]: "2019-03-31T01:00:27Z" (1553994027) transition_time 0xb47-0xb4f (8)
0xb40|                                             00|               .|      [186]: "2019-10-27T01:00:27Z" (1572138027) transition_time 0xb4f-0xb57 (8)
0xb50|00 00 00 5d b4 ec 2b                           |...]..+         |
0xb50|                     00 00 00 00 5e 7f f3 2b   |       ....^..+ |      [187]: "2020-03-29T01:00:27Z" (1585443627) transition_time 0xb57-0xb5f (8)
0xb50|                                             00|               .|      [188]: "2020-10-25T01:00:27Z" (1603587627) transition_time 0xb5f-0xb67 (8)
0xb60|00 00 00 5f 94 ce 2b                           |..._..+         |
0xb60|                     00 00 00 00 60 5f d5 2b   |       ....`_.+ |      [189]: "2021-03-28T01:00:27Z" (1616893227) transition_time 0xb67-0xb6f (8)
0xb60|                                             00|               .|      [190]: "2021-10-31T01:00:27Z" (1635642027) transition_time 0xb6f-0xb77 (8)
0xb70|00 00 00 61 7d ea ab                           |...a}..         |
0xb70|                     00 00 00 00 62 3f b7 2b   |       ....b?.+ |      [191]: "2022-03-27T01:00:27Z" (1648342827) transition_time 0xb77-0xb7f (8)
0xb70|                                             00|               .|      [192]: "2022-10-30T01:00:27Z" (1667091627) transition_time 0xb7f-0xb87 (8)
0xb80|00 00 00 63 5d cc ab                           |...c]..         |
0xb80|                     00 00 00 00 64 1f 99 2b   |       ....d..+ |      [193]: "2023-03-26T01:00:27Z" (1679792427) transition_time 0xb87-0xb8f (8)
0xb80|                                             00|               .|      [194]: "2023-06-28T00:00:27Z" (1687910427) transition_time 0xb8f-0xb97 (8)
0xb90|00 00 00 64 9b 78 1b                           |...d.x.         |
     |                                               |                |    transition_types[0:195]: 0xb97-0xc5a (195)
0xb90|                     01                        |       .        |      [0]: 1 transition_type 0xb97-0xb98 (1)
0xb90|                        06                     |        .       |      [1]: 6 transition_type 0xb98-0xb99 (1)
0xb90|                           02                  |         .      |      [2]: 2 transition_type 0xb99-0xb9a (1)
0xb90|                              03               |          .     |      [3]: 3 transition_type 0xb9a-0xb9b (1)
0xb90|                                 04            |           .    |      [4]: 4 transition_type 0xb9b-0xb9c (1)
0xb90|                                    05         |            .   |      [5]: 5 transition_type 0xb9c-0xb9d (1)
0xb90|                                       04      |             .  |      [6]: 4 transition_type 0xb9d-0xb9e (1)
0xb90|                                          05   |              . |      [7]: 5 transition_type 0xb9e-0xb9f (1)
0xb90|                                             04|               .|      [8]: 4 transition_type 0xb9f-0xba0 (1)
0xba0|05                                             |.               |      [9]: 5 transition_type 0xba0-0xba1 (1)
0xba0|   04                                          | .              |      [10]: 4 transition_type 0xba1-0xba2 (1)
0xba0|      05                                       |  .             |      [11]: 5 transition_type 0xba2-0xba3 (1)
0xba0|         04                                    |   .            |      [12]: 4 transition_type 0xba3-0xba4 (1)
0xba0|            05                                 |    .           |      [13]: 5 transition_type 0xba4-0xba5 (1)
0xba0|               04                              |     .          |      [14]: 4 transition_type 0xba5-0xba6 (1)
0xba0|                  05                           |      .         |      [15]: 5 transition_type 0xba6-0xba7 (1)
0xba0|                     04                        |       .        |      [16]: 4 transition_type 0xba7-0xba8 (1)
0xba0|                        05                     |        .       |      [17]: 5 transition_type 0xba8-0xba9 (1)
0xba0|                           04                  |         .      |      [18]: 4 transition_type 0xba9-0xbaa (1)
0xba0|                              05               |          .     |      [19]: 5 transition_type 0xbaa-0xbab (1)
0xba0|                                 04            |           .    |      [20]: 4 transition_type 0xbab-0xbac (1)
0xba0|                                    05         |            .   |      [21]: 5 transition_type 0xbac-0xbad (1)
0xba0|                                       04      |             .  |      [22]: 4 transition_type 0xbad-0xbae (1)
0xba0|                                          05   |              . |      [23]: 5 transition_type 0xbae-0xbaf (1)
0xba0|                                             04|               .|      [24]: 4 transition_type 0xbaf-0xbb0 (1)
0xbb0|05                                             |.               |      [25]: 5 transition_type 0xbb0-0xbb1 (1)
0xbb0|   04                                          | .              |      [26]: 4 transition_type 0xbb1-0xbb2 (1)
0xbb0|      05                                       |  .             |      [27]: 5 transition_type 0xbb2-0xbb3 (1)
0xbb0|         04                                    |   .            |      [28]: 4 transition_type 0xbb3-0xbb4 (1)
0xbb0|            05                                 |    .           |      [29]: 5 transition_type 0xbb4-0xbb5 (1)
0xbb0|               04                              |     .          |      [30]: 4 transition_type 0xbb5-0xbb6 (1)
0xbb0|                  05                           |      .         |      [31]: 5 transition_type 0xbb6-0xbb7 (1)
0xbb0|                     04                        |       .        |      [32]: 4 transition_type 0xbb7-0xbb8 (1)
0xbb0|                        05                     |        .       |      [33]: 5 transition_type 0xbb8-0xbb9 (1)
0xbb0|                           04                  |         .      |      [34]: 4 transition_type 0xbb9-0xbba (1)
0xbb0|                              05               |          .     |      [35]: 5 transition_type 0xbba-0xbbb (1)
0xbb0|                                 04            |           .    |      [36]: 4 transition_type 0xbbb-0xbbc (1)
0xbb0|                                    05         |            .   |      [37]: 5 transition_type 0xbbc-0xbbd (1)
0xbb0|                                       04      |             .  |      [38]: 4 transition_type 0xbbd-0xbbe (1)
0xbb0|                                          05   |              . |      [39]: 5 transition_type 0xbbe-0xbbf (1)
0xbb0|                                             04|               .|      [40]: 4 transition_type 0xbbf-0xbc0 (1)
0xbc0|05                                             |.               |      [41]: 5 transition_type 0xbc0-0xbc1 (1)
0xbc0|   04                                          | .              |      [42]: 4 transition_type 0xbc1-0xbc2 (1)
0xbc0|      05                                       |  .             |      [43]: 5 transition_type 0xbc2-0xbc3 (1)
0xbc0|         04                                    |   .            |      [44]: 4 transition_type 0xbc3-0xbc4 (1)
0xbc0|            07                                 |    .           |      [45]: 7 transition_type 0xbc4-0xbc5 (1)
0xbc0|               04                              |     .          |      [46]: 4 transition_type 0xbc5-0xbc6 (1)
0xbc0|                  05                           |      .         |      [47]: 5 transition_type 0xbc6-0xbc7 (1)
0xbc0|                     04                        |       .        |      [48]: 4 transition_type 0xbc7-0xbc8 (1)
0xbc0|                        07                     |        .       |      [49]: 7 transition_type 0xbc8-0xbc9 (1)
0xbc0|                           04                  |         .      |      [50]: 4 transition_type 0xbc9-0xbca (1)
0xbc0|                              05               |          .     |      [51]: 5 transition_type 0xbca-0xbcb (1)
0xbc0|                                 04            |           .    |      [52]: 4 transition_type 0xbcb-0xbcc (1)
0xbc0|                                    07         |            .   |      [53]: 7 transition_type 0xbcc-0xbcd (1)
0xbc0|                                       04      |             .  |      [54]: 4 transition_type 0xbcd-0xbce (1)
0xbc0|                                          05   |              . |      [55]: 5 transition_type 0xbce-0xbcf (1)
0xbc0|                                             04|               .|      [56]: 4 transition_type 0xbcf-0xbd0 (1)
0xbd0|07                                             |.               |      [57]: 7 transition_type 0xbd0-0xbd1 (1)
0xbd0|   04                                          | .              |      [58]: 4 transition_type 0xbd1-0xbd2 (1)
0xbd0|      05                                       |  .             |      [59]: 5 transition_type 0xbd2-0xbd3 (1)
0xbd0|         04                                    |   .            |      [60]: 4 transition_type 0xbd3-0xbd4 (1)
0xbd0|            05                                 |    .           |      [61]: 5 transition_type 0xbd4-0xbd5 (1)
0xbd0|               04                              |     .          |      [62]: 4 transition_type 0xbd5-0xbd6 (1)
0xbd0|                  05                           |      .         |      [63]: 5 transition_type 0xbd6-0xbd7 (1)
0xbd0|                     04                        |       .        |      [64]: 4 transition_type 0xbd7-0xbd8 (1)
0xbd0|                        05                     |        .       |      [65]: 5 transition_type 0xbd8-0xbd9 (1)
0xbd0|                           04                  |         .      |      [66]: 4 transition_type 0xbd9-0xbda (1)
0xbd0|                              05               |          .     |      [67]: 5 transition_type 0xbda-0xbdb (1)
0xbd0|                                 04            |           .    |      [68]: 4 transition_type 0xbdb-0xbdc (1)
0xbd0|                                    05         |            .   |      [69]: 5 transition_type 0xbdc-0xbdd (1)
0xbd0|                                       04      |             .  |      [70]: 4 transition_type 0xbdd-0xbde (1)
0xbd0|                                          05   |              . |      [71]: 5 transition_type 0xbde-0xbdf (1)
0xbd0|                                             04|               .|      [72]: 4 transition_type 0xbdf-0xbe0 (1)
0xbe0|05                                             |.               |      [73]: 5 transition_type 0xbe0-0xbe1 (1)
0xbe0|   04                                          | .              |      [74]: 4 transition_type 0xbe1-0xbe2 (1)
0xbe0|      05                                       |  .             |      [75]: 5 transition_type 0xbe2-0xbe3 (1)
0xbe0|         04                                    |   .            |      [76]: 4 transition_type 0xbe3-0xbe4 (1)
0xbe0|            05                                 |    .           |      [77]: 5 transition_type 0xbe4-0xbe5 (1)
0xbe0|               04                              |     .          |      [78]: 4 transition_type 0xbe5-0xbe6 (1)
0xbe0|                  05                           |      .         |      [79]: 5 transition_type 0xbe6-0xbe7 (1)
0xbe0|                     04                        |       .        |      [80]: 4 transition_type 0xbe7-0xbe8 (1)
0xbe0|                        05                     |        .       |      [81]: 5 transition_type 0xbe8-0xbe9 (1)
0xbe0|                           04                  |         .      |      [82]: 4 transition_type 0xbe9-0xbea (1)
0xbe0|                              05               |          .     |      [83]: 5 transition_type 0xbea-0xbeb (1)
0xbe0|                                 04            |           .    |      [84]: 4 transition_type 0xbeb-0xbec (1)
0xbe0|                                    05         |            .   |      [85]: 5 transition_type 0xbec-0xbed (1)
0xbe0|                                       04      |             .  |      [86]: 4 transition_type 0xbed-0xbee (1)
0xbe0|                                          05   |              . |      [87]: 5 transition_type 0xbee-0xbef (1)
0xbe0|                                             04|               .|      [88]: 4 transition_type 0xbef-0xbf0 (1)
0xbf0|05                                             |.               |      [89]: 5 transition_type 0xbf0-0xbf1 (1)
0xbf0|   04                                          | .              |      [90]: 4 transition_type 0xbf1-0xbf2 (1)
0xbf0|      05                                       |  .             |      [91]: 5 transition_type 0xbf2-0xbf3 (1)
0xbf0|         04                                    |   .            |      [92]: 4 transition_type 0xbf3-0xbf4 (1)
0xbf0|            05                                 |    .           |      [93]: 5 transition_type 0xbf4-0xbf5 (1)
0xbf0|               04                              |     .          |      [94]: 4 transition_type 0xbf5-0xbf6 (1)
0xbf0|                  05                           |      .         |      [95]: 5 transition_type 0xbf6-0xbf7 (1)
0xbf0|                     04                        |       .        |      [96]: 4 transition_type 0xbf7-0xbf8 (1)
0xbf0|                        05                     |        .       |      [97]: 5 transition_type 0xbf8-0xbf9 (1)
0xbf0|                           04                  |         .      |      [98]: 4 transition_type 0xbf9-0xbfa (1)
0xbf0|                              05               |          .     |      [99]: 5 transition_type 0xbfa-0xbfb (1)
0xbf0|                                 09            |           .    |      [100]: 9 transition_type 0xbfb-0xbfc (1)
0xbf0|                                    07         |            .   |      [101]: 7 transition_type 0xbfc-0xbfd (1)
0xbf0|                                       08      |             .  |      [102]: 8 transition_type 0xbfd-0xbfe (1)
0xbf0|                                          07   |              . |      [103]: 7 transition_type 0xbfe-0xbff (1)
0xbf0|                                             08|               .|      [104]: 8 transition_type 0xbff-0xc00 (1)
0xc00|07                                             |.               |      [105]: 7 transition_type 0xc00-0xc01 (1)
0xc00|   08                                          | .              |      [106]: 8 transition_type 0xc01-0xc02 (1)
0xc00|      07                                       |  .             |      [107]: 7 transition_type 0xc02-0xc03 (1)
0xc00|         08                                    |   .            |      [108]: 8 transition_type 0xc03-0xc04 (1)
0xc00|            07                                 |    .           |      [109]: 7 transition_type 0xc04-0xc05 (1)
0xc00|               08                              |     .          |      [110]: 8 transition_type 0xc05-0xc06 (1)
0xc00|                  07                           |      .         |      [111]: 7 transition_type 0xc06-0xc07 (1)
0xc00|                     08                        |       .        |      [112]: 8 transition_type 0xc07-0xc08 (1)
0xc00|                        07                     |        .       |      [113]: 7 transition_type 0xc08-0xc09 (1)
0xc00|                           08                  |         .      |      [114]: 8 transition_type 0xc09-0xc0a (1)
0xc00|                              07               |          .     |      [115]: 7 transition_type 0xc0a-0xc0b (1)
0xc00|                                 08            |           .    |      [116]: 8 transition_type 0xc0b-0xc0c (1)
0xc00|                                    07         |            .   |      [117]: 7 transition_type 0xc0c-0xc0d (1)
0xc00|                                       08      |             .  |      [118]: 8 transition_type 0xc0d-0xc0e (1)
0xc00|                                          07   |              . |      [119]: 7 transition_type 0xc0e-0xc0f (1)
0xc00|                                             08|               .|      [120]: 8 transition_type 0xc0f-0xc10 (1)
0xc10|07                                             |.               |      [121]: 7 transition_type 0xc10-0xc11 (1)
0xc10|   08                                          | .              |      [122]: 8 transition_type 0xc11-0xc12 (1)
0xc10|      07                                       |  .             |      [123]: 7 transition_type 0xc12-0xc13 (1)
0xc10|         08                                    |   .            |      [124]: 8 transition_type 0xc13-0xc14 (1)
0xc10|            07                                 |    .           |      [125]: 7 transition_type 0xc14-0xc15 (1)
0xc10|               08                              |     .          |      [126]: 8 transition_type 0xc15-0xc16 (1)
0xc10|                  07                           |      .         |      [127]: 7 transition_type 0xc16-0xc17 (1)
0xc10|                     08                        |       .        |      [128]: 8 transition_type 0xc17-0xc18 (1)
0xc10|                        07                     |        .       |      [129]: 7 transition_type 0xc18-0xc19 (1)
0xc10|                           08                  |         .      |      [130]: 8 transition_type 0xc19-0xc1a (1)
0xc10|                              07               |          .     |      [131]: 7 transition_type 0xc1a-0xc1b (1)
0xc10|                                 0a            |           .    |      [132]: 10 transition_type 0xc1b-0xc1c (1)
0xc10|                                    0b         |            .   |      [133]: 11 transition_type 0xc1c-0xc1d (1)
0xc10|                                       0c      |             .  |      [134]: 12 transition_type 0xc1d-0xc1e (1)
0xc10|                                          0b   |              . |      [135]: 11 transition_type 0xc1e-0xc1f (1)
0xc10|                                             0c|               .|      [136]: 12 transition_type 0xc1f-0xc20 (1)
0xc20|0b                                             |.               |      [137]: 11 transition_type 0xc20-0xc21 (1)
0xc20|   0c                                          | .              |      [138]: 12 transition_type 0xc21-0xc22 (1)
0xc20|      0b                                       |  .             |      [139]: 11 transition_type 0xc22-0xc23 (1)
0xc20|         0c                                    |   .            |      [140]: 12 transition_type 0xc23-0xc24 (1)
0xc20|            0b                                 |    .           |      [141]: 11 transition_type 0xc24-0xc25 (1)
0xc20|               0c                              |     .          |      [142]: 12 transition_type 0xc25-0xc26 (1)
0xc20|                  0b                           |      .         |      [143]: 11 transition_type 0xc26-0xc27 (1)
0xc20|                     0c                        |       .        |      [144]: 12 transition_type 0xc27-0xc28 (1)
0xc20|                        0b                     |        .       |      [145]: 11 transition_type 0xc28-0xc29 (1)
0xc20|                           0c                  |         .      |      [146]: 12 transition_type 0xc29-0xc2a (1)
0xc20|                              0b               |          .     |      [147]: 11 transition_type 0xc2a-0xc2b (1)
0xc20|                                 0c            |           .    |      [148]: 12 transition_type 0xc2b-0xc2c (1)
0xc20|                                    0b         |            .   |      [149]: 11 transition_type 0xc2c-0xc2d (1)
0xc20|                                       0c      |             .  |      [150]: 12 transition_type 0xc2d-0xc2e (1)
0xc20|                                          0b   |              . |      [151]: 11 transition_type 0xc2e-0xc2f (1)
0xc20|                                             0c|               .|      [152]: 12 transition_type 0xc2f-0xc30 (1)
0xc30|0b                                             |.               |      [153]: 11 transition_type 0xc30-0xc31 (1)
0xc30|   0c                                          | .              |      [154]: 12 transition_type 0xc31-0xc32 (1)
0xc30|      0b                                       |  .             |      [155]: 11 transition_type 0xc32-0xc33 (1)
0xc30|         0c                                    |   .            |      [156]: 12 transition_type 0xc33-0xc34 (1)
0xc30|            0b                                 |    .           |      [157]: 11 transition_type 0xc34-0xc35 (1)
0xc30|               0c                              |     .          |      [158]: 12 transition_type 0xc35-0xc36 (1)
0xc30|                  0b                           |      .         |      [159]: 11 transition_type 0xc36-0xc37 (1)
0xc30|                     0c                        |       .        |      [160]: 12 transition_type 0xc37-0xc38 (1)
0xc30|                        0b                     |        .       |      [161]: 11 transition_type 0xc38-0xc39 (1)
0xc30|                           0c                  |         .      |      [162]: 12 transition_type 0xc39-0xc3a (1)
0xc30|                              0b               |          .     |      [163]: 11 transition_type 0xc3a-0xc3b (1)
0xc30|                                 0c            |           .    |      [164]: 12 transition_type 0xc3b-0xc3c (1)
0xc30|                                    0b         |            .   |      [165]: 11 transition_type 0xc3c-0xc3d (1)
0xc30|                                       0c      |             .  |      [166]: 12 transition_type 0xc3d-0xc3e (1)
0xc30|                                          0b   |              . |      [167]: 11 transition_type 0xc3e-0xc3f (1)
0xc30|                                             0c|               .|      [168]: 12 transition_type 0xc3f-0xc40 (1)
0xc40|0b                                             |.               |      [169]: 11 transition_type 0xc40-0xc41 (1)
0xc40|   0c                                          | .              |      [170]: 12 transition_type 0xc41-0xc42 (1)
0xc40|      0b                                       |  .             |      [171]: 11 transition_type 0xc42-0xc43 (1)
0xc40|         0c                                    |   .            |      [172]: 12 transition_type 0xc43-0xc44 (1)
0xc40|            0b                                 |    .           |      [173]: 11 transition_type 0xc44-0xc45 (1)
0xc40|               0c                              |     .          |      [174]: 12 transition_type 0xc45-0xc46 (1)
0xc40|                  0b                           |      .         |      [175]: 11 transition_type 0xc46-0xc47 (1)
0xc40|                     0c                        |       .        |      [176]: 12 transition_type 0xc47-0xc48 (1)
0xc40|                        0b                     |        .       |      [177]: 11 transition_type 0xc48-0xc49 (1)
0xc40|                           0c                  |         .      |      [178]: 12 transition_type 0xc49-0xc4a (1)
0xc40|                              0b               |          .     |      [179]: 11 transition_type 0xc4a-0xc4b (1)
0xc40|                                 0c            |           .    |      [180]: 12 transition_type 0xc4b-0xc4c (1)
0xc40|                                    0b         |            .   |      [181]: 11 transition_type 0xc4c-0xc4d (1)
0xc40|                                       0c      |             .  |      [182]: 12 transition_type 0xc4d-0xc4e (1)
0xc40|                                          0b   |              . |      [183]: 11 transition_type 0xc4e-0xc4f (1)
0xc40|                                             0c|               .|      [184]: 12 transition_type 0xc4f-0xc50 (1)
0xc50|0b                                             |.               |      [185]: 11 transition_type 0xc50-0xc51 (1)
0xc50|   0c                                          | .              |      [186]: 12 transition_type 0xc51-0xc52 (1)
0xc50|      0b                                       |  .             |      [187]: 11 transition_type 0xc52-0xc53 (1)
0xc50|         0c                                    |   .            |      [188]: 12 transition_type 0xc53-0xc54 (1)
0xc50|            0b                                 |    .           |      [189]: 11 transition_type 0xc54-0xc55 (1)
0xc50|               0c                              |     .          |      [190]: 12 transition_type 0xc55-0xc56 (1)
0xc50|                  0b                           |      .         |      [191]: 11 transition_type 0xc56-0xc57 (1)
0xc50|                     0c                        |       .        |      [192]: 12 transition_type 0xc57-0xc58 (1)
0xc50|                        0b                     |        .       |      [193]: 11 transition_type 0xc58-0xc59 (1)
0xc50|                           0b                  |         .      |      [194]: 11 transition_type 0xc59-0xc5a (1)
     |                                               |                |    local_time_type_records[0:13]: 0xc5a-0xca8 (78)
     |                                               |                |      [0]{}: local_time_type 0xc5a-0xc60 (6)
0xc50|                              ff ff e7 f0      |          ....  |        utoff: -6160 (valid) 0xc5a-0xc5e (4)
0xc50|                                          00   |              . |        dst: 0 (valid) 0xc5e-0xc5f (1)
0xc50|                                             00|               .|        idx: 0 (valid) 0xc5f-0xc60 (1)
     |                                               |                |      [1]{}: local_time_type 0xc60-0xc66 (6)
0xc60|ff ff e5 28                                    |...(            |        utoff: -6872 (valid) 0xc60-0xc64 (4)
0xc60|            00                                 |    .           |        dst: 0 (valid) 0xc64-0xc65 (1)
0xc60|               04                              |     .          |        idx: 4 (valid) 0xc65-0xc66 (1)
     |                                               |                |      [2]{}: local_time_type 0xc66-0xc6c (6)
0xc60|                  ff ff f1 f0                  |      ....      |        utoff: -3600 (valid) 0xc66-0xc6a (4)
0xc60|                              01               |          .     |        dst: 1 (valid) 0xc6a-0xc6b (1)
0xc60|                                 08            |           .    |        idx: 8 (valid) 0xc6b-0xc6c (1)
     |                                               |                |      [3]{}: local_time_type 0xc6c-0xc72 (6)
0xc60|                                    ff ff e3 e0|            ....|        utoff: -7200 (valid) 0xc6c-0xc70 (4)
0xc70|00                                             |.               |        dst: 0 (valid) 0xc70-0xc71 (1)
0xc70|   0c                                          | .              |        idx: 12 (valid) 0xc71-0xc72 (1)
     |                                               |                |      [4]{}: local_time_type 0xc72-0xc78 (6)
0xc70|      ff ff f1 f0                              |  ....          |        utoff: -3600 (valid) 0xc72-0xc76 (4)
0xc70|                  01                           |      .         |        dst: 1 (valid) 0xc76-0xc77 (1)
0xc70|                     08                        |       .        |        idx: 8 (valid) 0xc77-0xc78 (1)
     |                                               |                |      [5]{}: local_time_type 0xc78-0xc7e (6)
0xc70|                        ff ff e3 e0            |        ....    |        utoff: -7200 (valid) 0xc78-0xc7c (4)
0xc70|                                    00         |            .   |        dst: 0 (valid) 0xc7c-0xc7d (1)
0xc70|                                       0c      |             .  |        idx: 12 (valid) 0xc7d-0xc7e (1)
     |                                               |                |      [6]{}: local_time_type 0xc7e-0xc84 (6)
0xc70|                                          ff ff|              ..|        utoff: -7200 (valid) 0xc7e-0xc82 (4)
0xc80|e3 e0                                          |..              |
0xc80|      00                                       |  .             |        dst: 0 (valid) 0xc82-0xc83 (1)
0xc80|         0c                                    |   .            |        idx: 12 (valid) 0xc83-0xc84 (1)
     |                                               |                |      [7]{}: local_time_type 0xc84-0xc8a (6)
0xc80|            00 00 00 00                        |    ....        |        utoff: 0 (valid) 0xc84-0xc88 (4)
0xc80|                        01                     |        .       |        dst: 1 (valid) 0xc88-0xc89 (1)
0xc80|                           10                  |         .      |        idx: 16 (valid) 0xc89-0xc8a (1)
     |                                               |                |      [8]{}: local_time_type 0xc8a-0xc90 (6)
0xc80|                              ff ff f1 f0      |          ....  |        utoff: -3600 (valid) 0xc8a-0xc8e (4)
0xc80|                                          00   |              . |        dst: 0 (valid) 0xc8e-0xc8f (1)
0xc80|                                             08|               .|        idx: 8 (valid) 0xc8f-0xc90 (1)
     |                                               |                |      [9]{}: local_time_type 0xc90-0xc96 (6)
0xc90|ff ff f1 f0                                    |....            |        utoff: -3600 (valid) 0xc90-0xc94 (4)
0xc90|            00                                 |    .           |        dst: 0 (valid) 0xc94-0xc95 (1)
0xc90|               08                              |     .          |        idx: 8 (valid) 0xc95-0xc96 (1)
     |                                               |                |      [10]{}: local_time_type 0xc96-0xc9c (6)
0xc90|                  00 00 00 00                  |      ....      |        utoff: 0 (valid) 0xc96-0xc9a (4)
0xc90|                              00               |          .     |        dst: 0 (valid) 0xc9a-0xc9b (1)
0xc90|                                 14            |           .    |        idx: 20 (valid) 0xc9b-0xc9c (1)
     |                                               |                |      [11]{}: local_time_type 0xc9c-0xca2 (6)
0xc90|                                    00 00 00 00|            ....|        utoff: 0 (valid) 0xc9c-0xca0 (4)
0xca0|01                                             |.               |        dst: 1 (valid) 0xca0-0xca1 (1)
0xca0|   10                                          | .              |        idx: 16 (valid) 0xca1-0xca2 (1)
     |                                               |                |      [12]{}: local_time_type 0xca2-0xca8 (6)
0xca0|      ff ff f1 f0                              |  ....          |        utoff: -3600 (valid) 0xca2-0xca6 (4)
0xca0|                  00                           |      .         |        dst: 0 (valid) 0xca6-0xca7 (1)
0xca0|                     08                        |       .        |        idx: 8 (valid) 0xca7-0xca8 (1)
     |                                               |                |    time_zone_designations[0:6]: 0xca8-0xcc0 (24)
0xca0|                        4c 4d 54 00            |        LMT.    |      [0]: "LMT" time_zone_designation 0xca8-0xcac (4)
0xca0|                                    48 4d 54 00|            HMT.|      [1]: "HMT" time_zone_designation 0xcac-0xcb0 (4)
0xcb0|2d 30 31 00                                    |-01.            |      [2]: "-01" time_zone_designation 0xcb0-0xcb4 (4)
0xcb0|            2d 30 32 00                        |    -02.        |      [3]: "-02" time_zone_designation 0xcb4-0xcb8 (4)
0xcb0|                        2b 30 30 00            |        +00.    |      [4]: "+00" time_zone_designation 0xcb8-0xcbc (4)
0xcb0|                                    57 45 54 00|            WET.|      [5]: "WET" time_zone_designation 0xcbc-0xcc0 (4)
     |                                               |                |    leap_second_records[0:27]: 0xcc0-0xe04 (324)
     |                                               |                |      [0]{}: leap_second_record 0xcc0-0xccc (12)
0xcc0|00 00 00 00 04 b2 58 00                        |......X.        |        occur: "1972-07-01T00:00:00Z" (78796800) 0xcc0-0xcc8 (8)
0xcc0|                        00 00 00 01            |        ....    |        corr: 1 0xcc8-0xccc (4)
     |                                               |                |      [1]{}: leap_second_record 0xccc-0xcd8 (12)
0xcc0|                                    00 00 00 00|            ....|        occur: "1973-01-01T00:00:01Z" (94694401) 0xccc-0xcd4 (8)
0xcd0|05 a4 ec 01                                    |....            |
0xcd0|            00 00 00 02                        |    ....        |        corr: 2 0xcd4-0xcd8 (4)
     |                                               |                |      [2]{}: leap_second_record 0xcd8-0xce4 (12)
0xcd0|                        00 00 00 00 07 86 1f 82|        ........|        occur: "1974-01-01T00:00:02Z" (126230402) 0xcd8-0xce0 (8)
0xce0|00 00 00 03                                    |....            |        corr: 3 0xce0-0xce4 (4)
     |                                               |                |      [3]{}: leap_second_record 0xce4-0xcf0 (12)
0xce0|            00 00 00 00 09 67 53 03            |    .....gS.    |        occur: "1975-01-01T00:00:03Z" (157766403) 0xce4-0xcec (8)
0xce0|                                    00 00 00 04|            ....|        corr: 4 0xcec-0xcf0 (4)
     |                                               |                |      [4]{}: leap_second_record 0xcf0-0xcfc (12)
0xcf0|00 00 00 00 0b 48 86 84                        |.....H..        |        occur: "1976-01-01T00:00:04Z" (189302404) 0xcf0-0xcf8 (8)
0xcf0|                        00 00 00 05            |        ....    |        corr: 5 0xcf8-0xcfc (4)
     |                                               |                |      [5]{}: leap_second_record 0xcfc-0xd08 (12)
0xcf0|                                    00 00 00 00|            ....|        occur: "1977-01-01T00:00:05Z" (220924805) 0xcfc-0xd04 (8)
0xd00|0d 2b 0b 85                                    |.+..            |
0xd00|            00 00 00 06                        |    ....        |        corr: 6 0xd04-0xd08 (4)
     |                                               |                |      [6]{}: leap_second_record 0xd08-0xd14 (12)
0xd00|                        00 00 00 00 0f 0c 3f 06|        ......?.|        occur: "1978-01-01T00:00:06Z" (252460806) 0xd08-0xd10 (8)
0xd10|00 00 00 07                                    |....            |        corr: 7 0xd10-0xd14 (4)
     |                                               |                |      [7]{}: leap_second_record 0xd14-0xd20 (12)
0xd10|            00 00 00 00 10 ed 72 87            |    ......r.    |        occur: "1979-01-01T00:00:07Z" (283996807) 0xd14-0xd1c (8)
0xd10|                                    00 00 00 08|            ....|        corr: 8 0xd1c-0xd20 (4)
     |                                               |                |      [8]{}: leap_second_record 0xd20-0xd2c (12)
0xd20|00 00 00 00 12 ce a6 08                        |........        |        occur: "1980-01-01T00:00:08Z" (315532808) 0xd20-0xd28 (8)
0xd20|                        00 00 00 09            |        ....    |        corr: 9 0xd28-0xd2c (4)
     |                                               |                |      [9]{}: leap_second_record 0xd2c-0xd38 (12)
0xd20|                                    00 00 00 00|            ....|        occur: "1981-07-01T00:00:09Z" (362793609) 0xd2c-0xd34 (8)
0xd30|15 9f ca 89                                    |....            |
0xd30|            00 00 00 0a                        |    ....        |        corr: 10 0xd34-0xd38 (4)
     |                                               |                |      [10]{}: leap_second_record 0xd38-0xd44 (12)
0xd30|                        00 00 00 00 17 80 fe 0a|        ........|        occur: "1982-07-01T00:00:10Z" (394329610) 0xd38-0xd40 (8)
0xd40|00 00 00 0b                                    |....            |        corr: 11 0xd40-0xd44 (4)
     |                                               |                |      [11]{}: leap_second_record 0xd44-0xd50 (12)
0xd40|            00 00 00 00 19 62 31 8b            |    .....b1.    |        occur: "1983-07-01T00:00:11Z" (425865611) 0xd44-0xd4c (8)
0xd40|                                    00 00 00 0c|            ....|        corr: 12 0xd4c-0xd50 (4)
     |                                               |                |      [12]{}: leap_second_record 0xd50-0xd5c (12)
0xd50|00 00 00 00 1d 25 ea 0c                        |.....%..        |        occur: "1985-07-01T00:00:12Z" (489024012) 0xd50-0xd58 (8)
0xd50|                        00 00 00 0d            |        ....    |        corr: 13 0xd58-0xd5c (4)
     |                                               |                |      [13]{}: leap_second_record 0xd5c-0xd68 (12)
0xd50|                                    00 00 00 00|            ....|        occur: "1988-01-01T00:00:13Z" (567993613) 0xd5c-0xd64 (8)
0xd60|21 da e5 0d                                    |!...            |
0xd60|            00 00 00 0e                        |    ....        |        corr: 14 0xd64-0xd68 (4)
     |                                               |                |      [14]{}: leap_second_record 0xd68-0xd74 (12)
0xd60|                        00 00 00 00 25 9e 9d 8e|        ....%...|        occur: "1990-01-01T00:00:14Z" (631152014) 0xd68-0xd70 (8)
0xd70|00 00 00 0f                                    |....            |        corr: 15 0xd70-0xd74 (4)
     |                                               |                |      [15]{}: leap_second_record 0xd74-0xd80 (12)
0xd70|            00 00 00 00 27 7f d1 0f            |    ....'...    |        occur: "1991-01-01T00:00:15Z" (662688015) 0xd74-0xd7c (8)
0xd70|                                    00 00 00 10|            ....|        corr: 16 0xd7c-0xd80 (4)
     |                                               |                |      [16]{}: leap_second_record 0xd80-0xd8c (12)
0xd80|00 00 00 00 2a 50 f5 90                        |....*P..        |        occur: "1992-07-01T00:00:16Z" (709948816) 0xd80-0xd88 (8)
0xd80|                        00 00 00 11            |        ....    |        corr: 17 0xd88-0xd8c (4)
     |                                               |                |      [17]{}: leap_second_record 0xd8c-0xd98 (12)
0xd80|                                    00 00 00 00|            ....|        occur: "1993-07-01T00:00:17Z" (741484817) 0xd8c-0xd94 (8)
0xd90|2c 32 29 11                                    |,2).            |
0xd90|            00 00 00 12                        |    ....        |        corr: 18 0xd94-0xd98 (4)
     |                                               |                |      [18]{}: leap_second_record 0xd98-0xda4 (12)
0xd90|                        00 00 00 00 2e 13 5c 92|        ......\.|        occur: "1994-07-01T00:00:18Z" (773020818) 0xd98-0xda0 (8)
0xda0|00 00 00 13                                    |....            |        corr: 19 0xda0-0xda4 (4)
     |                                               |                |      [19]{}: leap_second_record 0xda4-0xdb0 (12)
0xda0|            00 00 00 00 30 e7 24 13            |    ....0.$.    |        occur: "1996-01-01T00:00:19Z" (820454419) 0xda4-0xdac (8)
0xda0|                                    00 00 00 14|            ....|        corr: 20 0xdac-0xdb0 (4)
     |                                               |                |      [20]{}: leap_second_record 0xdb0-0xdbc (12)
0xdb0|00 00 00 00 33 b8 48 94                        |....3.H.        |        occur: "1997-07-01T00:00:20Z" (867715220) 0xdb0-0xdb8 (8)
0xdb0|                        00 00 00 15            |        ....    |        corr: 21 0xdb8-0xdbc (4)
     |                                               |                |      [21]{}: leap_second_record 0xdbc-0xdc8 (12)
0xdb0|                                    00 00 00 00|            ....|        occur: "1999-01-01T00:00:21Z" (915148821) 0xdbc-0xdc4 (8)
0xdc0|36 8c 10 15                                    |6...            |
0xdc0|            00 00 00 16                        |    ....        |        corr: 22 0xdc4-0xdc8 (4)
     |                                               |                |      [22]{}: leap_second_record 0xdc8-0xdd4 (12)
0xdc0|                        00 00 00 00 43 b7 1b 96|        ....C...|        occur: "2006-01-01T00:00:22Z" (1136073622) 0xdc8-0xdd0 (8)
0xdd0|00 00 00 17                                    |....            |        corr: 23 0xdd0-0xdd4 (4)
     |                                               |                |      [23]{}: leap_second_record 0xdd4-0xde0 (12)
0xdd0|            00 00 00 00 49 5c 07 97            |    ....I\..    |        occur: "2009-01-01T00:00:23Z" (1230768023) 0xdd4-0xddc (8)
0xdd0|                                    00 00 00 18|            ....|        corr: 24 0xddc-0xde0 (4)
     |                                               |                |      [24]{}: leap_second_record 0xde0-0xdec (12)
0xde0|00 00 00 00 4f ef 93 18                        |....O...        |        occur: "2012-07-01T00:00:24Z" (1341100824) 0xde0-0xde8 (8)
0xde0|                        00 00 00 19            |        ....    |        corr: 25 0xde8-0xdec (4)
     |                                               |                |      [25]{}: leap_second_record 0xdec-0xdf8 (12)
0xde0|                                    00 00 00 00|            ....|        occur: "2015-07-01T00:00:25Z" (1435708825) 0xdec-0xdf4 (8)
0xdf0|55 93 2d 99                                    |U.-.            |
0xdf0|            00 00 00 1a                        |    ....        |        corr: 26 0xdf4-0xdf8 (4)
     |                                               |                |      [26]{}: leap_second_record 0xdf8-0xe04 (12)
0xdf0|                        00 00 00 00 58 68 46 9a|        ....XhF.|        occur: "2017-01-01T00:00:26Z" (1483228826) 0xdf8-0xe00 (8)
0xe00|00 00 00 1b                                    |....            |        corr: 27 0xe00-0xe04 (4)
     |                                               |                |    standard_wall_indicators[0:13]: 0xe04-0xe11 (13)
0xe00|            00                                 |    .           |      [0]: 0 standard_wall_indicator (valid) 0xe04-0xe05 (1)
0xe00|               00                              |     .          |      [1]: 0 standard_wall_indicator (valid) 0xe05-0xe06 (1)
0xe00|                  00                           |      .         |      [2]: 0 standard_wall_indicator (valid) 0xe06-0xe07 (1)
0xe00|                     00                        |       .        |      [3]: 0 standard_wall_indicator (valid) 0xe07-0xe08 (1)
0xe00|                        01                     |        .       |      [4]: 1 standard_wall_indicator (valid) 0xe08-0xe09 (1)
0xe00|                           01                  |         .      |      [5]: 1 standard_wall_indicator (valid) 0xe09-0xe0a (1)
0xe00|                              01               |          .     |      [6]: 1 standard_wall_indicator (valid) 0xe0a-0xe0b (1)
0xe00|                                 01            |           .    |      [7]: 1 standard_wall_indicator (valid) 0xe0b-0xe0c (1)
0xe00|                                    01         |            .   |      [8]: 1 standard_wall_indicator (valid) 0xe0c-0xe0d (1)
0xe00|                                       00      |             .  |      [9]: 0 standard_wall_indicator (valid) 0xe0d-0xe0e (1)
0xe00|                                          01   |              . |      [10]: 1 standard_wall_indicator (valid) 0xe0e-0xe0f (1)
0xe00|                                             01|               .|      [11]: 1 standard_wall_indicator (valid) 0xe0f-0xe10 (1)
0xe10|01                                             |.               |      [12]: 1 standard_wall_indicator (valid) 0xe10-0xe11 (1)
     |                                               |                |    ut_local_indicators[0:13]: 0xe11-0xe1e (13)
0xe10|   00                                          | .              |      [0]: 0 ut_local_indicator (valid) 0xe11-0xe12 (1)
0xe10|      00                                       |  .             |      [1]: 0 ut_local_indicator (valid) 0xe12-0xe13 (1)
0xe10|         00                                    |   .            |      [2]: 0 ut_local_indicator (valid) 0xe13-0xe14 (1)
0xe10|            00                                 |    .           |      [3]: 0 ut_local_indicator (valid) 0xe14-0xe15 (1)
0xe10|               00                              |     .          |      [4]: 0 ut_local_indicator (valid) 0xe15-0xe16 (1)
0xe10|                  00                           |      .         |      [5]: 0 ut_local_indicator (valid) 0xe16-0xe17 (1)
0xe10|                     01                        |       .        |      [6]: 1 ut_local_indicator (valid) 0xe17-0xe18 (1)
0xe10|                        00                     |        .       |      [7]: 0 ut_local_indicator (valid) 0xe18-0xe19 (1)
0xe10|                           00                  |         .      |      [8]: 0 ut_local_indicator (valid) 0xe19-0xe1a (1)
0xe10|                              00               |          .     |      [9]: 0 ut_local_indicator (valid) 0xe1a-0xe1b (1)
0xe10|                                 00            |           .    |      [10]: 0 ut_local_indicator (valid) 0xe1b-0xe1c (1)
0xe10|                                    01         |            .   |      [11]: 1 ut_local_indicator (valid) 0xe1c-0xe1d (1)
0xe10|                                       01      |             .  |      [12]: 1 ut_local_indicator (valid) 0xe1d-0xe1e (1)
     |                                               |                |  footer{}: 0xe1e-0xe20 (2)
0xe10|                                          0a   |              . |    nl1: 10 (valid) 0xe1e-0xe1f (1)
     |                                               |                |    tz_string: "" 0xe1f-0xe1f (0)
0xe10|                                             0a|               .|    nl2: 10 (valid) 0xe1f-0xe20 (1)
