$ fq -d tzif dv Azores
     |00 01 02 03 04 05 06 07 08 09 0a 0b 0c 0d 0e 0f|0123456789abcdef|.{}: Azores (tzif) 0x0-0xe1f.7 (3616)
     |                                               |                |  v1header{}: 0x0-0x2b.7 (44)
0x000|54 5a 69 66                                    |TZif            |    magic: 0x545a6966 (valid) 0x0-0x3.7 (4)
0x000|            32                                 |    2           |    ver: "2" (0x32) (valid) 0x4-0x4.7 (1)
0x000|               00 00 00 00 00 00 00 00 00 00 00|     ...........|    reserved: raw bits 0x5-0x13.7 (15)
0x010|00 00 00 00                                    |....            |
0x010|            00 00 00 0d                        |    ....        |    isutcnt: 13 0x14-0x17.7 (4)
0x010|                        00 00 00 0d            |        ....    |    isstdcnt: 13 0x18-0x1b.7 (4)
0x010|                                    00 00 00 1b|            ....|    leapcnt: 27 0x1c-0x1f.7 (4)
0x020|00 00 00 c3                                    |....            |    timecnt: 195 0x20-0x23.7 (4)
0x020|            00 00 00 0d                        |    ....        |    typecnt: 13 0x24-0x27.7 (4)
0x020|                        00 00 00 18            |        ....    |    charcnt: 24 0x28-0x2b.7 (4)
     |                                               |                |  v1datablock{}: 0x2c-0x552.7 (1319)
     |                                               |                |    transition_times[0:195]: 0x2c-0x337.7 (780)
0x020|                                    80 00 00 00|            ....|      [0]: "1901-12-13T20:45:52Z" (-2147483648) transition_time 0x2c-0x2f.7 (4)
0x030|92 e6 aa a0                                    |....            |      [1]: "1912-01-01T02:00:00Z" (-1830376800) transition_time 0x30-0x33.7 (4)
0x030|            9b 4b 89 90                        |    .K..        |      [2]: "1916-06-18T01:00:00Z" (-1689548400) transition_time 0x34-0x37.7 (4)
0x030|                        9b fe e3 a0            |        ....    |      [3]: "1916-11-01T02:00:00Z" (-1677794400) transition_time 0x38-0x3b.7 (4)
0x030|                                    9c 9d 09 90|            ....|      [4]: "1917-03-01T01:00:00Z" (-1667430000) transition_time 0x3c-0x3f.7 (4)
0x040|9d c9 9f 90                                    |....            |      [5]: "1917-10-15T01:00:00Z" (-1647730800) transition_time 0x40-0x43.7 (4)
0x040|            9e 7f 8e 90                        |    ....        |      [6]: "1918-03-02T01:00:00Z" (-1635807600) transition_time 0x44-0x47.7 (4)
0x040|                        9f aa d3 10            |        ....    |      [7]: "1918-10-15T01:00:00Z" (-1616194800) transition_time 0x48-0x4b.7 (4)
0x040|                                    a0 5f 70 90|            ._p.|      [8]: "1919-03-01T01:00:00Z" (-1604358000) transition_time 0x4c-0x4f.7 (4)
0x050|a1 8c 06 90                                    |....            |      [9]: "1919-10-15T01:00:00Z" (-1584658800) transition_time 0x50-0x53.7 (4)
0x050|            a2 41 f5 90                        |    .A..        |      [10]: "1920-03-01T01:00:00Z" (-1572735600) transition_time 0x54-0x57.7 (4)
0x050|                        a3 6e 8b 90            |        .n..    |      [11]: "1920-10-15T01:00:00Z" (-1553036400) transition_time 0x58-0x5b.7 (4)
0x050|                                    a4 23 29 10|            .#).|      [12]: "1921-03-01T01:00:00Z" (-1541199600) transition_time 0x5c-0x5f.7 (4)
0x060|a5 4f bf 10                                    |.O..            |      [13]: "1921-10-15T01:00:00Z" (-1521500400) transition_time 0x60-0x63.7 (4)
0x060|            aa 06 0b 90                        |    ....        |      [14]: "1924-04-17T01:00:00Z" (-1442444400) transition_time 0x64-0x67.7 (4)
0x060|                        aa f4 ab 10            |        ....    |      [15]: "1924-10-15T01:00:00Z" (-1426806000) transition_time 0x68-0x6b.7 (4)
0x060|                                    ad c9 c4 10|            ....|      [16]: "1926-04-18T01:00:00Z" (-1379286000) transition_time 0x6c-0x6f.7 (4)
0x070|ae a7 40 10                                    |..@.            |      [17]: "1926-10-03T01:00:00Z" (-1364770800) transition_time 0x70-0x73.7 (4)
0x070|            af a0 6b 90                        |    ..k.        |      [18]: "1927-04-10T01:00:00Z" (-1348441200) transition_time 0x74-0x77.7 (4)
0x070|                        b0 87 22 10            |        ..".    |      [19]: "1927-10-02T01:00:00Z" (-1333321200) transition_time 0x78-0x7b.7 (4)
0x070|                                    b1 89 88 10|            ....|      [20]: "1928-04-15T01:00:00Z" (-1316386800) transition_time 0x7c-0x7f.7 (4)
0x080|b2 70 3e 90                                    |.p>.            |      [21]: "1928-10-07T01:00:00Z" (-1301266800) transition_time 0x80-0x83.7 (4)
0x080|            b3 72 a4 90                        |    .r..        |      [22]: "1929-04-21T01:00:00Z" (-1284332400) transition_time 0x84-0x87.7 (4)
0x080|                        b4 50 20 90            |        .P .    |      [23]: "1929-10-06T01:00:00Z" (-1269817200) transition_time 0x88-0x8b.7 (4)
0x080|                                    b7 32 68 90|            .2h.|      [24]: "1931-04-19T01:00:00Z" (-1221433200) transition_time 0x8c-0x8f.7 (4)
0x090|b8 0f e4 90                                    |....            |      [25]: "1931-10-04T01:00:00Z" (-1206918000) transition_time 0x90-0x93.7 (4)
0x090|            b8 ff d5 90                        |    ....        |      [26]: "1932-04-03T01:00:00Z" (-1191193200) transition_time 0x94-0x97.7 (4)
0x090|                        b9 ef c6 90            |        ....    |      [27]: "1932-10-02T01:00:00Z" (-1175468400) transition_time 0x98-0x9b.7 (4)
0x090|                                    bc c8 d4 10|            ....|      [28]: "1934-04-08T01:00:00Z" (-1127689200) transition_time 0x9c-0x9f.7 (4)
0x0a0|bd b8 c5 10                                    |....            |      [29]: "1934-10-07T01:00:00Z" (-1111964400) transition_time 0xa0-0xa3.7 (4)
0x0a0|            be 9f 7b 90                        |    ..{.        |      [30]: "1935-03-31T01:00:00Z" (-1096844400) transition_time 0xa4-0xa7.7 (4)
0x0a0|                        bf 98 a7 10            |        ....    |      [31]: "1935-10-06T01:00:00Z" (-1080514800) transition_time 0xa8-0xab.7 (4)
0x0a0|                                    c0 9b 0d 10|            ....|      [32]: "1936-04-19T01:00:00Z" (-1063580400) transition_time 0xac-0xaf.7 (4)
0x0b0|c1 78 89 10                                    |.x..            |      [33]: "1936-10-04T01:00:00Z" (-1049065200) transition_time 0xb0-0xb3.7 (4)
0x0b0|            c2 68 7a 10                        |    .hz.        |      [34]: "1937-04-04T01:00:00Z" (-1033340400) transition_time 0xb4-0xb7.7 (4)
0x0b0|                        c3 58 6b 10            |        .Xk.    |      [35]: "1937-10-03T01:00:00Z" (-1017615600) transition_time 0xb8-0xbb.7 (4)
0x0b0|                                    c4 3f 21 90|            .?!.|      [36]: "1938-03-27T01:00:00Z" (-1002495600) transition_time 0xbc-0xbf.7 (4)
0x0c0|c5 38 4d 10                                    |.8M.            |      [37]: "1938-10-02T01:00:00Z" (-986166000) transition_time 0xc0-0xc3.7 (4)
0x0c0|            c6 3a b3 10                        |    .:..        |      [38]: "1939-04-16T01:00:00Z" (-969231600) transition_time 0xc4-0xc7.7 (4)
0x0c0|                        c7 58 c8 90            |        .X..    |      [39]: "1939-11-19T01:00:00Z" (-950482800) transition_time 0xc8-0xcb.7 (4)
0x0c0|                                    c7 d9 fb 90|            ....|      [40]: "1940-02-25T01:00:00Z" (-942015600) transition_time 0xcc-0xcf.7 (4)
0x0d0|c9 01 4b 90                                    |..K.            |      [41]: "1940-10-06T01:00:00Z" (-922662000) transition_time 0xd0-0xd3.7 (4)
0x0d0|            c9 f1 3c 90                        |    ..<.        |      [42]: "1941-04-06T01:00:00Z" (-906937200) transition_time 0xd4-0xd7.7 (4)
0x0d0|                        ca e2 7f 10            |        ....    |      [43]: "1941-10-06T01:00:00Z" (-891126000) transition_time 0xd8-0xdb.7 (4)
0x0d0|                                    cb b5 6f 10|            ..o.|      [44]: "1942-03-15T01:00:00Z" (-877302000) transition_time 0xdc-0xdf.7 (4)
0x0e0|cb ec c0 00                                    |....            |      [45]: "1942-04-26T00:00:00Z" (-873676800) transition_time 0xe0-0xe3.7 (4)
0x0e0|            cc 80 68 00                        |    ..h.        |      [46]: "1942-08-16T00:00:00Z" (-864000000) transition_time 0xe4-0xe7.7 (4)
0x0e0|                        cc dc bf 10            |        ....    |      [47]: "1942-10-25T01:00:00Z" (-857948400) transition_time 0xe8-0xeb.7 (4)
0x0e0|                                    cd 95 51 10|            ..Q.|      [48]: "1943-03-14T01:00:00Z" (-845852400) transition_time 0xec-0xef.7 (4)
0x0f0|cd c3 67 80                                    |..g.            |      [49]: "1943-04-18T00:00:00Z" (-842832000) transition_time 0xf0-0xf3.7 (4)
0x0f0|            ce 72 bf 00                        |    .r..        |      [50]: "1943-08-29T00:00:00Z" (-831340800) transition_time 0xf4-0xf7.7 (4)
0x0f0|                        ce c5 db 90            |        ....    |      [51]: "1943-10-31T01:00:00Z" (-825894000) transition_time 0xf8-0xfb.7 (4)
0x0f0|                                    cf 75 33 10|            .u3.|      [52]: "1944-03-12T01:00:00Z" (-814402800) transition_time 0xfc-0xff.7 (4)
0x100|cf ac 84 00                                    |....            |      [53]: "1944-04-23T00:00:00Z" (-810777600) transition_time 0x100-0x103.7 (4)
0x100|            d0 52 a1 00                        |    .R..        |      [54]: "1944-08-27T00:00:00Z" (-799891200) transition_time 0x104-0x107.7 (4)
0x100|                        d0 a5 bd 90            |        ....    |      [55]: "1944-10-29T01:00:00Z" (-794444400) transition_time 0x108-0x10b.7 (4)
0x100|                                    d1 55 15 10|            .U..|      [56]: "1945-03-11T01:00:00Z" (-782953200) transition_time 0x10c-0x10f.7 (4)
0x110|d1 8c 66 00                                    |..f.            |      [57]: "1945-04-22T00:00:00Z" (-779328000) transition_time 0x110-0x113.7 (4)
0x110|            d2 32 83 00                        |    .2..        |      [58]: "1945-08-26T00:00:00Z" (-768441600) transition_time 0x114-0x117.7 (4)
0x110|                        d2 85 9f 90            |        ....    |      [59]: "1945-10-28T01:00:00Z" (-762994800) transition_time 0x118-0x11b.7 (4)
0x110|                                    d3 59 e1 10|            .Y..|      [60]: "1946-04-07T01:00:00Z" (-749084400) transition_time 0x11c-0x11f.7 (4)
0x120|d4 49 d2 10                                    |.I..            |      [61]: "1946-10-06T01:00:00Z" (-733359600) transition_time 0x120-0x123.7 (4)
0x120|            d5 39 ed 40                        |    .9.@        |      [62]: "1947-04-06T04:00:00Z" (-717624000) transition_time 0x124-0x127.7 (4)
0x120|                        d6 29 de 40            |        .).@    |      [63]: "1947-10-05T04:00:00Z" (-701899200) transition_time 0x128-0x12b.7 (4)
0x120|                                    d7 19 cf 40|            ...@|      [64]: "1948-04-04T04:00:00Z" (-686174400) transition_time 0x12c-0x12f.7 (4)
0x130|d8 09 c0 40                                    |...@            |      [65]: "1948-10-03T04:00:00Z" (-670449600) transition_time 0x130-0x133.7 (4)
0x130|            d8 f9 b1 40                        |    ...@        |      [66]: "1949-04-03T04:00:00Z" (-654724800) transition_time 0x134-0x137.7 (4)
0x130|                        d9 e9 a2 40            |        ...@    |      [67]: "1949-10-02T04:00:00Z" (-639000000) transition_time 0x138-0x13b.7 (4)
0x130|                                    da d9 93 40|            ...@|      [68]: "1950-04-02T04:00:00Z" (-623275200) transition_time 0x13c-0x13f.7 (4)
0x140|db c9 84 40                                    |...@            |      [69]: "1950-10-01T04:00:00Z" (-607550400) transition_time 0x140-0x143.7 (4)
0x140|            dc b9 75 40                        |    ..u@        |      [70]: "1951-04-01T04:00:00Z" (-591825600) transition_time 0x144-0x147.7 (4)
0x140|                        dd b2 a0 c0            |        ....    |      [71]: "1951-10-07T04:00:00Z" (-575496000) transition_time 0x148-0x14b.7 (4)
0x140|                                    de a2 91 c0|            ....|      [72]: "1952-04-06T04:00:00Z" (-559771200) transition_time 0x14c-0x14f.7 (4)
0x150|df 92 82 c0                                    |....            |      [73]: "1952-10-05T04:00:00Z" (-544046400) transition_time 0x150-0x153.7 (4)
0x150|            e0 82 73 c0                        |    ..s.        |      [74]: "1953-04-05T04:00:00Z" (-528321600) transition_time 0x154-0x157.7 (4)
0x150|                        e1 72 64 c0            |        .rd.    |      [75]: "1953-10-04T04:00:00Z" (-512596800) transition_time 0x158-0x15b.7 (4)
0x150|                                    e2 62 55 c0|            .bU.|      [76]: "1954-04-04T04:00:00Z" (-496872000) transition_time 0x15c-0x15f.7 (4)
0x160|e3 52 46 c0                                    |.RF.            |      [77]: "1954-10-03T04:00:00Z" (-481147200) transition_time 0x160-0x163.7 (4)
0x160|            e4 42 37 c0                        |    .B7.        |      [78]: "1955-04-03T04:00:00Z" (-465422400) transition_time 0x164-0x167.7 (4)
0x160|                        e5 32 28 c0            |        .2(.    |      [79]: "1955-10-02T04:00:00Z" (-449697600) transition_time 0x168-0x16b.7 (4)
0x160|                                    e6 22 19 c0|            ."..|      [80]: "1956-04-01T04:00:00Z" (-433972800) transition_time 0x16c-0x16f.7 (4)
0x170|e7 1b 45 40                                    |..E@            |      [81]: "1956-10-07T04:00:00Z" (-417643200) transition_time 0x170-0x173.7 (4)
0x170|            e8 0b 36 40                        |    ..6@        |      [82]: "1957-04-07T04:00:00Z" (-401918400) transition_time 0x174-0x177.7 (4)
0x170|                        e8 fb 27 40            |        ..'@    |      [83]: "1957-10-06T04:00:00Z" (-386193600) transition_time 0x178-0x17b.7 (4)
0x170|                                    e9 eb 18 40|            ...@|      [84]: "1958-04-06T04:00:00Z" (-370468800) transition_time 0x17c-0x17f.7 (4)
0x180|ea db 09 40                                    |...@            |      [85]: "1958-10-05T04:00:00Z" (-354744000) transition_time 0x180-0x183.7 (4)
0x180|            eb ca fa 40                        |    ...@        |      [86]: "1959-04-05T04:00:00Z" (-339019200) transition_time 0x184-0x187.7 (4)
0x180|                        ec ba eb 40            |        ...@    |      [87]: "1959-10-04T04:00:00Z" (-323294400) transition_time 0x188-0x18b.7 (4)
0x180|                                    ed aa dc 40|            ...@|      [88]: "1960-04-03T04:00:00Z" (-307569600) transition_time 0x18c-0x18f.7 (4)
0x190|ee 9a cd 40                                    |...@            |      [89]: "1960-10-02T04:00:00Z" (-291844800) transition_time 0x190-0x193.7 (4)
0x190|            ef 8a be 40                        |    ...@        |      [90]: "1961-04-02T04:00:00Z" (-276120000) transition_time 0x194-0x197.7 (4)
0x190|                        f0 7a af 40            |        .z.@    |      [91]: "1961-10-01T04:00:00Z" (-260395200) transition_time 0x198-0x19b.7 (4)
0x190|                                    f1 6a a0 40|            .j.@|      [92]: "1962-04-01T04:00:00Z" (-244670400) transition_time 0x19c-0x19f.7 (4)
0x1a0|f2 63 cb c0                                    |.c..            |      [93]: "1962-10-07T04:00:00Z" (-228340800) transition_time 0x1a0-0x1a3.7 (4)
0x1a0|            f3 53 bc c0                        |    .S..        |      [94]: "1963-04-07T04:00:00Z" (-212616000) transition_time 0x1a4-0x1a7.7 (4)
0x1a0|                        f4 43 ad c0            |        .C..    |      [95]: "1963-10-06T04:00:00Z" (-196891200) transition_time 0x1a8-0x1ab.7 (4)
0x1a0|                                    f5 33 9e c0|            .3..|      [96]: "1964-04-05T04:00:00Z" (-181166400) transition_time 0x1ac-0x1af.7 (4)
0x1b0|f6 23 8f c0                                    |.#..            |      [97]: "1964-10-04T04:00:00Z" (-165441600) transition_time 0x1b0-0x1b3.7 (4)
0x1b0|            f7 13 80 c0                        |    ....        |      [98]: "1965-04-04T04:00:00Z" (-149716800) transition_time 0x1b4-0x1b7.7 (4)
0x1b0|                        f8 03 71 c0            |        ..q.    |      [99]: "1965-10-03T04:00:00Z" (-133992000) transition_time 0x1b8-0x1bb.7 (4)
0x1b0|                                    f8 f3 62 c0|            ..b.|      [100]: "1966-04-03T04:00:00Z" (-118267200) transition_time 0x1bc-0x1bf.7 (4)
0x1c0|0d 9b 29 16                                    |..).            |      [101]: "1977-03-27T01:00:06Z" (228272406) transition_time 0x1c0-0x1c3.7 (4)
0x1c0|            0e 8b 1a 16                        |    ....        |      [102]: "1977-09-25T01:00:06Z" (243997206) transition_time 0x1c4-0x1c7.7 (4)
0x1c0|                        0f 84 45 97            |        ..E.    |      [103]: "1978-04-02T01:00:07Z" (260326807) transition_time 0x1c8-0x1cb.7 (4)
0x1c0|                                    10 74 36 97|            .t6.|      [104]: "1978-10-01T01:00:07Z" (276051607) transition_time 0x1cc-0x1cf.7 (4)
0x1d0|11 64 27 98                                    |.d'.            |      [105]: "1979-04-01T01:00:08Z" (291776408) transition_time 0x1d0-0x1d3.7 (4)
0x1d0|            12 54 26 a8                        |    .T&.        |      [106]: "1979-09-30T02:00:08Z" (307504808) transition_time 0x1d4-0x1d7.7 (4)
0x1d0|                        13 44 09 99            |        .D..    |      [107]: "1980-03-30T01:00:09Z" (323226009) transition_time 0x1d8-0x1db.7 (4)
0x1d0|                                    14 34 08 a9|            .4..|      [108]: "1980-09-28T02:00:09Z" (338954409) transition_time 0x1dc-0x1df.7 (4)
0x1e0|15 23 f9 a9                                    |.#..            |      [109]: "1981-03-29T02:00:09Z" (354679209) transition_time 0x1e0-0x1e3.7 (4)
0x1e0|            16 13 ea aa                        |    ....        |      [110]: "1981-09-27T02:00:10Z" (370404010) transition_time 0x1e4-0x1e7.7 (4)
0x1e0|                        17 03 db aa            |        ....    |      [111]: "1982-03-28T02:00:10Z" (386128810) transition_time 0x1e8-0x1eb.7 (4)
0x1e0|                                    17 f3 cc ab|            ....|      [112]: "1982-09-26T02:00:11Z" (401853611) transition_time 0x1ec-0x1ef.7 (4)
0x1f0|18 e3 cb bb                                    |....            |      [113]: "1983-03-27T03:00:11Z" (417582011) transition_time 0x1f0-0x1f3.7 (4)
0x1f0|            19 d3 ae ac                        |    ....        |      [114]: "1983-09-25T02:00:12Z" (433303212) transition_time 0x1f4-0x1f7.7 (4)
0x1f0|                        1a c3 9f ac            |        ....    |      [115]: "1984-03-25T02:00:12Z" (449028012) transition_time 0x1f8-0x1fb.7 (4)
0x1f0|                                    1b bc cb 2c|            ...,|      [116]: "1984-09-30T02:00:12Z" (465357612) transition_time 0x1fc-0x1ff.7 (4)
0x200|1c ac bc 2c                                    |...,            |      [117]: "1985-03-31T02:00:12Z" (481082412) transition_time 0x200-0x203.7 (4)
0x200|            1d 9c ad 2d                        |    ...-        |      [118]: "1985-09-29T02:00:13Z" (496807213) transition_time 0x204-0x207.7 (4)
0x200|                        1e 8c 9e 2d            |        ...-    |      [119]: "1986-03-30T02:00:13Z" (512532013) transition_time 0x208-0x20b.7 (4)
0x200|                                    1f 7c 8f 2d|            .|.-|      [120]: "1986-09-28T02:00:13Z" (528256813) transition_time 0x20c-0x20f.7 (4)
0x210|20 6c 80 2d                                    | l.-            |      [121]: "1987-03-29T02:00:13Z" (543981613) transition_time 0x210-0x213.7 (4)
0x210|            21 5c 71 2d                        |    !\q-        |      [122]: "1987-09-27T02:00:13Z" (559706413) transition_time 0x214-0x217.7 (4)
0x210|                        22 4c 62 2e            |        "Lb.    |      [123]: "1988-03-27T02:00:14Z" (575431214) transition_time 0x218-0x21b.7 (4)
0x210|                                    23 3c 53 2e|            #<S.|      [124]: "1988-09-25T02:00:14Z" (591156014) transition_time 0x21c-0x21f.7 (4)
0x220|24 2c 44 2e                                    |$,D.            |      [125]: "1989-03-26T02:00:14Z" (606880814) transition_time 0x220-0x223.7 (4)
0x220|            25 1c 35 2e                        |    %.5.        |      [126]: "1989-09-24T02:00:14Z" (622605614) transition_time 0x224-0x227.7 (4)
0x220|                        26 0c 26 2f            |        &.&/    |      [127]: "1990-03-25T02:00:15Z" (638330415) transition_time 0x228-0x22b.7 (4)
0x220|                                    27 05 51 af|            '.Q.|      [128]: "1990-09-30T02:00:15Z" (654660015) transition_time 0x22c-0x22f.7 (4)
0x230|27 f5 42 b0                                    |'.B.            |      [129]: "1991-03-31T02:00:16Z" (670384816) transition_time 0x230-0x233.7 (4)
0x230|            28 e5 33 b0                        |    (.3.        |      [130]: "1991-09-29T02:00:16Z" (686109616) transition_time 0x234-0x237.7 (4)
0x230|                        29 d5 24 b0            |        ).$.    |      [131]: "1992-03-29T02:00:16Z" (701834416) transition_time 0x238-0x23b.7 (4)
0x230|                                    2a c5 15 b1|            *...|      [132]: "1992-09-27T02:00:17Z" (717559217) transition_time 0x23c-0x23f.7 (4)
0x240|2b b4 f8 a1                                    |+...            |      [133]: "1993-03-28T01:00:17Z" (733280417) transition_time 0x240-0x243.7 (4)
0x240|            2c a4 e9 a2                        |    ,...        |      [134]: "1993-09-26T01:00:18Z" (749005218) transition_time 0x244-0x247.7 (4)
0x240|                        2d 94 da a2            |        -...    |      [135]: "1994-03-27T01:00:18Z" (764730018) transition_time 0x248-0x24b.7 (4)
0x240|                                    2e 84 cb a3|            ....|      [136]: "1994-09-25T01:00:19Z" (780454819) transition_time 0x24c-0x24f.7 (4)
0x250|2f 74 bc a3                                    |/t..            |      [137]: "1995-03-26T01:00:19Z" (796179619) transition_time 0x250-0x253.7 (4)
0x250|            30 64 ad a3                        |    0d..        |      [138]: "1995-09-24T01:00:19Z" (811904419) transition_time 0x254-0x257.7 (4)
0x250|                        31 5d d9 24            |        1].$    |      [139]: "1996-03-31T01:00:20Z" (828234020) transition_time 0x258-0x25b.7 (4)
0x250|                                    32 72 b4 24|            2r.$|      [140]: "1996-10-27T01:00:20Z" (846378020) transition_time 0x25c-0x25f.7 (4)
0x260|33 3d bb 24                                    |3=.$            |      [141]: "1997-03-30T01:00:20Z" (859683620) transition_time 0x260-0x263.7 (4)
0x260|            34 52 96 25                        |    4R.%        |      [142]: "1997-10-26T01:00:21Z" (877827621) transition_time 0x264-0x267.7 (4)
0x260|                        35 1d 9d 25            |        5..%    |      [143]: "1998-03-29T01:00:21Z" (891133221) transition_time 0x268-0x26b.7 (4)
0x260|                                    36 32 78 25|            62x%|      [144]: "1998-10-25T01:00:21Z" (909277221) transition_time 0x26c-0x26f.7 (4)
0x270|36 fd 7f 26                                    |6..&            |      [145]: "1999-03-28T01:00:22Z" (922582822) transition_time 0x270-0x273.7 (4)
0x270|            38 1b 94 a6                        |    8...        |      [146]: "1999-10-31T01:00:22Z" (941331622) transition_time 0x274-0x277.7 (4)
0x270|                        38 dd 61 26            |        8.a&    |      [147]: "2000-03-26T01:00:22Z" (954032422) transition_time 0x278-0x27b.7 (4)
0x270|                                    39 fb 76 a6|            9.v.|      [148]: "2000-10-29T01:00:22Z" (972781222) transition_time 0x27c-0x27f.7 (4)
0x280|3a bd 43 26                                    |:.C&            |      [149]: "2001-03-25T01:00:22Z" (985482022) transition_time 0x280-0x283.7 (4)
0x280|            3b db 58 a6                        |    ;.X.        |      [150]: "2001-10-28T01:00:22Z" (1004230822) transition_time 0x284-0x287.7 (4)
0x280|                        3c a6 5f a6            |        <._.    |      [151]: "2002-03-31T01:00:22Z" (1017536422) transition_time 0x288-0x28b.7 (4)
0x280|                                    3d bb 3a a6|            =.:.|      [152]: "2002-10-27T01:00:22Z" (1035680422) transition_time 0x28c-0x28f.7 (4)
0x290|3e 86 41 a6                                    |>.A.            |      [153]: "2003-03-30T01:00:22Z" (1048986022) transition_time 0x290-0x293.7 (4)
0x290|            3f 9b 1c a6                        |    ?...        |      [154]: "2003-10-26T01:00:22Z" (1067130022) transition_time 0x294-0x297.7 (4)
0x290|                        40 66 23 a6            |        @f#.    |      [155]: "2004-03-28T01:00:22Z" (1080435622) transition_time 0x298-0x29b.7 (4)
0x290|                                    41 84 39 26|            A.9&|      [156]: "2004-10-31T01:00:22Z" (1099184422) transition_time 0x29c-0x29f.7 (4)
0x2a0|42 46 05 a6                                    |BF..            |      [157]: "2005-03-27T01:00:22Z" (1111885222) transition_time 0x2a0-0x2a3.7 (4)
0x2a0|            43 64 1b 26                        |    Cd.&        |      [158]: "2005-10-30T01:00:22Z" (1130634022) transition_time 0x2a4-0x2a7.7 (4)
0x2a0|                        44 25 e7 a7            |        D%..    |      [159]: "2006-03-26T01:00:23Z" (1143334823) transition_time 0x2a8-0x2ab.7 (4)
0x2a0|                                    45 43 fd 27|            EC.'|      [160]: "2006-10-29T01:00:23Z" (1162083623) transition_time 0x2ac-0x2af.7 (4)
0x2b0|46 05 c9 a7                                    |F...            |      [161]: "2007-03-25T01:00:23Z" (1174784423) transition_time 0x2b0-0x2b3.7 (4)
0x2b0|            47 23 df 27                        |    G#.'        |      [162]: "2007-10-28T01:00:23Z" (1193533223) transition_time 0x2b4-0x2b7.7 (4)
0x2b0|                        47 ee e6 27            |        G..'    |      [163]: "2008-03-30T01:00:23Z" (1206838823) transition_time 0x2b8-0x2bb.7 (4)
0x2b0|                                    49 03 c1 27|            I..'|      [164]: "2008-10-26T01:00:23Z" (1224982823) transition_time 0x2bc-0x2bf.7 (4)
0x2c0|49 ce c8 28                                    |I..(            |      [165]: "2009-03-29T01:00:24Z" (1238288424) transition_time 0x2c0-0x2c3.7 (4)
0x2c0|            4a e3 a3 28                        |    J..(        |      [166]: "2009-10-25T01:00:24Z" (1256432424) transition_time 0x2c4-0x2c7.7 (4)
0x2c0|                        4b ae aa 28            |        K..(    |      [167]: "2010-03-28T01:00:24Z" (1269738024) transition_time 0x2c8-0x2cb.7 (4)
0x2c0|                                    4c cc bf a8|            L...|      [168]: "2010-10-31T01:00:24Z" (1288486824) transition_time 0x2cc-0x2cf.7 (4)
0x2d0|4d 8e 8c 28                                    |M..(            |      [169]: "2011-03-27T01:00:24Z" (1301187624) transition_time 0x2d0-0x2d3.7 (4)
0x2d0|            4e ac a1 a8                        |    N...        |      [170]: "2011-10-30T01:00:24Z" (1319936424) transition_time 0x2d4-0x2d7.7 (4)
0x2d0|                        4f 6e 6e 28            |        Onn(    |      [171]: "2012-03-25T01:00:24Z" (1332637224) transition_time 0x2d8-0x2db.7 (4)
0x2d0|                                    50 8c 83 a9|            P...|      [172]: "2012-10-28T01:00:25Z" (1351386025) transition_time 0x2dc-0x2df.7 (4)
0x2e0|51 57 8a a9                                    |QW..            |      [173]: "2013-03-31T01:00:25Z" (1364691625) transition_time 0x2e0-0x2e3.7 (4)
0x2e0|            52 6c 65 a9                        |    Rle.        |      [174]: "2013-10-27T01:00:25Z" (1382835625) transition_time 0x2e4-0x2e7.7 (4)
0x2e0|                        53 37 6c a9            |        S7l.    |      [175]: "2014-03-30T01:00:25Z" (1396141225) transition_time 0x2e8-0x2eb.7 (4)
0x2e0|                                    54 4c 47 a9|            TLG.|      [176]: "2014-10-26T01:00:25Z" (1414285225) transition_time 0x2ec-0x2ef.7 (4)
0x2f0|55 17 4e a9                                    |U.N.            |      [177]: "2015-03-29T01:00:25Z" (1427590825) transition_time 0x2f0-0x2f3.7 (4)
0x2f0|            56 2c 29 aa                        |    V,).        |      [178]: "2015-10-25T01:00:26Z" (1445734826) transition_time 0x2f4-0x2f7.7 (4)
0x2f0|                        56 f7 30 aa            |        V.0.    |      [179]: "2016-03-27T01:00:26Z" (1459040426) transition_time 0x2f8-0x2fb.7 (4)
0x2f0|                                    58 15 46 2a|            X.F*|      [180]: "2016-10-30T01:00:26Z" (1477789226) transition_time 0x2fc-0x2ff.7 (4)
0x300|58 d7 12 ab                                    |X...            |      [181]: "2017-03-26T01:00:27Z" (1490490027) transition_time 0x300-0x303.7 (4)
0x300|            59 f5 28 2b                        |    Y.(+        |      [182]: "2017-10-29T01:00:27Z" (1509238827) transition_time 0x304-0x307.7 (4)
0x300|                        5a b6 f4 ab            |        Z...    |      [183]: "2018-03-25T01:00:27Z" (1521939627) transition_time 0x308-0x30b.7 (4)
0x300|                                    5b d5 0a 2b|            [..+|      [184]: "2018-10-28T01:00:27Z" (1540688427) transition_time 0x30c-0x30f.7 (4)
0x310|5c a0 11 2b                                    |\..+            |      [185]: "2019-03-31T01:00:27Z" (1553994027) transition_time 0x310-0x313.7 (4)
0x310|            5d b4 ec 2b                        |    ]..+        |      [186]: "2019-10-27T01:00:27Z" (1572138027) transition_time 0x314-0x317.7 (4)
0x310|                        5e 7f f3 2b            |        ^..+    |      [187]: "2020-03-29T01:00:27Z" (1585443627) transition_time 0x318-0x31b.7 (4)
0x310|                                    5f 94 ce 2b|            _..+|      [188]: "2020-10-25T01:00:27Z" (1603587627) transition_time 0x31c-0x31f.7 (4)
0x320|60 5f d5 2b                                    |`_.+            |      [189]: "2021-03-28T01:00:27Z" (1616893227) transition_time 0x320-0x323.7 (4)
0x320|            61 7d ea ab                        |    a}..        |      [190]: "2021-10-31T01:00:27Z" (1635642027) transition_time 0x324-0x327.7 (4)
0x320|                        62 3f b7 2b            |        b?.+    |      [191]: "2022-03-27T01:00:27Z" (1648342827) transition_time 0x328-0x32b.7 (4)
0x320|                                    63 5d cc ab|            c]..|      [192]: "2022-10-30T01:00:27Z" (1667091627) transition_time 0x32c-0x32f.7 (4)
0x330|64 1f 99 2b                                    |d..+            |      [193]: "2023-03-26T01:00:27Z" (1679792427) transition_time 0x330-0x333.7 (4)
0x330|            64 9b 78 1b                        |    d.x.        |      [194]: "2023-06-28T00:00:27Z" (1687910427) transition_time 0x334-0x337.7 (4)
     |                                               |                |    transition_types[0:195]: 0x338-0x3fa.7 (195)
0x330|                        01                     |        .       |      [0]: 1 transition_type 0x338-0x338.7 (1)
0x330|                           06                  |         .      |      [1]: 6 transition_type 0x339-0x339.7 (1)
0x330|                              02               |          .     |      [2]: 2 transition_type 0x33a-0x33a.7 (1)
0x330|                                 03            |           .    |      [3]: 3 transition_type 0x33b-0x33b.7 (1)
0x330|                                    04         |            .   |      [4]: 4 transition_type 0x33c-0x33c.7 (1)
0x330|                                       05      |             .  |      [5]: 5 transition_type 0x33d-0x33d.7 (1)
0x330|                                          04   |              . |      [6]: 4 transition_type 0x33e-0x33e.7 (1)
0x330|                                             05|               .|      [7]: 5 transition_type 0x33f-0x33f.7 (1)
0x340|04                                             |.               |      [8]: 4 transition_type 0x340-0x340.7 (1)
0x340|   05                                          | .              |      [9]: 5 transition_type 0x341-0x341.7 (1)
0x340|      04                                       |  .             |      [10]: 4 transition_type 0x342-0x342.7 (1)
0x340|         05                                    |   .            |      [11]: 5 transition_type 0x343-0x343.7 (1)
0x340|            04                                 |    .           |      [12]: 4 transition_type 0x344-0x344.7 (1)
0x340|               05                              |     .          |      [13]: 5 transition_type 0x345-0x345.7 (1)
0x340|                  04                           |      .         |      [14]: 4 transition_type 0x346-0x346.7 (1)
0x340|                     05                        |       .        |      [15]: 5 transition_type 0x347-0x347.7 (1)
0x340|                        04                     |        .       |      [16]: 4 transition_type 0x348-0x348.7 (1)
0x340|                           05                  |         .      |      [17]: 5 transition_type 0x349-0x349.7 (1)
0x340|                              04               |          .     |      [18]: 4 transition_type 0x34a-0x34a.7 (1)
0x340|                                 05            |           .    |      [19]: 5 transition_type 0x34b-0x34b.7 (1)
0x340|                                    04         |            .   |      [20]: 4 transition_type 0x34c-0x34c.7 (1)
0x340|                                       05      |             .  |      [21]: 5 transition_type 0x34d-0x34d.7 (1)
0x340|                                          04   |              . |      [22]: 4 transition_type 0x34e-0x34e.7 (1)
0x340|                                             05|               .|      [23]: 5 transition_type 0x34f-0x34f.7 (1)
0x350|04                                             |.               |      [24]: 4 transition_type 0x350-0x350.7 (1)
0x350|   05                                          | .              |      [25]: 5 transition_type 0x351-0x351.7 (1)
0x350|      04                                       |  .             |      [26]: 4 transition_type 0x352-0x352.7 (1)
0x350|         05                                    |   .            |      [27]: 5 transition_type 0x353-0x353.7 (1)
0x350|            04                                 |    .           |      [28]: 4 transition_type 0x354-0x354.7 (1)
0x350|               05                              |     .          |      [29]: 5 transition_type 0x355-0x355.7 (1)
0x350|                  04                           |      .         |      [30]: 4 transition_type 0x356-0x356.7 (1)
0x350|                     05                        |       .        |      [31]: 5 transition_type 0x357-0x357.7 (1)
0x350|                        04                     |        .       |      [32]: 4 transition_type 0x358-0x358.7 (1)
0x350|                           05                  |         .      |      [33]: 5 transition_type 0x359-0x359.7 (1)
0x350|                              04               |          .     |      [34]: 4 transition_type 0x35a-0x35a.7 (1)
0x350|                                 05            |           .    |      [35]: 5 transition_type 0x35b-0x35b.7 (1)
0x350|                                    04         |            .   |      [36]: 4 transition_type 0x35c-0x35c.7 (1)
0x350|                                       05      |             .  |      [37]: 5 transition_type 0x35d-0x35d.7 (1)
0x350|                                          04   |              . |      [38]: 4 transition_type 0x35e-0x35e.7 (1)
0x350|                                             05|               .|      [39]: 5 transition_type 0x35f-0x35f.7 (1)
0x360|04                                             |.               |      [40]: 4 transition_type 0x360-0x360.7 (1)
0x360|   05                                          | .              |      [41]: 5 transition_type 0x361-0x361.7 (1)
0x360|      04                                       |  .             |      [42]: 4 transition_type 0x362-0x362.7 (1)
0x360|         05                                    |   .            |      [43]: 5 transition_type 0x363-0x363.7 (1)
0x360|            04                                 |    .           |      [44]: 4 transition_type 0x364-0x364.7 (1)
0x360|               07                              |     .          |      [45]: 7 transition_type 0x365-0x365.7 (1)
0x360|                  04                           |      .         |      [46]: 4 transition_type 0x366-0x366.7 (1)
0x360|                     05                        |       .        |      [47]: 5 transition_type 0x367-0x367.7 (1)
0x360|                        04                     |        .       |      [48]: 4 transition_type 0x368-0x368.7 (1)
0x360|                           07                  |         .      |      [49]: 7 transition_type 0x369-0x369.7 (1)
0x360|                              04               |          .     |      [50]: 4 transition_type 0x36a-0x36a.7 (1)
0x360|                                 05            |           .    |      [51]: 5 transition_type 0x36b-0x36b.7 (1)
0x360|                                    04         |            .   |      [52]: 4 transition_type 0x36c-0x36c.7 (1)
0x360|                                       07      |             .  |      [53]: 7 transition_type 0x36d-0x36d.7 (1)
0x360|                                          04   |              . |      [54]: 4 transition_type 0x36e-0x36e.7 (1)
0x360|                                             05|               .|      [55]: 5 transition_type 0x36f-0x36f.7 (1)
0x370|04                                             |.               |      [56]: 4 transition_type 0x370-0x370.7 (1)
0x370|   07                                          | .              |      [57]: 7 transition_type 0x371-0x371.7 (1)
0x370|      04                                       |  .             |      [58]: 4 transition_type 0x372-0x372.7 (1)
0x370|         05                                    |   .            |      [59]: 5 transition_type 0x373-0x373.7 (1)
0x370|            04                                 |    .           |      [60]: 4 transition_type 0x374-0x374.7 (1)
0x370|               05                              |     .          |      [61]: 5 transition_type 0x375-0x375.7 (1)
0x370|                  04                           |      .         |      [62]: 4 transition_type 0x376-0x376.7 (1)
0x370|                     05                        |       .        |      [63]: 5 transition_type 0x377-0x377.7 (1)
0x370|                        04                     |        .       |      [64]: 4 transition_type 0x378-0x378.7 (1)
0x370|                           05                  |         .      |      [65]: 5 transition_type 0x379-0x379.7 (1)
0x370|                              04               |          .     |      [66]: 4 transition_type 0x37a-0x37a.7 (1)
0x370|                                 05            |           .    |      [67]: 5 transition_type 0x37b-0x37b.7 (1)
0x370|                                    04         |            .   |      [68]: 4 transition_type 0x37c-0x37c.7 (1)
0x370|                                       05      |             .  |      [69]: 5 transition_type 0x37d-0x37d.7 (1)
0x370|                                          04   |              . |      [70]: 4 transition_type 0x37e-0x37e.7 (1)
0x370|                                             05|               .|      [71]: 5 transition_type 0x37f-0x37f.7 (1)
0x380|04                                             |.               |      [72]: 4 transition_type 0x380-0x380.7 (1)
0x380|   05                                          | .              |      [73]: 5 transition_type 0x381-0x381.7 (1)
0x380|      04                                       |  .             |      [74]: 4 transition_type 0x382-0x382.7 (1)
0x380|         05                                    |   .            |      [75]: 5 transition_type 0x383-0x383.7 (1)
0x380|            04                                 |    .           |      [76]: 4 transition_type 0x384-0x384.7 (1)
0x380|               05                              |     .          |      [77]: 5 transition_type 0x385-0x385.7 (1)
0x380|                  04                           |      .         |      [78]: 4 transition_type 0x386-0x386.7 (1)
0x380|                     05                        |       .        |      [79]: 5 transition_type 0x387-0x387.7 (1)
0x380|                        04                     |        .       |      [80]: 4 transition_type 0x388-0x388.7 (1)
0x380|                           05                  |         .      |      [81]: 5 transition_type 0x389-0x389.7 (1)
0x380|                              04               |          .     |      [82]: 4 transition_type 0x38a-0x38a.7 (1)
0x380|                                 05            |           .    |      [83]: 5 transition_type 0x38b-0x38b.7 (1)
0x380|                                    04         |            .   |      [84]: 4 transition_type 0x38c-0x38c.7 (1)
0x380|                                       05      |             .  |      [85]: 5 transition_type 0x38d-0x38d.7 (1)
0x380|                                          04   |              . |      [86]: 4 transition_type 0x38e-0x38e.7 (1)
0x380|                                             05|               .|      [87]: 5 transition_type 0x38f-0x38f.7 (1)
0x390|04                                             |.               |      [88]: 4 transition_type 0x390-0x390.7 (1)
0x390|   05                                          | .              |      [89]: 5 transition_type 0x391-0x391.7 (1)
0x390|      04                                       |  .             |      [90]: 4 transition_type 0x392-0x392.7 (1)
0x390|         05                                    |   .            |      [91]: 5 transition_type 0x393-0x393.7 (1)
0x390|            04                                 |    .           |      [92]: 4 transition_type 0x394-0x394.7 (1)
0x390|               05                              |     .          |      [93]: 5 transition_type 0x395-0x395.7 (1)
0x390|                  04                           |      .         |      [94]: 4 transition_type 0x396-0x396.7 (1)
0x390|                     05                        |       .        |      [95]: 5 transition_type 0x397-0x397.7 (1)
0x390|                        04                     |        .       |      [96]: 4 transition_type 0x398-0x398.7 (1)
0x390|                           05                  |         .      |      [97]: 5 transition_type 0x399-0x399.7 (1)
0x390|                              04               |          .     |      [98]: 4 transition_type 0x39a-0x39a.7 (1)
0x390|                                 05            |           .    |      [99]: 5 transition_type 0x39b-0x39b.7 (1)
0x390|                                    09         |            .   |      [100]: 9 transition_type 0x39c-0x39c.7 (1)
0x390|                                       07      |             .  |      [101]: 7 transition_type 0x39d-0x39d.7 (1)
0x390|                                          08   |              . |      [102]: 8 transition_type 0x39e-0x39e.7 (1)
0x390|                                             07|               .|      [103]: 7 transition_type 0x39f-0x39f.7 (1)
0x3a0|08                                             |.               |      [104]: 8 transition_type 0x3a0-0x3a0.7 (1)
0x3a0|   07                                          | .              |      [105]: 7 transition_type 0x3a1-0x3a1.7 (1)
0x3a0|      08                                       |  .             |      [106]: 8 transition_type 0x3a2-0x3a2.7 (1)
0x3a0|         07                                    |   .            |      [107]: 7 transition_type 0x3a3-0x3a3.7 (1)
0x3a0|            08                                 |    .           |      [108]: 8 transition_type 0x3a4-0x3a4.7 (1)
0x3a0|               07                              |     .          |      [109]: 7 transition_type 0x3a5-0x3a5.7 (1)
0x3a0|                  08                           |      .         |      [110]: 8 transition_type 0x3a6-0x3a6.7 (1)
0x3a0|                     07                        |       .        |      [111]: 7 transition_type 0x3a7-0x3a7.7 (1)
0x3a0|                        08                     |        .       |      [112]: 8 transition_type 0x3a8-0x3a8.7 (1)
0x3a0|                           07                  |         .      |      [113]: 7 transition_type 0x3a9-0x3a9.7 (1)
0x3a0|                              08               |          .     |      [114]: 8 transition_type 0x3aa-0x3aa.7 (1)
0x3a0|                                 07            |           .    |      [115]: 7 transition_type 0x3ab-0x3ab.7 (1)
0x3a0|                                    08         |            .   |      [116]: 8 transition_type 0x3ac-0x3ac.7 (1)
0x3a0|                                       07      |             .  |      [117]: 7 transition_type 0x3ad-0x3ad.7 (1)
0x3a0|                                          08   |              . |      [118]: 8 transition_type 0x3ae-0x3ae.7 (1)
0x3a0|                                             07|               .|      [119]: 7 transition_type 0x3af-0x3af.7 (1)
0x3b0|08                                             |.               |      [120]: 8 transition_type 0x3b0-0x3b0.7 (1)
0x3b0|   07                                          | .              |      [121]: 7 transition_type 0x3b1-0x3b1.7 (1)
0x3b0|      08                                       |  .             |      [122]: 8 transition_type 0x3b2-0x3b2.7 (1)
0x3b0|         07                                    |   .            |      [123]: 7 transition_type 0x3b3-0x3b3.7 (1)
0x3b0|            08                                 |    .           |      [124]: 8 transition_type 0x3b4-0x3b4.7 (1)
0x3b0|               07                              |     .          |      [125]: 7 transition_type 0x3b5-0x3b5.7 (1)
0x3b0|                  08                           |      .         |      [126]: 8 transition_type 0x3b6-0x3b6.7 (1)
0x3b0|                     07                        |       .        |      [127]: 7 transition_type 0x3b7-0x3b7.7 (1)
0x3b0|                        08                     |        .       |      [128]: 8 transition_type 0x3b8-0x3b8.7 (1)
0x3b0|                           07                  |         .      |      [129]: 7 transition_type 0x3b9-0x3b9.7 (1)
0x3b0|                              08               |          .     |      [130]: 8 transition_type 0x3ba-0x3ba.7 (1)
0x3b0|                                 07            |           .    |      [131]: 7 transition_type 0x3bb-0x3bb.7 (1)
0x3b0|                                    0a         |            .   |      [132]: 10 transition_type 0x3bc-0x3bc.7 (1)
0x3b0|                                       0b      |             .  |      [133]: 11 transition_type 0x3bd-0x3bd.7 (1)
0x3b0|                                          0c   |              . |      [134]: 12 transition_type 0x3be-0x3be.7 (1)
0x3b0|                                             0b|               .|      [135]: 11 transition_type 0x3bf-0x3bf.7 (1)
0x3c0|0c                                             |.               |      [136]: 12 transition_type 0x3c0-0x3c0.7 (1)
0x3c0|   0b                                          | .              |      [137]: 11 transition_type 0x3c1-0x3c1.7 (1)
0x3c0|      0c                                       |  .             |      [138]: 12 transition_type 0x3c2-0x3c2.7 (1)
0x3c0|         0b                                    |   .            |      [139]: 11 transition_type 0x3c3-0x3c3.7 (1)
0x3c0|            0c                                 |    .           |      [140]: 12 transition_type 0x3c4-0x3c4.7 (1)
0x3c0|               0b                              |     .          |      [141]: 11 transition_type 0x3c5-0x3c5.7 (1)
0x3c0|                  0c                           |      .         |      [142]: 12 transition_type 0x3c6-0x3c6.7 (1)
0x3c0|                     0b                        |       .        |      [143]: 11 transition_type 0x3c7-0x3c7.7 (1)
0x3c0|                        0c                     |        .       |      [144]: 12 transition_type 0x3c8-0x3c8.7 (1)
0x3c0|                           0b                  |         .      |      [145]: 11 transition_type 0x3c9-0x3c9.7 (1)
0x3c0|                              0c               |          .     |      [146]: 12 transition_type 0x3ca-0x3ca.7 (1)
0x3c0|                                 0b            |           .    |      [147]: 11 transition_type 0x3cb-0x3cb.7 (1)
0x3c0|                                    0c         |            .   |      [148]: 12 transition_type 0x3cc-0x3cc.7 (1)
0x3c0|                                       0b      |             .  |      [149]: 11 transition_type 0x3cd-0x3cd.7 (1)
0x3c0|                                          0c   |              . |      [150]: 12 transition_type 0x3ce-0x3ce.7 (1)
0x3c0|                                             0b|               .|      [151]: 11 transition_type 0x3cf-0x3cf.7 (1)
0x3d0|0c                                             |.               |      [152]: 12 transition_type 0x3d0-0x3d0.7 (1)
0x3d0|   0b                                          | .              |      [153]: 11 transition_type 0x3d1-0x3d1.7 (1)
0x3d0|      0c                                       |  .             |      [154]: 12 transition_type 0x3d2-0x3d2.7 (1)
0x3d0|         0b                                    |   .            |      [155]: 11 transition_type 0x3d3-0x3d3.7 (1)
0x3d0|            0c                                 |    .           |      [156]: 12 transition_type 0x3d4-0x3d4.7 (1)
0x3d0|               0b                              |     .          |      [157]: 11 transition_type 0x3d5-0x3d5.7 (1)
0x3d0|                  0c                           |      .         |      [158]: 12 transition_type 0x3d6-0x3d6.7 (1)
0x3d0|                     0b                        |       .        |      [159]: 11 transition_type 0x3d7-0x3d7.7 (1)
0x3d0|                        0c                     |        .       |      [160]: 12 transition_type 0x3d8-0x3d8.7 (1)
0x3d0|                           0b                  |         .      |      [161]: 11 transition_type 0x3d9-0x3d9.7 (1)
0x3d0|                              0c               |          .     |      [162]: 12 transition_type 0x3da-0x3da.7 (1)
0x3d0|                                 0b            |           .    |      [163]: 11 transition_type 0x3db-0x3db.7 (1)
0x3d0|                                    0c         |            .   |      [164]: 12 transition_type 0x3dc-0x3dc.7 (1)
0x3d0|                                       0b      |             .  |      [165]: 11 transition_type 0x3dd-0x3dd.7 (1)
0x3d0|                                          0c   |              . |      [166]: 12 transition_type 0x3de-0x3de.7 (1)
0x3d0|                                             0b|               .|      [167]: 11 transition_type 0x3df-0x3df.7 (1)
0x3e0|0c                                             |.               |      [168]: 12 transition_type 0x3e0-0x3e0.7 (1)
0x3e0|   0b                                          | .              |      [169]: 11 transition_type 0x3e1-0x3e1.7 (1)
0x3e0|      0c                                       |  .             |      [170]: 12 transition_type 0x3e2-0x3e2.7 (1)
0x3e0|         0b                                    |   .            |      [171]: 11 transition_type 0x3e3-0x3e3.7 (1)
0x3e0|            0c                                 |    .           |      [172]: 12 transition_type 0x3e4-0x3e4.7 (1)
0x3e0|               0b                              |     .          |      [173]: 11 transition_type 0x3e5-0x3e5.7 (1)
0x3e0|                  0c                           |      .         |      [174]: 12 transition_type 0x3e6-0x3e6.7 (1)
0x3e0|                     0b                        |       .        |      [175]: 11 transition_type 0x3e7-0x3e7.7 (1)
0x3e0|                        0c                     |        .       |      [176]: 12 transition_type 0x3e8-0x3e8.7 (1)
0x3e0|                           0b                  |         .      |      [177]: 11 transition_type 0x3e9-0x3e9.7 (1)
0x3e0|                              0c               |          .     |      [178]: 12 transition_type 0x3ea-0x3ea.7 (1)
0x3e0|                                 0b            |           .    |      [179]: 11 transition_type 0x3eb-0x3eb.7 (1)
0x3e0|                                    0c         |            .   |      [180]: 12 transition_type 0x3ec-0x3ec.7 (1)
0x3e0|                                       0b      |             .  |      [181]: 11 transition_type 0x3ed-0x3ed.7 (1)
0x3e0|                                          0c   |              . |      [182]: 12 transition_type 0x3ee-0x3ee.7 (1)
0x3e0|                                             0b|               .|      [183]: 11 transition_type 0x3ef-0x3ef.7 (1)
0x3f0|0c                                             |.               |      [184]: 12 transition_type 0x3f0-0x3f0.7 (1)
0x3f0|   0b                                          | .              |      [185]: 11 transition_type 0x3f1-0x3f1.7 (1)
0x3f0|      0c                                       |  .             |      [186]: 12 transition_type 0x3f2-0x3f2.7 (1)
0x3f0|         0b                                    |   .            |      [187]: 11 transition_type 0x3f3-0x3f3.7 (1)
0x3f0|            0c                                 |    .           |      [188]: 12 transition_type 0x3f4-0x3f4.7 (1)
0x3f0|               0b                              |     .          |      [189]: 11 transition_type 0x3f5-0x3f5.7 (1)
0x3f0|                  0c                           |      .         |      [190]: 12 transition_type 0x3f6-0x3f6.7 (1)
0x3f0|                     0b                        |       .        |      [191]: 11 transition_type 0x3f7-0x3f7.7 (1)
0x3f0|                        0c                     |        .       |      [192]: 12 transition_type 0x3f8-0x3f8.7 (1)
0x3f0|                           0b                  |         .      |      [193]: 11 transition_type 0x3f9-0x3f9.7 (1)
0x3f0|                              0b               |          .     |      [194]: 11 transition_type 0x3fa-0x3fa.7 (1)
     |                                               |                |    local_time_type_records[0:13]: 0x3fb-0x448.7 (78)
     |                                               |                |      [0]{}: local_time_type 0x3fb-0x400.7 (6)
0x3f0|                                 ff ff e7 f0   |           .... |        utoff: -6160 (valid) 0x3fb-0x3fe.7 (4)
0x3f0|                                             00|               .|        dst: 0 (valid) 0x3ff-0x3ff.7 (1)
0x400|00                                             |.               |        idx: 0 (valid) 0x400-0x400.7 (1)
     |                                               |                |      [1]{}: local_time_type 0x401-0x406.7 (6)
0x400|   ff ff e5 28                                 | ...(           |        utoff: -6872 (valid) 0x401-0x404.7 (4)
0x400|               00                              |     .          |        dst: 0 (valid) 0x405-0x405.7 (1)
0x400|                  04                           |      .         |        idx: 4 (valid) 0x406-0x406.7 (1)
     |                                               |                |      [2]{}: local_time_type 0x407-0x40c.7 (6)
0x400|                     ff ff f1 f0               |       ....     |        utoff: -3600 (valid) 0x407-0x40a.7 (4)
0x400|                                 01            |           .    |        dst: 1 (valid) 0x40b-0x40b.7 (1)
0x400|                                    08         |            .   |        idx: 8 (valid) 0x40c-0x40c.7 (1)
     |                                               |                |      [3]{}: local_time_type 0x40d-0x412.7 (6)
0x400|                                       ff ff e3|             ...|        utoff: -7200 (valid) 0x40d-0x410.7 (4)
0x410|e0                                             |.               |
0x410|   00                                          | .              |        dst: 0 (valid) 0x411-0x411.7 (1)
0x410|      0c                                       |  .             |        idx: 12 (valid) 0x412-0x412.7 (1)
     |                                               |                |      [4]{}: local_time_type 0x413-0x418.7 (6)
0x410|         ff ff f1 f0                           |   ....         |        utoff: -3600 (valid) 0x413-0x416.7 (4)
0x410|                     01                        |       .        |        dst: 1 (valid) 0x417-0x417.7 (1)
0x410|                        08                     |        .       |        idx: 8 (valid) 0x418-0x418.7 (1)
     |                                               |                |      [5]{}: local_time_type 0x419-0x41e.7 (6)
0x410|                           ff ff e3 e0         |         ....   |        utoff: -7200 (valid) 0x419-0x41c.7 (4)
0x410|                                       00      |             .  |        dst: 0 (valid) 0x41d-0x41d.7 (1)
0x410|                                          0c   |              . |        idx: 12 (valid) 0x41e-0x41e.7 (1)
     |                                               |                |      [6]{}: local_time_type 0x41f-0x424.7 (6)
0x410|                                             ff|               .|        utoff: -7200 (valid) 0x41f-0x422.7 (4)
0x420|ff e3 e0                                       |...             |
0x420|         00                                    |   .            |        dst: 0 (valid) 0x423-0x423.7 (1)
0x420|            0c                                 |    .           |        idx: 12 (valid) 0x424-0x424.7 (1)
     |                                               |                |      [7]{}: local_time_type 0x425-0x42a.7 (6)
0x420|               00 00 00 00                     |     ....       |        utoff: 0 (valid) 0x425-0x428.7 (4)
0x420|                           01                  |         .      |        dst: 1 (valid) 0x429-0x429.7 (1)
0x420|                              10               |          .     |        idx: 16 (valid) 0x42a-0x42a.7 (1)
     |                                               |                |      [8]{}: local_time_type 0x42b-0x430.7 (6)
0x420|                                 ff ff f1 f0   |           .... |        utoff: -3600 (valid) 0x42b-0x42e.7 (4)
0x420|                                             00|               .|        dst: 0 (valid) 0x42f-0x42f.7 (1)
0x430|08                                             |.               |        idx: 8 (valid) 0x430-0x430.7 (1)
     |                                               |                |      [9]{}: local_time_type 0x431-0x436.7 (6)
0x430|   ff ff f1 f0                                 | ....           |        utoff: -3600 (valid) 0x431-0x434.7 (4)
0x430|               00                              |     .          |        dst: 0 (valid) 0x435-0x435.7 (1)
0x430|                  08                           |      .         |        idx: 8 (valid) 0x436-0x436.7 (1)
     |                                               |                |      [10]{}: local_time_type 0x437-0x43c.7 (6)
0x430|                     00 00 00 00               |       ....     |        utoff: 0 (valid) 0x437-0x43a.7 (4)
0x430|                                 00            |           .    |        dst: 0 (valid) 0x43b-0x43b.7 (1)
0x430|                                    14         |            .   |        idx: 20 (valid) 0x43c-0x43c.7 (1)
     |                                               |                |      [11]{}: local_time_type 0x43d-0x442.7 (6)
0x430|                                       00 00 00|             ...|        utoff: 0 (valid) 0x43d-0x440.7 (4)
0x440|00                                             |.               |
0x440|   01                                          | .              |        dst: 1 (valid) 0x441-0x441.7 (1)
0x440|      10                                       |  .             |        idx: 16 (valid) 0x442-0x442.7 (1)
     |                                               |                |      [12]{}: local_time_type 0x443-0x448.7 (6)
0x440|         ff ff f1 f0                           |   ....         |        utoff: -3600 (valid) 0x443-0x446.7 (4)
0x440|                     00                        |       .        |        dst: 0 (valid) 0x447-0x447.7 (1)
0x440|                        08                     |        .       |        idx: 8 (valid) 0x448-0x448.7 (1)
     |                                               |                |    time_zone_designations[0:6]: 0x449-0x460.7 (24)
0x440|                           4c 4d 54 00         |         LMT.   |      [0]: "LMT" time_zone_designation 0x449-0x44c.7 (4)
0x440|                                       48 4d 54|             HMT|      [1]: "HMT" time_zone_designation 0x44d-0x450.7 (4)
0x450|00                                             |.               |
0x450|   2d 30 31 00                                 | -01.           |      [2]: "-01" time_zone_designation 0x451-0x454.7 (4)
0x450|               2d 30 32 00                     |     -02.       |      [3]: "-02" time_zone_designation 0x455-0x458.7 (4)
0x450|                           2b 30 30 00         |         +00.   |      [4]: "+00" time_zone_designation 0x459-0x45c.7 (4)
0x450|                                       57 45 54|             WET|      [5]: "WET" time_zone_designation 0x45d-0x460.7 (4)
0x460|00                                             |.               |
     |                                               |                |    leap_second_records[0:27]: 0x461-0x538.7 (216)
     |                                               |                |      [0]{}: leap_second_record 0x461-0x468.7 (8)
0x460|   04 b2 58 00                                 | ..X.           |        occur: "1972-07-01T00:00:00Z" (78796800) 0x461-0x464.7 (4)
0x460|               00 00 00 01                     |     ....       |        corr: 1 0x465-0x468.7 (4)
     |                                               |                |      [1]{}: leap_second_record 0x469-0x470.7 (8)
0x460|                           05 a4 ec 01         |         ....   |        occur: "1973-01-01T00:00:01Z" (94694401) 0x469-0x46c.7 (4)
0x460|                                       00 00 00|             ...|        corr: 2 0x46d-0x470.7 (4)
0x470|02                                             |.               |
     |                                               |                |      [2]{}: leap_second_record 0x471-0x478.7 (8)
0x470|   07 86 1f 82                                 | ....           |        occur: "1974-01-01T00:00:02Z" (126230402) 0x471-0x474.7 (4)
0x470|               00 00 00 03                     |     ....       |        corr: 3 0x475-0x478.7 (4)
     |                                               |                |      [3]{}: leap_second_record 0x479-0x480.7 (8)
0x470|                           09 67 53 03         |         .gS.   |        occur: "1975-01-01T00:00:03Z" (157766403) 0x479-0x47c.7 (4)
0x470|                                       00 00 00|             ...|        corr: 4 0x47d-0x480.7 (4)
0x480|04                                             |.               |
     |                                               |                |      [4]{}: leap_second_record 0x481-0x488.7 (8)
0x480|   0b 48 86 84                                 | .H..           |        occur: "1976-01-01T00:00:04Z" (189302404) 0x481-0x484.7 (4)
0x480|               00 00 00 05                     |     ....       |        corr: 5 0x485-0x488.7 (4)
     |                                               |                |      [5]{}: leap_second_record 0x489-0x490.7 (8)
0x480|                           0d 2b 0b 85         |         .+..   |        occur: "1977-01-01T00:00:05Z" (220924805) 0x489-0x48c.7 (4)
0x480|                                       00 00 00|             ...|        corr: 6 0x48d-0x490.7 (4)
0x490|06                                             |.               |
     |                                               |                |      [6]{}: leap_second_record 0x491-0x498.7 (8)
0x490|   0f 0c 3f 06                                 | ..?.           |        occur: "1978-01-01T00:00:06Z" (252460806) 0x491-0x494.7 (4)
0x490|               00 00 00 07                     |     ....       |        corr: 7 0x495-0x498.7 (4)
     |                                               |                |      [7]{}: leap_second_record 0x499-0x4a0.7 (8)
0x490|                           10 ed 72 87         |         ..r.   |        occur: "1979-01-01T00:00:07Z" (283996807) 0x499-0x49c.7 (4)
0x490|                                       00 00 00|             ...|        corr: 8 0x49d-0x4a0.7 (4)
0x4a0|08                                             |.               |
     |                                               |                |      [8]{}: leap_second_record 0x4a1-0x4a8.7 (8)
0x4a0|   12 ce a6 08                                 | ....           |        occur: "1980-01-01T00:00:08Z" (315532808) 0x4a1-0x4a4.7 (4)
0x4a0|               00 00 00 09                     |     ....       |        corr: 9 0x4a5-0x4a8.7 (4)
     |                                               |                |      [9]{}: leap_second_record 0x4a9-0x4b0.7 (8)
0x4a0|                           15 9f ca 89         |         ....   |        occur: "1981-07-01T00:00:09Z" (362793609) 0x4a9-0x4ac.7 (4)
0x4a0|                                       00 00 00|             ...|        corr: 10 0x4ad-0x4b0.7 (4)
0x4b0|0a                                             |.               |
     |                                               |                |      [10]{}: leap_second_record 0x4b1-0x4b8.7 (8)
0x4b0|   17 80 fe 0a                                 | ....           |        occur: "1982-07-01T00:00:10Z" (394329610) 0x4b1-0x4b4.7 (4)
0x4b0|               00 00 00 0b                     |     ....       |        corr: 11 0x4b5-0x4b8.7 (4)
     |                                               |                |      [11]{}: leap_second_record 0x4b9-0x4c0.7 (8)
0x4b0|                           19 62 31 8b         |         .b1.   |        occur: "1983-07-01T00:00:11Z" (425865611) 0x4b9-0x4bc.7 (4)
0x4b0|                                       00 00 00|             ...|        corr: 12 0x4bd-0x4c0.7 (4)
0x4c0|0c                                             |.               |
     |                                               |                |      [12]{}: leap_second_record 0x4c1-0x4c8.7 (8)
0x4c0|   1d 25 ea 0c                                 | .%..           |        occur: "1985-07-01T00:00:12Z" (489024012) 0x4c1-0x4c4.7 (4)
0x4c0|               00 00 00 0d                     |     ....       |        corr: 13 0x4c5-0x4c8.7 (4)
     |                                               |                |      [13]{}: leap_second_record 0x4c9-0x4d0.7 (8)
0x4c0|                           21 da e5 0d         |         !...   |        occur: "1988-01-01T00:00:13Z" (567993613) 0x4c9-0x4cc.7 (4)
0x4c0|                                       00 00 00|             ...|        corr: 14 0x4cd-0x4d0.7 (4)
0x4d0|0e                                             |.               |
     |                                               |                |      [14]{}: leap_second_record 0x4d1-0x4d8.7 (8)
0x4d0|   25 9e 9d 8e                                 | %...           |        occur: "1990-01-01T00:00:14Z" (631152014) 0x4d1-0x4d4.7 (4)
0x4d0|               00 00 00 0f                     |     ....       |        corr: 15 0x4d5-0x4d8.7 (4)
     |                                               |                |      [15]{}: leap_second_record 0x4d9-0x4e0.7 (8)
0x4d0|                           27 7f d1 0f         |         '...   |        occur: "1991-01-01T00:00:15Z" (662688015) 0x4d9-0x4dc.7 (4)
0x4d0|                                       00 00 00|             ...|        corr: 16 0x4dd-0x4e0.7 (4)
0x4e0|10                                             |.               |
     |                                               |                |      [16]{}: leap_second_record 0x4e1-0x4e8.7 (8)
0x4e0|   2a 50 f5 90                                 | *P..           |        occur: "1992-07-01T00:00:16Z" (709948816) 0x4e1-0x4e4.7 (4)
0x4e0|               00 00 00 11                     |     ....       |        corr: 17 0x4e5-0x4e8.7 (4)
     |                                               |                |      [17]{}: leap_second_record 0x4e9-0x4f0.7 (8)
0x4e0|                           2c 32 29 11         |         ,2).   |        occur: "1993-07-01T00:00:17Z" (741484817) 0x4e9-0x4ec.7 (4)
0x4e0|                                       00 00 00|             ...|        corr: 18 0x4ed-0x4f0.7 (4)
0x4f0|12                                             |.               |
     |                                               |                |      [18]{}: leap_second_record 0x4f1-0x4f8.7 (8)
0x4f0|   2e 13 5c 92                                 | ..\.           |        occur: "1994-07-01T00:00:18Z" (773020818) 0x4f1-0x4f4.7 (4)
0x4f0|               00 00 00 13                     |     ....       |        corr: 19 0x4f5-0x4f8.7 (4)
     |                                               |                |      [19]{}: leap_second_record 0x4f9-0x500.7 (8)
0x4f0|                           30 e7 24 13         |         0.$.   |        occur: "1996-01-01T00:00:19Z" (820454419) 0x4f9-0x4fc.7 (4)
0x4f0|                                       00 00 00|             ...|        corr: 20 0x4fd-0x500.7 (4)
0x500|14                                             |.               |
     |                                               |                |      [20]{}: leap_second_record 0x501-0x508.7 (8)
0x500|   33 b8 48 94                                 | 3.H.           |        occur: "1997-07-01T00:00:20Z" (867715220) 0x501-0x504.7 (4)
0x500|               00 00 00 15                     |     ....       |        corr: 21 0x505-0x508.7 (4)
     |                                               |                |      [21]{}: leap_second_record 0x509-0x510.7 (8)
0x500|                           36 8c 10 15         |         6...   |        occur: "1999-01-01T00:00:21Z" (915148821) 0x509-0x50c.7 (4)
0x500|                                       00 00 00|             ...|        corr: 22 0x50d-0x510.7 (4)
0x510|16                                             |.               |
     |                                               |                |      [22]{}: leap_second_record 0x511-0x518.7 (8)
0x510|   43 b7 1b 96                                 | C...           |        occur: "2006-01-01T00:00:22Z" (1136073622) 0x511-0x514.7 (4)
0x510|               00 00 00 17                     |     ....       |        corr: 23 0x515-0x518.7 (4)
     |                                               |                |      [23]{}: leap_second_record 0x519-0x520.7 (8)
0x510|                           49 5c 07 97         |         I\..   |        occur: "2009-01-01T00:00:23Z" (1230768023) 0x519-0x51c.7 (4)
0x510|                                       00 00 00|             ...|        corr: 24 0x51d-0x520.7 (4)
0x520|18                                             |.               |
     |                                               |                |      [24]{}: leap_second_record 0x521-0x528.7 (8)
0x520|   4f ef 93 18                                 | O...           |        occur: "2012-07-01T00:00:24Z" (1341100824) 0x521-0x524.7 (4)
0x520|               00 00 00 19                     |     ....       |        corr: 25 0x525-0x528.7 (4)
     |                                               |                |      [25]{}: leap_second_record 0x529-0x530.7 (8)
0x520|                           55 93 2d 99         |         U.-.   |        occur: "2015-07-01T00:00:25Z" (1435708825) 0x529-0x52c.7 (4)
0x520|                                       00 00 00|             ...|        corr: 26 0x52d-0x530.7 (4)
0x530|1a                                             |.               |
     |                                               |                |      [26]{}: leap_second_record 0x531-0x538.7 (8)
0x530|   58 68 46 9a                                 | XhF.           |        occur: "2017-01-01T00:00:26Z" (1483228826) 0x531-0x534.7 (4)
0x530|               00 00 00 1b                     |     ....       |        corr: 27 0x535-0x538.7 (4)
     |                                               |                |    standard_wall_indicators[0:13]: 0x539-0x545.7 (13)
0x530|                           00                  |         .      |      [0]: 0 standard_wall_indicator (valid) 0x539-0x539.7 (1)
0x530|                              00               |          .     |      [1]: 0 standard_wall_indicator (valid) 0x53a-0x53a.7 (1)
0x530|                                 00            |           .    |      [2]: 0 standard_wall_indicator (valid) 0x53b-0x53b.7 (1)
0x530|                                    00         |            .   |      [3]: 0 standard_wall_indicator (valid) 0x53c-0x53c.7 (1)
0x530|                                       01      |             .  |      [4]: 1 standard_wall_indicator (valid) 0x53d-0x53d.7 (1)
0x530|                                          01   |              . |      [5]: 1 standard_wall_indicator (valid) 0x53e-0x53e.7 (1)
0x530|                                             01|               .|      [6]: 1 standard_wall_indicator (valid) 0x53f-0x53f.7 (1)
0x540|01                                             |.               |      [7]: 1 standard_wall_indicator (valid) 0x540-0x540.7 (1)
0x540|   01                                          | .              |      [8]: 1 standard_wall_indicator (valid) 0x541-0x541.7 (1)
0x540|      00                                       |  .             |      [9]: 0 standard_wall_indicator (valid) 0x542-0x542.7 (1)
0x540|         01                                    |   .            |      [10]: 1 standard_wall_indicator (valid) 0x543-0x543.7 (1)
0x540|            01                                 |    .           |      [11]: 1 standard_wall_indicator (valid) 0x544-0x544.7 (1)
0x540|               01                              |     .          |      [12]: 1 standard_wall_indicator (valid) 0x545-0x545.7 (1)
     |                                               |                |    ut_local_indicators[0:13]: 0x546-0x552.7 (13)
0x540|                  00                           |      .         |      [0]: 0 ut_local_indicator (valid) 0x546-0x546.7 (1)
0x540|                     00                        |       .        |      [1]: 0 ut_local_indicator (valid) 0x547-0x547.7 (1)
0x540|                        00                     |        .       |      [2]: 0 ut_local_indicator (valid) 0x548-0x548.7 (1)
0x540|                           00                  |         .      |      [3]: 0 ut_local_indicator (valid) 0x549-0x549.7 (1)
0x540|                              00               |          .     |      [4]: 0 ut_local_indicator (valid) 0x54a-0x54a.7 (1)
0x540|                                 00            |           .    |      [5]: 0 ut_local_indicator (valid) 0x54b-0x54b.7 (1)
0x540|                                    01         |            .   |      [6]: 1 ut_local_indicator (valid) 0x54c-0x54c.7 (1)
0x540|                                       00      |             .  |      [7]: 0 ut_local_indicator (valid) 0x54d-0x54d.7 (1)
0x540|                                          00   |              . |      [8]: 0 ut_local_indicator (valid) 0x54e-0x54e.7 (1)
0x540|                                             00|               .|      [9]: 0 ut_local_indicator (valid) 0x54f-0x54f.7 (1)
0x550|00                                             |.               |      [10]: 0 ut_local_indicator (valid) 0x550-0x550.7 (1)
0x550|   01                                          | .              |      [11]: 1 ut_local_indicator (valid) 0x551-0x551.7 (1)
0x550|      01                                       |  .             |      [12]: 1 ut_local_indicator (valid) 0x552-0x552.7 (1)
     |                                               |                |  v2plusheader{}: 0x553-0x57e.7 (44)
0x550|         54 5a 69 66                           |   TZif         |    magic: 0x545a6966 (valid) 0x553-0x556.7 (4)
0x550|                     32                        |       2        |    ver: "2" (0x32) (valid) 0x557-0x557.7 (1)
0x550|                        00 00 00 00 00 00 00 00|        ........|    reserved: raw bits 0x558-0x566.7 (15)
0x560|00 00 00 00 00 00 00                           |.......         |
0x560|                     00 00 00 0d               |       ....     |    isutcnt: 13 0x567-0x56a.7 (4)
0x560|                                 00 00 00 0d   |           .... |    isstdcnt: 13 0x56b-0x56e.7 (4)
0x560|                                             00|               .|    leapcnt: 27 0x56f-0x572.7 (4)
0x570|00 00 1b                                       |...             |
0x570|         00 00 00 c3                           |   ....         |    timecnt: 195 0x573-0x576.7 (4)
0x570|                     00 00 00 0d               |       ....     |    typecnt: 13 0x577-0x57a.7 (4)
0x570|                                 00 00 00 18   |           .... |    charcnt: 24 0x57b-0x57e.7 (4)
     |                                               |                |  v2plusdatablock{}: 0x57f-0xe1d.7 (2207)
     |                                               |                |    transition_times[0:195]: 0x57f-0xb96.7 (1560)
0x570|                                             ff|               .|      [0]: "1884-01-01T01:42:40Z" (-2713904240) transition_time 0x57f-0x586.7 (8)
0x580|ff ff ff 5e 3d 1b 90                           |...^=..         |
0x580|                     ff ff ff ff 92 e6 aa a0   |       ........ |      [1]: "1912-01-01T02:00:00Z" (-1830376800) transition_time 0x587-0x58e.7 (8)
0x580|                                             ff|               .|      [2]: "1916-06-18T01:00:00Z" (-1689548400) transition_time 0x58f-0x596.7 (8)
0x590|ff ff ff 9b 4b 89 90                           |....K..         |
0x590|                     ff ff ff ff 9b fe e3 a0   |       ........ |      [3]: "1916-11-01T02:00:00Z" (-1677794400) transition_time 0x597-0x59e.7 (8)
0x590|                                             ff|               .|      [4]: "1917-03-01T01:00:00Z" (-1667430000) transition_time 0x59f-0x5a6.7 (8)
0x5a0|ff ff ff 9c 9d 09 90                           |.......         |
0x5a0|                     ff ff ff ff 9d c9 9f 90   |       ........ |      [5]: "1917-10-15T01:00:00Z" (-1647730800) transition_time 0x5a7-0x5ae.7 (8)
0x5a0|                                             ff|               .|      [6]: "1918-03-02T01:00:00Z" (-1635807600) transition_time 0x5af-0x5b6.7 (8)
0x5b0|ff ff ff 9e 7f 8e 90                           |.......         |
0x5b0|                     ff ff ff ff 9f aa d3 10   |       ........ |      [7]: "1918-10-15T01:00:00Z" (-1616194800) transition_time 0x5b7-0x5be.7 (8)
0x5b0|                                             ff|               .|      [8]: "1919-03-01T01:00:00Z" (-1604358000) transition_time 0x5bf-0x5c6.7 (8)
0x5c0|ff ff ff a0 5f 70 90                           |...._p.         |
0x5c0|                     ff ff ff ff a1 8c 06 90   |       ........ |      [9]: "1919-10-15T01:00:00Z" (-1584658800) transition_time 0x5c7-0x5ce.7 (8)
0x5c0|                                             ff|               .|      [10]: "1920-03-01T01:00:00Z" (-1572735600) transition_time 0x5cf-0x5d6.7 (8)
0x5d0|ff ff ff a2 41 f5 90                           |....A..         |
0x5d0|                     ff ff ff ff a3 6e 8b 90   |       .....n.. |      [11]: "1920-10-15T01:00:00Z" (-1553036400) transition_time 0x5d7-0x5de.7 (8)
0x5d0|                                             ff|               .|      [12]: "1921-03-01T01:00:00Z" (-1541199600) transition_time 0x5df-0x5e6.7 (8)
0x5e0|ff ff ff a4 23 29 10                           |....#).         |
0x5e0|                     ff ff ff ff a5 4f bf 10   |       .....O.. |      [13]: "1921-10-15T01:00:00Z" (-1521500400) transition_time 0x5e7-0x5ee.7 (8)
0x5e0|                                             ff|               .|      [14]: "1924-04-17T01:00:00Z" (-1442444400) transition_time 0x5ef-0x5f6.7 (8)
0x5f0|ff ff ff aa 06 0b 90                           |.......         |
0x5f0|                     ff ff ff ff aa f4 ab 10   |       ........ |      [15]: "1924-10-15T01:00:00Z" (-1426806000) transition_time 0x5f7-0x5fe.7 (8)
0x5f0|                                             ff|               .|      [16]: "1926-04-18T01:00:00Z" (-1379286000) transition_time 0x5ff-0x606.7 (8)
0x600|ff ff ff ad c9 c4 10                           |.......         |
0x600|                     ff ff ff ff ae a7 40 10   |       ......@. |      [17]: "1926-10-03T01:00:00Z" (-1364770800) transition_time 0x607-0x60e.7 (8)
0x600|                                             ff|               .|      [18]: "1927-04-10T01:00:00Z" (-1348441200) transition_time 0x60f-0x616.7 (8)
0x610|ff ff ff af a0 6b 90                           |.....k.         |
0x610|                     ff ff ff ff b0 87 22 10   |       ......". |      [19]: "1927-10-02T01:00:00Z" (-1333321200) transition_time 0x617-0x61e.7 (8)
0x610|                                             ff|               .|      [20]: "1928-04-15T01:00:00Z" (-1316386800) transition_time 0x61f-0x626.7 (8)
0x620|ff ff ff b1 89 88 10                           |.......         |
0x620|                     ff ff ff ff b2 70 3e 90   |       .....p>. |      [21]: "1928-10-07T01:00:00Z" (-1301266800) transition_time 0x627-0x62e.7 (8)
0x620|                                             ff|               .|      [22]: "1929-04-21T01:00:00Z" (-1284332400) transition_time 0x62f-0x636.7 (8)
0x630|ff ff ff b3 72 a4 90                           |....r..         |
0x630|                     ff ff ff ff b4 50 20 90   |       .....P . |      [23]: "1929-10-06T01:00:00Z" (-1269817200) transition_time 0x637-0x63e.7 (8)
0x630|                                             ff|               .|      [24]: "1931-04-19T01:00:00Z" (-1221433200) transition_time 0x63f-0x646.7 (8)
0x640|ff ff ff b7 32 68 90                           |....2h.         |
0x640|                     ff ff ff ff b8 0f e4 90   |       ........ |      [25]: "1931-10-04T01:00:00Z" (-1206918000) transition_time 0x647-0x64e.7 (8)
0x640|                                             ff|               .|      [26]: "1932-04-03T01:00:00Z" (-1191193200) transition_time 0x64f-0x656.7 (8)
0x650|ff ff ff b8 ff d5 90                           |.......         |
0x650|                     ff ff ff ff b9 ef c6 90   |       ........ |      [27]: "1932-10-02T01:00:00Z" (-1175468400) transition_time 0x657-0x65e.7 (8)
0x650|                                             ff|               .|      [28]: "1934-04-08T01:00:00Z" (-1127689200) transition_time 0x65f-0x666.7 (8)
0x660|ff ff ff bc c8 d4 10                           |.......         |
0x660|                     ff ff ff ff bd b8 c5 10   |       ........ |      [29]: "1934-10-07T01:00:00Z" (-1111964400) transition_time 0x667-0x66e.7 (8)
0x660|                                             ff|               .|      [30]: "1935-03-31T01:00:00Z" (-1096844400) transition_time 0x66f-0x676.7 (8)
0x670|ff ff ff be 9f 7b 90                           |.....{.         |
0x670|                     ff ff ff ff bf 98 a7 10   |       ........ |      [31]: "1935-10-06T01:00:00Z" (-1080514800) transition_time 0x677-0x67e.7 (8)
0x670|                                             ff|               .|      [32]: "1936-04-19T01:00:00Z" (-1063580400) transition_time 0x67f-0x686.7 (8)
0x680|ff ff ff c0 9b 0d 10                           |.......         |
0x680|                     ff ff ff ff c1 78 89 10   |       .....x.. |      [33]: "1936-10-04T01:00:00Z" (-1049065200) transition_time 0x687-0x68e.7 (8)
0x680|                                             ff|               .|      [34]: "1937-04-04T01:00:00Z" (-1033340400) transition_time 0x68f-0x696.7 (8)
0x690|ff ff ff c2 68 7a 10                           |....hz.         |
0x690|                     ff ff ff ff c3 58 6b 10   |       .....Xk. |      [35]: "1937-10-03T01:00:00Z" (-1017615600) transition_time 0x697-0x69e.7 (8)
0x690|                                             ff|               .|      [36]: "1938-03-27T01:00:00Z" (-1002495600) transition_time 0x69f-0x6a6.7 (8)
0x6a0|ff ff ff c4 3f 21 90                           |....?!.         |
0x6a0|                     ff ff ff ff c5 38 4d 10   |       .....8M. |      [37]: "1938-10-02T01:00:00Z" (-986166000) transition_time 0x6a7-0x6ae.7 (8)
0x6a0|                                             ff|               .|      [38]: "1939-04-16T01:00:00Z" (-969231600) transition_time 0x6af-0x6b6.7 (8)
0x6b0|ff ff ff c6 3a b3 10                           |....:..         |
0x6b0|                     ff ff ff ff c7 58 c8 90   |       .....X.. |      [39]: "1939-11-19T01:00:00Z" (-950482800) transition_time 0x6b7-0x6be.7 (8)
0x6b0|                                             ff|               .|      [40]: "1940-02-25T01:00:00Z" (-942015600) transition_time 0x6bf-0x6c6.7 (8)
0x6c0|ff ff ff c7 d9 fb 90                           |.......         |
0x6c0|                     ff ff ff ff c9 01 4b 90   |       ......K. |      [41]: "1940-10-06T01:00:00Z" (-922662000) transition_time 0x6c7-0x6ce.7 (8)
0x6c0|                                             ff|               .|      [42]: "1941-04-06T01:00:00Z" (-906937200) transition_time 0x6cf-0x6d6.7 (8)
0x6d0|ff ff ff c9 f1 3c 90                           |.....<.         |
0x6d0|                     ff ff ff ff ca e2 7f 10   |       ........ |      [43]: "1941-10-06T01:00:00Z" (-891126000) transition_time 0x6d7-0x6de.7 (8)
0x6d0|                                             ff|               .|      [44]: "1942-03-15T01:00:00Z" (-877302000) transition_time 0x6df-0x6e6.7 (8)
0x6e0|ff ff ff cb b5 6f 10                           |.....o.         |
0x6e0|                     ff ff ff ff cb ec c0 00   |       ........ |      [45]: "1942-04-26T00:00:00Z" (-873676800) transition_time 0x6e7-0x6ee.7 (8)
0x6e0|                                             ff|               .|      [46]: "1942-08-16T00:00:00Z" (-864000000) transition_time 0x6ef-0x6f6.7 (8)
0x6f0|ff ff ff cc 80 68 00                           |.....h.         |
0x6f0|                     ff ff ff ff cc dc bf 10   |       ........ |      [47]: "1942-10-25T01:00:00Z" (-857948400) transition_time 0x6f7-0x6fe.7 (8)
0x6f0|                                             ff|               .|      [48]: "1943-03-14T01:00:00Z" (-845852400) transition_time 0x6ff-0x706.7 (8)
0x700|ff ff ff cd 95 51 10                           |.....Q.         |
0x700|                     ff ff ff ff cd c3 67 80   |       ......g. |      [49]: "1943-04-18T00:00:00Z" (-842832000) transition_time 0x707-0x70e.7 (8)
0x700|                                             ff|               .|      [50]: "1943-08-29T00:00:00Z" (-831340800) transition_time 0x70f-0x716.7 (8)
0x710|ff ff ff ce 72 bf 00                           |....r..         |
0x710|                     ff ff ff ff ce c5 db 90   |       ........ |      [51]: "1943-10-31T01:00:00Z" (-825894000) transition_time 0x717-0x71e.7 (8)
0x710|                                             ff|               .|      [52]: "1944-03-12T01:00:00Z" (-814402800) transition_time 0x71f-0x726.7 (8)
0x720|ff ff ff cf 75 33 10                           |....u3.         |
0x720|                     ff ff ff ff cf ac 84 00   |       ........ |      [53]: "1944-04-23T00:00:00Z" (-810777600) transition_time 0x727-0x72e.7 (8)
0x720|                                             ff|               .|      [54]: "1944-08-27T00:00:00Z" (-799891200) transition_time 0x72f-0x736.7 (8)
0x730|ff ff ff d0 52 a1 00                           |....R..         |
0x730|                     ff ff ff ff d0 a5 bd 90   |       ........ |      [55]: "1944-10-29T01:00:00Z" (-794444400) transition_time 0x737-0x73e.7 (8)
0x730|                                             ff|               .|      [56]: "1945-03-11T01:00:00Z" (-782953200) transition_time 0x73f-0x746.7 (8)
0x740|ff ff ff d1 55 15 10                           |....U..         |
0x740|                     ff ff ff ff d1 8c 66 00   |       ......f. |      [57]: "1945-04-22T00:00:00Z" (-779328000) transition_time 0x747-0x74e.7 (8)
0x740|                                             ff|               .|      [58]: "1945-08-26T00:00:00Z" (-768441600) transition_time 0x74f-0x756.7 (8)
0x750|ff ff ff d2 32 83 00                           |....2..         |
0x750|                     ff ff ff ff d2 85 9f 90   |       ........ |      [59]: "1945-10-28T01:00:00Z" (-762994800) transition_time 0x757-0x75e.7 (8)
0x750|                                             ff|               .|      [60]: "1946-04-07T01:00:00Z" (-749084400) transition_time 0x75f-0x766.7 (8)
0x760|ff ff ff d3 59 e1 10                           |....Y..         |
0x760|                     ff ff ff ff d4 49 d2 10   |       .....I.. |      [61]: "1946-10-06T01:00:00Z" (-733359600) transition_time 0x767-0x76e.7 (8)
0x760|                                             ff|               .|      [62]: "1947-04-06T04:00:00Z" (-717624000) transition_time 0x76f-0x776.7 (8)
0x770|ff ff ff d5 39 ed 40                           |....9.@         |
0x770|                     ff ff ff ff d6 29 de 40   |       .....).@ |      [63]: "1947-10-05T04:00:00Z" (-701899200) transition_time 0x777-0x77e.7 (8)
0x770|                                             ff|               .|      [64]: "1948-04-04T04:00:00Z" (-686174400) transition_time 0x77f-0x786.7 (8)
0x780|ff ff ff d7 19 cf 40                           |......@         |
0x780|                     ff ff ff ff d8 09 c0 40   |       .......@ |      [65]: "1948-10-03T04:00:00Z" (-670449600) transition_time 0x787-0x78e.7 (8)
0x780|                                             ff|               .|      [66]: "1949-04-03T04:00:00Z" (-654724800) transition_time 0x78f-0x796.7 (8)
0x790|ff ff ff d8 f9 b1 40                           |......@         |
0x790|                     ff ff ff ff d9 e9 a2 40   |       .......@ |      [67]: "1949-10-02T04:00:00Z" (-639000000) transition_time 0x797-0x79e.7 (8)
0x790|                                             ff|               .|      [68]: "1950-04-02T04:00:00Z" (-623275200) transition_time 0x79f-0x7a6.7 (8)
0x7a0|ff ff ff da d9 93 40                           |......@         |
0x7a0|                     ff ff ff ff db c9 84 40   |       .......@ |      [69]: "1950-10-01T04:00:00Z" (-607550400) transition_time 0x7a7-0x7ae.7 (8)
0x7a0|                                             ff|               .|      [70]: "1951-04-01T04:00:00Z" (-591825600) transition_time 0x7af-0x7b6.7 (8)
0x7b0|ff ff ff dc b9 75 40                           |.....u@         |
0x7b0|                     ff ff ff ff dd b2 a0 c0   |       ........ |      [71]: "1951-10-07T04:00:00Z" (-575496000) transition_time 0x7b7-0x7be.7 (8)
0x7b0|                                             ff|               .|      [72]: "1952-04-06T04:00:00Z" (-559771200) transition_time 0x7bf-0x7c6.7 (8)
0x7c0|ff ff ff de a2 91 c0                           |.......         |
0x7c0|                     ff ff ff ff df 92 82 c0   |       ........ |      [73]: "1952-10-05T04:00:00Z" (-544046400) transition_time 0x7c7-0x7ce.7 (8)
0x7c0|                                             ff|               .|      [74]: "1953-04-05T04:00:00Z" (-528321600) transition_time 0x7cf-0x7d6.7 (8)
0x7d0|ff ff ff e0 82 73 c0                           |.....s.         |
0x7d0|                     ff ff ff ff e1 72 64 c0   |       .....rd. |      [75]: "1953-10-04T04:00:00Z" (-512596800) transition_time 0x7d7-0x7de.7 (8)
0x7d0|                                             ff|               .|      [76]: "1954-04-04T04:00:00Z" (-496872000) transition_time 0x7df-0x7e6.7 (8)
0x7e0|ff ff ff e2 62 55 c0                           |....bU.         |
0x7e0|                     ff ff ff ff e3 52 46 c0   |       .....RF. |      [77]: "1954-10-03T04:00:00Z" (-481147200) transition_time 0x7e7-0x7ee.7 (8)
0x7e0|                                             ff|               .|      [78]: "1955-04-03T04:00:00Z" (-465422400) transition_time 0x7ef-0x7f6.7 (8)
0x7f0|ff ff ff e4 42 37 c0                           |....B7.         |
0x7f0|                     ff ff ff ff e5 32 28 c0   |       .....2(. |      [79]: "1955-10-02T04:00:00Z" (-449697600) transition_time 0x7f7-0x7fe.7 (8)
0x7f0|                                             ff|               .|      [80]: "1956-04-01T04:00:00Z" (-433972800) transition_time 0x7ff-0x806.7 (8)
0x800|ff ff ff e6 22 19 c0                           |...."..         |
0x800|                     ff ff ff ff e7 1b 45 40   |       ......E@ |      [81]: "1956-10-07T04:00:00Z" (-417643200) transition_time 0x807-0x80e.7 (8)
0x800|                                             ff|               .|      [82]: "1957-04-07T04:00:00Z" (-401918400) transition_time 0x80f-0x816.7 (8)
0x810|ff ff ff e8 0b 36 40                           |.....6@         |
0x810|                     ff ff ff ff e8 fb 27 40   |       ......'@ |      [83]: "1957-10-06T04:00:00Z" (-386193600) transition_time 0x817-0x81e.7 (8)
0x810|                                             ff|               .|      [84]: "1958-04-06T04:00:00Z" (-370468800) transition_time 0x81f-0x826.7 (8)
0x820|ff ff ff e9 eb 18 40                           |......@         |
0x820|                     ff ff ff ff ea db 09 40   |       .......@ |      [85]: "1958-10-05T04:00:00Z" (-354744000) transition_time 0x827-0x82e.7 (8)
0x820|                                             ff|               .|      [86]: "1959-04-05T04:00:00Z" (-339019200) transition_time 0x82f-0x836.7 (8)
0x830|ff ff ff eb ca fa 40                           |......@         |
0x830|                     ff ff ff ff ec ba eb 40   |       .......@ |      [87]: "1959-10-04T04:00:00Z" (-323294400) transition_time 0x837-0x83e.7 (8)
0x830|                                             ff|               .|      [88]: "1960-04-03T04:00:00Z" (-307569600) transition_time 0x83f-0x846.7 (8)
0x840|ff ff ff ed aa dc 40                           |......@         |
0x840|                     ff ff ff ff ee 9a cd 40   |       .......@ |      [89]: "1960-10-02T04:00:00Z" (-291844800) transition_time 0x847-0x84e.7 (8)
0x840|                                             ff|               .|      [90]: "1961-04-02T04:00:00Z" (-276120000) transition_time 0x84f-0x856.7 (8)
0x850|ff ff ff ef 8a be 40                           |......@         |
0x850|                     ff ff ff ff f0 7a af 40   |       .....z.@ |      [91]: "1961-10-01T04:00:00Z" (-260395200) transition_time 0x857-0x85e.7 (8)
0x850|                                             ff|               .|      [92]: "1962-04-01T04:00:00Z" (-244670400) transition_time 0x85f-0x866.7 (8)
0x860|ff ff ff f1 6a a0 40                           |....j.@         |
0x860|                     ff ff ff ff f2 63 cb c0   |       .....c.. |      [93]: "1962-10-07T04:00:00Z" (-228340800) transition_time 0x867-0x86e.7 (8)
0x860|                                             ff|               .|      [94]: "1963-04-07T04:00:00Z" (-212616000) transition_time 0x86f-0x876.7 (8)
0x870|ff ff ff f3 53 bc c0                           |....S..         |
0x870|                     ff ff ff ff f4 43 ad c0   |       .....C.. |      [95]: "1963-10-06T04:00:00Z" (-196891200) transition_time 0x877-0x87e.7 (8)
0x870|                                             ff|               .|      [96]: "1964-04-05T04:00:00Z" (-181166400) transition_time 0x87f-0x886.7 (8)
0x880|ff ff ff f5 33 9e c0                           |....3..         |
0x880|                     ff ff ff ff f6 23 8f c0   |       .....#.. |      [97]: "1964-10-04T04:00:00Z" (-165441600) transition_time 0x887-0x88e.7 (8)
0x880|                                             ff|               .|      [98]: "1965-04-04T04:00:00Z" (-149716800) transition_time 0x88f-0x896.7 (8)
0x890|ff ff ff f7 13 80 c0                           |.......         |
0x890|                     ff ff ff ff f8 03 71 c0   |       ......q. |      [99]: "1965-10-03T04:00:00Z" (-133992000) transition_time 0x897-0x89e.7 (8)
0x890|                                             ff|               .|      [100]: "1966-04-03T04:00:00Z" (-118267200) transition_time 0x89f-0x8a6.7 (8)
0x8a0|ff ff ff f8 f3 62 c0                           |.....b.         |
0x8a0|                     00 00 00 00 0d 9b 29 16   |       ......). |      [101]: "1977-03-27T01:00:06Z" (228272406) transition_time 0x8a7-0x8ae.7 (8)
0x8a0|                                             00|               .|      [102]: "1977-09-25T01:00:06Z" (243997206) transition_time 0x8af-0x8b6.7 (8)
0x8b0|00 00 00 0e 8b 1a 16                           |.......         |
0x8b0|                     00 00 00 00 0f 84 45 97   |       ......E. |      [103]: "1978-04-02T01:00:07Z" (260326807) transition_time 0x8b7-0x8be.7 (8)
0x8b0|                                             00|               .|      [104]: "1978-10-01T01:00:07Z" (276051607) transition_time 0x8bf-0x8c6.7 (8)
0x8c0|00 00 00 10 74 36 97                           |....t6.         |
0x8c0|                     00 00 00 00 11 64 27 98   |       .....d'. |      [105]: "1979-04-01T01:00:08Z" (291776408) transition_time 0x8c7-0x8ce.7 (8)
0x8c0|                                             00|               .|      [106]: "1979-09-30T02:00:08Z" (307504808) transition_time 0x8cf-0x8d6.7 (8)
0x8d0|00 00 00 12 54 26 a8                           |....T&.         |
0x8d0|                     00 00 00 00 13 44 09 99   |       .....D.. |      [107]: "1980-03-30T01:00:09Z" (323226009) transition_time 0x8d7-0x8de.7 (8)
0x8d0|                                             00|               .|      [108]: "1980-09-28T02:00:09Z" (338954409) transition_time 0x8df-0x8e6.7 (8)
0x8e0|00 00 00 14 34 08 a9                           |....4..         |
0x8e0|                     00 00 00 00 15 23 f9 a9   |       .....#.. |      [109]: "1981-03-29T02:00:09Z" (354679209) transition_time 0x8e7-0x8ee.7 (8)
0x8e0|                                             00|               .|      [110]: "1981-09-27T02:00:10Z" (370404010) transition_time 0x8ef-0x8f6.7 (8)
0x8f0|00 00 00 16 13 ea aa                           |.......         |
0x8f0|                     00 00 00 00 17 03 db aa   |       ........ |      [111]: "1982-03-28T02:00:10Z" (386128810) transition_time 0x8f7-0x8fe.7 (8)
0x8f0|                                             00|               .|      [112]: "1982-09-26T02:00:11Z" (401853611) transition_time 0x8ff-0x906.7 (8)
0x900|00 00 00 17 f3 cc ab                           |.......         |
0x900|                     00 00 00 00 18 e3 cb bb   |       ........ |      [113]: "1983-03-27T03:00:11Z" (417582011) transition_time 0x907-0x90e.7 (8)
0x900|                                             00|               .|      [114]: "1983-09-25T02:00:12Z" (433303212) transition_time 0x90f-0x916.7 (8)
0x910|00 00 00 19 d3 ae ac                           |.......         |
0x910|                     00 00 00 00 1a c3 9f ac   |       ........ |      [115]: "1984-03-25T02:00:12Z" (449028012) transition_time 0x917-0x91e.7 (8)
0x910|                                             00|               .|      [116]: "1984-09-30T02:00:12Z" (465357612) transition_time 0x91f-0x926.7 (8)
0x920|00 00 00 1b bc cb 2c                           |......,         |
0x920|                     00 00 00 00 1c ac bc 2c   |       ......., |      [117]: "1985-03-31T02:00:12Z" (481082412) transition_time 0x927-0x92e.7 (8)
0x920|                                             00|               .|      [118]: "1985-09-29T02:00:13Z" (496807213) transition_time 0x92f-0x936.7 (8)
0x930|00 00 00 1d 9c ad 2d                           |......-         |
0x930|                     00 00 00 00 1e 8c 9e 2d   |       .......- |      [119]: "1986-03-30T02:00:13Z" (512532013) transition_time 0x937-0x93e.7 (8)
0x930|                                             00|               .|      [120]: "1986-09-28T02:00:13Z" (528256813) transition_time 0x93f-0x946.7 (8)
0x940|00 00 00 1f 7c 8f 2d                           |....|.-         |
0x940|                     00 00 00 00 20 6c 80 2d   |       .... l.- |      [121]: "1987-03-29T02:00:13Z" (543981613) transition_time 0x947-0x94e.7 (8)
0x940|                                             00|               .|      [122]: "1987-09-27T02:00:13Z" (559706413) transition_time 0x94f-0x956.7 (8)
0x950|00 00 00 21 5c 71 2d                           |...!\q-         |
0x950|                     00 00 00 00 22 4c 62 2e   |       ...."Lb. |      [123]: "1988-03-27T02:00:14Z" (575431214) transition_time 0x957-0x95e.7 (8)
0x950|                                             00|               .|      [124]: "1988-09-25T02:00:14Z" (591156014) transition_time 0x95f-0x966.7 (8)
0x960|00 00 00 23 3c 53 2e                           |...#<S.         |
0x960|                     00 00 00 00 24 2c 44 2e   |       ....$,D. |      [125]: "1989-03-26T02:00:14Z" (606880814) transition_time 0x967-0x96e.7 (8)
0x960|                                             00|               .|      [126]: "1989-09-24T02:00:14Z" (622605614) transition_time 0x96f-0x976.7 (8)
0x970|00 00 00 25 1c 35 2e                           |...%.5.         |
0x970|                     00 00 00 00 26 0c 26 2f   |       ....&.&/ |      [127]: "1990-03-25T02:00:15Z" (638330415) transition_time 0x977-0x97e.7 (8)
0x970|                                             00|               .|      [128]: "1990-09-30T02:00:15Z" (654660015) transition_time 0x97f-0x986.7 (8)
0x980|00 00 00 27 05 51 af                           |...'.Q.         |
0x980|                     00 00 00 00 27 f5 42 b0   |       ....'.B. |      [129]: "1991-03-31T02:00:16Z" (670384816) transition_time 0x987-0x98e.7 (8)
0x980|                                             00|               .|      [130]: "1991-09-29T02:00:16Z" (686109616) transition_time 0x98f-0x996.7 (8)
0x990|00 00 00 28 e5 33 b0                           |...(.3.         |
0x990|                     00 00 00 00 29 d5 24 b0   |       ....).$. |      [131]: "1992-03-29T02:00:16Z" (701834416) transition_time 0x997-0x99e.7 (8)
0x990|                                             00|               .|      [132]: "1992-09-27T02:00:17Z" (717559217) transition_time 0x99f-0x9a6.7 (8)
0x9a0|00 00 00 2a c5 15 b1                           |...*...         |
0x9a0|                     00 00 00 00 2b b4 f8 a1   |       ....+... |      [133]: "1993-03-28T01:00:17Z" (733280417) transition_time 0x9a7-0x9ae.7 (8)
0x9a0|                                             00|               .|      [134]: "1993-09-26T01:00:18Z" (749005218) transition_time 0x9af-0x9b6.7 (8)
0x9b0|00 00 00 2c a4 e9 a2                           |...,...         |
0x9b0|                     00 00 00 00 2d 94 da a2   |       ....-... |      [135]: "1994-03-27T01:00:18Z" (764730018) transition_time 0x9b7-0x9be.7 (8)
0x9b0|                                             00|               .|      [136]: "1994-09-25T01:00:19Z" (780454819) transition_time 0x9bf-0x9c6.7 (8)
0x9c0|00 00 00 2e 84 cb a3                           |.......         |
0x9c0|                     00 00 00 00 2f 74 bc a3   |       ..../t.. |      [137]: "1995-03-26T01:00:19Z" (796179619) transition_time 0x9c7-0x9ce.7 (8)
0x9c0|                                             00|               .|      [138]: "1995-09-24T01:00:19Z" (811904419) transition_time 0x9cf-0x9d6.7 (8)
0x9d0|00 00 00 30 64 ad a3                           |...0d..         |
0x9d0|                     00 00 00 00 31 5d d9 24   |       ....1].$ |      [139]: "1996-03-31T01:00:20Z" (828234020) transition_time 0x9d7-0x9de.7 (8)
0x9d0|                                             00|               .|      [140]: "1996-10-27T01:00:20Z" (846378020) transition_time 0x9df-0x9e6.7 (8)
0x9e0|00 00 00 32 72 b4 24                           |...2r.$         |
0x9e0|                     00 00 00 00 33 3d bb 24   |       ....3=.$ |      [141]: "1997-03-30T01:00:20Z" (859683620) transition_time 0x9e7-0x9ee.7 (8)
0x9e0|                                             00|               .|      [142]: "1997-10-26T01:00:21Z" (877827621) transition_time 0x9ef-0x9f6.7 (8)
0x9f0|00 00 00 34 52 96 25                           |...4R.%         |
0x9f0|                     00 00 00 00 35 1d 9d 25   |       ....5..% |      [143]: "1998-03-29T01:00:21Z" (891133221) transition_time 0x9f7-0x9fe.7 (8)
0x9f0|                                             00|               .|      [144]: "1998-10-25T01:00:21Z" (909277221) transition_time 0x9ff-0xa06.7 (8)
0xa00|00 00 00 36 32 78 25                           |...62x%         |
0xa00|                     00 00 00 00 36 fd 7f 26   |       ....6..& |      [145]: "1999-03-28T01:00:22Z" (922582822) transition_time 0xa07-0xa0e.7 (8)
0xa00|                                             00|               .|      [146]: "1999-10-31T01:00:22Z" (941331622) transition_time 0xa0f-0xa16.7 (8)
0xa10|00 00 00 38 1b 94 a6                           |...8...         |
0xa10|                     00 00 00 00 38 dd 61 26   |       ....8.a& |      [147]: "2000-03-26T01:00:22Z" (954032422) transition_time 0xa17-0xa1e.7 (8)
0xa10|                                             00|               .|      [148]: "2000-10-29T01:00:22Z" (972781222) transition_time 0xa1f-0xa26.7 (8)
0xa20|00 00 00 39 fb 76 a6                           |...9.v.         |
0xa20|                     00 00 00 00 3a bd 43 26   |       ....:.C& |      [149]: "2001-03-25T01:00:22Z" (985482022) transition_time 0xa27-0xa2e.7 (8)
0xa20|                                             00|               .|      [150]: "2001-10-28T01:00:22Z" (1004230822) transition_time 0xa2f-0xa36.7 (8)
0xa30|00 00 00 3b db 58 a6                           |...;.X.         |
0xa30|                     00 00 00 00 3c a6 5f a6   |       ....<._. |      [151]: "2002-03-31T01:00:22Z" (1017536422) transition_time 0xa37-0xa3e.7 (8)
0xa30|                                             00|               .|      [152]: "2002-10-27T01:00:22Z" (1035680422) transition_time 0xa3f-0xa46.7 (8)
0xa40|00 00 00 3d bb 3a a6                           |...=.:.         |
0xa40|                     00 00 00 00 3e 86 41 a6   |       ....>.A. |      [153]: "2003-03-30T01:00:22Z" (1048986022) transition_time 0xa47-0xa4e.7 (8)
0xa40|                                             00|               .|      [154]: "2003-10-26T01:00:22Z" (1067130022) transition_time 0xa4f-0xa56.7 (8)
0xa50|00 00 00 3f 9b 1c a6                           |...?...         |
0xa50|                     00 00 00 00 40 66 23 a6   |       ....@f#. |      [155]: "2004-03-28T01:00:22Z" (1080435622) transition_time 0xa57-0xa5e.7 (8)
0xa50|                                             00|               .|      [156]: "2004-10-31T01:00:22Z" (1099184422) transition_time 0xa5f-0xa66.7 (8)
0xa60|00 00 00 41 84 39 26                           |...A.9&         |
0xa60|                     00 00 00 00 42 46 05 a6   |       ....BF.. |      [157]: "2005-03-27T01:00:22Z" (1111885222) transition_time 0xa67-0xa6e.7 (8)
0xa60|                                             00|               .|      [158]: "2005-10-30T01:00:22Z" (1130634022) transition_time 0xa6f-0xa76.7 (8)
0xa70|00 00 00 43 64 1b 26                           |...Cd.&         |
0xa70|                     00 00 00 00 44 25 e7 a7   |       ....D%.. |      [159]: "2006-03-26T01:00:23Z" (1143334823) transition_time 0xa77-0xa7e.7 (8)
0xa70|                                             00|               .|      [160]: "2006-10-29T01:00:23Z" (1162083623) transition_time 0xa7f-0xa86.7 (8)
0xa80|00 00 00 45 43 fd 27                           |...EC.'         |
0xa80|                     00 00 00 00 46 05 c9 a7   |       ....F... |      [161]: "2007-03-25T01:00:23Z" (1174784423) transition_time 0xa87-0xa8e.7 (8)
0xa80|                                             00|               .|      [162]: "2007-10-28T01:00:23Z" (1193533223) transition_time 0xa8f-0xa96.7 (8)
0xa90|00 00 00 47 23 df 27                           |...G#.'         |
0xa90|                     00 00 00 00 47 ee e6 27   |       ....G..' |      [163]: "2008-03-30T01:00:23Z" (1206838823) transition_time 0xa97-0xa9e.7 (8)
0xa90|                                             00|               .|      [164]: "2008-10-26T01:00:23Z" (1224982823) transition_time 0xa9f-0xaa6.7 (8)
0xaa0|00 00 00 49 03 c1 27                           |...I..'         |
0xaa0|                     00 00 00 00 49 ce c8 28   |       ....I..( |      [165]: "2009-03-29T01:00:24Z" (1238288424) transition_time 0xaa7-0xaae.7 (8)
0xaa0|                                             00|               .|      [166]: "2009-10-25T01:00:24Z" (1256432424) transition_time 0xaaf-0xab6.7 (8)
0xab0|00 00 00 4a e3 a3 28                           |...J..(         |
0xab0|                     00 00 00 00 4b ae aa 28   |       ....K..( |      [167]: "2010-03-28T01:00:24Z" (1269738024) transition_time 0xab7-0xabe.7 (8)
0xab0|                                             00|               .|      [168]: "2010-10-31T01:00:24Z" (1288486824) transition_time 0xabf-0xac6.7 (8)
0xac0|00 00 00 4c cc bf a8                           |...L...         |
0xac0|                     00 00 00 00 4d 8e 8c 28   |       ....M..( |      [169]: "2011-03-27T01:00:24Z" (1301187624) transition_time 0xac7-0xace.7 (8)
0xac0|                                             00|               .|      [170]: "2011-10-30T01:00:24Z" (1319936424) transition_time 0xacf-0xad6.7 (8)
0xad0|00 00 00 4e ac a1 a8                           |...N...         |
0xad0|                     00 00 00 00 4f 6e 6e 28   |       ....Onn( |      [171]: "2012-03-25T01:00:24Z" (1332637224) transition_time 0xad7-0xade.7 (8)
0xad0|                                             00|               .|      [172]: "2012-10-28T01:00:25Z" (1351386025) transition_time 0xadf-0xae6.7 (8)
0xae0|00 00 00 50 8c 83 a9                           |...P...         |
0xae0|                     00 00 00 00 51 57 8a a9   |       ....QW.. |      [173]: "2013-03-31T01:00:25Z" (1364691625) transition_time 0xae7-0xaee.7 (8)
0xae0|                                             00|               .|      [174]: "2013-10-27T01:00:25Z" (1382835625) transition_time 0xaef-0xaf6.7 (8)
0xaf0|00 00 00 52 6c 65 a9                           |...Rle.         |
0xaf0|                     00 00 00 00 53 37 6c a9   |       ....S7l. |      [175]: "2014-03-30T01:00:25Z" (1396141225) transition_time 0xaf7-0xafe.7 (8)
0xaf0|                                             00|               .|      [176]: "2014-10-26T01:00:25Z" (1414285225) transition_time 0xaff-0xb06.7 (8)
0xb00|00 00 00 54 4c 47 a9                           |...TLG.         |
0xb00|                     00 00 00 00 55 17 4e a9   |       ....U.N. |      [177]: "2015-03-29T01:00:25Z" (1427590825) transition_time 0xb07-0xb0e.7 (8)
0xb00|                                             00|               .|      [178]: "2015-10-25T01:00:26Z" (1445734826) transition_time 0xb0f-0xb16.7 (8)
0xb10|00 00 00 56 2c 29 aa                           |...V,).         |
0xb10|                     00 00 00 00 56 f7 30 aa   |       ....V.0. |      [179]: "2016-03-27T01:00:26Z" (1459040426) transition_time 0xb17-0xb1e.7 (8)
0xb10|                                             00|               .|      [180]: "2016-10-30T01:00:26Z" (1477789226) transition_time 0xb1f-0xb26.7 (8)
0xb20|00 00 00 58 15 46 2a                           |...X.F*         |
0xb20|                     00 00 00 00 58 d7 12 ab   |       ....X... |      [181]: "2017-03-26T01:00:27Z" (1490490027) transition_time 0xb27-0xb2e.7 (8)
0xb20|                                             00|               .|      [182]: "2017-10-29T01:00:27Z" (1509238827) transition_time 0xb2f-0xb36.7 (8)
0xb30|00 00 00 59 f5 28 2b                           |...Y.(+         |
0xb30|                     00 00 00 00 5a b6 f4 ab   |       ....Z... |      [183]: "2018-03-25T01:00:27Z" (1521939627) transition_time 0xb37-0xb3e.7 (8)
0xb30|                                             00|               .|      [184]: "2018-10-28T01:00:27Z" (1540688427) transition_time 0xb3f-0xb46.7 (8)
0xb40|00 00 00 5b d5 0a 2b                           |...[..+         |
0xb40|                     00 00 00 00 5c a0 11 2b   |       ....\..+ |      [185]: "2019-03-31T01:00:27Z" (1553994027) transition_time 0xb47-0xb4e.7 (8)
0xb40|                                             00|               .|      [186]: "2019-10-27T01:00:27Z" (1572138027) transition_time 0xb4f-0xb56.7 (8)
0xb50|00 00 00 5d b4 ec 2b                           |...]..+         |
0xb50|                     00 00 00 00 5e 7f f3 2b   |       ....^..+ |      [187]: "2020-03-29T01:00:27Z" (1585443627) transition_time 0xb57-0xb5e.7 (8)
0xb50|                                             00|               .|      [188]: "2020-10-25T01:00:27Z" (1603587627) transition_time 0xb5f-0xb66.7 (8)
0xb60|00 00 00 5f 94 ce 2b                           |..._..+         |
0xb60|                     00 00 00 00 60 5f d5 2b   |       ....`_.+ |      [189]: "2021-03-28T01:00:27Z" (1616893227) transition_time 0xb67-0xb6e.7 (8)
0xb60|                                             00|               .|      [190]: "2021-10-31T01:00:27Z" (1635642027) transition_time 0xb6f-0xb76.7 (8)
0xb70|00 00 00 61 7d ea ab                           |...a}..         |
0xb70|                     00 00 00 00 62 3f b7 2b   |       ....b?.+ |      [191]: "2022-03-27T01:00:27Z" (1648342827) transition_time 0xb77-0xb7e.7 (8)
0xb70|                                             00|               .|      [192]: "2022-10-30T01:00:27Z" (1667091627) transition_time 0xb7f-0xb86.7 (8)
0xb80|00 00 00 63 5d cc ab                           |...c]..         |
0xb80|                     00 00 00 00 64 1f 99 2b   |       ....d..+ |      [193]: "2023-03-26T01:00:27Z" (1679792427) transition_time 0xb87-0xb8e.7 (8)
0xb80|                                             00|               .|      [194]: "2023-06-28T00:00:27Z" (1687910427) transition_time 0xb8f-0xb96.7 (8)
0xb90|00 00 00 64 9b 78 1b                           |...d.x.         |
     |                                               |                |    transition_types[0:195]: 0xb97-0xc59.7 (195)
0xb90|                     01                        |       .        |      [0]: 1 transition_type 0xb97-0xb97.7 (1)
0xb90|                        06                     |        .       |      [1]: 6 transition_type 0xb98-0xb98.7 (1)
0xb90|                           02                  |         .      |      [2]: 2 transition_type 0xb99-0xb99.7 (1)
0xb90|                              03               |          .     |      [3]: 3 transition_type 0xb9a-0xb9a.7 (1)
0xb90|                                 04            |           .    |      [4]: 4 transition_type 0xb9b-0xb9b.7 (1)
0xb90|                                    05         |            .   |      [5]: 5 transition_type 0xb9c-0xb9c.7 (1)
0xb90|                                       04      |             .  |      [6]: 4 transition_type 0xb9d-0xb9d.7 (1)
0xb90|                                          05   |              . |      [7]: 5 transition_type 0xb9e-0xb9e.7 (1)
0xb90|                                             04|               .|      [8]: 4 transition_type 0xb9f-0xb9f.7 (1)
0xba0|05                                             |.               |      [9]: 5 transition_type 0xba0-0xba0.7 (1)
0xba0|   04                                          | .              |      [10]: 4 transition_type 0xba1-0xba1.7 (1)
0xba0|      05                                       |  .             |      [11]: 5 transition_type 0xba2-0xba2.7 (1)
0xba0|         04                                    |   .            |      [12]: 4 transition_type 0xba3-0xba3.7 (1)
0xba0|            05                                 |    .           |      [13]: 5 transition_type 0xba4-0xba4.7 (1)
0xba0|               04                              |     .          |      [14]: 4 transition_type 0xba5-0xba5.7 (1)
0xba0|                  05                           |      .         |      [15]: 5 transition_type 0xba6-0xba6.7 (1)
0xba0|                     04                        |       .        |      [16]: 4 transition_type 0xba7-0xba7.7 (1)
0xba0|                        05                     |        .       |      [17]: 5 transition_type 0xba8-0xba8.7 (1)
0xba0|                           04                  |         .      |      [18]: 4 transition_type 0xba9-0xba9.7 (1)
0xba0|                              05               |          .     |      [19]: 5 transition_type 0xbaa-0xbaa.7 (1)
0xba0|                                 04            |           .    |      [20]: 4 transition_type 0xbab-0xbab.7 (1)
0xba0|                                    05         |            .   |      [21]: 5 transition_type 0xbac-0xbac.7 (1)
0xba0|                                       04      |             .  |      [22]: 4 transition_type 0xbad-0xbad.7 (1)
0xba0|                                          05   |              . |      [23]: 5 transition_type 0xbae-0xbae.7 (1)
0xba0|                                             04|               .|      [24]: 4 transition_type 0xbaf-0xbaf.7 (1)
0xbb0|05                                             |.               |      [25]: 5 transition_type 0xbb0-0xbb0.7 (1)
0xbb0|   04                                          | .              |      [26]: 4 transition_type 0xbb1-0xbb1.7 (1)
0xbb0|      05                                       |  .             |      [27]: 5 transition_type 0xbb2-0xbb2.7 (1)
0xbb0|         04                                    |   .            |      [28]: 4 transition_type 0xbb3-0xbb3.7 (1)
0xbb0|            05                                 |    .           |      [29]: 5 transition_type 0xbb4-0xbb4.7 (1)
0xbb0|               04                              |     .          |      [30]: 4 transition_type 0xbb5-0xbb5.7 (1)
0xbb0|                  05                           |      .         |      [31]: 5 transition_type 0xbb6-0xbb6.7 (1)
0xbb0|                     04                        |       .        |      [32]: 4 transition_type 0xbb7-0xbb7.7 (1)
0xbb0|                        05                     |        .       |      [33]: 5 transition_type 0xbb8-0xbb8.7 (1)
0xbb0|                           04                  |         .      |      [34]: 4 transition_type 0xbb9-0xbb9.7 (1)
0xbb0|                              05               |          .     |      [35]: 5 transition_type 0xbba-0xbba.7 (1)
0xbb0|                                 04            |           .    |      [36]: 4 transition_type 0xbbb-0xbbb.7 (1)
0xbb0|                                    05         |            .   |      [37]: 5 transition_type 0xbbc-0xbbc.7 (1)
0xbb0|                                       04      |             .  |      [38]: 4 transition_type 0xbbd-0xbbd.7 (1)
0xbb0|                                          05   |              . |      [39]: 5 transition_type 0xbbe-0xbbe.7 (1)
0xbb0|                                             04|               .|      [40]: 4 transition_type 0xbbf-0xbbf.7 (1)
0xbc0|05                                             |.               |      [41]: 5 transition_type 0xbc0-0xbc0.7 (1)
0xbc0|   04                                          | .              |      [42]: 4 transition_type 0xbc1-0xbc1.7 (1)
0xbc0|      05                                       |  .             |      [43]: 5 transition_type 0xbc2-0xbc2.7 (1)
0xbc0|         04                                    |   .            |      [44]: 4 transition_type 0xbc3-0xbc3.7 (1)
0xbc0|            07                                 |    .           |      [45]: 7 transition_type 0xbc4-0xbc4.7 (1)
0xbc0|               04                              |     .          |      [46]: 4 transition_type 0xbc5-0xbc5.7 (1)
0xbc0|                  05                           |      .         |      [47]: 5 transition_type 0xbc6-0xbc6.7 (1)
0xbc0|                     04                        |       .        |      [48]: 4 transition_type 0xbc7-0xbc7.7 (1)
0xbc0|                        07                     |        .       |      [49]: 7 transition_type 0xbc8-0xbc8.7 (1)
0xbc0|                           04                  |         .      |      [50]: 4 transition_type 0xbc9-0xbc9.7 (1)
0xbc0|                              05               |          .     |      [51]: 5 transition_type 0xbca-0xbca.7 (1)
0xbc0|                                 04            |           .    |      [52]: 4 transition_type 0xbcb-0xbcb.7 (1)
0xbc0|                                    07         |            .   |      [53]: 7 transition_type 0xbcc-0xbcc.7 (1)
0xbc0|                                       04      |             .  |      [54]: 4 transition_type 0xbcd-0xbcd.7 (1)
0xbc0|                                          05   |              . |      [55]: 5 transition_type 0xbce-0xbce.7 (1)
0xbc0|                                             04|               .|      [56]: 4 transition_type 0xbcf-0xbcf.7 (1)
0xbd0|07                                             |.               |      [57]: 7 transition_type 0xbd0-0xbd0.7 (1)
0xbd0|   04                                          | .              |      [58]: 4 transition_type 0xbd1-0xbd1.7 (1)
0xbd0|      05                                       |  .             |      [59]: 5 transition_type 0xbd2-0xbd2.7 (1)
0xbd0|         04                                    |   .            |      [60]: 4 transition_type 0xbd3-0xbd3.7 (1)
0xbd0|            05                                 |    .           |      [61]: 5 transition_type 0xbd4-0xbd4.7 (1)
0xbd0|               04                              |     .          |      [62]: 4 transition_type 0xbd5-0xbd5.7 (1)
0xbd0|                  05                           |      .         |      [63]: 5 transition_type 0xbd6-0xbd6.7 (1)
0xbd0|                     04                        |       .        |      [64]: 4 transition_type 0xbd7-0xbd7.7 (1)
0xbd0|                        05                     |        .       |      [65]: 5 transition_type 0xbd8-0xbd8.7 (1)
0xbd0|                           04                  |         .      |      [66]: 4 transition_type 0xbd9-0xbd9.7 (1)
0xbd0|                              05               |          .     |      [67]: 5 transition_type 0xbda-0xbda.7 (1)
0xbd0|                                 04            |           .    |      [68]: 4 transition_type 0xbdb-0xbdb.7 (1)
0xbd0|                                    05         |            .   |      [69]: 5 transition_type 0xbdc-0xbdc.7 (1)
0xbd0|                                       04      |             .  |      [70]: 4 transition_type 0xbdd-0xbdd.7 (1)
0xbd0|                                          05   |              . |      [71]: 5 transition_type 0xbde-0xbde.7 (1)
0xbd0|                                             04|               .|      [72]: 4 transition_type 0xbdf-0xbdf.7 (1)
0xbe0|05                                             |.               |      [73]: 5 transition_type 0xbe0-0xbe0.7 (1)
0xbe0|   04                                          | .              |      [74]: 4 transition_type 0xbe1-0xbe1.7 (1)
0xbe0|      05                                       |  .             |      [75]: 5 transition_type 0xbe2-0xbe2.7 (1)
0xbe0|         04                                    |   .            |      [76]: 4 transition_type 0xbe3-0xbe3.7 (1)
0xbe0|            05                                 |    .           |      [77]: 5 transition_type 0xbe4-0xbe4.7 (1)
0xbe0|               04                              |     .          |      [78]: 4 transition_type 0xbe5-0xbe5.7 (1)
0xbe0|                  05                           |      .         |      [79]: 5 transition_type 0xbe6-0xbe6.7 (1)
0xbe0|                     04                        |       .        |      [80]: 4 transition_type 0xbe7-0xbe7.7 (1)
0xbe0|                        05                     |        .       |      [81]: 5 transition_type 0xbe8-0xbe8.7 (1)
0xbe0|                           04                  |         .      |      [82]: 4 transition_type 0xbe9-0xbe9.7 (1)
0xbe0|                              05               |          .     |      [83]: 5 transition_type 0xbea-0xbea.7 (1)
0xbe0|                                 04            |           .    |      [84]: 4 transition_type 0xbeb-0xbeb.7 (1)
0xbe0|                                    05         |            .   |      [85]: 5 transition_type 0xbec-0xbec.7 (1)
0xbe0|                                       04      |             .  |      [86]: 4 transition_type 0xbed-0xbed.7 (1)
0xbe0|                                          05   |              . |      [87]: 5 transition_type 0xbee-0xbee.7 (1)
0xbe0|                                             04|               .|      [88]: 4 transition_type 0xbef-0xbef.7 (1)
0xbf0|05                                             |.               |      [89]: 5 transition_type 0xbf0-0xbf0.7 (1)
0xbf0|   04                                          | .              |      [90]: 4 transition_type 0xbf1-0xbf1.7 (1)
0xbf0|      05                                       |  .             |      [91]: 5 transition_type 0xbf2-0xbf2.7 (1)
0xbf0|         04                                    |   .            |      [92]: 4 transition_type 0xbf3-0xbf3.7 (1)
0xbf0|            05                                 |    .           |      [93]: 5 transition_type 0xbf4-0xbf4.7 (1)
0xbf0|               04                              |     .          |      [94]: 4 transition_type 0xbf5-0xbf5.7 (1)
0xbf0|                  05                           |      .         |      [95]: 5 transition_type 0xbf6-0xbf6.7 (1)
0xbf0|                     04                        |       .        |      [96]: 4 transition_type 0xbf7-0xbf7.7 (1)
0xbf0|                        05                     |        .       |      [97]: 5 transition_type 0xbf8-0xbf8.7 (1)
0xbf0|                           04                  |         .      |      [98]: 4 transition_type 0xbf9-0xbf9.7 (1)
0xbf0|                              05               |          .     |      [99]: 5 transition_type 0xbfa-0xbfa.7 (1)
0xbf0|                                 09            |           .    |      [100]: 9 transition_type 0xbfb-0xbfb.7 (1)
0xbf0|                                    07         |            .   |      [101]: 7 transition_type 0xbfc-0xbfc.7 (1)
0xbf0|                                       08      |             .  |      [102]: 8 transition_type 0xbfd-0xbfd.7 (1)
0xbf0|                                          07   |              . |      [103]: 7 transition_type 0xbfe-0xbfe.7 (1)
0xbf0|                                             08|               .|      [104]: 8 transition_type 0xbff-0xbff.7 (1)
0xc00|07                                             |.               |      [105]: 7 transition_type 0xc00-0xc00.7 (1)
0xc00|   08                                          | .              |      [106]: 8 transition_type 0xc01-0xc01.7 (1)
0xc00|      07                                       |  .             |      [107]: 7 transition_type 0xc02-0xc02.7 (1)
0xc00|         08                                    |   .            |      [108]: 8 transition_type 0xc03-0xc03.7 (1)
0xc00|            07                                 |    .           |      [109]: 7 transition_type 0xc04-0xc04.7 (1)
0xc00|               08                              |     .          |      [110]: 8 transition_type 0xc05-0xc05.7 (1)
0xc00|                  07                           |      .         |      [111]: 7 transition_type 0xc06-0xc06.7 (1)
0xc00|                     08                        |       .        |      [112]: 8 transition_type 0xc07-0xc07.7 (1)
0xc00|                        07                     |        .       |      [113]: 7 transition_type 0xc08-0xc08.7 (1)
0xc00|                           08                  |         .      |      [114]: 8 transition_type 0xc09-0xc09.7 (1)
0xc00|                              07               |          .     |      [115]: 7 transition_type 0xc0a-0xc0a.7 (1)
0xc00|                                 08            |           .    |      [116]: 8 transition_type 0xc0b-0xc0b.7 (1)
0xc00|                                    07         |            .   |      [117]: 7 transition_type 0xc0c-0xc0c.7 (1)
0xc00|                                       08      |             .  |      [118]: 8 transition_type 0xc0d-0xc0d.7 (1)
0xc00|                                          07   |              . |      [119]: 7 transition_type 0xc0e-0xc0e.7 (1)
0xc00|                                             08|               .|      [120]: 8 transition_type 0xc0f-0xc0f.7 (1)
0xc10|07                                             |.               |      [121]: 7 transition_type 0xc10-0xc10.7 (1)
0xc10|   08                                          | .              |      [122]: 8 transition_type 0xc11-0xc11.7 (1)
0xc10|      07                                       |  .             |      [123]: 7 transition_type 0xc12-0xc12.7 (1)
0xc10|         08                                    |   .            |      [124]: 8 transition_type 0xc13-0xc13.7 (1)
0xc10|            07                                 |    .           |      [125]: 7 transition_type 0xc14-0xc14.7 (1)
0xc10|               08                              |     .          |      [126]: 8 transition_type 0xc15-0xc15.7 (1)
0xc10|                  07                           |      .         |      [127]: 7 transition_type 0xc16-0xc16.7 (1)
0xc10|                     08                        |       .        |      [128]: 8 transition_type 0xc17-0xc17.7 (1)
0xc10|                        07                     |        .       |      [129]: 7 transition_type 0xc18-0xc18.7 (1)
0xc10|                           08                  |         .      |      [130]: 8 transition_type 0xc19-0xc19.7 (1)
0xc10|                              07               |          .     |      [131]: 7 transition_type 0xc1a-0xc1a.7 (1)
0xc10|                                 0a            |           .    |      [132]: 10 transition_type 0xc1b-0xc1b.7 (1)
0xc10|                                    0b         |            .   |      [133]: 11 transition_type 0xc1c-0xc1c.7 (1)
0xc10|                                       0c      |             .  |      [134]: 12 transition_type 0xc1d-0xc1d.7 (1)
0xc10|                                          0b   |              . |      [135]: 11 transition_type 0xc1e-0xc1e.7 (1)
0xc10|                                             0c|               .|      [136]: 12 transition_type 0xc1f-0xc1f.7 (1)
0xc20|0b                                             |.               |      [137]: 11 transition_type 0xc20-0xc20.7 (1)
0xc20|   0c                                          | .              |      [138]: 12 transition_type 0xc21-0xc21.7 (1)
0xc20|      0b                                       |  .             |      [139]: 11 transition_type 0xc22-0xc22.7 (1)
0xc20|         0c                                    |   .            |      [140]: 12 transition_type 0xc23-0xc23.7 (1)
0xc20|            0b                                 |    .           |      [141]: 11 transition_type 0xc24-0xc24.7 (1)
0xc20|               0c                              |     .          |      [142]: 12 transition_type 0xc25-0xc25.7 (1)
0xc20|                  0b                           |      .         |      [143]: 11 transition_type 0xc26-0xc26.7 (1)
0xc20|                     0c                        |       .        |      [144]: 12 transition_type 0xc27-0xc27.7 (1)
0xc20|                        0b                     |        .       |      [145]: 11 transition_type 0xc28-0xc28.7 (1)
0xc20|                           0c                  |         .      |      [146]: 12 transition_type 0xc29-0xc29.7 (1)
0xc20|                              0b               |          .     |      [147]: 11 transition_type 0xc2a-0xc2a.7 (1)
0xc20|                                 0c            |           .    |      [148]: 12 transition_type 0xc2b-0xc2b.7 (1)
0xc20|                                    0b         |            .   |      [149]: 11 transition_type 0xc2c-0xc2c.7 (1)
0xc20|                                       0c      |             .  |      [150]: 12 transition_type 0xc2d-0xc2d.7 (1)
0xc20|                                          0b   |              . |      [151]: 11 transition_type 0xc2e-0xc2e.7 (1)
0xc20|                                             0c|               .|      [152]: 12 transition_type 0xc2f-0xc2f.7 (1)
0xc30|0b                                             |.               |      [153]: 11 transition_type 0xc30-0xc30.7 (1)
0xc30|   0c                                          | .              |      [154]: 12 transition_type 0xc31-0xc31.7 (1)
0xc30|      0b                                       |  .             |      [155]: 11 transition_type 0xc32-0xc32.7 (1)
0xc30|         0c                                    |   .            |      [156]: 12 transition_type 0xc33-0xc33.7 (1)
0xc30|            0b                                 |    .           |      [157]: 11 transition_type 0xc34-0xc34.7 (1)
0xc30|               0c                              |     .          |      [158]: 12 transition_type 0xc35-0xc35.7 (1)
0xc30|                  0b                           |      .         |      [159]: 11 transition_type 0xc36-0xc36.7 (1)
0xc30|                     0c                        |       .        |      [160]: 12 transition_type 0xc37-0xc37.7 (1)
0xc30|                        0b                     |        .       |      [161]: 11 transition_type 0xc38-0xc38.7 (1)
0xc30|                           0c                  |         .      |      [162]: 12 transition_type 0xc39-0xc39.7 (1)
0xc30|                              0b               |          .     |      [163]: 11 transition_type 0xc3a-0xc3a.7 (1)
0xc30|                                 0c            |           .    |      [164]: 12 transition_type 0xc3b-0xc3b.7 (1)
0xc30|                                    0b         |            .   |      [165]: 11 transition_type 0xc3c-0xc3c.7 (1)
0xc30|                                       0c      |             .  |      [166]: 12 transition_type 0xc3d-0xc3d.7 (1)
0xc30|                                          0b   |              . |      [167]: 11 transition_type 0xc3e-0xc3e.7 (1)
0xc30|                                             0c|               .|      [168]: 12 transition_type 0xc3f-0xc3f.7 (1)
0xc40|0b                                             |.               |      [169]: 11 transition_type 0xc40-0xc40.7 (1)
0xc40|   0c                                          | .              |      [170]: 12 transition_type 0xc41-0xc41.7 (1)
0xc40|      0b                                       |  .             |      [171]: 11 transition_type 0xc42-0xc42.7 (1)
0xc40|         0c                                    |   .            |      [172]: 12 transition_type 0xc43-0xc43.7 (1)
0xc40|            0b                                 |    .           |      [173]: 11 transition_type 0xc44-0xc44.7 (1)
0xc40|               0c                              |     .          |      [174]: 12 transition_type 0xc45-0xc45.7 (1)
0xc40|                  0b                           |      .         |      [175]: 11 transition_type 0xc46-0xc46.7 (1)
0xc40|                     0c                        |       .        |      [176]: 12 transition_type 0xc47-0xc47.7 (1)
0xc40|                        0b                     |        .       |      [177]: 11 transition_type 0xc48-0xc48.7 (1)
0xc40|                           0c                  |         .      |      [178]: 12 transition_type 0xc49-0xc49.7 (1)
0xc40|                              0b               |          .     |      [179]: 11 transition_type 0xc4a-0xc4a.7 (1)
0xc40|                                 0c            |           .    |      [180]: 12 transition_type 0xc4b-0xc4b.7 (1)
0xc40|                                    0b         |            .   |      [181]: 11 transition_type 0xc4c-0xc4c.7 (1)
0xc40|                                       0c      |             .  |      [182]: 12 transition_type 0xc4d-0xc4d.7 (1)
0xc40|                                          0b   |              . |      [183]: 11 transition_type 0xc4e-0xc4e.7 (1)
0xc40|                                             0c|               .|      [184]: 12 transition_type 0xc4f-0xc4f.7 (1)
0xc50|0b                                             |.               |      [185]: 11 transition_type 0xc50-0xc50.7 (1)
0xc50|   0c                                          | .              |      [186]: 12 transition_type 0xc51-0xc51.7 (1)
0xc50|      0b                                       |  .             |      [187]: 11 transition_type 0xc52-0xc52.7 (1)
0xc50|         0c                                    |   .            |      [188]: 12 transition_type 0xc53-0xc53.7 (1)
0xc50|            0b                                 |    .           |      [189]: 11 transition_type 0xc54-0xc54.7 (1)
0xc50|               0c                              |     .          |      [190]: 12 transition_type 0xc55-0xc55.7 (1)
0xc50|                  0b                           |      .         |      [191]: 11 transition_type 0xc56-0xc56.7 (1)
0xc50|                     0c                        |       .        |      [192]: 12 transition_type 0xc57-0xc57.7 (1)
0xc50|                        0b                     |        .       |      [193]: 11 transition_type 0xc58-0xc58.7 (1)
0xc50|                           0b                  |         .      |      [194]: 11 transition_type 0xc59-0xc59.7 (1)
     |                                               |                |    local_time_type_records[0:13]: 0xc5a-0xca7.7 (78)
     |                                               |                |      [0]{}: local_time_type 0xc5a-0xc5f.7 (6)
0xc50|                              ff ff e7 f0      |          ....  |        utoff: -6160 (valid) 0xc5a-0xc5d.7 (4)
0xc50|                                          00   |              . |        dst: 0 (valid) 0xc5e-0xc5e.7 (1)
0xc50|                                             00|               .|        idx: 0 (valid) 0xc5f-0xc5f.7 (1)
     |                                               |                |      [1]{}: local_time_type 0xc60-0xc65.7 (6)
0xc60|ff ff e5 28                                    |...(            |        utoff: -6872 (valid) 0xc60-0xc63.7 (4)
0xc60|            00                                 |    .           |        dst: 0 (valid) 0xc64-0xc64.7 (1)
0xc60|               04                              |     .          |        idx: 4 (valid) 0xc65-0xc65.7 (1)
     |                                               |                |      [2]{}: local_time_type 0xc66-0xc6b.7 (6)
0xc60|                  ff ff f1 f0                  |      ....      |        utoff: -3600 (valid) 0xc66-0xc69.7 (4)
0xc60|                              01               |          .     |        dst: 1 (valid) 0xc6a-0xc6a.7 (1)
0xc60|                                 08            |           .    |        idx: 8 (valid) 0xc6b-0xc6b.7 (1)
     |                                               |                |      [3]{}: local_time_type 0xc6c-0xc71.7 (6)
0xc60|                                    ff ff e3 e0|            ....|        utoff: -7200 (valid) 0xc6c-0xc6f.7 (4)
0xc70|00                                             |.               |        dst: 0 (valid) 0xc70-0xc70.7 (1)
0xc70|   0c                                          | .              |        idx: 12 (valid) 0xc71-0xc71.7 (1)
     |                                               |                |      [4]{}: local_time_type 0xc72-0xc77.7 (6)
0xc70|      ff ff f1 f0                              |  ....          |        utoff: -3600 (valid) 0xc72-0xc75.7 (4)
0xc70|                  01                           |      .         |        dst: 1 (valid) 0xc76-0xc76.7 (1)
0xc70|                     08                        |       .        |        idx: 8 (valid) 0xc77-0xc77.7 (1)
     |                                               |                |      [5]{}: local_time_type 0xc78-0xc7d.7 (6)
0xc70|                        ff ff e3 e0            |        ....    |        utoff: -7200 (valid) 0xc78-0xc7b.7 (4)
0xc70|                                    00         |            .   |        dst: 0 (valid) 0xc7c-0xc7c.7 (1)
0xc70|                                       0c      |             .  |        idx: 12 (valid) 0xc7d-0xc7d.7 (1)
     |                                               |                |      [6]{}: local_time_type 0xc7e-0xc83.7 (6)
0xc70|                                          ff ff|              ..|        utoff: -7200 (valid) 0xc7e-0xc81.7 (4)
0xc80|e3 e0                                          |..              |
0xc80|      00                                       |  .             |        dst: 0 (valid) 0xc82-0xc82.7 (1)
0xc80|         0c                                    |   .            |        idx: 12 (valid) 0xc83-0xc83.7 (1)
     |                                               |                |      [7]{}: local_time_type 0xc84-0xc89.7 (6)
0xc80|            00 00 00 00                        |    ....        |        utoff: 0 (valid) 0xc84-0xc87.7 (4)
0xc80|                        01                     |        .       |        dst: 1 (valid) 0xc88-0xc88.7 (1)
0xc80|                           10                  |         .      |        idx: 16 (valid) 0xc89-0xc89.7 (1)
     |                                               |                |      [8]{}: local_time_type 0xc8a-0xc8f.7 (6)
0xc80|                              ff ff f1 f0      |          ....  |        utoff: -3600 (valid) 0xc8a-0xc8d.7 (4)
0xc80|                                          00   |              . |        dst: 0 (valid) 0xc8e-0xc8e.7 (1)
0xc80|                                             08|               .|        idx: 8 (valid) 0xc8f-0xc8f.7 (1)
     |                                               |                |      [9]{}: local_time_type 0xc90-0xc95.7 (6)
0xc90|ff ff f1 f0                                    |....            |        utoff: -3600 (valid) 0xc90-0xc93.7 (4)
0xc90|            00                                 |    .           |        dst: 0 (valid) 0xc94-0xc94.7 (1)
0xc90|               08                              |     .          |        idx: 8 (valid) 0xc95-0xc95.7 (1)
     |                                               |                |      [10]{}: local_time_type 0xc96-0xc9b.7 (6)
0xc90|                  00 00 00 00                  |      ....      |        utoff: 0 (valid) 0xc96-0xc99.7 (4)
0xc90|                              00               |          .     |        dst: 0 (valid) 0xc9a-0xc9a.7 (1)
0xc90|                                 14            |           .    |        idx: 20 (valid) 0xc9b-0xc9b.7 (1)
     |                                               |                |      [11]{}: local_time_type 0xc9c-0xca1.7 (6)
0xc90|                                    00 00 00 00|            ....|        utoff: 0 (valid) 0xc9c-0xc9f.7 (4)
0xca0|01                                             |.               |        dst: 1 (valid) 0xca0-0xca0.7 (1)
0xca0|   10                                          | .              |        idx: 16 (valid) 0xca1-0xca1.7 (1)
     |                                               |                |      [12]{}: local_time_type 0xca2-0xca7.7 (6)
0xca0|      ff ff f1 f0                              |  ....          |        utoff: -3600 (valid) 0xca2-0xca5.7 (4)
0xca0|                  00                           |      .         |        dst: 0 (valid) 0xca6-0xca6.7 (1)
0xca0|                     08                        |       .        |        idx: 8 (valid) 0xca7-0xca7.7 (1)
     |                                               |                |    time_zone_designations[0:6]: 0xca8-0xcbf.7 (24)
0xca0|                        4c 4d 54 00            |        LMT.    |      [0]: "LMT" time_zone_designation 0xca8-0xcab.7 (4)
0xca0|                                    48 4d 54 00|            HMT.|      [1]: "HMT" time_zone_designation 0xcac-0xcaf.7 (4)
0xcb0|2d 30 31 00                                    |-01.            |      [2]: "-01" time_zone_designation 0xcb0-0xcb3.7 (4)
0xcb0|            2d 30 32 00                        |    -02.        |      [3]: "-02" time_zone_designation 0xcb4-0xcb7.7 (4)
0xcb0|                        2b 30 30 00            |        +00.    |      [4]: "+00" time_zone_designation 0xcb8-0xcbb.7 (4)
0xcb0|                                    57 45 54 00|            WET.|      [5]: "WET" time_zone_designation 0xcbc-0xcbf.7 (4)
     |                                               |                |    leap_second_records[0:27]: 0xcc0-0xe03.7 (324)
     |                                               |                |      [0]{}: leap_second_record 0xcc0-0xccb.7 (12)
0xcc0|00 00 00 00 04 b2 58 00                        |......X.        |        occur: "1972-07-01T00:00:00Z" (78796800) 0xcc0-0xcc7.7 (8)
0xcc0|                        00 00 00 01            |        ....    |        corr: 1 0xcc8-0xccb.7 (4)
     |                                               |                |      [1]{}: leap_second_record 0xccc-0xcd7.7 (12)
0xcc0|                                    00 00 00 00|            ....|        occur: "1973-01-01T00:00:01Z" (94694401) 0xccc-0xcd3.7 (8)
0xcd0|05 a4 ec 01                                    |....            |
0xcd0|            00 00 00 02                        |    ....        |        corr: 2 0xcd4-0xcd7.7 (4)
     |                                               |                |      [2]{}: leap_second_record 0xcd8-0xce3.7 (12)
0xcd0|                        00 00 00 00 07 86 1f 82|        ........|        occur: "1974-01-01T00:00:02Z" (126230402) 0xcd8-0xcdf.7 (8)
0xce0|00 00 00 03                                    |....            |        corr: 3 0xce0-0xce3.7 (4)
     |                                               |                |      [3]{}: leap_second_record 0xce4-0xcef.7 (12)
0xce0|            00 00 00 00 09 67 53 03            |    .....gS.    |        occur: "1975-01-01T00:00:03Z" (157766403) 0xce4-0xceb.7 (8)
0xce0|                                    00 00 00 04|            ....|        corr: 4 0xcec-0xcef.7 (4)
     |                                               |                |      [4]{}: leap_second_record 0xcf0-0xcfb.7 (12)
0xcf0|00 00 00 00 0b 48 86 84                        |.....H..        |        occur: "1976-01-01T00:00:04Z" (189302404) 0xcf0-0xcf7.7 (8)
0xcf0|                        00 00 00 05            |        ....    |        corr: 5 0xcf8-0xcfb.7 (4)
     |                                               |                |      [5]{}: leap_second_record 0xcfc-0xd07.7 (12)
0xcf0|                                    00 00 00 00|            ....|        occur: "1977-01-01T00:00:05Z" (220924805) 0xcfc-0xd03.7 (8)
0xd00|0d 2b 0b 85                                    |.+..            |
0xd00|            00 00 00 06                        |    ....        |        corr: 6 0xd04-0xd07.7 (4)
     |                                               |                |      [6]{}: leap_second_record 0xd08-0xd13.7 (12)
0xd00|                        00 00 00 00 0f 0c 3f 06|        ......?.|        occur: "1978-01-01T00:00:06Z" (252460806) 0xd08-0xd0f.7 (8)
0xd10|00 00 00 07                                    |....            |        corr: 7 0xd10-0xd13.7 (4)
     |                                               |                |      [7]{}: leap_second_record 0xd14-0xd1f.7 (12)
0xd10|            00 00 00 00 10 ed 72 87            |    ......r.    |        occur: "1979-01-01T00:00:07Z" (283996807) 0xd14-0xd1b.7 (8)
0xd10|                                    00 00 00 08|            ....|        corr: 8 0xd1c-0xd1f.7 (4)
     |                                               |                |      [8]{}: leap_second_record 0xd20-0xd2b.7 (12)
0xd20|00 00 00 00 12 ce a6 08                        |........        |        occur: "1980-01-01T00:00:08Z" (315532808) 0xd20-0xd27.7 (8)
0xd20|                        00 00 00 09            |        ....    |        corr: 9 0xd28-0xd2b.7 (4)
     |                                               |                |      [9]{}: leap_second_record 0xd2c-0xd37.7 (12)
0xd20|                                    00 00 00 00|            ....|        occur: "1981-07-01T00:00:09Z" (362793609) 0xd2c-0xd33.7 (8)
0xd30|15 9f ca 89                                    |....            |
0xd30|            00 00 00 0a                        |    ....        |        corr: 10 0xd34-0xd37.7 (4)
     |                                               |                |      [10]{}: leap_second_record 0xd38-0xd43.7 (12)
0xd30|                        00 00 00 00 17 80 fe 0a|        ........|        occur: "1982-07-01T00:00:10Z" (394329610) 0xd38-0xd3f.7 (8)
0xd40|00 00 00 0b                                    |....            |        corr: 11 0xd40-0xd43.7 (4)
     |                                               |                |      [11]{}: leap_second_record 0xd44-0xd4f.7 (12)
0xd40|            00 00 00 00 19 62 31 8b            |    .....b1.    |        occur: "1983-07-01T00:00:11Z" (425865611) 0xd44-0xd4b.7 (8)
0xd40|                                    00 00 00 0c|            ....|        corr: 12 0xd4c-0xd4f.7 (4)
     |                                               |                |      [12]{}: leap_second_record 0xd50-0xd5b.7 (12)
0xd50|00 00 00 00 1d 25 ea 0c                        |.....%..        |        occur: "1985-07-01T00:00:12Z" (489024012) 0xd50-0xd57.7 (8)
0xd50|                        00 00 00 0d            |        ....    |        corr: 13 0xd58-0xd5b.7 (4)
     |                                               |                |      [13]{}: leap_second_record 0xd5c-0xd67.7 (12)
0xd50|                                    00 00 00 00|            ....|        occur: "1988-01-01T00:00:13Z" (567993613) 0xd5c-0xd63.7 (8)
0xd60|21 da e5 0d                                    |!...            |
0xd60|            00 00 00 0e                        |    ....        |        corr: 14 0xd64-0xd67.7 (4)
     |                                               |                |      [14]{}: leap_second_record 0xd68-0xd73.7 (12)
0xd60|                        00 00 00 00 25 9e 9d 8e|        ....%...|        occur: "1990-01-01T00:00:14Z" (631152014) 0xd68-0xd6f.7 (8)
0xd70|00 00 00 0f                                    |....            |        corr: 15 0xd70-0xd73.7 (4)
     |                                               |                |      [15]{}: leap_second_record 0xd74-0xd7f.7 (12)
0xd70|            00 00 00 00 27 7f d1 0f            |    ....'...    |        occur: "1991-01-01T00:00:15Z" (662688015) 0xd74-0xd7b.7 (8)
0xd70|                                    00 00 00 10|            ....|        corr: 16 0xd7c-0xd7f.7 (4)
     |                                               |                |      [16]{}: leap_second_record 0xd80-0xd8b.7 (12)
0xd80|00 00 00 00 2a 50 f5 90                        |....*P..        |        occur: "1992-07-01T00:00:16Z" (709948816) 0xd80-0xd87.7 (8)
0xd80|                        00 00 00 11            |        ....    |        corr: 17 0xd88-0xd8b.7 (4)
     |                                               |                |      [17]{}: leap_second_record 0xd8c-0xd97.7 (12)
0xd80|                                    00 00 00 00|            ....|        occur: "1993-07-01T00:00:17Z" (741484817) 0xd8c-0xd93.7 (8)
0xd90|2c 32 29 11                                    |,2).            |
0xd90|            00 00 00 12                        |    ....        |        corr: 18 0xd94-0xd97.7 (4)
     |                                               |                |      [18]{}: leap_second_record 0xd98-0xda3.7 (12)
0xd90|                        00 00 00 00 2e 13 5c 92|        ......\.|        occur: "1994-07-01T00:00:18Z" (773020818) 0xd98-0xd9f.7 (8)
0xda0|00 00 00 13                                    |....            |        corr: 19 0xda0-0xda3.7 (4)
     |                                               |                |      [19]{}: leap_second_record 0xda4-0xdaf.7 (12)
0xda0|            00 00 00 00 30 e7 24 13            |    ....0.$.    |        occur: "1996-01-01T00:00:19Z" (820454419) 0xda4-0xdab.7 (8)
0xda0|                                    00 00 00 14|            ....|        corr: 20 0xdac-0xdaf.7 (4)
     |                                               |                |      [20]{}: leap_second_record 0xdb0-0xdbb.7 (12)
0xdb0|00 00 00 00 33 b8 48 94                        |....3.H.        |        occur: "1997-07-01T00:00:20Z" (867715220) 0xdb0-0xdb7.7 (8)
0xdb0|                        00 00 00 15            |        ....    |        corr: 21 0xdb8-0xdbb.7 (4)
     |                                               |                |      [21]{}: leap_second_record 0xdbc-0xdc7.7 (12)
0xdb0|                                    00 00 00 00|            ....|        occur: "1999-01-01T00:00:21Z" (915148821) 0xdbc-0xdc3.7 (8)
0xdc0|36 8c 10 15                                    |6...            |
0xdc0|            00 00 00 16                        |    ....        |        corr: 22 0xdc4-0xdc7.7 (4)
     |                                               |                |      [22]{}: leap_second_record 0xdc8-0xdd3.7 (12)
0xdc0|                        00 00 00 00 43 b7 1b 96|        ....C...|        occur: "2006-01-01T00:00:22Z" (1136073622) 0xdc8-0xdcf.7 (8)
0xdd0|00 00 00 17                                    |....            |        corr: 23 0xdd0-0xdd3.7 (4)
     |                                               |                |      [23]{}: leap_second_record 0xdd4-0xddf.7 (12)
0xdd0|            00 00 00 00 49 5c 07 97            |    ....I\..    |        occur: "2009-01-01T00:00:23Z" (1230768023) 0xdd4-0xddb.7 (8)
0xdd0|                                    00 00 00 18|            ....|        corr: 24 0xddc-0xddf.7 (4)
     |                                               |                |      [24]{}: leap_second_record 0xde0-0xdeb.7 (12)
0xde0|00 00 00 00 4f ef 93 18                        |....O...        |        occur: "2012-07-01T00:00:24Z" (1341100824) 0xde0-0xde7.7 (8)
0xde0|                        00 00 00 19            |        ....    |        corr: 25 0xde8-0xdeb.7 (4)
     |                                               |                |      [25]{}: leap_second_record 0xdec-0xdf7.7 (12)
0xde0|                                    00 00 00 00|            ....|        occur: "2015-07-01T00:00:25Z" (1435708825) 0xdec-0xdf3.7 (8)
0xdf0|55 93 2d 99                                    |U.-.            |
0xdf0|            00 00 00 1a                        |    ....        |        corr: 26 0xdf4-0xdf7.7 (4)
     |                                               |                |      [26]{}: leap_second_record 0xdf8-0xe03.7 (12)
0xdf0|                        00 00 00 00 58 68 46 9a|        ....XhF.|        occur: "2017-01-01T00:00:26Z" (1483228826) 0xdf8-0xdff.7 (8)
0xe00|00 00 00 1b                                    |....            |        corr: 27 0xe00-0xe03.7 (4)
     |                                               |                |    standard_wall_indicators[0:13]: 0xe04-0xe10.7 (13)
0xe00|            00                                 |    .           |      [0]: 0 standard_wall_indicator (valid) 0xe04-0xe04.7 (1)
0xe00|               00                              |     .          |      [1]: 0 standard_wall_indicator (valid) 0xe05-0xe05.7 (1)
0xe00|                  00                           |      .         |      [2]: 0 standard_wall_indicator (valid) 0xe06-0xe06.7 (1)
0xe00|                     00                        |       .        |      [3]: 0 standard_wall_indicator (valid) 0xe07-0xe07.7 (1)
0xe00|                        01                     |        .       |      [4]: 1 standard_wall_indicator (valid) 0xe08-0xe08.7 (1)
0xe00|                           01                  |         .      |      [5]: 1 standard_wall_indicator (valid) 0xe09-0xe09.7 (1)
0xe00|                              01               |          .     |      [6]: 1 standard_wall_indicator (valid) 0xe0a-0xe0a.7 (1)
0xe00|                                 01            |           .    |      [7]: 1 standard_wall_indicator (valid) 0xe0b-0xe0b.7 (1)
0xe00|                                    01         |            .   |      [8]: 1 standard_wall_indicator (valid) 0xe0c-0xe0c.7 (1)
0xe00|                                       00      |             .  |      [9]: 0 standard_wall_indicator (valid) 0xe0d-0xe0d.7 (1)
0xe00|                                          01   |              . |      [10]: 1 standard_wall_indicator (valid) 0xe0e-0xe0e.7 (1)
0xe00|                                             01|               .|      [11]: 1 standard_wall_indicator (valid) 0xe0f-0xe0f.7 (1)
0xe10|01                                             |.               |      [12]: 1 standard_wall_indicator (valid) 0xe10-0xe10.7 (1)
     |                                               |                |    ut_local_indicators[0:13]: 0xe11-0xe1d.7 (13)
0xe10|   00                                          | .              |      [0]: 0 ut_local_indicator (valid) 0xe11-0xe11.7 (1)
0xe10|      00                                       |  .             |      [1]: 0 ut_local_indicator (valid) 0xe12-0xe12.7 (1)
0xe10|         00                                    |   .            |      [2]: 0 ut_local_indicator (valid) 0xe13-0xe13.7 (1)
0xe10|            00                                 |    .           |      [3]: 0 ut_local_indicator (valid) 0xe14-0xe14.7 (1)
0xe10|               00                              |     .          |      [4]: 0 ut_local_indicator (valid) 0xe15-0xe15.7 (1)
0xe10|                  00                           |      .         |      [5]: 0 ut_local_indicator (valid) 0xe16-0xe16.7 (1)
0xe10|                     01                        |       .        |      [6]: 1 ut_local_indicator (valid) 0xe17-0xe17.7 (1)
0xe10|                        00                     |        .       |      [7]: 0 ut_local_indicator (valid) 0xe18-0xe18.7 (1)
0xe10|                           00                  |         .      |      [8]: 0 ut_local_indicator (valid) 0xe19-0xe19.7 (1)
0xe10|                              00               |          .     |      [9]: 0 ut_local_indicator (valid) 0xe1a-0xe1a.7 (1)
0xe10|                                 00            |           .    |      [10]: 0 ut_local_indicator (valid) 0xe1b-0xe1b.7 (1)
0xe10|                                    01         |            .   |      [11]: 1 ut_local_indicator (valid) 0xe1c-0xe1c.7 (1)
0xe10|                                       01      |             .  |      [12]: 1 ut_local_indicator (valid) 0xe1d-0xe1d.7 (1)
     |                                               |                |  footer{}: 0xe1e-0xe1f.7 (2)
0xe10|                                          0a   |              . |    nl1: 10 (valid) 0xe1e-0xe1e.7 (1)
     |                                               |                |    tz_string: "" 0xe1f-NA (0)
0xe10|                                             0a|               .|    nl2: 10 (valid) 0xe1f-0xe1f.7 (1)
