$ fq -d tzif dv Baghdad
     |00 01 02 03 04 05 06 07 08 09 0a 0b 0c 0d 0e 0f|0123456789abcdef|.{}: Baghdad (tzif) 0x0-0x5ec (1516)
     |                                               |                |  v1header{}: 0x0-0x2c (44)
0x000|54 5a 69 66                                    |TZif            |    magic: 0x545a6966 (valid) 0x0-0x4 (4)
0x000|            32                                 |    2           |    ver: "2" (0x32) (valid) 0x4-0x5 (1)
0x000|               00 00 00 00 00 00 00 00 00 00 00|     ...........|    reserved: raw bits 0x5-0x14 (15)
0x010|00 00 00 00                                    |....            |
0x010|            00 00 00 00                        |    ....        |    isutcnt: 0 0x14-0x18 (4)
0x010|                        00 00 00 06            |        ....    |    isstdcnt: 6 0x18-0x1c (4)
0x010|                                    00 00 00 1b|            ....|    leapcnt: 27 0x1c-0x20 (4)
0x020|00 00 00 37                                    |...7            |    timecnt: 55 0x20-0x24 (4)
0x020|            00 00 00 06                        |    ....        |    typecnt: 6 0x24-0x28 (4)
0x020|                        00 00 00 10            |        ....    |    charcnt: 16 0x28-0x2c (4)
     |                                               |                |  v1datablock{}: 0x2c-0x251 (549)
     |                                               |                |    transition_times[0:55]: 0x2c-0x108 (220)
0x020|                                    80 00 00 00|            ....|      [0]: "1901-12-13T20:45:52Z" (-2147483648) transition_time 0x2c-0x30 (4)
0x030|9e 30 3c e0                                    |.0<.            |      [1]: "1917-12-31T21:02:24Z" (-1641005856) transition_time 0x30-0x34 (4)
0x030|            17 30 68 5a                        |    .0hZ        |      [2]: "1982-04-30T21:00:10Z" (389048410) transition_time 0x34-0x38 (4)
0x030|                        17 fa 0f cb            |        ....    |      [3]: "1982-09-30T20:00:11Z" (402264011) transition_time 0x38-0x3c (4)
0x030|                                    18 e8 bd 5b|            ...[|      [4]: "1983-03-30T21:00:11Z" (417906011) transition_time 0x3c-0x40 (4)
0x040|19 db 43 4c                                    |..CL            |      [5]: "1983-09-30T20:00:12Z" (433800012) transition_time 0x40-0x44 (4)
0x040|            1a cc 93 dc                        |    ....        |      [6]: "1984-03-31T21:00:12Z" (449614812) transition_time 0x44-0x48 (4)
0x040|                        1b bd c8 4c            |        ...L    |      [7]: "1984-09-30T20:00:12Z" (465422412) transition_time 0x48-0x4c (4)
0x040|                                    1c ad c7 5c|            ...\|      [8]: "1985-03-31T21:00:12Z" (481150812) transition_time 0x4c-0x50 (4)
0x050|1d 9c 74 ed                                    |..t.            |      [9]: "1985-09-28T22:00:13Z" (496792813) transition_time 0x50-0x54 (4)
0x050|            1e 8c 65 ed                        |    ..e.        |      [10]: "1986-03-29T22:00:13Z" (512517613) transition_time 0x54-0x58 (4)
0x050|                        1f 7c 56 ed            |        .|V.    |      [11]: "1986-09-27T22:00:13Z" (528242413) transition_time 0x58-0x5c (4)
0x050|                                    20 6c 47 ed|             lG.|      [12]: "1987-03-28T22:00:13Z" (543967213) transition_time 0x5c-0x60 (4)
0x060|21 5c 38 ed                                    |!\8.            |      [13]: "1987-09-26T22:00:13Z" (559692013) transition_time 0x60-0x64 (4)
0x060|            22 4c 29 ee                        |    "L).        |      [14]: "1988-03-26T22:00:14Z" (575416814) transition_time 0x64-0x68 (4)
0x060|                        23 3c 1a ee            |        #<..    |      [15]: "1988-09-24T22:00:14Z" (591141614) transition_time 0x68-0x6c (4)
0x060|                                    24 2c 0b ee|            $,..|      [16]: "1989-03-25T22:00:14Z" (606866414) transition_time 0x6c-0x70 (4)
0x070|25 1b fc ee                                    |%...            |      [17]: "1989-09-23T22:00:14Z" (622591214) transition_time 0x70-0x74 (4)
0x070|            26 0b ed ef                        |    &...        |      [18]: "1990-03-24T22:00:15Z" (638316015) transition_time 0x74-0x78 (4)
0x070|                        27 05 19 6f            |        '..o    |      [19]: "1990-09-29T22:00:15Z" (654645615) transition_time 0x78-0x7c (4)
0x070|                                    27 f6 78 10|            '.x.|      [20]: "1991-04-01T00:00:16Z" (670464016) transition_time 0x7c-0x80 (4)
0x080|28 e7 ba 90                                    |(...            |      [21]: "1991-10-01T00:00:16Z" (686275216) transition_time 0x80-0x84 (4)
0x080|            29 d8 fd 10                        |    )...        |      [22]: "1992-04-01T00:00:16Z" (702086416) transition_time 0x84-0x88 (4)
0x080|                        2a ca 3f 91            |        *.?.    |      [23]: "1992-10-01T00:00:17Z" (717897617) transition_time 0x88-0x8c (4)
0x080|                                    2b ba 30 91|            +.0.|      [24]: "1993-04-01T00:00:17Z" (733622417) transition_time 0x8c-0x90 (4)
0x090|2c ab 73 12                                    |,.s.            |      [25]: "1993-10-01T00:00:18Z" (749433618) transition_time 0x90-0x94 (4)
0x090|            2d 9b 64 12                        |    -.d.        |      [26]: "1994-04-01T00:00:18Z" (765158418) transition_time 0x94-0x98 (4)
0x090|                        2e 8c a6 93            |        ....    |      [27]: "1994-10-01T00:00:19Z" (780969619) transition_time 0x98-0x9c (4)
0x090|                                    2f 7c 97 93|            /|..|      [28]: "1995-04-01T00:00:19Z" (796694419) transition_time 0x9c-0xa0 (4)
0x0a0|30 6d da 13                                    |0m..            |      [29]: "1995-10-01T00:00:19Z" (812505619) transition_time 0xa0-0xa4 (4)
0x0a0|            31 5f 1c 94                        |    1_..        |      [30]: "1996-04-01T00:00:20Z" (828316820) transition_time 0xa4-0xa8 (4)
0x0a0|                        32 50 5f 14            |        2P_.    |      [31]: "1996-10-01T00:00:20Z" (844128020) transition_time 0xa8-0xac (4)
0x0a0|                                    33 40 50 14|            3@P.|      [32]: "1997-04-01T00:00:20Z" (859852820) transition_time 0xac-0xb0 (4)
0x0b0|34 31 92 95                                    |41..            |      [33]: "1997-10-01T00:00:21Z" (875664021) transition_time 0xb0-0xb4 (4)
0x0b0|            35 21 83 95                        |    5!..        |      [34]: "1998-04-01T00:00:21Z" (891388821) transition_time 0xb4-0xb8 (4)
0x0b0|                        36 12 c6 15            |        6...    |      [35]: "1998-10-01T00:00:21Z" (907200021) transition_time 0xb8-0xbc (4)
0x0b0|                                    37 02 b7 16|            7...|      [36]: "1999-04-01T00:00:22Z" (922924822) transition_time 0xbc-0xc0 (4)
0x0c0|37 f3 f9 96                                    |7...            |      [37]: "1999-10-01T00:00:22Z" (938736022) transition_time 0xc0-0xc4 (4)
0x0c0|            38 e5 3c 16                        |    8.<.        |      [38]: "2000-04-01T00:00:22Z" (954547222) transition_time 0xc4-0xc8 (4)
0x0c0|                        39 d6 7e 96            |        9.~.    |      [39]: "2000-10-01T00:00:22Z" (970358422) transition_time 0xc8-0xcc (4)
0x0c0|                                    3a c6 6f 96|            :.o.|      [40]: "2001-04-01T00:00:22Z" (986083222) transition_time 0xcc-0xd0 (4)
0x0d0|3b b7 b2 16                                    |;...            |      [41]: "2001-10-01T00:00:22Z" (1001894422) transition_time 0xd0-0xd4 (4)
0x0d0|            3c a7 a3 16                        |    <...        |      [42]: "2002-04-01T00:00:22Z" (1017619222) transition_time 0xd4-0xd8 (4)
0x0d0|                        3d 98 e5 96            |        =...    |      [43]: "2002-10-01T00:00:22Z" (1033430422) transition_time 0xd8-0xdc (4)
0x0d0|                                    3e 88 d6 96|            >...|      [44]: "2003-04-01T00:00:22Z" (1049155222) transition_time 0xdc-0xe0 (4)
0x0e0|3f 7a 19 16                                    |?z..            |      [45]: "2003-10-01T00:00:22Z" (1064966422) transition_time 0xe0-0xe4 (4)
0x0e0|            40 6b 5b 96                        |    @k[.        |      [46]: "2004-04-01T00:00:22Z" (1080777622) transition_time 0xe4-0xe8 (4)
0x0e0|                        41 5c 9e 16            |        A\..    |      [47]: "2004-10-01T00:00:22Z" (1096588822) transition_time 0xe8-0xec (4)
0x0e0|                                    42 4c 8f 16|            BL..|      [48]: "2005-04-01T00:00:22Z" (1112313622) transition_time 0xec-0xf0 (4)
0x0f0|43 3d d1 96                                    |C=..            |      [49]: "2005-10-01T00:00:22Z" (1128124822) transition_time 0xf0-0xf4 (4)
0x0f0|            44 2d c2 97                        |    D-..        |      [50]: "2006-04-01T00:00:23Z" (1143849623) transition_time 0xf4-0xf8 (4)
0x0f0|                        45 1f 05 17            |        E...    |      [51]: "2006-10-01T00:00:23Z" (1159660823) transition_time 0xf8-0xfc (4)
0x0f0|                                    46 0e f6 17|            F...|      [52]: "2007-04-01T00:00:23Z" (1175385623) transition_time 0xfc-0x100 (4)
0x100|47 00 38 97                                    |G.8.            |      [53]: "2007-10-01T00:00:23Z" (1191196823) transition_time 0x100-0x104 (4)
0x100|            64 9b 78 1b                        |    d.x.        |      [54]: "2023-06-28T00:00:27Z" (1687910427) transition_time 0x104-0x108 (4)
     |                                               |                |    transition_types[0:55]: 0x108-0x13f (55)
0x100|                        01                     |        .       |      [0]: 1 transition_type 0x108-0x109 (1)
0x100|                           02                  |         .      |      [1]: 2 transition_type 0x109-0x10a (1)
0x100|                              03               |          .     |      [2]: 3 transition_type 0x10a-0x10b (1)
0x100|                                 02            |           .    |      [3]: 2 transition_type 0x10b-0x10c (1)
0x100|                                    03         |            .   |      [4]: 3 transition_type 0x10c-0x10d (1)
0x100|                                       02      |             .  |      [5]: 2 transition_type 0x10d-0x10e (1)
0x100|                                          03   |              . |      [6]: 3 transition_type 0x10e-0x10f (1)
0x100|                                             02|               .|      [7]: 2 transition_type 0x10f-0x110 (1)
0x110|03                                             |.               |      [8]: 3 transition_type 0x110-0x111 (1)
0x110|   04                                          | .              |      [9]: 4 transition_type 0x111-0x112 (1)
0x110|      05                                       |  .             |      [10]: 5 transition_type 0x112-0x113 (1)
0x110|         04                                    |   .            |      [11]: 4 transition_type 0x113-0x114 (1)
0x110|            05                                 |    .           |      [12]: 5 transition_type 0x114-0x115 (1)
0x110|               04                              |     .          |      [13]: 4 transition_type 0x115-0x116 (1)
0x110|                  05                           |      .         |      [14]: 5 transition_type 0x116-0x117 (1)
0x110|                     04                        |       .        |      [15]: 4 transition_type 0x117-0x118 (1)
0x110|                        05                     |        .       |      [16]: 5 transition_type 0x118-0x119 (1)
0x110|                           04                  |         .      |      [17]: 4 transition_type 0x119-0x11a (1)
0x110|                              05               |          .     |      [18]: 5 transition_type 0x11a-0x11b (1)
0x110|                                 04            |           .    |      [19]: 4 transition_type 0x11b-0x11c (1)
0x110|                                    05         |            .   |      [20]: 5 transition_type 0x11c-0x11d (1)
0x110|                                       04      |             .  |      [21]: 4 transition_type 0x11d-0x11e (1)
0x110|                                          05   |              . |      [22]: 5 transition_type 0x11e-0x11f (1)
0x110|                                             04|               .|      [23]: 4 transition_type 0x11f-0x120 (1)
0x120|05                                             |.               |      [24]: 5 transition_type 0x120-0x121 (1)
0x120|   04                                          | .              |      [25]: 4 transition_type 0x121-0x122 (1)
0x120|      05                                       |  .             |      [26]: 5 transition_type 0x122-0x123 (1)
0x120|         04                                    |   .            |      [27]: 4 transition_type 0x123-0x124 (1)
0x120|            05                                 |    .           |      [28]: 5 transition_type 0x124-0x125 (1)
0x120|               04                              |     .          |      [29]: 4 transition_type 0x125-0x126 (1)
0x120|                  05                           |      .         |      [30]: 5 transition_type 0x126-0x127 (1)
0x120|                     04                        |       .        |      [31]: 4 transition_type 0x127-0x128 (1)
0x120|                        05                     |        .       |      [32]: 5 transition_type 0x128-0x129 (1)
0x120|                           04                  |         .      |      [33]: 4 transition_type 0x129-0x12a (1)
0x120|                              05               |          .     |      [34]: 5 transition_type 0x12a-0x12b (1)
0x120|                                 04            |           .    |      [35]: 4 transition_type 0x12b-0x12c (1)
0x120|                                    05         |            .   |      [36]: 5 transition_type 0x12c-0x12d (1)
0x120|                                       04      |             .  |      [37]: 4 transition_type 0x12d-0x12e (1)
0x120|                                          05   |              . |      [38]: 5 transition_type 0x12e-0x12f (1)
0x120|                                             04|               .|      [39]: 4 transition_type 0x12f-0x130 (1)
0x130|05                                             |.               |      [40]: 5 transition_type 0x130-0x131 (1)
0x130|   04                                          | .              |      [41]: 4 transition_type 0x131-0x132 (1)
0x130|      05                                       |  .             |      [42]: 5 transition_type 0x132-0x133 (1)
0x130|         04                                    |   .            |      [43]: 4 transition_type 0x133-0x134 (1)
0x130|            05                                 |    .           |      [44]: 5 transition_type 0x134-0x135 (1)
0x130|               04                              |     .          |      [45]: 4 transition_type 0x135-0x136 (1)
0x130|                  05                           |      .         |      [46]: 5 transition_type 0x136-0x137 (1)
0x130|                     04                        |       .        |      [47]: 4 transition_type 0x137-0x138 (1)
0x130|                        05                     |        .       |      [48]: 5 transition_type 0x138-0x139 (1)
0x130|                           04                  |         .      |      [49]: 4 transition_type 0x139-0x13a (1)
0x130|                              05               |          .     |      [50]: 5 transition_type 0x13a-0x13b (1)
0x130|                                 04            |           .    |      [51]: 4 transition_type 0x13b-0x13c (1)
0x130|                                    05         |            .   |      [52]: 5 transition_type 0x13c-0x13d (1)
0x130|                                       04      |             .  |      [53]: 4 transition_type 0x13d-0x13e (1)
0x130|                                          04   |              . |      [54]: 4 transition_type 0x13e-0x13f (1)
     |                                               |                |    local_time_type_records[0:6]: 0x13f-0x163 (36)
     |                                               |                |      [0]{}: local_time_type 0x13f-0x145 (6)
0x130|                                             00|               .|        utoff: 10660 (valid) 0x13f-0x143 (4)
0x140|00 29 a4                                       |.).             |
0x140|         00                                    |   .            |        dst: 0 (valid) 0x143-0x144 (1)
0x140|            00                                 |    .           |        idx: 0 (valid) 0x144-0x145 (1)
     |                                               |                |      [1]{}: local_time_type 0x145-0x14b (6)
0x140|               00 00 29 a0                     |     ..).       |        utoff: 10656 (valid) 0x145-0x149 (4)
0x140|                           00                  |         .      |        dst: 0 (valid) 0x149-0x14a (1)
0x140|                              04               |          .     |        idx: 4 (valid) 0x14a-0x14b (1)
     |                                               |                |      [2]{}: local_time_type 0x14b-0x151 (6)
0x140|                                 00 00 2a 30   |           ..*0 |        utoff: 10800 (valid) 0x14b-0x14f (4)
0x140|                                             00|               .|        dst: 0 (valid) 0x14f-0x150 (1)
0x150|08                                             |.               |        idx: 8 (valid) 0x150-0x151 (1)
     |                                               |                |      [3]{}: local_time_type 0x151-0x157 (6)
0x150|   00 00 38 40                                 | ..8@           |        utoff: 14400 (valid) 0x151-0x155 (4)
0x150|               01                              |     .          |        dst: 1 (valid) 0x155-0x156 (1)
0x150|                  0c                           |      .         |        idx: 12 (valid) 0x156-0x157 (1)
     |                                               |                |      [4]{}: local_time_type 0x157-0x15d (6)
0x150|                     00 00 2a 30               |       ..*0     |        utoff: 10800 (valid) 0x157-0x15b (4)
0x150|                                 00            |           .    |        dst: 0 (valid) 0x15b-0x15c (1)
0x150|                                    08         |            .   |        idx: 8 (valid) 0x15c-0x15d (1)
     |                                               |                |      [5]{}: local_time_type 0x15d-0x163 (6)
0x150|                                       00 00 38|             ..8|        utoff: 14400 (valid) 0x15d-0x161 (4)
0x160|40                                             |@               |
0x160|   01                                          | .              |        dst: 1 (valid) 0x161-0x162 (1)
0x160|      0c                                       |  .             |        idx: 12 (valid) 0x162-0x163 (1)
     |                                               |                |    time_zone_designations[0:4]: 0x163-0x173 (16)
0x160|         4c 4d 54 00                           |   LMT.         |      [0]: "LMT" time_zone_designation 0x163-0x167 (4)
0x160|                     42 4d 54 00               |       BMT.     |      [1]: "BMT" time_zone_designation 0x167-0x16b (4)
0x160|                                 2b 30 33 00   |           +03. |      [2]: "+03" time_zone_designation 0x16b-0x16f (4)
0x160|                                             2b|               +|      [3]: "+04" time_zone_designation 0x16f-0x173 (4)
0x170|30 34 00                                       |04.             |
     |                                               |                |    leap_second_records[0:27]: 0x173-0x24b (216)
     |                                               |                |      [0]{}: leap_second_record 0x173-0x17b (8)
0x170|         04 b2 58 00                           |   ..X.         |        occur: "1972-07-01T00:00:00Z" (78796800) 0x173-0x177 (4)
0x170|                     00 00 00 01               |       ....     |        corr: 1 0x177-0x17b (4)
     |                                               |                |      [1]{}: leap_second_record 0x17b-0x183 (8)
0x170|                                 05 a4 ec 01   |           .... |        occur: "1973-01-01T00:00:01Z" (94694401) 0x17b-0x17f (4)
0x170|                                             00|               .|        corr: 2 0x17f-0x183 (4)
0x180|00 00 02                                       |...             |
     |                                               |                |      [2]{}: leap_second_record 0x183-0x18b (8)
0x180|         07 86 1f 82                           |   ....         |        occur: "1974-01-01T00:00:02Z" (126230402) 0x183-0x187 (4)
0x180|                     00 00 00 03               |       ....     |        corr: 3 0x187-0x18b (4)
     |                                               |                |      [3]{}: leap_second_record 0x18b-0x193 (8)
0x180|                                 09 67 53 03   |           .gS. |        occur: "1975-01-01T00:00:03Z" (157766403) 0x18b-0x18f (4)
0x180|                                             00|               .|        corr: 4 0x18f-0x193 (4)
0x190|00 00 04                                       |...             |
     |                                               |                |      [4]{}: leap_second_record 0x193-0x19b (8)
0x190|         0b 48 86 84                           |   .H..         |        occur: "1976-01-01T00:00:04Z" (189302404) 0x193-0x197 (4)
0x190|                     00 00 00 05               |       ....     |        corr: 5 0x197-0x19b (4)
     |                                               |                |      [5]{}: leap_second_record 0x19b-0x1a3 (8)
0x190|                                 0d 2b 0b 85   |           .+.. |        occur: "1977-01-01T00:00:05Z" (220924805) 0x19b-0x19f (4)
0x190|                                             00|               .|        corr: 6 0x19f-0x1a3 (4)
0x1a0|00 00 06                                       |...             |
     |                                               |                |      [6]{}: leap_second_record 0x1a3-0x1ab (8)
0x1a0|         0f 0c 3f 06                           |   ..?.         |        occur: "1978-01-01T00:00:06Z" (252460806) 0x1a3-0x1a7 (4)
0x1a0|                     00 00 00 07               |       ....     |        corr: 7 0x1a7-0x1ab (4)
     |                                               |                |      [7]{}: leap_second_record 0x1ab-0x1b3 (8)
0x1a0|                                 10 ed 72 87   |           ..r. |        occur: "1979-01-01T00:00:07Z" (283996807) 0x1ab-0x1af (4)
0x1a0|                                             00|               .|        corr: 8 0x1af-0x1b3 (4)
0x1b0|00 00 08                                       |...             |
     |                                               |                |      [8]{}: leap_second_record 0x1b3-0x1bb (8)
0x1b0|         12 ce a6 08                           |   ....         |        occur: "1980-01-01T00:00:08Z" (315532808) 0x1b3-0x1b7 (4)
0x1b0|                     00 00 00 09               |       ....     |        corr: 9 0x1b7-0x1bb (4)
     |                                               |                |      [9]{}: leap_second_record 0x1bb-0x1c3 (8)
0x1b0|                                 15 9f ca 89   |           .... |        occur: "1981-07-01T00:00:09Z" (362793609) 0x1bb-0x1bf (4)
0x1b0|                                             00|               .|        corr: 10 0x1bf-0x1c3 (4)
0x1c0|00 00 0a                                       |...             |
     |                                               |                |      [10]{}: leap_second_record 0x1c3-0x1cb (8)
0x1c0|         17 80 fe 0a                           |   ....         |        occur: "1982-07-01T00:00:10Z" (394329610) 0x1c3-0x1c7 (4)
0x1c0|                     00 00 00 0b               |       ....     |        corr: 11 0x1c7-0x1cb (4)
     |                                               |                |      [11]{}: leap_second_record 0x1cb-0x1d3 (8)
0x1c0|                                 19 62 31 8b   |           .b1. |        occur: "1983-07-01T00:00:11Z" (425865611) 0x1cb-0x1cf (4)
0x1c0|                                             00|               .|        corr: 12 0x1cf-0x1d3 (4)
0x1d0|00 00 0c                                       |...             |
     |                                               |                |      [12]{}: leap_second_record 0x1d3-0x1db (8)
0x1d0|         1d 25 ea 0c                           |   .%..         |        occur: "1985-07-01T00:00:12Z" (489024012) 0x1d3-0x1d7 (4)
0x1d0|                     00 00 00 0d               |       ....     |        corr: 13 0x1d7-0x1db (4)
     |                                               |                |      [13]{}: leap_second_record 0x1db-0x1e3 (8)
0x1d0|                                 21 da e5 0d   |           !... |        occur: "1988-01-01T00:00:13Z" (567993613) 0x1db-0x1df (4)
0x1d0|                                             00|               .|        corr: 14 0x1df-0x1e3 (4)
0x1e0|00 00 0e                                       |...             |
     |                                               |                |      [14]{}: leap_second_record 0x1e3-0x1eb (8)
0x1e0|         25 9e 9d 8e                           |   %...         |        occur: "1990-01-01T00:00:14Z" (631152014) 0x1e3-0x1e7 (4)
0x1e0|                     00 00 00 0f               |       ....     |        corr: 15 0x1e7-0x1eb (4)
     |                                               |                |      [15]{}: leap_second_record 0x1eb-0x1f3 (8)
0x1e0|                                 27 7f d1 0f   |           '... |        occur: "1991-01-01T00:00:15Z" (662688015) 0x1eb-0x1ef (4)
0x1e0|                                             00|               .|        corr: 16 0x1ef-0x1f3 (4)
0x1f0|00 00 10                                       |...             |
     |                                               |                |      [16]{}: leap_second_record 0x1f3-0x1fb (8)
0x1f0|         2a 50 f5 90                           |   *P..         |        occur: "1992-07-01T00:00:16Z" (709948816) 0x1f3-0x1f7 (4)
0x1f0|                     00 00 00 11               |       ....     |        corr: 17 0x1f7-0x1fb (4)
     |                                               |                |      [17]{}: leap_second_record 0x1fb-0x203 (8)
0x1f0|                                 2c 32 29 11   |           ,2). |        occur: "1993-07-01T00:00:17Z" (741484817) 0x1fb-0x1ff (4)
0x1f0|                                             00|               .|        corr: 18 0x1ff-0x203 (4)
0x200|00 00 12                                       |...             |
     |                                               |                |      [18]{}: leap_second_record 0x203-0x20b (8)
0x200|         2e 13 5c 92                           |   ..\.         |        occur: "1994-07-01T00:00:18Z" (773020818) 0x203-0x207 (4)
0x200|                     00 00 00 13               |       ....     |        corr: 19 0x207-0x20b (4)
     |                                               |                |      [19]{}: leap_second_record 0x20b-0x213 (8)
0x200|                                 30 e7 24 13   |           0.$. |        occur: "1996-01-01T00:00:19Z" (820454419) 0x20b-0x20f (4)
0x200|                                             00|               .|        corr: 20 0x20f-0x213 (4)
0x210|00 00 14                                       |...             |
     |                                               |                |      [20]{}: leap_second_record 0x213-0x21b (8)
0x210|         33 b8 48 94                           |   3.H.         |        occur: "1997-07-01T00:00:20Z" (867715220) 0x213-0x217 (4)
0x210|                     00 00 00 15               |       ....     |        corr: 21 0x217-0x21b (4)
     |                                               |                |      [21]{}: leap_second_record 0x21b-0x223 (8)
0x210|                                 36 8c 10 15   |           6... |        occur: "1999-01-01T00:00:21Z" (915148821) 0x21b-0x21f (4)
0x210|                                             00|               .|        corr: 22 0x21f-0x223 (4)
0x220|00 00 16                                       |...             |
     |                                               |                |      [22]{}: leap_second_record 0x223-0x22b (8)
0x220|         43 b7 1b 96                           |   C...         |        occur: "2006-01-01T00:00:22Z" (1136073622) 0x223-0x227 (4)
0x220|                     00 00 00 17               |       ....     |        corr: 23 0x227-0x22b (4)
     |                                               |                |      [23]{}: leap_second_record 0x22b-0x233 (8)
0x220|                                 49 5c 07 97   |           I\.. |        occur: "2009-01-01T00:00:23Z" (1230768023) 0x22b-0x22f (4)
0x220|                                             00|               .|        corr: 24 0x22f-0x233 (4)
0x230|00 00 18                                       |...             |
     |                                               |                |      [24]{}: leap_second_record 0x233-0x23b (8)
0x230|         4f ef 93 18                           |   O...         |        occur: "2012-07-01T00:00:24Z" (1341100824) 0x233-0x237 (4)
0x230|                     00 00 00 19               |       ....     |        corr: 25 0x237-0x23b (4)
     |                                               |                |      [25]{}: leap_second_record 0x23b-0x243 (8)
0x230|                                 55 93 2d 99   |           U.-. |        occur: "2015-07-01T00:00:25Z" (1435708825) 0x23b-0x23f (4)
0x230|                                             00|               .|        corr: 26 0x23f-0x243 (4)
0x240|00 00 1a                                       |...             |
     |                                               |                |      [26]{}: leap_second_record 0x243-0x24b (8)
0x240|         58 68 46 9a                           |   XhF.         |        occur: "2017-01-01T00:00:26Z" (1483228826) 0x243-0x247 (4)
0x240|                     00 00 00 1b               |       ....     |        corr: 27 0x247-0x24b (4)
     |                                               |                |    standard_wall_indicators[0:6]: 0x24b-0x251 (6)
0x240|                                 00            |           .    |      [0]: 0 standard_wall_indicator (valid) 0x24b-0x24c (1)
0x240|                                    00         |            .   |      [1]: 0 standard_wall_indicator (valid) 0x24c-0x24d (1)
0x240|                                       00      |             .  |      [2]: 0 standard_wall_indicator (valid) 0x24d-0x24e (1)
0x240|                                          00   |              . |      [3]: 0 standard_wall_indicator (valid) 0x24e-0x24f (1)
0x240|                                             01|               .|      [4]: 1 standard_wall_indicator (valid) 0x24f-0x250 (1)
0x250|01                                             |.               |      [5]: 1 standard_wall_indicator (valid) 0x250-0x251 (1)
     |                                               |                |    ut_local_indicators[0:0]: 0x251-0x251 (0)
     |                                               |                |  v2plusheader{}: 0x251-0x27d (44)
0x250|   54 5a 69 66                                 | TZif           |    magic: 0x545a6966 (valid) 0x251-0x255 (4)
0x250|               32                              |     2          |    ver: "2" (0x32) (valid) 0x255-0x256 (1)
0x250|                  00 00 00 00 00 00 00 00 00 00|      ..........|    reserved: raw bits 0x256-0x265 (15)
0x260|00 00 00 00 00                                 |.....           |
0x260|               00 00 00 00                     |     ....       |    isutcnt: 0 0x265-0x269 (4)
0x260|                           00 00 00 06         |         ....   |    isstdcnt: 6 0x269-0x26d (4)
0x260|                                       00 00 00|             ...|    leapcnt: 27 0x26d-0x271 (4)
0x270|1b                                             |.               |
0x270|   00 00 00 37                                 | ...7           |    timecnt: 55 0x271-0x275 (4)
0x270|               00 00 00 06                     |     ....       |    typecnt: 6 0x275-0x279 (4)
0x270|                           00 00 00 10         |         ....   |    charcnt: 16 0x279-0x27d (4)
     |                                               |                |  v2plusdatablock{}: 0x27d-0x5ea (877)
     |                                               |                |    transition_times[0:55]: 0x27d-0x435 (440)
0x270|                                       ff ff ff|             ...|      [0]: "1889-12-31T21:02:20Z" (-2524532260) transition_time 0x27d-0x285 (8)
0x280|ff 69 86 b1 dc                                 |.i...           |
0x280|               ff ff ff ff 9e 30 3c e0         |     .....0<.   |      [1]: "1917-12-31T21:02:24Z" (-1641005856) transition_time 0x285-0x28d (8)
0x280|                                       00 00 00|             ...|      [2]: "1982-04-30T21:00:10Z" (389048410) transition_time 0x28d-0x295 (8)
0x290|00 17 30 68 5a                                 |..0hZ           |
0x290|               00 00 00 00 17 fa 0f cb         |     ........   |      [3]: "1982-09-30T20:00:11Z" (402264011) transition_time 0x295-0x29d (8)
0x290|                                       00 00 00|             ...|      [4]: "1983-03-30T21:00:11Z" (417906011) transition_time 0x29d-0x2a5 (8)
0x2a0|00 18 e8 bd 5b                                 |....[           |
0x2a0|               00 00 00 00 19 db 43 4c         |     ......CL   |      [5]: "1983-09-30T20:00:12Z" (433800012) transition_time 0x2a5-0x2ad (8)
0x2a0|                                       00 00 00|             ...|      [6]: "1984-03-31T21:00:12Z" (449614812) transition_time 0x2ad-0x2b5 (8)
0x2b0|00 1a cc 93 dc                                 |.....           |
0x2b0|               00 00 00 00 1b bd c8 4c         |     .......L   |      [7]: "1984-09-30T20:00:12Z" (465422412) transition_time 0x2b5-0x2bd (8)
0x2b0|                                       00 00 00|             ...|      [8]: "1985-03-31T21:00:12Z" (481150812) transition_time 0x2bd-0x2c5 (8)
0x2c0|00 1c ad c7 5c                                 |....\           |
0x2c0|               00 00 00 00 1d 9c 74 ed         |     ......t.   |      [9]: "1985-09-28T22:00:13Z" (496792813) transition_time 0x2c5-0x2cd (8)
0x2c0|                                       00 00 00|             ...|      [10]: "1986-03-29T22:00:13Z" (512517613) transition_time 0x2cd-0x2d5 (8)
0x2d0|00 1e 8c 65 ed                                 |...e.           |
0x2d0|               00 00 00 00 1f 7c 56 ed         |     .....|V.   |      [11]: "1986-09-27T22:00:13Z" (528242413) transition_time 0x2d5-0x2dd (8)
0x2d0|                                       00 00 00|             ...|      [12]: "1987-03-28T22:00:13Z" (543967213) transition_time 0x2dd-0x2e5 (8)
0x2e0|00 20 6c 47 ed                                 |. lG.           |
0x2e0|               00 00 00 00 21 5c 38 ed         |     ....!\8.   |      [13]: "1987-09-26T22:00:13Z" (559692013) transition_time 0x2e5-0x2ed (8)
0x2e0|                                       00 00 00|             ...|      [14]: "1988-03-26T22:00:14Z" (575416814) transition_time 0x2ed-0x2f5 (8)
0x2f0|00 22 4c 29 ee                                 |."L).           |
0x2f0|               00 00 00 00 23 3c 1a ee         |     ....#<..   |      [15]: "1988-09-24T22:00:14Z" (591141614) transition_time 0x2f5-0x2fd (8)
0x2f0|                                       00 00 00|             ...|      [16]: "1989-03-25T22:00:14Z" (606866414) transition_time 0x2fd-0x305 (8)
0x300|00 24 2c 0b ee                                 |.$,..           |
0x300|               00 00 00 00 25 1b fc ee         |     ....%...   |      [17]: "1989-09-23T22:00:14Z" (622591214) transition_time 0x305-0x30d (8)
0x300|                                       00 00 00|             ...|      [18]: "1990-03-24T22:00:15Z" (638316015) transition_time 0x30d-0x315 (8)
0x310|00 26 0b ed ef                                 |.&...           |
0x310|               00 00 00 00 27 05 19 6f         |     ....'..o   |      [19]: "1990-09-29T22:00:15Z" (654645615) transition_time 0x315-0x31d (8)
0x310|                                       00 00 00|             ...|      [20]: "1991-04-01T00:00:16Z" (670464016) transition_time 0x31d-0x325 (8)
0x320|00 27 f6 78 10                                 |.'.x.           |
0x320|               00 00 00 00 28 e7 ba 90         |     ....(...   |      [21]: "1991-10-01T00:00:16Z" (686275216) transition_time 0x325-0x32d (8)
0x320|                                       00 00 00|             ...|      [22]: "1992-04-01T00:00:16Z" (702086416) transition_time 0x32d-0x335 (8)
0x330|00 29 d8 fd 10                                 |.)...           |
0x330|               00 00 00 00 2a ca 3f 91         |     ....*.?.   |      [23]: "1992-10-01T00:00:17Z" (717897617) transition_time 0x335-0x33d (8)
0x330|                                       00 00 00|             ...|      [24]: "1993-04-01T00:00:17Z" (733622417) transition_time 0x33d-0x345 (8)
0x340|00 2b ba 30 91                                 |.+.0.           |
0x340|               00 00 00 00 2c ab 73 12         |     ....,.s.   |      [25]: "1993-10-01T00:00:18Z" (749433618) transition_time 0x345-0x34d (8)
0x340|                                       00 00 00|             ...|      [26]: "1994-04-01T00:00:18Z" (765158418) transition_time 0x34d-0x355 (8)
0x350|00 2d 9b 64 12                                 |.-.d.           |
0x350|               00 00 00 00 2e 8c a6 93         |     ........   |      [27]: "1994-10-01T00:00:19Z" (780969619) transition_time 0x355-0x35d (8)
0x350|                                       00 00 00|             ...|      [28]: "1995-04-01T00:00:19Z" (796694419) transition_time 0x35d-0x365 (8)
0x360|00 2f 7c 97 93                                 |./|..           |
0x360|               00 00 00 00 30 6d da 13         |     ....0m..   |      [29]: "1995-10-01T00:00:19Z" (812505619) transition_time 0x365-0x36d (8)
0x360|                                       00 00 00|             ...|      [30]: "1996-04-01T00:00:20Z" (828316820) transition_time 0x36d-0x375 (8)
0x370|00 31 5f 1c 94                                 |.1_..           |
0x370|               00 00 00 00 32 50 5f 14         |     ....2P_.   |      [31]: "1996-10-01T00:00:20Z" (844128020) transition_time 0x375-0x37d (8)
0x370|                                       00 00 00|             ...|      [32]: "1997-04-01T00:00:20Z" (859852820) transition_time 0x37d-0x385 (8)
0x380|00 33 40 50 14                                 |.3@P.           |
0x380|               00 00 00 00 34 31 92 95         |     ....41..   |      [33]: "1997-10-01T00:00:21Z" (875664021) transition_time 0x385-0x38d (8)
0x380|                                       00 00 00|             ...|      [34]: "1998-04-01T00:00:21Z" (891388821) transition_time 0x38d-0x395 (8)
0x390|00 35 21 83 95                                 |.5!..           |
0x390|               00 00 00 00 36 12 c6 15         |     ....6...   |      [35]: "1998-10-01T00:00:21Z" (907200021) transition_time 0x395-0x39d (8)
0x390|                                       00 00 00|             ...|      [36]: "1999-04-01T00:00:22Z" (922924822) transition_time 0x39d-0x3a5 (8)
0x3a0|00 37 02 b7 16                                 |.7...           |
0x3a0|               00 00 00 00 37 f3 f9 96         |     ....7...   |      [37]: "1999-10-01T00:00:22Z" (938736022) transition_time 0x3a5-0x3ad (8)
0x3a0|                                       00 00 00|             ...|      [38]: "2000-04-01T00:00:22Z" (954547222) transition_time 0x3ad-0x3b5 (8)
0x3b0|00 38 e5 3c 16                                 |.8.<.           |
0x3b0|               00 00 00 00 39 d6 7e 96         |     ....9.~.   |      [39]: "2000-10-01T00:00:22Z" (970358422) transition_time 0x3b5-0x3bd (8)
0x3b0|                                       00 00 00|             ...|      [40]: "2001-04-01T00:00:22Z" (986083222) transition_time 0x3bd-0x3c5 (8)
0x3c0|00 3a c6 6f 96                                 |.:.o.           |
0x3c0|               00 00 00 00 3b b7 b2 16         |     ....;...   |      [41]: "2001-10-01T00:00:22Z" (1001894422) transition_time 0x3c5-0x3cd (8)
0x3c0|                                       00 00 00|             ...|      [42]: "2002-04-01T00:00:22Z" (1017619222) transition_time 0x3cd-0x3d5 (8)
0x3d0|00 3c a7 a3 16                                 |.<...           |
0x3d0|               00 00 00 00 3d 98 e5 96         |     ....=...   |      [43]: "2002-10-01T00:00:22Z" (1033430422) transition_time 0x3d5-0x3dd (8)
0x3d0|                                       00 00 00|             ...|      [44]: "2003-04-01T00:00:22Z" (1049155222) transition_time 0x3dd-0x3e5 (8)
0x3e0|00 3e 88 d6 96                                 |.>...           |
0x3e0|               00 00 00 00 3f 7a 19 16         |     ....?z..   |      [45]: "2003-10-01T00:00:22Z" (1064966422) transition_time 0x3e5-0x3ed (8)
0x3e0|                                       00 00 00|             ...|      [46]: "2004-04-01T00:00:22Z" (1080777622) transition_time 0x3ed-0x3f5 (8)
0x3f0|00 40 6b 5b 96                                 |.@k[.           |
0x3f0|               00 00 00 00 41 5c 9e 16         |     ....A\..   |      [47]: "2004-10-01T00:00:22Z" (1096588822) transition_time 0x3f5-0x3fd (8)
0x3f0|                                       00 00 00|             ...|      [48]: "2005-04-01T00:00:22Z" (1112313622) transition_time 0x3fd-0x405 (8)
0x400|00 42 4c 8f 16                                 |.BL..           |
0x400|               00 00 00 00 43 3d d1 96         |     ....C=..   |      [49]: "2005-10-01T00:00:22Z" (1128124822) transition_time 0x405-0x40d (8)
0x400|                                       00 00 00|             ...|      [50]: "2006-04-01T00:00:23Z" (1143849623) transition_time 0x40d-0x415 (8)
0x410|00 44 2d c2 97                                 |.D-..           |
0x410|               00 00 00 00 45 1f 05 17         |     ....E...   |      [51]: "2006-10-01T00:00:23Z" (1159660823) transition_time 0x415-0x41d (8)
0x410|                                       00 00 00|             ...|      [52]: "2007-04-01T00:00:23Z" (1175385623) transition_time 0x41d-0x425 (8)
0x420|00 46 0e f6 17                                 |.F...           |
0x420|               00 00 00 00 47 00 38 97         |     ....G.8.   |      [53]: "2007-10-01T00:00:23Z" (1191196823) transition_time 0x425-0x42d (8)
0x420|                                       00 00 00|             ...|      [54]: "2023-06-28T00:00:27Z" (1687910427) transition_time 0x42d-0x435 (8)
0x430|00 64 9b 78 1b                                 |.d.x.           |
     |                                               |                |    transition_types[0:55]: 0x435-0x46c (55)
0x430|               01                              |     .          |      [0]: 1 transition_type 0x435-0x436 (1)
0x430|                  02                           |      .         |      [1]: 2 transition_type 0x436-0x437 (1)
0x430|                     03                        |       .        |      [2]: 3 transition_type 0x437-0x438 (1)
0x430|                        02                     |        .       |      [3]: 2 transition_type 0x438-0x439 (1)
0x430|                           03                  |         .      |      [4]: 3 transition_type 0x439-0x43a (1)
0x430|                              02               |          .     |      [5]: 2 transition_type 0x43a-0x43b (1)
0x430|                                 03            |           .    |      [6]: 3 transition_type 0x43b-0x43c (1)
0x430|                                    02         |            .   |      [7]: 2 transition_type 0x43c-0x43d (1)
0x430|                                       03      |             .  |      [8]: 3 transition_type 0x43d-0x43e (1)
0x430|                                          04   |              . |      [9]: 4 transition_type 0x43e-0x43f (1)
0x430|                                             05|               .|      [10]: 5 transition_type 0x43f-0x440 (1)
0x440|04                                             |.               |      [11]: 4 transition_type 0x440-0x441 (1)
0x440|   05                                          | .              |      [12]: 5 transition_type 0x441-0x442 (1)
0x440|      04                                       |  .             |      [13]: 4 transition_type 0x442-0x443 (1)
0x440|         05                                    |   .            |      [14]: 5 transition_type 0x443-0x444 (1)
0x440|            04                                 |    .           |      [15]: 4 transition_type 0x444-0x445 (1)
0x440|               05                              |     .          |      [16]: 5 transition_type 0x445-0x446 (1)
0x440|                  04                           |      .         |      [17]: 4 transition_type 0x446-0x447 (1)
0x440|                     05                        |       .        |      [18]: 5 transition_type 0x447-0x448 (1)
0x440|                        04                     |        .       |      [19]: 4 transition_type 0x448-0x449 (1)
0x440|                           05                  |         .      |      [20]: 5 transition_type 0x449-0x44a (1)
0x440|                              04               |          .     |      [21]: 4 transition_type 0x44a-0x44b (1)
0x440|                                 05            |           .    |      [22]: 5 transition_type 0x44b-0x44c (1)
0x440|                                    04         |            .   |      [23]: 4 transition_type 0x44c-0x44d (1)
0x440|                                       05      |             .  |      [24]: 5 transition_type 0x44d-0x44e (1)
0x440|                                          04   |              . |      [25]: 4 transition_type 0x44e-0x44f (1)
0x440|                                             05|               .|      [26]: 5 transition_type 0x44f-0x450 (1)
0x450|04                                             |.               |      [27]: 4 transition_type 0x450-0x451 (1)
0x450|   05                                          | .              |      [28]: 5 transition_type 0x451-0x452 (1)
0x450|      04                                       |  .             |      [29]: 4 transition_type 0x452-0x453 (1)
0x450|         05                                    |   .            |      [30]: 5 transition_type 0x453-0x454 (1)
0x450|            04                                 |    .           |      [31]: 4 transition_type 0x454-0x455 (1)
0x450|               05                              |     .          |      [32]: 5 transition_type 0x455-0x456 (1)
0x450|                  04                           |      .         |      [33]: 4 transition_type 0x456-0x457 (1)
0x450|                     05                        |       .        |      [34]: 5 transition_type 0x457-0x458 (1)
0x450|                        04                     |        .       |      [35]: 4 transition_type 0x458-0x459 (1)
0x450|                           05                  |         .      |      [36]: 5 transition_type 0x459-0x45a (1)
0x450|                              04               |          .     |      [37]: 4 transition_type 0x45a-0x45b (1)
0x450|                                 05            |           .    |      [38]: 5 transition_type 0x45b-0x45c (1)
0x450|                                    04         |            .   |      [39]: 4 transition_type 0x45c-0x45d (1)
0x450|                                       05      |             .  |      [40]: 5 transition_type 0x45d-0x45e (1)
0x450|                                          04   |              . |      [41]: 4 transition_type 0x45e-0x45f (1)
0x450|                                             05|               .|      [42]: 5 transition_type 0x45f-0x460 (1)
0x460|04                                             |.               |      [43]: 4 transition_type 0x460-0x461 (1)
0x460|   05                                          | .              |      [44]: 5 transition_type 0x461-0x462 (1)
0x460|      04                                       |  .             |      [45]: 4 transition_type 0x462-0x463 (1)
0x460|         05                                    |   .            |      [46]: 5 transition_type 0x463-0x464 (1)
0x460|            04                                 |    .           |      [47]: 4 transition_type 0x464-0x465 (1)
0x460|               05                              |     .          |      [48]: 5 transition_type 0x465-0x466 (1)
0x460|                  04                           |      .         |      [49]: 4 transition_type 0x466-0x467 (1)
0x460|                     05                        |       .        |      [50]: 5 transition_type 0x467-0x468 (1)
0x460|                        04                     |        .       |      [51]: 4 transition_type 0x468-0x469 (1)
0x460|                           05                  |         .      |      [52]: 5 transition_type 0x469-0x46a (1)
0x460|                              04               |          .     |      [53]: 4 transition_type 0x46a-0x46b (1)
0x460|                                 04            |           .    |      [54]: 4 transition_type 0x46b-0x46c (1)
     |                                               |                |    local_time_type_records[0:6]: 0x46c-0x490 (36)
     |                                               |                |      [0]{}: local_time_type 0x46c-0x472 (6)
0x460|                                    00 00 29 a4|            ..).|        utoff: 10660 (valid) 0x46c-0x470 (4)
0x470|00                                             |.               |        dst: 0 (valid) 0x470-0x471 (1)
0x470|   00                                          | .              |        idx: 0 (valid) 0x471-0x472 (1)
     |                                               |                |      [1]{}: local_time_type 0x472-0x478 (6)
0x470|      00 00 29 a0                              |  ..).          |        utoff: 10656 (valid) 0x472-0x476 (4)
0x470|                  00                           |      .         |        dst: 0 (valid) 0x476-0x477 (1)
0x470|                     04                        |       .        |        idx: 4 (valid) 0x477-0x478 (1)
     |                                               |                |      [2]{}: local_time_type 0x478-0x47e (6)
0x470|                        00 00 2a 30            |        ..*0    |        utoff: 10800 (valid) 0x478-0x47c (4)
0x470|                                    00         |            .   |        dst: 0 (valid) 0x47c-0x47d (1)
0x470|                                       08      |             .  |        idx: 8 (valid) 0x47d-0x47e (1)
     |                                               |                |      [3]{}: local_time_type 0x47e-0x484 (6)
0x470|                                          00 00|              ..|        utoff: 14400 (valid) 0x47e-0x482 (4)
0x480|38 40                                          |8@              |
0x480|      01                                       |  .             |        dst: 1 (valid) 0x482-0x483 (1)
0x480|         0c                                    |   .            |        idx: 12 (valid) 0x483-0x484 (1)
     |                                               |                |      [4]{}: local_time_type 0x484-0x48a (6)
0x480|            00 00 2a 30                        |    ..*0        |        utoff: 10800 (valid) 0x484-0x488 (4)
0x480|                        00                     |        .       |        dst: 0 (valid) 0x488-0x489 (1)
0x480|                           08                  |         .      |        idx: 8 (valid) 0x489-0x48a (1)
     |                                               |                |      [5]{}: local_time_type 0x48a-0x490 (6)
0x480|                              00 00 38 40      |          ..8@  |        utoff: 14400 (valid) 0x48a-0x48e (4)
0x480|                                          01   |              . |        dst: 1 (valid) 0x48e-0x48f (1)
0x480|                                             0c|               .|        idx: 12 (valid) 0x48f-0x490 (1)
     |                                               |                |    time_zone_designations[0:4]: 0x490-0x4a0 (16)
0x490|4c 4d 54 00                                    |LMT.            |      [0]: "LMT" time_zone_designation 0x490-0x494 (4)
0x490|            42 4d 54 00                        |    BMT.        |      [1]: "BMT" time_zone_designation 0x494-0x498 (4)
0x490|                        2b 30 33 00            |        +03.    |      [2]: "+03" time_zone_designation 0x498-0x49c (4)
0x490|                                    2b 30 34 00|            +04.|      [3]: "+04" time_zone_designation 0x49c-0x4a0 (4)
     |                                               |                |    leap_second_records[0:27]: 0x4a0-0x5e4 (324)
     |                                               |                |      [0]{}: leap_second_record 0x4a0-0x4ac (12)
0x4a0|00 00 00 00 04 b2 58 00                        |......X.        |        occur: "1972-07-01T00:00:00Z" (78796800) 0x4a0-0x4a8 (8)
0x4a0|                        00 00 00 01            |        ....    |        corr: 1 0x4a8-0x4ac (4)
     |                                               |                |      [1]{}: leap_second_record 0x4ac-0x4b8 (12)
0x4a0|                                    00 00 00 00|            ....|        occur: "1973-01-01T00:00:01Z" (94694401) 0x4ac-0x4b4 (8)
0x4b0|05 a4 ec 01                                    |....            |
0x4b0|            00 00 00 02                        |    ....        |        corr: 2 0x4b4-0x4b8 (4)
     |                                               |                |      [2]{}: leap_second_record 0x4b8-0x4c4 (12)
0x4b0|                        00 00 00 00 07 86 1f 82|        ........|        occur: "1974-01-01T00:00:02Z" (126230402) 0x4b8-0x4c0 (8)
0x4c0|00 00 00 03                                    |....            |        corr: 3 0x4c0-0x4c4 (4)
     |                                               |                |      [3]{}: leap_second_record 0x4c4-0x4d0 (12)
0x4c0|            00 00 00 00 09 67 53 03            |    .....gS.    |        occur: "1975-01-01T00:00:03Z" (157766403) 0x4c4-0x4cc (8)
0x4c0|                                    00 00 00 04|            ....|        corr: 4 0x4cc-0x4d0 (4)
     |                                               |                |      [4]{}: leap_second_record 0x4d0-0x4dc (12)
0x4d0|00 00 00 00 0b 48 86 84                        |.....H..        |        occur: "1976-01-01T00:00:04Z" (189302404) 0x4d0-0x4d8 (8)
0x4d0|                        00 00 00 05            |        ....    |        corr: 5 0x4d8-0x4dc (4)
     |                                               |                |      [5]{}: leap_second_record 0x4dc-0x4e8 (12)
0x4d0|                                    00 00 00 00|            ....|        occur: "1977-01-01T00:00:05Z" (220924805) 0x4dc-0x4e4 (8)
0x4e0|0d 2b 0b 85                                    |.+..            |
0x4e0|            00 00 00 06                        |    ....        |        corr: 6 0x4e4-0x4e8 (4)
     |                                               |                |      [6]{}: leap_second_record 0x4e8-0x4f4 (12)
0x4e0|                        00 00 00 00 0f 0c 3f 06|        ......?.|        occur: "1978-01-01T00:00:06Z" (252460806) 0x4e8-0x4f0 (8)
0x4f0|00 00 00 07                                    |....            |        corr: 7 0x4f0-0x4f4 (4)
     |                                               |                |      [7]{}: leap_second_record 0x4f4-0x500 (12)
0x4f0|            00 00 00 00 10 ed 72 87            |    ......r.    |        occur: "1979-01-01T00:00:07Z" (283996807) 0x4f4-0x4fc (8)
0x4f0|                                    00 00 00 08|            ....|        corr: 8 0x4fc-0x500 (4)
     |                                               |                |      [8]{}: leap_second_record 0x500-0x50c (12)
0x500|00 00 00 00 12 ce a6 08                        |........        |        occur: "1980-01-01T00:00:08Z" (315532808) 0x500-0x508 (8)
0x500|                        00 00 00 09            |        ....    |        corr: 9 0x508-0x50c (4)
     |                                               |                |      [9]{}: leap_second_record 0x50c-0x518 (12)
0x500|                                    00 00 00 00|            ....|        occur: "1981-07-01T00:00:09Z" (362793609) 0x50c-0x514 (8)
0x510|15 9f ca 89                                    |....            |
0x510|            00 00 00 0a                        |    ....        |        corr: 10 0x514-0x518 (4)
     |                                               |                |      [10]{}: leap_second_record 0x518-0x524 (12)
0x510|                        00 00 00 00 17 80 fe 0a|        ........|        occur: "1982-07-01T00:00:10Z" (394329610) 0x518-0x520 (8)
0x520|00 00 00 0b                                    |....            |        corr: 11 0x520-0x524 (4)
     |                                               |                |      [11]{}: leap_second_record 0x524-0x530 (12)
0x520|            00 00 00 00 19 62 31 8b            |    .....b1.    |        occur: "1983-07-01T00:00:11Z" (425865611) 0x524-0x52c (8)
0x520|                                    00 00 00 0c|            ....|        corr: 12 0x52c-0x530 (4)
     |                                               |                |      [12]{}: leap_second_record 0x530-0x53c (12)
0x530|00 00 00 00 1d 25 ea 0c                        |.....%..        |        occur: "1985-07-01T00:00:12Z" (489024012) 0x530-0x538 (8)
0x530|                        00 00 00 0d            |        ....    |        corr: 13 0x538-0x53c (4)
     |                                               |                |      [13]{}: leap_second_record 0x53c-0x548 (12)
0x530|                                    00 00 00 00|            ....|        occur: "1988-01-01T00:00:13Z" (567993613) 0x53c-0x544 (8)
0x540|21 da e5 0d                                    |!...            |
0x540|            00 00 00 0e                        |    ....        |        corr: 14 0x544-0x548 (4)
     |                                               |                |      [14]{}: leap_second_record 0x548-0x554 (12)
0x540|                        00 00 00 00 25 9e 9d 8e|        ....%...|        occur: "1990-01-01T00:00:14Z" (631152014) 0x548-0x550 (8)
0x550|00 00 00 0f                                    |....            |        corr: 15 0x550-0x554 (4)
     |                                               |                |      [15]{}: leap_second_record 0x554-0x560 (12)
0x550|            00 00 00 00 27 7f d1 0f            |    ....'...    |        occur: "1991-01-01T00:00:15Z" (662688015) 0x554-0x55c (8)
0x550|                                    00 00 00 10|            ....|        corr: 16 0x55c-0x560 (4)
     |                                               |                |      [16]{}: leap_second_record 0x560-0x56c (12)
0x560|00 00 00 00 2a 50 f5 90                        |....*P..        |        occur: "1992-07-01T00:00:16Z" (709948816) 0x560-0x568 (8)
0x560|                        00 00 00 11            |        ....    |        corr: 17 0x568-0x56c (4)
     |                                               |                |      [17]{}: leap_second_record 0x56c-0x578 (12)
0x560|                                    00 00 00 00|            ....|        occur: "1993-07-01T00:00:17Z" (741484817) 0x56c-0x574 (8)
0x570|2c 32 29 11                                    |,2).            |
0x570|            00 00 00 12                        |    ....        |        corr: 18 0x574-0x578 (4)
     |                                               |                |      [18]{}: leap_second_record 0x578-0x584 (12)
0x570|                        00 00 00 00 2e 13 5c 92|        ......\.|        occur: "1994-07-01T00:00:18Z" (773020818) 0x578-0x580 (8)
0x580|00 00 00 13                                    |....            |        corr: 19 0x580-0x584 (4)
     |                                               |                |      [19]{}: leap_second_record 0x584-0x590 (12)
0x580|            00 00 00 00 30 e7 24 13            |    ....0.$.    |        occur: "1996-01-01T00:00:19Z" (820454419) 0x584-0x58c (8)
0x580|                                    00 00 00 14|            ....|        corr: 20 0x58c-0x590 (4)
     |                                               |                |      [20]{}: leap_second_record 0x590-0x59c (12)
0x590|00 00 00 00 33 b8 48 94                        |....3.H.        |        occur: "1997-07-01T00:00:20Z" (867715220) 0x590-0x598 (8)
0x590|                        00 00 00 15            |        ....    |        corr: 21 0x598-0x59c (4)
     |                                               |                |      [21]{}: leap_second_record 0x59c-0x5a8 (12)
0x590|                                    00 00 00 00|            ....|        occur: "1999-01-01T00:00:21Z" (915148821) 0x59c-0x5a4 (8)
0x5a0|36 8c 10 15                                    |6...            |
0x5a0|            00 00 00 16                        |    ....        |        corr: 22 0x5a4-0x5a8 (4)
     |                                               |                |      [22]{}: leap_second_record 0x5a8-0x5b4 (12)
0x5a0|                        00 00 00 00 43 b7 1b 96|        ....C...|        occur: "2006-01-01T00:00:22Z" (1136073622) 0x5a8-0x5b0 (8)
0x5b0|00 00 00 17                                    |....            |        corr: 23 0x5b0-0x5b4 (4)
     |                                               |                |      [23]{}: leap_second_record 0x5b4-0x5c0 (12)
0x5b0|            00 00 00 00 49 5c 07 97            |    ....I\..    |        occur: "2009-01-01T00:00:23Z" (1230768023) 0x5b4-0x5bc (8)
0x5b0|                                    00 00 00 18|            ....|        corr: 24 0x5bc-0x5c0 (4)
     |                                               |                |      [24]{}: leap_second_record 0x5c0-0x5cc (12)
0x5c0|00 00 00 00 4f ef 93 18                        |....O...        |        occur: "2012-07-01T00:00:24Z" (1341100824) 0x5c0-0x5c8 (8)
0x5c0|                        00 00 00 19            |        ....    |        corr: 25 0x5c8-0x5cc (4)
     |                                               |                |      [25]{}: leap_second_record 0x5cc-0x5d8 (12)
0x5c0|                                    00 00 00 00|            ....|        occur: "2015-07-01T00:00:25Z" (1435708825) 0x5cc-0x5d4 (8)
0x5d0|55 93 2d 99                                    |U.-.            |
0x5d0|            00 00 00 1a                        |    ....        |        corr: 26 0x5d4-0x5d8 (4)
     |                                               |                |      [26]{}: leap_second_record 0x5d8-0x5e4 (12)
0x5d0|                        00 00 00 00 58 68 46 9a|        ....XhF.|        occur: "2017-01-01T00:00:26Z" (1483228826) 0x5d8-0x5e0 (8)
0x5e0|00 00 00 1b                                    |....            |        corr: 27 0x5e0-0x5e4 (4)
     |                                               |                |    standard_wall_indicators[0:6]: 0x5e4-0x5ea (6)
0x5e0|            00                                 |    .           |      [0]: 0 standard_wall_indicator (valid) 0x5e4-0x5e5 (1)
0x5e0|               00                              |     .          |      [1]: 0 standard_wall_indicator (valid) 0x5e5-0x5e6 (1)
0x5e0|                  00                           |      .         |      [2]: 0 standard_wall_indicator (valid) 0x5e6-0x5e7 (1)
0x5e0|                     00                        |       .        |      [3]: 0 standard_wall_indicator (valid) 0x5e7-0x5e8 (1)
0x5e0|                        01                     |        .       |      [4]: 1 standard_wall_indicator (valid) 0x5e8-0x5e9 (1)
0x5e0|                           01                  |         .      |      [5]: 1 standard_wall_indicator (valid) 0x5e9-0x5ea (1)
     |                                               |                |    ut_local_indicators[0:0]: 0x5ea-0x5ea (0)
     |                                               |                |  footer{}: 0x5ea-0x5ec (2)
0x5e0|                              0a               |          .     |    nl1: 10 (valid) 0x5ea-0x5eb (1)
     |                                               |                |    tz_string: "" 0x5eb-0x5eb (0)
0x5e0|                                 0a|           |           .|   |    nl2: 10 (valid) 0x5eb-0x5ec (1)
