$ fq -d tzif dv Bahia_Banderas
     |00 01 02 03 04 05 06 07 08 09 0a 0b 0c 0d 0e 0f|0123456789abcdef|.{}: Bahia_Banderas (tzif) 0x0-0x6a5.7 (1702)
     |                                               |                |  v1header{}: 0x0-0x2b.7 (44)
0x000|54 5a 69 66                                    |TZif            |    magic: 0x545a6966 (valid) 0x0-0x3.7 (4)
0x000|            32                                 |    2           |    ver: "2" (0x32) (valid) 0x4-0x4.7 (1)
0x000|               00 00 00 00 00 00 00 00 00 00 00|     ...........|    reserved: raw bits 0x5-0x13.7 (15)
0x010|00 00 00 00                                    |....            |
0x010|            00 00 00 08                        |    ....        |    isutcnt: 8 0x14-0x17.7 (4)
0x010|                        00 00 00 08            |        ....    |    isstdcnt: 8 0x18-0x1b.7 (4)
0x010|                                    00 00 00 1b|            ....|    leapcnt: 27 0x1c-0x1f.7 (4)
0x020|00 00 00 40                                    |...@            |    timecnt: 64 0x20-0x23.7 (4)
0x020|            00 00 00 08                        |    ....        |    typecnt: 8 0x24-0x27.7 (4)
0x020|                        00 00 00 18            |        ....    |    charcnt: 24 0x28-0x2b.7 (4)
     |                                               |                |  v1datablock{}: 0x2c-0x29b.7 (624)
     |                                               |                |    transition_times[0:64]: 0x2c-0x12b.7 (256)
0x020|                                    a5 b6 e8 70|            ...p|      [0]: "1922-01-01T07:00:00Z" (-1514739600) transition_time 0x2c-0x2f.7 (4)
0x030|af f2 6e e0                                    |..n.            |      [1]: "1927-06-11T06:00:00Z" (-1343066400) transition_time 0x30-0x33.7 (4)
0x030|            b6 66 56 60                        |    .fV`        |      [2]: "1930-11-15T06:00:00Z" (-1234807200) transition_time 0x34-0x37.7 (4)
0x030|                        b7 43 d2 60            |        .C.`    |      [3]: "1931-05-02T06:00:00Z" (-1220292000) transition_time 0x38-0x3b.7 (4)
0x030|                                    b8 0c 36 60|            ..6`|      [4]: "1931-10-01T06:00:00Z" (-1207159200) transition_time 0x3c-0x3f.7 (4)
0x040|b8 fd 86 f0                                    |....            |      [5]: "1932-04-01T07:00:00Z" (-1191344400) transition_time 0x40-0x43.7 (4)
0x040|            cb ea 71 60                        |    ..q`        |      [6]: "1942-04-24T06:00:00Z" (-873828000) transition_time 0x44-0x47.7 (4)
0x040|                        d8 91 b4 f0            |        ....    |      [7]: "1949-01-14T07:00:00Z" (-661539600) transition_time 0x48-0x4b.7 (4)
0x040|                                    00 00 70 80|            ..p.|      [8]: "1970-01-01T08:00:00Z" (28800) transition_time 0x4c-0x4f.7 (4)
0x050|31 67 84 24                                    |1g.$            |      [9]: "1996-04-07T09:00:20Z" (828867620) transition_time 0x50-0x53.7 (4)
0x050|            32 73 16 94                        |    2s..        |      [10]: "1996-10-27T08:00:20Z" (846403220) transition_time 0x54-0x57.7 (4)
0x050|                        33 47 66 24            |        3Gf$    |      [11]: "1997-04-06T09:00:20Z" (860317220) transition_time 0x58-0x5b.7 (4)
0x050|                                    34 52 f8 95|            4R..|      [12]: "1997-10-26T08:00:21Z" (877852821) transition_time 0x5c-0x5f.7 (4)
0x060|35 27 48 25                                    |5'H%            |      [13]: "1998-04-05T09:00:21Z" (891766821) transition_time 0x60-0x63.7 (4)
0x060|            36 32 da 95                        |    62..        |      [14]: "1998-10-25T08:00:21Z" (909302421) transition_time 0x64-0x67.7 (4)
0x060|                        37 07 2a 26            |        7.*&    |      [15]: "1999-04-04T09:00:22Z" (923216422) transition_time 0x68-0x6b.7 (4)
0x060|                                    38 1b f7 16|            8...|      [16]: "1999-10-31T08:00:22Z" (941356822) transition_time 0x6c-0x6f.7 (4)
0x070|38 e7 0c 26                                    |8..&            |      [17]: "2000-04-02T09:00:22Z" (954666022) transition_time 0x70-0x73.7 (4)
0x070|            39 fb d9 16                        |    9...        |      [18]: "2000-10-29T08:00:22Z" (972806422) transition_time 0x74-0x77.7 (4)
0x070|                        3a f5 12 a6            |        :...    |      [19]: "2001-05-06T09:00:22Z" (989139622) transition_time 0x78-0x7b.7 (4)
0x070|                                    3b b6 d1 16|            ;...|      [20]: "2001-09-30T08:00:22Z" (1001836822) transition_time 0x7c-0x7f.7 (4)
0x080|3c b0 0a a6                                    |<...            |      [21]: "2002-04-07T09:00:22Z" (1018170022) transition_time 0x80-0x83.7 (4)
0x080|            3d bb 9d 16                        |    =...        |      [22]: "2002-10-27T08:00:22Z" (1035705622) transition_time 0x84-0x87.7 (4)
0x080|                        3e 8f ec a6            |        >...    |      [23]: "2003-04-06T09:00:22Z" (1049619622) transition_time 0x88-0x8b.7 (4)
0x080|                                    3f 9b 7f 16|            ?...|      [24]: "2003-10-26T08:00:22Z" (1067155222) transition_time 0x8c-0x8f.7 (4)
0x090|40 6f ce a6                                    |@o..            |      [25]: "2004-04-04T09:00:22Z" (1081069222) transition_time 0x90-0x93.7 (4)
0x090|            41 84 9b 96                        |    A...        |      [26]: "2004-10-31T08:00:22Z" (1099209622) transition_time 0x94-0x97.7 (4)
0x090|                        42 4f b0 a6            |        BO..    |      [27]: "2005-04-03T09:00:22Z" (1112518822) transition_time 0x98-0x9b.7 (4)
0x090|                                    43 64 7d 96|            Cd}.|      [28]: "2005-10-30T08:00:22Z" (1130659222) transition_time 0x9c-0x9f.7 (4)
0x0a0|44 2f 92 a7                                    |D/..            |      [29]: "2006-04-02T09:00:23Z" (1143968423) transition_time 0xa0-0xa3.7 (4)
0x0a0|            45 44 5f 97                        |    ED_.        |      [30]: "2006-10-29T08:00:23Z" (1162108823) transition_time 0xa4-0xa7.7 (4)
0x0a0|                        46 0f 74 a7            |        F.t.    |      [31]: "2007-04-01T09:00:23Z" (1175418023) transition_time 0xa8-0xab.7 (4)
0x0a0|                                    47 24 41 97|            G$A.|      [32]: "2007-10-28T08:00:23Z" (1193558423) transition_time 0xac-0xaf.7 (4)
0x0b0|47 f8 91 27                                    |G..'            |      [33]: "2008-04-06T09:00:23Z" (1207472423) transition_time 0xb0-0xb3.7 (4)
0x0b0|            49 04 23 97                        |    I.#.        |      [34]: "2008-10-26T08:00:23Z" (1225008023) transition_time 0xb4-0xb7.7 (4)
0x0b0|                        49 d8 73 28            |        I.s(    |      [35]: "2009-04-05T09:00:24Z" (1238922024) transition_time 0xb8-0xbb.7 (4)
0x0b0|                                    4a e4 05 98|            J...|      [36]: "2009-10-25T08:00:24Z" (1256457624) transition_time 0xbc-0xbf.7 (4)
0x0c0|4b b8 55 28                                    |K.U(            |      [37]: "2010-04-04T09:00:24Z" (1270371624) transition_time 0xc0-0xc3.7 (4)
0x0c0|            4c cd 14 08                        |    L...        |      [38]: "2010-10-31T07:00:24Z" (1288508424) transition_time 0xc4-0xc7.7 (4)
0x0c0|                        4d 98 29 18            |        M.).    |      [39]: "2011-04-03T08:00:24Z" (1301817624) transition_time 0xc8-0xcb.7 (4)
0x0c0|                                    4e ac f6 08|            N...|      [40]: "2011-10-30T07:00:24Z" (1319958024) transition_time 0xcc-0xcf.7 (4)
0x0d0|4f 78 0b 18                                    |Ox..            |      [41]: "2012-04-01T08:00:24Z" (1333267224) transition_time 0xd0-0xd3.7 (4)
0x0d0|            50 8c d8 09                        |    P...        |      [42]: "2012-10-28T07:00:25Z" (1351407625) transition_time 0xd4-0xd7.7 (4)
0x0d0|                        51 61 27 99            |        Qa'.    |      [43]: "2013-04-07T08:00:25Z" (1365321625) transition_time 0xd8-0xdb.7 (4)
0x0d0|                                    52 6c ba 09|            Rl..|      [44]: "2013-10-27T07:00:25Z" (1382857225) transition_time 0xdc-0xdf.7 (4)
0x0e0|53 41 09 99                                    |SA..            |      [45]: "2014-04-06T08:00:25Z" (1396771225) transition_time 0xe0-0xe3.7 (4)
0x0e0|            54 4c 9c 09                        |    TL..        |      [46]: "2014-10-26T07:00:25Z" (1414306825) transition_time 0xe4-0xe7.7 (4)
0x0e0|                        55 20 eb 99            |        U ..    |      [47]: "2015-04-05T08:00:25Z" (1428220825) transition_time 0xe8-0xeb.7 (4)
0x0e0|                                    56 2c 7e 0a|            V,~.|      [48]: "2015-10-25T07:00:26Z" (1445756426) transition_time 0xec-0xef.7 (4)
0x0f0|57 00 cd 9a                                    |W...            |      [49]: "2016-04-03T08:00:26Z" (1459670426) transition_time 0xf0-0xf3.7 (4)
0x0f0|            58 15 9a 8a                        |    X...        |      [50]: "2016-10-30T07:00:26Z" (1477810826) transition_time 0xf4-0xf7.7 (4)
0x0f0|                        58 e0 af 9b            |        X...    |      [51]: "2017-04-02T08:00:27Z" (1491120027) transition_time 0xf8-0xfb.7 (4)
0x0f0|                                    59 f5 7c 8b|            Y.|.|      [52]: "2017-10-29T07:00:27Z" (1509260427) transition_time 0xfc-0xff.7 (4)
0x100|5a c0 91 9b                                    |Z...            |      [53]: "2018-04-01T08:00:27Z" (1522569627) transition_time 0x100-0x103.7 (4)
0x100|            5b d5 5e 8b                        |    [.^.        |      [54]: "2018-10-28T07:00:27Z" (1540710027) transition_time 0x104-0x107.7 (4)
0x100|                        5c a9 ae 1b            |        \...    |      [55]: "2019-04-07T08:00:27Z" (1554624027) transition_time 0x108-0x10b.7 (4)
0x100|                                    5d b5 40 8b|            ].@.|      [56]: "2019-10-27T07:00:27Z" (1572159627) transition_time 0x10c-0x10f.7 (4)
0x110|5e 89 90 1b                                    |^...            |      [57]: "2020-04-05T08:00:27Z" (1586073627) transition_time 0x110-0x113.7 (4)
0x110|            5f 95 22 8b                        |    _.".        |      [58]: "2020-10-25T07:00:27Z" (1603609227) transition_time 0x114-0x117.7 (4)
0x110|                        60 69 72 1b            |        `ir.    |      [59]: "2021-04-04T08:00:27Z" (1617523227) transition_time 0x118-0x11b.7 (4)
0x110|                                    61 7e 3f 0b|            a~?.|      [60]: "2021-10-31T07:00:27Z" (1635663627) transition_time 0x11c-0x11f.7 (4)
0x120|62 49 54 1b                                    |bIT.            |      [61]: "2022-04-03T08:00:27Z" (1648972827) transition_time 0x120-0x123.7 (4)
0x120|            63 5e 21 0b                        |    c^!.        |      [62]: "2022-10-30T07:00:27Z" (1667113227) transition_time 0x124-0x127.7 (4)
0x120|                        64 9b 78 1b            |        d.x.    |      [63]: "2023-06-28T00:00:27Z" (1687910427) transition_time 0x128-0x12b.7 (4)
     |                                               |                |    transition_types[0:64]: 0x12c-0x16b.7 (64)
0x120|                                    01         |            .   |      [0]: 1 transition_type 0x12c-0x12c.7 (1)
0x120|                                       02      |             .  |      [1]: 2 transition_type 0x12d-0x12d.7 (1)
0x120|                                          04   |              . |      [2]: 4 transition_type 0x12e-0x12e.7 (1)
0x120|                                             03|               .|      [3]: 3 transition_type 0x12f-0x12f.7 (1)
0x130|04                                             |.               |      [4]: 4 transition_type 0x130-0x130.7 (1)
0x130|   02                                          | .              |      [5]: 2 transition_type 0x131-0x131.7 (1)
0x130|      04                                       |  .             |      [6]: 4 transition_type 0x132-0x132.7 (1)
0x130|         05                                    |   .            |      [7]: 5 transition_type 0x133-0x133.7 (1)
0x130|            04                                 |    .           |      [8]: 4 transition_type 0x134-0x134.7 (1)
0x130|               03                              |     .          |      [9]: 3 transition_type 0x135-0x135.7 (1)
0x130|                  04                           |      .         |      [10]: 4 transition_type 0x136-0x136.7 (1)
0x130|                     03                        |       .        |      [11]: 3 transition_type 0x137-0x137.7 (1)
0x130|                        04                     |        .       |      [12]: 4 transition_type 0x138-0x138.7 (1)
0x130|                           03                  |         .      |      [13]: 3 transition_type 0x139-0x139.7 (1)
0x130|                              04               |          .     |      [14]: 4 transition_type 0x13a-0x13a.7 (1)
0x130|                                 03            |           .    |      [15]: 3 transition_type 0x13b-0x13b.7 (1)
0x130|                                    04         |            .   |      [16]: 4 transition_type 0x13c-0x13c.7 (1)
0x130|                                       03      |             .  |      [17]: 3 transition_type 0x13d-0x13d.7 (1)
0x130|                                          04   |              . |      [18]: 4 transition_type 0x13e-0x13e.7 (1)
0x130|                                             03|               .|      [19]: 3 transition_type 0x13f-0x13f.7 (1)
0x140|04                                             |.               |      [20]: 4 transition_type 0x140-0x140.7 (1)
0x140|   03                                          | .              |      [21]: 3 transition_type 0x141-0x141.7 (1)
0x140|      04                                       |  .             |      [22]: 4 transition_type 0x142-0x142.7 (1)
0x140|         03                                    |   .            |      [23]: 3 transition_type 0x143-0x143.7 (1)
0x140|            04                                 |    .           |      [24]: 4 transition_type 0x144-0x144.7 (1)
0x140|               03                              |     .          |      [25]: 3 transition_type 0x145-0x145.7 (1)
0x140|                  04                           |      .         |      [26]: 4 transition_type 0x146-0x146.7 (1)
0x140|                     03                        |       .        |      [27]: 3 transition_type 0x147-0x147.7 (1)
0x140|                        04                     |        .       |      [28]: 4 transition_type 0x148-0x148.7 (1)
0x140|                           03                  |         .      |      [29]: 3 transition_type 0x149-0x149.7 (1)
0x140|                              04               |          .     |      [30]: 4 transition_type 0x14a-0x14a.7 (1)
0x140|                                 03            |           .    |      [31]: 3 transition_type 0x14b-0x14b.7 (1)
0x140|                                    04         |            .   |      [32]: 4 transition_type 0x14c-0x14c.7 (1)
0x140|                                       03      |             .  |      [33]: 3 transition_type 0x14d-0x14d.7 (1)
0x140|                                          04   |              . |      [34]: 4 transition_type 0x14e-0x14e.7 (1)
0x140|                                             03|               .|      [35]: 3 transition_type 0x14f-0x14f.7 (1)
0x150|04                                             |.               |      [36]: 4 transition_type 0x150-0x150.7 (1)
0x150|   06                                          | .              |      [37]: 6 transition_type 0x151-0x151.7 (1)
0x150|      02                                       |  .             |      [38]: 2 transition_type 0x152-0x152.7 (1)
0x150|         06                                    |   .            |      [39]: 6 transition_type 0x153-0x153.7 (1)
0x150|            02                                 |    .           |      [40]: 2 transition_type 0x154-0x154.7 (1)
0x150|               06                              |     .          |      [41]: 6 transition_type 0x155-0x155.7 (1)
0x150|                  02                           |      .         |      [42]: 2 transition_type 0x156-0x156.7 (1)
0x150|                     06                        |       .        |      [43]: 6 transition_type 0x157-0x157.7 (1)
0x150|                        02                     |        .       |      [44]: 2 transition_type 0x158-0x158.7 (1)
0x150|                           06                  |         .      |      [45]: 6 transition_type 0x159-0x159.7 (1)
0x150|                              02               |          .     |      [46]: 2 transition_type 0x15a-0x15a.7 (1)
0x150|                                 06            |           .    |      [47]: 6 transition_type 0x15b-0x15b.7 (1)
0x150|                                    02         |            .   |      [48]: 2 transition_type 0x15c-0x15c.7 (1)
0x150|                                       06      |             .  |      [49]: 6 transition_type 0x15d-0x15d.7 (1)
0x150|                                          02   |              . |      [50]: 2 transition_type 0x15e-0x15e.7 (1)
0x150|                                             06|               .|      [51]: 6 transition_type 0x15f-0x15f.7 (1)
0x160|02                                             |.               |      [52]: 2 transition_type 0x160-0x160.7 (1)
0x160|   06                                          | .              |      [53]: 6 transition_type 0x161-0x161.7 (1)
0x160|      02                                       |  .             |      [54]: 2 transition_type 0x162-0x162.7 (1)
0x160|         06                                    |   .            |      [55]: 6 transition_type 0x163-0x163.7 (1)
0x160|            02                                 |    .           |      [56]: 2 transition_type 0x164-0x164.7 (1)
0x160|               06                              |     .          |      [57]: 6 transition_type 0x165-0x165.7 (1)
0x160|                  02                           |      .         |      [58]: 2 transition_type 0x166-0x166.7 (1)
0x160|                     06                        |       .        |      [59]: 6 transition_type 0x167-0x167.7 (1)
0x160|                        02                     |        .       |      [60]: 2 transition_type 0x168-0x168.7 (1)
0x160|                           06                  |         .      |      [61]: 6 transition_type 0x169-0x169.7 (1)
0x160|                              02               |          .     |      [62]: 2 transition_type 0x16a-0x16a.7 (1)
0x160|                                 02            |           .    |      [63]: 2 transition_type 0x16b-0x16b.7 (1)
     |                                               |                |    local_time_type_records[0:8]: 0x16c-0x19b.7 (48)
     |                                               |                |      [0]{}: local_time_type 0x16c-0x171.7 (6)
0x160|                                    ff ff 9d 54|            ...T|        utoff: -25260 (valid) 0x16c-0x16f.7 (4)
0x170|00                                             |.               |        dst: 0 (valid) 0x170-0x170.7 (1)
0x170|   00                                          | .              |        idx: 0 (valid) 0x171-0x171.7 (1)
     |                                               |                |      [1]{}: local_time_type 0x172-0x177.7 (6)
0x170|      ff ff 9d 90                              |  ....          |        utoff: -25200 (valid) 0x172-0x175.7 (4)
0x170|                  00                           |      .         |        dst: 0 (valid) 0x176-0x176.7 (1)
0x170|                     04                        |       .        |        idx: 4 (valid) 0x177-0x177.7 (1)
     |                                               |                |      [2]{}: local_time_type 0x178-0x17d.7 (6)
0x170|                        ff ff ab a0            |        ....    |        utoff: -21600 (valid) 0x178-0x17b.7 (4)
0x170|                                    00         |            .   |        dst: 0 (valid) 0x17c-0x17c.7 (1)
0x170|                                       08      |             .  |        idx: 8 (valid) 0x17d-0x17d.7 (1)
     |                                               |                |      [3]{}: local_time_type 0x17e-0x183.7 (6)
0x170|                                          ff ff|              ..|        utoff: -21600 (valid) 0x17e-0x181.7 (4)
0x180|ab a0                                          |..              |
0x180|      01                                       |  .             |        dst: 1 (valid) 0x182-0x182.7 (1)
0x180|         0c                                    |   .            |        idx: 12 (valid) 0x183-0x183.7 (1)
     |                                               |                |      [4]{}: local_time_type 0x184-0x189.7 (6)
0x180|            ff ff 9d 90                        |    ....        |        utoff: -25200 (valid) 0x184-0x187.7 (4)
0x180|                        00                     |        .       |        dst: 0 (valid) 0x188-0x188.7 (1)
0x180|                           04                  |         .      |        idx: 4 (valid) 0x189-0x189.7 (1)
     |                                               |                |      [5]{}: local_time_type 0x18a-0x18f.7 (6)
0x180|                              ff ff 8f 80      |          ....  |        utoff: -28800 (valid) 0x18a-0x18d.7 (4)
0x180|                                          00   |              . |        dst: 0 (valid) 0x18e-0x18e.7 (1)
0x180|                                             10|               .|        idx: 16 (valid) 0x18f-0x18f.7 (1)
     |                                               |                |      [6]{}: local_time_type 0x190-0x195.7 (6)
0x190|ff ff b9 b0                                    |....            |        utoff: -18000 (valid) 0x190-0x193.7 (4)
0x190|            01                                 |    .           |        dst: 1 (valid) 0x194-0x194.7 (1)
0x190|               14                              |     .          |        idx: 20 (valid) 0x195-0x195.7 (1)
     |                                               |                |      [7]{}: local_time_type 0x196-0x19b.7 (6)
0x190|                  ff ff ab a0                  |      ....      |        utoff: -21600 (valid) 0x196-0x199.7 (4)
0x190|                              00               |          .     |        dst: 0 (valid) 0x19a-0x19a.7 (1)
0x190|                                 08            |           .    |        idx: 8 (valid) 0x19b-0x19b.7 (1)
     |                                               |                |    time_zone_designations[0:6]: 0x19c-0x1b3.7 (24)
0x190|                                    4c 4d 54 00|            LMT.|      [0]: "LMT" time_zone_designation 0x19c-0x19f.7 (4)
0x1a0|4d 53 54 00                                    |MST.            |      [1]: "MST" time_zone_designation 0x1a0-0x1a3.7 (4)
0x1a0|            43 53 54 00                        |    CST.        |      [2]: "CST" time_zone_designation 0x1a4-0x1a7.7 (4)
0x1a0|                        4d 44 54 00            |        MDT.    |      [3]: "MDT" time_zone_designation 0x1a8-0x1ab.7 (4)
0x1a0|                                    50 53 54 00|            PST.|      [4]: "PST" time_zone_designation 0x1ac-0x1af.7 (4)
0x1b0|43 44 54 00                                    |CDT.            |      [5]: "CDT" time_zone_designation 0x1b0-0x1b3.7 (4)
     |                                               |                |    leap_second_records[0:27]: 0x1b4-0x28b.7 (216)
     |                                               |                |      [0]{}: leap_second_record 0x1b4-0x1bb.7 (8)
0x1b0|            04 b2 58 00                        |    ..X.        |        occur: "1972-07-01T00:00:00Z" (78796800) 0x1b4-0x1b7.7 (4)
0x1b0|                        00 00 00 01            |        ....    |        corr: 1 0x1b8-0x1bb.7 (4)
     |                                               |                |      [1]{}: leap_second_record 0x1bc-0x1c3.7 (8)
0x1b0|                                    05 a4 ec 01|            ....|        occur: "1973-01-01T00:00:01Z" (94694401) 0x1bc-0x1bf.7 (4)
0x1c0|00 00 00 02                                    |....            |        corr: 2 0x1c0-0x1c3.7 (4)
     |                                               |                |      [2]{}: leap_second_record 0x1c4-0x1cb.7 (8)
0x1c0|            07 86 1f 82                        |    ....        |        occur: "1974-01-01T00:00:02Z" (126230402) 0x1c4-0x1c7.7 (4)
0x1c0|                        00 00 00 03            |        ....    |        corr: 3 0x1c8-0x1cb.7 (4)
     |                                               |                |      [3]{}: leap_second_record 0x1cc-0x1d3.7 (8)
0x1c0|                                    09 67 53 03|            .gS.|        occur: "1975-01-01T00:00:03Z" (157766403) 0x1cc-0x1cf.7 (4)
0x1d0|00 00 00 04                                    |....            |        corr: 4 0x1d0-0x1d3.7 (4)
     |                                               |                |      [4]{}: leap_second_record 0x1d4-0x1db.7 (8)
0x1d0|            0b 48 86 84                        |    .H..        |        occur: "1976-01-01T00:00:04Z" (189302404) 0x1d4-0x1d7.7 (4)
0x1d0|                        00 00 00 05            |        ....    |        corr: 5 0x1d8-0x1db.7 (4)
     |                                               |                |      [5]{}: leap_second_record 0x1dc-0x1e3.7 (8)
0x1d0|                                    0d 2b 0b 85|            .+..|        occur: "1977-01-01T00:00:05Z" (220924805) 0x1dc-0x1df.7 (4)
0x1e0|00 00 00 06                                    |....            |        corr: 6 0x1e0-0x1e3.7 (4)
     |                                               |                |      [6]{}: leap_second_record 0x1e4-0x1eb.7 (8)
0x1e0|            0f 0c 3f 06                        |    ..?.        |        occur: "1978-01-01T00:00:06Z" (252460806) 0x1e4-0x1e7.7 (4)
0x1e0|                        00 00 00 07            |        ....    |        corr: 7 0x1e8-0x1eb.7 (4)
     |                                               |                |      [7]{}: leap_second_record 0x1ec-0x1f3.7 (8)
0x1e0|                                    10 ed 72 87|            ..r.|        occur: "1979-01-01T00:00:07Z" (283996807) 0x1ec-0x1ef.7 (4)
0x1f0|00 00 00 08                                    |....            |        corr: 8 0x1f0-0x1f3.7 (4)
     |                                               |                |      [8]{}: leap_second_record 0x1f4-0x1fb.7 (8)
0x1f0|            12 ce a6 08                        |    ....        |        occur: "1980-01-01T00:00:08Z" (315532808) 0x1f4-0x1f7.7 (4)
0x1f0|                        00 00 00 09            |        ....    |        corr: 9 0x1f8-0x1fb.7 (4)
     |                                               |                |      [9]{}: leap_second_record 0x1fc-0x203.7 (8)
0x1f0|                                    15 9f ca 89|            ....|        occur: "1981-07-01T00:00:09Z" (362793609) 0x1fc-0x1ff.7 (4)
0x200|00 00 00 0a                                    |....            |        corr: 10 0x200-0x203.7 (4)
     |                                               |                |      [10]{}: leap_second_record 0x204-0x20b.7 (8)
0x200|            17 80 fe 0a                        |    ....        |        occur: "1982-07-01T00:00:10Z" (394329610) 0x204-0x207.7 (4)
0x200|                        00 00 00 0b            |        ....    |        corr: 11 0x208-0x20b.7 (4)
     |                                               |                |      [11]{}: leap_second_record 0x20c-0x213.7 (8)
0x200|                                    19 62 31 8b|            .b1.|        occur: "1983-07-01T00:00:11Z" (425865611) 0x20c-0x20f.7 (4)
0x210|00 00 00 0c                                    |....            |        corr: 12 0x210-0x213.7 (4)
     |                                               |                |      [12]{}: leap_second_record 0x214-0x21b.7 (8)
0x210|            1d 25 ea 0c                        |    .%..        |        occur: "1985-07-01T00:00:12Z" (489024012) 0x214-0x217.7 (4)
0x210|                        00 00 00 0d            |        ....    |        corr: 13 0x218-0x21b.7 (4)
     |                                               |                |      [13]{}: leap_second_record 0x21c-0x223.7 (8)
0x210|                                    21 da e5 0d|            !...|        occur: "1988-01-01T00:00:13Z" (567993613) 0x21c-0x21f.7 (4)
0x220|00 00 00 0e                                    |....            |        corr: 14 0x220-0x223.7 (4)
     |                                               |                |      [14]{}: leap_second_record 0x224-0x22b.7 (8)
0x220|            25 9e 9d 8e                        |    %...        |        occur: "1990-01-01T00:00:14Z" (631152014) 0x224-0x227.7 (4)
0x220|                        00 00 00 0f            |        ....    |        corr: 15 0x228-0x22b.7 (4)
     |                                               |                |      [15]{}: leap_second_record 0x22c-0x233.7 (8)
0x220|                                    27 7f d1 0f|            '...|        occur: "1991-01-01T00:00:15Z" (662688015) 0x22c-0x22f.7 (4)
0x230|00 00 00 10                                    |....            |        corr: 16 0x230-0x233.7 (4)
     |                                               |                |      [16]{}: leap_second_record 0x234-0x23b.7 (8)
0x230|            2a 50 f5 90                        |    *P..        |        occur: "1992-07-01T00:00:16Z" (709948816) 0x234-0x237.7 (4)
0x230|                        00 00 00 11            |        ....    |        corr: 17 0x238-0x23b.7 (4)
     |                                               |                |      [17]{}: leap_second_record 0x23c-0x243.7 (8)
0x230|                                    2c 32 29 11|            ,2).|        occur: "1993-07-01T00:00:17Z" (741484817) 0x23c-0x23f.7 (4)
0x240|00 00 00 12                                    |....            |        corr: 18 0x240-0x243.7 (4)
     |                                               |                |      [18]{}: leap_second_record 0x244-0x24b.7 (8)
0x240|            2e 13 5c 92                        |    ..\.        |        occur: "1994-07-01T00:00:18Z" (773020818) 0x244-0x247.7 (4)
0x240|                        00 00 00 13            |        ....    |        corr: 19 0x248-0x24b.7 (4)
     |                                               |                |      [19]{}: leap_second_record 0x24c-0x253.7 (8)
0x240|                                    30 e7 24 13|            0.$.|        occur: "1996-01-01T00:00:19Z" (820454419) 0x24c-0x24f.7 (4)
0x250|00 00 00 14                                    |....            |        corr: 20 0x250-0x253.7 (4)
     |                                               |                |      [20]{}: leap_second_record 0x254-0x25b.7 (8)
0x250|            33 b8 48 94                        |    3.H.        |        occur: "1997-07-01T00:00:20Z" (867715220) 0x254-0x257.7 (4)
0x250|                        00 00 00 15            |        ....    |        corr: 21 0x258-0x25b.7 (4)
     |                                               |                |      [21]{}: leap_second_record 0x25c-0x263.7 (8)
0x250|                                    36 8c 10 15|            6...|        occur: "1999-01-01T00:00:21Z" (915148821) 0x25c-0x25f.7 (4)
0x260|00 00 00 16                                    |....            |        corr: 22 0x260-0x263.7 (4)
     |                                               |                |      [22]{}: leap_second_record 0x264-0x26b.7 (8)
0x260|            43 b7 1b 96                        |    C...        |        occur: "2006-01-01T00:00:22Z" (1136073622) 0x264-0x267.7 (4)
0x260|                        00 00 00 17            |        ....    |        corr: 23 0x268-0x26b.7 (4)
     |                                               |                |      [23]{}: leap_second_record 0x26c-0x273.7 (8)
0x260|                                    49 5c 07 97|            I\..|        occur: "2009-01-01T00:00:23Z" (1230768023) 0x26c-0x26f.7 (4)
0x270|00 00 00 18                                    |....            |        corr: 24 0x270-0x273.7 (4)
     |                                               |                |      [24]{}: leap_second_record 0x274-0x27b.7 (8)
0x270|            4f ef 93 18                        |    O...        |        occur: "2012-07-01T00:00:24Z" (1341100824) 0x274-0x277.7 (4)
0x270|                        00 00 00 19            |        ....    |        corr: 25 0x278-0x27b.7 (4)
     |                                               |                |      [25]{}: leap_second_record 0x27c-0x283.7 (8)
0x270|                                    55 93 2d 99|            U.-.|        occur: "2015-07-01T00:00:25Z" (1435708825) 0x27c-0x27f.7 (4)
0x280|00 00 00 1a                                    |....            |        corr: 26 0x280-0x283.7 (4)
     |                                               |                |      [26]{}: leap_second_record 0x284-0x28b.7 (8)
0x280|            58 68 46 9a                        |    XhF.        |        occur: "2017-01-01T00:00:26Z" (1483228826) 0x284-0x287.7 (4)
0x280|                        00 00 00 1b            |        ....    |        corr: 27 0x288-0x28b.7 (4)
     |                                               |                |    standard_wall_indicators[0:8]: 0x28c-0x293.7 (8)
0x280|                                    00         |            .   |      [0]: 0 standard_wall_indicator (valid) 0x28c-0x28c.7 (1)
0x280|                                       01      |             .  |      [1]: 1 standard_wall_indicator (valid) 0x28d-0x28d.7 (1)
0x280|                                          00   |              . |      [2]: 0 standard_wall_indicator (valid) 0x28e-0x28e.7 (1)
0x280|                                             00|               .|      [3]: 0 standard_wall_indicator (valid) 0x28f-0x28f.7 (1)
0x290|00                                             |.               |      [4]: 0 standard_wall_indicator (valid) 0x290-0x290.7 (1)
0x290|   00                                          | .              |      [5]: 0 standard_wall_indicator (valid) 0x291-0x291.7 (1)
0x290|      00                                       |  .             |      [6]: 0 standard_wall_indicator (valid) 0x292-0x292.7 (1)
0x290|         00                                    |   .            |      [7]: 0 standard_wall_indicator (valid) 0x293-0x293.7 (1)
     |                                               |                |    ut_local_indicators[0:8]: 0x294-0x29b.7 (8)
0x290|            00                                 |    .           |      [0]: 0 ut_local_indicator (valid) 0x294-0x294.7 (1)
0x290|               01                              |     .          |      [1]: 1 ut_local_indicator (valid) 0x295-0x295.7 (1)
0x290|                  00                           |      .         |      [2]: 0 ut_local_indicator (valid) 0x296-0x296.7 (1)
0x290|                     00                        |       .        |      [3]: 0 ut_local_indicator (valid) 0x297-0x297.7 (1)
0x290|                        00                     |        .       |      [4]: 0 ut_local_indicator (valid) 0x298-0x298.7 (1)
0x290|                           00                  |         .      |      [5]: 0 ut_local_indicator (valid) 0x299-0x299.7 (1)
0x290|                              00               |          .     |      [6]: 0 ut_local_indicator (valid) 0x29a-0x29a.7 (1)
0x290|                                 00            |           .    |      [7]: 0 ut_local_indicator (valid) 0x29b-0x29b.7 (1)
     |                                               |                |  v2plusheader{}: 0x29c-0x2c7.7 (44)
0x290|                                    54 5a 69 66|            TZif|    magic: 0x545a6966 (valid) 0x29c-0x29f.7 (4)
0x2a0|32                                             |2               |    ver: "2" (0x32) (valid) 0x2a0-0x2a0.7 (1)
0x2a0|   00 00 00 00 00 00 00 00 00 00 00 00 00 00 00| ...............|    reserved: raw bits 0x2a1-0x2af.7 (15)
0x2b0|00 00 00 08                                    |....            |    isutcnt: 8 0x2b0-0x2b3.7 (4)
0x2b0|            00 00 00 08                        |    ....        |    isstdcnt: 8 0x2b4-0x2b7.7 (4)
0x2b0|                        00 00 00 1b            |        ....    |    leapcnt: 27 0x2b8-0x2bb.7 (4)
0x2b0|                                    00 00 00 40|            ...@|    timecnt: 64 0x2bc-0x2bf.7 (4)
0x2c0|00 00 00 08                                    |....            |    typecnt: 8 0x2c0-0x2c3.7 (4)
0x2c0|            00 00 00 18                        |    ....        |    charcnt: 24 0x2c4-0x2c7.7 (4)
     |                                               |                |  v2plusdatablock{}: 0x2c8-0x6a3.7 (988)
     |                                               |                |    transition_times[0:64]: 0x2c8-0x4c7.7 (512)
0x2c0|                        ff ff ff ff a5 b6 e8 70|        .......p|      [0]: "1922-01-01T07:00:00Z" (-1514739600) transition_time 0x2c8-0x2cf.7 (8)
0x2d0|ff ff ff ff af f2 6e e0                        |......n.        |      [1]: "1927-06-11T06:00:00Z" (-1343066400) transition_time 0x2d0-0x2d7.7 (8)
0x2d0|                        ff ff ff ff b6 66 56 60|        .....fV`|      [2]: "1930-11-15T06:00:00Z" (-1234807200) transition_time 0x2d8-0x2df.7 (8)
0x2e0|ff ff ff ff b7 43 d2 60                        |.....C.`        |      [3]: "1931-05-02T06:00:00Z" (-1220292000) transition_time 0x2e0-0x2e7.7 (8)
0x2e0|                        ff ff ff ff b8 0c 36 60|        ......6`|      [4]: "1931-10-01T06:00:00Z" (-1207159200) transition_time 0x2e8-0x2ef.7 (8)
0x2f0|ff ff ff ff b8 fd 86 f0                        |........        |      [5]: "1932-04-01T07:00:00Z" (-1191344400) transition_time 0x2f0-0x2f7.7 (8)
0x2f0|                        ff ff ff ff cb ea 71 60|        ......q`|      [6]: "1942-04-24T06:00:00Z" (-873828000) transition_time 0x2f8-0x2ff.7 (8)
0x300|ff ff ff ff d8 91 b4 f0                        |........        |      [7]: "1949-01-14T07:00:00Z" (-661539600) transition_time 0x300-0x307.7 (8)
0x300|                        00 00 00 00 00 00 70 80|        ......p.|      [8]: "1970-01-01T08:00:00Z" (28800) transition_time 0x308-0x30f.7 (8)
0x310|00 00 00 00 31 67 84 24                        |....1g.$        |      [9]: "1996-04-07T09:00:20Z" (828867620) transition_time 0x310-0x317.7 (8)
0x310|                        00 00 00 00 32 73 16 94|        ....2s..|      [10]: "1996-10-27T08:00:20Z" (846403220) transition_time 0x318-0x31f.7 (8)
0x320|00 00 00 00 33 47 66 24                        |....3Gf$        |      [11]: "1997-04-06T09:00:20Z" (860317220) transition_time 0x320-0x327.7 (8)
0x320|                        00 00 00 00 34 52 f8 95|        ....4R..|      [12]: "1997-10-26T08:00:21Z" (877852821) transition_time 0x328-0x32f.7 (8)
0x330|00 00 00 00 35 27 48 25                        |....5'H%        |      [13]: "1998-04-05T09:00:21Z" (891766821) transition_time 0x330-0x337.7 (8)
0x330|                        00 00 00 00 36 32 da 95|        ....62..|      [14]: "1998-10-25T08:00:21Z" (909302421) transition_time 0x338-0x33f.7 (8)
0x340|00 00 00 00 37 07 2a 26                        |....7.*&        |      [15]: "1999-04-04T09:00:22Z" (923216422) transition_time 0x340-0x347.7 (8)
0x340|                        00 00 00 00 38 1b f7 16|        ....8...|      [16]: "1999-10-31T08:00:22Z" (941356822) transition_time 0x348-0x34f.7 (8)
0x350|00 00 00 00 38 e7 0c 26                        |....8..&        |      [17]: "2000-04-02T09:00:22Z" (954666022) transition_time 0x350-0x357.7 (8)
0x350|                        00 00 00 00 39 fb d9 16|        ....9...|      [18]: "2000-10-29T08:00:22Z" (972806422) transition_time 0x358-0x35f.7 (8)
0x360|00 00 00 00 3a f5 12 a6                        |....:...        |      [19]: "2001-05-06T09:00:22Z" (989139622) transition_time 0x360-0x367.7 (8)
0x360|                        00 00 00 00 3b b6 d1 16|        ....;...|      [20]: "2001-09-30T08:00:22Z" (1001836822) transition_time 0x368-0x36f.7 (8)
0x370|00 00 00 00 3c b0 0a a6                        |....<...        |      [21]: "2002-04-07T09:00:22Z" (1018170022) transition_time 0x370-0x377.7 (8)
0x370|                        00 00 00 00 3d bb 9d 16|        ....=...|      [22]: "2002-10-27T08:00:22Z" (1035705622) transition_time 0x378-0x37f.7 (8)
0x380|00 00 00 00 3e 8f ec a6                        |....>...        |      [23]: "2003-04-06T09:00:22Z" (1049619622) transition_time 0x380-0x387.7 (8)
0x380|                        00 00 00 00 3f 9b 7f 16|        ....?...|      [24]: "2003-10-26T08:00:22Z" (1067155222) transition_time 0x388-0x38f.7 (8)
0x390|00 00 00 00 40 6f ce a6                        |....@o..        |      [25]: "2004-04-04T09:00:22Z" (1081069222) transition_time 0x390-0x397.7 (8)
0x390|                        00 00 00 00 41 84 9b 96|        ....A...|      [26]: "2004-10-31T08:00:22Z" (1099209622) transition_time 0x398-0x39f.7 (8)
0x3a0|00 00 00 00 42 4f b0 a6                        |....BO..        |      [27]: "2005-04-03T09:00:22Z" (1112518822) transition_time 0x3a0-0x3a7.7 (8)
0x3a0|                        00 00 00 00 43 64 7d 96|        ....Cd}.|      [28]: "2005-10-30T08:00:22Z" (1130659222) transition_time 0x3a8-0x3af.7 (8)
0x3b0|00 00 00 00 44 2f 92 a7                        |....D/..        |      [29]: "2006-04-02T09:00:23Z" (1143968423) transition_time 0x3b0-0x3b7.7 (8)
0x3b0|                        00 00 00 00 45 44 5f 97|        ....ED_.|      [30]: "2006-10-29T08:00:23Z" (1162108823) transition_time 0x3b8-0x3bf.7 (8)
0x3c0|00 00 00 00 46 0f 74 a7                        |....F.t.        |      [31]: "2007-04-01T09:00:23Z" (1175418023) transition_time 0x3c0-0x3c7.7 (8)
0x3c0|                        00 00 00 00 47 24 41 97|        ....G$A.|      [32]: "2007-10-28T08:00:23Z" (1193558423) transition_time 0x3c8-0x3cf.7 (8)
0x3d0|00 00 00 00 47 f8 91 27                        |....G..'        |      [33]: "2008-04-06T09:00:23Z" (1207472423) transition_time 0x3d0-0x3d7.7 (8)
0x3d0|                        00 00 00 00 49 04 23 97|        ....I.#.|      [34]: "2008-10-26T08:00:23Z" (1225008023) transition_time 0x3d8-0x3df.7 (8)
0x3e0|00 00 00 00 49 d8 73 28                        |....I.s(        |      [35]: "2009-04-05T09:00:24Z" (1238922024) transition_time 0x3e0-0x3e7.7 (8)
0x3e0|                        00 00 00 00 4a e4 05 98|        ....J...|      [36]: "2009-10-25T08:00:24Z" (1256457624) transition_time 0x3e8-0x3ef.7 (8)
0x3f0|00 00 00 00 4b b8 55 28                        |....K.U(        |      [37]: "2010-04-04T09:00:24Z" (1270371624) transition_time 0x3f0-0x3f7.7 (8)
0x3f0|                        00 00 00 00 4c cd 14 08|        ....L...|      [38]: "2010-10-31T07:00:24Z" (1288508424) transition_time 0x3f8-0x3ff.7 (8)
0x400|00 00 00 00 4d 98 29 18                        |....M.).        |      [39]: "2011-04-03T08:00:24Z" (1301817624) transition_time 0x400-0x407.7 (8)
0x400|                        00 00 00 00 4e ac f6 08|        ....N...|      [40]: "2011-10-30T07:00:24Z" (1319958024) transition_time 0x408-0x40f.7 (8)
0x410|00 00 00 00 4f 78 0b 18                        |....Ox..        |      [41]: "2012-04-01T08:00:24Z" (1333267224) transition_time 0x410-0x417.7 (8)
0x410|                        00 00 00 00 50 8c d8 09|        ....P...|      [42]: "2012-10-28T07:00:25Z" (1351407625) transition_time 0x418-0x41f.7 (8)
0x420|00 00 00 00 51 61 27 99                        |....Qa'.        |      [43]: "2013-04-07T08:00:25Z" (1365321625) transition_time 0x420-0x427.7 (8)
0x420|                        00 00 00 00 52 6c ba 09|        ....Rl..|      [44]: "2013-10-27T07:00:25Z" (1382857225) transition_time 0x428-0x42f.7 (8)
0x430|00 00 00 00 53 41 09 99                        |....SA..        |      [45]: "2014-04-06T08:00:25Z" (1396771225) transition_time 0x430-0x437.7 (8)
0x430|                        00 00 00 00 54 4c 9c 09|        ....TL..|      [46]: "2014-10-26T07:00:25Z" (1414306825) transition_time 0x438-0x43f.7 (8)
0x440|00 00 00 00 55 20 eb 99                        |....U ..        |      [47]: "2015-04-05T08:00:25Z" (1428220825) transition_time 0x440-0x447.7 (8)
0x440|                        00 00 00 00 56 2c 7e 0a|        ....V,~.|      [48]: "2015-10-25T07:00:26Z" (1445756426) transition_time 0x448-0x44f.7 (8)
0x450|00 00 00 00 57 00 cd 9a                        |....W...        |      [49]: "2016-04-03T08:00:26Z" (1459670426) transition_time 0x450-0x457.7 (8)
0x450|                        00 00 00 00 58 15 9a 8a|        ....X...|      [50]: "2016-10-30T07:00:26Z" (1477810826) transition_time 0x458-0x45f.7 (8)
0x460|00 00 00 00 58 e0 af 9b                        |....X...        |      [51]: "2017-04-02T08:00:27Z" (1491120027) transition_time 0x460-0x467.7 (8)
0x460|                        00 00 00 00 59 f5 7c 8b|        ....Y.|.|      [52]: "2017-10-29T07:00:27Z" (1509260427) transition_time 0x468-0x46f.7 (8)
0x470|00 00 00 00 5a c0 91 9b                        |....Z...        |      [53]: "2018-04-01T08:00:27Z" (1522569627) transition_time 0x470-0x477.7 (8)
0x470|                        00 00 00 00 5b d5 5e 8b|        ....[.^.|      [54]: "2018-10-28T07:00:27Z" (1540710027) transition_time 0x478-0x47f.7 (8)
0x480|00 00 00 00 5c a9 ae 1b                        |....\...        |      [55]: "2019-04-07T08:00:27Z" (1554624027) transition_time 0x480-0x487.7 (8)
0x480|                        00 00 00 00 5d b5 40 8b|        ....].@.|      [56]: "2019-10-27T07:00:27Z" (1572159627) transition_time 0x488-0x48f.7 (8)
0x490|00 00 00 00 5e 89 90 1b                        |....^...        |      [57]: "2020-04-05T08:00:27Z" (1586073627) transition_time 0x490-0x497.7 (8)
0x490|                        00 00 00 00 5f 95 22 8b|        ...._.".|      [58]: "2020-10-25T07:00:27Z" (1603609227) transition_time 0x498-0x49f.7 (8)
0x4a0|00 00 00 00 60 69 72 1b                        |....`ir.        |      [59]: "2021-04-04T08:00:27Z" (1617523227) transition_time 0x4a0-0x4a7.7 (8)
0x4a0|                        00 00 00 00 61 7e 3f 0b|        ....a~?.|      [60]: "2021-10-31T07:00:27Z" (1635663627) transition_time 0x4a8-0x4af.7 (8)
0x4b0|00 00 00 00 62 49 54 1b                        |....bIT.        |      [61]: "2022-04-03T08:00:27Z" (1648972827) transition_time 0x4b0-0x4b7.7 (8)
0x4b0|                        00 00 00 00 63 5e 21 0b|        ....c^!.|      [62]: "2022-10-30T07:00:27Z" (1667113227) transition_time 0x4b8-0x4bf.7 (8)
0x4c0|00 00 00 00 64 9b 78 1b                        |....d.x.        |      [63]: "2023-06-28T00:00:27Z" (1687910427) transition_time 0x4c0-0x4c7.7 (8)
     |                                               |                |    transition_types[0:64]: 0x4c8-0x507.7 (64)
0x4c0|                        01                     |        .       |      [0]: 1 transition_type 0x4c8-0x4c8.7 (1)
0x4c0|                           02                  |         .      |      [1]: 2 transition_type 0x4c9-0x4c9.7 (1)
0x4c0|                              04               |          .     |      [2]: 4 transition_type 0x4ca-0x4ca.7 (1)
0x4c0|                                 03            |           .    |      [3]: 3 transition_type 0x4cb-0x4cb.7 (1)
0x4c0|                                    04         |            .   |      [4]: 4 transition_type 0x4cc-0x4cc.7 (1)
0x4c0|                                       02      |             .  |      [5]: 2 transition_type 0x4cd-0x4cd.7 (1)
0x4c0|                                          04   |              . |      [6]: 4 transition_type 0x4ce-0x4ce.7 (1)
0x4c0|                                             05|               .|      [7]: 5 transition_type 0x4cf-0x4cf.7 (1)
0x4d0|04                                             |.               |      [8]: 4 transition_type 0x4d0-0x4d0.7 (1)
0x4d0|   03                                          | .              |      [9]: 3 transition_type 0x4d1-0x4d1.7 (1)
0x4d0|      04                                       |  .             |      [10]: 4 transition_type 0x4d2-0x4d2.7 (1)
0x4d0|         03                                    |   .            |      [11]: 3 transition_type 0x4d3-0x4d3.7 (1)
0x4d0|            04                                 |    .           |      [12]: 4 transition_type 0x4d4-0x4d4.7 (1)
0x4d0|               03                              |     .          |      [13]: 3 transition_type 0x4d5-0x4d5.7 (1)
0x4d0|                  04                           |      .         |      [14]: 4 transition_type 0x4d6-0x4d6.7 (1)
0x4d0|                     03                        |       .        |      [15]: 3 transition_type 0x4d7-0x4d7.7 (1)
0x4d0|                        04                     |        .       |      [16]: 4 transition_type 0x4d8-0x4d8.7 (1)
0x4d0|                           03                  |         .      |      [17]: 3 transition_type 0x4d9-0x4d9.7 (1)
0x4d0|                              04               |          .     |      [18]: 4 transition_type 0x4da-0x4da.7 (1)
0x4d0|                                 03            |           .    |      [19]: 3 transition_type 0x4db-0x4db.7 (1)
0x4d0|                                    04         |            .   |      [20]: 4 transition_type 0x4dc-0x4dc.7 (1)
0x4d0|                                       03      |             .  |      [21]: 3 transition_type 0x4dd-0x4dd.7 (1)
0x4d0|                                          04   |              . |      [22]: 4 transition_type 0x4de-0x4de.7 (1)
0x4d0|                                             03|               .|      [23]: 3 transition_type 0x4df-0x4df.7 (1)
0x4e0|04                                             |.               |      [24]: 4 transition_type 0x4e0-0x4e0.7 (1)
0x4e0|   03                                          | .              |      [25]: 3 transition_type 0x4e1-0x4e1.7 (1)
0x4e0|      04                                       |  .             |      [26]: 4 transition_type 0x4e2-0x4e2.7 (1)
0x4e0|         03                                    |   .            |      [27]: 3 transition_type 0x4e3-0x4e3.7 (1)
0x4e0|            04                                 |    .           |      [28]: 4 transition_type 0x4e4-0x4e4.7 (1)
0x4e0|               03                              |     .          |      [29]: 3 transition_type 0x4e5-0x4e5.7 (1)
0x4e0|                  04                           |      .         |      [30]: 4 transition_type 0x4e6-0x4e6.7 (1)
0x4e0|                     03                        |       .        |      [31]: 3 transition_type 0x4e7-0x4e7.7 (1)
0x4e0|                        04                     |        .       |      [32]: 4 transition_type 0x4e8-0x4e8.7 (1)
0x4e0|                           03                  |         .      |      [33]: 3 transition_type 0x4e9-0x4e9.7 (1)
0x4e0|                              04               |          .     |      [34]: 4 transition_type 0x4ea-0x4ea.7 (1)
0x4e0|                                 03            |           .    |      [35]: 3 transition_type 0x4eb-0x4eb.7 (1)
0x4e0|                                    04         |            .   |      [36]: 4 transition_type 0x4ec-0x4ec.7 (1)
0x4e0|                                       06      |             .  |      [37]: 6 transition_type 0x4ed-0x4ed.7 (1)
0x4e0|                                          02   |              . |      [38]: 2 transition_type 0x4ee-0x4ee.7 (1)
0x4e0|                                             06|               .|      [39]: 6 transition_type 0x4ef-0x4ef.7 (1)
0x4f0|02                                             |.               |      [40]: 2 transition_type 0x4f0-0x4f0.7 (1)
0x4f0|   06                                          | .              |      [41]: 6 transition_type 0x4f1-0x4f1.7 (1)
0x4f0|      02                                       |  .             |      [42]: 2 transition_type 0x4f2-0x4f2.7 (1)
0x4f0|         06                                    |   .            |      [43]: 6 transition_type 0x4f3-0x4f3.7 (1)
0x4f0|            02                                 |    .           |      [44]: 2 transition_type 0x4f4-0x4f4.7 (1)
0x4f0|               06                              |     .          |      [45]: 6 transition_type 0x4f5-0x4f5.7 (1)
0x4f0|                  02                           |      .         |      [46]: 2 transition_type 0x4f6-0x4f6.7 (1)
0x4f0|                     06                        |       .        |      [47]: 6 transition_type 0x4f7-0x4f7.7 (1)
0x4f0|                        02                     |        .       |      [48]: 2 transition_type 0x4f8-0x4f8.7 (1)
0x4f0|                           06                  |         .      |      [49]: 6 transition_type 0x4f9-0x4f9.7 (1)
0x4f0|                              02               |          .     |      [50]: 2 transition_type 0x4fa-0x4fa.7 (1)
0x4f0|                                 06            |           .    |      [51]: 6 transition_type 0x4fb-0x4fb.7 (1)
0x4f0|                                    02         |            .   |      [52]: 2 transition_type 0x4fc-0x4fc.7 (1)
0x4f0|                                       06      |             .  |      [53]: 6 transition_type 0x4fd-0x4fd.7 (1)
0x4f0|                                          02   |              . |      [54]: 2 transition_type 0x4fe-0x4fe.7 (1)
0x4f0|                                             06|               .|      [55]: 6 transition_type 0x4ff-0x4ff.7 (1)
0x500|02                                             |.               |      [56]: 2 transition_type 0x500-0x500.7 (1)
0x500|   06                                          | .              |      [57]: 6 transition_type 0x501-0x501.7 (1)
0x500|      02                                       |  .             |      [58]: 2 transition_type 0x502-0x502.7 (1)
0x500|         06                                    |   .            |      [59]: 6 transition_type 0x503-0x503.7 (1)
0x500|            02                                 |    .           |      [60]: 2 transition_type 0x504-0x504.7 (1)
0x500|               06                              |     .          |      [61]: 6 transition_type 0x505-0x505.7 (1)
0x500|                  02                           |      .         |      [62]: 2 transition_type 0x506-0x506.7 (1)
0x500|                     02                        |       .        |      [63]: 2 transition_type 0x507-0x507.7 (1)
     |                                               |                |    local_time_type_records[0:8]: 0x508-0x537.7 (48)
     |                                               |                |      [0]{}: local_time_type 0x508-0x50d.7 (6)
0x500|                        ff ff 9d 54            |        ...T    |        utoff: -25260 (valid) 0x508-0x50b.7 (4)
0x500|                                    00         |            .   |        dst: 0 (valid) 0x50c-0x50c.7 (1)
0x500|                                       00      |             .  |        idx: 0 (valid) 0x50d-0x50d.7 (1)
     |                                               |                |      [1]{}: local_time_type 0x50e-0x513.7 (6)
0x500|                                          ff ff|              ..|        utoff: -25200 (valid) 0x50e-0x511.7 (4)
0x510|9d 90                                          |..              |
0x510|      00                                       |  .             |        dst: 0 (valid) 0x512-0x512.7 (1)
0x510|         04                                    |   .            |        idx: 4 (valid) 0x513-0x513.7 (1)
     |                                               |                |      [2]{}: local_time_type 0x514-0x519.7 (6)
0x510|            ff ff ab a0                        |    ....        |        utoff: -21600 (valid) 0x514-0x517.7 (4)
0x510|                        00                     |        .       |        dst: 0 (valid) 0x518-0x518.7 (1)
0x510|                           08                  |         .      |        idx: 8 (valid) 0x519-0x519.7 (1)
     |                                               |                |      [3]{}: local_time_type 0x51a-0x51f.7 (6)
0x510|                              ff ff ab a0      |          ....  |        utoff: -21600 (valid) 0x51a-0x51d.7 (4)
0x510|                                          01   |              . |        dst: 1 (valid) 0x51e-0x51e.7 (1)
0x510|                                             0c|               .|        idx: 12 (valid) 0x51f-0x51f.7 (1)
     |                                               |                |      [4]{}: local_time_type 0x520-0x525.7 (6)
0x520|ff ff 9d 90                                    |....            |        utoff: -25200 (valid) 0x520-0x523.7 (4)
0x520|            00                                 |    .           |        dst: 0 (valid) 0x524-0x524.7 (1)
0x520|               04                              |     .          |        idx: 4 (valid) 0x525-0x525.7 (1)
     |                                               |                |      [5]{}: local_time_type 0x526-0x52b.7 (6)
0x520|                  ff ff 8f 80                  |      ....      |        utoff: -28800 (valid) 0x526-0x529.7 (4)
0x520|                              00               |          .     |        dst: 0 (valid) 0x52a-0x52a.7 (1)
0x520|                                 10            |           .    |        idx: 16 (valid) 0x52b-0x52b.7 (1)
     |                                               |                |      [6]{}: local_time_type 0x52c-0x531.7 (6)
0x520|                                    ff ff b9 b0|            ....|        utoff: -18000 (valid) 0x52c-0x52f.7 (4)
0x530|01                                             |.               |        dst: 1 (valid) 0x530-0x530.7 (1)
0x530|   14                                          | .              |        idx: 20 (valid) 0x531-0x531.7 (1)
     |                                               |                |      [7]{}: local_time_type 0x532-0x537.7 (6)
0x530|      ff ff ab a0                              |  ....          |        utoff: -21600 (valid) 0x532-0x535.7 (4)
0x530|                  00                           |      .         |        dst: 0 (valid) 0x536-0x536.7 (1)
0x530|                     08                        |       .        |        idx: 8 (valid) 0x537-0x537.7 (1)
     |                                               |                |    time_zone_designations[0:6]: 0x538-0x54f.7 (24)
0x530|                        4c 4d 54 00            |        LMT.    |      [0]: "LMT" time_zone_designation 0x538-0x53b.7 (4)
0x530|                                    4d 53 54 00|            MST.|      [1]: "MST" time_zone_designation 0x53c-0x53f.7 (4)
0x540|43 53 54 00                                    |CST.            |      [2]: "CST" time_zone_designation 0x540-0x543.7 (4)
0x540|            4d 44 54 00                        |    MDT.        |      [3]: "MDT" time_zone_designation 0x544-0x547.7 (4)
0x540|                        50 53 54 00            |        PST.    |      [4]: "PST" time_zone_designation 0x548-0x54b.7 (4)
0x540|                                    43 44 54 00|            CDT.|      [5]: "CDT" time_zone_designation 0x54c-0x54f.7 (4)
     |                                               |                |    leap_second_records[0:27]: 0x550-0x693.7 (324)
     |                                               |                |      [0]{}: leap_second_record 0x550-0x55b.7 (12)
0x550|00 00 00 00 04 b2 58 00                        |......X.        |        occur: "1972-07-01T00:00:00Z" (78796800) 0x550-0x557.7 (8)
0x550|                        00 00 00 01            |        ....    |        corr: 1 0x558-0x55b.7 (4)
     |                                               |                |      [1]{}: leap_second_record 0x55c-0x567.7 (12)
0x550|                                    00 00 00 00|            ....|        occur: "1973-01-01T00:00:01Z" (94694401) 0x55c-0x563.7 (8)
0x560|05 a4 ec 01                                    |....            |
0x560|            00 00 00 02                        |    ....        |        corr: 2 0x564-0x567.7 (4)
     |                                               |                |      [2]{}: leap_second_record 0x568-0x573.7 (12)
0x560|                        00 00 00 00 07 86 1f 82|        ........|        occur: "1974-01-01T00:00:02Z" (126230402) 0x568-0x56f.7 (8)
0x570|00 00 00 03                                    |....            |        corr: 3 0x570-0x573.7 (4)
     |                                               |                |      [3]{}: leap_second_record 0x574-0x57f.7 (12)
0x570|            00 00 00 00 09 67 53 03            |    .....gS.    |        occur: "1975-01-01T00:00:03Z" (157766403) 0x574-0x57b.7 (8)
0x570|                                    00 00 00 04|            ....|        corr: 4 0x57c-0x57f.7 (4)
     |                                               |                |      [4]{}: leap_second_record 0x580-0x58b.7 (12)
0x580|00 00 00 00 0b 48 86 84                        |.....H..        |        occur: "1976-01-01T00:00:04Z" (189302404) 0x580-0x587.7 (8)
0x580|                        00 00 00 05            |        ....    |        corr: 5 0x588-0x58b.7 (4)
     |                                               |                |      [5]{}: leap_second_record 0x58c-0x597.7 (12)
0x580|                                    00 00 00 00|            ....|        occur: "1977-01-01T00:00:05Z" (220924805) 0x58c-0x593.7 (8)
0x590|0d 2b 0b 85                                    |.+..            |
0x590|            00 00 00 06                        |    ....        |        corr: 6 0x594-0x597.7 (4)
     |                                               |                |      [6]{}: leap_second_record 0x598-0x5a3.7 (12)
0x590|                        00 00 00 00 0f 0c 3f 06|        ......?.|        occur: "1978-01-01T00:00:06Z" (252460806) 0x598-0x59f.7 (8)
0x5a0|00 00 00 07                                    |....            |        corr: 7 0x5a0-0x5a3.7 (4)
     |                                               |                |      [7]{}: leap_second_record 0x5a4-0x5af.7 (12)
0x5a0|            00 00 00 00 10 ed 72 87            |    ......r.    |        occur: "1979-01-01T00:00:07Z" (283996807) 0x5a4-0x5ab.7 (8)
0x5a0|                                    00 00 00 08|            ....|        corr: 8 0x5ac-0x5af.7 (4)
     |                                               |                |      [8]{}: leap_second_record 0x5b0-0x5bb.7 (12)
0x5b0|00 00 00 00 12 ce a6 08                        |........        |        occur: "1980-01-01T00:00:08Z" (315532808) 0x5b0-0x5b7.7 (8)
0x5b0|                        00 00 00 09            |        ....    |        corr: 9 0x5b8-0x5bb.7 (4)
     |                                               |                |      [9]{}: leap_second_record 0x5bc-0x5c7.7 (12)
0x5b0|                                    00 00 00 00|            ....|        occur: "1981-07-01T00:00:09Z" (362793609) 0x5bc-0x5c3.7 (8)
0x5c0|15 9f ca 89                                    |....            |
0x5c0|            00 00 00 0a                        |    ....        |        corr: 10 0x5c4-0x5c7.7 (4)
     |                                               |                |      [10]{}: leap_second_record 0x5c8-0x5d3.7 (12)
0x5c0|                        00 00 00 00 17 80 fe 0a|        ........|        occur: "1982-07-01T00:00:10Z" (394329610) 0x5c8-0x5cf.7 (8)
0x5d0|00 00 00 0b                                    |....            |        corr: 11 0x5d0-0x5d3.7 (4)
     |                                               |                |      [11]{}: leap_second_record 0x5d4-0x5df.7 (12)
0x5d0|            00 00 00 00 19 62 31 8b            |    .....b1.    |        occur: "1983-07-01T00:00:11Z" (425865611) 0x5d4-0x5db.7 (8)
0x5d0|                                    00 00 00 0c|            ....|        corr: 12 0x5dc-0x5df.7 (4)
     |                                               |                |      [12]{}: leap_second_record 0x5e0-0x5eb.7 (12)
0x5e0|00 00 00 00 1d 25 ea 0c                        |.....%..        |        occur: "1985-07-01T00:00:12Z" (489024012) 0x5e0-0x5e7.7 (8)
0x5e0|                        00 00 00 0d            |        ....    |        corr: 13 0x5e8-0x5eb.7 (4)
     |                                               |                |      [13]{}: leap_second_record 0x5ec-0x5f7.7 (12)
0x5e0|                                    00 00 00 00|            ....|        occur: "1988-01-01T00:00:13Z" (567993613) 0x5ec-0x5f3.7 (8)
0x5f0|21 da e5 0d                                    |!...            |
0x5f0|            00 00 00 0e                        |    ....        |        corr: 14 0x5f4-0x5f7.7 (4)
     |                                               |                |      [14]{}: leap_second_record 0x5f8-0x603.7 (12)
0x5f0|                        00 00 00 00 25 9e 9d 8e|        ....%...|        occur: "1990-01-01T00:00:14Z" (631152014) 0x5f8-0x5ff.7 (8)
0x600|00 00 00 0f                                    |....            |        corr: 15 0x600-0x603.7 (4)
     |                                               |                |      [15]{}: leap_second_record 0x604-0x60f.7 (12)
0x600|            00 00 00 00 27 7f d1 0f            |    ....'...    |        occur: "1991-01-01T00:00:15Z" (662688015) 0x604-0x60b.7 (8)
0x600|                                    00 00 00 10|            ....|        corr: 16 0x60c-0x60f.7 (4)
     |                                               |                |      [16]{}: leap_second_record 0x610-0x61b.7 (12)
0x610|00 00 00 00 2a 50 f5 90                        |....*P..        |        occur: "1992-07-01T00:00:16Z" (709948816) 0x610-0x617.7 (8)
0x610|                        00 00 00 11            |        ....    |        corr: 17 0x618-0x61b.7 (4)
     |                                               |                |      [17]{}: leap_second_record 0x61c-0x627.7 (12)
0x610|                                    00 00 00 00|            ....|        occur: "1993-07-01T00:00:17Z" (741484817) 0x61c-0x623.7 (8)
0x620|2c 32 29 11                                    |,2).            |
0x620|            00 00 00 12                        |    ....        |        corr: 18 0x624-0x627.7 (4)
     |                                               |                |      [18]{}: leap_second_record 0x628-0x633.7 (12)
0x620|                        00 00 00 00 2e 13 5c 92|        ......\.|        occur: "1994-07-01T00:00:18Z" (773020818) 0x628-0x62f.7 (8)
0x630|00 00 00 13                                    |....            |        corr: 19 0x630-0x633.7 (4)
     |                                               |                |      [19]{}: leap_second_record 0x634-0x63f.7 (12)
0x630|            00 00 00 00 30 e7 24 13            |    ....0.$.    |        occur: "1996-01-01T00:00:19Z" (820454419) 0x634-0x63b.7 (8)
0x630|                                    00 00 00 14|            ....|        corr: 20 0x63c-0x63f.7 (4)
     |                                               |                |      [20]{}: leap_second_record 0x640-0x64b.7 (12)
0x640|00 00 00 00 33 b8 48 94                        |....3.H.        |        occur: "1997-07-01T00:00:20Z" (867715220) 0x640-0x647.7 (8)
0x640|                        00 00 00 15            |        ....    |        corr: 21 0x648-0x64b.7 (4)
     |                                               |                |      [21]{}: leap_second_record 0x64c-0x657.7 (12)
0x640|                                    00 00 00 00|            ....|        occur: "1999-01-01T00:00:21Z" (915148821) 0x64c-0x653.7 (8)
0x650|36 8c 10 15                                    |6...            |
0x650|            00 00 00 16                        |    ....        |        corr: 22 0x654-0x657.7 (4)
     |                                               |                |      [22]{}: leap_second_record 0x658-0x663.7 (12)
0x650|                        00 00 00 00 43 b7 1b 96|        ....C...|        occur: "2006-01-01T00:00:22Z" (1136073622) 0x658-0x65f.7 (8)
0x660|00 00 00 17                                    |....            |        corr: 23 0x660-0x663.7 (4)
     |                                               |                |      [23]{}: leap_second_record 0x664-0x66f.7 (12)
0x660|            00 00 00 00 49 5c 07 97            |    ....I\..    |        occur: "2009-01-01T00:00:23Z" (1230768023) 0x664-0x66b.7 (8)
0x660|                                    00 00 00 18|            ....|        corr: 24 0x66c-0x66f.7 (4)
     |                                               |                |      [24]{}: leap_second_record 0x670-0x67b.7 (12)
0x670|00 00 00 00 4f ef 93 18                        |....O...        |        occur: "2012-07-01T00:00:24Z" (1341100824) 0x670-0x677.7 (8)
0x670|                        00 00 00 19            |        ....    |        corr: 25 0x678-0x67b.7 (4)
     |                                               |                |      [25]{}: leap_second_record 0x67c-0x687.7 (12)
0x670|                                    00 00 00 00|            ....|        occur: "2015-07-01T00:00:25Z" (1435708825) 0x67c-0x683.7 (8)
0x680|55 93 2d 99                                    |U.-.            |
0x680|            00 00 00 1a                        |    ....        |        corr: 26 0x684-0x687.7 (4)
     |                                               |                |      [26]{}: leap_second_record 0x688-0x693.7 (12)
0x680|                        00 00 00 00 58 68 46 9a|        ....XhF.|        occur: "2017-01-01T00:00:26Z" (1483228826) 0x688-0x68f.7 (8)
0x690|00 00 00 1b                                    |....            |        corr: 27 0x690-0x693.7 (4)
     |                                               |                |    standard_wall_indicators[0:8]: 0x694-0x69b.7 (8)
0x690|            00                                 |    .           |      [0]: 0 standard_wall_indicator (valid) 0x694-0x694.7 (1)
0x690|               01                              |     .          |      [1]: 1 standard_wall_indicator (valid) 0x695-0x695.7 (1)
0x690|                  00                           |      .         |      [2]: 0 standard_wall_indicator (valid) 0x696-0x696.7 (1)
0x690|                     00                        |       .        |      [3]: 0 standard_wall_indicator (valid) 0x697-0x697.7 (1)
0x690|                        00                     |        .       |      [4]: 0 standard_wall_indicator (valid) 0x698-0x698.7 (1)
0x690|                           00                  |         .      |      [5]: 0 standard_wall_indicator (valid) 0x699-0x699.7 (1)
0x690|                              00               |          .     |      [6]: 0 standard_wall_indicator (valid) 0x69a-0x69a.7 (1)
0x690|                                 00            |           .    |      [7]: 0 standard_wall_indicator (valid) 0x69b-0x69b.7 (1)
     |                                               |                |    ut_local_indicators[0:8]: 0x69c-0x6a3.7 (8)
0x690|                                    00         |            .   |      [0]: 0 ut_local_indicator (valid) 0x69c-0x69c.7 (1)
0x690|                                       01      |             .  |      [1]: 1 ut_local_indicator (valid) 0x69d-0x69d.7 (1)
0x690|                                          00   |              . |      [2]: 0 ut_local_indicator (valid) 0x69e-0x69e.7 (1)
0x690|                                             00|               .|      [3]: 0 ut_local_indicator (valid) 0x69f-0x69f.7 (1)
0x6a0|00                                             |.               |      [4]: 0 ut_local_indicator (valid) 0x6a0-0x6a0.7 (1)
0x6a0|   00                                          | .              |      [5]: 0 ut_local_indicator (valid) 0x6a1-0x6a1.7 (1)
0x6a0|      00                                       |  .             |      [6]: 0 ut_local_indicator (valid) 0x6a2-0x6a2.7 (1)
0x6a0|         00                                    |   .            |      [7]: 0 ut_local_indicator (valid) 0x6a3-0x6a3.7 (1)
     |                                               |                |  footer{}: 0x6a4-0x6a5.7 (2)
0x6a0|            0a                                 |    .           |    nl1: 10 (valid) 0x6a4-0x6a4.7 (1)
     |                                               |                |    tz_string: "" 0x6a5-NA (0)
0x6a0|               0a|                             |     .|         |    nl2: 10 (valid) 0x6a5-0x6a5.7 (1)
