$ fq -d tzif dv Bahia
     |00 01 02 03 04 05 06 07 08 09 0a 0b 0c 0d 0e 0f|0123456789abcdef|.{}: Bahia (tzif) 0x0-0x615.7 (1558)
     |                                               |                |  v1header{}: 0x0-0x2b.7 (44)
0x000|54 5a 69 66                                    |TZif            |    magic: 0x545a6966 (valid) 0x0-0x3.7 (4)
0x000|            32                                 |    2           |    ver: "2" (0x32) (valid) 0x4-0x4.7 (1)
0x000|               00 00 00 00 00 00 00 00 00 00 00|     ...........|    reserved: raw bits 0x5-0x13.7 (15)
0x010|00 00 00 00                                    |....            |
0x010|            00 00 00 00                        |    ....        |    isutcnt: 0 0x14-0x17.7 (4)
0x010|                        00 00 00 00            |        ....    |    isstdcnt: 0 0x18-0x1b.7 (4)
0x010|                                    00 00 00 1b|            ....|    leapcnt: 27 0x1c-0x1f.7 (4)
0x020|00 00 00 3e                                    |...>            |    timecnt: 62 0x20-0x23.7 (4)
0x020|            00 00 00 03                        |    ....        |    typecnt: 3 0x24-0x27.7 (4)
0x020|                        00 00 00 0c            |        ....    |    charcnt: 12 0x28-0x2b.7 (4)
     |                                               |                |  v1datablock{}: 0x2c-0x257.7 (556)
     |                                               |                |    transition_times[0:62]: 0x2c-0x123.7 (248)
0x020|                                    96 aa 6b 1c|            ..k.|      [0]: "1914-01-01T02:34:04Z" (-1767216356) transition_time 0x2c-0x2f.7 (4)
0x030|b8 0f 49 e0                                    |..I.            |      [1]: "1931-10-03T14:00:00Z" (-1206957600) transition_time 0x30-0x33.7 (4)
0x030|            b8 fd 40 a0                        |    ..@.        |      [2]: "1932-04-01T02:00:00Z" (-1191362400) transition_time 0x34-0x37.7 (4)
0x030|                        b9 f1 34 30            |        ..40    |      [3]: "1932-10-03T03:00:00Z" (-1175374800) transition_time 0x38-0x3b.7 (4)
0x030|                                    ba de 74 20|            ..t |      [4]: "1933-04-01T02:00:00Z" (-1159826400) transition_time 0x3c-0x3f.7 (4)
0x040|da 38 ae 30                                    |.8.0            |      [5]: "1949-12-01T03:00:00Z" (-633819600) transition_time 0x40-0x43.7 (4)
0x040|            da eb fa 30                        |    ...0        |      [6]: "1950-04-16T03:00:00Z" (-622069200) transition_time 0x44-0x47.7 (4)
0x040|                        dc 19 e1 b0            |        ....    |      [7]: "1950-12-01T03:00:00Z" (-602283600) transition_time 0x48-0x4b.7 (4)
0x040|                                    dc b9 59 20|            ..Y |      [8]: "1951-04-01T02:00:00Z" (-591832800) transition_time 0x4c-0x4f.7 (4)
0x050|dd fb 15 30                                    |...0            |      [9]: "1951-12-01T03:00:00Z" (-570747600) transition_time 0x50-0x53.7 (4)
0x050|            de 9b de 20                        |    ...         |      [10]: "1952-04-01T02:00:00Z" (-560210400) transition_time 0x54-0x57.7 (4)
0x050|                        df dd 9a 30            |        ...0    |      [11]: "1952-12-01T03:00:00Z" (-539125200) transition_time 0x58-0x5b.7 (4)
0x050|                                    e0 54 33 20|            .T3 |      [12]: "1953-03-01T02:00:00Z" (-531352800) transition_time 0x5c-0x5f.7 (4)
0x060|f4 97 ff b0                                    |....            |      [13]: "1963-12-09T03:00:00Z" (-191365200) transition_time 0x60-0x63.7 (4)
0x060|            f5 05 5e 20                        |    ..^         |      [14]: "1964-03-01T02:00:00Z" (-184197600) transition_time 0x64-0x67.7 (4)
0x060|                        f6 c0 64 30            |        ..d0    |      [15]: "1965-01-31T03:00:00Z" (-155163600) transition_time 0x68-0x6b.7 (4)
0x060|                                    f7 0e 1e a0|            ....|      [16]: "1965-03-31T02:00:00Z" (-150069600) transition_time 0x6c-0x6f.7 (4)
0x070|f8 51 2c 30                                    |.Q,0            |      [17]: "1965-12-01T03:00:00Z" (-128898000) transition_time 0x70-0x73.7 (4)
0x070|            f8 c7 c5 20                        |    ...         |      [18]: "1966-03-01T02:00:00Z" (-121125600) transition_time 0x74-0x77.7 (4)
0x070|                        fa 0a d2 b0            |        ....    |      [19]: "1966-11-01T03:00:00Z" (-99954000) transition_time 0x78-0x7b.7 (4)
0x070|                                    fa a8 f8 a0|            ....|      [20]: "1967-03-01T02:00:00Z" (-89589600) transition_time 0x7c-0x7f.7 (4)
0x080|fb ec 06 30                                    |...0            |      [21]: "1967-11-01T03:00:00Z" (-68418000) transition_time 0x80-0x83.7 (4)
0x080|            fc 8b 7d a0                        |    ..}.        |      [22]: "1968-03-01T02:00:00Z" (-57967200) transition_time 0x84-0x87.7 (4)
0x080|                        1d c9 8e 3d            |        ...=    |      [23]: "1985-11-02T03:00:13Z" (499748413) transition_time 0x88-0x8b.7 (4)
0x080|                                    1e 78 d7 ad|            .x..|      [24]: "1986-03-15T02:00:13Z" (511236013) transition_time 0x8c-0x8f.7 (4)
0x090|1f a0 35 bd                                    |..5.            |      [25]: "1986-10-25T03:00:13Z" (530593213) transition_time 0x90-0x93.7 (4)
0x090|            20 33 cf ad                        |     3..        |      [26]: "1987-02-14T02:00:13Z" (540266413) transition_time 0x94-0x97.7 (4)
0x090|                        21 81 69 3d            |        !.i=    |      [27]: "1987-10-25T03:00:13Z" (562129213) transition_time 0x98-0x9b.7 (4)
0x090|                                    22 0b c8 ae|            "...|      [28]: "1988-02-07T02:00:14Z" (571197614) transition_time 0x9c-0x9f.7 (4)
0x0a0|23 58 10 be                                    |#X..            |      [29]: "1988-10-16T03:00:14Z" (592974014) transition_time 0xa0-0xa3.7 (4)
0x0a0|            23 e2 70 2e                        |    #.p.        |      [30]: "1989-01-29T02:00:14Z" (602042414) transition_time 0xa4-0xa7.7 (4)
0x0a0|                        25 37 f2 be            |        %7..    |      [31]: "1989-10-15T03:00:14Z" (624423614) transition_time 0xa8-0xab.7 (4)
0x0a0|                                    25 d4 c7 2f|            %../|      [32]: "1990-02-11T02:00:15Z" (634701615) transition_time 0xac-0xaf.7 (4)
0x0b0|27 21 0f 3f                                    |'!.?            |      [33]: "1990-10-21T03:00:15Z" (656478015) transition_time 0xb0-0xb3.7 (4)
0x0b0|            27 bd e3 b0                        |    '...        |      [34]: "1991-02-17T02:00:16Z" (666756016) transition_time 0xb4-0xb7.7 (4)
0x0b0|                        29 00 f1 40            |        )..@    |      [35]: "1991-10-20T03:00:16Z" (687927616) transition_time 0xb8-0xbb.7 (4)
0x0b0|                                    29 94 8b 30|            )..0|      [36]: "1992-02-09T02:00:16Z" (697600816) transition_time 0xbc-0xbf.7 (4)
0x0c0|2a ea 0d c1                                    |*...            |      [37]: "1992-10-25T03:00:17Z" (719982017) transition_time 0xc0-0xc3.7 (4)
0x0c0|            2b 6b 32 b1                        |    +k2.        |      [38]: "1993-01-31T02:00:17Z" (728445617) transition_time 0xc4-0xc7.7 (4)
0x0c0|                        2c c0 b5 42            |        ,..B    |      [39]: "1993-10-17T03:00:18Z" (750826818) transition_time 0xc8-0xcb.7 (4)
0x0c0|                                    2d 66 c4 32|            -f.2|      [40]: "1994-02-20T02:00:18Z" (761709618) transition_time 0xcc-0xcf.7 (4)
0x0d0|2e a0 97 43                                    |...C            |      [41]: "1994-10-16T03:00:19Z" (782276419) transition_time 0xd0-0xd3.7 (4)
0x0d0|            2f 46 a6 33                        |    /F.3        |      [42]: "1995-02-19T02:00:19Z" (793159219) transition_time 0xd4-0xd7.7 (4)
0x0d0|                        30 80 79 43            |        0.yC    |      [43]: "1995-10-15T03:00:19Z" (813726019) transition_time 0xd8-0xdb.7 (4)
0x0d0|                                    31 1d 4d b4|            1.M.|      [44]: "1996-02-11T02:00:20Z" (824004020) transition_time 0xdc-0xdf.7 (4)
0x0e0|32 57 20 c4                                    |2W .            |      [45]: "1996-10-06T03:00:20Z" (844570820) transition_time 0xe0-0xe3.7 (4)
0x0e0|            33 06 6a 34                        |    3.j4        |      [46]: "1997-02-16T02:00:20Z" (856058420) transition_time 0xe4-0xe7.7 (4)
0x0e0|                        34 38 54 45            |        48TE    |      [47]: "1997-10-06T03:00:21Z" (876106821) transition_time 0xe8-0xeb.7 (4)
0x0e0|                                    34 f8 c1 35|            4..5|      [48]: "1998-03-01T02:00:21Z" (888717621) transition_time 0xec-0xef.7 (4)
0x0f0|36 20 1f 45                                    |6 .E            |      [49]: "1998-10-11T03:00:21Z" (908074821) transition_time 0xf0-0xf3.7 (4)
0x0f0|            36 cf 68 b6                        |    6.h.        |      [50]: "1999-02-21T02:00:22Z" (919562422) transition_time 0xf4-0xf7.7 (4)
0x0f0|                        37 f6 c6 c6            |        7...    |      [51]: "1999-10-03T03:00:22Z" (938919622) transition_time 0xf8-0xfb.7 (4)
0x0f0|                                    38 b8 85 36|            8..6|      [52]: "2000-02-27T02:00:22Z" (951616822) transition_time 0xfc-0xff.7 (4)
0x100|39 df e3 46                                    |9..F            |      [53]: "2000-10-08T03:00:22Z" (970974022) transition_time 0x100-0x103.7 (4)
0x100|            3a 8f 2c b6                        |    :.,.        |      [54]: "2001-02-18T02:00:22Z" (982461622) transition_time 0x104-0x107.7 (4)
0x100|                        3b c8 ff c6            |        ;...    |      [55]: "2001-10-14T03:00:22Z" (1003028422) transition_time 0x108-0x10b.7 (4)
0x100|                                    3c 6f 0e b6|            <o..|      [56]: "2002-02-17T02:00:22Z" (1013911222) transition_time 0x10c-0x10f.7 (4)
0x110|3d c4 91 46                                    |=..F            |      [57]: "2002-11-03T03:00:22Z" (1036292422) transition_time 0x110-0x113.7 (4)
0x110|            3e 4e f0 b6                        |    >N..        |      [58]: "2003-02-16T02:00:22Z" (1045360822) transition_time 0x114-0x117.7 (4)
0x110|                        4e 9a 48 c8            |        N.H.    |      [59]: "2011-10-16T03:00:24Z" (1318734024) transition_time 0x118-0x11b.7 (4)
0x110|                                    4f 49 92 38|            OI.8|      [60]: "2012-02-26T02:00:24Z" (1330221624) transition_time 0x11c-0x11f.7 (4)
0x120|64 9b 78 1b                                    |d.x.            |      [61]: "2023-06-28T00:00:27Z" (1687910427) transition_time 0x120-0x123.7 (4)
     |                                               |                |    transition_types[0:62]: 0x124-0x161.7 (62)
0x120|            02                                 |    .           |      [0]: 2 transition_type 0x124-0x124.7 (1)
0x120|               01                              |     .          |      [1]: 1 transition_type 0x125-0x125.7 (1)
0x120|                  02                           |      .         |      [2]: 2 transition_type 0x126-0x126.7 (1)
0x120|                     01                        |       .        |      [3]: 1 transition_type 0x127-0x127.7 (1)
0x120|                        02                     |        .       |      [4]: 2 transition_type 0x128-0x128.7 (1)
0x120|                           01                  |         .      |      [5]: 1 transition_type 0x129-0x129.7 (1)
0x120|                              02               |          .     |      [6]: 2 transition_type 0x12a-0x12a.7 (1)
0x120|                                 01            |           .    |      [7]: 1 transition_type 0x12b-0x12b.7 (1)
0x120|                                    02         |            .   |      [8]: 2 transition_type 0x12c-0x12c.7 (1)
0x120|                                       01      |             .  |      [9]: 1 transition_type 0x12d-0x12d.7 (1)
0x120|                                          02   |              . |      [10]: 2 transition_type 0x12e-0x12e.7 (1)
0x120|                                             01|               .|      [11]: 1 transition_type 0x12f-0x12f.7 (1)
0x130|02                                             |.               |      [12]: 2 transition_type 0x130-0x130.7 (1)
0x130|   01                                          | .              |      [13]: 1 transition_type 0x131-0x131.7 (1)
0x130|      02                                       |  .             |      [14]: 2 transition_type 0x132-0x132.7 (1)
0x130|         01                                    |   .            |      [15]: 1 transition_type 0x133-0x133.7 (1)
0x130|            02                                 |    .           |      [16]: 2 transition_type 0x134-0x134.7 (1)
0x130|               01                              |     .          |      [17]: 1 transition_type 0x135-0x135.7 (1)
0x130|                  02                           |      .         |      [18]: 2 transition_type 0x136-0x136.7 (1)
0x130|                     01                        |       .        |      [19]: 1 transition_type 0x137-0x137.7 (1)
0x130|                        02                     |        .       |      [20]: 2 transition_type 0x138-0x138.7 (1)
0x130|                           01                  |         .      |      [21]: 1 transition_type 0x139-0x139.7 (1)
0x130|                              02               |          .     |      [22]: 2 transition_type 0x13a-0x13a.7 (1)
0x130|                                 01            |           .    |      [23]: 1 transition_type 0x13b-0x13b.7 (1)
0x130|                                    02         |            .   |      [24]: 2 transition_type 0x13c-0x13c.7 (1)
0x130|                                       01      |             .  |      [25]: 1 transition_type 0x13d-0x13d.7 (1)
0x130|                                          02   |              . |      [26]: 2 transition_type 0x13e-0x13e.7 (1)
0x130|                                             01|               .|      [27]: 1 transition_type 0x13f-0x13f.7 (1)
0x140|02                                             |.               |      [28]: 2 transition_type 0x140-0x140.7 (1)
0x140|   01                                          | .              |      [29]: 1 transition_type 0x141-0x141.7 (1)
0x140|      02                                       |  .             |      [30]: 2 transition_type 0x142-0x142.7 (1)
0x140|         01                                    |   .            |      [31]: 1 transition_type 0x143-0x143.7 (1)
0x140|            02                                 |    .           |      [32]: 2 transition_type 0x144-0x144.7 (1)
0x140|               01                              |     .          |      [33]: 1 transition_type 0x145-0x145.7 (1)
0x140|                  02                           |      .         |      [34]: 2 transition_type 0x146-0x146.7 (1)
0x140|                     01                        |       .        |      [35]: 1 transition_type 0x147-0x147.7 (1)
0x140|                        02                     |        .       |      [36]: 2 transition_type 0x148-0x148.7 (1)
0x140|                           01                  |         .      |      [37]: 1 transition_type 0x149-0x149.7 (1)
0x140|                              02               |          .     |      [38]: 2 transition_type 0x14a-0x14a.7 (1)
0x140|                                 01            |           .    |      [39]: 1 transition_type 0x14b-0x14b.7 (1)
0x140|                                    02         |            .   |      [40]: 2 transition_type 0x14c-0x14c.7 (1)
0x140|                                       01      |             .  |      [41]: 1 transition_type 0x14d-0x14d.7 (1)
0x140|                                          02   |              . |      [42]: 2 transition_type 0x14e-0x14e.7 (1)
0x140|                                             01|               .|      [43]: 1 transition_type 0x14f-0x14f.7 (1)
0x150|02                                             |.               |      [44]: 2 transition_type 0x150-0x150.7 (1)
0x150|   01                                          | .              |      [45]: 1 transition_type 0x151-0x151.7 (1)
0x150|      02                                       |  .             |      [46]: 2 transition_type 0x152-0x152.7 (1)
0x150|         01                                    |   .            |      [47]: 1 transition_type 0x153-0x153.7 (1)
0x150|            02                                 |    .           |      [48]: 2 transition_type 0x154-0x154.7 (1)
0x150|               01                              |     .          |      [49]: 1 transition_type 0x155-0x155.7 (1)
0x150|                  02                           |      .         |      [50]: 2 transition_type 0x156-0x156.7 (1)
0x150|                     01                        |       .        |      [51]: 1 transition_type 0x157-0x157.7 (1)
0x150|                        02                     |        .       |      [52]: 2 transition_type 0x158-0x158.7 (1)
0x150|                           01                  |         .      |      [53]: 1 transition_type 0x159-0x159.7 (1)
0x150|                              02               |          .     |      [54]: 2 transition_type 0x15a-0x15a.7 (1)
0x150|                                 01            |           .    |      [55]: 1 transition_type 0x15b-0x15b.7 (1)
0x150|                                    02         |            .   |      [56]: 2 transition_type 0x15c-0x15c.7 (1)
0x150|                                       01      |             .  |      [57]: 1 transition_type 0x15d-0x15d.7 (1)
0x150|                                          02   |              . |      [58]: 2 transition_type 0x15e-0x15e.7 (1)
0x150|                                             01|               .|      [59]: 1 transition_type 0x15f-0x15f.7 (1)
0x160|02                                             |.               |      [60]: 2 transition_type 0x160-0x160.7 (1)
0x160|   02                                          | .              |      [61]: 2 transition_type 0x161-0x161.7 (1)
     |                                               |                |    local_time_type_records[0:3]: 0x162-0x173.7 (18)
     |                                               |                |      [0]{}: local_time_type 0x162-0x167.7 (6)
0x160|      ff ff db e4                              |  ....          |        utoff: -9244 (valid) 0x162-0x165.7 (4)
0x160|                  00                           |      .         |        dst: 0 (valid) 0x166-0x166.7 (1)
0x160|                     00                        |       .        |        idx: 0 (valid) 0x167-0x167.7 (1)
     |                                               |                |      [1]{}: local_time_type 0x168-0x16d.7 (6)
0x160|                        ff ff e3 e0            |        ....    |        utoff: -7200 (valid) 0x168-0x16b.7 (4)
0x160|                                    01         |            .   |        dst: 1 (valid) 0x16c-0x16c.7 (1)
0x160|                                       04      |             .  |        idx: 4 (valid) 0x16d-0x16d.7 (1)
     |                                               |                |      [2]{}: local_time_type 0x16e-0x173.7 (6)
0x160|                                          ff ff|              ..|        utoff: -10800 (valid) 0x16e-0x171.7 (4)
0x170|d5 d0                                          |..              |
0x170|      00                                       |  .             |        dst: 0 (valid) 0x172-0x172.7 (1)
0x170|         08                                    |   .            |        idx: 8 (valid) 0x173-0x173.7 (1)
     |                                               |                |    time_zone_designations[0:3]: 0x174-0x17f.7 (12)
0x170|            4c 4d 54 00                        |    LMT.        |      [0]: "LMT" time_zone_designation 0x174-0x177.7 (4)
0x170|                        2d 30 32 00            |        -02.    |      [1]: "-02" time_zone_designation 0x178-0x17b.7 (4)
0x170|                                    2d 30 33 00|            -03.|      [2]: "-03" time_zone_designation 0x17c-0x17f.7 (4)
     |                                               |                |    leap_second_records[0:27]: 0x180-0x257.7 (216)
     |                                               |                |      [0]{}: leap_second_record 0x180-0x187.7 (8)
0x180|04 b2 58 00                                    |..X.            |        occur: "1972-07-01T00:00:00Z" (78796800) 0x180-0x183.7 (4)
0x180|            00 00 00 01                        |    ....        |        corr: 1 0x184-0x187.7 (4)
     |                                               |                |      [1]{}: leap_second_record 0x188-0x18f.7 (8)
0x180|                        05 a4 ec 01            |        ....    |        occur: "1973-01-01T00:00:01Z" (94694401) 0x188-0x18b.7 (4)
0x180|                                    00 00 00 02|            ....|        corr: 2 0x18c-0x18f.7 (4)
     |                                               |                |      [2]{}: leap_second_record 0x190-0x197.7 (8)
0x190|07 86 1f 82                                    |....            |        occur: "1974-01-01T00:00:02Z" (126230402) 0x190-0x193.7 (4)
0x190|            00 00 00 03                        |    ....        |        corr: 3 0x194-0x197.7 (4)
     |                                               |                |      [3]{}: leap_second_record 0x198-0x19f.7 (8)
0x190|                        09 67 53 03            |        .gS.    |        occur: "1975-01-01T00:00:03Z" (157766403) 0x198-0x19b.7 (4)
0x190|                                    00 00 00 04|            ....|        corr: 4 0x19c-0x19f.7 (4)
     |                                               |                |      [4]{}: leap_second_record 0x1a0-0x1a7.7 (8)
0x1a0|0b 48 86 84                                    |.H..            |        occur: "1976-01-01T00:00:04Z" (189302404) 0x1a0-0x1a3.7 (4)
0x1a0|            00 00 00 05                        |    ....        |        corr: 5 0x1a4-0x1a7.7 (4)
     |                                               |                |      [5]{}: leap_second_record 0x1a8-0x1af.7 (8)
0x1a0|                        0d 2b 0b 85            |        .+..    |        occur: "1977-01-01T00:00:05Z" (220924805) 0x1a8-0x1ab.7 (4)
0x1a0|                                    00 00 00 06|            ....|        corr: 6 0x1ac-0x1af.7 (4)
     |                                               |                |      [6]{}: leap_second_record 0x1b0-0x1b7.7 (8)
0x1b0|0f 0c 3f 06                                    |..?.            |        occur: "1978-01-01T00:00:06Z" (252460806) 0x1b0-0x1b3.7 (4)
0x1b0|            00 00 00 07                        |    ....        |        corr: 7 0x1b4-0x1b7.7 (4)
     |                                               |                |      [7]{}: leap_second_record 0x1b8-0x1bf.7 (8)
0x1b0|                        10 ed 72 87            |        ..r.    |        occur: "1979-01-01T00:00:07Z" (283996807) 0x1b8-0x1bb.7 (4)
0x1b0|                                    00 00 00 08|            ....|        corr: 8 0x1bc-0x1bf.7 (4)
     |                                               |                |      [8]{}: leap_second_record 0x1c0-0x1c7.7 (8)
0x1c0|12 ce a6 08                                    |....            |        occur: "1980-01-01T00:00:08Z" (315532808) 0x1c0-0x1c3.7 (4)
0x1c0|            00 00 00 09                        |    ....        |        corr: 9 0x1c4-0x1c7.7 (4)
     |                                               |                |      [9]{}: leap_second_record 0x1c8-0x1cf.7 (8)
0x1c0|                        15 9f ca 89            |        ....    |        occur: "1981-07-01T00:00:09Z" (362793609) 0x1c8-0x1cb.7 (4)
0x1c0|                                    00 00 00 0a|            ....|        corr: 10 0x1cc-0x1cf.7 (4)
     |                                               |                |      [10]{}: leap_second_record 0x1d0-0x1d7.7 (8)
0x1d0|17 80 fe 0a                                    |....            |        occur: "1982-07-01T00:00:10Z" (394329610) 0x1d0-0x1d3.7 (4)
0x1d0|            00 00 00 0b                        |    ....        |        corr: 11 0x1d4-0x1d7.7 (4)
     |                                               |                |      [11]{}: leap_second_record 0x1d8-0x1df.7 (8)
0x1d0|                        19 62 31 8b            |        .b1.    |        occur: "1983-07-01T00:00:11Z" (425865611) 0x1d8-0x1db.7 (4)
0x1d0|                                    00 00 00 0c|            ....|        corr: 12 0x1dc-0x1df.7 (4)
     |                                               |                |      [12]{}: leap_second_record 0x1e0-0x1e7.7 (8)
0x1e0|1d 25 ea 0c                                    |.%..            |        occur: "1985-07-01T00:00:12Z" (489024012) 0x1e0-0x1e3.7 (4)
0x1e0|            00 00 00 0d                        |    ....        |        corr: 13 0x1e4-0x1e7.7 (4)
     |                                               |                |      [13]{}: leap_second_record 0x1e8-0x1ef.7 (8)
0x1e0|                        21 da e5 0d            |        !...    |        occur: "1988-01-01T00:00:13Z" (567993613) 0x1e8-0x1eb.7 (4)
0x1e0|                                    00 00 00 0e|            ....|        corr: 14 0x1ec-0x1ef.7 (4)
     |                                               |                |      [14]{}: leap_second_record 0x1f0-0x1f7.7 (8)
0x1f0|25 9e 9d 8e                                    |%...            |        occur: "1990-01-01T00:00:14Z" (631152014) 0x1f0-0x1f3.7 (4)
0x1f0|            00 00 00 0f                        |    ....        |        corr: 15 0x1f4-0x1f7.7 (4)
     |                                               |                |      [15]{}: leap_second_record 0x1f8-0x1ff.7 (8)
0x1f0|                        27 7f d1 0f            |        '...    |        occur: "1991-01-01T00:00:15Z" (662688015) 0x1f8-0x1fb.7 (4)
0x1f0|                                    00 00 00 10|            ....|        corr: 16 0x1fc-0x1ff.7 (4)
     |                                               |                |      [16]{}: leap_second_record 0x200-0x207.7 (8)
0x200|2a 50 f5 90                                    |*P..            |        occur: "1992-07-01T00:00:16Z" (709948816) 0x200-0x203.7 (4)
0x200|            00 00 00 11                        |    ....        |        corr: 17 0x204-0x207.7 (4)
     |                                               |                |      [17]{}: leap_second_record 0x208-0x20f.7 (8)
0x200|                        2c 32 29 11            |        ,2).    |        occur: "1993-07-01T00:00:17Z" (741484817) 0x208-0x20b.7 (4)
0x200|                                    00 00 00 12|            ....|        corr: 18 0x20c-0x20f.7 (4)
     |                                               |                |      [18]{}: leap_second_record 0x210-0x217.7 (8)
0x210|2e 13 5c 92                                    |..\.            |        occur: "1994-07-01T00:00:18Z" (773020818) 0x210-0x213.7 (4)
0x210|            00 00 00 13                        |    ....        |        corr: 19 0x214-0x217.7 (4)
     |                                               |                |      [19]{}: leap_second_record 0x218-0x21f.7 (8)
0x210|                        30 e7 24 13            |        0.$.    |        occur: "1996-01-01T00:00:19Z" (820454419) 0x218-0x21b.7 (4)
0x210|                                    00 00 00 14|            ....|        corr: 20 0x21c-0x21f.7 (4)
     |                                               |                |      [20]{}: leap_second_record 0x220-0x227.7 (8)
0x220|33 b8 48 94                                    |3.H.            |        occur: "1997-07-01T00:00:20Z" (867715220) 0x220-0x223.7 (4)
0x220|            00 00 00 15                        |    ....        |        corr: 21 0x224-0x227.7 (4)
     |                                               |                |      [21]{}: leap_second_record 0x228-0x22f.7 (8)
0x220|                        36 8c 10 15            |        6...    |        occur: "1999-01-01T00:00:21Z" (915148821) 0x228-0x22b.7 (4)
0x220|                                    00 00 00 16|            ....|        corr: 22 0x22c-0x22f.7 (4)
     |                                               |                |      [22]{}: leap_second_record 0x230-0x237.7 (8)
0x230|43 b7 1b 96                                    |C...            |        occur: "2006-01-01T00:00:22Z" (1136073622) 0x230-0x233.7 (4)
0x230|            00 00 00 17                        |    ....        |        corr: 23 0x234-0x237.7 (4)
     |                                               |                |      [23]{}: leap_second_record 0x238-0x23f.7 (8)
0x230|                        49 5c 07 97            |        I\..    |        occur: "2009-01-01T00:00:23Z" (1230768023) 0x238-0x23b.7 (4)
0x230|                                    00 00 00 18|            ....|        corr: 24 0x23c-0x23f.7 (4)
     |                                               |                |      [24]{}: leap_second_record 0x240-0x247.7 (8)
0x240|4f ef 93 18                                    |O...            |        occur: "2012-07-01T00:00:24Z" (1341100824) 0x240-0x243.7 (4)
0x240|            00 00 00 19                        |    ....        |        corr: 25 0x244-0x247.7 (4)
     |                                               |                |      [25]{}: leap_second_record 0x248-0x24f.7 (8)
0x240|                        55 93 2d 99            |        U.-.    |        occur: "2015-07-01T00:00:25Z" (1435708825) 0x248-0x24b.7 (4)
0x240|                                    00 00 00 1a|            ....|        corr: 26 0x24c-0x24f.7 (4)
     |                                               |                |      [26]{}: leap_second_record 0x250-0x257.7 (8)
0x250|58 68 46 9a                                    |XhF.            |        occur: "2017-01-01T00:00:26Z" (1483228826) 0x250-0x253.7 (4)
0x250|            00 00 00 1b                        |    ....        |        corr: 27 0x254-0x257.7 (4)
     |                                               |                |    standard_wall_indicators[0:0]: 0x258-NA (0)
     |                                               |                |    ut_local_indicators[0:0]: 0x258-NA (0)
     |                                               |                |  v2plusheader{}: 0x258-0x283.7 (44)
0x250|                        54 5a 69 66            |        TZif    |    magic: 0x545a6966 (valid) 0x258-0x25b.7 (4)
0x250|                                    32         |            2   |    ver: "2" (0x32) (valid) 0x25c-0x25c.7 (1)
0x250|                                       00 00 00|             ...|    reserved: raw bits 0x25d-0x26b.7 (15)
0x260|00 00 00 00 00 00 00 00 00 00 00 00            |............    |
0x260|                                    00 00 00 00|            ....|    isutcnt: 0 0x26c-0x26f.7 (4)
0x270|00 00 00 00                                    |....            |    isstdcnt: 0 0x270-0x273.7 (4)
0x270|            00 00 00 1b                        |    ....        |    leapcnt: 27 0x274-0x277.7 (4)
0x270|                        00 00 00 3e            |        ...>    |    timecnt: 62 0x278-0x27b.7 (4)
0x270|                                    00 00 00 03|            ....|    typecnt: 3 0x27c-0x27f.7 (4)
0x280|00 00 00 0c                                    |....            |    charcnt: 12 0x280-0x283.7 (4)
     |                                               |                |  v2plusdatablock{}: 0x284-0x613.7 (912)
     |                                               |                |    transition_times[0:62]: 0x284-0x473.7 (496)
0x280|            ff ff ff ff 96 aa 6b 1c            |    ......k.    |      [0]: "1914-01-01T02:34:04Z" (-1767216356) transition_time 0x284-0x28b.7 (8)
0x280|                                    ff ff ff ff|            ....|      [1]: "1931-10-03T14:00:00Z" (-1206957600) transition_time 0x28c-0x293.7 (8)
0x290|b8 0f 49 e0                                    |..I.            |
0x290|            ff ff ff ff b8 fd 40 a0            |    ......@.    |      [2]: "1932-04-01T02:00:00Z" (-1191362400) transition_time 0x294-0x29b.7 (8)
0x290|                                    ff ff ff ff|            ....|      [3]: "1932-10-03T03:00:00Z" (-1175374800) transition_time 0x29c-0x2a3.7 (8)
0x2a0|b9 f1 34 30                                    |..40            |
0x2a0|            ff ff ff ff ba de 74 20            |    ......t     |      [4]: "1933-04-01T02:00:00Z" (-1159826400) transition_time 0x2a4-0x2ab.7 (8)
0x2a0|                                    ff ff ff ff|            ....|      [5]: "1949-12-01T03:00:00Z" (-633819600) transition_time 0x2ac-0x2b3.7 (8)
0x2b0|da 38 ae 30                                    |.8.0            |
0x2b0|            ff ff ff ff da eb fa 30            |    .......0    |      [6]: "1950-04-16T03:00:00Z" (-622069200) transition_time 0x2b4-0x2bb.7 (8)
0x2b0|                                    ff ff ff ff|            ....|      [7]: "1950-12-01T03:00:00Z" (-602283600) transition_time 0x2bc-0x2c3.7 (8)
0x2c0|dc 19 e1 b0                                    |....            |
0x2c0|            ff ff ff ff dc b9 59 20            |    ......Y     |      [8]: "1951-04-01T02:00:00Z" (-591832800) transition_time 0x2c4-0x2cb.7 (8)
0x2c0|                                    ff ff ff ff|            ....|      [9]: "1951-12-01T03:00:00Z" (-570747600) transition_time 0x2cc-0x2d3.7 (8)
0x2d0|dd fb 15 30                                    |...0            |
0x2d0|            ff ff ff ff de 9b de 20            |    .......     |      [10]: "1952-04-01T02:00:00Z" (-560210400) transition_time 0x2d4-0x2db.7 (8)
0x2d0|                                    ff ff ff ff|            ....|      [11]: "1952-12-01T03:00:00Z" (-539125200) transition_time 0x2dc-0x2e3.7 (8)
0x2e0|df dd 9a 30                                    |...0            |
0x2e0|            ff ff ff ff e0 54 33 20            |    .....T3     |      [12]: "1953-03-01T02:00:00Z" (-531352800) transition_time 0x2e4-0x2eb.7 (8)
0x2e0|                                    ff ff ff ff|            ....|      [13]: "1963-12-09T03:00:00Z" (-191365200) transition_time 0x2ec-0x2f3.7 (8)
0x2f0|f4 97 ff b0                                    |....            |
0x2f0|            ff ff ff ff f5 05 5e 20            |    ......^     |      [14]: "1964-03-01T02:00:00Z" (-184197600) transition_time 0x2f4-0x2fb.7 (8)
0x2f0|                                    ff ff ff ff|            ....|      [15]: "1965-01-31T03:00:00Z" (-155163600) transition_time 0x2fc-0x303.7 (8)
0x300|f6 c0 64 30                                    |..d0            |
0x300|            ff ff ff ff f7 0e 1e a0            |    ........    |      [16]: "1965-03-31T02:00:00Z" (-150069600) transition_time 0x304-0x30b.7 (8)
0x300|                                    ff ff ff ff|            ....|      [17]: "1965-12-01T03:00:00Z" (-128898000) transition_time 0x30c-0x313.7 (8)
0x310|f8 51 2c 30                                    |.Q,0            |
0x310|            ff ff ff ff f8 c7 c5 20            |    .......     |      [18]: "1966-03-01T02:00:00Z" (-121125600) transition_time 0x314-0x31b.7 (8)
0x310|                                    ff ff ff ff|            ....|      [19]: "1966-11-01T03:00:00Z" (-99954000) transition_time 0x31c-0x323.7 (8)
0x320|fa 0a d2 b0                                    |....            |
0x320|            ff ff ff ff fa a8 f8 a0            |    ........    |      [20]: "1967-03-01T02:00:00Z" (-89589600) transition_time 0x324-0x32b.7 (8)
0x320|                                    ff ff ff ff|            ....|      [21]: "1967-11-01T03:00:00Z" (-68418000) transition_time 0x32c-0x333.7 (8)
0x330|fb ec 06 30                                    |...0            |
0x330|            ff ff ff ff fc 8b 7d a0            |    ......}.    |      [22]: "1968-03-01T02:00:00Z" (-57967200) transition_time 0x334-0x33b.7 (8)
0x330|                                    00 00 00 00|            ....|      [23]: "1985-11-02T03:00:13Z" (499748413) transition_time 0x33c-0x343.7 (8)
0x340|1d c9 8e 3d                                    |...=            |
0x340|            00 00 00 00 1e 78 d7 ad            |    .....x..    |      [24]: "1986-03-15T02:00:13Z" (511236013) transition_time 0x344-0x34b.7 (8)
0x340|                                    00 00 00 00|            ....|      [25]: "1986-10-25T03:00:13Z" (530593213) transition_time 0x34c-0x353.7 (8)
0x350|1f a0 35 bd                                    |..5.            |
0x350|            00 00 00 00 20 33 cf ad            |    .... 3..    |      [26]: "1987-02-14T02:00:13Z" (540266413) transition_time 0x354-0x35b.7 (8)
0x350|                                    00 00 00 00|            ....|      [27]: "1987-10-25T03:00:13Z" (562129213) transition_time 0x35c-0x363.7 (8)
0x360|21 81 69 3d                                    |!.i=            |
0x360|            00 00 00 00 22 0b c8 ae            |    ...."...    |      [28]: "1988-02-07T02:00:14Z" (571197614) transition_time 0x364-0x36b.7 (8)
0x360|                                    00 00 00 00|            ....|      [29]: "1988-10-16T03:00:14Z" (592974014) transition_time 0x36c-0x373.7 (8)
0x370|23 58 10 be                                    |#X..            |
0x370|            00 00 00 00 23 e2 70 2e            |    ....#.p.    |      [30]: "1989-01-29T02:00:14Z" (602042414) transition_time 0x374-0x37b.7 (8)
0x370|                                    00 00 00 00|            ....|      [31]: "1989-10-15T03:00:14Z" (624423614) transition_time 0x37c-0x383.7 (8)
0x380|25 37 f2 be                                    |%7..            |
0x380|            00 00 00 00 25 d4 c7 2f            |    ....%../    |      [32]: "1990-02-11T02:00:15Z" (634701615) transition_time 0x384-0x38b.7 (8)
0x380|                                    00 00 00 00|            ....|      [33]: "1990-10-21T03:00:15Z" (656478015) transition_time 0x38c-0x393.7 (8)
0x390|27 21 0f 3f                                    |'!.?            |
0x390|            00 00 00 00 27 bd e3 b0            |    ....'...    |      [34]: "1991-02-17T02:00:16Z" (666756016) transition_time 0x394-0x39b.7 (8)
0x390|                                    00 00 00 00|            ....|      [35]: "1991-10-20T03:00:16Z" (687927616) transition_time 0x39c-0x3a3.7 (8)
0x3a0|29 00 f1 40                                    |)..@            |
0x3a0|            00 00 00 00 29 94 8b 30            |    ....)..0    |      [36]: "1992-02-09T02:00:16Z" (697600816) transition_time 0x3a4-0x3ab.7 (8)
0x3a0|                                    00 00 00 00|            ....|      [37]: "1992-10-25T03:00:17Z" (719982017) transition_time 0x3ac-0x3b3.7 (8)
0x3b0|2a ea 0d c1                                    |*...            |
0x3b0|            00 00 00 00 2b 6b 32 b1            |    ....+k2.    |      [38]: "1993-01-31T02:00:17Z" (728445617) transition_time 0x3b4-0x3bb.7 (8)
0x3b0|                                    00 00 00 00|            ....|      [39]: "1993-10-17T03:00:18Z" (750826818) transition_time 0x3bc-0x3c3.7 (8)
0x3c0|2c c0 b5 42                                    |,..B            |
0x3c0|            00 00 00 00 2d 66 c4 32            |    ....-f.2    |      [40]: "1994-02-20T02:00:18Z" (761709618) transition_time 0x3c4-0x3cb.7 (8)
0x3c0|                                    00 00 00 00|            ....|      [41]: "1994-10-16T03:00:19Z" (782276419) transition_time 0x3cc-0x3d3.7 (8)
0x3d0|2e a0 97 43                                    |...C            |
0x3d0|            00 00 00 00 2f 46 a6 33            |    ..../F.3    |      [42]: "1995-02-19T02:00:19Z" (793159219) transition_time 0x3d4-0x3db.7 (8)
0x3d0|                                    00 00 00 00|            ....|      [43]: "1995-10-15T03:00:19Z" (813726019) transition_time 0x3dc-0x3e3.7 (8)
0x3e0|30 80 79 43                                    |0.yC            |
0x3e0|            00 00 00 00 31 1d 4d b4            |    ....1.M.    |      [44]: "1996-02-11T02:00:20Z" (824004020) transition_time 0x3e4-0x3eb.7 (8)
0x3e0|                                    00 00 00 00|            ....|      [45]: "1996-10-06T03:00:20Z" (844570820) transition_time 0x3ec-0x3f3.7 (8)
0x3f0|32 57 20 c4                                    |2W .            |
0x3f0|            00 00 00 00 33 06 6a 34            |    ....3.j4    |      [46]: "1997-02-16T02:00:20Z" (856058420) transition_time 0x3f4-0x3fb.7 (8)
0x3f0|                                    00 00 00 00|            ....|      [47]: "1997-10-06T03:00:21Z" (876106821) transition_time 0x3fc-0x403.7 (8)
0x400|34 38 54 45                                    |48TE            |
0x400|            00 00 00 00 34 f8 c1 35            |    ....4..5    |      [48]: "1998-03-01T02:00:21Z" (888717621) transition_time 0x404-0x40b.7 (8)
0x400|                                    00 00 00 00|            ....|      [49]: "1998-10-11T03:00:21Z" (908074821) transition_time 0x40c-0x413.7 (8)
0x410|36 20 1f 45                                    |6 .E            |
0x410|            00 00 00 00 36 cf 68 b6            |    ....6.h.    |      [50]: "1999-02-21T02:00:22Z" (919562422) transition_time 0x414-0x41b.7 (8)
0x410|                                    00 00 00 00|            ....|      [51]: "1999-10-03T03:00:22Z" (938919622) transition_time 0x41c-0x423.7 (8)
0x420|37 f6 c6 c6                                    |7...            |
0x420|            00 00 00 00 38 b8 85 36            |    ....8..6    |      [52]: "2000-02-27T02:00:22Z" (951616822) transition_time 0x424-0x42b.7 (8)
0x420|                                    00 00 00 00|            ....|      [53]: "2000-10-08T03:00:22Z" (970974022) transition_time 0x42c-0x433.7 (8)
0x430|39 df e3 46                                    |9..F            |
0x430|            00 00 00 00 3a 8f 2c b6            |    ....:.,.    |      [54]: "2001-02-18T02:00:22Z" (982461622) transition_time 0x434-0x43b.7 (8)
0x430|                                    00 00 00 00|            ....|      [55]: "2001-10-14T03:00:22Z" (1003028422) transition_time 0x43c-0x443.7 (8)
0x440|3b c8 ff c6                                    |;...            |
0x440|            00 00 00 00 3c 6f 0e b6            |    ....<o..    |      [56]: "2002-02-17T02:00:22Z" (1013911222) transition_time 0x444-0x44b.7 (8)
0x440|                                    00 00 00 00|            ....|      [57]: "2002-11-03T03:00:22Z" (1036292422) transition_time 0x44c-0x453.7 (8)
0x450|3d c4 91 46                                    |=..F            |
0x450|            00 00 00 00 3e 4e f0 b6            |    ....>N..    |      [58]: "2003-02-16T02:00:22Z" (1045360822) transition_time 0x454-0x45b.7 (8)
0x450|                                    00 00 00 00|            ....|      [59]: "2011-10-16T03:00:24Z" (1318734024) transition_time 0x45c-0x463.7 (8)
0x460|4e 9a 48 c8                                    |N.H.            |
0x460|            00 00 00 00 4f 49 92 38            |    ....OI.8    |      [60]: "2012-02-26T02:00:24Z" (1330221624) transition_time 0x464-0x46b.7 (8)
0x460|                                    00 00 00 00|            ....|      [61]: "2023-06-28T00:00:27Z" (1687910427) transition_time 0x46c-0x473.7 (8)
0x470|64 9b 78 1b                                    |d.x.            |
     |                                               |                |    transition_types[0:62]: 0x474-0x4b1.7 (62)
0x470|            02                                 |    .           |      [0]: 2 transition_type 0x474-0x474.7 (1)
0x470|               01                              |     .          |      [1]: 1 transition_type 0x475-0x475.7 (1)
0x470|                  02                           |      .         |      [2]: 2 transition_type 0x476-0x476.7 (1)
0x470|                     01                        |       .        |      [3]: 1 transition_type 0x477-0x477.7 (1)
0x470|                        02                     |        .       |      [4]: 2 transition_type 0x478-0x478.7 (1)
0x470|                           01                  |         .      |      [5]: 1 transition_type 0x479-0x479.7 (1)
0x470|                              02               |          .     |      [6]: 2 transition_type 0x47a-0x47a.7 (1)
0x470|                                 01            |           .    |      [7]: 1 transition_type 0x47b-0x47b.7 (1)
0x470|                                    02         |            .   |      [8]: 2 transition_type 0x47c-0x47c.7 (1)
0x470|                                       01      |             .  |      [9]: 1 transition_type 0x47d-0x47d.7 (1)
0x470|                                          02   |              . |      [10]: 2 transition_type 0x47e-0x47e.7 (1)
0x470|                                             01|               .|      [11]: 1 transition_type 0x47f-0x47f.7 (1)
0x480|02                                             |.               |      [12]: 2 transition_type 0x480-0x480.7 (1)
0x480|   01                                          | .              |      [13]: 1 transition_type 0x481-0x481.7 (1)
0x480|      02                                       |  .             |      [14]: 2 transition_type 0x482-0x482.7 (1)
0x480|         01                                    |   .            |      [15]: 1 transition_type 0x483-0x483.7 (1)
0x480|            02                                 |    .           |      [16]: 2 transition_type 0x484-0x484.7 (1)
0x480|               01                              |     .          |      [17]: 1 transition_type 0x485-0x485.7 (1)
0x480|                  02                           |      .         |      [18]: 2 transition_type 0x486-0x486.7 (1)
0x480|                     01                        |       .        |      [19]: 1 transition_type 0x487-0x487.7 (1)
0x480|                        02                     |        .       |      [20]: 2 transition_type 0x488-0x488.7 (1)
0x480|                           01                  |         .      |      [21]: 1 transition_type 0x489-0x489.7 (1)
0x480|                              02               |          .     |      [22]: 2 transition_type 0x48a-0x48a.7 (1)
0x480|                                 01            |           .    |      [23]: 1 transition_type 0x48b-0x48b.7 (1)
0x480|                                    02         |            .   |      [24]: 2 transition_type 0x48c-0x48c.7 (1)
0x480|                                       01      |             .  |      [25]: 1 transition_type 0x48d-0x48d.7 (1)
0x480|                                          02   |              . |      [26]: 2 transition_type 0x48e-0x48e.7 (1)
0x480|                                             01|               .|      [27]: 1 transition_type 0x48f-0x48f.7 (1)
0x490|02                                             |.               |      [28]: 2 transition_type 0x490-0x490.7 (1)
0x490|   01                                          | .              |      [29]: 1 transition_type 0x491-0x491.7 (1)
0x490|      02                                       |  .             |      [30]: 2 transition_type 0x492-0x492.7 (1)
0x490|         01                                    |   .            |      [31]: 1 transition_type 0x493-0x493.7 (1)
0x490|            02                                 |    .           |      [32]: 2 transition_type 0x494-0x494.7 (1)
0x490|               01                              |     .          |      [33]: 1 transition_type 0x495-0x495.7 (1)
0x490|                  02                           |      .         |      [34]: 2 transition_type 0x496-0x496.7 (1)
0x490|                     01                        |       .        |      [35]: 1 transition_type 0x497-0x497.7 (1)
0x490|                        02                     |        .       |      [36]: 2 transition_type 0x498-0x498.7 (1)
0x490|                           01                  |         .      |      [37]: 1 transition_type 0x499-0x499.7 (1)
0x490|                              02               |          .     |      [38]: 2 transition_type 0x49a-0x49a.7 (1)
0x490|                                 01            |           .    |      [39]: 1 transition_type 0x49b-0x49b.7 (1)
0x490|                                    02         |            .   |      [40]: 2 transition_type 0x49c-0x49c.7 (1)
0x490|                                       01      |             .  |      [41]: 1 transition_type 0x49d-0x49d.7 (1)
0x490|                                          02   |              . |      [42]: 2 transition_type 0x49e-0x49e.7 (1)
0x490|                                             01|               .|      [43]: 1 transition_type 0x49f-0x49f.7 (1)
0x4a0|02                                             |.               |      [44]: 2 transition_type 0x4a0-0x4a0.7 (1)
0x4a0|   01                                          | .              |      [45]: 1 transition_type 0x4a1-0x4a1.7 (1)
0x4a0|      02                                       |  .             |      [46]: 2 transition_type 0x4a2-0x4a2.7 (1)
0x4a0|         01                                    |   .            |      [47]: 1 transition_type 0x4a3-0x4a3.7 (1)
0x4a0|            02                                 |    .           |      [48]: 2 transition_type 0x4a4-0x4a4.7 (1)
0x4a0|               01                              |     .          |      [49]: 1 transition_type 0x4a5-0x4a5.7 (1)
0x4a0|                  02                           |      .         |      [50]: 2 transition_type 0x4a6-0x4a6.7 (1)
0x4a0|                     01                        |       .        |      [51]: 1 transition_type 0x4a7-0x4a7.7 (1)
0x4a0|                        02                     |        .       |      [52]: 2 transition_type 0x4a8-0x4a8.7 (1)
0x4a0|                           01                  |         .      |      [53]: 1 transition_type 0x4a9-0x4a9.7 (1)
0x4a0|                              02               |          .     |      [54]: 2 transition_type 0x4aa-0x4aa.7 (1)
0x4a0|                                 01            |           .    |      [55]: 1 transition_type 0x4ab-0x4ab.7 (1)
0x4a0|                                    02         |            .   |      [56]: 2 transition_type 0x4ac-0x4ac.7 (1)
0x4a0|                                       01      |             .  |      [57]: 1 transition_type 0x4ad-0x4ad.7 (1)
0x4a0|                                          02   |              . |      [58]: 2 transition_type 0x4ae-0x4ae.7 (1)
0x4a0|                                             01|               .|      [59]: 1 transition_type 0x4af-0x4af.7 (1)
0x4b0|02                                             |.               |      [60]: 2 transition_type 0x4b0-0x4b0.7 (1)
0x4b0|   02                                          | .              |      [61]: 2 transition_type 0x4b1-0x4b1.7 (1)
     |                                               |                |    local_time_type_records[0:3]: 0x4b2-0x4c3.7 (18)
     |                                               |                |      [0]{}: local_time_type 0x4b2-0x4b7.7 (6)
0x4b0|      ff ff db e4                              |  ....          |        utoff: -9244 (valid) 0x4b2-0x4b5.7 (4)
0x4b0|                  00                           |      .         |        dst: 0 (valid) 0x4b6-0x4b6.7 (1)
0x4b0|                     00                        |       .        |        idx: 0 (valid) 0x4b7-0x4b7.7 (1)
     |                                               |                |      [1]{}: local_time_type 0x4b8-0x4bd.7 (6)
0x4b0|                        ff ff e3 e0            |        ....    |        utoff: -7200 (valid) 0x4b8-0x4bb.7 (4)
0x4b0|                                    01         |            .   |        dst: 1 (valid) 0x4bc-0x4bc.7 (1)
0x4b0|                                       04      |             .  |        idx: 4 (valid) 0x4bd-0x4bd.7 (1)
     |                                               |                |      [2]{}: local_time_type 0x4be-0x4c3.7 (6)
0x4b0|                                          ff ff|              ..|        utoff: -10800 (valid) 0x4be-0x4c1.7 (4)
0x4c0|d5 d0                                          |..              |
0x4c0|      00                                       |  .             |        dst: 0 (valid) 0x4c2-0x4c2.7 (1)
0x4c0|         08                                    |   .            |        idx: 8 (valid) 0x4c3-0x4c3.7 (1)
     |                                               |                |    time_zone_designations[0:3]: 0x4c4-0x4cf.7 (12)
0x4c0|            4c 4d 54 00                        |    LMT.        |      [0]: "LMT" time_zone_designation 0x4c4-0x4c7.7 (4)
0x4c0|                        2d 30 32 00            |        -02.    |      [1]: "-02" time_zone_designation 0x4c8-0x4cb.7 (4)
0x4c0|                                    2d 30 33 00|            -03.|      [2]: "-03" time_zone_designation 0x4cc-0x4cf.7 (4)
     |                                               |                |    leap_second_records[0:27]: 0x4d0-0x613.7 (324)
     |                                               |                |      [0]{}: leap_second_record 0x4d0-0x4db.7 (12)
0x4d0|00 00 00 00 04 b2 58 00                        |......X.        |        occur: "1972-07-01T00:00:00Z" (78796800) 0x4d0-0x4d7.7 (8)
0x4d0|                        00 00 00 01            |        ....    |        corr: 1 0x4d8-0x4db.7 (4)
     |                                               |                |      [1]{}: leap_second_record 0x4dc-0x4e7.7 (12)
0x4d0|                                    00 00 00 00|            ....|        occur: "1973-01-01T00:00:01Z" (94694401) 0x4dc-0x4e3.7 (8)
0x4e0|05 a4 ec 01                                    |....            |
0x4e0|            00 00 00 02                        |    ....        |        corr: 2 0x4e4-0x4e7.7 (4)
     |                                               |                |      [2]{}: leap_second_record 0x4e8-0x4f3.7 (12)
0x4e0|                        00 00 00 00 07 86 1f 82|        ........|        occur: "1974-01-01T00:00:02Z" (126230402) 0x4e8-0x4ef.7 (8)
0x4f0|00 00 00 03                                    |....            |        corr: 3 0x4f0-0x4f3.7 (4)
     |                                               |                |      [3]{}: leap_second_record 0x4f4-0x4ff.7 (12)
0x4f0|            00 00 00 00 09 67 53 03            |    .....gS.    |        occur: "1975-01-01T00:00:03Z" (157766403) 0x4f4-0x4fb.7 (8)
0x4f0|                                    00 00 00 04|            ....|        corr: 4 0x4fc-0x4ff.7 (4)
     |                                               |                |      [4]{}: leap_second_record 0x500-0x50b.7 (12)
0x500|00 00 00 00 0b 48 86 84                        |.....H..        |        occur: "1976-01-01T00:00:04Z" (189302404) 0x500-0x507.7 (8)
0x500|                        00 00 00 05            |        ....    |        corr: 5 0x508-0x50b.7 (4)
     |                                               |                |      [5]{}: leap_second_record 0x50c-0x517.7 (12)
0x500|                                    00 00 00 00|            ....|        occur: "1977-01-01T00:00:05Z" (220924805) 0x50c-0x513.7 (8)
0x510|0d 2b 0b 85                                    |.+..            |
0x510|            00 00 00 06                        |    ....        |        corr: 6 0x514-0x517.7 (4)
     |                                               |                |      [6]{}: leap_second_record 0x518-0x523.7 (12)
0x510|                        00 00 00 00 0f 0c 3f 06|        ......?.|        occur: "1978-01-01T00:00:06Z" (252460806) 0x518-0x51f.7 (8)
0x520|00 00 00 07                                    |....            |        corr: 7 0x520-0x523.7 (4)
     |                                               |                |      [7]{}: leap_second_record 0x524-0x52f.7 (12)
0x520|            00 00 00 00 10 ed 72 87            |    ......r.    |        occur: "1979-01-01T00:00:07Z" (283996807) 0x524-0x52b.7 (8)
0x520|                                    00 00 00 08|            ....|        corr: 8 0x52c-0x52f.7 (4)
     |                                               |                |      [8]{}: leap_second_record 0x530-0x53b.7 (12)
0x530|00 00 00 00 12 ce a6 08                        |........        |        occur: "1980-01-01T00:00:08Z" (315532808) 0x530-0x537.7 (8)
0x530|                        00 00 00 09            |        ....    |        corr: 9 0x538-0x53b.7 (4)
     |                                               |                |      [9]{}: leap_second_record 0x53c-0x547.7 (12)
0x530|                                    00 00 00 00|            ....|        occur: "1981-07-01T00:00:09Z" (362793609) 0x53c-0x543.7 (8)
0x540|15 9f ca 89                                    |....            |
0x540|            00 00 00 0a                        |    ....        |        corr: 10 0x544-0x547.7 (4)
     |                                               |                |      [10]{}: leap_second_record 0x548-0x553.7 (12)
0x540|                        00 00 00 00 17 80 fe 0a|        ........|        occur: "1982-07-01T00:00:10Z" (394329610) 0x548-0x54f.7 (8)
0x550|00 00 00 0b                                    |....            |        corr: 11 0x550-0x553.7 (4)
     |                                               |                |      [11]{}: leap_second_record 0x554-0x55f.7 (12)
0x550|            00 00 00 00 19 62 31 8b            |    .....b1.    |        occur: "1983-07-01T00:00:11Z" (425865611) 0x554-0x55b.7 (8)
0x550|                                    00 00 00 0c|            ....|        corr: 12 0x55c-0x55f.7 (4)
     |                                               |                |      [12]{}: leap_second_record 0x560-0x56b.7 (12)
0x560|00 00 00 00 1d 25 ea 0c                        |.....%..        |        occur: "1985-07-01T00:00:12Z" (489024012) 0x560-0x567.7 (8)
0x560|                        00 00 00 0d            |        ....    |        corr: 13 0x568-0x56b.7 (4)
     |                                               |                |      [13]{}: leap_second_record 0x56c-0x577.7 (12)
0x560|                                    00 00 00 00|            ....|        occur: "1988-01-01T00:00:13Z" (567993613) 0x56c-0x573.7 (8)
0x570|21 da e5 0d                                    |!...            |
0x570|            00 00 00 0e                        |    ....        |        corr: 14 0x574-0x577.7 (4)
     |                                               |                |      [14]{}: leap_second_record 0x578-0x583.7 (12)
0x570|                        00 00 00 00 25 9e 9d 8e|        ....%...|        occur: "1990-01-01T00:00:14Z" (631152014) 0x578-0x57f.7 (8)
0x580|00 00 00 0f                                    |....            |        corr: 15 0x580-0x583.7 (4)
     |                                               |                |      [15]{}: leap_second_record 0x584-0x58f.7 (12)
0x580|            00 00 00 00 27 7f d1 0f            |    ....'...    |        occur: "1991-01-01T00:00:15Z" (662688015) 0x584-0x58b.7 (8)
0x580|                                    00 00 00 10|            ....|        corr: 16 0x58c-0x58f.7 (4)
     |                                               |                |      [16]{}: leap_second_record 0x590-0x59b.7 (12)
0x590|00 00 00 00 2a 50 f5 90                        |....*P..        |        occur: "1992-07-01T00:00:16Z" (709948816) 0x590-0x597.7 (8)
0x590|                        00 00 00 11            |        ....    |        corr: 17 0x598-0x59b.7 (4)
     |                                               |                |      [17]{}: leap_second_record 0x59c-0x5a7.7 (12)
0x590|                                    00 00 00 00|            ....|        occur: "1993-07-01T00:00:17Z" (741484817) 0x59c-0x5a3.7 (8)
0x5a0|2c 32 29 11                                    |,2).            |
0x5a0|            00 00 00 12                        |    ....        |        corr: 18 0x5a4-0x5a7.7 (4)
     |                                               |                |      [18]{}: leap_second_record 0x5a8-0x5b3.7 (12)
0x5a0|                        00 00 00 00 2e 13 5c 92|        ......\.|        occur: "1994-07-01T00:00:18Z" (773020818) 0x5a8-0x5af.7 (8)
0x5b0|00 00 00 13                                    |....            |        corr: 19 0x5b0-0x5b3.7 (4)
     |                                               |                |      [19]{}: leap_second_record 0x5b4-0x5bf.7 (12)
0x5b0|            00 00 00 00 30 e7 24 13            |    ....0.$.    |        occur: "1996-01-01T00:00:19Z" (820454419) 0x5b4-0x5bb.7 (8)
0x5b0|                                    00 00 00 14|            ....|        corr: 20 0x5bc-0x5bf.7 (4)
     |                                               |                |      [20]{}: leap_second_record 0x5c0-0x5cb.7 (12)
0x5c0|00 00 00 00 33 b8 48 94                        |....3.H.        |        occur: "1997-07-01T00:00:20Z" (867715220) 0x5c0-0x5c7.7 (8)
0x5c0|                        00 00 00 15            |        ....    |        corr: 21 0x5c8-0x5cb.7 (4)
     |                                               |                |      [21]{}: leap_second_record 0x5cc-0x5d7.7 (12)
0x5c0|                                    00 00 00 00|            ....|        occur: "1999-01-01T00:00:21Z" (915148821) 0x5cc-0x5d3.7 (8)
0x5d0|36 8c 10 15                                    |6...            |
0x5d0|            00 00 00 16                        |    ....        |        corr: 22 0x5d4-0x5d7.7 (4)
     |                                               |                |      [22]{}: leap_second_record 0x5d8-0x5e3.7 (12)
0x5d0|                        00 00 00 00 43 b7 1b 96|        ....C...|        occur: "2006-01-01T00:00:22Z" (1136073622) 0x5d8-0x5df.7 (8)
0x5e0|00 00 00 17                                    |....            |        corr: 23 0x5e0-0x5e3.7 (4)
     |                                               |                |      [23]{}: leap_second_record 0x5e4-0x5ef.7 (12)
0x5e0|            00 00 00 00 49 5c 07 97            |    ....I\..    |        occur: "2009-01-01T00:00:23Z" (1230768023) 0x5e4-0x5eb.7 (8)
0x5e0|                                    00 00 00 18|            ....|        corr: 24 0x5ec-0x5ef.7 (4)
     |                                               |                |      [24]{}: leap_second_record 0x5f0-0x5fb.7 (12)
0x5f0|00 00 00 00 4f ef 93 18                        |....O...        |        occur: "2012-07-01T00:00:24Z" (1341100824) 0x5f0-0x5f7.7 (8)
0x5f0|                        00 00 00 19            |        ....    |        corr: 25 0x5f8-0x5fb.7 (4)
     |                                               |                |      [25]{}: leap_second_record 0x5fc-0x607.7 (12)
0x5f0|                                    00 00 00 00|            ....|        occur: "2015-07-01T00:00:25Z" (1435708825) 0x5fc-0x603.7 (8)
0x600|55 93 2d 99                                    |U.-.            |
0x600|            00 00 00 1a                        |    ....        |        corr: 26 0x604-0x607.7 (4)
     |                                               |                |      [26]{}: leap_second_record 0x608-0x613.7 (12)
0x600|                        00 00 00 00 58 68 46 9a|        ....XhF.|        occur: "2017-01-01T00:00:26Z" (1483228826) 0x608-0x60f.7 (8)
0x610|00 00 00 1b                                    |....            |        corr: 27 0x610-0x613.7 (4)
     |                                               |                |    standard_wall_indicators[0:0]: 0x614-NA (0)
     |                                               |                |    ut_local_indicators[0:0]: 0x614-NA (0)
     |                                               |                |  footer{}: 0x614-0x615.7 (2)
0x610|            0a                                 |    .           |    nl1: 10 (valid) 0x614-0x614.7 (1)
     |                                               |                |    tz_string: "" 0x615-NA (0)
0x610|               0a|                             |     .|         |    nl2: 10 (valid) 0x615-0x615.7 (1)
