$ fq -d tzif dv Baku
     |00 01 02 03 04 05 06 07 08 09 0a 0b 0c 0d 0e 0f|0123456789abcdef|.{}: Baku (tzif) 0x0-0x6e0 (1760)
     |                                               |                |  v1header{}: 0x0-0x2c (44)
0x000|54 5a 69 66                                    |TZif            |    magic: 0x545a6966 (valid) 0x0-0x4 (4)
0x000|            32                                 |    2           |    ver: "2" (0x32) (valid) 0x4-0x5 (1)
0x000|               00 00 00 00 00 00 00 00 00 00 00|     ...........|    reserved: raw bits 0x5-0x14 (15)
0x010|00 00 00 00                                    |....            |
0x010|            00 00 00 0a                        |    ....        |    isutcnt: 10 0x14-0x18 (4)
0x010|                        00 00 00 0a            |        ....    |    isstdcnt: 10 0x18-0x1c (4)
0x010|                                    00 00 00 1b|            ....|    leapcnt: 27 0x1c-0x20 (4)
0x020|00 00 00 43                                    |...C            |    timecnt: 67 0x20-0x24 (4)
0x020|            00 00 00 0a                        |    ....        |    typecnt: 10 0x24-0x28 (4)
0x020|                        00 00 00 10            |        ....    |    charcnt: 16 0x28-0x2c (4)
     |                                               |                |  v1datablock{}: 0x2c-0x2b3 (647)
     |                                               |                |    transition_times[0:67]: 0x2c-0x138 (268)
0x020|                                    aa 19 95 44|            ...D|      [0]: "1924-05-01T20:40:36Z" (-1441163964) transition_time 0x2c-0x30 (4)
0x030|e7 da 0c 50                                    |...P            |      [1]: "1957-02-28T21:00:00Z" (-405140400) transition_time 0x30-0x34 (4)
0x030|            15 27 99 c9                        |    .'..        |      [2]: "1981-03-31T20:00:09Z" (354916809) transition_time 0x34-0x38 (4)
0x030|                        16 18 ce 3a            |        ...:    |      [3]: "1981-09-30T19:00:10Z" (370724410) transition_time 0x38-0x3c (4)
0x030|                                    17 08 cd 4a|            ...J|      [4]: "1982-03-31T20:00:10Z" (386452810) transition_time 0x3c-0x40 (4)
0x040|17 fa 01 bb                                    |....            |      [5]: "1982-09-30T19:00:11Z" (402260411) transition_time 0x40-0x44 (4)
0x040|            18 ea 00 cb                        |    ....        |      [6]: "1983-03-31T20:00:11Z" (417988811) transition_time 0x44-0x48 (4)
0x040|                        19 db 35 3c            |        ..5<    |      [7]: "1983-09-30T19:00:12Z" (433796412) transition_time 0x48-0x4c (4)
0x040|                                    1a cc 85 cc|            ....|      [8]: "1984-03-31T20:00:12Z" (449611212) transition_time 0x4c-0x50 (4)
0x050|1b bc 92 ec                                    |....            |      [9]: "1984-09-29T22:00:12Z" (465343212) transition_time 0x50-0x54 (4)
0x050|            1c ac 83 ec                        |    ....        |      [10]: "1985-03-30T22:00:12Z" (481068012) transition_time 0x54-0x58 (4)
0x050|                        1d 9c 74 ed            |        ..t.    |      [11]: "1985-09-28T22:00:13Z" (496792813) transition_time 0x58-0x5c (4)
0x050|                                    1e 8c 65 ed|            ..e.|      [12]: "1986-03-29T22:00:13Z" (512517613) transition_time 0x5c-0x60 (4)
0x060|1f 7c 56 ed                                    |.|V.            |      [13]: "1986-09-27T22:00:13Z" (528242413) transition_time 0x60-0x64 (4)
0x060|            20 6c 47 ed                        |     lG.        |      [14]: "1987-03-28T22:00:13Z" (543967213) transition_time 0x64-0x68 (4)
0x060|                        21 5c 38 ed            |        !\8.    |      [15]: "1987-09-26T22:00:13Z" (559692013) transition_time 0x68-0x6c (4)
0x060|                                    22 4c 29 ee|            "L).|      [16]: "1988-03-26T22:00:14Z" (575416814) transition_time 0x6c-0x70 (4)
0x070|23 3c 1a ee                                    |#<..            |      [17]: "1988-09-24T22:00:14Z" (591141614) transition_time 0x70-0x74 (4)
0x070|            24 2c 0b ee                        |    $,..        |      [18]: "1989-03-25T22:00:14Z" (606866414) transition_time 0x74-0x78 (4)
0x070|                        25 1b fc ee            |        %...    |      [19]: "1989-09-23T22:00:14Z" (622591214) transition_time 0x78-0x7c (4)
0x070|                                    26 0b ed ef|            &...|      [20]: "1990-03-24T22:00:15Z" (638316015) transition_time 0x7c-0x80 (4)
0x080|27 05 19 6f                                    |'..o            |      [21]: "1990-09-29T22:00:15Z" (654645615) transition_time 0x80-0x84 (4)
0x080|            27 f5 0a 70                        |    '..p        |      [22]: "1991-03-30T22:00:16Z" (670370416) transition_time 0x84-0x88 (4)
0x080|                        28 e5 09 80            |        (...    |      [23]: "1991-09-28T23:00:16Z" (686098816) transition_time 0x88-0x8c (4)
0x080|                                    29 d4 fa 80|            )...|      [24]: "1992-03-28T23:00:16Z" (701823616) transition_time 0x8c-0x90 (4)
0x090|2a c4 eb 81                                    |*...            |      [25]: "1992-09-26T23:00:17Z" (717548417) transition_time 0x90-0x94 (4)
0x090|            31 5d d9 24                        |    1].$        |      [26]: "1996-03-31T01:00:20Z" (828234020) transition_time 0x94-0x98 (4)
0x090|                        32 72 b4 24            |        2r.$    |      [27]: "1996-10-27T01:00:20Z" (846378020) transition_time 0x98-0x9c (4)
0x090|                                    33 3d ad 14|            3=..|      [28]: "1997-03-30T00:00:20Z" (859680020) transition_time 0x9c-0xa0 (4)
0x0a0|34 52 88 15                                    |4R..            |      [29]: "1997-10-26T00:00:21Z" (877824021) transition_time 0xa0-0xa4 (4)
0x0a0|            35 1d 8f 15                        |    5...        |      [30]: "1998-03-29T00:00:21Z" (891129621) transition_time 0xa4-0xa8 (4)
0x0a0|                        36 32 6a 15            |        62j.    |      [31]: "1998-10-25T00:00:21Z" (909273621) transition_time 0xa8-0xac (4)
0x0a0|                                    36 fd 71 16|            6.q.|      [32]: "1999-03-28T00:00:22Z" (922579222) transition_time 0xac-0xb0 (4)
0x0b0|38 1b 86 96                                    |8...            |      [33]: "1999-10-31T00:00:22Z" (941328022) transition_time 0xb0-0xb4 (4)
0x0b0|            38 dd 53 16                        |    8.S.        |      [34]: "2000-03-26T00:00:22Z" (954028822) transition_time 0xb4-0xb8 (4)
0x0b0|                        39 fb 68 96            |        9.h.    |      [35]: "2000-10-29T00:00:22Z" (972777622) transition_time 0xb8-0xbc (4)
0x0b0|                                    3a bd 35 16|            :.5.|      [36]: "2001-03-25T00:00:22Z" (985478422) transition_time 0xbc-0xc0 (4)
0x0c0|3b db 4a 96                                    |;.J.            |      [37]: "2001-10-28T00:00:22Z" (1004227222) transition_time 0xc0-0xc4 (4)
0x0c0|            3c a6 51 96                        |    <.Q.        |      [38]: "2002-03-31T00:00:22Z" (1017532822) transition_time 0xc4-0xc8 (4)
0x0c0|                        3d bb 2c 96            |        =.,.    |      [39]: "2002-10-27T00:00:22Z" (1035676822) transition_time 0xc8-0xcc (4)
0x0c0|                                    3e 86 33 96|            >.3.|      [40]: "2003-03-30T00:00:22Z" (1048982422) transition_time 0xcc-0xd0 (4)
0x0d0|3f 9b 0e 96                                    |?...            |      [41]: "2003-10-26T00:00:22Z" (1067126422) transition_time 0xd0-0xd4 (4)
0x0d0|            40 66 15 96                        |    @f..        |      [42]: "2004-03-28T00:00:22Z" (1080432022) transition_time 0xd4-0xd8 (4)
0x0d0|                        41 84 2b 16            |        A.+.    |      [43]: "2004-10-31T00:00:22Z" (1099180822) transition_time 0xd8-0xdc (4)
0x0d0|                                    42 45 f7 96|            BE..|      [44]: "2005-03-27T00:00:22Z" (1111881622) transition_time 0xdc-0xe0 (4)
0x0e0|43 64 0d 16                                    |Cd..            |      [45]: "2005-10-30T00:00:22Z" (1130630422) transition_time 0xe0-0xe4 (4)
0x0e0|            44 25 d9 97                        |    D%..        |      [46]: "2006-03-26T00:00:23Z" (1143331223) transition_time 0xe4-0xe8 (4)
0x0e0|                        45 43 ef 17            |        EC..    |      [47]: "2006-10-29T00:00:23Z" (1162080023) transition_time 0xe8-0xec (4)
0x0e0|                                    46 05 bb 97|            F...|      [48]: "2007-03-25T00:00:23Z" (1174780823) transition_time 0xec-0xf0 (4)
0x0f0|47 23 d1 17                                    |G#..            |      [49]: "2007-10-28T00:00:23Z" (1193529623) transition_time 0xf0-0xf4 (4)
0x0f0|            47 ee d8 17                        |    G...        |      [50]: "2008-03-30T00:00:23Z" (1206835223) transition_time 0xf4-0xf8 (4)
0x0f0|                        49 03 b3 17            |        I...    |      [51]: "2008-10-26T00:00:23Z" (1224979223) transition_time 0xf8-0xfc (4)
0x0f0|                                    49 ce ba 18|            I...|      [52]: "2009-03-29T00:00:24Z" (1238284824) transition_time 0xfc-0x100 (4)
0x100|4a e3 95 18                                    |J...            |      [53]: "2009-10-25T00:00:24Z" (1256428824) transition_time 0x100-0x104 (4)
0x100|            4b ae 9c 18                        |    K...        |      [54]: "2010-03-28T00:00:24Z" (1269734424) transition_time 0x104-0x108 (4)
0x100|                        4c cc b1 98            |        L...    |      [55]: "2010-10-31T00:00:24Z" (1288483224) transition_time 0x108-0x10c (4)
0x100|                                    4d 8e 7e 18|            M.~.|      [56]: "2011-03-27T00:00:24Z" (1301184024) transition_time 0x10c-0x110 (4)
0x110|4e ac 93 98                                    |N...            |      [57]: "2011-10-30T00:00:24Z" (1319932824) transition_time 0x110-0x114 (4)
0x110|            4f 6e 60 18                        |    On`.        |      [58]: "2012-03-25T00:00:24Z" (1332633624) transition_time 0x114-0x118 (4)
0x110|                        50 8c 75 99            |        P.u.    |      [59]: "2012-10-28T00:00:25Z" (1351382425) transition_time 0x118-0x11c (4)
0x110|                                    51 57 7c 99|            QW|.|      [60]: "2013-03-31T00:00:25Z" (1364688025) transition_time 0x11c-0x120 (4)
0x120|52 6c 57 99                                    |RlW.            |      [61]: "2013-10-27T00:00:25Z" (1382832025) transition_time 0x120-0x124 (4)
0x120|            53 37 5e 99                        |    S7^.        |      [62]: "2014-03-30T00:00:25Z" (1396137625) transition_time 0x124-0x128 (4)
0x120|                        54 4c 39 99            |        TL9.    |      [63]: "2014-10-26T00:00:25Z" (1414281625) transition_time 0x128-0x12c (4)
0x120|                                    55 17 40 99|            U.@.|      [64]: "2015-03-29T00:00:25Z" (1427587225) transition_time 0x12c-0x130 (4)
0x130|56 2c 1b 9a                                    |V,..            |      [65]: "2015-10-25T00:00:26Z" (1445731226) transition_time 0x130-0x134 (4)
0x130|            64 9b 78 1b                        |    d.x.        |      [66]: "2023-06-28T00:00:27Z" (1687910427) transition_time 0x134-0x138 (4)
     |                                               |                |    transition_types[0:67]: 0x138-0x17b (67)
0x130|                        01                     |        .       |      [0]: 1 transition_type 0x138-0x139 (1)
0x130|                           03                  |         .      |      [1]: 3 transition_type 0x139-0x13a (1)
0x130|                              02               |          .     |      [2]: 2 transition_type 0x13a-0x13b (1)
0x130|                                 03            |           .    |      [3]: 3 transition_type 0x13b-0x13c (1)
0x130|                                    02         |            .   |      [4]: 2 transition_type 0x13c-0x13d (1)
0x130|                                       03      |             .  |      [5]: 3 transition_type 0x13d-0x13e (1)
0x130|                                          02   |              . |      [6]: 2 transition_type 0x13e-0x13f (1)
0x130|                                             03|               .|      [7]: 3 transition_type 0x13f-0x140 (1)
0x140|02                                             |.               |      [8]: 2 transition_type 0x140-0x141 (1)
0x140|   04                                          | .              |      [9]: 4 transition_type 0x141-0x142 (1)
0x140|      05                                       |  .             |      [10]: 5 transition_type 0x142-0x143 (1)
0x140|         04                                    |   .            |      [11]: 4 transition_type 0x143-0x144 (1)
0x140|            05                                 |    .           |      [12]: 5 transition_type 0x144-0x145 (1)
0x140|               04                              |     .          |      [13]: 4 transition_type 0x145-0x146 (1)
0x140|                  05                           |      .         |      [14]: 5 transition_type 0x146-0x147 (1)
0x140|                     04                        |       .        |      [15]: 4 transition_type 0x147-0x148 (1)
0x140|                        05                     |        .       |      [16]: 5 transition_type 0x148-0x149 (1)
0x140|                           04                  |         .      |      [17]: 4 transition_type 0x149-0x14a (1)
0x140|                              05               |          .     |      [18]: 5 transition_type 0x14a-0x14b (1)
0x140|                                 04            |           .    |      [19]: 4 transition_type 0x14b-0x14c (1)
0x140|                                    05         |            .   |      [20]: 5 transition_type 0x14c-0x14d (1)
0x140|                                       04      |             .  |      [21]: 4 transition_type 0x14d-0x14e (1)
0x140|                                          06   |              . |      [22]: 6 transition_type 0x14e-0x14f (1)
0x140|                                             07|               .|      [23]: 7 transition_type 0x14f-0x150 (1)
0x150|06                                             |.               |      [24]: 6 transition_type 0x150-0x151 (1)
0x150|   04                                          | .              |      [25]: 4 transition_type 0x151-0x152 (1)
0x150|      08                                       |  .             |      [26]: 8 transition_type 0x152-0x153 (1)
0x150|         09                                    |   .            |      [27]: 9 transition_type 0x153-0x154 (1)
0x150|            02                                 |    .           |      [28]: 2 transition_type 0x154-0x155 (1)
0x150|               03                              |     .          |      [29]: 3 transition_type 0x155-0x156 (1)
0x150|                  02                           |      .         |      [30]: 2 transition_type 0x156-0x157 (1)
0x150|                     03                        |       .        |      [31]: 3 transition_type 0x157-0x158 (1)
0x150|                        02                     |        .       |      [32]: 2 transition_type 0x158-0x159 (1)
0x150|                           03                  |         .      |      [33]: 3 transition_type 0x159-0x15a (1)
0x150|                              02               |          .     |      [34]: 2 transition_type 0x15a-0x15b (1)
0x150|                                 03            |           .    |      [35]: 3 transition_type 0x15b-0x15c (1)
0x150|                                    02         |            .   |      [36]: 2 transition_type 0x15c-0x15d (1)
0x150|                                       03      |             .  |      [37]: 3 transition_type 0x15d-0x15e (1)
0x150|                                          02   |              . |      [38]: 2 transition_type 0x15e-0x15f (1)
0x150|                                             03|               .|      [39]: 3 transition_type 0x15f-0x160 (1)
0x160|02                                             |.               |      [40]: 2 transition_type 0x160-0x161 (1)
0x160|   03                                          | .              |      [41]: 3 transition_type 0x161-0x162 (1)
0x160|      02                                       |  .             |      [42]: 2 transition_type 0x162-0x163 (1)
0x160|         03                                    |   .            |      [43]: 3 transition_type 0x163-0x164 (1)
0x160|            02                                 |    .           |      [44]: 2 transition_type 0x164-0x165 (1)
0x160|               03                              |     .          |      [45]: 3 transition_type 0x165-0x166 (1)
0x160|                  02                           |      .         |      [46]: 2 transition_type 0x166-0x167 (1)
0x160|                     03                        |       .        |      [47]: 3 transition_type 0x167-0x168 (1)
0x160|                        02                     |        .       |      [48]: 2 transition_type 0x168-0x169 (1)
0x160|                           03                  |         .      |      [49]: 3 transition_type 0x169-0x16a (1)
0x160|                              02               |          .     |      [50]: 2 transition_type 0x16a-0x16b (1)
0x160|                                 03            |           .    |      [51]: 3 transition_type 0x16b-0x16c (1)
0x160|                                    02         |            .   |      [52]: 2 transition_type 0x16c-0x16d (1)
0x160|                                       03      |             .  |      [53]: 3 transition_type 0x16d-0x16e (1)
0x160|                                          02   |              . |      [54]: 2 transition_type 0x16e-0x16f (1)
0x160|                                             03|               .|      [55]: 3 transition_type 0x16f-0x170 (1)
0x170|02                                             |.               |      [56]: 2 transition_type 0x170-0x171 (1)
0x170|   03                                          | .              |      [57]: 3 transition_type 0x171-0x172 (1)
0x170|      02                                       |  .             |      [58]: 2 transition_type 0x172-0x173 (1)
0x170|         03                                    |   .            |      [59]: 3 transition_type 0x173-0x174 (1)
0x170|            02                                 |    .           |      [60]: 2 transition_type 0x174-0x175 (1)
0x170|               03                              |     .          |      [61]: 3 transition_type 0x175-0x176 (1)
0x170|                  02                           |      .         |      [62]: 2 transition_type 0x176-0x177 (1)
0x170|                     03                        |       .        |      [63]: 3 transition_type 0x177-0x178 (1)
0x170|                        02                     |        .       |      [64]: 2 transition_type 0x178-0x179 (1)
0x170|                           03                  |         .      |      [65]: 3 transition_type 0x179-0x17a (1)
0x170|                              03               |          .     |      [66]: 3 transition_type 0x17a-0x17b (1)
     |                                               |                |    local_time_type_records[0:10]: 0x17b-0x1b7 (60)
     |                                               |                |      [0]{}: local_time_type 0x17b-0x181 (6)
0x170|                                 00 00 2e bc   |           .... |        utoff: 11964 (valid) 0x17b-0x17f (4)
0x170|                                             00|               .|        dst: 0 (valid) 0x17f-0x180 (1)
0x180|00                                             |.               |        idx: 0 (valid) 0x180-0x181 (1)
     |                                               |                |      [1]{}: local_time_type 0x181-0x187 (6)
0x180|   00 00 2a 30                                 | ..*0           |        utoff: 10800 (valid) 0x181-0x185 (4)
0x180|               00                              |     .          |        dst: 0 (valid) 0x185-0x186 (1)
0x180|                  04                           |      .         |        idx: 4 (valid) 0x186-0x187 (1)
     |                                               |                |      [2]{}: local_time_type 0x187-0x18d (6)
0x180|                     00 00 46 50               |       ..FP     |        utoff: 18000 (valid) 0x187-0x18b (4)
0x180|                                 01            |           .    |        dst: 1 (valid) 0x18b-0x18c (1)
0x180|                                    08         |            .   |        idx: 8 (valid) 0x18c-0x18d (1)
     |                                               |                |      [3]{}: local_time_type 0x18d-0x193 (6)
0x180|                                       00 00 38|             ..8|        utoff: 14400 (valid) 0x18d-0x191 (4)
0x190|40                                             |@               |
0x190|   00                                          | .              |        dst: 0 (valid) 0x191-0x192 (1)
0x190|      0c                                       |  .             |        idx: 12 (valid) 0x192-0x193 (1)
     |                                               |                |      [4]{}: local_time_type 0x193-0x199 (6)
0x190|         00 00 38 40                           |   ..8@         |        utoff: 14400 (valid) 0x193-0x197 (4)
0x190|                     00                        |       .        |        dst: 0 (valid) 0x197-0x198 (1)
0x190|                        0c                     |        .       |        idx: 12 (valid) 0x198-0x199 (1)
     |                                               |                |      [5]{}: local_time_type 0x199-0x19f (6)
0x190|                           00 00 46 50         |         ..FP   |        utoff: 18000 (valid) 0x199-0x19d (4)
0x190|                                       01      |             .  |        dst: 1 (valid) 0x19d-0x19e (1)
0x190|                                          08   |              . |        idx: 8 (valid) 0x19e-0x19f (1)
     |                                               |                |      [6]{}: local_time_type 0x19f-0x1a5 (6)
0x190|                                             00|               .|        utoff: 14400 (valid) 0x19f-0x1a3 (4)
0x1a0|00 38 40                                       |.8@             |
0x1a0|         01                                    |   .            |        dst: 1 (valid) 0x1a3-0x1a4 (1)
0x1a0|            0c                                 |    .           |        idx: 12 (valid) 0x1a4-0x1a5 (1)
     |                                               |                |      [7]{}: local_time_type 0x1a5-0x1ab (6)
0x1a0|               00 00 2a 30                     |     ..*0       |        utoff: 10800 (valid) 0x1a5-0x1a9 (4)
0x1a0|                           00                  |         .      |        dst: 0 (valid) 0x1a9-0x1aa (1)
0x1a0|                              04               |          .     |        idx: 4 (valid) 0x1aa-0x1ab (1)
     |                                               |                |      [8]{}: local_time_type 0x1ab-0x1b1 (6)
0x1a0|                                 00 00 46 50   |           ..FP |        utoff: 18000 (valid) 0x1ab-0x1af (4)
0x1a0|                                             01|               .|        dst: 1 (valid) 0x1af-0x1b0 (1)
0x1b0|08                                             |.               |        idx: 8 (valid) 0x1b0-0x1b1 (1)
     |                                               |                |      [9]{}: local_time_type 0x1b1-0x1b7 (6)
0x1b0|   00 00 38 40                                 | ..8@           |        utoff: 14400 (valid) 0x1b1-0x1b5 (4)
0x1b0|               00                              |     .          |        dst: 0 (valid) 0x1b5-0x1b6 (1)
0x1b0|                  0c                           |      .         |        idx: 12 (valid) 0x1b6-0x1b7 (1)
     |                                               |                |    time_zone_designations[0:4]: 0x1b7-0x1c7 (16)
0x1b0|                     4c 4d 54 00               |       LMT.     |      [0]: "LMT" time_zone_designation 0x1b7-0x1bb (4)
0x1b0|                                 2b 30 33 00   |           +03. |      [1]: "+03" time_zone_designation 0x1bb-0x1bf (4)
0x1b0|                                             2b|               +|      [2]: "+05" time_zone_designation 0x1bf-0x1c3 (4)
0x1c0|30 35 00                                       |05.             |
0x1c0|         2b 30 34 00                           |   +04.         |      [3]: "+04" time_zone_designation 0x1c3-0x1c7 (4)
     |                                               |                |    leap_second_records[0:27]: 0x1c7-0x29f (216)
     |                                               |                |      [0]{}: leap_second_record 0x1c7-0x1cf (8)
0x1c0|                     04 b2 58 00               |       ..X.     |        occur: "1972-07-01T00:00:00Z" (78796800) 0x1c7-0x1cb (4)
0x1c0|                                 00 00 00 01   |           .... |        corr: 1 0x1cb-0x1cf (4)
     |                                               |                |      [1]{}: leap_second_record 0x1cf-0x1d7 (8)
0x1c0|                                             05|               .|        occur: "1973-01-01T00:00:01Z" (94694401) 0x1cf-0x1d3 (4)
0x1d0|a4 ec 01                                       |...             |
0x1d0|         00 00 00 02                           |   ....         |        corr: 2 0x1d3-0x1d7 (4)
     |                                               |                |      [2]{}: leap_second_record 0x1d7-0x1df (8)
0x1d0|                     07 86 1f 82               |       ....     |        occur: "1974-01-01T00:00:02Z" (126230402) 0x1d7-0x1db (4)
0x1d0|                                 00 00 00 03   |           .... |        corr: 3 0x1db-0x1df (4)
     |                                               |                |      [3]{}: leap_second_record 0x1df-0x1e7 (8)
0x1d0|                                             09|               .|        occur: "1975-01-01T00:00:03Z" (157766403) 0x1df-0x1e3 (4)
0x1e0|67 53 03                                       |gS.             |
0x1e0|         00 00 00 04                           |   ....         |        corr: 4 0x1e3-0x1e7 (4)
     |                                               |                |      [4]{}: leap_second_record 0x1e7-0x1ef (8)
0x1e0|                     0b 48 86 84               |       .H..     |        occur: "1976-01-01T00:00:04Z" (189302404) 0x1e7-0x1eb (4)
0x1e0|                                 00 00 00 05   |           .... |        corr: 5 0x1eb-0x1ef (4)
     |                                               |                |      [5]{}: leap_second_record 0x1ef-0x1f7 (8)
0x1e0|                                             0d|               .|        occur: "1977-01-01T00:00:05Z" (220924805) 0x1ef-0x1f3 (4)
0x1f0|2b 0b 85                                       |+..             |
0x1f0|         00 00 00 06                           |   ....         |        corr: 6 0x1f3-0x1f7 (4)
     |                                               |                |      [6]{}: leap_second_record 0x1f7-0x1ff (8)
0x1f0|                     0f 0c 3f 06               |       ..?.     |        occur: "1978-01-01T00:00:06Z" (252460806) 0x1f7-0x1fb (4)
0x1f0|                                 00 00 00 07   |           .... |        corr: 7 0x1fb-0x1ff (4)
     |                                               |                |      [7]{}: leap_second_record 0x1ff-0x207 (8)
0x1f0|                                             10|               .|        occur: "1979-01-01T00:00:07Z" (283996807) 0x1ff-0x203 (4)
0x200|ed 72 87                                       |.r.             |
0x200|         00 00 00 08                           |   ....         |        corr: 8 0x203-0x207 (4)
     |                                               |                |      [8]{}: leap_second_record 0x207-0x20f (8)
0x200|                     12 ce a6 08               |       ....     |        occur: "1980-01-01T00:00:08Z" (315532808) 0x207-0x20b (4)
0x200|                                 00 00 00 09   |           .... |        corr: 9 0x20b-0x20f (4)
     |                                               |                |      [9]{}: leap_second_record 0x20f-0x217 (8)
0x200|                                             15|               .|        occur: "1981-07-01T00:00:09Z" (362793609) 0x20f-0x213 (4)
0x210|9f ca 89                                       |...             |
0x210|         00 00 00 0a                           |   ....         |        corr: 10 0x213-0x217 (4)
     |                                               |                |      [10]{}: leap_second_record 0x217-0x21f (8)
0x210|                     17 80 fe 0a               |       ....     |        occur: "1982-07-01T00:00:10Z" (394329610) 0x217-0x21b (4)
0x210|                                 00 00 00 0b   |           .... |        corr: 11 0x21b-0x21f (4)
     |                                               |                |      [11]{}: leap_second_record 0x21f-0x227 (8)
0x210|                                             19|               .|        occur: "1983-07-01T00:00:11Z" (425865611) 0x21f-0x223 (4)
0x220|62 31 8b                                       |b1.             |
0x220|         00 00 00 0c                           |   ....         |        corr: 12 0x223-0x227 (4)
     |                                               |                |      [12]{}: leap_second_record 0x227-0x22f (8)
0x220|                     1d 25 ea 0c               |       .%..     |        occur: "1985-07-01T00:00:12Z" (489024012) 0x227-0x22b (4)
0x220|                                 00 00 00 0d   |           .... |        corr: 13 0x22b-0x22f (4)
     |                                               |                |      [13]{}: leap_second_record 0x22f-0x237 (8)
0x220|                                             21|               !|        occur: "1988-01-01T00:00:13Z" (567993613) 0x22f-0x233 (4)
0x230|da e5 0d                                       |...             |
0x230|         00 00 00 0e                           |   ....         |        corr: 14 0x233-0x237 (4)
     |                                               |                |      [14]{}: leap_second_record 0x237-0x23f (8)
0x230|                     25 9e 9d 8e               |       %...     |        occur: "1990-01-01T00:00:14Z" (631152014) 0x237-0x23b (4)
0x230|                                 00 00 00 0f   |           .... |        corr: 15 0x23b-0x23f (4)
     |                                               |                |      [15]{}: leap_second_record 0x23f-0x247 (8)
0x230|                                             27|               '|        occur: "1991-01-01T00:00:15Z" (662688015) 0x23f-0x243 (4)
0x240|7f d1 0f                                       |...             |
0x240|         00 00 00 10                           |   ....         |        corr: 16 0x243-0x247 (4)
     |                                               |                |      [16]{}: leap_second_record 0x247-0x24f (8)
0x240|                     2a 50 f5 90               |       *P..     |        occur: "1992-07-01T00:00:16Z" (709948816) 0x247-0x24b (4)
0x240|                                 00 00 00 11   |           .... |        corr: 17 0x24b-0x24f (4)
     |                                               |                |      [17]{}: leap_second_record 0x24f-0x257 (8)
0x240|                                             2c|               ,|        occur: "1993-07-01T00:00:17Z" (741484817) 0x24f-0x253 (4)
0x250|32 29 11                                       |2).             |
0x250|         00 00 00 12                           |   ....         |        corr: 18 0x253-0x257 (4)
     |                                               |                |      [18]{}: leap_second_record 0x257-0x25f (8)
0x250|                     2e 13 5c 92               |       ..\.     |        occur: "1994-07-01T00:00:18Z" (773020818) 0x257-0x25b (4)
0x250|                                 00 00 00 13   |           .... |        corr: 19 0x25b-0x25f (4)
     |                                               |                |      [19]{}: leap_second_record 0x25f-0x267 (8)
0x250|                                             30|               0|        occur: "1996-01-01T00:00:19Z" (820454419) 0x25f-0x263 (4)
0x260|e7 24 13                                       |.$.             |
0x260|         00 00 00 14                           |   ....         |        corr: 20 0x263-0x267 (4)
     |                                               |                |      [20]{}: leap_second_record 0x267-0x26f (8)
0x260|                     33 b8 48 94               |       3.H.     |        occur: "1997-07-01T00:00:20Z" (867715220) 0x267-0x26b (4)
0x260|                                 00 00 00 15   |           .... |        corr: 21 0x26b-0x26f (4)
     |                                               |                |      [21]{}: leap_second_record 0x26f-0x277 (8)
0x260|                                             36|               6|        occur: "1999-01-01T00:00:21Z" (915148821) 0x26f-0x273 (4)
0x270|8c 10 15                                       |...             |
0x270|         00 00 00 16                           |   ....         |        corr: 22 0x273-0x277 (4)
     |                                               |                |      [22]{}: leap_second_record 0x277-0x27f (8)
0x270|                     43 b7 1b 96               |       C...     |        occur: "2006-01-01T00:00:22Z" (1136073622) 0x277-0x27b (4)
0x270|                                 00 00 00 17   |           .... |        corr: 23 0x27b-0x27f (4)
     |                                               |                |      [23]{}: leap_second_record 0x27f-0x287 (8)
0x270|                                             49|               I|        occur: "2009-01-01T00:00:23Z" (1230768023) 0x27f-0x283 (4)
0x280|5c 07 97                                       |\..             |
0x280|         00 00 00 18                           |   ....         |        corr: 24 0x283-0x287 (4)
     |                                               |                |      [24]{}: leap_second_record 0x287-0x28f (8)
0x280|                     4f ef 93 18               |       O...     |        occur: "2012-07-01T00:00:24Z" (1341100824) 0x287-0x28b (4)
0x280|                                 00 00 00 19   |           .... |        corr: 25 0x28b-0x28f (4)
     |                                               |                |      [25]{}: leap_second_record 0x28f-0x297 (8)
0x280|                                             55|               U|        occur: "2015-07-01T00:00:25Z" (1435708825) 0x28f-0x293 (4)
0x290|93 2d 99                                       |.-.             |
0x290|         00 00 00 1a                           |   ....         |        corr: 26 0x293-0x297 (4)
     |                                               |                |      [26]{}: leap_second_record 0x297-0x29f (8)
0x290|                     58 68 46 9a               |       XhF.     |        occur: "2017-01-01T00:00:26Z" (1483228826) 0x297-0x29b (4)
0x290|                                 00 00 00 1b   |           .... |        corr: 27 0x29b-0x29f (4)
     |                                               |                |    standard_wall_indicators[0:10]: 0x29f-0x2a9 (10)
0x290|                                             00|               .|      [0]: 0 standard_wall_indicator (valid) 0x29f-0x2a0 (1)
0x2a0|00                                             |.               |      [1]: 0 standard_wall_indicator (valid) 0x2a0-0x2a1 (1)
0x2a0|   00                                          | .              |      [2]: 0 standard_wall_indicator (valid) 0x2a1-0x2a2 (1)
0x2a0|      00                                       |  .             |      [3]: 0 standard_wall_indicator (valid) 0x2a2-0x2a3 (1)
0x2a0|         01                                    |   .            |      [4]: 1 standard_wall_indicator (valid) 0x2a3-0x2a4 (1)
0x2a0|            01                                 |    .           |      [5]: 1 standard_wall_indicator (valid) 0x2a4-0x2a5 (1)
0x2a0|               01                              |     .          |      [6]: 1 standard_wall_indicator (valid) 0x2a5-0x2a6 (1)
0x2a0|                  01                           |      .         |      [7]: 1 standard_wall_indicator (valid) 0x2a6-0x2a7 (1)
0x2a0|                     01                        |       .        |      [8]: 1 standard_wall_indicator (valid) 0x2a7-0x2a8 (1)
0x2a0|                        01                     |        .       |      [9]: 1 standard_wall_indicator (valid) 0x2a8-0x2a9 (1)
     |                                               |                |    ut_local_indicators[0:10]: 0x2a9-0x2b3 (10)
0x2a0|                           00                  |         .      |      [0]: 0 ut_local_indicator (valid) 0x2a9-0x2aa (1)
0x2a0|                              00               |          .     |      [1]: 0 ut_local_indicator (valid) 0x2aa-0x2ab (1)
0x2a0|                                 00            |           .    |      [2]: 0 ut_local_indicator (valid) 0x2ab-0x2ac (1)
0x2a0|                                    00         |            .   |      [3]: 0 ut_local_indicator (valid) 0x2ac-0x2ad (1)
0x2a0|                                       00      |             .  |      [4]: 0 ut_local_indicator (valid) 0x2ad-0x2ae (1)
0x2a0|                                          00   |              . |      [5]: 0 ut_local_indicator (valid) 0x2ae-0x2af (1)
0x2a0|                                             00|               .|      [6]: 0 ut_local_indicator (valid) 0x2af-0x2b0 (1)
0x2b0|00                                             |.               |      [7]: 0 ut_local_indicator (valid) 0x2b0-0x2b1 (1)
0x2b0|   01                                          | .              |      [8]: 1 ut_local_indicator (valid) 0x2b1-0x2b2 (1)
0x2b0|      01                                       |  .             |      [9]: 1 ut_local_indicator (valid) 0x2b2-0x2b3 (1)
     |                                               |                |  v2plusheader{}: 0x2b3-0x2df (44)
0x2b0|         54 5a 69 66                           |   TZif         |    magic: 0x545a6966 (valid) 0x2b3-0x2b7 (4)
0x2b0|                     32                        |       2        |    ver: "2" (0x32) (valid) 0x2b7-0x2b8 (1)
0x2b0|                        00 00 00 00 00 00 00 00|        ........|    reserved: raw bits 0x2b8-0x2c7 (15)
0x2c0|00 00 00 00 00 00 00                           |.......         |
0x2c0|                     00 00 00 0a               |       ....     |    isutcnt: 10 0x2c7-0x2cb (4)
0x2c0|                                 00 00 00 0a   |           .... |    isstdcnt: 10 0x2cb-0x2cf (4)
0x2c0|                                             00|               .|    leapcnt: 27 0x2cf-0x2d3 (4)
0x2d0|00 00 1b                                       |...             |
0x2d0|         00 00 00 43                           |   ...C         |    timecnt: 67 0x2d3-0x2d7 (4)
0x2d0|                     00 00 00 0a               |       ....     |    typecnt: 10 0x2d7-0x2db (4)
0x2d0|                                 00 00 00 10   |           .... |    charcnt: 16 0x2db-0x2df (4)
     |                                               |                |  v2plusdatablock{}: 0x2df-0x6de (1023)
     |                                               |                |    transition_times[0:67]: 0x2df-0x4f7 (536)
0x2d0|                                             ff|               .|      [0]: "1924-05-01T20:40:36Z" (-1441163964) transition_time 0x2df-0x2e7 (8)
0x2e0|ff ff ff aa 19 95 44                           |......D         |
0x2e0|                     ff ff ff ff e7 da 0c 50   |       .......P |      [1]: "1957-02-28T21:00:00Z" (-405140400) transition_time 0x2e7-0x2ef (8)
0x2e0|                                             00|               .|      [2]: "1981-03-31T20:00:09Z" (354916809) transition_time 0x2ef-0x2f7 (8)
0x2f0|00 00 00 15 27 99 c9                           |....'..         |
0x2f0|                     00 00 00 00 16 18 ce 3a   |       .......: |      [3]: "1981-09-30T19:00:10Z" (370724410) transition_time 0x2f7-0x2ff (8)
0x2f0|                                             00|               .|      [4]: "1982-03-31T20:00:10Z" (386452810) transition_time 0x2ff-0x307 (8)
0x300|00 00 00 17 08 cd 4a                           |......J         |
0x300|                     00 00 00 00 17 fa 01 bb   |       ........ |      [5]: "1982-09-30T19:00:11Z" (402260411) transition_time 0x307-0x30f (8)
0x300|                                             00|               .|      [6]: "1983-03-31T20:00:11Z" (417988811) transition_time 0x30f-0x317 (8)
0x310|00 00 00 18 ea 00 cb                           |.......         |
0x310|                     00 00 00 00 19 db 35 3c   |       ......5< |      [7]: "1983-09-30T19:00:12Z" (433796412) transition_time 0x317-0x31f (8)
0x310|                                             00|               .|      [8]: "1984-03-31T20:00:12Z" (449611212) transition_time 0x31f-0x327 (8)
0x320|00 00 00 1a cc 85 cc                           |.......         |
0x320|                     00 00 00 00 1b bc 92 ec   |       ........ |      [9]: "1984-09-29T22:00:12Z" (465343212) transition_time 0x327-0x32f (8)
0x320|                                             00|               .|      [10]: "1985-03-30T22:00:12Z" (481068012) transition_time 0x32f-0x337 (8)
0x330|00 00 00 1c ac 83 ec                           |.......         |
0x330|                     00 00 00 00 1d 9c 74 ed   |       ......t. |      [11]: "1985-09-28T22:00:13Z" (496792813) transition_time 0x337-0x33f (8)
0x330|                                             00|               .|      [12]: "1986-03-29T22:00:13Z" (512517613) transition_time 0x33f-0x347 (8)
0x340|00 00 00 1e 8c 65 ed                           |.....e.         |
0x340|                     00 00 00 00 1f 7c 56 ed   |       .....|V. |      [13]: "1986-09-27T22:00:13Z" (528242413) transition_time 0x347-0x34f (8)
0x340|                                             00|               .|      [14]: "1987-03-28T22:00:13Z" (543967213) transition_time 0x34f-0x357 (8)
0x350|00 00 00 20 6c 47 ed                           |... lG.         |
0x350|                     00 00 00 00 21 5c 38 ed   |       ....!\8. |      [15]: "1987-09-26T22:00:13Z" (559692013) transition_time 0x357-0x35f (8)
0x350|                                             00|               .|      [16]: "1988-03-26T22:00:14Z" (575416814) transition_time 0x35f-0x367 (8)
0x360|00 00 00 22 4c 29 ee                           |..."L).         |
0x360|                     00 00 00 00 23 3c 1a ee   |       ....#<.. |      [17]: "1988-09-24T22:00:14Z" (591141614) transition_time 0x367-0x36f (8)
0x360|                                             00|               .|      [18]: "1989-03-25T22:00:14Z" (606866414) transition_time 0x36f-0x377 (8)
0x370|00 00 00 24 2c 0b ee                           |...$,..         |
0x370|                     00 00 00 00 25 1b fc ee   |       ....%... |      [19]: "1989-09-23T22:00:14Z" (622591214) transition_time 0x377-0x37f (8)
0x370|                                             00|               .|      [20]: "1990-03-24T22:00:15Z" (638316015) transition_time 0x37f-0x387 (8)
0x380|00 00 00 26 0b ed ef                           |...&...         |
0x380|                     00 00 00 00 27 05 19 6f   |       ....'..o |      [21]: "1990-09-29T22:00:15Z" (654645615) transition_time 0x387-0x38f (8)
0x380|                                             00|               .|      [22]: "1991-03-30T22:00:16Z" (670370416) transition_time 0x38f-0x397 (8)
0x390|00 00 00 27 f5 0a 70                           |...'..p         |
0x390|                     00 00 00 00 28 e5 09 80   |       ....(... |      [23]: "1991-09-28T23:00:16Z" (686098816) transition_time 0x397-0x39f (8)
0x390|                                             00|               .|      [24]: "1992-03-28T23:00:16Z" (701823616) transition_time 0x39f-0x3a7 (8)
0x3a0|00 00 00 29 d4 fa 80                           |...)...         |
0x3a0|                     00 00 00 00 2a c4 eb 81   |       ....*... |      [25]: "1992-09-26T23:00:17Z" (717548417) transition_time 0x3a7-0x3af (8)
0x3a0|                                             00|               .|      [26]: "1996-03-31T01:00:20Z" (828234020) transition_time 0x3af-0x3b7 (8)
0x3b0|00 00 00 31 5d d9 24                           |...1].$         |
0x3b0|                     00 00 00 00 32 72 b4 24   |       ....2r.$ |      [27]: "1996-10-27T01:00:20Z" (846378020) transition_time 0x3b7-0x3bf (8)
0x3b0|                                             00|               .|      [28]: "1997-03-30T00:00:20Z" (859680020) transition_time 0x3bf-0x3c7 (8)
0x3c0|00 00 00 33 3d ad 14                           |...3=..         |
0x3c0|                     00 00 00 00 34 52 88 15   |       ....4R.. |      [29]: "1997-10-26T00:00:21Z" (877824021) transition_time 0x3c7-0x3cf (8)
0x3c0|                                             00|               .|      [30]: "1998-03-29T00:00:21Z" (891129621) transition_time 0x3cf-0x3d7 (8)
0x3d0|00 00 00 35 1d 8f 15                           |...5...         |
0x3d0|                     00 00 00 00 36 32 6a 15   |       ....62j. |      [31]: "1998-10-25T00:00:21Z" (909273621) transition_time 0x3d7-0x3df (8)
0x3d0|                                             00|               .|      [32]: "1999-03-28T00:00:22Z" (922579222) transition_time 0x3df-0x3e7 (8)
0x3e0|00 00 00 36 fd 71 16                           |...6.q.         |
0x3e0|                     00 00 00 00 38 1b 86 96   |       ....8... |      [33]: "1999-10-31T00:00:22Z" (941328022) transition_time 0x3e7-0x3ef (8)
0x3e0|                                             00|               .|      [34]: "2000-03-26T00:00:22Z" (954028822) transition_time 0x3ef-0x3f7 (8)
0x3f0|00 00 00 38 dd 53 16                           |...8.S.         |
0x3f0|                     00 00 00 00 39 fb 68 96   |       ....9.h. |      [35]: "2000-10-29T00:00:22Z" (972777622) transition_time 0x3f7-0x3ff (8)
0x3f0|                                             00|               .|      [36]: "2001-03-25T00:00:22Z" (985478422) transition_time 0x3ff-0x407 (8)
0x400|00 00 00 3a bd 35 16                           |...:.5.         |
0x400|                     00 00 00 00 3b db 4a 96   |       ....;.J. |      [37]: "2001-10-28T00:00:22Z" (1004227222) transition_time 0x407-0x40f (8)
0x400|                                             00|               .|      [38]: "2002-03-31T00:00:22Z" (1017532822) transition_time 0x40f-0x417 (8)
0x410|00 00 00 3c a6 51 96                           |...<.Q.         |
0x410|                     00 00 00 00 3d bb 2c 96   |       ....=.,. |      [39]: "2002-10-27T00:00:22Z" (1035676822) transition_time 0x417-0x41f (8)
0x410|                                             00|               .|      [40]: "2003-03-30T00:00:22Z" (1048982422) transition_time 0x41f-0x427 (8)
0x420|00 00 00 3e 86 33 96                           |...>.3.         |
0x420|                     00 00 00 00 3f 9b 0e 96   |       ....?... |      [41]: "2003-10-26T00:00:22Z" (1067126422) transition_time 0x427-0x42f (8)
0x420|                                             00|               .|      [42]: "2004-03-28T00:00:22Z" (1080432022) transition_time 0x42f-0x437 (8)
0x430|00 00 00 40 66 15 96                           |...@f..         |
0x430|                     00 00 00 00 41 84 2b 16   |       ....A.+. |      [43]: "2004-10-31T00:00:22Z" (1099180822) transition_time 0x437-0x43f (8)
0x430|                                             00|               .|      [44]: "2005-03-27T00:00:22Z" (1111881622) transition_time 0x43f-0x447 (8)
0x440|00 00 00 42 45 f7 96                           |...BE..         |
0x440|                     00 00 00 00 43 64 0d 16   |       ....Cd.. |      [45]: "2005-10-30T00:00:22Z" (1130630422) transition_time 0x447-0x44f (8)
0x440|                                             00|               .|      [46]: "2006-03-26T00:00:23Z" (1143331223) transition_time 0x44f-0x457 (8)
0x450|00 00 00 44 25 d9 97                           |...D%..         |
0x450|                     00 00 00 00 45 43 ef 17   |       ....EC.. |      [47]: "2006-10-29T00:00:23Z" (1162080023) transition_time 0x457-0x45f (8)
0x450|                                             00|               .|      [48]: "2007-03-25T00:00:23Z" (1174780823) transition_time 0x45f-0x467 (8)
0x460|00 00 00 46 05 bb 97                           |...F...         |
0x460|                     00 00 00 00 47 23 d1 17   |       ....G#.. |      [49]: "2007-10-28T00:00:23Z" (1193529623) transition_time 0x467-0x46f (8)
0x460|                                             00|               .|      [50]: "2008-03-30T00:00:23Z" (1206835223) transition_time 0x46f-0x477 (8)
0x470|00 00 00 47 ee d8 17                           |...G...         |
0x470|                     00 00 00 00 49 03 b3 17   |       ....I... |      [51]: "2008-10-26T00:00:23Z" (1224979223) transition_time 0x477-0x47f (8)
0x470|                                             00|               .|      [52]: "2009-03-29T00:00:24Z" (1238284824) transition_time 0x47f-0x487 (8)
0x480|00 00 00 49 ce ba 18                           |...I...         |
0x480|                     00 00 00 00 4a e3 95 18   |       ....J... |      [53]: "2009-10-25T00:00:24Z" (1256428824) transition_time 0x487-0x48f (8)
0x480|                                             00|               .|      [54]: "2010-03-28T00:00:24Z" (1269734424) transition_time 0x48f-0x497 (8)
0x490|00 00 00 4b ae 9c 18                           |...K...         |
0x490|                     00 00 00 00 4c cc b1 98   |       ....L... |      [55]: "2010-10-31T00:00:24Z" (1288483224) transition_time 0x497-0x49f (8)
0x490|                                             00|               .|      [56]: "2011-03-27T00:00:24Z" (1301184024) transition_time 0x49f-0x4a7 (8)
0x4a0|00 00 00 4d 8e 7e 18                           |...M.~.         |
0x4a0|                     00 00 00 00 4e ac 93 98   |       ....N... |      [57]: "2011-10-30T00:00:24Z" (1319932824) transition_time 0x4a7-0x4af (8)
0x4a0|                                             00|               .|      [58]: "2012-03-25T00:00:24Z" (1332633624) transition_time 0x4af-0x4b7 (8)
0x4b0|00 00 00 4f 6e 60 18                           |...On`.         |
0x4b0|                     00 00 00 00 50 8c 75 99   |       ....P.u. |      [59]: "2012-10-28T00:00:25Z" (1351382425) transition_time 0x4b7-0x4bf (8)
0x4b0|                                             00|               .|      [60]: "2013-03-31T00:00:25Z" (1364688025) transition_time 0x4bf-0x4c7 (8)
0x4c0|00 00 00 51 57 7c 99                           |...QW|.         |
0x4c0|                     00 00 00 00 52 6c 57 99   |       ....RlW. |      [61]: "2013-10-27T00:00:25Z" (1382832025) transition_time 0x4c7-0x4cf (8)
0x4c0|                                             00|               .|      [62]: "2014-03-30T00:00:25Z" (1396137625) transition_time 0x4cf-0x4d7 (8)
0x4d0|00 00 00 53 37 5e 99                           |...S7^.         |
0x4d0|                     00 00 00 00 54 4c 39 99   |       ....TL9. |      [63]: "2014-10-26T00:00:25Z" (1414281625) transition_time 0x4d7-0x4df (8)
0x4d0|                                             00|               .|      [64]: "2015-03-29T00:00:25Z" (1427587225) transition_time 0x4df-0x4e7 (8)
0x4e0|00 00 00 55 17 40 99                           |...U.@.         |
0x4e0|                     00 00 00 00 56 2c 1b 9a   |       ....V,.. |      [65]: "2015-10-25T00:00:26Z" (1445731226) transition_time 0x4e7-0x4ef (8)
0x4e0|                                             00|               .|      [66]: "2023-06-28T00:00:27Z" (1687910427) transition_time 0x4ef-0x4f7 (8)
0x4f0|00 00 00 64 9b 78 1b                           |...d.x.         |
     |                                               |                |    transition_types[0:67]: 0x4f7-0x53a (67)
0x4f0|                     01                        |       .        |      [0]: 1 transition_type 0x4f7-0x4f8 (1)
0x4f0|                        03                     |        .       |      [1]: 3 transition_type 0x4f8-0x4f9 (1)
0x4f0|                           02                  |         .      |      [2]: 2 transition_type 0x4f9-0x4fa (1)
0x4f0|                              03               |          .     |      [3]: 3 transition_type 0x4fa-0x4fb (1)
0x4f0|                                 02            |           .    |      [4]: 2 transition_type 0x4fb-0x4fc (1)
0x4f0|                                    03         |            .   |      [5]: 3 transition_type 0x4fc-0x4fd (1)
0x4f0|                                       02      |             .  |      [6]: 2 transition_type 0x4fd-0x4fe (1)
0x4f0|                                          03   |              . |      [7]: 3 transition_type 0x4fe-0x4ff (1)
0x4f0|                                             02|               .|      [8]: 2 transition_type 0x4ff-0x500 (1)
0x500|04                                             |.               |      [9]: 4 transition_type 0x500-0x501 (1)
0x500|   05                                          | .              |      [10]: 5 transition_type 0x501-0x502 (1)
0x500|      04                                       |  .             |      [11]: 4 transition_type 0x502-0x503 (1)
0x500|         05                                    |   .            |      [12]: 5 transition_type 0x503-0x504 (1)
0x500|            04                                 |    .           |      [13]: 4 transition_type 0x504-0x505 (1)
0x500|               05                              |     .          |      [14]: 5 transition_type 0x505-0x506 (1)
0x500|                  04                           |      .         |      [15]: 4 transition_type 0x506-0x507 (1)
0x500|                     05                        |       .        |      [16]: 5 transition_type 0x507-0x508 (1)
0x500|                        04                     |        .       |      [17]: 4 transition_type 0x508-0x509 (1)
0x500|                           05                  |         .      |      [18]: 5 transition_type 0x509-0x50a (1)
0x500|                              04               |          .     |      [19]: 4 transition_type 0x50a-0x50b (1)
0x500|                                 05            |           .    |      [20]: 5 transition_type 0x50b-0x50c (1)
0x500|                                    04         |            .   |      [21]: 4 transition_type 0x50c-0x50d (1)
0x500|                                       06      |             .  |      [22]: 6 transition_type 0x50d-0x50e (1)
0x500|                                          07   |              . |      [23]: 7 transition_type 0x50e-0x50f (1)
0x500|                                             06|               .|      [24]: 6 transition_type 0x50f-0x510 (1)
0x510|04                                             |.               |      [25]: 4 transition_type 0x510-0x511 (1)
0x510|   08                                          | .              |      [26]: 8 transition_type 0x511-0x512 (1)
0x510|      09                                       |  .             |      [27]: 9 transition_type 0x512-0x513 (1)
0x510|         02                                    |   .            |      [28]: 2 transition_type 0x513-0x514 (1)
0x510|            03                                 |    .           |      [29]: 3 transition_type 0x514-0x515 (1)
0x510|               02                              |     .          |      [30]: 2 transition_type 0x515-0x516 (1)
0x510|                  03                           |      .         |      [31]: 3 transition_type 0x516-0x517 (1)
0x510|                     02                        |       .        |      [32]: 2 transition_type 0x517-0x518 (1)
0x510|                        03                     |        .       |      [33]: 3 transition_type 0x518-0x519 (1)
0x510|                           02                  |         .      |      [34]: 2 transition_type 0x519-0x51a (1)
0x510|                              03               |          .     |      [35]: 3 transition_type 0x51a-0x51b (1)
0x510|                                 02            |           .    |      [36]: 2 transition_type 0x51b-0x51c (1)
0x510|                                    03         |            .   |      [37]: 3 transition_type 0x51c-0x51d (1)
0x510|                                       02      |             .  |      [38]: 2 transition_type 0x51d-0x51e (1)
0x510|                                          03   |              . |      [39]: 3 transition_type 0x51e-0x51f (1)
0x510|                                             02|               .|      [40]: 2 transition_type 0x51f-0x520 (1)
0x520|03                                             |.               |      [41]: 3 transition_type 0x520-0x521 (1)
0x520|   02                                          | .              |      [42]: 2 transition_type 0x521-0x522 (1)
0x520|      03                                       |  .             |      [43]: 3 transition_type 0x522-0x523 (1)
0x520|         02                                    |   .            |      [44]: 2 transition_type 0x523-0x524 (1)
0x520|            03                                 |    .           |      [45]: 3 transition_type 0x524-0x525 (1)
0x520|               02                              |     .          |      [46]: 2 transition_type 0x525-0x526 (1)
0x520|                  03                           |      .         |      [47]: 3 transition_type 0x526-0x527 (1)
0x520|                     02                        |       .        |      [48]: 2 transition_type 0x527-0x528 (1)
0x520|                        03                     |        .       |      [49]: 3 transition_type 0x528-0x529 (1)
0x520|                           02                  |         .      |      [50]: 2 transition_type 0x529-0x52a (1)
0x520|                              03               |          .     |      [51]: 3 transition_type 0x52a-0x52b (1)
0x520|                                 02            |           .    |      [52]: 2 transition_type 0x52b-0x52c (1)
0x520|                                    03         |            .   |      [53]: 3 transition_type 0x52c-0x52d (1)
0x520|                                       02      |             .  |      [54]: 2 transition_type 0x52d-0x52e (1)
0x520|                                          03   |              . |      [55]: 3 transition_type 0x52e-0x52f (1)
0x520|                                             02|               .|      [56]: 2 transition_type 0x52f-0x530 (1)
0x530|03                                             |.               |      [57]: 3 transition_type 0x530-0x531 (1)
0x530|   02                                          | .              |      [58]: 2 transition_type 0x531-0x532 (1)
0x530|      03                                       |  .             |      [59]: 3 transition_type 0x532-0x533 (1)
0x530|         02                                    |   .            |      [60]: 2 transition_type 0x533-0x534 (1)
0x530|            03                                 |    .           |      [61]: 3 transition_type 0x534-0x535 (1)
0x530|               02                              |     .          |      [62]: 2 transition_type 0x535-0x536 (1)
0x530|                  03                           |      .         |      [63]: 3 transition_type 0x536-0x537 (1)
0x530|                     02                        |       .        |      [64]: 2 transition_type 0x537-0x538 (1)
0x530|                        03                     |        .       |      [65]: 3 transition_type 0x538-0x539 (1)
0x530|                           03                  |         .      |      [66]: 3 transition_type 0x539-0x53a (1)
     |                                               |                |    local_time_type_records[0:10]: 0x53a-0x576 (60)
     |                                               |                |      [0]{}: local_time_type 0x53a-0x540 (6)
0x530|                              00 00 2e bc      |          ....  |        utoff: 11964 (valid) 0x53a-0x53e (4)
0x530|                                          00   |              . |        dst: 0 (valid) 0x53e-0x53f (1)
0x530|                                             00|               .|        idx: 0 (valid) 0x53f-0x540 (1)
     |                                               |                |      [1]{}: local_time_type 0x540-0x546 (6)
0x540|00 00 2a 30                                    |..*0            |        utoff: 10800 (valid) 0x540-0x544 (4)
0x540|            00                                 |    .           |        dst: 0 (valid) 0x544-0x545 (1)
0x540|               04                              |     .          |        idx: 4 (valid) 0x545-0x546 (1)
     |                                               |                |      [2]{}: local_time_type 0x546-0x54c (6)
0x540|                  00 00 46 50                  |      ..FP      |        utoff: 18000 (valid) 0x546-0x54a (4)
0x540|                              01               |          .     |        dst: 1 (valid) 0x54a-0x54b (1)
0x540|                                 08            |           .    |        idx: 8 (valid) 0x54b-0x54c (1)
     |                                               |                |      [3]{}: local_time_type 0x54c-0x552 (6)
0x540|                                    00 00 38 40|            ..8@|        utoff: 14400 (valid) 0x54c-0x550 (4)
0x550|00                                             |.               |        dst: 0 (valid) 0x550-0x551 (1)
0x550|   0c                                          | .              |        idx: 12 (valid) 0x551-0x552 (1)
     |                                               |                |      [4]{}: local_time_type 0x552-0x558 (6)
0x550|      00 00 38 40                              |  ..8@          |        utoff: 14400 (valid) 0x552-0x556 (4)
0x550|                  00                           |      .         |        dst: 0 (valid) 0x556-0x557 (1)
0x550|                     0c                        |       .        |        idx: 12 (valid) 0x557-0x558 (1)
     |                                               |                |      [5]{}: local_time_type 0x558-0x55e (6)
0x550|                        00 00 46 50            |        ..FP    |        utoff: 18000 (valid) 0x558-0x55c (4)
0x550|                                    01         |            .   |        dst: 1 (valid) 0x55c-0x55d (1)
0x550|                                       08      |             .  |        idx: 8 (valid) 0x55d-0x55e (1)
     |                                               |                |      [6]{}: local_time_type 0x55e-0x564 (6)
0x550|                                          00 00|              ..|        utoff: 14400 (valid) 0x55e-0x562 (4)
0x560|38 40                                          |8@              |
0x560|      01                                       |  .             |        dst: 1 (valid) 0x562-0x563 (1)
0x560|         0c                                    |   .            |        idx: 12 (valid) 0x563-0x564 (1)
     |                                               |                |      [7]{}: local_time_type 0x564-0x56a (6)
0x560|            00 00 2a 30                        |    ..*0        |        utoff: 10800 (valid) 0x564-0x568 (4)
0x560|                        00                     |        .       |        dst: 0 (valid) 0x568-0x569 (1)
0x560|                           04                  |         .      |        idx: 4 (valid) 0x569-0x56a (1)
     |                                               |                |      [8]{}: local_time_type 0x56a-0x570 (6)
0x560|                              00 00 46 50      |          ..FP  |        utoff: 18000 (valid) 0x56a-0x56e (4)
0x560|                                          01   |              . |        dst: 1 (valid) 0x56e-0x56f (1)
0x560|                                             08|               .|        idx: 8 (valid) 0x56f-0x570 (1)
     |                                               |                |      [9]{}: local_time_type 0x570-0x576 (6)
0x570|00 00 38 40                                    |..8@            |        utoff: 14400 (valid) 0x570-0x574 (4)
0x570|            00                                 |    .           |        dst: 0 (valid) 0x574-0x575 (1)
0x570|               0c                              |     .          |        idx: 12 (valid) 0x575-0x576 (1)
     |                                               |                |    time_zone_designations[0:4]: 0x576-0x586 (16)
0x570|                  4c 4d 54 00                  |      LMT.      |      [0]: "LMT" time_zone_designation 0x576-0x57a (4)
0x570|                              2b 30 33 00      |          +03.  |      [1]: "+03" time_zone_designation 0x57a-0x57e (4)
0x570|                                          2b 30|              +0|      [2]: "+05" time_zone_designation 0x57e-0x582 (4)
0x580|35 00                                          |5.              |
0x580|      2b 30 34 00                              |  +04.          |      [3]: "+04" time_zone_designation 0x582-0x586 (4)
     |                                               |                |    leap_second_records[0:27]: 0x586-0x6ca (324)
     |                                               |                |      [0]{}: leap_second_record 0x586-0x592 (12)
0x580|                  00 00 00 00 04 b2 58 00      |      ......X.  |        occur: "1972-07-01T00:00:00Z" (78796800) 0x586-0x58e (8)
0x580|                                          00 00|              ..|        corr: 1 0x58e-0x592 (4)
0x590|00 01                                          |..              |
     |                                               |                |      [1]{}: leap_second_record 0x592-0x59e (12)
0x590|      00 00 00 00 05 a4 ec 01                  |  ........      |        occur: "1973-01-01T00:00:01Z" (94694401) 0x592-0x59a (8)
0x590|                              00 00 00 02      |          ....  |        corr: 2 0x59a-0x59e (4)
     |                                               |                |      [2]{}: leap_second_record 0x59e-0x5aa (12)
0x590|                                          00 00|              ..|        occur: "1974-01-01T00:00:02Z" (126230402) 0x59e-0x5a6 (8)
0x5a0|00 00 07 86 1f 82                              |......          |
0x5a0|                  00 00 00 03                  |      ....      |        corr: 3 0x5a6-0x5aa (4)
     |                                               |                |      [3]{}: leap_second_record 0x5aa-0x5b6 (12)
0x5a0|                              00 00 00 00 09 67|          .....g|        occur: "1975-01-01T00:00:03Z" (157766403) 0x5aa-0x5b2 (8)
0x5b0|53 03                                          |S.              |
0x5b0|      00 00 00 04                              |  ....          |        corr: 4 0x5b2-0x5b6 (4)
     |                                               |                |      [4]{}: leap_second_record 0x5b6-0x5c2 (12)
0x5b0|                  00 00 00 00 0b 48 86 84      |      .....H..  |        occur: "1976-01-01T00:00:04Z" (189302404) 0x5b6-0x5be (8)
0x5b0|                                          00 00|              ..|        corr: 5 0x5be-0x5c2 (4)
0x5c0|00 05                                          |..              |
     |                                               |                |      [5]{}: leap_second_record 0x5c2-0x5ce (12)
0x5c0|      00 00 00 00 0d 2b 0b 85                  |  .....+..      |        occur: "1977-01-01T00:00:05Z" (220924805) 0x5c2-0x5ca (8)
0x5c0|                              00 00 00 06      |          ....  |        corr: 6 0x5ca-0x5ce (4)
     |                                               |                |      [6]{}: leap_second_record 0x5ce-0x5da (12)
0x5c0|                                          00 00|              ..|        occur: "1978-01-01T00:00:06Z" (252460806) 0x5ce-0x5d6 (8)
0x5d0|00 00 0f 0c 3f 06                              |....?.          |
0x5d0|                  00 00 00 07                  |      ....      |        corr: 7 0x5d6-0x5da (4)
     |                                               |                |      [7]{}: leap_second_record 0x5da-0x5e6 (12)
0x5d0|                              00 00 00 00 10 ed|          ......|        occur: "1979-01-01T00:00:07Z" (283996807) 0x5da-0x5e2 (8)
0x5e0|72 87                                          |r.              |
0x5e0|      00 00 00 08                              |  ....          |        corr: 8 0x5e2-0x5e6 (4)
     |                                               |                |      [8]{}: leap_second_record 0x5e6-0x5f2 (12)
0x5e0|                  00 00 00 00 12 ce a6 08      |      ........  |        occur: "1980-01-01T00:00:08Z" (315532808) 0x5e6-0x5ee (8)
0x5e0|                                          00 00|              ..|        corr: 9 0x5ee-0x5f2 (4)
0x5f0|00 09                                          |..              |
     |                                               |                |      [9]{}: leap_second_record 0x5f2-0x5fe (12)
0x5f0|      00 00 00 00 15 9f ca 89                  |  ........      |        occur: "1981-07-01T00:00:09Z" (362793609) 0x5f2-0x5fa (8)
0x5f0|                              00 00 00 0a      |          ....  |        corr: 10 0x5fa-0x5fe (4)
     |                                               |                |      [10]{}: leap_second_record 0x5fe-0x60a (12)
0x5f0|                                          00 00|              ..|        occur: "1982-07-01T00:00:10Z" (394329610) 0x5fe-0x606 (8)
0x600|00 00 17 80 fe 0a                              |......          |
0x600|                  00 00 00 0b                  |      ....      |        corr: 11 0x606-0x60a (4)
     |                                               |                |      [11]{}: leap_second_record 0x60a-0x616 (12)
0x600|                              00 00 00 00 19 62|          .....b|        occur: "1983-07-01T00:00:11Z" (425865611) 0x60a-0x612 (8)
0x610|31 8b                                          |1.              |
0x610|      00 00 00 0c                              |  ....          |        corr: 12 0x612-0x616 (4)
     |                                               |                |      [12]{}: leap_second_record 0x616-0x622 (12)
0x610|                  00 00 00 00 1d 25 ea 0c      |      .....%..  |        occur: "1985-07-01T00:00:12Z" (489024012) 0x616-0x61e (8)
0x610|                                          00 00|              ..|        corr: 13 0x61e-0x622 (4)
0x620|00 0d                                          |..              |
     |                                               |                |      [13]{}: leap_second_record 0x622-0x62e (12)
0x620|      00 00 00 00 21 da e5 0d                  |  ....!...      |        occur: "1988-01-01T00:00:13Z" (567993613) 0x622-0x62a (8)
0x620|                              00 00 00 0e      |          ....  |        corr: 14 0x62a-0x62e (4)
     |                                               |                |      [14]{}: leap_second_record 0x62e-0x63a (12)
0x620|                                          00 00|              ..|        occur: "1990-01-01T00:00:14Z" (631152014) 0x62e-0x636 (8)
0x630|00 00 25 9e 9d 8e                              |..%...          |
0x630|                  00 00 00 0f                  |      ....      |        corr: 15 0x636-0x63a (4)
     |                                               |                |      [15]{}: leap_second_record 0x63a-0x646 (12)
0x630|                              00 00 00 00 27 7f|          ....'.|        occur: "1991-01-01T00:00:15Z" (662688015) 0x63a-0x642 (8)
0x640|d1 0f                                          |..              |
0x640|      00 00 00 10                              |  ....          |        corr: 16 0x642-0x646 (4)
     |                                               |                |      [16]{}: leap_second_record 0x646-0x652 (12)
0x640|                  00 00 00 00 2a 50 f5 90      |      ....*P..  |        occur: "1992-07-01T00:00:16Z" (709948816) 0x646-0x64e (8)
0x640|                                          00 00|              ..|        corr: 17 0x64e-0x652 (4)
0x650|00 11                                          |..              |
     |                                               |                |      [17]{}: leap_second_record 0x652-0x65e (12)
0x650|      00 00 00 00 2c 32 29 11                  |  ....,2).      |        occur: "1993-07-01T00:00:17Z" (741484817) 0x652-0x65a (8)
0x650|                              00 00 00 12      |          ....  |        corr: 18 0x65a-0x65e (4)
     |                                               |                |      [18]{}: leap_second_record 0x65e-0x66a (12)
0x650|                                          00 00|              ..|        occur: "1994-07-01T00:00:18Z" (773020818) 0x65e-0x666 (8)
0x660|00 00 2e 13 5c 92                              |....\.          |
0x660|                  00 00 00 13                  |      ....      |        corr: 19 0x666-0x66a (4)
     |                                               |                |      [19]{}: leap_second_record 0x66a-0x676 (12)
0x660|                              00 00 00 00 30 e7|          ....0.|        occur: "1996-01-01T00:00:19Z" (820454419) 0x66a-0x672 (8)
0x670|24 13                                          |$.              |
0x670|      00 00 00 14                              |  ....          |        corr: 20 0x672-0x676 (4)
     |                                               |                |      [20]{}: leap_second_record 0x676-0x682 (12)
0x670|                  00 00 00 00 33 b8 48 94      |      ....3.H.  |        occur: "1997-07-01T00:00:20Z" (867715220) 0x676-0x67e (8)
0x670|                                          00 00|              ..|        corr: 21 0x67e-0x682 (4)
0x680|00 15                                          |..              |
     |                                               |                |      [21]{}: leap_second_record 0x682-0x68e (12)
0x680|      00 00 00 00 36 8c 10 15                  |  ....6...      |        occur: "1999-01-01T00:00:21Z" (915148821) 0x682-0x68a (8)
0x680|                              00 00 00 16      |          ....  |        corr: 22 0x68a-0x68e (4)
     |                                               |                |      [22]{}: leap_second_record 0x68e-0x69a (12)
0x680|                                          00 00|              ..|        occur: "2006-01-01T00:00:22Z" (1136073622) 0x68e-0x696 (8)
0x690|00 00 43 b7 1b 96                              |..C...          |
0x690|                  00 00 00 17                  |      ....      |        corr: 23 0x696-0x69a (4)
     |                                               |                |      [23]{}: leap_second_record 0x69a-0x6a6 (12)
0x690|                              00 00 00 00 49 5c|          ....I\|        occur: "2009-01-01T00:00:23Z" (1230768023) 0x69a-0x6a2 (8)
0x6a0|07 97                                          |..              |
0x6a0|      00 00 00 18                              |  ....          |        corr: 24 0x6a2-0x6a6 (4)
     |                                               |                |      [24]{}: leap_second_record 0x6a6-0x6b2 (12)
0x6a0|                  00 00 00 00 4f ef 93 18      |      ....O...  |        occur: "2012-07-01T00:00:24Z" (1341100824) 0x6a6-0x6ae (8)
0x6a0|                                          00 00|              ..|        corr: 25 0x6ae-0x6b2 (4)
0x6b0|00 19                                          |..              |
     |                                               |                |      [25]{}: leap_second_record 0x6b2-0x6be (12)
0x6b0|      00 00 00 00 55 93 2d 99                  |  ....U.-.      |        occur: "2015-07-01T00:00:25Z" (1435708825) 0x6b2-0x6ba (8)
0x6b0|                              00 00 00 1a      |          ....  |        corr: 26 0x6ba-0x6be (4)
     |                                               |                |      [26]{}: leap_second_record 0x6be-0x6ca (12)
0x6b0|                                          00 00|              ..|        occur: "2017-01-01T00:00:26Z" (1483228826) 0x6be-0x6c6 (8)
0x6c0|00 00 58 68 46 9a                              |..XhF.          |
0x6c0|                  00 00 00 1b                  |      ....      |        corr: 27 0x6c6-0x6ca (4)
     |                                               |                |    standard_wall_indicators[0:10]: 0x6ca-0x6d4 (10)
0x6c0|                              00               |          .     |      [0]: 0 standard_wall_indicator (valid) 0x6ca-0x6cb (1)
0x6c0|                                 00            |           .    |      [1]: 0 standard_wall_indicator (valid) 0x6cb-0x6cc (1)
0x6c0|                                    00         |            .   |      [2]: 0 standard_wall_indicator (valid) 0x6cc-0x6cd (1)
0x6c0|                                       00      |             .  |      [3]: 0 standard_wall_indicator (valid) 0x6cd-0x6ce (1)
0x6c0|                                          01   |              . |      [4]: 1 standard_wall_indicator (valid) 0x6ce-0x6cf (1)
0x6c0|                                             01|               .|      [5]: 1 standard_wall_indicator (valid) 0x6cf-0x6d0 (1)
0x6d0|01                                             |.               |      [6]: 1 standard_wall_indicator (valid) 0x6d0-0x6d1 (1)
0x6d0|   01                                          | .              |      [7]: 1 standard_wall_indicator (valid) 0x6d1-0x6d2 (1)
0x6d0|      01                                       |  .             |      [8]: 1 standard_wall_indicator (valid) 0x6d2-0x6d3 (1)
0x6d0|         01                                    |   .            |      [9]: 1 standard_wall_indicator (valid) 0x6d3-0x6d4 (1)
     |                                               |                |    ut_local_indicators[0:10]: 0x6d4-0x6de (10)
0x6d0|            00                                 |    .           |      [0]: 0 ut_local_indicator (valid) 0x6d4-0x6d5 (1)
0x6d0|               00                              |     .          |      [1]: 0 ut_local_indicator (valid) 0x6d5-0x6d6 (1)
0x6d0|                  00                           |      .         |      [2]: 0 ut_local_indicator (valid) 0x6d6-0x6d7 (1)
0x6d0|                     00                        |       .        |      [3]: 0 ut_local_indicator (valid) 0x6d7-0x6d8 (1)
0x6d0|                        00                     |        .       |      [4]: 0 ut_local_indicator (valid) 0x6d8-0x6d9 (1)
0x6d0|                           00                  |         .      |      [5]: 0 ut_local_indicator (valid) 0x6d9-0x6da (1)
0x6d0|                              00               |          .     |      [6]: 0 ut_local_indicator (valid) 0x6da-0x6db (1)
0x6d0|                                 00            |           .    |      [7]: 0 ut_local_indicator (valid) 0x6db-0x6dc (1)
0x6d0|                                    01         |            .   |      [8]: 1 ut_local_indicator (valid) 0x6dc-0x6dd (1)
0x6d0|                                       01      |             .  |      [9]: 1 ut_local_indicator (valid) 0x6dd-0x6de (1)
     |                                               |                |  footer{}: 0x6de-0x6e0 (2)
0x6d0|                                          0a   |              . |    nl1: 10 (valid) 0x6de-0x6df (1)
     |                                               |                |    tz_string: "" 0x6df-0x6df (0)
0x6d0|                                             0a|               .|    nl2: 10 (valid) 0x6df-0x6e0 (1)
