$ fq -d tzif dv Beirut
     |00 01 02 03 04 05 06 07 08 09 0a 0b 0c 0d 0e 0f|0123456789abcdef|.{}: Beirut (tzif) 0x0-0x8e2 (2274)
     |                                               |                |  v1header{}: 0x0-0x2c (44)
0x000|54 5a 69 66                                    |TZif            |    magic: 0x545a6966 (valid) 0x0-0x4 (4)
0x000|            32                                 |    2           |    ver: "2" (0x32) (valid) 0x4-0x5 (1)
0x000|               00 00 00 00 00 00 00 00 00 00 00|     ...........|    reserved: raw bits 0x5-0x14 (15)
0x010|00 00 00 00                                    |....            |
0x010|            00 00 00 00                        |    ....        |    isutcnt: 0 0x14-0x18 (4)
0x010|                        00 00 00 00            |        ....    |    isstdcnt: 0 0x18-0x1c (4)
0x010|                                    00 00 00 1b|            ....|    leapcnt: 27 0x1c-0x20 (4)
0x020|00 00 00 71                                    |...q            |    timecnt: 113 0x20-0x24 (4)
0x020|            00 00 00 03                        |    ....        |    typecnt: 3 0x24-0x28 (4)
0x020|                        00 00 00 0d            |        ....    |    charcnt: 13 0x28-0x2c (4)
     |                                               |                |  v1datablock{}: 0x2c-0x358 (812)
     |                                               |                |    transition_times[0:113]: 0x2c-0x1f0 (452)
0x020|                                    80 00 00 00|            ....|      [0]: "1901-12-13T20:45:52Z" (-2147483648) transition_time 0x2c-0x30 (4)
0x030|a2 65 63 e0                                    |.ec.            |      [1]: "1920-03-27T22:00:00Z" (-1570413600) transition_time 0x30-0x34 (4)
0x030|            a3 7b 82 50                        |    .{.P        |      [2]: "1920-10-24T21:00:00Z" (-1552186800) transition_time 0x34-0x38 (4)
0x030|                        a4 4e 80 60            |        .N.`    |      [3]: "1921-04-02T22:00:00Z" (-1538359200) transition_time 0x38-0x3c (4)
0x030|                                    a5 3f b4 d0|            .?..|      [4]: "1921-10-02T21:00:00Z" (-1522551600) transition_time 0x3c-0x40 (4)
0x040|a6 25 27 e0                                    |.%'.            |      [5]: "1922-03-25T22:00:00Z" (-1507514400) transition_time 0x40-0x44 (4)
0x040|            a7 27 7f d0                        |    .'..        |      [6]: "1922-10-07T21:00:00Z" (-1490583600) transition_time 0x44-0x48 (4)
0x040|                        a8 29 f3 e0            |        .)..    |      [7]: "1923-04-21T22:00:00Z" (-1473645600) transition_time 0x48-0x4c (4)
0x040|                                    a8 eb b2 50|            ...P|      [8]: "1923-09-15T21:00:00Z" (-1460948400) transition_time 0x4c-0x50 (4)
0x050|e8 2a 85 e0                                    |.*..            |      [9]: "1957-04-30T22:00:00Z" (-399866400) transition_time 0x50-0x54 (4)
0x050|            e8 f4 2d 50                        |    ..-P        |      [10]: "1957-09-30T21:00:00Z" (-386650800) transition_time 0x54-0x58 (4)
0x050|                        ea 0b b9 60            |        ...`    |      [11]: "1958-04-30T22:00:00Z" (-368330400) transition_time 0x58-0x5c (4)
0x050|                                    ea d5 60 d0|            ..`.|      [12]: "1958-09-30T21:00:00Z" (-355114800) transition_time 0x5c-0x60 (4)
0x060|eb ec ec e0                                    |....            |      [13]: "1959-04-30T22:00:00Z" (-336794400) transition_time 0x60-0x64 (4)
0x060|            ec b6 94 50                        |    ...P        |      [14]: "1959-09-30T21:00:00Z" (-323578800) transition_time 0x64-0x68 (4)
0x060|                        ed cf 71 e0            |        ..q.    |      [15]: "1960-04-30T22:00:00Z" (-305172000) transition_time 0x68-0x6c (4)
0x060|                                    ee 99 19 50|            ...P|      [16]: "1960-09-30T21:00:00Z" (-291956400) transition_time 0x6c-0x70 (4)
0x070|ef b0 a5 60                                    |...`            |      [17]: "1961-04-30T22:00:00Z" (-273636000) transition_time 0x70-0x74 (4)
0x070|            f0 7a 4c d0                        |    .zL.        |      [18]: "1961-09-30T21:00:00Z" (-260420400) transition_time 0x74-0x78 (4)
0x070|                        04 a6 5e 60            |        ..^`    |      [19]: "1972-06-21T22:00:00Z" (78012000) transition_time 0x78-0x7c (4)
0x070|                                    05 2b 77 d1|            .+w.|      [20]: "1972-09-30T21:00:01Z" (86734801) transition_time 0x7c-0x80 (4)
0x080|06 43 03 e2                                    |.C..            |      [21]: "1973-04-30T22:00:02Z" (105055202) transition_time 0x80-0x84 (4)
0x080|            07 0c ab 52                        |    ...R        |      [22]: "1973-09-30T21:00:02Z" (118270802) transition_time 0x84-0x88 (4)
0x080|                        08 24 37 63            |        .$7c    |      [23]: "1974-04-30T22:00:03Z" (136591203) transition_time 0x88-0x8c (4)
0x080|                                    08 ed de d3|            ....|      [24]: "1974-09-30T21:00:03Z" (149806803) transition_time 0x8c-0x90 (4)
0x090|0a 05 6a e4                                    |..j.            |      [25]: "1975-04-30T22:00:04Z" (168127204) transition_time 0x90-0x94 (4)
0x090|            0a cf 12 54                        |    ...T        |      [26]: "1975-09-30T21:00:04Z" (181342804) transition_time 0x94-0x98 (4)
0x090|                        0b e7 ef e5            |        ....    |      [27]: "1976-04-30T22:00:05Z" (199749605) transition_time 0x98-0x9c (4)
0x090|                                    0c b1 97 55|            ...U|      [28]: "1976-09-30T21:00:05Z" (212965205) transition_time 0x9c-0xa0 (4)
0x0a0|0d c9 23 66                                    |..#f            |      [29]: "1977-04-30T22:00:06Z" (231285606) transition_time 0xa0-0xa4 (4)
0x0a0|            0e 92 ca d6                        |    ....        |      [30]: "1977-09-30T21:00:06Z" (244501206) transition_time 0xa4-0xa8 (4)
0x0a0|                        0f a9 05 67            |        ...g    |      [31]: "1978-04-29T22:00:07Z" (262735207) transition_time 0xa8-0xac (4)
0x0a0|                                    10 72 ac d7|            .r..|      [32]: "1978-09-29T21:00:07Z" (275950807) transition_time 0xac-0xb0 (4)
0x0b0|1a f4 2e ec                                    |....            |      [33]: "1984-04-30T22:00:12Z" (452210412) transition_time 0xb0-0xb4 (4)
0x0b0|            1b d1 9c dc                        |    ....        |      [34]: "1984-10-15T21:00:12Z" (466722012) transition_time 0xb4-0xb8 (4)
0x0b0|                        1c d5 62 6c            |        ..bl    |      [35]: "1985-04-30T22:00:12Z" (483746412) transition_time 0xb8-0xbc (4)
0x0b0|                                    1d b2 d0 5d|            ...]|      [36]: "1985-10-15T21:00:13Z" (498258013) transition_time 0xbc-0xc0 (4)
0x0c0|1e b6 95 ed                                    |....            |      [37]: "1986-04-30T22:00:13Z" (515282413) transition_time 0xc0-0xc4 (4)
0x0c0|            1f 94 03 dd                        |    ....        |      [38]: "1986-10-15T21:00:13Z" (529794013) transition_time 0xc4-0xc8 (4)
0x0c0|                        20 97 c9 6d            |         ..m    |      [39]: "1987-04-30T22:00:13Z" (546818413) transition_time 0xc8-0xcc (4)
0x0c0|                                    21 75 37 5d|            !u7]|      [40]: "1987-10-15T21:00:13Z" (561330013) transition_time 0xcc-0xd0 (4)
0x0d0|22 a3 2c ee                                    |".,.            |      [41]: "1988-05-31T22:00:14Z" (581119214) transition_time 0xd0-0xd4 (4)
0x0d0|            23 57 bc 5e                        |    #W.^        |      [42]: "1988-10-15T21:00:14Z" (592952414) transition_time 0xd4-0xd8 (4)
0x0d0|                        24 67 5f 6e            |        $g_n    |      [43]: "1989-05-09T22:00:14Z" (610754414) transition_time 0xd8-0xdc (4)
0x0d0|                                    25 38 ef de|            %8..|      [44]: "1989-10-15T21:00:14Z" (624488414) transition_time 0xdc-0xe0 (4)
0x0e0|26 3c b5 6f                                    |&<.o            |      [45]: "1990-04-30T22:00:15Z" (641512815) transition_time 0xe0-0xe4 (4)
0x0e0|            27 1a 23 5f                        |    '.#_        |      [46]: "1990-10-15T21:00:15Z" (656024415) transition_time 0xe4-0xe8 (4)
0x0e0|                        28 1d e8 f0            |        (...    |      [47]: "1991-04-30T22:00:16Z" (673048816) transition_time 0xe8-0xec (4)
0x0e0|                                    28 fb 56 e0|            (.V.|      [48]: "1991-10-15T21:00:16Z" (687560416) transition_time 0xec-0xf0 (4)
0x0f0|2a 00 6d f0                                    |*.m.            |      [49]: "1992-04-30T22:00:16Z" (704671216) transition_time 0xf0-0xf4 (4)
0x0f0|            2a ce 09 e1                        |    *...        |      [50]: "1992-10-03T21:00:17Z" (718146017) transition_time 0xf4-0xf8 (4)
0x0f0|                        2b b4 ce 71            |        +..q    |      [51]: "1993-03-27T22:00:17Z" (733269617) transition_time 0xf8-0xfc (4)
0x0f0|                                    2c a4 b1 62|            ,..b|      [52]: "1993-09-25T21:00:18Z" (748990818) transition_time 0xfc-0x100 (4)
0x100|2d 94 b0 72                                    |-..r            |      [53]: "1994-03-26T22:00:18Z" (764719218) transition_time 0x100-0x104 (4)
0x100|            2e 84 93 63                        |    ...c        |      [54]: "1994-09-24T21:00:19Z" (780440419) transition_time 0x104-0x108 (4)
0x100|                        2f 74 92 73            |        /t.s    |      [55]: "1995-03-25T22:00:19Z" (796168819) transition_time 0x108-0x10c (4)
0x100|                                    30 64 75 63|            0duc|      [56]: "1995-09-23T21:00:19Z" (811890019) transition_time 0x10c-0x110 (4)
0x110|31 5d ae f4                                    |1]..            |      [57]: "1996-03-30T22:00:20Z" (828223220) transition_time 0x110-0x114 (4)
0x110|            32 4d 91 e4                        |    2M..        |      [58]: "1996-09-28T21:00:20Z" (843944420) transition_time 0x114-0x118 (4)
0x110|                        33 3d 90 f4            |        3=..    |      [59]: "1997-03-29T22:00:20Z" (859672820) transition_time 0x118-0x11c (4)
0x110|                                    34 2d 73 e5|            4-s.|      [60]: "1997-09-27T21:00:21Z" (875394021) transition_time 0x11c-0x120 (4)
0x120|35 1d 72 f5                                    |5.r.            |      [61]: "1998-03-28T22:00:21Z" (891122421) transition_time 0x120-0x124 (4)
0x120|            36 0d 55 e5                        |    6.U.        |      [62]: "1998-09-26T21:00:21Z" (906843621) transition_time 0x124-0x128 (4)
0x120|                        36 fd 54 f6            |        6.T.    |      [63]: "1999-03-27T22:00:22Z" (922572022) transition_time 0x128-0x12c (4)
0x120|                                    38 1b 5c 66|            8.\f|      [64]: "1999-10-30T21:00:22Z" (941317222) transition_time 0x12c-0x130 (4)
0x130|38 dd 36 f6                                    |8.6.            |      [65]: "2000-03-25T22:00:22Z" (954021622) transition_time 0x130-0x134 (4)
0x130|            39 fb 3e 66                        |    9.>f        |      [66]: "2000-10-28T21:00:22Z" (972766822) transition_time 0x134-0x138 (4)
0x130|                        3a bd 18 f6            |        :...    |      [67]: "2001-03-24T22:00:22Z" (985471222) transition_time 0x138-0x13c (4)
0x130|                                    3b db 20 66|            ;. f|      [68]: "2001-10-27T21:00:22Z" (1004216422) transition_time 0x13c-0x140 (4)
0x140|3c a6 35 76                                    |<.5v            |      [69]: "2002-03-30T22:00:22Z" (1017525622) transition_time 0x140-0x144 (4)
0x140|            3d bb 02 66                        |    =..f        |      [70]: "2002-10-26T21:00:22Z" (1035666022) transition_time 0x144-0x148 (4)
0x140|                        3e 86 17 76            |        >..v    |      [71]: "2003-03-29T22:00:22Z" (1048975222) transition_time 0x148-0x14c (4)
0x140|                                    3f 9a e4 66|            ?..f|      [72]: "2003-10-25T21:00:22Z" (1067115622) transition_time 0x14c-0x150 (4)
0x150|40 65 f9 76                                    |@e.v            |      [73]: "2004-03-27T22:00:22Z" (1080424822) transition_time 0x150-0x154 (4)
0x150|            41 84 00 e6                        |    A...        |      [74]: "2004-10-30T21:00:22Z" (1099170022) transition_time 0x154-0x158 (4)
0x150|                        42 45 db 76            |        BE.v    |      [75]: "2005-03-26T22:00:22Z" (1111874422) transition_time 0x158-0x15c (4)
0x150|                                    43 63 e2 e6|            Cc..|      [76]: "2005-10-29T21:00:22Z" (1130619622) transition_time 0x15c-0x160 (4)
0x160|44 25 bd 77                                    |D%.w            |      [77]: "2006-03-25T22:00:23Z" (1143324023) transition_time 0x160-0x164 (4)
0x160|            45 43 c4 e7                        |    EC..        |      [78]: "2006-10-28T21:00:23Z" (1162069223) transition_time 0x164-0x168 (4)
0x160|                        46 05 9f 77            |        F..w    |      [79]: "2007-03-24T22:00:23Z" (1174773623) transition_time 0x168-0x16c (4)
0x160|                                    47 23 a6 e7|            G#..|      [80]: "2007-10-27T21:00:23Z" (1193518823) transition_time 0x16c-0x170 (4)
0x170|47 ee bb f7                                    |G...            |      [81]: "2008-03-29T22:00:23Z" (1206828023) transition_time 0x170-0x174 (4)
0x170|            49 03 88 e7                        |    I...        |      [82]: "2008-10-25T21:00:23Z" (1224968423) transition_time 0x174-0x178 (4)
0x170|                        49 ce 9d f8            |        I...    |      [83]: "2009-03-28T22:00:24Z" (1238277624) transition_time 0x178-0x17c (4)
0x170|                                    4a e3 6a e8|            J.j.|      [84]: "2009-10-24T21:00:24Z" (1256418024) transition_time 0x17c-0x180 (4)
0x180|4b ae 7f f8                                    |K...            |      [85]: "2010-03-27T22:00:24Z" (1269727224) transition_time 0x180-0x184 (4)
0x180|            4c cc 87 68                        |    L..h        |      [86]: "2010-10-30T21:00:24Z" (1288472424) transition_time 0x184-0x188 (4)
0x180|                        4d 8e 61 f8            |        M.a.    |      [87]: "2011-03-26T22:00:24Z" (1301176824) transition_time 0x188-0x18c (4)
0x180|                                    4e ac 69 68|            N.ih|      [88]: "2011-10-29T21:00:24Z" (1319922024) transition_time 0x18c-0x190 (4)
0x190|4f 6e 43 f8                                    |OnC.            |      [89]: "2012-03-24T22:00:24Z" (1332626424) transition_time 0x190-0x194 (4)
0x190|            50 8c 4b 69                        |    P.Ki        |      [90]: "2012-10-27T21:00:25Z" (1351371625) transition_time 0x194-0x198 (4)
0x190|                        51 57 60 79            |        QW`y    |      [91]: "2013-03-30T22:00:25Z" (1364680825) transition_time 0x198-0x19c (4)
0x190|                                    52 6c 2d 69|            Rl-i|      [92]: "2013-10-26T21:00:25Z" (1382821225) transition_time 0x19c-0x1a0 (4)
0x1a0|53 37 42 79                                    |S7By            |      [93]: "2014-03-29T22:00:25Z" (1396130425) transition_time 0x1a0-0x1a4 (4)
0x1a0|            54 4c 0f 69                        |    TL.i        |      [94]: "2014-10-25T21:00:25Z" (1414270825) transition_time 0x1a4-0x1a8 (4)
0x1a0|                        55 17 24 79            |        U.$y    |      [95]: "2015-03-28T22:00:25Z" (1427580025) transition_time 0x1a8-0x1ac (4)
0x1a0|                                    56 2b f1 6a|            V+.j|      [96]: "2015-10-24T21:00:26Z" (1445720426) transition_time 0x1ac-0x1b0 (4)
0x1b0|56 f7 06 7a                                    |V..z            |      [97]: "2016-03-26T22:00:26Z" (1459029626) transition_time 0x1b0-0x1b4 (4)
0x1b0|            58 15 0d ea                        |    X...        |      [98]: "2016-10-29T21:00:26Z" (1477774826) transition_time 0x1b4-0x1b8 (4)
0x1b0|                        58 d6 e8 7b            |        X..{    |      [99]: "2017-03-25T22:00:27Z" (1490479227) transition_time 0x1b8-0x1bc (4)
0x1b0|                                    59 f4 ef eb|            Y...|      [100]: "2017-10-28T21:00:27Z" (1509224427) transition_time 0x1bc-0x1c0 (4)
0x1c0|5a b6 ca 7b                                    |Z..{            |      [101]: "2018-03-24T22:00:27Z" (1521928827) transition_time 0x1c0-0x1c4 (4)
0x1c0|            5b d4 d1 eb                        |    [...        |      [102]: "2018-10-27T21:00:27Z" (1540674027) transition_time 0x1c4-0x1c8 (4)
0x1c0|                        5c 9f e6 fb            |        \...    |      [103]: "2019-03-30T22:00:27Z" (1553983227) transition_time 0x1c8-0x1cc (4)
0x1c0|                                    5d b4 b3 eb|            ]...|      [104]: "2019-10-26T21:00:27Z" (1572123627) transition_time 0x1cc-0x1d0 (4)
0x1d0|5e 7f c8 fb                                    |^...            |      [105]: "2020-03-28T22:00:27Z" (1585432827) transition_time 0x1d0-0x1d4 (4)
0x1d0|            5f 94 95 eb                        |    _...        |      [106]: "2020-10-24T21:00:27Z" (1603573227) transition_time 0x1d4-0x1d8 (4)
0x1d0|                        60 5f aa fb            |        `_..    |      [107]: "2021-03-27T22:00:27Z" (1616882427) transition_time 0x1d8-0x1dc (4)
0x1d0|                                    61 7d b2 6b|            a}.k|      [108]: "2021-10-30T21:00:27Z" (1635627627) transition_time 0x1dc-0x1e0 (4)
0x1e0|62 3f 8c fb                                    |b?..            |      [109]: "2022-03-26T22:00:27Z" (1648332027) transition_time 0x1e0-0x1e4 (4)
0x1e0|            63 5d 94 6b                        |    c].k        |      [110]: "2022-10-29T21:00:27Z" (1667077227) transition_time 0x1e4-0x1e8 (4)
0x1e0|                        64 1f 6e fb            |        d.n.    |      [111]: "2023-03-25T22:00:27Z" (1679781627) transition_time 0x1e8-0x1ec (4)
0x1e0|                                    64 9b 78 1b|            d.x.|      [112]: "2023-06-28T00:00:27Z" (1687910427) transition_time 0x1ec-0x1f0 (4)
     |                                               |                |    transition_types[0:113]: 0x1f0-0x261 (113)
0x1f0|02                                             |.               |      [0]: 2 transition_type 0x1f0-0x1f1 (1)
0x1f0|   01                                          | .              |      [1]: 1 transition_type 0x1f1-0x1f2 (1)
0x1f0|      02                                       |  .             |      [2]: 2 transition_type 0x1f2-0x1f3 (1)
0x1f0|         01                                    |   .            |      [3]: 1 transition_type 0x1f3-0x1f4 (1)
0x1f0|            02                                 |    .           |      [4]: 2 transition_type 0x1f4-0x1f5 (1)
0x1f0|               01                              |     .          |      [5]: 1 transition_type 0x1f5-0x1f6 (1)
0x1f0|                  02                           |      .         |      [6]: 2 transition_type 0x1f6-0x1f7 (1)
0x1f0|                     01                        |       .        |      [7]: 1 transition_type 0x1f7-0x1f8 (1)
0x1f0|                        02                     |        .       |      [8]: 2 transition_type 0x1f8-0x1f9 (1)
0x1f0|                           01                  |         .      |      [9]: 1 transition_type 0x1f9-0x1fa (1)
0x1f0|                              02               |          .     |      [10]: 2 transition_type 0x1fa-0x1fb (1)
0x1f0|                                 01            |           .    |      [11]: 1 transition_type 0x1fb-0x1fc (1)
0x1f0|                                    02         |            .   |      [12]: 2 transition_type 0x1fc-0x1fd (1)
0x1f0|                                       01      |             .  |      [13]: 1 transition_type 0x1fd-0x1fe (1)
0x1f0|                                          02   |              . |      [14]: 2 transition_type 0x1fe-0x1ff (1)
0x1f0|                                             01|               .|      [15]: 1 transition_type 0x1ff-0x200 (1)
0x200|02                                             |.               |      [16]: 2 transition_type 0x200-0x201 (1)
0x200|   01                                          | .              |      [17]: 1 transition_type 0x201-0x202 (1)
0x200|      02                                       |  .             |      [18]: 2 transition_type 0x202-0x203 (1)
0x200|         01                                    |   .            |      [19]: 1 transition_type 0x203-0x204 (1)
0x200|            02                                 |    .           |      [20]: 2 transition_type 0x204-0x205 (1)
0x200|               01                              |     .          |      [21]: 1 transition_type 0x205-0x206 (1)
0x200|                  02                           |      .         |      [22]: 2 transition_type 0x206-0x207 (1)
0x200|                     01                        |       .        |      [23]: 1 transition_type 0x207-0x208 (1)
0x200|                        02                     |        .       |      [24]: 2 transition_type 0x208-0x209 (1)
0x200|                           01                  |         .      |      [25]: 1 transition_type 0x209-0x20a (1)
0x200|                              02               |          .     |      [26]: 2 transition_type 0x20a-0x20b (1)
0x200|                                 01            |           .    |      [27]: 1 transition_type 0x20b-0x20c (1)
0x200|                                    02         |            .   |      [28]: 2 transition_type 0x20c-0x20d (1)
0x200|                                       01      |             .  |      [29]: 1 transition_type 0x20d-0x20e (1)
0x200|                                          02   |              . |      [30]: 2 transition_type 0x20e-0x20f (1)
0x200|                                             01|               .|      [31]: 1 transition_type 0x20f-0x210 (1)
0x210|02                                             |.               |      [32]: 2 transition_type 0x210-0x211 (1)
0x210|   01                                          | .              |      [33]: 1 transition_type 0x211-0x212 (1)
0x210|      02                                       |  .             |      [34]: 2 transition_type 0x212-0x213 (1)
0x210|         01                                    |   .            |      [35]: 1 transition_type 0x213-0x214 (1)
0x210|            02                                 |    .           |      [36]: 2 transition_type 0x214-0x215 (1)
0x210|               01                              |     .          |      [37]: 1 transition_type 0x215-0x216 (1)
0x210|                  02                           |      .         |      [38]: 2 transition_type 0x216-0x217 (1)
0x210|                     01                        |       .        |      [39]: 1 transition_type 0x217-0x218 (1)
0x210|                        02                     |        .       |      [40]: 2 transition_type 0x218-0x219 (1)
0x210|                           01                  |         .      |      [41]: 1 transition_type 0x219-0x21a (1)
0x210|                              02               |          .     |      [42]: 2 transition_type 0x21a-0x21b (1)
0x210|                                 01            |           .    |      [43]: 1 transition_type 0x21b-0x21c (1)
0x210|                                    02         |            .   |      [44]: 2 transition_type 0x21c-0x21d (1)
0x210|                                       01      |             .  |      [45]: 1 transition_type 0x21d-0x21e (1)
0x210|                                          02   |              . |      [46]: 2 transition_type 0x21e-0x21f (1)
0x210|                                             01|               .|      [47]: 1 transition_type 0x21f-0x220 (1)
0x220|02                                             |.               |      [48]: 2 transition_type 0x220-0x221 (1)
0x220|   01                                          | .              |      [49]: 1 transition_type 0x221-0x222 (1)
0x220|      02                                       |  .             |      [50]: 2 transition_type 0x222-0x223 (1)
0x220|         01                                    |   .            |      [51]: 1 transition_type 0x223-0x224 (1)
0x220|            02                                 |    .           |      [52]: 2 transition_type 0x224-0x225 (1)
0x220|               01                              |     .          |      [53]: 1 transition_type 0x225-0x226 (1)
0x220|                  02                           |      .         |      [54]: 2 transition_type 0x226-0x227 (1)
0x220|                     01                        |       .        |      [55]: 1 transition_type 0x227-0x228 (1)
0x220|                        02                     |        .       |      [56]: 2 transition_type 0x228-0x229 (1)
0x220|                           01                  |         .      |      [57]: 1 transition_type 0x229-0x22a (1)
0x220|                              02               |          .     |      [58]: 2 transition_type 0x22a-0x22b (1)
0x220|                                 01            |           .    |      [59]: 1 transition_type 0x22b-0x22c (1)
0x220|                                    02         |            .   |      [60]: 2 transition_type 0x22c-0x22d (1)
0x220|                                       01      |             .  |      [61]: 1 transition_type 0x22d-0x22e (1)
0x220|                                          02   |              . |      [62]: 2 transition_type 0x22e-0x22f (1)
0x220|                                             01|               .|      [63]: 1 transition_type 0x22f-0x230 (1)
0x230|02                                             |.               |      [64]: 2 transition_type 0x230-0x231 (1)
0x230|   01                                          | .              |      [65]: 1 transition_type 0x231-0x232 (1)
0x230|      02                                       |  .             |      [66]: 2 transition_type 0x232-0x233 (1)
0x230|         01                                    |   .            |      [67]: 1 transition_type 0x233-0x234 (1)
0x230|            02                                 |    .           |      [68]: 2 transition_type 0x234-0x235 (1)
0x230|               01                              |     .          |      [69]: 1 transition_type 0x235-0x236 (1)
0x230|                  02                           |      .         |      [70]: 2 transition_type 0x236-0x237 (1)
0x230|                     01                        |       .        |      [71]: 1 transition_type 0x237-0x238 (1)
0x230|                        02                     |        .       |      [72]: 2 transition_type 0x238-0x239 (1)
0x230|                           01                  |         .      |      [73]: 1 transition_type 0x239-0x23a (1)
0x230|                              02               |          .     |      [74]: 2 transition_type 0x23a-0x23b (1)
0x230|                                 01            |           .    |      [75]: 1 transition_type 0x23b-0x23c (1)
0x230|                                    02         |            .   |      [76]: 2 transition_type 0x23c-0x23d (1)
0x230|                                       01      |             .  |      [77]: 1 transition_type 0x23d-0x23e (1)
0x230|                                          02   |              . |      [78]: 2 transition_type 0x23e-0x23f (1)
0x230|                                             01|               .|      [79]: 1 transition_type 0x23f-0x240 (1)
0x240|02                                             |.               |      [80]: 2 transition_type 0x240-0x241 (1)
0x240|   01                                          | .              |      [81]: 1 transition_type 0x241-0x242 (1)
0x240|      02                                       |  .             |      [82]: 2 transition_type 0x242-0x243 (1)
0x240|         01                                    |   .            |      [83]: 1 transition_type 0x243-0x244 (1)
0x240|            02                                 |    .           |      [84]: 2 transition_type 0x244-0x245 (1)
0x240|               01                              |     .          |      [85]: 1 transition_type 0x245-0x246 (1)
0x240|                  02                           |      .         |      [86]: 2 transition_type 0x246-0x247 (1)
0x240|                     01                        |       .        |      [87]: 1 transition_type 0x247-0x248 (1)
0x240|                        02                     |        .       |      [88]: 2 transition_type 0x248-0x249 (1)
0x240|                           01                  |         .      |      [89]: 1 transition_type 0x249-0x24a (1)
0x240|                              02               |          .     |      [90]: 2 transition_type 0x24a-0x24b (1)
0x240|                                 01            |           .    |      [91]: 1 transition_type 0x24b-0x24c (1)
0x240|                                    02         |            .   |      [92]: 2 transition_type 0x24c-0x24d (1)
0x240|                                       01      |             .  |      [93]: 1 transition_type 0x24d-0x24e (1)
0x240|                                          02   |              . |      [94]: 2 transition_type 0x24e-0x24f (1)
0x240|                                             01|               .|      [95]: 1 transition_type 0x24f-0x250 (1)
0x250|02                                             |.               |      [96]: 2 transition_type 0x250-0x251 (1)
0x250|   01                                          | .              |      [97]: 1 transition_type 0x251-0x252 (1)
0x250|      02                                       |  .             |      [98]: 2 transition_type 0x252-0x253 (1)
0x250|         01                                    |   .            |      [99]: 1 transition_type 0x253-0x254 (1)
0x250|            02                                 |    .           |      [100]: 2 transition_type 0x254-0x255 (1)
0x250|               01                              |     .          |      [101]: 1 transition_type 0x255-0x256 (1)
0x250|                  02                           |      .         |      [102]: 2 transition_type 0x256-0x257 (1)
0x250|                     01                        |       .        |      [103]: 1 transition_type 0x257-0x258 (1)
0x250|                        02                     |        .       |      [104]: 2 transition_type 0x258-0x259 (1)
0x250|                           01                  |         .      |      [105]: 1 transition_type 0x259-0x25a (1)
0x250|                              02               |          .     |      [106]: 2 transition_type 0x25a-0x25b (1)
0x250|                                 01            |           .    |      [107]: 1 transition_type 0x25b-0x25c (1)
0x250|                                    02         |            .   |      [108]: 2 transition_type 0x25c-0x25d (1)
0x250|                                       01      |             .  |      [109]: 1 transition_type 0x25d-0x25e (1)
0x250|                                          02   |              . |      [110]: 2 transition_type 0x25e-0x25f (1)
0x250|                                             01|               .|      [111]: 1 transition_type 0x25f-0x260 (1)
0x260|01                                             |.               |      [112]: 1 transition_type 0x260-0x261 (1)
     |                                               |                |    local_time_type_records[0:3]: 0x261-0x273 (18)
     |                                               |                |      [0]{}: local_time_type 0x261-0x267 (6)
0x260|   00 00 21 48                                 | ..!H           |        utoff: 8520 (valid) 0x261-0x265 (4)
0x260|               00                              |     .          |        dst: 0 (valid) 0x265-0x266 (1)
0x260|                  00                           |      .         |        idx: 0 (valid) 0x266-0x267 (1)
     |                                               |                |      [1]{}: local_time_type 0x267-0x26d (6)
0x260|                     00 00 2a 30               |       ..*0     |        utoff: 10800 (valid) 0x267-0x26b (4)
0x260|                                 01            |           .    |        dst: 1 (valid) 0x26b-0x26c (1)
0x260|                                    04         |            .   |        idx: 4 (valid) 0x26c-0x26d (1)
     |                                               |                |      [2]{}: local_time_type 0x26d-0x273 (6)
0x260|                                       00 00 1c|             ...|        utoff: 7200 (valid) 0x26d-0x271 (4)
0x270|20                                             |                |
0x270|   00                                          | .              |        dst: 0 (valid) 0x271-0x272 (1)
0x270|      09                                       |  .             |        idx: 9 (valid) 0x272-0x273 (1)
     |                                               |                |    time_zone_designations[0:3]: 0x273-0x280 (13)
0x270|         4c 4d 54 00                           |   LMT.         |      [0]: "LMT" time_zone_designation 0x273-0x277 (4)
0x270|                     45 45 53 54 00            |       EEST.    |      [1]: "EEST" time_zone_designation 0x277-0x27c (5)
0x270|                                    45 45 54 00|            EET.|      [2]: "EET" time_zone_designation 0x27c-0x280 (4)
     |                                               |                |    leap_second_records[0:27]: 0x280-0x358 (216)
     |                                               |                |      [0]{}: leap_second_record 0x280-0x288 (8)
0x280|04 b2 58 00                                    |..X.            |        occur: "1972-07-01T00:00:00Z" (78796800) 0x280-0x284 (4)
0x280|            00 00 00 01                        |    ....        |        corr: 1 0x284-0x288 (4)
     |                                               |                |      [1]{}: leap_second_record 0x288-0x290 (8)
0x280|                        05 a4 ec 01            |        ....    |        occur: "1973-01-01T00:00:01Z" (94694401) 0x288-0x28c (4)
0x280|                                    00 00 00 02|            ....|        corr: 2 0x28c-0x290 (4)
     |                                               |                |      [2]{}: leap_second_record 0x290-0x298 (8)
0x290|07 86 1f 82                                    |....            |        occur: "1974-01-01T00:00:02Z" (126230402) 0x290-0x294 (4)
0x290|            00 00 00 03                        |    ....        |        corr: 3 0x294-0x298 (4)
     |                                               |                |      [3]{}: leap_second_record 0x298-0x2a0 (8)
0x290|                        09 67 53 03            |        .gS.    |        occur: "1975-01-01T00:00:03Z" (157766403) 0x298-0x29c (4)
0x290|                                    00 00 00 04|            ....|        corr: 4 0x29c-0x2a0 (4)
     |                                               |                |      [4]{}: leap_second_record 0x2a0-0x2a8 (8)
0x2a0|0b 48 86 84                                    |.H..            |        occur: "1976-01-01T00:00:04Z" (189302404) 0x2a0-0x2a4 (4)
0x2a0|            00 00 00 05                        |    ....        |        corr: 5 0x2a4-0x2a8 (4)
     |                                               |                |      [5]{}: leap_second_record 0x2a8-0x2b0 (8)
0x2a0|                        0d 2b 0b 85            |        .+..    |        occur: "1977-01-01T00:00:05Z" (220924805) 0x2a8-0x2ac (4)
0x2a0|                                    00 00 00 06|            ....|        corr: 6 0x2ac-0x2b0 (4)
     |                                               |                |      [6]{}: leap_second_record 0x2b0-0x2b8 (8)
0x2b0|0f 0c 3f 06                                    |..?.            |        occur: "1978-01-01T00:00:06Z" (252460806) 0x2b0-0x2b4 (4)
0x2b0|            00 00 00 07                        |    ....        |        corr: 7 0x2b4-0x2b8 (4)
     |                                               |                |      [7]{}: leap_second_record 0x2b8-0x2c0 (8)
0x2b0|                        10 ed 72 87            |        ..r.    |        occur: "1979-01-01T00:00:07Z" (283996807) 0x2b8-0x2bc (4)
0x2b0|                                    00 00 00 08|            ....|        corr: 8 0x2bc-0x2c0 (4)
     |                                               |                |      [8]{}: leap_second_record 0x2c0-0x2c8 (8)
0x2c0|12 ce a6 08                                    |....            |        occur: "1980-01-01T00:00:08Z" (315532808) 0x2c0-0x2c4 (4)
0x2c0|            00 00 00 09                        |    ....        |        corr: 9 0x2c4-0x2c8 (4)
     |                                               |                |      [9]{}: leap_second_record 0x2c8-0x2d0 (8)
0x2c0|                        15 9f ca 89            |        ....    |        occur: "1981-07-01T00:00:09Z" (362793609) 0x2c8-0x2cc (4)
0x2c0|                                    00 00 00 0a|            ....|        corr: 10 0x2cc-0x2d0 (4)
     |                                               |                |      [10]{}: leap_second_record 0x2d0-0x2d8 (8)
0x2d0|17 80 fe 0a                                    |....            |        occur: "1982-07-01T00:00:10Z" (394329610) 0x2d0-0x2d4 (4)
0x2d0|            00 00 00 0b                        |    ....        |        corr: 11 0x2d4-0x2d8 (4)
     |                                               |                |      [11]{}: leap_second_record 0x2d8-0x2e0 (8)
0x2d0|                        19 62 31 8b            |        .b1.    |        occur: "1983-07-01T00:00:11Z" (425865611) 0x2d8-0x2dc (4)
0x2d0|                                    00 00 00 0c|            ....|        corr: 12 0x2dc-0x2e0 (4)
     |                                               |                |      [12]{}: leap_second_record 0x2e0-0x2e8 (8)
0x2e0|1d 25 ea 0c                                    |.%..            |        occur: "1985-07-01T00:00:12Z" (489024012) 0x2e0-0x2e4 (4)
0x2e0|            00 00 00 0d                        |    ....        |        corr: 13 0x2e4-0x2e8 (4)
     |                                               |                |      [13]{}: leap_second_record 0x2e8-0x2f0 (8)
0x2e0|                        21 da e5 0d            |        !...    |        occur: "1988-01-01T00:00:13Z" (567993613) 0x2e8-0x2ec (4)
0x2e0|                                    00 00 00 0e|            ....|        corr: 14 0x2ec-0x2f0 (4)
     |                                               |                |      [14]{}: leap_second_record 0x2f0-0x2f8 (8)
0x2f0|25 9e 9d 8e                                    |%...            |        occur: "1990-01-01T00:00:14Z" (631152014) 0x2f0-0x2f4 (4)
0x2f0|            00 00 00 0f                        |    ....        |        corr: 15 0x2f4-0x2f8 (4)
     |                                               |                |      [15]{}: leap_second_record 0x2f8-0x300 (8)
0x2f0|                        27 7f d1 0f            |        '...    |        occur: "1991-01-01T00:00:15Z" (662688015) 0x2f8-0x2fc (4)
0x2f0|                                    00 00 00 10|            ....|        corr: 16 0x2fc-0x300 (4)
     |                                               |                |      [16]{}: leap_second_record 0x300-0x308 (8)
0x300|2a 50 f5 90                                    |*P..            |        occur: "1992-07-01T00:00:16Z" (709948816) 0x300-0x304 (4)
0x300|            00 00 00 11                        |    ....        |        corr: 17 0x304-0x308 (4)
     |                                               |                |      [17]{}: leap_second_record 0x308-0x310 (8)
0x300|                        2c 32 29 11            |        ,2).    |        occur: "1993-07-01T00:00:17Z" (741484817) 0x308-0x30c (4)
0x300|                                    00 00 00 12|            ....|        corr: 18 0x30c-0x310 (4)
     |                                               |                |      [18]{}: leap_second_record 0x310-0x318 (8)
0x310|2e 13 5c 92                                    |..\.            |        occur: "1994-07-01T00:00:18Z" (773020818) 0x310-0x314 (4)
0x310|            00 00 00 13                        |    ....        |        corr: 19 0x314-0x318 (4)
     |                                               |                |      [19]{}: leap_second_record 0x318-0x320 (8)
0x310|                        30 e7 24 13            |        0.$.    |        occur: "1996-01-01T00:00:19Z" (820454419) 0x318-0x31c (4)
0x310|                                    00 00 00 14|            ....|        corr: 20 0x31c-0x320 (4)
     |                                               |                |      [20]{}: leap_second_record 0x320-0x328 (8)
0x320|33 b8 48 94                                    |3.H.            |        occur: "1997-07-01T00:00:20Z" (867715220) 0x320-0x324 (4)
0x320|            00 00 00 15                        |    ....        |        corr: 21 0x324-0x328 (4)
     |                                               |                |      [21]{}: leap_second_record 0x328-0x330 (8)
0x320|                        36 8c 10 15            |        6...    |        occur: "1999-01-01T00:00:21Z" (915148821) 0x328-0x32c (4)
0x320|                                    00 00 00 16|            ....|        corr: 22 0x32c-0x330 (4)
     |                                               |                |      [22]{}: leap_second_record 0x330-0x338 (8)
0x330|43 b7 1b 96                                    |C...            |        occur: "2006-01-01T00:00:22Z" (1136073622) 0x330-0x334 (4)
0x330|            00 00 00 17                        |    ....        |        corr: 23 0x334-0x338 (4)
     |                                               |                |      [23]{}: leap_second_record 0x338-0x340 (8)
0x330|                        49 5c 07 97            |        I\..    |        occur: "2009-01-01T00:00:23Z" (1230768023) 0x338-0x33c (4)
0x330|                                    00 00 00 18|            ....|        corr: 24 0x33c-0x340 (4)
     |                                               |                |      [24]{}: leap_second_record 0x340-0x348 (8)
0x340|4f ef 93 18                                    |O...            |        occur: "2012-07-01T00:00:24Z" (1341100824) 0x340-0x344 (4)
0x340|            00 00 00 19                        |    ....        |        corr: 25 0x344-0x348 (4)
     |                                               |                |      [25]{}: leap_second_record 0x348-0x350 (8)
0x340|                        55 93 2d 99            |        U.-.    |        occur: "2015-07-01T00:00:25Z" (1435708825) 0x348-0x34c (4)
0x340|                                    00 00 00 1a|            ....|        corr: 26 0x34c-0x350 (4)
     |                                               |                |      [26]{}: leap_second_record 0x350-0x358 (8)
0x350|58 68 46 9a                                    |XhF.            |        occur: "2017-01-01T00:00:26Z" (1483228826) 0x350-0x354 (4)
0x350|            00 00 00 1b                        |    ....        |        corr: 27 0x354-0x358 (4)
     |                                               |                |    standard_wall_indicators[0:0]: 0x358-0x358 (0)
     |                                               |                |    ut_local_indicators[0:0]: 0x358-0x358 (0)
     |                                               |                |  v2plusheader{}: 0x358-0x384 (44)
0x350|                        54 5a 69 66            |        TZif    |    magic: 0x545a6966 (valid) 0x358-0x35c (4)
0x350|                                    32         |            2   |    ver: "2" (0x32) (valid) 0x35c-0x35d (1)
0x350|                                       00 00 00|             ...|    reserved: raw bits 0x35d-0x36c (15)
0x360|00 00 00 00 00 00 00 00 00 00 00 00            |............    |
0x360|                                    00 00 00 00|            ....|    isutcnt: 0 0x36c-0x370 (4)
0x370|00 00 00 00                                    |....            |    isstdcnt: 0 0x370-0x374 (4)
0x370|            00 00 00 1b                        |    ....        |    leapcnt: 27 0x374-0x378 (4)
0x370|                        00 00 00 71            |        ...q    |    timecnt: 113 0x378-0x37c (4)
0x370|                                    00 00 00 03|            ....|    typecnt: 3 0x37c-0x380 (4)
0x380|00 00 00 0d                                    |....            |    charcnt: 13 0x380-0x384 (4)
     |                                               |                |  v2plusdatablock{}: 0x384-0x8e0 (1372)
     |                                               |                |    transition_times[0:113]: 0x384-0x70c (904)
0x380|            ff ff ff ff 56 b6 c2 b8            |    ....V...    |      [0]: "1879-12-31T21:38:00Z" (-2840149320) transition_time 0x384-0x38c (8)
0x380|                                    ff ff ff ff|            ....|      [1]: "1920-03-27T22:00:00Z" (-1570413600) transition_time 0x38c-0x394 (8)
0x390|a2 65 63 e0                                    |.ec.            |
0x390|            ff ff ff ff a3 7b 82 50            |    .....{.P    |      [2]: "1920-10-24T21:00:00Z" (-1552186800) transition_time 0x394-0x39c (8)
0x390|                                    ff ff ff ff|            ....|      [3]: "1921-04-02T22:00:00Z" (-1538359200) transition_time 0x39c-0x3a4 (8)
0x3a0|a4 4e 80 60                                    |.N.`            |
0x3a0|            ff ff ff ff a5 3f b4 d0            |    .....?..    |      [4]: "1921-10-02T21:00:00Z" (-1522551600) transition_time 0x3a4-0x3ac (8)
0x3a0|                                    ff ff ff ff|            ....|      [5]: "1922-03-25T22:00:00Z" (-1507514400) transition_time 0x3ac-0x3b4 (8)
0x3b0|a6 25 27 e0                                    |.%'.            |
0x3b0|            ff ff ff ff a7 27 7f d0            |    .....'..    |      [6]: "1922-10-07T21:00:00Z" (-1490583600) transition_time 0x3b4-0x3bc (8)
0x3b0|                                    ff ff ff ff|            ....|      [7]: "1923-04-21T22:00:00Z" (-1473645600) transition_time 0x3bc-0x3c4 (8)
0x3c0|a8 29 f3 e0                                    |.)..            |
0x3c0|            ff ff ff ff a8 eb b2 50            |    .......P    |      [8]: "1923-09-15T21:00:00Z" (-1460948400) transition_time 0x3c4-0x3cc (8)
0x3c0|                                    ff ff ff ff|            ....|      [9]: "1957-04-30T22:00:00Z" (-399866400) transition_time 0x3cc-0x3d4 (8)
0x3d0|e8 2a 85 e0                                    |.*..            |
0x3d0|            ff ff ff ff e8 f4 2d 50            |    ......-P    |      [10]: "1957-09-30T21:00:00Z" (-386650800) transition_time 0x3d4-0x3dc (8)
0x3d0|                                    ff ff ff ff|            ....|      [11]: "1958-04-30T22:00:00Z" (-368330400) transition_time 0x3dc-0x3e4 (8)
0x3e0|ea 0b b9 60                                    |...`            |
0x3e0|            ff ff ff ff ea d5 60 d0            |    ......`.    |      [12]: "1958-09-30T21:00:00Z" (-355114800) transition_time 0x3e4-0x3ec (8)
0x3e0|                                    ff ff ff ff|            ....|      [13]: "1959-04-30T22:00:00Z" (-336794400) transition_time 0x3ec-0x3f4 (8)
0x3f0|eb ec ec e0                                    |....            |
0x3f0|            ff ff ff ff ec b6 94 50            |    .......P    |      [14]: "1959-09-30T21:00:00Z" (-323578800) transition_time 0x3f4-0x3fc (8)
0x3f0|                                    ff ff ff ff|            ....|      [15]: "1960-04-30T22:00:00Z" (-305172000) transition_time 0x3fc-0x404 (8)
0x400|ed cf 71 e0                                    |..q.            |
0x400|            ff ff ff ff ee 99 19 50            |    .......P    |      [16]: "1960-09-30T21:00:00Z" (-291956400) transition_time 0x404-0x40c (8)
0x400|                                    ff ff ff ff|            ....|      [17]: "1961-04-30T22:00:00Z" (-273636000) transition_time 0x40c-0x414 (8)
0x410|ef b0 a5 60                                    |...`            |
0x410|            ff ff ff ff f0 7a 4c d0            |    .....zL.    |      [18]: "1961-09-30T21:00:00Z" (-260420400) transition_time 0x414-0x41c (8)
0x410|                                    00 00 00 00|            ....|      [19]: "1972-06-21T22:00:00Z" (78012000) transition_time 0x41c-0x424 (8)
0x420|04 a6 5e 60                                    |..^`            |
0x420|            00 00 00 00 05 2b 77 d1            |    .....+w.    |      [20]: "1972-09-30T21:00:01Z" (86734801) transition_time 0x424-0x42c (8)
0x420|                                    00 00 00 00|            ....|      [21]: "1973-04-30T22:00:02Z" (105055202) transition_time 0x42c-0x434 (8)
0x430|06 43 03 e2                                    |.C..            |
0x430|            00 00 00 00 07 0c ab 52            |    .......R    |      [22]: "1973-09-30T21:00:02Z" (118270802) transition_time 0x434-0x43c (8)
0x430|                                    00 00 00 00|            ....|      [23]: "1974-04-30T22:00:03Z" (136591203) transition_time 0x43c-0x444 (8)
0x440|08 24 37 63                                    |.$7c            |
0x440|            00 00 00 00 08 ed de d3            |    ........    |      [24]: "1974-09-30T21:00:03Z" (149806803) transition_time 0x444-0x44c (8)
0x440|                                    00 00 00 00|            ....|      [25]: "1975-04-30T22:00:04Z" (168127204) transition_time 0x44c-0x454 (8)
0x450|0a 05 6a e4                                    |..j.            |
0x450|            00 00 00 00 0a cf 12 54            |    .......T    |      [26]: "1975-09-30T21:00:04Z" (181342804) transition_time 0x454-0x45c (8)
0x450|                                    00 00 00 00|            ....|      [27]: "1976-04-30T22:00:05Z" (199749605) transition_time 0x45c-0x464 (8)
0x460|0b e7 ef e5                                    |....            |
0x460|            00 00 00 00 0c b1 97 55            |    .......U    |      [28]: "1976-09-30T21:00:05Z" (212965205) transition_time 0x464-0x46c (8)
0x460|                                    00 00 00 00|            ....|      [29]: "1977-04-30T22:00:06Z" (231285606) transition_time 0x46c-0x474 (8)
0x470|0d c9 23 66                                    |..#f            |
0x470|            00 00 00 00 0e 92 ca d6            |    ........    |      [30]: "1977-09-30T21:00:06Z" (244501206) transition_time 0x474-0x47c (8)
0x470|                                    00 00 00 00|            ....|      [31]: "1978-04-29T22:00:07Z" (262735207) transition_time 0x47c-0x484 (8)
0x480|0f a9 05 67                                    |...g            |
0x480|            00 00 00 00 10 72 ac d7            |    .....r..    |      [32]: "1978-09-29T21:00:07Z" (275950807) transition_time 0x484-0x48c (8)
0x480|                                    00 00 00 00|            ....|      [33]: "1984-04-30T22:00:12Z" (452210412) transition_time 0x48c-0x494 (8)
0x490|1a f4 2e ec                                    |....            |
0x490|            00 00 00 00 1b d1 9c dc            |    ........    |      [34]: "1984-10-15T21:00:12Z" (466722012) transition_time 0x494-0x49c (8)
0x490|                                    00 00 00 00|            ....|      [35]: "1985-04-30T22:00:12Z" (483746412) transition_time 0x49c-0x4a4 (8)
0x4a0|1c d5 62 6c                                    |..bl            |
0x4a0|            00 00 00 00 1d b2 d0 5d            |    .......]    |      [36]: "1985-10-15T21:00:13Z" (498258013) transition_time 0x4a4-0x4ac (8)
0x4a0|                                    00 00 00 00|            ....|      [37]: "1986-04-30T22:00:13Z" (515282413) transition_time 0x4ac-0x4b4 (8)
0x4b0|1e b6 95 ed                                    |....            |
0x4b0|            00 00 00 00 1f 94 03 dd            |    ........    |      [38]: "1986-10-15T21:00:13Z" (529794013) transition_time 0x4b4-0x4bc (8)
0x4b0|                                    00 00 00 00|            ....|      [39]: "1987-04-30T22:00:13Z" (546818413) transition_time 0x4bc-0x4c4 (8)
0x4c0|20 97 c9 6d                                    | ..m            |
0x4c0|            00 00 00 00 21 75 37 5d            |    ....!u7]    |      [40]: "1987-10-15T21:00:13Z" (561330013) transition_time 0x4c4-0x4cc (8)
0x4c0|                                    00 00 00 00|            ....|      [41]: "1988-05-31T22:00:14Z" (581119214) transition_time 0x4cc-0x4d4 (8)
0x4d0|22 a3 2c ee                                    |".,.            |
0x4d0|            00 00 00 00 23 57 bc 5e            |    ....#W.^    |      [42]: "1988-10-15T21:00:14Z" (592952414) transition_time 0x4d4-0x4dc (8)
0x4d0|                                    00 00 00 00|            ....|      [43]: "1989-05-09T22:00:14Z" (610754414) transition_time 0x4dc-0x4e4 (8)
0x4e0|24 67 5f 6e                                    |$g_n            |
0x4e0|            00 00 00 00 25 38 ef de            |    ....%8..    |      [44]: "1989-10-15T21:00:14Z" (624488414) transition_time 0x4e4-0x4ec (8)
0x4e0|                                    00 00 00 00|            ....|      [45]: "1990-04-30T22:00:15Z" (641512815) transition_time 0x4ec-0x4f4 (8)
0x4f0|26 3c b5 6f                                    |&<.o            |
0x4f0|            00 00 00 00 27 1a 23 5f            |    ....'.#_    |      [46]: "1990-10-15T21:00:15Z" (656024415) transition_time 0x4f4-0x4fc (8)
0x4f0|                                    00 00 00 00|            ....|      [47]: "1991-04-30T22:00:16Z" (673048816) transition_time 0x4fc-0x504 (8)
0x500|28 1d e8 f0                                    |(...            |
0x500|            00 00 00 00 28 fb 56 e0            |    ....(.V.    |      [48]: "1991-10-15T21:00:16Z" (687560416) transition_time 0x504-0x50c (8)
0x500|                                    00 00 00 00|            ....|      [49]: "1992-04-30T22:00:16Z" (704671216) transition_time 0x50c-0x514 (8)
0x510|2a 00 6d f0                                    |*.m.            |
0x510|            00 00 00 00 2a ce 09 e1            |    ....*...    |      [50]: "1992-10-03T21:00:17Z" (718146017) transition_time 0x514-0x51c (8)
0x510|                                    00 00 00 00|            ....|      [51]: "1993-03-27T22:00:17Z" (733269617) transition_time 0x51c-0x524 (8)
0x520|2b b4 ce 71                                    |+..q            |
0x520|            00 00 00 00 2c a4 b1 62            |    ....,..b    |      [52]: "1993-09-25T21:00:18Z" (748990818) transition_time 0x524-0x52c (8)
0x520|                                    00 00 00 00|            ....|      [53]: "1994-03-26T22:00:18Z" (764719218) transition_time 0x52c-0x534 (8)
0x530|2d 94 b0 72                                    |-..r            |
0x530|            00 00 00 00 2e 84 93 63            |    .......c    |      [54]: "1994-09-24T21:00:19Z" (780440419) transition_time 0x534-0x53c (8)
0x530|                                    00 00 00 00|            ....|      [55]: "1995-03-25T22:00:19Z" (796168819) transition_time 0x53c-0x544 (8)
0x540|2f 74 92 73                                    |/t.s            |
0x540|            00 00 00 00 30 64 75 63            |    ....0duc    |      [56]: "1995-09-23T21:00:19Z" (811890019) transition_time 0x544-0x54c (8)
0x540|                                    00 00 00 00|            ....|      [57]: "1996-03-30T22:00:20Z" (828223220) transition_time 0x54c-0x554 (8)
0x550|31 5d ae f4                                    |1]..            |
0x550|            00 00 00 00 32 4d 91 e4            |    ....2M..    |      [58]: "1996-09-28T21:00:20Z" (843944420) transition_time 0x554-0x55c (8)
0x550|                                    00 00 00 00|            ....|      [59]: "1997-03-29T22:00:20Z" (859672820) transition_time 0x55c-0x564 (8)
0x560|33 3d 90 f4                                    |3=..            |
0x560|            00 00 00 00 34 2d 73 e5            |    ....4-s.    |      [60]: "1997-09-27T21:00:21Z" (875394021) transition_time 0x564-0x56c (8)
0x560|                                    00 00 00 00|            ....|      [61]: "1998-03-28T22:00:21Z" (891122421) transition_time 0x56c-0x574 (8)
0x570|35 1d 72 f5                                    |5.r.            |
0x570|            00 00 00 00 36 0d 55 e5            |    ....6.U.    |      [62]: "1998-09-26T21:00:21Z" (906843621) transition_time 0x574-0x57c (8)
0x570|                                    00 00 00 00|            ....|      [63]: "1999-03-27T22:00:22Z" (922572022) transition_time 0x57c-0x584 (8)
0x580|36 fd 54 f6                                    |6.T.            |
0x580|            00 00 00 00 38 1b 5c 66            |    ....8.\f    |      [64]: "1999-10-30T21:00:22Z" (941317222) transition_time 0x584-0x58c (8)
0x580|                                    00 00 00 00|            ....|      [65]: "2000-03-25T22:00:22Z" (954021622) transition_time 0x58c-0x594 (8)
0x590|38 dd 36 f6                                    |8.6.            |
0x590|            00 00 00 00 39 fb 3e 66            |    ....9.>f    |      [66]: "2000-10-28T21:00:22Z" (972766822) transition_time 0x594-0x59c (8)
0x590|                                    00 00 00 00|            ....|      [67]: "2001-03-24T22:00:22Z" (985471222) transition_time 0x59c-0x5a4 (8)
0x5a0|3a bd 18 f6                                    |:...            |
0x5a0|            00 00 00 00 3b db 20 66            |    ....;. f    |      [68]: "2001-10-27T21:00:22Z" (1004216422) transition_time 0x5a4-0x5ac (8)
0x5a0|                                    00 00 00 00|            ....|      [69]: "2002-03-30T22:00:22Z" (1017525622) transition_time 0x5ac-0x5b4 (8)
0x5b0|3c a6 35 76                                    |<.5v            |
0x5b0|            00 00 00 00 3d bb 02 66            |    ....=..f    |      [70]: "2002-10-26T21:00:22Z" (1035666022) transition_time 0x5b4-0x5bc (8)
0x5b0|                                    00 00 00 00|            ....|      [71]: "2003-03-29T22:00:22Z" (1048975222) transition_time 0x5bc-0x5c4 (8)
0x5c0|3e 86 17 76                                    |>..v            |
0x5c0|            00 00 00 00 3f 9a e4 66            |    ....?..f    |      [72]: "2003-10-25T21:00:22Z" (1067115622) transition_time 0x5c4-0x5cc (8)
0x5c0|                                    00 00 00 00|            ....|      [73]: "2004-03-27T22:00:22Z" (1080424822) transition_time 0x5cc-0x5d4 (8)
0x5d0|40 65 f9 76                                    |@e.v            |
0x5d0|            00 00 00 00 41 84 00 e6            |    ....A...    |      [74]: "2004-10-30T21:00:22Z" (1099170022) transition_time 0x5d4-0x5dc (8)
0x5d0|                                    00 00 00 00|            ....|      [75]: "2005-03-26T22:00:22Z" (1111874422) transition_time 0x5dc-0x5e4 (8)
0x5e0|42 45 db 76                                    |BE.v            |
0x5e0|            00 00 00 00 43 63 e2 e6            |    ....Cc..    |      [76]: "2005-10-29T21:00:22Z" (1130619622) transition_time 0x5e4-0x5ec (8)
0x5e0|                                    00 00 00 00|            ....|      [77]: "2006-03-25T22:00:23Z" (1143324023) transition_time 0x5ec-0x5f4 (8)
0x5f0|44 25 bd 77                                    |D%.w            |
0x5f0|            00 00 00 00 45 43 c4 e7            |    ....EC..    |      [78]: "2006-10-28T21:00:23Z" (1162069223) transition_time 0x5f4-0x5fc (8)
0x5f0|                                    00 00 00 00|            ....|      [79]: "2007-03-24T22:00:23Z" (1174773623) transition_time 0x5fc-0x604 (8)
0x600|46 05 9f 77                                    |F..w            |
0x600|            00 00 00 00 47 23 a6 e7            |    ....G#..    |      [80]: "2007-10-27T21:00:23Z" (1193518823) transition_time 0x604-0x60c (8)
0x600|                                    00 00 00 00|            ....|      [81]: "2008-03-29T22:00:23Z" (1206828023) transition_time 0x60c-0x614 (8)
0x610|47 ee bb f7                                    |G...            |
0x610|            00 00 00 00 49 03 88 e7            |    ....I...    |      [82]: "2008-10-25T21:00:23Z" (1224968423) transition_time 0x614-0x61c (8)
0x610|                                    00 00 00 00|            ....|      [83]: "2009-03-28T22:00:24Z" (1238277624) transition_time 0x61c-0x624 (8)
0x620|49 ce 9d f8                                    |I...            |
0x620|            00 00 00 00 4a e3 6a e8            |    ....J.j.    |      [84]: "2009-10-24T21:00:24Z" (1256418024) transition_time 0x624-0x62c (8)
0x620|                                    00 00 00 00|            ....|      [85]: "2010-03-27T22:00:24Z" (1269727224) transition_time 0x62c-0x634 (8)
0x630|4b ae 7f f8                                    |K...            |
0x630|            00 00 00 00 4c cc 87 68            |    ....L..h    |      [86]: "2010-10-30T21:00:24Z" (1288472424) transition_time 0x634-0x63c (8)
0x630|                                    00 00 00 00|            ....|      [87]: "2011-03-26T22:00:24Z" (1301176824) transition_time 0x63c-0x644 (8)
0x640|4d 8e 61 f8                                    |M.a.            |
0x640|            00 00 00 00 4e ac 69 68            |    ....N.ih    |      [88]: "2011-10-29T21:00:24Z" (1319922024) transition_time 0x644-0x64c (8)
0x640|                                    00 00 00 00|            ....|      [89]: "2012-03-24T22:00:24Z" (1332626424) transition_time 0x64c-0x654 (8)
0x650|4f 6e 43 f8                                    |OnC.            |
0x650|            00 00 00 00 50 8c 4b 69            |    ....P.Ki    |      [90]: "2012-10-27T21:00:25Z" (1351371625) transition_time 0x654-0x65c (8)
0x650|                                    00 00 00 00|            ....|      [91]: "2013-03-30T22:00:25Z" (1364680825) transition_time 0x65c-0x664 (8)
0x660|51 57 60 79                                    |QW`y            |
0x660|            00 00 00 00 52 6c 2d 69            |    ....Rl-i    |      [92]: "2013-10-26T21:00:25Z" (1382821225) transition_time 0x664-0x66c (8)
0x660|                                    00 00 00 00|            ....|      [93]: "2014-03-29T22:00:25Z" (1396130425) transition_time 0x66c-0x674 (8)
0x670|53 37 42 79                                    |S7By            |
0x670|            00 00 00 00 54 4c 0f 69            |    ....TL.i    |      [94]: "2014-10-25T21:00:25Z" (1414270825) transition_time 0x674-0x67c (8)
0x670|                                    00 00 00 00|            ....|      [95]: "2015-03-28T22:00:25Z" (1427580025) transition_time 0x67c-0x684 (8)
0x680|55 17 24 79                                    |U.$y            |
0x680|            00 00 00 00 56 2b f1 6a            |    ....V+.j    |      [96]: "2015-10-24T21:00:26Z" (1445720426) transition_time 0x684-0x68c (8)
0x680|                                    00 00 00 00|            ....|      [97]: "2016-03-26T22:00:26Z" (1459029626) transition_time 0x68c-0x694 (8)
0x690|56 f7 06 7a                                    |V..z            |
0x690|            00 00 00 00 58 15 0d ea            |    ....X...    |      [98]: "2016-10-29T21:00:26Z" (1477774826) transition_time 0x694-0x69c (8)
0x690|                                    00 00 00 00|            ....|      [99]: "2017-03-25T22:00:27Z" (1490479227) transition_time 0x69c-0x6a4 (8)
0x6a0|58 d6 e8 7b                                    |X..{            |
0x6a0|            00 00 00 00 59 f4 ef eb            |    ....Y...    |      [100]: "2017-10-28T21:00:27Z" (1509224427) transition_time 0x6a4-0x6ac (8)
0x6a0|                                    00 00 00 00|            ....|      [101]: "2018-03-24T22:00:27Z" (1521928827) transition_time 0x6ac-0x6b4 (8)
0x6b0|5a b6 ca 7b                                    |Z..{            |
0x6b0|            00 00 00 00 5b d4 d1 eb            |    ....[...    |      [102]: "2018-10-27T21:00:27Z" (1540674027) transition_time 0x6b4-0x6bc (8)
0x6b0|                                    00 00 00 00|            ....|      [103]: "2019-03-30T22:00:27Z" (1553983227) transition_time 0x6bc-0x6c4 (8)
0x6c0|5c 9f e6 fb                                    |\...            |
0x6c0|            00 00 00 00 5d b4 b3 eb            |    ....]...    |      [104]: "2019-10-26T21:00:27Z" (1572123627) transition_time 0x6c4-0x6cc (8)
0x6c0|                                    00 00 00 00|            ....|      [105]: "2020-03-28T22:00:27Z" (1585432827) transition_time 0x6cc-0x6d4 (8)
0x6d0|5e 7f c8 fb                                    |^...            |
0x6d0|            00 00 00 00 5f 94 95 eb            |    ...._...    |      [106]: "2020-10-24T21:00:27Z" (1603573227) transition_time 0x6d4-0x6dc (8)
0x6d0|                                    00 00 00 00|            ....|      [107]: "2021-03-27T22:00:27Z" (1616882427) transition_time 0x6dc-0x6e4 (8)
0x6e0|60 5f aa fb                                    |`_..            |
0x6e0|            00 00 00 00 61 7d b2 6b            |    ....a}.k    |      [108]: "2021-10-30T21:00:27Z" (1635627627) transition_time 0x6e4-0x6ec (8)
0x6e0|                                    00 00 00 00|            ....|      [109]: "2022-03-26T22:00:27Z" (1648332027) transition_time 0x6ec-0x6f4 (8)
0x6f0|62 3f 8c fb                                    |b?..            |
0x6f0|            00 00 00 00 63 5d 94 6b            |    ....c].k    |      [110]: "2022-10-29T21:00:27Z" (1667077227) transition_time 0x6f4-0x6fc (8)
0x6f0|                                    00 00 00 00|            ....|      [111]: "2023-03-25T22:00:27Z" (1679781627) transition_time 0x6fc-0x704 (8)
0x700|64 1f 6e fb                                    |d.n.            |
0x700|            00 00 00 00 64 9b 78 1b            |    ....d.x.    |      [112]: "2023-06-28T00:00:27Z" (1687910427) transition_time 0x704-0x70c (8)
     |                                               |                |    transition_types[0:113]: 0x70c-0x77d (113)
0x700|                                    02         |            .   |      [0]: 2 transition_type 0x70c-0x70d (1)
0x700|                                       01      |             .  |      [1]: 1 transition_type 0x70d-0x70e (1)
0x700|                                          02   |              . |      [2]: 2 transition_type 0x70e-0x70f (1)
0x700|                                             01|               .|      [3]: 1 transition_type 0x70f-0x710 (1)
0x710|02                                             |.               |      [4]: 2 transition_type 0x710-0x711 (1)
0x710|   01                                          | .              |      [5]: 1 transition_type 0x711-0x712 (1)
0x710|      02                                       |  .             |      [6]: 2 transition_type 0x712-0x713 (1)
0x710|         01                                    |   .            |      [7]: 1 transition_type 0x713-0x714 (1)
0x710|            02                                 |    .           |      [8]: 2 transition_type 0x714-0x715 (1)
0x710|               01                              |     .          |      [9]: 1 transition_type 0x715-0x716 (1)
0x710|                  02                           |      .         |      [10]: 2 transition_type 0x716-0x717 (1)
0x710|                     01                        |       .        |      [11]: 1 transition_type 0x717-0x718 (1)
0x710|                        02                     |        .       |      [12]: 2 transition_type 0x718-0x719 (1)
0x710|                           01                  |         .      |      [13]: 1 transition_type 0x719-0x71a (1)
0x710|                              02               |          .     |      [14]: 2 transition_type 0x71a-0x71b (1)
0x710|                                 01            |           .    |      [15]: 1 transition_type 0x71b-0x71c (1)
0x710|                                    02         |            .   |      [16]: 2 transition_type 0x71c-0x71d (1)
0x710|                                       01      |             .  |      [17]: 1 transition_type 0x71d-0x71e (1)
0x710|                                          02   |              . |      [18]: 2 transition_type 0x71e-0x71f (1)
0x710|                                             01|               .|      [19]: 1 transition_type 0x71f-0x720 (1)
0x720|02                                             |.               |      [20]: 2 transition_type 0x720-0x721 (1)
0x720|   01                                          | .              |      [21]: 1 transition_type 0x721-0x722 (1)
0x720|      02                                       |  .             |      [22]: 2 transition_type 0x722-0x723 (1)
0x720|         01                                    |   .            |      [23]: 1 transition_type 0x723-0x724 (1)
0x720|            02                                 |    .           |      [24]: 2 transition_type 0x724-0x725 (1)
0x720|               01                              |     .          |      [25]: 1 transition_type 0x725-0x726 (1)
0x720|                  02                           |      .         |      [26]: 2 transition_type 0x726-0x727 (1)
0x720|                     01                        |       .        |      [27]: 1 transition_type 0x727-0x728 (1)
0x720|                        02                     |        .       |      [28]: 2 transition_type 0x728-0x729 (1)
0x720|                           01                  |         .      |      [29]: 1 transition_type 0x729-0x72a (1)
0x720|                              02               |          .     |      [30]: 2 transition_type 0x72a-0x72b (1)
0x720|                                 01            |           .    |      [31]: 1 transition_type 0x72b-0x72c (1)
0x720|                                    02         |            .   |      [32]: 2 transition_type 0x72c-0x72d (1)
0x720|                                       01      |             .  |      [33]: 1 transition_type 0x72d-0x72e (1)
0x720|                                          02   |              . |      [34]: 2 transition_type 0x72e-0x72f (1)
0x720|                                             01|               .|      [35]: 1 transition_type 0x72f-0x730 (1)
0x730|02                                             |.               |      [36]: 2 transition_type 0x730-0x731 (1)
0x730|   01                                          | .              |      [37]: 1 transition_type 0x731-0x732 (1)
0x730|      02                                       |  .             |      [38]: 2 transition_type 0x732-0x733 (1)
0x730|         01                                    |   .            |      [39]: 1 transition_type 0x733-0x734 (1)
0x730|            02                                 |    .           |      [40]: 2 transition_type 0x734-0x735 (1)
0x730|               01                              |     .          |      [41]: 1 transition_type 0x735-0x736 (1)
0x730|                  02                           |      .         |      [42]: 2 transition_type 0x736-0x737 (1)
0x730|                     01                        |       .        |      [43]: 1 transition_type 0x737-0x738 (1)
0x730|                        02                     |        .       |      [44]: 2 transition_type 0x738-0x739 (1)
0x730|                           01                  |         .      |      [45]: 1 transition_type 0x739-0x73a (1)
0x730|                              02               |          .     |      [46]: 2 transition_type 0x73a-0x73b (1)
0x730|                                 01            |           .    |      [47]: 1 transition_type 0x73b-0x73c (1)
0x730|                                    02         |            .   |      [48]: 2 transition_type 0x73c-0x73d (1)
0x730|                                       01      |             .  |      [49]: 1 transition_type 0x73d-0x73e (1)
0x730|                                          02   |              . |      [50]: 2 transition_type 0x73e-0x73f (1)
0x730|                                             01|               .|      [51]: 1 transition_type 0x73f-0x740 (1)
0x740|02                                             |.               |      [52]: 2 transition_type 0x740-0x741 (1)
0x740|   01                                          | .              |      [53]: 1 transition_type 0x741-0x742 (1)
0x740|      02                                       |  .             |      [54]: 2 transition_type 0x742-0x743 (1)
0x740|         01                                    |   .            |      [55]: 1 transition_type 0x743-0x744 (1)
0x740|            02                                 |    .           |      [56]: 2 transition_type 0x744-0x745 (1)
0x740|               01                              |     .          |      [57]: 1 transition_type 0x745-0x746 (1)
0x740|                  02                           |      .         |      [58]: 2 transition_type 0x746-0x747 (1)
0x740|                     01                        |       .        |      [59]: 1 transition_type 0x747-0x748 (1)
0x740|                        02                     |        .       |      [60]: 2 transition_type 0x748-0x749 (1)
0x740|                           01                  |         .      |      [61]: 1 transition_type 0x749-0x74a (1)
0x740|                              02               |          .     |      [62]: 2 transition_type 0x74a-0x74b (1)
0x740|                                 01            |           .    |      [63]: 1 transition_type 0x74b-0x74c (1)
0x740|                                    02         |            .   |      [64]: 2 transition_type 0x74c-0x74d (1)
0x740|                                       01      |             .  |      [65]: 1 transition_type 0x74d-0x74e (1)
0x740|                                          02   |              . |      [66]: 2 transition_type 0x74e-0x74f (1)
0x740|                                             01|               .|      [67]: 1 transition_type 0x74f-0x750 (1)
0x750|02                                             |.               |      [68]: 2 transition_type 0x750-0x751 (1)
0x750|   01                                          | .              |      [69]: 1 transition_type 0x751-0x752 (1)
0x750|      02                                       |  .             |      [70]: 2 transition_type 0x752-0x753 (1)
0x750|         01                                    |   .            |      [71]: 1 transition_type 0x753-0x754 (1)
0x750|            02                                 |    .           |      [72]: 2 transition_type 0x754-0x755 (1)
0x750|               01                              |     .          |      [73]: 1 transition_type 0x755-0x756 (1)
0x750|                  02                           |      .         |      [74]: 2 transition_type 0x756-0x757 (1)
0x750|                     01                        |       .        |      [75]: 1 transition_type 0x757-0x758 (1)
0x750|                        02                     |        .       |      [76]: 2 transition_type 0x758-0x759 (1)
0x750|                           01                  |         .      |      [77]: 1 transition_type 0x759-0x75a (1)
0x750|                              02               |          .     |      [78]: 2 transition_type 0x75a-0x75b (1)
0x750|                                 01            |           .    |      [79]: 1 transition_type 0x75b-0x75c (1)
0x750|                                    02         |            .   |      [80]: 2 transition_type 0x75c-0x75d (1)
0x750|                                       01      |             .  |      [81]: 1 transition_type 0x75d-0x75e (1)
0x750|                                          02   |              . |      [82]: 2 transition_type 0x75e-0x75f (1)
0x750|                                             01|               .|      [83]: 1 transition_type 0x75f-0x760 (1)
0x760|02                                             |.               |      [84]: 2 transition_type 0x760-0x761 (1)
0x760|   01                                          | .              |      [85]: 1 transition_type 0x761-0x762 (1)
0x760|      02                                       |  .             |      [86]: 2 transition_type 0x762-0x763 (1)
0x760|         01                                    |   .            |      [87]: 1 transition_type 0x763-0x764 (1)
0x760|            02                                 |    .           |      [88]: 2 transition_type 0x764-0x765 (1)
0x760|               01                              |     .          |      [89]: 1 transition_type 0x765-0x766 (1)
0x760|                  02                           |      .         |      [90]: 2 transition_type 0x766-0x767 (1)
0x760|                     01                        |       .        |      [91]: 1 transition_type 0x767-0x768 (1)
0x760|                        02                     |        .       |      [92]: 2 transition_type 0x768-0x769 (1)
0x760|                           01                  |         .      |      [93]: 1 transition_type 0x769-0x76a (1)
0x760|                              02               |          .     |      [94]: 2 transition_type 0x76a-0x76b (1)
0x760|                                 01            |           .    |      [95]: 1 transition_type 0x76b-0x76c (1)
0x760|                                    02         |            .   |      [96]: 2 transition_type 0x76c-0x76d (1)
0x760|                                       01      |             .  |      [97]: 1 transition_type 0x76d-0x76e (1)
0x760|                                          02   |              . |      [98]: 2 transition_type 0x76e-0x76f (1)
0x760|                                             01|               .|      [99]: 1 transition_type 0x76f-0x770 (1)
0x770|02                                             |.               |      [100]: 2 transition_type 0x770-0x771 (1)
0x770|   01                                          | .              |      [101]: 1 transition_type 0x771-0x772 (1)
0x770|      02                                       |  .             |      [102]: 2 transition_type 0x772-0x773 (1)
0x770|         01                                    |   .            |      [103]: 1 transition_type 0x773-0x774 (1)
0x770|            02                                 |    .           |      [104]: 2 transition_type 0x774-0x775 (1)
0x770|               01                              |     .          |      [105]: 1 transition_type 0x775-0x776 (1)
0x770|                  02                           |      .         |      [106]: 2 transition_type 0x776-0x777 (1)
0x770|                     01                        |       .        |      [107]: 1 transition_type 0x777-0x778 (1)
0x770|                        02                     |        .       |      [108]: 2 transition_type 0x778-0x779 (1)
0x770|                           01                  |         .      |      [109]: 1 transition_type 0x779-0x77a (1)
0x770|                              02               |          .     |      [110]: 2 transition_type 0x77a-0x77b (1)
0x770|                                 01            |           .    |      [111]: 1 transition_type 0x77b-0x77c (1)
0x770|                                    01         |            .   |      [112]: 1 transition_type 0x77c-0x77d (1)
     |                                               |                |    local_time_type_records[0:3]: 0x77d-0x78f (18)
     |                                               |                |      [0]{}: local_time_type 0x77d-0x783 (6)
0x770|                                       00 00 21|             ..!|        utoff: 8520 (valid) 0x77d-0x781 (4)
0x780|48                                             |H               |
0x780|   00                                          | .              |        dst: 0 (valid) 0x781-0x782 (1)
0x780|      00                                       |  .             |        idx: 0 (valid) 0x782-0x783 (1)
     |                                               |                |      [1]{}: local_time_type 0x783-0x789 (6)
0x780|         00 00 2a 30                           |   ..*0         |        utoff: 10800 (valid) 0x783-0x787 (4)
0x780|                     01                        |       .        |        dst: 1 (valid) 0x787-0x788 (1)
0x780|                        04                     |        .       |        idx: 4 (valid) 0x788-0x789 (1)
     |                                               |                |      [2]{}: local_time_type 0x789-0x78f (6)
0x780|                           00 00 1c 20         |         ...    |        utoff: 7200 (valid) 0x789-0x78d (4)
0x780|                                       00      |             .  |        dst: 0 (valid) 0x78d-0x78e (1)
0x780|                                          09   |              . |        idx: 9 (valid) 0x78e-0x78f (1)
     |                                               |                |    time_zone_designations[0:3]: 0x78f-0x79c (13)
0x780|                                             4c|               L|      [0]: "LMT" time_zone_designation 0x78f-0x793 (4)
0x790|4d 54 00                                       |MT.             |
0x790|         45 45 53 54 00                        |   EEST.        |      [1]: "EEST" time_zone_designation 0x793-0x798 (5)
0x790|                        45 45 54 00            |        EET.    |      [2]: "EET" time_zone_designation 0x798-0x79c (4)
     |                                               |                |    leap_second_records[0:27]: 0x79c-0x8e0 (324)
     |                                               |                |      [0]{}: leap_second_record 0x79c-0x7a8 (12)
0x790|                                    00 00 00 00|            ....|        occur: "1972-07-01T00:00:00Z" (78796800) 0x79c-0x7a4 (8)
0x7a0|04 b2 58 00                                    |..X.            |
0x7a0|            00 00 00 01                        |    ....        |        corr: 1 0x7a4-0x7a8 (4)
     |                                               |                |      [1]{}: leap_second_record 0x7a8-0x7b4 (12)
0x7a0|                        00 00 00 00 05 a4 ec 01|        ........|        occur: "1973-01-01T00:00:01Z" (94694401) 0x7a8-0x7b0 (8)
0x7b0|00 00 00 02                                    |....            |        corr: 2 0x7b0-0x7b4 (4)
     |                                               |                |      [2]{}: leap_second_record 0x7b4-0x7c0 (12)
0x7b0|            00 00 00 00 07 86 1f 82            |    ........    |        occur: "1974-01-01T00:00:02Z" (126230402) 0x7b4-0x7bc (8)
0x7b0|                                    00 00 00 03|            ....|        corr: 3 0x7bc-0x7c0 (4)
     |                                               |                |      [3]{}: leap_second_record 0x7c0-0x7cc (12)
0x7c0|00 00 00 00 09 67 53 03                        |.....gS.        |        occur: "1975-01-01T00:00:03Z" (157766403) 0x7c0-0x7c8 (8)
0x7c0|                        00 00 00 04            |        ....    |        corr: 4 0x7c8-0x7cc (4)
     |                                               |                |      [4]{}: leap_second_record 0x7cc-0x7d8 (12)
0x7c0|                                    00 00 00 00|            ....|        occur: "1976-01-01T00:00:04Z" (189302404) 0x7cc-0x7d4 (8)
0x7d0|0b 48 86 84                                    |.H..            |
0x7d0|            00 00 00 05                        |    ....        |        corr: 5 0x7d4-0x7d8 (4)
     |                                               |                |      [5]{}: leap_second_record 0x7d8-0x7e4 (12)
0x7d0|                        00 00 00 00 0d 2b 0b 85|        .....+..|        occur: "1977-01-01T00:00:05Z" (220924805) 0x7d8-0x7e0 (8)
0x7e0|00 00 00 06                                    |....            |        corr: 6 0x7e0-0x7e4 (4)
     |                                               |                |      [6]{}: leap_second_record 0x7e4-0x7f0 (12)
0x7e0|            00 00 00 00 0f 0c 3f 06            |    ......?.    |        occur: "1978-01-01T00:00:06Z" (252460806) 0x7e4-0x7ec (8)
0x7e0|                                    00 00 00 07|            ....|        corr: 7 0x7ec-0x7f0 (4)
     |                                               |                |      [7]{}: leap_second_record 0x7f0-0x7fc (12)
0x7f0|00 00 00 00 10 ed 72 87                        |......r.        |        occur: "1979-01-01T00:00:07Z" (283996807) 0x7f0-0x7f8 (8)
0x7f0|                        00 00 00 08            |        ....    |        corr: 8 0x7f8-0x7fc (4)
     |                                               |                |      [8]{}: leap_second_record 0x7fc-0x808 (12)
0x7f0|                                    00 00 00 00|            ....|        occur: "1980-01-01T00:00:08Z" (315532808) 0x7fc-0x804 (8)
0x800|12 ce a6 08                                    |....            |
0x800|            00 00 00 09                        |    ....        |        corr: 9 0x804-0x808 (4)
     |                                               |                |      [9]{}: leap_second_record 0x808-0x814 (12)
0x800|                        00 00 00 00 15 9f ca 89|        ........|        occur: "1981-07-01T00:00:09Z" (362793609) 0x808-0x810 (8)
0x810|00 00 00 0a                                    |....            |        corr: 10 0x810-0x814 (4)
     |                                               |                |      [10]{}: leap_second_record 0x814-0x820 (12)
0x810|            00 00 00 00 17 80 fe 0a            |    ........    |        occur: "1982-07-01T00:00:10Z" (394329610) 0x814-0x81c (8)
0x810|                                    00 00 00 0b|            ....|        corr: 11 0x81c-0x820 (4)
     |                                               |                |      [11]{}: leap_second_record 0x820-0x82c (12)
0x820|00 00 00 00 19 62 31 8b                        |.....b1.        |        occur: "1983-07-01T00:00:11Z" (425865611) 0x820-0x828 (8)
0x820|                        00 00 00 0c            |        ....    |        corr: 12 0x828-0x82c (4)
     |                                               |                |      [12]{}: leap_second_record 0x82c-0x838 (12)
0x820|                                    00 00 00 00|            ....|        occur: "1985-07-01T00:00:12Z" (489024012) 0x82c-0x834 (8)
0x830|1d 25 ea 0c                                    |.%..            |
0x830|            00 00 00 0d                        |    ....        |        corr: 13 0x834-0x838 (4)
     |                                               |                |      [13]{}: leap_second_record 0x838-0x844 (12)
0x830|                        00 00 00 00 21 da e5 0d|        ....!...|        occur: "1988-01-01T00:00:13Z" (567993613) 0x838-0x840 (8)
0x840|00 00 00 0e                                    |....            |        corr: 14 0x840-0x844 (4)
     |                                               |                |      [14]{}: leap_second_record 0x844-0x850 (12)
0x840|            00 00 00 00 25 9e 9d 8e            |    ....%...    |        occur: "1990-01-01T00:00:14Z" (631152014) 0x844-0x84c (8)
0x840|                                    00 00 00 0f|            ....|        corr: 15 0x84c-0x850 (4)
     |                                               |                |      [15]{}: leap_second_record 0x850-0x85c (12)
0x850|00 00 00 00 27 7f d1 0f                        |....'...        |        occur: "1991-01-01T00:00:15Z" (662688015) 0x850-0x858 (8)
0x850|                        00 00 00 10            |        ....    |        corr: 16 0x858-0x85c (4)
     |                                               |                |      [16]{}: leap_second_record 0x85c-0x868 (12)
0x850|                                    00 00 00 00|            ....|        occur: "1992-07-01T00:00:16Z" (709948816) 0x85c-0x864 (8)
0x860|2a 50 f5 90                                    |*P..            |
0x860|            00 00 00 11                        |    ....        |        corr: 17 0x864-0x868 (4)
     |                                               |                |      [17]{}: leap_second_record 0x868-0x874 (12)
0x860|                        00 00 00 00 2c 32 29 11|        ....,2).|        occur: "1993-07-01T00:00:17Z" (741484817) 0x868-0x870 (8)
0x870|00 00 00 12                                    |....            |        corr: 18 0x870-0x874 (4)
     |                                               |                |      [18]{}: leap_second_record 0x874-0x880 (12)
0x870|            00 00 00 00 2e 13 5c 92            |    ......\.    |        occur: "1994-07-01T00:00:18Z" (773020818) 0x874-0x87c (8)
0x870|                                    00 00 00 13|            ....|        corr: 19 0x87c-0x880 (4)
     |                                               |                |      [19]{}: leap_second_record 0x880-0x88c (12)
0x880|00 00 00 00 30 e7 24 13                        |....0.$.        |        occur: "1996-01-01T00:00:19Z" (820454419) 0x880-0x888 (8)
0x880|                        00 00 00 14            |        ....    |        corr: 20 0x888-0x88c (4)
     |                                               |                |      [20]{}: leap_second_record 0x88c-0x898 (12)
0x880|                                    00 00 00 00|            ....|        occur: "1997-07-01T00:00:20Z" (867715220) 0x88c-0x894 (8)
0x890|33 b8 48 94                                    |3.H.            |
0x890|            00 00 00 15                        |    ....        |        corr: 21 0x894-0x898 (4)
     |                                               |                |      [21]{}: leap_second_record 0x898-0x8a4 (12)
0x890|                        00 00 00 00 36 8c 10 15|        ....6...|        occur: "1999-01-01T00:00:21Z" (915148821) 0x898-0x8a0 (8)
0x8a0|00 00 00 16                                    |....            |        corr: 22 0x8a0-0x8a4 (4)
     |                                               |                |      [22]{}: leap_second_record 0x8a4-0x8b0 (12)
0x8a0|            00 00 00 00 43 b7 1b 96            |    ....C...    |        occur: "2006-01-01T00:00:22Z" (1136073622) 0x8a4-0x8ac (8)
0x8a0|                                    00 00 00 17|            ....|        corr: 23 0x8ac-0x8b0 (4)
     |                                               |                |      [23]{}: leap_second_record 0x8b0-0x8bc (12)
0x8b0|00 00 00 00 49 5c 07 97                        |....I\..        |        occur: "2009-01-01T00:00:23Z" (1230768023) 0x8b0-0x8b8 (8)
0x8b0|                        00 00 00 18            |        ....    |        corr: 24 0x8b8-0x8bc (4)
     |                                               |                |      [24]{}: leap_second_record 0x8bc-0x8c8 (12)
0x8b0|                                    00 00 00 00|            ....|        occur: "2012-07-01T00:00:24Z" (1341100824) 0x8bc-0x8c4 (8)
0x8c0|4f ef 93 18                                    |O...            |
0x8c0|            00 00 00 19                        |    ....        |        corr: 25 0x8c4-0x8c8 (4)
     |                                               |                |      [25]{}: leap_second_record 0x8c8-0x8d4 (12)
0x8c0|                        00 00 00 00 55 93 2d 99|        ....U.-.|        occur: "2015-07-01T00:00:25Z" (1435708825) 0x8c8-0x8d0 (8)
0x8d0|00 00 00 1a                                    |....            |        corr: 26 0x8d0-0x8d4 (4)
     |                                               |                |      [26]{}: leap_second_record 0x8d4-0x8e0 (12)
0x8d0|            00 00 00 00 58 68 46 9a            |    ....XhF.    |        occur: "2017-01-01T00:00:26Z" (1483228826) 0x8d4-0x8dc (8)
0x8d0|                                    00 00 00 1b|            ....|        corr: 27 0x8dc-0x8e0 (4)
     |                                               |                |    standard_wall_indicators[0:0]: 0x8e0-0x8e0 (0)
     |                                               |                |    ut_local_indicators[0:0]: 0x8e0-0x8e0 (0)
     |                                               |                |  footer{}: 0x8e0-0x8e2 (2)
0x8e0|0a                                             |.               |    nl1: 10 (valid) 0x8e0-0x8e1 (1)
     |                                               |                |    tz_string: "" 0x8e1-0x8e1 (0)
0x8e0|   0a|                                         | .|             |    nl2: 10 (valid) 0x8e1-0x8e2 (1)
