$ fq -d tzif dv Belem
     |00 01 02 03 04 05 06 07 08 09 0a 0b 0c 0d 0e 0f|0123456789abcdef|.{}: Belem (tzif) 0x0-0x455.7 (1110)
     |                                               |                |  v1header{}: 0x0-0x2b.7 (44)
0x000|54 5a 69 66                                    |TZif            |    magic: 0x545a6966 (valid) 0x0-0x3.7 (4)
0x000|            32                                 |    2           |    ver: "2" (0x32) (valid) 0x4-0x4.7 (1)
0x000|               00 00 00 00 00 00 00 00 00 00 00|     ...........|    reserved: raw bits 0x5-0x13.7 (15)
0x010|00 00 00 00                                    |....            |
0x010|            00 00 00 00                        |    ....        |    isutcnt: 0 0x14-0x17.7 (4)
0x010|                        00 00 00 00            |        ....    |    isstdcnt: 0 0x18-0x1b.7 (4)
0x010|                                    00 00 00 1b|            ....|    leapcnt: 27 0x1c-0x1f.7 (4)
0x020|00 00 00 1e                                    |....            |    timecnt: 30 0x20-0x23.7 (4)
0x020|            00 00 00 03                        |    ....        |    typecnt: 3 0x24-0x27.7 (4)
0x020|                        00 00 00 0c            |        ....    |    charcnt: 12 0x28-0x2b.7 (4)
     |                                               |                |  v1datablock{}: 0x2c-0x1b7.7 (396)
     |                                               |                |    transition_times[0:30]: 0x2c-0xa3.7 (120)
0x020|                                    96 aa 74 74|            ..tt|      [0]: "1914-01-01T03:13:56Z" (-1767213964) transition_time 0x2c-0x2f.7 (4)
0x030|b8 0f 49 e0                                    |..I.            |      [1]: "1931-10-03T14:00:00Z" (-1206957600) transition_time 0x30-0x33.7 (4)
0x030|            b8 fd 40 a0                        |    ..@.        |      [2]: "1932-04-01T02:00:00Z" (-1191362400) transition_time 0x34-0x37.7 (4)
0x030|                        b9 f1 34 30            |        ..40    |      [3]: "1932-10-03T03:00:00Z" (-1175374800) transition_time 0x38-0x3b.7 (4)
0x030|                                    ba de 74 20|            ..t |      [4]: "1933-04-01T02:00:00Z" (-1159826400) transition_time 0x3c-0x3f.7 (4)
0x040|da 38 ae 30                                    |.8.0            |      [5]: "1949-12-01T03:00:00Z" (-633819600) transition_time 0x40-0x43.7 (4)
0x040|            da eb fa 30                        |    ...0        |      [6]: "1950-04-16T03:00:00Z" (-622069200) transition_time 0x44-0x47.7 (4)
0x040|                        dc 19 e1 b0            |        ....    |      [7]: "1950-12-01T03:00:00Z" (-602283600) transition_time 0x48-0x4b.7 (4)
0x040|                                    dc b9 59 20|            ..Y |      [8]: "1951-04-01T02:00:00Z" (-591832800) transition_time 0x4c-0x4f.7 (4)
0x050|dd fb 15 30                                    |...0            |      [9]: "1951-12-01T03:00:00Z" (-570747600) transition_time 0x50-0x53.7 (4)
0x050|            de 9b de 20                        |    ...         |      [10]: "1952-04-01T02:00:00Z" (-560210400) transition_time 0x54-0x57.7 (4)
0x050|                        df dd 9a 30            |        ...0    |      [11]: "1952-12-01T03:00:00Z" (-539125200) transition_time 0x58-0x5b.7 (4)
0x050|                                    e0 54 33 20|            .T3 |      [12]: "1953-03-01T02:00:00Z" (-531352800) transition_time 0x5c-0x5f.7 (4)
0x060|f4 97 ff b0                                    |....            |      [13]: "1963-12-09T03:00:00Z" (-191365200) transition_time 0x60-0x63.7 (4)
0x060|            f5 05 5e 20                        |    ..^         |      [14]: "1964-03-01T02:00:00Z" (-184197600) transition_time 0x64-0x67.7 (4)
0x060|                        f6 c0 64 30            |        ..d0    |      [15]: "1965-01-31T03:00:00Z" (-155163600) transition_time 0x68-0x6b.7 (4)
0x060|                                    f7 0e 1e a0|            ....|      [16]: "1965-03-31T02:00:00Z" (-150069600) transition_time 0x6c-0x6f.7 (4)
0x070|f8 51 2c 30                                    |.Q,0            |      [17]: "1965-12-01T03:00:00Z" (-128898000) transition_time 0x70-0x73.7 (4)
0x070|            f8 c7 c5 20                        |    ...         |      [18]: "1966-03-01T02:00:00Z" (-121125600) transition_time 0x74-0x77.7 (4)
0x070|                        fa 0a d2 b0            |        ....    |      [19]: "1966-11-01T03:00:00Z" (-99954000) transition_time 0x78-0x7b.7 (4)
0x070|                                    fa a8 f8 a0|            ....|      [20]: "1967-03-01T02:00:00Z" (-89589600) transition_time 0x7c-0x7f.7 (4)
0x080|fb ec 06 30                                    |...0            |      [21]: "1967-11-01T03:00:00Z" (-68418000) transition_time 0x80-0x83.7 (4)
0x080|            fc 8b 7d a0                        |    ..}.        |      [22]: "1968-03-01T02:00:00Z" (-57967200) transition_time 0x84-0x87.7 (4)
0x080|                        1d c9 8e 3d            |        ...=    |      [23]: "1985-11-02T03:00:13Z" (499748413) transition_time 0x88-0x8b.7 (4)
0x080|                                    1e 78 d7 ad|            .x..|      [24]: "1986-03-15T02:00:13Z" (511236013) transition_time 0x8c-0x8f.7 (4)
0x090|1f a0 35 bd                                    |..5.            |      [25]: "1986-10-25T03:00:13Z" (530593213) transition_time 0x90-0x93.7 (4)
0x090|            20 33 cf ad                        |     3..        |      [26]: "1987-02-14T02:00:13Z" (540266413) transition_time 0x94-0x97.7 (4)
0x090|                        21 81 69 3d            |        !.i=    |      [27]: "1987-10-25T03:00:13Z" (562129213) transition_time 0x98-0x9b.7 (4)
0x090|                                    22 0b c8 ae|            "...|      [28]: "1988-02-07T02:00:14Z" (571197614) transition_time 0x9c-0x9f.7 (4)
0x0a0|64 9b 78 1b                                    |d.x.            |      [29]: "2023-06-28T00:00:27Z" (1687910427) transition_time 0xa0-0xa3.7 (4)
     |                                               |                |    transition_types[0:30]: 0xa4-0xc1.7 (30)
0x0a0|            02                                 |    .           |      [0]: 2 transition_type 0xa4-0xa4.7 (1)
0x0a0|               01                              |     .          |      [1]: 1 transition_type 0xa5-0xa5.7 (1)
0x0a0|                  02                           |      .         |      [2]: 2 transition_type 0xa6-0xa6.7 (1)
0x0a0|                     01                        |       .        |      [3]: 1 transition_type 0xa7-0xa7.7 (1)
0x0a0|                        02                     |        .       |      [4]: 2 transition_type 0xa8-0xa8.7 (1)
0x0a0|                           01                  |         .      |      [5]: 1 transition_type 0xa9-0xa9.7 (1)
0x0a0|                              02               |          .     |      [6]: 2 transition_type 0xaa-0xaa.7 (1)
0x0a0|                                 01            |           .    |      [7]: 1 transition_type 0xab-0xab.7 (1)
0x0a0|                                    02         |            .   |      [8]: 2 transition_type 0xac-0xac.7 (1)
0x0a0|                                       01      |             .  |      [9]: 1 transition_type 0xad-0xad.7 (1)
0x0a0|                                          02   |              . |      [10]: 2 transition_type 0xae-0xae.7 (1)
0x0a0|                                             01|               .|      [11]: 1 transition_type 0xaf-0xaf.7 (1)
0x0b0|02                                             |.               |      [12]: 2 transition_type 0xb0-0xb0.7 (1)
0x0b0|   01                                          | .              |      [13]: 1 transition_type 0xb1-0xb1.7 (1)
0x0b0|      02                                       |  .             |      [14]: 2 transition_type 0xb2-0xb2.7 (1)
0x0b0|         01                                    |   .            |      [15]: 1 transition_type 0xb3-0xb3.7 (1)
0x0b0|            02                                 |    .           |      [16]: 2 transition_type 0xb4-0xb4.7 (1)
0x0b0|               01                              |     .          |      [17]: 1 transition_type 0xb5-0xb5.7 (1)
0x0b0|                  02                           |      .         |      [18]: 2 transition_type 0xb6-0xb6.7 (1)
0x0b0|                     01                        |       .        |      [19]: 1 transition_type 0xb7-0xb7.7 (1)
0x0b0|                        02                     |        .       |      [20]: 2 transition_type 0xb8-0xb8.7 (1)
0x0b0|                           01                  |         .      |      [21]: 1 transition_type 0xb9-0xb9.7 (1)
0x0b0|                              02               |          .     |      [22]: 2 transition_type 0xba-0xba.7 (1)
0x0b0|                                 01            |           .    |      [23]: 1 transition_type 0xbb-0xbb.7 (1)
0x0b0|                                    02         |            .   |      [24]: 2 transition_type 0xbc-0xbc.7 (1)
0x0b0|                                       01      |             .  |      [25]: 1 transition_type 0xbd-0xbd.7 (1)
0x0b0|                                          02   |              . |      [26]: 2 transition_type 0xbe-0xbe.7 (1)
0x0b0|                                             01|               .|      [27]: 1 transition_type 0xbf-0xbf.7 (1)
0x0c0|02                                             |.               |      [28]: 2 transition_type 0xc0-0xc0.7 (1)
0x0c0|   02                                          | .              |      [29]: 2 transition_type 0xc1-0xc1.7 (1)
     |                                               |                |    local_time_type_records[0:3]: 0xc2-0xd3.7 (18)
     |                                               |                |      [0]{}: local_time_type 0xc2-0xc7.7 (6)
0x0c0|      ff ff d2 8c                              |  ....          |        utoff: -11636 (valid) 0xc2-0xc5.7 (4)
0x0c0|                  00                           |      .         |        dst: 0 (valid) 0xc6-0xc6.7 (1)
0x0c0|                     00                        |       .        |        idx: 0 (valid) 0xc7-0xc7.7 (1)
     |                                               |                |      [1]{}: local_time_type 0xc8-0xcd.7 (6)
0x0c0|                        ff ff e3 e0            |        ....    |        utoff: -7200 (valid) 0xc8-0xcb.7 (4)
0x0c0|                                    01         |            .   |        dst: 1 (valid) 0xcc-0xcc.7 (1)
0x0c0|                                       04      |             .  |        idx: 4 (valid) 0xcd-0xcd.7 (1)
     |                                               |                |      [2]{}: local_time_type 0xce-0xd3.7 (6)
0x0c0|                                          ff ff|              ..|        utoff: -10800 (valid) 0xce-0xd1.7 (4)
0x0d0|d5 d0                                          |..              |
0x0d0|      00                                       |  .             |        dst: 0 (valid) 0xd2-0xd2.7 (1)
0x0d0|         08                                    |   .            |        idx: 8 (valid) 0xd3-0xd3.7 (1)
     |                                               |                |    time_zone_designations[0:3]: 0xd4-0xdf.7 (12)
0x0d0|            4c 4d 54 00                        |    LMT.        |      [0]: "LMT" time_zone_designation 0xd4-0xd7.7 (4)
0x0d0|                        2d 30 32 00            |        -02.    |      [1]: "-02" time_zone_designation 0xd8-0xdb.7 (4)
0x0d0|                                    2d 30 33 00|            -03.|      [2]: "-03" time_zone_designation 0xdc-0xdf.7 (4)
     |                                               |                |    leap_second_records[0:27]: 0xe0-0x1b7.7 (216)
     |                                               |                |      [0]{}: leap_second_record 0xe0-0xe7.7 (8)
0x0e0|04 b2 58 00                                    |..X.            |        occur: "1972-07-01T00:00:00Z" (78796800) 0xe0-0xe3.7 (4)
0x0e0|            00 00 00 01                        |    ....        |        corr: 1 0xe4-0xe7.7 (4)
     |                                               |                |      [1]{}: leap_second_record 0xe8-0xef.7 (8)
0x0e0|                        05 a4 ec 01            |        ....    |        occur: "1973-01-01T00:00:01Z" (94694401) 0xe8-0xeb.7 (4)
0x0e0|                                    00 00 00 02|            ....|        corr: 2 0xec-0xef.7 (4)
     |                                               |                |      [2]{}: leap_second_record 0xf0-0xf7.7 (8)
0x0f0|07 86 1f 82                                    |....            |        occur: "1974-01-01T00:00:02Z" (126230402) 0xf0-0xf3.7 (4)
0x0f0|            00 00 00 03                        |    ....        |        corr: 3 0xf4-0xf7.7 (4)
     |                                               |                |      [3]{}: leap_second_record 0xf8-0xff.7 (8)
0x0f0|                        09 67 53 03            |        .gS.    |        occur: "1975-01-01T00:00:03Z" (157766403) 0xf8-0xfb.7 (4)
0x0f0|                                    00 00 00 04|            ....|        corr: 4 0xfc-0xff.7 (4)
     |                                               |                |      [4]{}: leap_second_record 0x100-0x107.7 (8)
0x100|0b 48 86 84                                    |.H..            |        occur: "1976-01-01T00:00:04Z" (189302404) 0x100-0x103.7 (4)
0x100|            00 00 00 05                        |    ....        |        corr: 5 0x104-0x107.7 (4)
     |                                               |                |      [5]{}: leap_second_record 0x108-0x10f.7 (8)
0x100|                        0d 2b 0b 85            |        .+..    |        occur: "1977-01-01T00:00:05Z" (220924805) 0x108-0x10b.7 (4)
0x100|                                    00 00 00 06|            ....|        corr: 6 0x10c-0x10f.7 (4)
     |                                               |                |      [6]{}: leap_second_record 0x110-0x117.7 (8)
0x110|0f 0c 3f 06                                    |..?.            |        occur: "1978-01-01T00:00:06Z" (252460806) 0x110-0x113.7 (4)
0x110|            00 00 00 07                        |    ....        |        corr: 7 0x114-0x117.7 (4)
     |                                               |                |      [7]{}: leap_second_record 0x118-0x11f.7 (8)
0x110|                        10 ed 72 87            |        ..r.    |        occur: "1979-01-01T00:00:07Z" (283996807) 0x118-0x11b.7 (4)
0x110|                                    00 00 00 08|            ....|        corr: 8 0x11c-0x11f.7 (4)
     |                                               |                |      [8]{}: leap_second_record 0x120-0x127.7 (8)
0x120|12 ce a6 08                                    |....            |        occur: "1980-01-01T00:00:08Z" (315532808) 0x120-0x123.7 (4)
0x120|            00 00 00 09                        |    ....        |        corr: 9 0x124-0x127.7 (4)
     |                                               |                |      [9]{}: leap_second_record 0x128-0x12f.7 (8)
0x120|                        15 9f ca 89            |        ....    |        occur: "1981-07-01T00:00:09Z" (362793609) 0x128-0x12b.7 (4)
0x120|                                    00 00 00 0a|            ....|        corr: 10 0x12c-0x12f.7 (4)
     |                                               |                |      [10]{}: leap_second_record 0x130-0x137.7 (8)
0x130|17 80 fe 0a                                    |....            |        occur: "1982-07-01T00:00:10Z" (394329610) 0x130-0x133.7 (4)
0x130|            00 00 00 0b                        |    ....        |        corr: 11 0x134-0x137.7 (4)
     |                                               |                |      [11]{}: leap_second_record 0x138-0x13f.7 (8)
0x130|                        19 62 31 8b            |        .b1.    |        occur: "1983-07-01T00:00:11Z" (425865611) 0x138-0x13b.7 (4)
0x130|                                    00 00 00 0c|            ....|        corr: 12 0x13c-0x13f.7 (4)
     |                                               |                |      [12]{}: leap_second_record 0x140-0x147.7 (8)
0x140|1d 25 ea 0c                                    |.%..            |        occur: "1985-07-01T00:00:12Z" (489024012) 0x140-0x143.7 (4)
0x140|            00 00 00 0d                        |    ....        |        corr: 13 0x144-0x147.7 (4)
     |                                               |                |      [13]{}: leap_second_record 0x148-0x14f.7 (8)
0x140|                        21 da e5 0d            |        !...    |        occur: "1988-01-01T00:00:13Z" (567993613) 0x148-0x14b.7 (4)
0x140|                                    00 00 00 0e|            ....|        corr: 14 0x14c-0x14f.7 (4)
     |                                               |                |      [14]{}: leap_second_record 0x150-0x157.7 (8)
0x150|25 9e 9d 8e                                    |%...            |        occur: "1990-01-01T00:00:14Z" (631152014) 0x150-0x153.7 (4)
0x150|            00 00 00 0f                        |    ....        |        corr: 15 0x154-0x157.7 (4)
     |                                               |                |      [15]{}: leap_second_record 0x158-0x15f.7 (8)
0x150|                        27 7f d1 0f            |        '...    |        occur: "1991-01-01T00:00:15Z" (662688015) 0x158-0x15b.7 (4)
0x150|                                    00 00 00 10|            ....|        corr: 16 0x15c-0x15f.7 (4)
     |                                               |                |      [16]{}: leap_second_record 0x160-0x167.7 (8)
0x160|2a 50 f5 90                                    |*P..            |        occur: "1992-07-01T00:00:16Z" (709948816) 0x160-0x163.7 (4)
0x160|            00 00 00 11                        |    ....        |        corr: 17 0x164-0x167.7 (4)
     |                                               |                |      [17]{}: leap_second_record 0x168-0x16f.7 (8)
0x160|                        2c 32 29 11            |        ,2).    |        occur: "1993-07-01T00:00:17Z" (741484817) 0x168-0x16b.7 (4)
0x160|                                    00 00 00 12|            ....|        corr: 18 0x16c-0x16f.7 (4)
     |                                               |                |      [18]{}: leap_second_record 0x170-0x177.7 (8)
0x170|2e 13 5c 92                                    |..\.            |        occur: "1994-07-01T00:00:18Z" (773020818) 0x170-0x173.7 (4)
0x170|            00 00 00 13                        |    ....        |        corr: 19 0x174-0x177.7 (4)
     |                                               |                |      [19]{}: leap_second_record 0x178-0x17f.7 (8)
0x170|                        30 e7 24 13            |        0.$.    |        occur: "1996-01-01T00:00:19Z" (820454419) 0x178-0x17b.7 (4)
0x170|                                    00 00 00 14|            ....|        corr: 20 0x17c-0x17f.7 (4)
     |                                               |                |      [20]{}: leap_second_record 0x180-0x187.7 (8)
0x180|33 b8 48 94                                    |3.H.            |        occur: "1997-07-01T00:00:20Z" (867715220) 0x180-0x183.7 (4)
0x180|            00 00 00 15                        |    ....        |        corr: 21 0x184-0x187.7 (4)
     |                                               |                |      [21]{}: leap_second_record 0x188-0x18f.7 (8)
0x180|                        36 8c 10 15            |        6...    |        occur: "1999-01-01T00:00:21Z" (915148821) 0x188-0x18b.7 (4)
0x180|                                    00 00 00 16|            ....|        corr: 22 0x18c-0x18f.7 (4)
     |                                               |                |      [22]{}: leap_second_record 0x190-0x197.7 (8)
0x190|43 b7 1b 96                                    |C...            |        occur: "2006-01-01T00:00:22Z" (1136073622) 0x190-0x193.7 (4)
0x190|            00 00 00 17                        |    ....        |        corr: 23 0x194-0x197.7 (4)
     |                                               |                |      [23]{}: leap_second_record 0x198-0x19f.7 (8)
0x190|                        49 5c 07 97            |        I\..    |        occur: "2009-01-01T00:00:23Z" (1230768023) 0x198-0x19b.7 (4)
0x190|                                    00 00 00 18|            ....|        corr: 24 0x19c-0x19f.7 (4)
     |                                               |                |      [24]{}: leap_second_record 0x1a0-0x1a7.7 (8)
0x1a0|4f ef 93 18                                    |O...            |        occur: "2012-07-01T00:00:24Z" (1341100824) 0x1a0-0x1a3.7 (4)
0x1a0|            00 00 00 19                        |    ....        |        corr: 25 0x1a4-0x1a7.7 (4)
     |                                               |                |      [25]{}: leap_second_record 0x1a8-0x1af.7 (8)
0x1a0|                        55 93 2d 99            |        U.-.    |        occur: "2015-07-01T00:00:25Z" (1435708825) 0x1a8-0x1ab.7 (4)
0x1a0|                                    00 00 00 1a|            ....|        corr: 26 0x1ac-0x1af.7 (4)
     |                                               |                |      [26]{}: leap_second_record 0x1b0-0x1b7.7 (8)
0x1b0|58 68 46 9a                                    |XhF.            |        occur: "2017-01-01T00:00:26Z" (1483228826) 0x1b0-0x1b3.7 (4)
0x1b0|            00 00 00 1b                        |    ....        |        corr: 27 0x1b4-0x1b7.7 (4)
     |                                               |                |    standard_wall_indicators[0:0]: 0x1b8-NA (0)
     |                                               |                |    ut_local_indicators[0:0]: 0x1b8-NA (0)
     |                                               |                |  v2plusheader{}: 0x1b8-0x1e3.7 (44)
0x1b0|                        54 5a 69 66            |        TZif    |    magic: 0x545a6966 (valid) 0x1b8-0x1bb.7 (4)
0x1b0|                                    32         |            2   |    ver: "2" (0x32) (valid) 0x1bc-0x1bc.7 (1)
0x1b0|                                       00 00 00|             ...|    reserved: raw bits 0x1bd-0x1cb.7 (15)
0x1c0|00 00 00 00 00 00 00 00 00 00 00 00            |............    |
0x1c0|                                    00 00 00 00|            ....|    isutcnt: 0 0x1cc-0x1cf.7 (4)
0x1d0|00 00 00 00                                    |....            |    isstdcnt: 0 0x1d0-0x1d3.7 (4)
0x1d0|            00 00 00 1b                        |    ....        |    leapcnt: 27 0x1d4-0x1d7.7 (4)
0x1d0|                        00 00 00 1e            |        ....    |    timecnt: 30 0x1d8-0x1db.7 (4)
0x1d0|                                    00 00 00 03|            ....|    typecnt: 3 0x1dc-0x1df.7 (4)
0x1e0|00 00 00 0c                                    |....            |    charcnt: 12 0x1e0-0x1e3.7 (4)
     |                                               |                |  v2plusdatablock{}: 0x1e4-0x453.7 (624)
     |                                               |                |    transition_times[0:30]: 0x1e4-0x2d3.7 (240)
0x1e0|            ff ff ff ff 96 aa 74 74            |    ......tt    |      [0]: "1914-01-01T03:13:56Z" (-1767213964) transition_time 0x1e4-0x1eb.7 (8)
0x1e0|                                    ff ff ff ff|            ....|      [1]: "1931-10-03T14:00:00Z" (-1206957600) transition_time 0x1ec-0x1f3.7 (8)
0x1f0|b8 0f 49 e0                                    |..I.            |
0x1f0|            ff ff ff ff b8 fd 40 a0            |    ......@.    |      [2]: "1932-04-01T02:00:00Z" (-1191362400) transition_time 0x1f4-0x1fb.7 (8)
0x1f0|                                    ff ff ff ff|            ....|      [3]: "1932-10-03T03:00:00Z" (-1175374800) transition_time 0x1fc-0x203.7 (8)
0x200|b9 f1 34 30                                    |..40            |
0x200|            ff ff ff ff ba de 74 20            |    ......t     |      [4]: "1933-04-01T02:00:00Z" (-1159826400) transition_time 0x204-0x20b.7 (8)
0x200|                                    ff ff ff ff|            ....|      [5]: "1949-12-01T03:00:00Z" (-633819600) transition_time 0x20c-0x213.7 (8)
0x210|da 38 ae 30                                    |.8.0            |
0x210|            ff ff ff ff da eb fa 30            |    .......0    |      [6]: "1950-04-16T03:00:00Z" (-622069200) transition_time 0x214-0x21b.7 (8)
0x210|                                    ff ff ff ff|            ....|      [7]: "1950-12-01T03:00:00Z" (-602283600) transition_time 0x21c-0x223.7 (8)
0x220|dc 19 e1 b0                                    |....            |
0x220|            ff ff ff ff dc b9 59 20            |    ......Y     |      [8]: "1951-04-01T02:00:00Z" (-591832800) transition_time 0x224-0x22b.7 (8)
0x220|                                    ff ff ff ff|            ....|      [9]: "1951-12-01T03:00:00Z" (-570747600) transition_time 0x22c-0x233.7 (8)
0x230|dd fb 15 30                                    |...0            |
0x230|            ff ff ff ff de 9b de 20            |    .......     |      [10]: "1952-04-01T02:00:00Z" (-560210400) transition_time 0x234-0x23b.7 (8)
0x230|                                    ff ff ff ff|            ....|      [11]: "1952-12-01T03:00:00Z" (-539125200) transition_time 0x23c-0x243.7 (8)
0x240|df dd 9a 30                                    |...0            |
0x240|            ff ff ff ff e0 54 33 20            |    .....T3     |      [12]: "1953-03-01T02:00:00Z" (-531352800) transition_time 0x244-0x24b.7 (8)
0x240|                                    ff ff ff ff|            ....|      [13]: "1963-12-09T03:00:00Z" (-191365200) transition_time 0x24c-0x253.7 (8)
0x250|f4 97 ff b0                                    |....            |
0x250|            ff ff ff ff f5 05 5e 20            |    ......^     |      [14]: "1964-03-01T02:00:00Z" (-184197600) transition_time 0x254-0x25b.7 (8)
0x250|                                    ff ff ff ff|            ....|      [15]: "1965-01-31T03:00:00Z" (-155163600) transition_time 0x25c-0x263.7 (8)
0x260|f6 c0 64 30                                    |..d0            |
0x260|            ff ff ff ff f7 0e 1e a0            |    ........    |      [16]: "1965-03-31T02:00:00Z" (-150069600) transition_time 0x264-0x26b.7 (8)
0x260|                                    ff ff ff ff|            ....|      [17]: "1965-12-01T03:00:00Z" (-128898000) transition_time 0x26c-0x273.7 (8)
0x270|f8 51 2c 30                                    |.Q,0            |
0x270|            ff ff ff ff f8 c7 c5 20            |    .......     |      [18]: "1966-03-01T02:00:00Z" (-121125600) transition_time 0x274-0x27b.7 (8)
0x270|                                    ff ff ff ff|            ....|      [19]: "1966-11-01T03:00:00Z" (-99954000) transition_time 0x27c-0x283.7 (8)
0x280|fa 0a d2 b0                                    |....            |
0x280|            ff ff ff ff fa a8 f8 a0            |    ........    |      [20]: "1967-03-01T02:00:00Z" (-89589600) transition_time 0x284-0x28b.7 (8)
0x280|                                    ff ff ff ff|            ....|      [21]: "1967-11-01T03:00:00Z" (-68418000) transition_time 0x28c-0x293.7 (8)
0x290|fb ec 06 30                                    |...0            |
0x290|            ff ff ff ff fc 8b 7d a0            |    ......}.    |      [22]: "1968-03-01T02:00:00Z" (-57967200) transition_time 0x294-0x29b.7 (8)
0x290|                                    00 00 00 00|            ....|      [23]: "1985-11-02T03:00:13Z" (499748413) transition_time 0x29c-0x2a3.7 (8)
0x2a0|1d c9 8e 3d                                    |...=            |
0x2a0|            00 00 00 00 1e 78 d7 ad            |    .....x..    |      [24]: "1986-03-15T02:00:13Z" (511236013) transition_time 0x2a4-0x2ab.7 (8)
0x2a0|                                    00 00 00 00|            ....|      [25]: "1986-10-25T03:00:13Z" (530593213) transition_time 0x2ac-0x2b3.7 (8)
0x2b0|1f a0 35 bd                                    |..5.            |
0x2b0|            00 00 00 00 20 33 cf ad            |    .... 3..    |      [26]: "1987-02-14T02:00:13Z" (540266413) transition_time 0x2b4-0x2bb.7 (8)
0x2b0|                                    00 00 00 00|            ....|      [27]: "1987-10-25T03:00:13Z" (562129213) transition_time 0x2bc-0x2c3.7 (8)
0x2c0|21 81 69 3d                                    |!.i=            |
0x2c0|            00 00 00 00 22 0b c8 ae            |    ...."...    |      [28]: "1988-02-07T02:00:14Z" (571197614) transition_time 0x2c4-0x2cb.7 (8)
0x2c0|                                    00 00 00 00|            ....|      [29]: "2023-06-28T00:00:27Z" (1687910427) transition_time 0x2cc-0x2d3.7 (8)
0x2d0|64 9b 78 1b                                    |d.x.            |
     |                                               |                |    transition_types[0:30]: 0x2d4-0x2f1.7 (30)
0x2d0|            02                                 |    .           |      [0]: 2 transition_type 0x2d4-0x2d4.7 (1)
0x2d0|               01                              |     .          |      [1]: 1 transition_type 0x2d5-0x2d5.7 (1)
0x2d0|                  02                           |      .         |      [2]: 2 transition_type 0x2d6-0x2d6.7 (1)
0x2d0|                     01                        |       .        |      [3]: 1 transition_type 0x2d7-0x2d7.7 (1)
0x2d0|                        02                     |        .       |      [4]: 2 transition_type 0x2d8-0x2d8.7 (1)
0x2d0|                           01                  |         .      |      [5]: 1 transition_type 0x2d9-0x2d9.7 (1)
0x2d0|                              02               |          .     |      [6]: 2 transition_type 0x2da-0x2da.7 (1)
0x2d0|                                 01            |           .    |      [7]: 1 transition_type 0x2db-0x2db.7 (1)
0x2d0|                                    02         |            .   |      [8]: 2 transition_type 0x2dc-0x2dc.7 (1)
0x2d0|                                       01      |             .  |      [9]: 1 transition_type 0x2dd-0x2dd.7 (1)
0x2d0|                                          02   |              . |      [10]: 2 transition_type 0x2de-0x2de.7 (1)
0x2d0|                                             01|               .|      [11]: 1 transition_type 0x2df-0x2df.7 (1)
0x2e0|02                                             |.               |      [12]: 2 transition_type 0x2e0-0x2e0.7 (1)
0x2e0|   01                                          | .              |      [13]: 1 transition_type 0x2e1-0x2e1.7 (1)
0x2e0|      02                                       |  .             |      [14]: 2 transition_type 0x2e2-0x2e2.7 (1)
0x2e0|         01                                    |   .            |      [15]: 1 transition_type 0x2e3-0x2e3.7 (1)
0x2e0|            02                                 |    .           |      [16]: 2 transition_type 0x2e4-0x2e4.7 (1)
0x2e0|               01                              |     .          |      [17]: 1 transition_type 0x2e5-0x2e5.7 (1)
0x2e0|                  02                           |      .         |      [18]: 2 transition_type 0x2e6-0x2e6.7 (1)
0x2e0|                     01                        |       .        |      [19]: 1 transition_type 0x2e7-0x2e7.7 (1)
0x2e0|                        02                     |        .       |      [20]: 2 transition_type 0x2e8-0x2e8.7 (1)
0x2e0|                           01                  |         .      |      [21]: 1 transition_type 0x2e9-0x2e9.7 (1)
0x2e0|                              02               |          .     |      [22]: 2 transition_type 0x2ea-0x2ea.7 (1)
0x2e0|                                 01            |           .    |      [23]: 1 transition_type 0x2eb-0x2eb.7 (1)
0x2e0|                                    02         |            .   |      [24]: 2 transition_type 0x2ec-0x2ec.7 (1)
0x2e0|                                       01      |             .  |      [25]: 1 transition_type 0x2ed-0x2ed.7 (1)
0x2e0|                                          02   |              . |      [26]: 2 transition_type 0x2ee-0x2ee.7 (1)
0x2e0|                                             01|               .|      [27]: 1 transition_type 0x2ef-0x2ef.7 (1)
0x2f0|02                                             |.               |      [28]: 2 transition_type 0x2f0-0x2f0.7 (1)
0x2f0|   02                                          | .              |      [29]: 2 transition_type 0x2f1-0x2f1.7 (1)
     |                                               |                |    local_time_type_records[0:3]: 0x2f2-0x303.7 (18)
     |                                               |                |      [0]{}: local_time_type 0x2f2-0x2f7.7 (6)
0x2f0|      ff ff d2 8c                              |  ....          |        utoff: -11636 (valid) 0x2f2-0x2f5.7 (4)
0x2f0|                  00                           |      .         |        dst: 0 (valid) 0x2f6-0x2f6.7 (1)
0x2f0|                     00                        |       .        |        idx: 0 (valid) 0x2f7-0x2f7.7 (1)
     |                                               |                |      [1]{}: local_time_type 0x2f8-0x2fd.7 (6)
0x2f0|                        ff ff e3 e0            |        ....    |        utoff: -7200 (valid) 0x2f8-0x2fb.7 (4)
0x2f0|                                    01         |            .   |        dst: 1 (valid) 0x2fc-0x2fc.7 (1)
0x2f0|                                       04      |             .  |        idx: 4 (valid) 0x2fd-0x2fd.7 (1)
     |                                               |                |      [2]{}: local_time_type 0x2fe-0x303.7 (6)
0x2f0|                                          ff ff|              ..|        utoff: -10800 (valid) 0x2fe-0x301.7 (4)
0x300|d5 d0                                          |..              |
0x300|      00                                       |  .             |        dst: 0 (valid) 0x302-0x302.7 (1)
0x300|         08                                    |   .            |        idx: 8 (valid) 0x303-0x303.7 (1)
     |                                               |                |    time_zone_designations[0:3]: 0x304-0x30f.7 (12)
0x300|            4c 4d 54 00                        |    LMT.        |      [0]: "LMT" time_zone_designation 0x304-0x307.7 (4)
0x300|                        2d 30 32 00            |        -02.    |      [1]: "-02" time_zone_designation 0x308-0x30b.7 (4)
0x300|                                    2d 30 33 00|            -03.|      [2]: "-03" time_zone_designation 0x30c-0x30f.7 (4)
     |                                               |                |    leap_second_records[0:27]: 0x310-0x453.7 (324)
     |                                               |                |      [0]{}: leap_second_record 0x310-0x31b.7 (12)
0x310|00 00 00 00 04 b2 58 00                        |......X.        |        occur: "1972-07-01T00:00:00Z" (78796800) 0x310-0x317.7 (8)
0x310|                        00 00 00 01            |        ....    |        corr: 1 0x318-0x31b.7 (4)
     |                                               |                |      [1]{}: leap_second_record 0x31c-0x327.7 (12)
0x310|                                    00 00 00 00|            ....|        occur: "1973-01-01T00:00:01Z" (94694401) 0x31c-0x323.7 (8)
0x320|05 a4 ec 01                                    |....            |
0x320|            00 00 00 02                        |    ....        |        corr: 2 0x324-0x327.7 (4)
     |                                               |                |      [2]{}: leap_second_record 0x328-0x333.7 (12)
0x320|                        00 00 00 00 07 86 1f 82|        ........|        occur: "1974-01-01T00:00:02Z" (126230402) 0x328-0x32f.7 (8)
0x330|00 00 00 03                                    |....            |        corr: 3 0x330-0x333.7 (4)
     |                                               |                |      [3]{}: leap_second_record 0x334-0x33f.7 (12)
0x330|            00 00 00 00 09 67 53 03            |    .....gS.    |        occur: "1975-01-01T00:00:03Z" (157766403) 0x334-0x33b.7 (8)
0x330|                                    00 00 00 04|            ....|        corr: 4 0x33c-0x33f.7 (4)
     |                                               |                |      [4]{}: leap_second_record 0x340-0x34b.7 (12)
0x340|00 00 00 00 0b 48 86 84                        |.....H..        |        occur: "1976-01-01T00:00:04Z" (189302404) 0x340-0x347.7 (8)
0x340|                        00 00 00 05            |        ....    |        corr: 5 0x348-0x34b.7 (4)
     |                                               |                |      [5]{}: leap_second_record 0x34c-0x357.7 (12)
0x340|                                    00 00 00 00|            ....|        occur: "1977-01-01T00:00:05Z" (220924805) 0x34c-0x353.7 (8)
0x350|0d 2b 0b 85                                    |.+..            |
0x350|            00 00 00 06                        |    ....        |        corr: 6 0x354-0x357.7 (4)
     |                                               |                |      [6]{}: leap_second_record 0x358-0x363.7 (12)
0x350|                        00 00 00 00 0f 0c 3f 06|        ......?.|        occur: "1978-01-01T00:00:06Z" (252460806) 0x358-0x35f.7 (8)
0x360|00 00 00 07                                    |....            |        corr: 7 0x360-0x363.7 (4)
     |                                               |                |      [7]{}: leap_second_record 0x364-0x36f.7 (12)
0x360|            00 00 00 00 10 ed 72 87            |    ......r.    |        occur: "1979-01-01T00:00:07Z" (283996807) 0x364-0x36b.7 (8)
0x360|                                    00 00 00 08|            ....|        corr: 8 0x36c-0x36f.7 (4)
     |                                               |                |      [8]{}: leap_second_record 0x370-0x37b.7 (12)
0x370|00 00 00 00 12 ce a6 08                        |........        |        occur: "1980-01-01T00:00:08Z" (315532808) 0x370-0x377.7 (8)
0x370|                        00 00 00 09            |        ....    |        corr: 9 0x378-0x37b.7 (4)
     |                                               |                |      [9]{}: leap_second_record 0x37c-0x387.7 (12)
0x370|                                    00 00 00 00|            ....|        occur: "1981-07-01T00:00:09Z" (362793609) 0x37c-0x383.7 (8)
0x380|15 9f ca 89                                    |....            |
0x380|            00 00 00 0a                        |    ....        |        corr: 10 0x384-0x387.7 (4)
     |                                               |                |      [10]{}: leap_second_record 0x388-0x393.7 (12)
0x380|                        00 00 00 00 17 80 fe 0a|        ........|        occur: "1982-07-01T00:00:10Z" (394329610) 0x388-0x38f.7 (8)
0x390|00 00 00 0b                                    |....            |        corr: 11 0x390-0x393.7 (4)
     |                                               |                |      [11]{}: leap_second_record 0x394-0x39f.7 (12)
0x390|            00 00 00 00 19 62 31 8b            |    .....b1.    |        occur: "1983-07-01T00:00:11Z" (425865611) 0x394-0x39b.7 (8)
0x390|                                    00 00 00 0c|            ....|        corr: 12 0x39c-0x39f.7 (4)
     |                                               |                |      [12]{}: leap_second_record 0x3a0-0x3ab.7 (12)
0x3a0|00 00 00 00 1d 25 ea 0c                        |.....%..        |        occur: "1985-07-01T00:00:12Z" (489024012) 0x3a0-0x3a7.7 (8)
0x3a0|                        00 00 00 0d            |        ....    |        corr: 13 0x3a8-0x3ab.7 (4)
     |                                               |                |      [13]{}: leap_second_record 0x3ac-0x3b7.7 (12)
0x3a0|                                    00 00 00 00|            ....|        occur: "1988-01-01T00:00:13Z" (567993613) 0x3ac-0x3b3.7 (8)
0x3b0|21 da e5 0d                                    |!...            |
0x3b0|            00 00 00 0e                        |    ....        |        corr: 14 0x3b4-0x3b7.7 (4)
     |                                               |                |      [14]{}: leap_second_record 0x3b8-0x3c3.7 (12)
0x3b0|                        00 00 00 00 25 9e 9d 8e|        ....%...|        occur: "1990-01-01T00:00:14Z" (631152014) 0x3b8-0x3bf.7 (8)
0x3c0|00 00 00 0f                                    |....            |        corr: 15 0x3c0-0x3c3.7 (4)
     |                                               |                |      [15]{}: leap_second_record 0x3c4-0x3cf.7 (12)
0x3c0|            00 00 00 00 27 7f d1 0f            |    ....'...    |        occur: "1991-01-01T00:00:15Z" (662688015) 0x3c4-0x3cb.7 (8)
0x3c0|                                    00 00 00 10|            ....|        corr: 16 0x3cc-0x3cf.7 (4)
     |                                               |                |      [16]{}: leap_second_record 0x3d0-0x3db.7 (12)
0x3d0|00 00 00 00 2a 50 f5 90                        |....*P..        |        occur: "1992-07-01T00:00:16Z" (709948816) 0x3d0-0x3d7.7 (8)
0x3d0|                        00 00 00 11            |        ....    |        corr: 17 0x3d8-0x3db.7 (4)
     |                                               |                |      [17]{}: leap_second_record 0x3dc-0x3e7.7 (12)
0x3d0|                                    00 00 00 00|            ....|        occur: "1993-07-01T00:00:17Z" (741484817) 0x3dc-0x3e3.7 (8)
0x3e0|2c 32 29 11                                    |,2).            |
0x3e0|            00 00 00 12                        |    ....        |        corr: 18 0x3e4-0x3e7.7 (4)
     |                                               |                |      [18]{}: leap_second_record 0x3e8-0x3f3.7 (12)
0x3e0|                        00 00 00 00 2e 13 5c 92|        ......\.|        occur: "1994-07-01T00:00:18Z" (773020818) 0x3e8-0x3ef.7 (8)
0x3f0|00 00 00 13                                    |....            |        corr: 19 0x3f0-0x3f3.7 (4)
     |                                               |                |      [19]{}: leap_second_record 0x3f4-0x3ff.7 (12)
0x3f0|            00 00 00 00 30 e7 24 13            |    ....0.$.    |        occur: "1996-01-01T00:00:19Z" (820454419) 0x3f4-0x3fb.7 (8)
0x3f0|                                    00 00 00 14|            ....|        corr: 20 0x3fc-0x3ff.7 (4)
     |                                               |                |      [20]{}: leap_second_record 0x400-0x40b.7 (12)
0x400|00 00 00 00 33 b8 48 94                        |....3.H.        |        occur: "1997-07-01T00:00:20Z" (867715220) 0x400-0x407.7 (8)
0x400|                        00 00 00 15            |        ....    |        corr: 21 0x408-0x40b.7 (4)
     |                                               |                |      [21]{}: leap_second_record 0x40c-0x417.7 (12)
0x400|                                    00 00 00 00|            ....|        occur: "1999-01-01T00:00:21Z" (915148821) 0x40c-0x413.7 (8)
0x410|36 8c 10 15                                    |6...            |
0x410|            00 00 00 16                        |    ....        |        corr: 22 0x414-0x417.7 (4)
     |                                               |                |      [22]{}: leap_second_record 0x418-0x423.7 (12)
0x410|                        00 00 00 00 43 b7 1b 96|        ....C...|        occur: "2006-01-01T00:00:22Z" (1136073622) 0x418-0x41f.7 (8)
0x420|00 00 00 17                                    |....            |        corr: 23 0x420-0x423.7 (4)
     |                                               |                |      [23]{}: leap_second_record 0x424-0x42f.7 (12)
0x420|            00 00 00 00 49 5c 07 97            |    ....I\..    |        occur: "2009-01-01T00:00:23Z" (1230768023) 0x424-0x42b.7 (8)
0x420|                                    00 00 00 18|            ....|        corr: 24 0x42c-0x42f.7 (4)
     |                                               |                |      [24]{}: leap_second_record 0x430-0x43b.7 (12)
0x430|00 00 00 00 4f ef 93 18                        |....O...        |        occur: "2012-07-01T00:00:24Z" (1341100824) 0x430-0x437.7 (8)
0x430|                        00 00 00 19            |        ....    |        corr: 25 0x438-0x43b.7 (4)
     |                                               |                |      [25]{}: leap_second_record 0x43c-0x447.7 (12)
0x430|                                    00 00 00 00|            ....|        occur: "2015-07-01T00:00:25Z" (1435708825) 0x43c-0x443.7 (8)
0x440|55 93 2d 99                                    |U.-.            |
0x440|            00 00 00 1a                        |    ....        |        corr: 26 0x444-0x447.7 (4)
     |                                               |                |      [26]{}: leap_second_record 0x448-0x453.7 (12)
0x440|                        00 00 00 00 58 68 46 9a|        ....XhF.|        occur: "2017-01-01T00:00:26Z" (1483228826) 0x448-0x44f.7 (8)
0x450|00 00 00 1b                                    |....            |        corr: 27 0x450-0x453.7 (4)
     |                                               |                |    standard_wall_indicators[0:0]: 0x454-NA (0)
     |                                               |                |    ut_local_indicators[0:0]: 0x454-NA (0)
     |                                               |                |  footer{}: 0x454-0x455.7 (2)
0x450|            0a                                 |    .           |    nl1: 10 (valid) 0x454-0x454.7 (1)
     |                                               |                |    tz_string: "" 0x455-NA (0)
0x450|               0a|                             |     .|         |    nl2: 10 (valid) 0x455-0x455.7 (1)
