$ fq -d tzif dv Belgrade
     |00 01 02 03 04 05 06 07 08 09 0a 0b 0c 0d 0e 0f|0123456789abcdef|.{}: Belgrade (tzif) 0x0-0x780 (1920)
     |                                               |                |  v1header{}: 0x0-0x2c (44)
0x000|54 5a 69 66                                    |TZif            |    magic: 0x545a6966 (valid) 0x0-0x4 (4)
0x000|            32                                 |    2           |    ver: "2" (0x32) (valid) 0x4-0x5 (1)
0x000|               00 00 00 00 00 00 00 00 00 00 00|     ...........|    reserved: raw bits 0x5-0x14 (15)
0x010|00 00 00 00                                    |....            |
0x010|            00 00 00 07                        |    ....        |    isutcnt: 7 0x14-0x18 (4)
0x010|                        00 00 00 07            |        ....    |    isstdcnt: 7 0x18-0x1c (4)
0x010|                                    00 00 00 00|            ....|    leapcnt: 0 0x1c-0x20 (4)
0x020|00 00 00 77                                    |...w            |    timecnt: 119 0x20-0x24 (4)
0x020|            00 00 00 07                        |    ....        |    typecnt: 7 0x24-0x28 (4)
0x020|                        00 00 00 0d            |        ....    |    charcnt: 13 0x28-0x2c (4)
     |                                               |                |  v1datablock{}: 0x2c-0x2c4 (664)
     |                                               |                |    transition_times[0:119]: 0x2c-0x208 (476)
0x020|                                    80 00 00 00|            ....|      [0]: "1901-12-13T20:45:52Z" (-2147483648) transition_time 0x2c-0x30 (4)
0x030|ca 02 35 e0                                    |..5.            |      [1]: "1941-04-18T22:00:00Z" (-905824800) transition_time 0x30-0x34 (4)
0x030|            cc e7 4b 10                        |    ..K.        |      [2]: "1942-11-02T01:00:00Z" (-857257200) transition_time 0x34-0x38 (4)
0x030|                        cd a9 17 90            |        ....    |      [3]: "1943-03-29T01:00:00Z" (-844556400) transition_time 0x38-0x3c (4)
0x030|                                    ce a2 43 10|            ..C.|      [4]: "1943-10-04T01:00:00Z" (-828226800) transition_time 0x3c-0x40 (4)
0x040|cf 92 34 10                                    |..4.            |      [5]: "1944-04-03T01:00:00Z" (-812502000) transition_time 0x40-0x44 (4)
0x040|            d0 82 25 10                        |    ..%.        |      [6]: "1944-10-02T01:00:00Z" (-796777200) transition_time 0x44-0x48 (4)
0x040|                        d1 a1 8c 10            |        ....    |      [7]: "1945-05-08T01:00:00Z" (-777942000) transition_time 0x48-0x4c (4)
0x040|                                    d2 4e 40 90|            .N@.|      [8]: "1945-09-16T01:00:00Z" (-766623600) transition_time 0x4c-0x50 (4)
0x050|18 e3 af 90                                    |....            |      [9]: "1983-03-27T01:00:00Z" (417574800) transition_time 0x50-0x54 (4)
0x050|            19 d3 a0 90                        |    ....        |      [10]: "1983-09-25T01:00:00Z" (433299600) transition_time 0x54-0x58 (4)
0x050|                        1a c3 91 90            |        ....    |      [11]: "1984-03-25T01:00:00Z" (449024400) transition_time 0x58-0x5c (4)
0x050|                                    1b bc bd 10|            ....|      [12]: "1984-09-30T01:00:00Z" (465354000) transition_time 0x5c-0x60 (4)
0x060|1c ac ae 10                                    |....            |      [13]: "1985-03-31T01:00:00Z" (481078800) transition_time 0x60-0x64 (4)
0x060|            1d 9c 9f 10                        |    ....        |      [14]: "1985-09-29T01:00:00Z" (496803600) transition_time 0x64-0x68 (4)
0x060|                        1e 8c 90 10            |        ....    |      [15]: "1986-03-30T01:00:00Z" (512528400) transition_time 0x68-0x6c (4)
0x060|                                    1f 7c 81 10|            .|..|      [16]: "1986-09-28T01:00:00Z" (528253200) transition_time 0x6c-0x70 (4)
0x070|20 6c 72 10                                    | lr.            |      [17]: "1987-03-29T01:00:00Z" (543978000) transition_time 0x70-0x74 (4)
0x070|            21 5c 63 10                        |    !\c.        |      [18]: "1987-09-27T01:00:00Z" (559702800) transition_time 0x74-0x78 (4)
0x070|                        22 4c 54 10            |        "LT.    |      [19]: "1988-03-27T01:00:00Z" (575427600) transition_time 0x78-0x7c (4)
0x070|                                    23 3c 45 10|            #<E.|      [20]: "1988-09-25T01:00:00Z" (591152400) transition_time 0x7c-0x80 (4)
0x080|24 2c 36 10                                    |$,6.            |      [21]: "1989-03-26T01:00:00Z" (606877200) transition_time 0x80-0x84 (4)
0x080|            25 1c 27 10                        |    %.'.        |      [22]: "1989-09-24T01:00:00Z" (622602000) transition_time 0x84-0x88 (4)
0x080|                        26 0c 18 10            |        &...    |      [23]: "1990-03-25T01:00:00Z" (638326800) transition_time 0x88-0x8c (4)
0x080|                                    27 05 43 90|            '.C.|      [24]: "1990-09-30T01:00:00Z" (654656400) transition_time 0x8c-0x90 (4)
0x090|27 f5 34 90                                    |'.4.            |      [25]: "1991-03-31T01:00:00Z" (670381200) transition_time 0x90-0x94 (4)
0x090|            28 e5 25 90                        |    (.%.        |      [26]: "1991-09-29T01:00:00Z" (686106000) transition_time 0x94-0x98 (4)
0x090|                        29 d5 16 90            |        )...    |      [27]: "1992-03-29T01:00:00Z" (701830800) transition_time 0x98-0x9c (4)
0x090|                                    2a c5 07 90|            *...|      [28]: "1992-09-27T01:00:00Z" (717555600) transition_time 0x9c-0xa0 (4)
0x0a0|2b b4 f8 90                                    |+...            |      [29]: "1993-03-28T01:00:00Z" (733280400) transition_time 0xa0-0xa4 (4)
0x0a0|            2c a4 e9 90                        |    ,...        |      [30]: "1993-09-26T01:00:00Z" (749005200) transition_time 0xa4-0xa8 (4)
0x0a0|                        2d 94 da 90            |        -...    |      [31]: "1994-03-27T01:00:00Z" (764730000) transition_time 0xa8-0xac (4)
0x0a0|                                    2e 84 cb 90|            ....|      [32]: "1994-09-25T01:00:00Z" (780454800) transition_time 0xac-0xb0 (4)
0x0b0|2f 74 bc 90                                    |/t..            |      [33]: "1995-03-26T01:00:00Z" (796179600) transition_time 0xb0-0xb4 (4)
0x0b0|            30 64 ad 90                        |    0d..        |      [34]: "1995-09-24T01:00:00Z" (811904400) transition_time 0xb4-0xb8 (4)
0x0b0|                        31 5d d9 10            |        1]..    |      [35]: "1996-03-31T01:00:00Z" (828234000) transition_time 0xb8-0xbc (4)
0x0b0|                                    32 72 b4 10|            2r..|      [36]: "1996-10-27T01:00:00Z" (846378000) transition_time 0xbc-0xc0 (4)
0x0c0|33 3d bb 10                                    |3=..            |      [37]: "1997-03-30T01:00:00Z" (859683600) transition_time 0xc0-0xc4 (4)
0x0c0|            34 52 96 10                        |    4R..        |      [38]: "1997-10-26T01:00:00Z" (877827600) transition_time 0xc4-0xc8 (4)
0x0c0|                        35 1d 9d 10            |        5...    |      [39]: "1998-03-29T01:00:00Z" (891133200) transition_time 0xc8-0xcc (4)
0x0c0|                                    36 32 78 10|            62x.|      [40]: "1998-10-25T01:00:00Z" (909277200) transition_time 0xcc-0xd0 (4)
0x0d0|36 fd 7f 10                                    |6...            |      [41]: "1999-03-28T01:00:00Z" (922582800) transition_time 0xd0-0xd4 (4)
0x0d0|            38 1b 94 90                        |    8...        |      [42]: "1999-10-31T01:00:00Z" (941331600) transition_time 0xd4-0xd8 (4)
0x0d0|                        38 dd 61 10            |        8.a.    |      [43]: "2000-03-26T01:00:00Z" (954032400) transition_time 0xd8-0xdc (4)
0x0d0|                                    39 fb 76 90|            9.v.|      [44]: "2000-10-29T01:00:00Z" (972781200) transition_time 0xdc-0xe0 (4)
0x0e0|3a bd 43 10                                    |:.C.            |      [45]: "2001-03-25T01:00:00Z" (985482000) transition_time 0xe0-0xe4 (4)
0x0e0|            3b db 58 90                        |    ;.X.        |      [46]: "2001-10-28T01:00:00Z" (1004230800) transition_time 0xe4-0xe8 (4)
0x0e0|                        3c a6 5f 90            |        <._.    |      [47]: "2002-03-31T01:00:00Z" (1017536400) transition_time 0xe8-0xec (4)
0x0e0|                                    3d bb 3a 90|            =.:.|      [48]: "2002-10-27T01:00:00Z" (1035680400) transition_time 0xec-0xf0 (4)
0x0f0|3e 86 41 90                                    |>.A.            |      [49]: "2003-03-30T01:00:00Z" (1048986000) transition_time 0xf0-0xf4 (4)
0x0f0|            3f 9b 1c 90                        |    ?...        |      [50]: "2003-10-26T01:00:00Z" (1067130000) transition_time 0xf4-0xf8 (4)
0x0f0|                        40 66 23 90            |        @f#.    |      [51]: "2004-03-28T01:00:00Z" (1080435600) transition_time 0xf8-0xfc (4)
0x0f0|                                    41 84 39 10|            A.9.|      [52]: "2004-10-31T01:00:00Z" (1099184400) transition_time 0xfc-0x100 (4)
0x100|42 46 05 90                                    |BF..            |      [53]: "2005-03-27T01:00:00Z" (1111885200) transition_time 0x100-0x104 (4)
0x100|            43 64 1b 10                        |    Cd..        |      [54]: "2005-10-30T01:00:00Z" (1130634000) transition_time 0x104-0x108 (4)
0x100|                        44 25 e7 90            |        D%..    |      [55]: "2006-03-26T01:00:00Z" (1143334800) transition_time 0x108-0x10c (4)
0x100|                                    45 43 fd 10|            EC..|      [56]: "2006-10-29T01:00:00Z" (1162083600) transition_time 0x10c-0x110 (4)
0x110|46 05 c9 90                                    |F...            |      [57]: "2007-03-25T01:00:00Z" (1174784400) transition_time 0x110-0x114 (4)
0x110|            47 23 df 10                        |    G#..        |      [58]: "2007-10-28T01:00:00Z" (1193533200) transition_time 0x114-0x118 (4)
0x110|                        47 ee e6 10            |        G...    |      [59]: "2008-03-30T01:00:00Z" (1206838800) transition_time 0x118-0x11c (4)
0x110|                                    49 03 c1 10|            I...|      [60]: "2008-10-26T01:00:00Z" (1224982800) transition_time 0x11c-0x120 (4)
0x120|49 ce c8 10                                    |I...            |      [61]: "2009-03-29T01:00:00Z" (1238288400) transition_time 0x120-0x124 (4)
0x120|            4a e3 a3 10                        |    J...        |      [62]: "2009-10-25T01:00:00Z" (1256432400) transition_time 0x124-0x128 (4)
0x120|                        4b ae aa 10            |        K...    |      [63]: "2010-03-28T01:00:00Z" (1269738000) transition_time 0x128-0x12c (4)
0x120|                                    4c cc bf 90|            L...|      [64]: "2010-10-31T01:00:00Z" (1288486800) transition_time 0x12c-0x130 (4)
0x130|4d 8e 8c 10                                    |M...            |      [65]: "2011-03-27T01:00:00Z" (1301187600) transition_time 0x130-0x134 (4)
0x130|            4e ac a1 90                        |    N...        |      [66]: "2011-10-30T01:00:00Z" (1319936400) transition_time 0x134-0x138 (4)
0x130|                        4f 6e 6e 10            |        Onn.    |      [67]: "2012-03-25T01:00:00Z" (1332637200) transition_time 0x138-0x13c (4)
0x130|                                    50 8c 83 90|            P...|      [68]: "2012-10-28T01:00:00Z" (1351386000) transition_time 0x13c-0x140 (4)
0x140|51 57 8a 90                                    |QW..            |      [69]: "2013-03-31T01:00:00Z" (1364691600) transition_time 0x140-0x144 (4)
0x140|            52 6c 65 90                        |    Rle.        |      [70]: "2013-10-27T01:00:00Z" (1382835600) transition_time 0x144-0x148 (4)
0x140|                        53 37 6c 90            |        S7l.    |      [71]: "2014-03-30T01:00:00Z" (1396141200) transition_time 0x148-0x14c (4)
0x140|                                    54 4c 47 90|            TLG.|      [72]: "2014-10-26T01:00:00Z" (1414285200) transition_time 0x14c-0x150 (4)
0x150|55 17 4e 90                                    |U.N.            |      [73]: "2015-03-29T01:00:00Z" (1427590800) transition_time 0x150-0x154 (4)
0x150|            56 2c 29 90                        |    V,).        |      [74]: "2015-10-25T01:00:00Z" (1445734800) transition_time 0x154-0x158 (4)
0x150|                        56 f7 30 90            |        V.0.    |      [75]: "2016-03-27T01:00:00Z" (1459040400) transition_time 0x158-0x15c (4)
0x150|                                    58 15 46 10|            X.F.|      [76]: "2016-10-30T01:00:00Z" (1477789200) transition_time 0x15c-0x160 (4)
0x160|58 d7 12 90                                    |X...            |      [77]: "2017-03-26T01:00:00Z" (1490490000) transition_time 0x160-0x164 (4)
0x160|            59 f5 28 10                        |    Y.(.        |      [78]: "2017-10-29T01:00:00Z" (1509238800) transition_time 0x164-0x168 (4)
0x160|                        5a b6 f4 90            |        Z...    |      [79]: "2018-03-25T01:00:00Z" (1521939600) transition_time 0x168-0x16c (4)
0x160|                                    5b d5 0a 10|            [...|      [80]: "2018-10-28T01:00:00Z" (1540688400) transition_time 0x16c-0x170 (4)
0x170|5c a0 11 10                                    |\...            |      [81]: "2019-03-31T01:00:00Z" (1553994000) transition_time 0x170-0x174 (4)
0x170|            5d b4 ec 10                        |    ]...        |      [82]: "2019-10-27T01:00:00Z" (1572138000) transition_time 0x174-0x178 (4)
0x170|                        5e 7f f3 10            |        ^...    |      [83]: "2020-03-29T01:00:00Z" (1585443600) transition_time 0x178-0x17c (4)
0x170|                                    5f 94 ce 10|            _...|      [84]: "2020-10-25T01:00:00Z" (1603587600) transition_time 0x17c-0x180 (4)
0x180|60 5f d5 10                                    |`_..            |      [85]: "2021-03-28T01:00:00Z" (1616893200) transition_time 0x180-0x184 (4)
0x180|            61 7d ea 90                        |    a}..        |      [86]: "2021-10-31T01:00:00Z" (1635642000) transition_time 0x184-0x188 (4)
0x180|                        62 3f b7 10            |        b?..    |      [87]: "2022-03-27T01:00:00Z" (1648342800) transition_time 0x188-0x18c (4)
0x180|                                    63 5d cc 90|            c]..|      [88]: "2022-10-30T01:00:00Z" (1667091600) transition_time 0x18c-0x190 (4)
0x190|64 1f 99 10                                    |d...            |      [89]: "2023-03-26T01:00:00Z" (1679792400) transition_time 0x190-0x194 (4)
0x190|            65 3d ae 90                        |    e=..        |      [90]: "2023-10-29T01:00:00Z" (1698541200) transition_time 0x194-0x198 (4)
0x190|                        66 08 b5 90            |        f...    |      [91]: "2024-03-31T01:00:00Z" (1711846800) transition_time 0x198-0x19c (4)
0x190|                                    67 1d 90 90|            g...|      [92]: "2024-10-27T01:00:00Z" (1729990800) transition_time 0x19c-0x1a0 (4)
0x1a0|67 e8 97 90                                    |g...            |      [93]: "2025-03-30T01:00:00Z" (1743296400) transition_time 0x1a0-0x1a4 (4)
0x1a0|            68 fd 72 90                        |    h.r.        |      [94]: "2025-10-26T01:00:00Z" (1761440400) transition_time 0x1a4-0x1a8 (4)
0x1a0|                        69 c8 79 90            |        i.y.    |      [95]: "2026-03-29T01:00:00Z" (1774746000) transition_time 0x1a8-0x1ac (4)
0x1a0|                                    6a dd 54 90|            j.T.|      [96]: "2026-10-25T01:00:00Z" (1792890000) transition_time 0x1ac-0x1b0 (4)
0x1b0|6b a8 5b 90                                    |k.[.            |      [97]: "2027-03-28T01:00:00Z" (1806195600) transition_time 0x1b0-0x1b4 (4)
0x1b0|            6c c6 71 10                        |    l.q.        |      [98]: "2027-10-31T01:00:00Z" (1824944400) transition_time 0x1b4-0x1b8 (4)
0x1b0|                        6d 88 3d 90            |        m.=.    |      [99]: "2028-03-26T01:00:00Z" (1837645200) transition_time 0x1b8-0x1bc (4)
0x1b0|                                    6e a6 53 10|            n.S.|      [100]: "2028-10-29T01:00:00Z" (1856394000) transition_time 0x1bc-0x1c0 (4)
0x1c0|6f 68 1f 90                                    |oh..            |      [101]: "2029-03-25T01:00:00Z" (1869094800) transition_time 0x1c0-0x1c4 (4)
0x1c0|            70 86 35 10                        |    p.5.        |      [102]: "2029-10-28T01:00:00Z" (1887843600) transition_time 0x1c4-0x1c8 (4)
0x1c0|                        71 51 3c 10            |        qQ<.    |      [103]: "2030-03-31T01:00:00Z" (1901149200) transition_time 0x1c8-0x1cc (4)
0x1c0|                                    72 66 17 10|            rf..|      [104]: "2030-10-27T01:00:00Z" (1919293200) transition_time 0x1cc-0x1d0 (4)
0x1d0|73 31 1e 10                                    |s1..            |      [105]: "2031-03-30T01:00:00Z" (1932598800) transition_time 0x1d0-0x1d4 (4)
0x1d0|            74 45 f9 10                        |    tE..        |      [106]: "2031-10-26T01:00:00Z" (1950742800) transition_time 0x1d4-0x1d8 (4)
0x1d0|                        75 11 00 10            |        u...    |      [107]: "2032-03-28T01:00:00Z" (1964048400) transition_time 0x1d8-0x1dc (4)
0x1d0|                                    76 2f 15 90|            v/..|      [108]: "2032-10-31T01:00:00Z" (1982797200) transition_time 0x1dc-0x1e0 (4)
0x1e0|76 f0 e2 10                                    |v...            |      [109]: "2033-03-27T01:00:00Z" (1995498000) transition_time 0x1e0-0x1e4 (4)
0x1e0|            78 0e f7 90                        |    x...        |      [110]: "2033-10-30T01:00:00Z" (2014246800) transition_time 0x1e4-0x1e8 (4)
0x1e0|                        78 d0 c4 10            |        x...    |      [111]: "2034-03-26T01:00:00Z" (2026947600) transition_time 0x1e8-0x1ec (4)
0x1e0|                                    79 ee d9 90|            y...|      [112]: "2034-10-29T01:00:00Z" (2045696400) transition_time 0x1ec-0x1f0 (4)
0x1f0|7a b0 a6 10                                    |z...            |      [113]: "2035-03-25T01:00:00Z" (2058397200) transition_time 0x1f0-0x1f4 (4)
0x1f0|            7b ce bb 90                        |    {...        |      [114]: "2035-10-28T01:00:00Z" (2077146000) transition_time 0x1f4-0x1f8 (4)
0x1f0|                        7c 99 c2 90            |        |...    |      [115]: "2036-03-30T01:00:00Z" (2090451600) transition_time 0x1f8-0x1fc (4)
0x1f0|                                    7d ae 9d 90|            }...|      [116]: "2036-10-26T01:00:00Z" (2108595600) transition_time 0x1fc-0x200 (4)
0x200|7e 79 a4 90                                    |~y..            |      [117]: "2037-03-29T01:00:00Z" (2121901200) transition_time 0x200-0x204 (4)
0x200|            7f 8e 7f 90                        |    ....        |      [118]: "2037-10-25T01:00:00Z" (2140045200) transition_time 0x204-0x208 (4)
     |                                               |                |    transition_types[0:119]: 0x208-0x27f (119)
0x200|                        01                     |        .       |      [0]: 1 transition_type 0x208-0x209 (1)
0x200|                           04                  |         .      |      [1]: 4 transition_type 0x209-0x20a (1)
0x200|                              02               |          .     |      [2]: 2 transition_type 0x20a-0x20b (1)
0x200|                                 03            |           .    |      [3]: 3 transition_type 0x20b-0x20c (1)
0x200|                                    02         |            .   |      [4]: 2 transition_type 0x20c-0x20d (1)
0x200|                                       03      |             .  |      [5]: 3 transition_type 0x20d-0x20e (1)
0x200|                                          02   |              . |      [6]: 2 transition_type 0x20e-0x20f (1)
0x200|                                             03|               .|      [7]: 3 transition_type 0x20f-0x210 (1)
0x210|02                                             |.               |      [8]: 2 transition_type 0x210-0x211 (1)
0x210|   05                                          | .              |      [9]: 5 transition_type 0x211-0x212 (1)
0x210|      06                                       |  .             |      [10]: 6 transition_type 0x212-0x213 (1)
0x210|         05                                    |   .            |      [11]: 5 transition_type 0x213-0x214 (1)
0x210|            06                                 |    .           |      [12]: 6 transition_type 0x214-0x215 (1)
0x210|               05                              |     .          |      [13]: 5 transition_type 0x215-0x216 (1)
0x210|                  06                           |      .         |      [14]: 6 transition_type 0x216-0x217 (1)
0x210|                     05                        |       .        |      [15]: 5 transition_type 0x217-0x218 (1)
0x210|                        06                     |        .       |      [16]: 6 transition_type 0x218-0x219 (1)
0x210|                           05                  |         .      |      [17]: 5 transition_type 0x219-0x21a (1)
0x210|                              06               |          .     |      [18]: 6 transition_type 0x21a-0x21b (1)
0x210|                                 05            |           .    |      [19]: 5 transition_type 0x21b-0x21c (1)
0x210|                                    06         |            .   |      [20]: 6 transition_type 0x21c-0x21d (1)
0x210|                                       05      |             .  |      [21]: 5 transition_type 0x21d-0x21e (1)
0x210|                                          06   |              . |      [22]: 6 transition_type 0x21e-0x21f (1)
0x210|                                             05|               .|      [23]: 5 transition_type 0x21f-0x220 (1)
0x220|06                                             |.               |      [24]: 6 transition_type 0x220-0x221 (1)
0x220|   05                                          | .              |      [25]: 5 transition_type 0x221-0x222 (1)
0x220|      06                                       |  .             |      [26]: 6 transition_type 0x222-0x223 (1)
0x220|         05                                    |   .            |      [27]: 5 transition_type 0x223-0x224 (1)
0x220|            06                                 |    .           |      [28]: 6 transition_type 0x224-0x225 (1)
0x220|               05                              |     .          |      [29]: 5 transition_type 0x225-0x226 (1)
0x220|                  06                           |      .         |      [30]: 6 transition_type 0x226-0x227 (1)
0x220|                     05                        |       .        |      [31]: 5 transition_type 0x227-0x228 (1)
0x220|                        06                     |        .       |      [32]: 6 transition_type 0x228-0x229 (1)
0x220|                           05                  |         .      |      [33]: 5 transition_type 0x229-0x22a (1)
0x220|                              06               |          .     |      [34]: 6 transition_type 0x22a-0x22b (1)
0x220|                                 05            |           .    |      [35]: 5 transition_type 0x22b-0x22c (1)
0x220|                                    06         |            .   |      [36]: 6 transition_type 0x22c-0x22d (1)
0x220|                                       05      |             .  |      [37]: 5 transition_type 0x22d-0x22e (1)
0x220|                                          06   |              . |      [38]: 6 transition_type 0x22e-0x22f (1)
0x220|                                             05|               .|      [39]: 5 transition_type 0x22f-0x230 (1)
0x230|06                                             |.               |      [40]: 6 transition_type 0x230-0x231 (1)
0x230|   05                                          | .              |      [41]: 5 transition_type 0x231-0x232 (1)
0x230|      06                                       |  .             |      [42]: 6 transition_type 0x232-0x233 (1)
0x230|         05                                    |   .            |      [43]: 5 transition_type 0x233-0x234 (1)
0x230|            06                                 |    .           |      [44]: 6 transition_type 0x234-0x235 (1)
0x230|               05                              |     .          |      [45]: 5 transition_type 0x235-0x236 (1)
0x230|                  06                           |      .         |      [46]: 6 transition_type 0x236-0x237 (1)
0x230|                     05                        |       .        |      [47]: 5 transition_type 0x237-0x238 (1)
0x230|                        06                     |        .       |      [48]: 6 transition_type 0x238-0x239 (1)
0x230|                           05                  |         .      |      [49]: 5 transition_type 0x239-0x23a (1)
0x230|                              06               |          .     |      [50]: 6 transition_type 0x23a-0x23b (1)
0x230|                                 05            |           .    |      [51]: 5 transition_type 0x23b-0x23c (1)
0x230|                                    06         |            .   |      [52]: 6 transition_type 0x23c-0x23d (1)
0x230|                                       05      |             .  |      [53]: 5 transition_type 0x23d-0x23e (1)
0x230|                                          06   |              . |      [54]: 6 transition_type 0x23e-0x23f (1)
0x230|                                             05|               .|      [55]: 5 transition_type 0x23f-0x240 (1)
0x240|06                                             |.               |      [56]: 6 transition_type 0x240-0x241 (1)
0x240|   05                                          | .              |      [57]: 5 transition_type 0x241-0x242 (1)
0x240|      06                                       |  .             |      [58]: 6 transition_type 0x242-0x243 (1)
0x240|         05                                    |   .            |      [59]: 5 transition_type 0x243-0x244 (1)
0x240|            06                                 |    .           |      [60]: 6 transition_type 0x244-0x245 (1)
0x240|               05                              |     .          |      [61]: 5 transition_type 0x245-0x246 (1)
0x240|                  06                           |      .         |      [62]: 6 transition_type 0x246-0x247 (1)
0x240|                     05                        |       .        |      [63]: 5 transition_type 0x247-0x248 (1)
0x240|                        06                     |        .       |      [64]: 6 transition_type 0x248-0x249 (1)
0x240|                           05                  |         .      |      [65]: 5 transition_type 0x249-0x24a (1)
0x240|                              06               |          .     |      [66]: 6 transition_type 0x24a-0x24b (1)
0x240|                                 05            |           .    |      [67]: 5 transition_type 0x24b-0x24c (1)
0x240|                                    06         |            .   |      [68]: 6 transition_type 0x24c-0x24d (1)
0x240|                                       05      |             .  |      [69]: 5 transition_type 0x24d-0x24e (1)
0x240|                                          06   |              . |      [70]: 6 transition_type 0x24e-0x24f (1)
0x240|                                             05|               .|      [71]: 5 transition_type 0x24f-0x250 (1)
0x250|06                                             |.               |      [72]: 6 transition_type 0x250-0x251 (1)
0x250|   05                                          | .              |      [73]: 5 transition_type 0x251-0x252 (1)
0x250|      06                                       |  .             |      [74]: 6 transition_type 0x252-0x253 (1)
0x250|         05                                    |   .            |      [75]: 5 transition_type 0x253-0x254 (1)
0x250|            06                                 |    .           |      [76]: 6 transition_type 0x254-0x255 (1)
0x250|               05                              |     .          |      [77]: 5 transition_type 0x255-0x256 (1)
0x250|                  06                           |      .         |      [78]: 6 transition_type 0x256-0x257 (1)
0x250|                     05                        |       .        |      [79]: 5 transition_type 0x257-0x258 (1)
0x250|                        06                     |        .       |      [80]: 6 transition_type 0x258-0x259 (1)
0x250|                           05                  |         .      |      [81]: 5 transition_type 0x259-0x25a (1)
0x250|                              06               |          .     |      [82]: 6 transition_type 0x25a-0x25b (1)
0x250|                                 05            |           .    |      [83]: 5 transition_type 0x25b-0x25c (1)
0x250|                                    06         |            .   |      [84]: 6 transition_type 0x25c-0x25d (1)
0x250|                                       05      |             .  |      [85]: 5 transition_type 0x25d-0x25e (1)
0x250|                                          06   |              . |      [86]: 6 transition_type 0x25e-0x25f (1)
0x250|                                             05|               .|      [87]: 5 transition_type 0x25f-0x260 (1)
0x260|06                                             |.               |      [88]: 6 transition_type 0x260-0x261 (1)
0x260|   05                                          | .              |      [89]: 5 transition_type 0x261-0x262 (1)
0x260|      06                                       |  .             |      [90]: 6 transition_type 0x262-0x263 (1)
0x260|         05                                    |   .            |      [91]: 5 transition_type 0x263-0x264 (1)
0x260|            06                                 |    .           |      [92]: 6 transition_type 0x264-0x265 (1)
0x260|               05                              |     .          |      [93]: 5 transition_type 0x265-0x266 (1)
0x260|                  06                           |      .         |      [94]: 6 transition_type 0x266-0x267 (1)
0x260|                     05                        |       .        |      [95]: 5 transition_type 0x267-0x268 (1)
0x260|                        06                     |        .       |      [96]: 6 transition_type 0x268-0x269 (1)
0x260|                           05                  |         .      |      [97]: 5 transition_type 0x269-0x26a (1)
0x260|                              06               |          .     |      [98]: 6 transition_type 0x26a-0x26b (1)
0x260|                                 05            |           .    |      [99]: 5 transition_type 0x26b-0x26c (1)
0x260|                                    06         |            .   |      [100]: 6 transition_type 0x26c-0x26d (1)
0x260|                                       05      |             .  |      [101]: 5 transition_type 0x26d-0x26e (1)
0x260|                                          06   |              . |      [102]: 6 transition_type 0x26e-0x26f (1)
0x260|                                             05|               .|      [103]: 5 transition_type 0x26f-0x270 (1)
0x270|06                                             |.               |      [104]: 6 transition_type 0x270-0x271 (1)
0x270|   05                                          | .              |      [105]: 5 transition_type 0x271-0x272 (1)
0x270|      06                                       |  .             |      [106]: 6 transition_type 0x272-0x273 (1)
0x270|         05                                    |   .            |      [107]: 5 transition_type 0x273-0x274 (1)
0x270|            06                                 |    .           |      [108]: 6 transition_type 0x274-0x275 (1)
0x270|               05                              |     .          |      [109]: 5 transition_type 0x275-0x276 (1)
0x270|                  06                           |      .         |      [110]: 6 transition_type 0x276-0x277 (1)
0x270|                     05                        |       .        |      [111]: 5 transition_type 0x277-0x278 (1)
0x270|                        06                     |        .       |      [112]: 6 transition_type 0x278-0x279 (1)
0x270|                           05                  |         .      |      [113]: 5 transition_type 0x279-0x27a (1)
0x270|                              06               |          .     |      [114]: 6 transition_type 0x27a-0x27b (1)
0x270|                                 05            |           .    |      [115]: 5 transition_type 0x27b-0x27c (1)
0x270|                                    06         |            .   |      [116]: 6 transition_type 0x27c-0x27d (1)
0x270|                                       05      |             .  |      [117]: 5 transition_type 0x27d-0x27e (1)
0x270|                                          06   |              . |      [118]: 6 transition_type 0x27e-0x27f (1)
     |                                               |                |    local_time_type_records[0:7]: 0x27f-0x2a9 (42)
     |                                               |                |      [0]{}: local_time_type 0x27f-0x285 (6)
0x270|                                             00|               .|        utoff: 4920 (valid) 0x27f-0x283 (4)
0x280|00 13 38                                       |..8             |
0x280|         00                                    |   .            |        dst: 0 (valid) 0x283-0x284 (1)
0x280|            00                                 |    .           |        idx: 0 (valid) 0x284-0x285 (1)
     |                                               |                |      [1]{}: local_time_type 0x285-0x28b (6)
0x280|               00 00 0e 10                     |     ....       |        utoff: 3600 (valid) 0x285-0x289 (4)
0x280|                           00                  |         .      |        dst: 0 (valid) 0x289-0x28a (1)
0x280|                              04               |          .     |        idx: 4 (valid) 0x28a-0x28b (1)
     |                                               |                |      [2]{}: local_time_type 0x28b-0x291 (6)
0x280|                                 00 00 0e 10   |           .... |        utoff: 3600 (valid) 0x28b-0x28f (4)
0x280|                                             00|               .|        dst: 0 (valid) 0x28f-0x290 (1)
0x290|04                                             |.               |        idx: 4 (valid) 0x290-0x291 (1)
     |                                               |                |      [3]{}: local_time_type 0x291-0x297 (6)
0x290|   00 00 1c 20                                 | ...            |        utoff: 7200 (valid) 0x291-0x295 (4)
0x290|               01                              |     .          |        dst: 1 (valid) 0x295-0x296 (1)
0x290|                  08                           |      .         |        idx: 8 (valid) 0x296-0x297 (1)
     |                                               |                |      [4]{}: local_time_type 0x297-0x29d (6)
0x290|                     00 00 1c 20               |       ...      |        utoff: 7200 (valid) 0x297-0x29b (4)
0x290|                                 01            |           .    |        dst: 1 (valid) 0x29b-0x29c (1)
0x290|                                    08         |            .   |        idx: 8 (valid) 0x29c-0x29d (1)
     |                                               |                |      [5]{}: local_time_type 0x29d-0x2a3 (6)
0x290|                                       00 00 1c|             ...|        utoff: 7200 (valid) 0x29d-0x2a1 (4)
0x2a0|20                                             |                |
0x2a0|   01                                          | .              |        dst: 1 (valid) 0x2a1-0x2a2 (1)
0x2a0|      08                                       |  .             |        idx: 8 (valid) 0x2a2-0x2a3 (1)
     |                                               |                |      [6]{}: local_time_type 0x2a3-0x2a9 (6)
0x2a0|         00 00 0e 10                           |   ....         |        utoff: 3600 (valid) 0x2a3-0x2a7 (4)
0x2a0|                     00                        |       .        |        dst: 0 (valid) 0x2a7-0x2a8 (1)
0x2a0|                        04                     |        .       |        idx: 4 (valid) 0x2a8-0x2a9 (1)
     |                                               |                |    time_zone_designations[0:3]: 0x2a9-0x2b6 (13)
0x2a0|                           4c 4d 54 00         |         LMT.   |      [0]: "LMT" time_zone_designation 0x2a9-0x2ad (4)
0x2a0|                                       43 45 54|             CET|      [1]: "CET" time_zone_designation 0x2ad-0x2b1 (4)
0x2b0|00                                             |.               |
0x2b0|   43 45 53 54 00                              | CEST.          |      [2]: "CEST" time_zone_designation 0x2b1-0x2b6 (5)
     |                                               |                |    leap_second_records[0:0]: 0x2b6-0x2b6 (0)
     |                                               |                |    standard_wall_indicators[0:7]: 0x2b6-0x2bd (7)
0x2b0|                  00                           |      .         |      [0]: 0 standard_wall_indicator (valid) 0x2b6-0x2b7 (1)
0x2b0|                     00                        |       .        |      [1]: 0 standard_wall_indicator (valid) 0x2b7-0x2b8 (1)
0x2b0|                        01                     |        .       |      [2]: 1 standard_wall_indicator (valid) 0x2b8-0x2b9 (1)
0x2b0|                           01                  |         .      |      [3]: 1 standard_wall_indicator (valid) 0x2b9-0x2ba (1)
0x2b0|                              00               |          .     |      [4]: 0 standard_wall_indicator (valid) 0x2ba-0x2bb (1)
0x2b0|                                 01            |           .    |      [5]: 1 standard_wall_indicator (valid) 0x2bb-0x2bc (1)
0x2b0|                                    01         |            .   |      [6]: 1 standard_wall_indicator (valid) 0x2bc-0x2bd (1)
     |                                               |                |    ut_local_indicators[0:7]: 0x2bd-0x2c4 (7)
0x2b0|                                       00      |             .  |      [0]: 0 ut_local_indicator (valid) 0x2bd-0x2be (1)
0x2b0|                                          00   |              . |      [1]: 0 ut_local_indicator (valid) 0x2be-0x2bf (1)
0x2b0|                                             00|               .|      [2]: 0 ut_local_indicator (valid) 0x2bf-0x2c0 (1)
0x2c0|00                                             |.               |      [3]: 0 ut_local_indicator (valid) 0x2c0-0x2c1 (1)
0x2c0|   00                                          | .              |      [4]: 0 ut_local_indicator (valid) 0x2c1-0x2c2 (1)
0x2c0|      01                                       |  .             |      [5]: 1 ut_local_indicator (valid) 0x2c2-0x2c3 (1)
0x2c0|         01                                    |   .            |      [6]: 1 ut_local_indicator (valid) 0x2c3-0x2c4 (1)
     |                                               |                |  v2plusheader{}: 0x2c4-0x2f0 (44)
0x2c0|            54 5a 69 66                        |    TZif        |    magic: 0x545a6966 (valid) 0x2c4-0x2c8 (4)
0x2c0|                        32                     |        2       |    ver: "2" (0x32) (valid) 0x2c8-0x2c9 (1)
0x2c0|                           00 00 00 00 00 00 00|         .......|    reserved: raw bits 0x2c9-0x2d8 (15)
0x2d0|00 00 00 00 00 00 00 00                        |........        |
0x2d0|                        00 00 00 07            |        ....    |    isutcnt: 7 0x2d8-0x2dc (4)
0x2d0|                                    00 00 00 07|            ....|    isstdcnt: 7 0x2dc-0x2e0 (4)
0x2e0|00 00 00 00                                    |....            |    leapcnt: 0 0x2e0-0x2e4 (4)
0x2e0|            00 00 00 77                        |    ...w        |    timecnt: 119 0x2e4-0x2e8 (4)
0x2e0|                        00 00 00 07            |        ....    |    typecnt: 7 0x2e8-0x2ec (4)
0x2e0|                                    00 00 00 0d|            ....|    charcnt: 13 0x2ec-0x2f0 (4)
     |                                               |                |  v2plusdatablock{}: 0x2f0-0x764 (1140)
     |                                               |                |    transition_times[0:119]: 0x2f0-0x6a8 (952)
0x2f0|ff ff ff ff 5e 3c f0 48                        |....^<.H        |      [0]: "1883-12-31T22:38:00Z" (-2713915320) transition_time 0x2f0-0x2f8 (8)
0x2f0|                        ff ff ff ff ca 02 35 e0|        ......5.|      [1]: "1941-04-18T22:00:00Z" (-905824800) transition_time 0x2f8-0x300 (8)
0x300|ff ff ff ff cc e7 4b 10                        |......K.        |      [2]: "1942-11-02T01:00:00Z" (-857257200) transition_time 0x300-0x308 (8)
0x300|                        ff ff ff ff cd a9 17 90|        ........|      [3]: "1943-03-29T01:00:00Z" (-844556400) transition_time 0x308-0x310 (8)
0x310|ff ff ff ff ce a2 43 10                        |......C.        |      [4]: "1943-10-04T01:00:00Z" (-828226800) transition_time 0x310-0x318 (8)
0x310|                        ff ff ff ff cf 92 34 10|        ......4.|      [5]: "1944-04-03T01:00:00Z" (-812502000) transition_time 0x318-0x320 (8)
0x320|ff ff ff ff d0 82 25 10                        |......%.        |      [6]: "1944-10-02T01:00:00Z" (-796777200) transition_time 0x320-0x328 (8)
0x320|                        ff ff ff ff d1 a1 8c 10|        ........|      [7]: "1945-05-08T01:00:00Z" (-777942000) transition_time 0x328-0x330 (8)
0x330|ff ff ff ff d2 4e 40 90                        |.....N@.        |      [8]: "1945-09-16T01:00:00Z" (-766623600) transition_time 0x330-0x338 (8)
0x330|                        00 00 00 00 18 e3 af 90|        ........|      [9]: "1983-03-27T01:00:00Z" (417574800) transition_time 0x338-0x340 (8)
0x340|00 00 00 00 19 d3 a0 90                        |........        |      [10]: "1983-09-25T01:00:00Z" (433299600) transition_time 0x340-0x348 (8)
0x340|                        00 00 00 00 1a c3 91 90|        ........|      [11]: "1984-03-25T01:00:00Z" (449024400) transition_time 0x348-0x350 (8)
0x350|00 00 00 00 1b bc bd 10                        |........        |      [12]: "1984-09-30T01:00:00Z" (465354000) transition_time 0x350-0x358 (8)
0x350|                        00 00 00 00 1c ac ae 10|        ........|      [13]: "1985-03-31T01:00:00Z" (481078800) transition_time 0x358-0x360 (8)
0x360|00 00 00 00 1d 9c 9f 10                        |........        |      [14]: "1985-09-29T01:00:00Z" (496803600) transition_time 0x360-0x368 (8)
0x360|                        00 00 00 00 1e 8c 90 10|        ........|      [15]: "1986-03-30T01:00:00Z" (512528400) transition_time 0x368-0x370 (8)
0x370|00 00 00 00 1f 7c 81 10                        |.....|..        |      [16]: "1986-09-28T01:00:00Z" (528253200) transition_time 0x370-0x378 (8)
0x370|                        00 00 00 00 20 6c 72 10|        .... lr.|      [17]: "1987-03-29T01:00:00Z" (543978000) transition_time 0x378-0x380 (8)
0x380|00 00 00 00 21 5c 63 10                        |....!\c.        |      [18]: "1987-09-27T01:00:00Z" (559702800) transition_time 0x380-0x388 (8)
0x380|                        00 00 00 00 22 4c 54 10|        ...."LT.|      [19]: "1988-03-27T01:00:00Z" (575427600) transition_time 0x388-0x390 (8)
0x390|00 00 00 00 23 3c 45 10                        |....#<E.        |      [20]: "1988-09-25T01:00:00Z" (591152400) transition_time 0x390-0x398 (8)
0x390|                        00 00 00 00 24 2c 36 10|        ....$,6.|      [21]: "1989-03-26T01:00:00Z" (606877200) transition_time 0x398-0x3a0 (8)
0x3a0|00 00 00 00 25 1c 27 10                        |....%.'.        |      [22]: "1989-09-24T01:00:00Z" (622602000) transition_time 0x3a0-0x3a8 (8)
0x3a0|                        00 00 00 00 26 0c 18 10|        ....&...|      [23]: "1990-03-25T01:00:00Z" (638326800) transition_time 0x3a8-0x3b0 (8)
0x3b0|00 00 00 00 27 05 43 90                        |....'.C.        |      [24]: "1990-09-30T01:00:00Z" (654656400) transition_time 0x3b0-0x3b8 (8)
0x3b0|                        00 00 00 00 27 f5 34 90|        ....'.4.|      [25]: "1991-03-31T01:00:00Z" (670381200) transition_time 0x3b8-0x3c0 (8)
0x3c0|00 00 00 00 28 e5 25 90                        |....(.%.        |      [26]: "1991-09-29T01:00:00Z" (686106000) transition_time 0x3c0-0x3c8 (8)
0x3c0|                        00 00 00 00 29 d5 16 90|        ....)...|      [27]: "1992-03-29T01:00:00Z" (701830800) transition_time 0x3c8-0x3d0 (8)
0x3d0|00 00 00 00 2a c5 07 90                        |....*...        |      [28]: "1992-09-27T01:00:00Z" (717555600) transition_time 0x3d0-0x3d8 (8)
0x3d0|                        00 00 00 00 2b b4 f8 90|        ....+...|      [29]: "1993-03-28T01:00:00Z" (733280400) transition_time 0x3d8-0x3e0 (8)
0x3e0|00 00 00 00 2c a4 e9 90                        |....,...        |      [30]: "1993-09-26T01:00:00Z" (749005200) transition_time 0x3e0-0x3e8 (8)
0x3e0|                        00 00 00 00 2d 94 da 90|        ....-...|      [31]: "1994-03-27T01:00:00Z" (764730000) transition_time 0x3e8-0x3f0 (8)
0x3f0|00 00 00 00 2e 84 cb 90                        |........        |      [32]: "1994-09-25T01:00:00Z" (780454800) transition_time 0x3f0-0x3f8 (8)
0x3f0|                        00 00 00 00 2f 74 bc 90|        ..../t..|      [33]: "1995-03-26T01:00:00Z" (796179600) transition_time 0x3f8-0x400 (8)
0x400|00 00 00 00 30 64 ad 90                        |....0d..        |      [34]: "1995-09-24T01:00:00Z" (811904400) transition_time 0x400-0x408 (8)
0x400|                        00 00 00 00 31 5d d9 10|        ....1]..|      [35]: "1996-03-31T01:00:00Z" (828234000) transition_time 0x408-0x410 (8)
0x410|00 00 00 00 32 72 b4 10                        |....2r..        |      [36]: "1996-10-27T01:00:00Z" (846378000) transition_time 0x410-0x418 (8)
0x410|                        00 00 00 00 33 3d bb 10|        ....3=..|      [37]: "1997-03-30T01:00:00Z" (859683600) transition_time 0x418-0x420 (8)
0x420|00 00 00 00 34 52 96 10                        |....4R..        |      [38]: "1997-10-26T01:00:00Z" (877827600) transition_time 0x420-0x428 (8)
0x420|                        00 00 00 00 35 1d 9d 10|        ....5...|      [39]: "1998-03-29T01:00:00Z" (891133200) transition_time 0x428-0x430 (8)
0x430|00 00 00 00 36 32 78 10                        |....62x.        |      [40]: "1998-10-25T01:00:00Z" (909277200) transition_time 0x430-0x438 (8)
0x430|                        00 00 00 00 36 fd 7f 10|        ....6...|      [41]: "1999-03-28T01:00:00Z" (922582800) transition_time 0x438-0x440 (8)
0x440|00 00 00 00 38 1b 94 90                        |....8...        |      [42]: "1999-10-31T01:00:00Z" (941331600) transition_time 0x440-0x448 (8)
0x440|                        00 00 00 00 38 dd 61 10|        ....8.a.|      [43]: "2000-03-26T01:00:00Z" (954032400) transition_time 0x448-0x450 (8)
0x450|00 00 00 00 39 fb 76 90                        |....9.v.        |      [44]: "2000-10-29T01:00:00Z" (972781200) transition_time 0x450-0x458 (8)
0x450|                        00 00 00 00 3a bd 43 10|        ....:.C.|      [45]: "2001-03-25T01:00:00Z" (985482000) transition_time 0x458-0x460 (8)
0x460|00 00 00 00 3b db 58 90                        |....;.X.        |      [46]: "2001-10-28T01:00:00Z" (1004230800) transition_time 0x460-0x468 (8)
0x460|                        00 00 00 00 3c a6 5f 90|        ....<._.|      [47]: "2002-03-31T01:00:00Z" (1017536400) transition_time 0x468-0x470 (8)
0x470|00 00 00 00 3d bb 3a 90                        |....=.:.        |      [48]: "2002-10-27T01:00:00Z" (1035680400) transition_time 0x470-0x478 (8)
0x470|                        00 00 00 00 3e 86 41 90|        ....>.A.|      [49]: "2003-03-30T01:00:00Z" (1048986000) transition_time 0x478-0x480 (8)
0x480|00 00 00 00 3f 9b 1c 90                        |....?...        |      [50]: "2003-10-26T01:00:00Z" (1067130000) transition_time 0x480-0x488 (8)
0x480|                        00 00 00 00 40 66 23 90|        ....@f#.|      [51]: "2004-03-28T01:00:00Z" (1080435600) transition_time 0x488-0x490 (8)
0x490|00 00 00 00 41 84 39 10                        |....A.9.        |      [52]: "2004-10-31T01:00:00Z" (1099184400) transition_time 0x490-0x498 (8)
0x490|                        00 00 00 00 42 46 05 90|        ....BF..|      [53]: "2005-03-27T01:00:00Z" (1111885200) transition_time 0x498-0x4a0 (8)
0x4a0|00 00 00 00 43 64 1b 10                        |....Cd..        |      [54]: "2005-10-30T01:00:00Z" (1130634000) transition_time 0x4a0-0x4a8 (8)
0x4a0|                        00 00 00 00 44 25 e7 90|        ....D%..|      [55]: "2006-03-26T01:00:00Z" (1143334800) transition_time 0x4a8-0x4b0 (8)
0x4b0|00 00 00 00 45 43 fd 10                        |....EC..        |      [56]: "2006-10-29T01:00:00Z" (1162083600) transition_time 0x4b0-0x4b8 (8)
0x4b0|                        00 00 00 00 46 05 c9 90|        ....F...|      [57]: "2007-03-25T01:00:00Z" (1174784400) transition_time 0x4b8-0x4c0 (8)
0x4c0|00 00 00 00 47 23 df 10                        |....G#..        |      [58]: "2007-10-28T01:00:00Z" (1193533200) transition_time 0x4c0-0x4c8 (8)
0x4c0|                        00 00 00 00 47 ee e6 10|        ....G...|      [59]: "2008-03-30T01:00:00Z" (1206838800) transition_time 0x4c8-0x4d0 (8)
0x4d0|00 00 00 00 49 03 c1 10                        |....I...        |      [60]: "2008-10-26T01:00:00Z" (1224982800) transition_time 0x4d0-0x4d8 (8)
0x4d0|                        00 00 00 00 49 ce c8 10|        ....I...|      [61]: "2009-03-29T01:00:00Z" (1238288400) transition_time 0x4d8-0x4e0 (8)
0x4e0|00 00 00 00 4a e3 a3 10                        |....J...        |      [62]: "2009-10-25T01:00:00Z" (1256432400) transition_time 0x4e0-0x4e8 (8)
0x4e0|                        00 00 00 00 4b ae aa 10|        ....K...|      [63]: "2010-03-28T01:00:00Z" (1269738000) transition_time 0x4e8-0x4f0 (8)
0x4f0|00 00 00 00 4c cc bf 90                        |....L...        |      [64]: "2010-10-31T01:00:00Z" (1288486800) transition_time 0x4f0-0x4f8 (8)
0x4f0|                        00 00 00 00 4d 8e 8c 10|        ....M...|      [65]: "2011-03-27T01:00:00Z" (1301187600) transition_time 0x4f8-0x500 (8)
0x500|00 00 00 00 4e ac a1 90                        |....N...        |      [66]: "2011-10-30T01:00:00Z" (1319936400) transition_time 0x500-0x508 (8)
0x500|                        00 00 00 00 4f 6e 6e 10|        ....Onn.|      [67]: "2012-03-25T01:00:00Z" (1332637200) transition_time 0x508-0x510 (8)
0x510|00 00 00 00 50 8c 83 90                        |....P...        |      [68]: "2012-10-28T01:00:00Z" (1351386000) transition_time 0x510-0x518 (8)
0x510|                        00 00 00 00 51 57 8a 90|        ....QW..|      [69]: "2013-03-31T01:00:00Z" (1364691600) transition_time 0x518-0x520 (8)
0x520|00 00 00 00 52 6c 65 90                        |....Rle.        |      [70]: "2013-10-27T01:00:00Z" (1382835600) transition_time 0x520-0x528 (8)
0x520|                        00 00 00 00 53 37 6c 90|        ....S7l.|      [71]: "2014-03-30T01:00:00Z" (1396141200) transition_time 0x528-0x530 (8)
0x530|00 00 00 00 54 4c 47 90                        |....TLG.        |      [72]: "2014-10-26T01:00:00Z" (1414285200) transition_time 0x530-0x538 (8)
0x530|                        00 00 00 00 55 17 4e 90|        ....U.N.|      [73]: "2015-03-29T01:00:00Z" (1427590800) transition_time 0x538-0x540 (8)
0x540|00 00 00 00 56 2c 29 90                        |....V,).        |      [74]: "2015-10-25T01:00:00Z" (1445734800) transition_time 0x540-0x548 (8)
0x540|                        00 00 00 00 56 f7 30 90|        ....V.0.|      [75]: "2016-03-27T01:00:00Z" (1459040400) transition_time 0x548-0x550 (8)
0x550|00 00 00 00 58 15 46 10                        |....X.F.        |      [76]: "2016-10-30T01:00:00Z" (1477789200) transition_time 0x550-0x558 (8)
0x550|                        00 00 00 00 58 d7 12 90|        ....X...|      [77]: "2017-03-26T01:00:00Z" (1490490000) transition_time 0x558-0x560 (8)
0x560|00 00 00 00 59 f5 28 10                        |....Y.(.        |      [78]: "2017-10-29T01:00:00Z" (1509238800) transition_time 0x560-0x568 (8)
0x560|                        00 00 00 00 5a b6 f4 90|        ....Z...|      [79]: "2018-03-25T01:00:00Z" (1521939600) transition_time 0x568-0x570 (8)
0x570|00 00 00 00 5b d5 0a 10                        |....[...        |      [80]: "2018-10-28T01:00:00Z" (1540688400) transition_time 0x570-0x578 (8)
0x570|                        00 00 00 00 5c a0 11 10|        ....\...|      [81]: "2019-03-31T01:00:00Z" (1553994000) transition_time 0x578-0x580 (8)
0x580|00 00 00 00 5d b4 ec 10                        |....]...        |      [82]: "2019-10-27T01:00:00Z" (1572138000) transition_time 0x580-0x588 (8)
0x580|                        00 00 00 00 5e 7f f3 10|        ....^...|      [83]: "2020-03-29T01:00:00Z" (1585443600) transition_time 0x588-0x590 (8)
0x590|00 00 00 00 5f 94 ce 10                        |...._...        |      [84]: "2020-10-25T01:00:00Z" (1603587600) transition_time 0x590-0x598 (8)
0x590|                        00 00 00 00 60 5f d5 10|        ....`_..|      [85]: "2021-03-28T01:00:00Z" (1616893200) transition_time 0x598-0x5a0 (8)
0x5a0|00 00 00 00 61 7d ea 90                        |....a}..        |      [86]: "2021-10-31T01:00:00Z" (1635642000) transition_time 0x5a0-0x5a8 (8)
0x5a0|                        00 00 00 00 62 3f b7 10|        ....b?..|      [87]: "2022-03-27T01:00:00Z" (1648342800) transition_time 0x5a8-0x5b0 (8)
0x5b0|00 00 00 00 63 5d cc 90                        |....c]..        |      [88]: "2022-10-30T01:00:00Z" (1667091600) transition_time 0x5b0-0x5b8 (8)
0x5b0|                        00 00 00 00 64 1f 99 10|        ....d...|      [89]: "2023-03-26T01:00:00Z" (1679792400) transition_time 0x5b8-0x5c0 (8)
0x5c0|00 00 00 00 65 3d ae 90                        |....e=..        |      [90]: "2023-10-29T01:00:00Z" (1698541200) transition_time 0x5c0-0x5c8 (8)
0x5c0|                        00 00 00 00 66 08 b5 90|        ....f...|      [91]: "2024-03-31T01:00:00Z" (1711846800) transition_time 0x5c8-0x5d0 (8)
0x5d0|00 00 00 00 67 1d 90 90                        |....g...        |      [92]: "2024-10-27T01:00:00Z" (1729990800) transition_time 0x5d0-0x5d8 (8)
0x5d0|                        00 00 00 00 67 e8 97 90|        ....g...|      [93]: "2025-03-30T01:00:00Z" (1743296400) transition_time 0x5d8-0x5e0 (8)
0x5e0|00 00 00 00 68 fd 72 90                        |....h.r.        |      [94]: "2025-10-26T01:00:00Z" (1761440400) transition_time 0x5e0-0x5e8 (8)
0x5e0|                        00 00 00 00 69 c8 79 90|        ....i.y.|      [95]: "2026-03-29T01:00:00Z" (1774746000) transition_time 0x5e8-0x5f0 (8)
0x5f0|00 00 00 00 6a dd 54 90                        |....j.T.        |      [96]: "2026-10-25T01:00:00Z" (1792890000) transition_time 0x5f0-0x5f8 (8)
0x5f0|                        00 00 00 00 6b a8 5b 90|        ....k.[.|      [97]: "2027-03-28T01:00:00Z" (1806195600) transition_time 0x5f8-0x600 (8)
0x600|00 00 00 00 6c c6 71 10                        |....l.q.        |      [98]: "2027-10-31T01:00:00Z" (1824944400) transition_time 0x600-0x608 (8)
0x600|                        00 00 00 00 6d 88 3d 90|        ....m.=.|      [99]: "2028-03-26T01:00:00Z" (1837645200) transition_time 0x608-0x610 (8)
0x610|00 00 00 00 6e a6 53 10                        |....n.S.        |      [100]: "2028-10-29T01:00:00Z" (1856394000) transition_time 0x610-0x618 (8)
0x610|                        00 00 00 00 6f 68 1f 90|        ....oh..|      [101]: "2029-03-25T01:00:00Z" (1869094800) transition_time 0x618-0x620 (8)
0x620|00 00 00 00 70 86 35 10                        |....p.5.        |      [102]: "2029-10-28T01:00:00Z" (1887843600) transition_time 0x620-0x628 (8)
0x620|                        00 00 00 00 71 51 3c 10|        ....qQ<.|      [103]: "2030-03-31T01:00:00Z" (1901149200) transition_time 0x628-0x630 (8)
0x630|00 00 00 00 72 66 17 10                        |....rf..        |      [104]: "2030-10-27T01:00:00Z" (1919293200) transition_time 0x630-0x638 (8)
0x630|                        00 00 00 00 73 31 1e 10|        ....s1..|      [105]: "2031-03-30T01:00:00Z" (1932598800) transition_time 0x638-0x640 (8)
0x640|00 00 00 00 74 45 f9 10                        |....tE..        |      [106]: "2031-10-26T01:00:00Z" (1950742800) transition_time 0x640-0x648 (8)
0x640|                        00 00 00 00 75 11 00 10|        ....u...|      [107]: "2032-03-28T01:00:00Z" (1964048400) transition_time 0x648-0x650 (8)
0x650|00 00 00 00 76 2f 15 90                        |....v/..        |      [108]: "2032-10-31T01:00:00Z" (1982797200) transition_time 0x650-0x658 (8)
0x650|                        00 00 00 00 76 f0 e2 10|        ....v...|      [109]: "2033-03-27T01:00:00Z" (1995498000) transition_time 0x658-0x660 (8)
0x660|00 00 00 00 78 0e f7 90                        |....x...        |      [110]: "2033-10-30T01:00:00Z" (2014246800) transition_time 0x660-0x668 (8)
0x660|                        00 00 00 00 78 d0 c4 10|        ....x...|      [111]: "2034-03-26T01:00:00Z" (2026947600) transition_time 0x668-0x670 (8)
0x670|00 00 00 00 79 ee d9 90                        |....y...        |      [112]: "2034-10-29T01:00:00Z" (2045696400) transition_time 0x670-0x678 (8)
0x670|                        00 00 00 00 7a b0 a6 10|        ....z...|      [113]: "2035-03-25T01:00:00Z" (2058397200) transition_time 0x678-0x680 (8)
0x680|00 00 00 00 7b ce bb 90                        |....{...        |      [114]: "2035-10-28T01:00:00Z" (2077146000) transition_time 0x680-0x688 (8)
0x680|                        00 00 00 00 7c 99 c2 90|        ....|...|      [115]: "2036-03-30T01:00:00Z" (2090451600) transition_time 0x688-0x690 (8)
0x690|00 00 00 00 7d ae 9d 90                        |....}...        |      [116]: "2036-10-26T01:00:00Z" (2108595600) transition_time 0x690-0x698 (8)
0x690|                        00 00 00 00 7e 79 a4 90|        ....~y..|      [117]: "2037-03-29T01:00:00Z" (2121901200) transition_time 0x698-0x6a0 (8)
0x6a0|00 00 00 00 7f 8e 7f 90                        |........        |      [118]: "2037-10-25T01:00:00Z" (2140045200) transition_time 0x6a0-0x6a8 (8)
     |                                               |                |    transition_types[0:119]: 0x6a8-0x71f (119)
0x6a0|                        01                     |        .       |      [0]: 1 transition_type 0x6a8-0x6a9 (1)
0x6a0|                           04                  |         .      |      [1]: 4 transition_type 0x6a9-0x6aa (1)
0x6a0|                              02               |          .     |      [2]: 2 transition_type 0x6aa-0x6ab (1)
0x6a0|                                 03            |           .    |      [3]: 3 transition_type 0x6ab-0x6ac (1)
0x6a0|                                    02         |            .   |      [4]: 2 transition_type 0x6ac-0x6ad (1)
0x6a0|                                       03      |             .  |      [5]: 3 transition_type 0x6ad-0x6ae (1)
0x6a0|                                          02   |              . |      [6]: 2 transition_type 0x6ae-0x6af (1)
0x6a0|                                             03|               .|      [7]: 3 transition_type 0x6af-0x6b0 (1)
0x6b0|02                                             |.               |      [8]: 2 transition_type 0x6b0-0x6b1 (1)
0x6b0|   05                                          | .              |      [9]: 5 transition_type 0x6b1-0x6b2 (1)
0x6b0|      06                                       |  .             |      [10]: 6 transition_type 0x6b2-0x6b3 (1)
0x6b0|         05                                    |   .            |      [11]: 5 transition_type 0x6b3-0x6b4 (1)
0x6b0|            06                                 |    .           |      [12]: 6 transition_type 0x6b4-0x6b5 (1)
0x6b0|               05                              |     .          |      [13]: 5 transition_type 0x6b5-0x6b6 (1)
0x6b0|                  06                           |      .         |      [14]: 6 transition_type 0x6b6-0x6b7 (1)
0x6b0|                     05                        |       .        |      [15]: 5 transition_type 0x6b7-0x6b8 (1)
0x6b0|                        06                     |        .       |      [16]: 6 transition_type 0x6b8-0x6b9 (1)
0x6b0|                           05                  |         .      |      [17]: 5 transition_type 0x6b9-0x6ba (1)
0x6b0|                              06               |          .     |      [18]: 6 transition_type 0x6ba-0x6bb (1)
0x6b0|                                 05            |           .    |      [19]: 5 transition_type 0x6bb-0x6bc (1)
0x6b0|                                    06         |            .   |      [20]: 6 transition_type 0x6bc-0x6bd (1)
0x6b0|                                       05      |             .  |      [21]: 5 transition_type 0x6bd-0x6be (1)
0x6b0|                                          06   |              . |      [22]: 6 transition_type 0x6be-0x6bf (1)
0x6b0|                                             05|               .|      [23]: 5 transition_type 0x6bf-0x6c0 (1)
0x6c0|06                                             |.               |      [24]: 6 transition_type 0x6c0-0x6c1 (1)
0x6c0|   05                                          | .              |      [25]: 5 transition_type 0x6c1-0x6c2 (1)
0x6c0|      06                                       |  .             |      [26]: 6 transition_type 0x6c2-0x6c3 (1)
0x6c0|         05                                    |   .            |      [27]: 5 transition_type 0x6c3-0x6c4 (1)
0x6c0|            06                                 |    .           |      [28]: 6 transition_type 0x6c4-0x6c5 (1)
0x6c0|               05                              |     .          |      [29]: 5 transition_type 0x6c5-0x6c6 (1)
0x6c0|                  06                           |      .         |      [30]: 6 transition_type 0x6c6-0x6c7 (1)
0x6c0|                     05                        |       .        |      [31]: 5 transition_type 0x6c7-0x6c8 (1)
0x6c0|                        06                     |        .       |      [32]: 6 transition_type 0x6c8-0x6c9 (1)
0x6c0|                           05                  |         .      |      [33]: 5 transition_type 0x6c9-0x6ca (1)
0x6c0|                              06               |          .     |      [34]: 6 transition_type 0x6ca-0x6cb (1)
0x6c0|                                 05            |           .    |      [35]: 5 transition_type 0x6cb-0x6cc (1)
0x6c0|                                    06         |            .   |      [36]: 6 transition_type 0x6cc-0x6cd (1)
0x6c0|                                       05      |             .  |      [37]: 5 transition_type 0x6cd-0x6ce (1)
0x6c0|                                          06   |              . |      [38]: 6 transition_type 0x6ce-0x6cf (1)
0x6c0|                                             05|               .|      [39]: 5 transition_type 0x6cf-0x6d0 (1)
0x6d0|06                                             |.               |      [40]: 6 transition_type 0x6d0-0x6d1 (1)
0x6d0|   05                                          | .              |      [41]: 5 transition_type 0x6d1-0x6d2 (1)
0x6d0|      06                                       |  .             |      [42]: 6 transition_type 0x6d2-0x6d3 (1)
0x6d0|         05                                    |   .            |      [43]: 5 transition_type 0x6d3-0x6d4 (1)
0x6d0|            06                                 |    .           |      [44]: 6 transition_type 0x6d4-0x6d5 (1)
0x6d0|               05                              |     .          |      [45]: 5 transition_type 0x6d5-0x6d6 (1)
0x6d0|                  06                           |      .         |      [46]: 6 transition_type 0x6d6-0x6d7 (1)
0x6d0|                     05                        |       .        |      [47]: 5 transition_type 0x6d7-0x6d8 (1)
0x6d0|                        06                     |        .       |      [48]: 6 transition_type 0x6d8-0x6d9 (1)
0x6d0|                           05                  |         .      |      [49]: 5 transition_type 0x6d9-0x6da (1)
0x6d0|                              06               |          .     |      [50]: 6 transition_type 0x6da-0x6db (1)
0x6d0|                                 05            |           .    |      [51]: 5 transition_type 0x6db-0x6dc (1)
0x6d0|                                    06         |            .   |      [52]: 6 transition_type 0x6dc-0x6dd (1)
0x6d0|                                       05      |             .  |      [53]: 5 transition_type 0x6dd-0x6de (1)
0x6d0|                                          06   |              . |      [54]: 6 transition_type 0x6de-0x6df (1)
0x6d0|                                             05|               .|      [55]: 5 transition_type 0x6df-0x6e0 (1)
0x6e0|06                                             |.               |      [56]: 6 transition_type 0x6e0-0x6e1 (1)
0x6e0|   05                                          | .              |      [57]: 5 transition_type 0x6e1-0x6e2 (1)
0x6e0|      06                                       |  .             |      [58]: 6 transition_type 0x6e2-0x6e3 (1)
0x6e0|         05                                    |   .            |      [59]: 5 transition_type 0x6e3-0x6e4 (1)
0x6e0|            06                                 |    .           |      [60]: 6 transition_type 0x6e4-0x6e5 (1)
0x6e0|               05                              |     .          |      [61]: 5 transition_type 0x6e5-0x6e6 (1)
0x6e0|                  06                           |      .         |      [62]: 6 transition_type 0x6e6-0x6e7 (1)
0x6e0|                     05                        |       .        |      [63]: 5 transition_type 0x6e7-0x6e8 (1)
0x6e0|                        06                     |        .       |      [64]: 6 transition_type 0x6e8-0x6e9 (1)
0x6e0|                           05                  |         .      |      [65]: 5 transition_type 0x6e9-0x6ea (1)
0x6e0|                              06               |          .     |      [66]: 6 transition_type 0x6ea-0x6eb (1)
0x6e0|                                 05            |           .    |      [67]: 5 transition_type 0x6eb-0x6ec (1)
0x6e0|                                    06         |            .   |      [68]: 6 transition_type 0x6ec-0x6ed (1)
0x6e0|                                       05      |             .  |      [69]: 5 transition_type 0x6ed-0x6ee (1)
0x6e0|                                          06   |              . |      [70]: 6 transition_type 0x6ee-0x6ef (1)
0x6e0|                                             05|               .|      [71]: 5 transition_type 0x6ef-0x6f0 (1)
0x6f0|06                                             |.               |      [72]: 6 transition_type 0x6f0-0x6f1 (1)
0x6f0|   05                                          | .              |      [73]: 5 transition_type 0x6f1-0x6f2 (1)
0x6f0|      06                                       |  .             |      [74]: 6 transition_type 0x6f2-0x6f3 (1)
0x6f0|         05                                    |   .            |      [75]: 5 transition_type 0x6f3-0x6f4 (1)
0x6f0|            06                                 |    .           |      [76]: 6 transition_type 0x6f4-0x6f5 (1)
0x6f0|               05                              |     .          |      [77]: 5 transition_type 0x6f5-0x6f6 (1)
0x6f0|                  06                           |      .         |      [78]: 6 transition_type 0x6f6-0x6f7 (1)
0x6f0|                     05                        |       .        |      [79]: 5 transition_type 0x6f7-0x6f8 (1)
0x6f0|                        06                     |        .       |      [80]: 6 transition_type 0x6f8-0x6f9 (1)
0x6f0|                           05                  |         .      |      [81]: 5 transition_type 0x6f9-0x6fa (1)
0x6f0|                              06               |          .     |      [82]: 6 transition_type 0x6fa-0x6fb (1)
0x6f0|                                 05            |           .    |      [83]: 5 transition_type 0x6fb-0x6fc (1)
0x6f0|                                    06         |            .   |      [84]: 6 transition_type 0x6fc-0x6fd (1)
0x6f0|                                       05      |             .  |      [85]: 5 transition_type 0x6fd-0x6fe (1)
0x6f0|                                          06   |              . |      [86]: 6 transition_type 0x6fe-0x6ff (1)
0x6f0|                                             05|               .|      [87]: 5 transition_type 0x6ff-0x700 (1)
0x700|06                                             |.               |      [88]: 6 transition_type 0x700-0x701 (1)
0x700|   05                                          | .              |      [89]: 5 transition_type 0x701-0x702 (1)
0x700|      06                                       |  .             |      [90]: 6 transition_type 0x702-0x703 (1)
0x700|         05                                    |   .            |      [91]: 5 transition_type 0x703-0x704 (1)
0x700|            06                                 |    .           |      [92]: 6 transition_type 0x704-0x705 (1)
0x700|               05                              |     .          |      [93]: 5 transition_type 0x705-0x706 (1)
0x700|                  06                           |      .         |      [94]: 6 transition_type 0x706-0x707 (1)
0x700|                     05                        |       .        |      [95]: 5 transition_type 0x707-0x708 (1)
0x700|                        06                     |        .       |      [96]: 6 transition_type 0x708-0x709 (1)
0x700|                           05                  |         .      |      [97]: 5 transition_type 0x709-0x70a (1)
0x700|                              06               |          .     |      [98]: 6 transition_type 0x70a-0x70b (1)
0x700|                                 05            |           .    |      [99]: 5 transition_type 0x70b-0x70c (1)
0x700|                                    06         |            .   |      [100]: 6 transition_type 0x70c-0x70d (1)
0x700|                                       05      |             .  |      [101]: 5 transition_type 0x70d-0x70e (1)
0x700|                                          06   |              . |      [102]: 6 transition_type 0x70e-0x70f (1)
0x700|                                             05|               .|      [103]: 5 transition_type 0x70f-0x710 (1)
0x710|06                                             |.               |      [104]: 6 transition_type 0x710-0x711 (1)
0x710|   05                                          | .              |      [105]: 5 transition_type 0x711-0x712 (1)
0x710|      06                                       |  .             |      [106]: 6 transition_type 0x712-0x713 (1)
0x710|         05                                    |   .            |      [107]: 5 transition_type 0x713-0x714 (1)
0x710|            06                                 |    .           |      [108]: 6 transition_type 0x714-0x715 (1)
0x710|               05                              |     .          |      [109]: 5 transition_type 0x715-0x716 (1)
0x710|                  06                           |      .         |      [110]: 6 transition_type 0x716-0x717 (1)
0x710|                     05                        |       .        |      [111]: 5 transition_type 0x717-0x718 (1)
0x710|                        06                     |        .       |      [112]: 6 transition_type 0x718-0x719 (1)
0x710|                           05                  |         .      |      [113]: 5 transition_type 0x719-0x71a (1)
0x710|                              06               |          .     |      [114]: 6 transition_type 0x71a-0x71b (1)
0x710|                                 05            |           .    |      [115]: 5 transition_type 0x71b-0x71c (1)
0x710|                                    06         |            .   |      [116]: 6 transition_type 0x71c-0x71d (1)
0x710|                                       05      |             .  |      [117]: 5 transition_type 0x71d-0x71e (1)
0x710|                                          06   |              . |      [118]: 6 transition_type 0x71e-0x71f (1)
     |                                               |                |    local_time_type_records[0:7]: 0x71f-0x749 (42)
     |                                               |                |      [0]{}: local_time_type 0x71f-0x725 (6)
0x710|                                             00|               .|        utoff: 4920 (valid) 0x71f-0x723 (4)
0x720|00 13 38                                       |..8             |
0x720|         00                                    |   .            |        dst: 0 (valid) 0x723-0x724 (1)
0x720|            00                                 |    .           |        idx: 0 (valid) 0x724-0x725 (1)
     |                                               |                |      [1]{}: local_time_type 0x725-0x72b (6)
0x720|               00 00 0e 10                     |     ....       |        utoff: 3600 (valid) 0x725-0x729 (4)
0x720|                           00                  |         .      |        dst: 0 (valid) 0x729-0x72a (1)
0x720|                              04               |          .     |        idx: 4 (valid) 0x72a-0x72b (1)
     |                                               |                |      [2]{}: local_time_type 0x72b-0x731 (6)
0x720|                                 00 00 0e 10   |           .... |        utoff: 3600 (valid) 0x72b-0x72f (4)
0x720|                                             00|               .|        dst: 0 (valid) 0x72f-0x730 (1)
0x730|04                                             |.               |        idx: 4 (valid) 0x730-0x731 (1)
     |                                               |                |      [3]{}: local_time_type 0x731-0x737 (6)
0x730|   00 00 1c 20                                 | ...            |        utoff: 7200 (valid) 0x731-0x735 (4)
0x730|               01                              |     .          |        dst: 1 (valid) 0x735-0x736 (1)
0x730|                  08                           |      .         |        idx: 8 (valid) 0x736-0x737 (1)
     |                                               |                |      [4]{}: local_time_type 0x737-0x73d (6)
0x730|                     00 00 1c 20               |       ...      |        utoff: 7200 (valid) 0x737-0x73b (4)
0x730|                                 01            |           .    |        dst: 1 (valid) 0x73b-0x73c (1)
0x730|                                    08         |            .   |        idx: 8 (valid) 0x73c-0x73d (1)
     |                                               |                |      [5]{}: local_time_type 0x73d-0x743 (6)
0x730|                                       00 00 1c|             ...|        utoff: 7200 (valid) 0x73d-0x741 (4)
0x740|20                                             |                |
0x740|   01                                          | .              |        dst: 1 (valid) 0x741-0x742 (1)
0x740|      08                                       |  .             |        idx: 8 (valid) 0x742-0x743 (1)
     |                                               |                |      [6]{}: local_time_type 0x743-0x749 (6)
0x740|         00 00 0e 10                           |   ....         |        utoff: 3600 (valid) 0x743-0x747 (4)
0x740|                     00                        |       .        |        dst: 0 (valid) 0x747-0x748 (1)
0x740|                        04                     |        .       |        idx: 4 (valid) 0x748-0x749 (1)
     |                                               |                |    time_zone_designations[0:3]: 0x749-0x756 (13)
0x740|                           4c 4d 54 00         |         LMT.   |      [0]: "LMT" time_zone_designation 0x749-0x74d (4)
0x740|                                       43 45 54|             CET|      [1]: "CET" time_zone_designation 0x74d-0x751 (4)
0x750|00                                             |.               |
0x750|   43 45 53 54 00                              | CEST.          |      [2]: "CEST" time_zone_designation 0x751-0x756 (5)
     |                                               |                |    leap_second_records[0:0]: 0x756-0x756 (0)
     |                                               |                |    standard_wall_indicators[0:7]: 0x756-0x75d (7)
0x750|                  00                           |      .         |      [0]: 0 standard_wall_indicator (valid) 0x756-0x757 (1)
0x750|                     00                        |       .        |      [1]: 0 standard_wall_indicator (valid) 0x757-0x758 (1)
0x750|                        01                     |        .       |      [2]: 1 standard_wall_indicator (valid) 0x758-0x759 (1)
0x750|                           01                  |         .      |      [3]: 1 standard_wall_indicator (valid) 0x759-0x75a (1)
0x750|                              00               |          .     |      [4]: 0 standard_wall_indicator (valid) 0x75a-0x75b (1)
0x750|                                 01            |           .    |      [5]: 1 standard_wall_indicator (valid) 0x75b-0x75c (1)
0x750|                                    01         |            .   |      [6]: 1 standard_wall_indicator (valid) 0x75c-0x75d (1)
     |                                               |                |    ut_local_indicators[0:7]: 0x75d-0x764 (7)
0x750|                                       00      |             .  |      [0]: 0 ut_local_indicator (valid) 0x75d-0x75e (1)
0x750|                                          00   |              . |      [1]: 0 ut_local_indicator (valid) 0x75e-0x75f (1)
0x750|                                             00|               .|      [2]: 0 ut_local_indicator (valid) 0x75f-0x760 (1)
0x760|00                                             |.               |      [3]: 0 ut_local_indicator (valid) 0x760-0x761 (1)
0x760|   00                                          | .              |      [4]: 0 ut_local_indicator (valid) 0x761-0x762 (1)
0x760|      01                                       |  .             |      [5]: 1 ut_local_indicator (valid) 0x762-0x763 (1)
0x760|         01                                    |   .            |      [6]: 1 ut_local_indicator (valid) 0x763-0x764 (1)
     |                                               |                |  footer{}: 0x764-0x780 (28)
0x760|            0a                                 |    .           |    nl1: 10 (valid) 0x764-0x765 (1)
0x760|               43 45 54 2d 31 43 45 53 54 2c 4d|     CET-1CEST,M|    tz_string: "CET-1CEST,M3.5.0,M10.5.0/3" 0x765-0x77f (26)
0x770|33 2e 35 2e 30 2c 4d 31 30 2e 35 2e 30 2f 33   |3.5.0,M10.5.0/3 |
0x770|                                             0a|               .|    nl2: 10 (valid) 0x77f-0x780 (1)
