$ fq -d tzif dv Belize
     |00 01 02 03 04 05 06 07 08 09 0a 0b 0c 0d 0e 0f|0123456789abcdef|.{}: Belize (tzif) 0x0-0x873.7 (2164)
     |                                               |                |  v1header{}: 0x0-0x2b.7 (44)
0x000|54 5a 69 66                                    |TZif            |    magic: 0x545a6966 (valid) 0x0-0x3.7 (4)
0x000|            32                                 |    2           |    ver: "2" (0x32) (valid) 0x4-0x4.7 (1)
0x000|               00 00 00 00 00 00 00 00 00 00 00|     ...........|    reserved: raw bits 0x5-0x13.7 (15)
0x010|00 00 00 00                                    |....            |
0x010|            00 00 00 06                        |    ....        |    isutcnt: 6 0x14-0x17.7 (4)
0x010|                        00 00 00 06            |        ....    |    isstdcnt: 6 0x18-0x1b.7 (4)
0x010|                                    00 00 00 1b|            ....|    leapcnt: 27 0x1c-0x1f.7 (4)
0x020|00 00 00 63                                    |...c            |    timecnt: 99 0x20-0x23.7 (4)
0x020|            00 00 00 06                        |    ....        |    typecnt: 6 0x24-0x27.7 (4)
0x020|                        00 00 00 1a            |        ....    |    charcnt: 26 0x28-0x2b.7 (4)
     |                                               |                |  v1datablock{}: 0x2c-0x33c.7 (785)
     |                                               |                |    transition_times[0:99]: 0x2c-0x1b7.7 (396)
0x020|                                    93 5e d9 b0|            .^..|      [0]: "1912-04-01T05:52:48Z" (-1822500432) transition_time 0x2c-0x2f.7 (4)
0x030|9f 9f 3b e0                                    |..;.            |      [1]: "1918-10-06T06:00:00Z" (-1616954400) transition_time 0x30-0x33.7 (4)
0x030|            a0 45 51 d8                        |    .EQ.        |      [2]: "1919-02-09T05:30:00Z" (-1606069800) transition_time 0x34-0x37.7 (4)
0x030|                        a1 7f 1d e0            |        ....    |      [3]: "1919-10-05T06:00:00Z" (-1585504800) transition_time 0x38-0x3b.7 (4)
0x030|                                    a2 2e 6e 58|            ..nX|      [4]: "1920-02-15T05:30:00Z" (-1574015400) transition_time 0x3c-0x3f.7 (4)
0x040|a3 5e ff e0                                    |.^..            |      [5]: "1920-10-03T06:00:00Z" (-1554055200) transition_time 0x40-0x43.7 (4)
0x040|            a4 0e 50 58                        |    ..PX        |      [6]: "1921-02-13T05:30:00Z" (-1542565800) transition_time 0x44-0x47.7 (4)
0x040|                        a5 3e e1 e0            |        .>..    |      [7]: "1921-10-02T06:00:00Z" (-1522605600) transition_time 0x48-0x4b.7 (4)
0x040|                                    a5 ee 32 58|            ..2X|      [8]: "1922-02-12T05:30:00Z" (-1511116200) transition_time 0x4c-0x4f.7 (4)
0x050|a7 27 fe 60                                    |.'.`            |      [9]: "1922-10-08T06:00:00Z" (-1490551200) transition_time 0x50-0x53.7 (4)
0x050|            a7 ce 14 58                        |    ...X        |      [10]: "1923-02-11T05:30:00Z" (-1479666600) transition_time 0x54-0x57.7 (4)
0x050|                        a9 07 e0 60            |        ...`    |      [11]: "1923-10-07T06:00:00Z" (-1459101600) transition_time 0x58-0x5b.7 (4)
0x050|                                    a9 ad f6 58|            ...X|      [12]: "1924-02-10T05:30:00Z" (-1448217000) transition_time 0x5c-0x5f.7 (4)
0x060|aa e7 c2 60                                    |...`            |      [13]: "1924-10-05T06:00:00Z" (-1427652000) transition_time 0x60-0x63.7 (4)
0x060|            ab 97 12 d8                        |    ....        |      [14]: "1925-02-15T05:30:00Z" (-1416162600) transition_time 0x64-0x67.7 (4)
0x060|                        ac c7 a4 60            |        ...`    |      [15]: "1925-10-04T06:00:00Z" (-1396202400) transition_time 0x68-0x6b.7 (4)
0x060|                                    ad 76 f4 d8|            .v..|      [16]: "1926-02-14T05:30:00Z" (-1384713000) transition_time 0x6c-0x6f.7 (4)
0x070|ae a7 86 60                                    |...`            |      [17]: "1926-10-03T06:00:00Z" (-1364752800) transition_time 0x70-0x73.7 (4)
0x070|            af 56 d6 d8                        |    .V..        |      [18]: "1927-02-13T05:30:00Z" (-1353263400) transition_time 0x74-0x77.7 (4)
0x070|                        b0 87 68 60            |        ..h`    |      [19]: "1927-10-02T06:00:00Z" (-1333303200) transition_time 0x78-0x7b.7 (4)
0x070|                                    b1 36 b8 d8|            .6..|      [20]: "1928-02-12T05:30:00Z" (-1321813800) transition_time 0x7c-0x7f.7 (4)
0x080|b2 70 84 e0                                    |.p..            |      [21]: "1928-10-07T06:00:00Z" (-1301248800) transition_time 0x80-0x83.7 (4)
0x080|            b3 16 9a d8                        |    ....        |      [22]: "1929-02-10T05:30:00Z" (-1290364200) transition_time 0x84-0x87.7 (4)
0x080|                        b4 50 66 e0            |        .Pf.    |      [23]: "1929-10-06T06:00:00Z" (-1269799200) transition_time 0x88-0x8b.7 (4)
0x080|                                    b4 f6 7c d8|            ..|.|      [24]: "1930-02-09T05:30:00Z" (-1258914600) transition_time 0x8c-0x8f.7 (4)
0x090|b6 30 48 e0                                    |.0H.            |      [25]: "1930-10-05T06:00:00Z" (-1238349600) transition_time 0x90-0x93.7 (4)
0x090|            b6 df 99 58                        |    ...X        |      [26]: "1931-02-15T05:30:00Z" (-1226860200) transition_time 0x94-0x97.7 (4)
0x090|                        b8 10 2a e0            |        ..*.    |      [27]: "1931-10-04T06:00:00Z" (-1206900000) transition_time 0x98-0x9b.7 (4)
0x090|                                    b8 bf 7b 58|            ..{X|      [28]: "1932-02-14T05:30:00Z" (-1195410600) transition_time 0x9c-0x9f.7 (4)
0x0a0|b9 f0 0c e0                                    |....            |      [29]: "1932-10-02T06:00:00Z" (-1175450400) transition_time 0xa0-0xa3.7 (4)
0x0a0|            ba 9f 5d 58                        |    ..]X        |      [30]: "1933-02-12T05:30:00Z" (-1163961000) transition_time 0xa4-0xa7.7 (4)
0x0a0|                        bb d9 29 60            |        ..)`    |      [31]: "1933-10-08T06:00:00Z" (-1143396000) transition_time 0xa8-0xab.7 (4)
0x0a0|                                    bc 7f 3f 58|            ..?X|      [32]: "1934-02-11T05:30:00Z" (-1132511400) transition_time 0xac-0xaf.7 (4)
0x0b0|bd b9 0b 60                                    |...`            |      [33]: "1934-10-07T06:00:00Z" (-1111946400) transition_time 0xb0-0xb3.7 (4)
0x0b0|            be 5f 21 58                        |    ._!X        |      [34]: "1935-02-10T05:30:00Z" (-1101061800) transition_time 0xb4-0xb7.7 (4)
0x0b0|                        bf 98 ed 60            |        ...`    |      [35]: "1935-10-06T06:00:00Z" (-1080496800) transition_time 0xb8-0xbb.7 (4)
0x0b0|                                    c0 3f 03 58|            .?.X|      [36]: "1936-02-09T05:30:00Z" (-1069612200) transition_time 0xbc-0xbf.7 (4)
0x0c0|c1 78 cf 60                                    |.x.`            |      [37]: "1936-10-04T06:00:00Z" (-1049047200) transition_time 0xc0-0xc3.7 (4)
0x0c0|            c2 28 1f d8                        |    .(..        |      [38]: "1937-02-14T05:30:00Z" (-1037557800) transition_time 0xc4-0xc7.7 (4)
0x0c0|                        c3 58 b1 60            |        .X.`    |      [39]: "1937-10-03T06:00:00Z" (-1017597600) transition_time 0xc8-0xcb.7 (4)
0x0c0|                                    c4 08 01 d8|            ....|      [40]: "1938-02-13T05:30:00Z" (-1006108200) transition_time 0xcc-0xcf.7 (4)
0x0d0|c5 38 93 60                                    |.8.`            |      [41]: "1938-10-02T06:00:00Z" (-986148000) transition_time 0xd0-0xd3.7 (4)
0x0d0|            c5 e7 e3 d8                        |    ....        |      [42]: "1939-02-12T05:30:00Z" (-974658600) transition_time 0xd4-0xd7.7 (4)
0x0d0|                        c7 21 af e0            |        .!..    |      [43]: "1939-10-08T06:00:00Z" (-954093600) transition_time 0xd8-0xdb.7 (4)
0x0d0|                                    c7 c7 c5 d8|            ....|      [44]: "1940-02-11T05:30:00Z" (-943209000) transition_time 0xdc-0xdf.7 (4)
0x0e0|c9 01 91 e0                                    |....            |      [45]: "1940-10-06T06:00:00Z" (-922644000) transition_time 0xe0-0xe3.7 (4)
0x0e0|            c9 a7 a7 d8                        |    ....        |      [46]: "1941-02-09T05:30:00Z" (-911759400) transition_time 0xe4-0xe7.7 (4)
0x0e0|                        ca e1 73 e0            |        ..s.    |      [47]: "1941-10-05T06:00:00Z" (-891194400) transition_time 0xe8-0xeb.7 (4)
0x0e0|                                    cb 90 c4 58|            ...X|      [48]: "1942-02-15T05:30:00Z" (-879705000) transition_time 0xec-0xef.7 (4)
0x0f0|cc 40 22 e0                                    |.@".            |      [49]: "1942-06-28T06:00:00Z" (-868212000) transition_time 0xf0-0xf3.7 (4)
0x0f0|            d2 23 f4 70                        |    .#.p        |      [50]: "1945-08-14T23:00:00Z" (-769395600) transition_time 0xf4-0xf7.7 (4)
0x0f0|                        d2 c6 71 50            |        ..qP    |      [51]: "1945-12-16T05:00:00Z" (-758746800) transition_time 0xf8-0xfb.7 (4)
0x0f0|                                    d6 29 fa 60|            .).`|      [52]: "1947-10-05T06:00:00Z" (-701892000) transition_time 0xfc-0xff.7 (4)
0x100|d6 d9 4a d8                                    |..J.            |      [53]: "1948-02-15T05:30:00Z" (-690402600) transition_time 0x100-0x103.7 (4)
0x100|            d8 09 dc 60                        |    ...`        |      [54]: "1948-10-03T06:00:00Z" (-670442400) transition_time 0x104-0x107.7 (4)
0x100|                        d8 b9 2c d8            |        ..,.    |      [55]: "1949-02-13T05:30:00Z" (-658953000) transition_time 0x108-0x10b.7 (4)
0x100|                                    d9 e9 be 60|            ...`|      [56]: "1949-10-02T06:00:00Z" (-638992800) transition_time 0x10c-0x10f.7 (4)
0x110|da 99 0e d8                                    |....            |      [57]: "1950-02-12T05:30:00Z" (-627503400) transition_time 0x110-0x113.7 (4)
0x110|            db d2 da e0                        |    ....        |      [58]: "1950-10-08T06:00:00Z" (-606938400) transition_time 0x114-0x117.7 (4)
0x110|                        dc 78 f0 d8            |        .x..    |      [59]: "1951-02-11T05:30:00Z" (-596053800) transition_time 0x118-0x11b.7 (4)
0x110|                                    dd b2 bc e0|            ....|      [60]: "1951-10-07T06:00:00Z" (-575488800) transition_time 0x11c-0x11f.7 (4)
0x120|de 58 d2 d8                                    |.X..            |      [61]: "1952-02-10T05:30:00Z" (-564604200) transition_time 0x120-0x123.7 (4)
0x120|            df 92 9e e0                        |    ....        |      [62]: "1952-10-05T06:00:00Z" (-544039200) transition_time 0x124-0x127.7 (4)
0x120|                        e0 41 ef 58            |        .A.X    |      [63]: "1953-02-15T05:30:00Z" (-532549800) transition_time 0x128-0x12b.7 (4)
0x120|                                    e1 72 80 e0|            .r..|      [64]: "1953-10-04T06:00:00Z" (-512589600) transition_time 0x12c-0x12f.7 (4)
0x130|e2 21 d1 58                                    |.!.X            |      [65]: "1954-02-14T05:30:00Z" (-501100200) transition_time 0x130-0x133.7 (4)
0x130|            e3 52 62 e0                        |    .Rb.        |      [66]: "1954-10-03T06:00:00Z" (-481140000) transition_time 0x134-0x137.7 (4)
0x130|                        e4 01 b3 58            |        ...X    |      [67]: "1955-02-13T05:30:00Z" (-469650600) transition_time 0x138-0x13b.7 (4)
0x130|                                    e5 32 44 e0|            .2D.|      [68]: "1955-10-02T06:00:00Z" (-449690400) transition_time 0x13c-0x13f.7 (4)
0x140|e5 e1 95 58                                    |...X            |      [69]: "1956-02-12T05:30:00Z" (-438201000) transition_time 0x140-0x143.7 (4)
0x140|            e7 1b 61 60                        |    ..a`        |      [70]: "1956-10-07T06:00:00Z" (-417636000) transition_time 0x144-0x147.7 (4)
0x140|                        e7 c1 77 58            |        ..wX    |      [71]: "1957-02-10T05:30:00Z" (-406751400) transition_time 0x148-0x14b.7 (4)
0x140|                                    e8 fb 43 60|            ..C`|      [72]: "1957-10-06T06:00:00Z" (-386186400) transition_time 0x14c-0x14f.7 (4)
0x150|e9 a1 59 58                                    |..YX            |      [73]: "1958-02-09T05:30:00Z" (-375301800) transition_time 0x150-0x153.7 (4)
0x150|            ea db 25 60                        |    ..%`        |      [74]: "1958-10-05T06:00:00Z" (-354736800) transition_time 0x154-0x157.7 (4)
0x150|                        eb 8a 75 d8            |        ..u.    |      [75]: "1959-02-15T05:30:00Z" (-343247400) transition_time 0x158-0x15b.7 (4)
0x150|                                    ec bb 07 60|            ...`|      [76]: "1959-10-04T06:00:00Z" (-323287200) transition_time 0x15c-0x15f.7 (4)
0x160|ed 6a 57 d8                                    |.jW.            |      [77]: "1960-02-14T05:30:00Z" (-311797800) transition_time 0x160-0x163.7 (4)
0x160|            ee 9a e9 60                        |    ...`        |      [78]: "1960-10-02T06:00:00Z" (-291837600) transition_time 0x164-0x167.7 (4)
0x160|                        ef 4a 39 d8            |        .J9.    |      [79]: "1961-02-12T05:30:00Z" (-280348200) transition_time 0x168-0x16b.7 (4)
0x160|                                    f0 84 05 e0|            ....|      [80]: "1961-10-08T06:00:00Z" (-259783200) transition_time 0x16c-0x16f.7 (4)
0x170|f1 2a 1b d8                                    |.*..            |      [81]: "1962-02-11T05:30:00Z" (-248898600) transition_time 0x170-0x173.7 (4)
0x170|            f2 63 e7 e0                        |    .c..        |      [82]: "1962-10-07T06:00:00Z" (-228333600) transition_time 0x174-0x177.7 (4)
0x170|                        f3 09 fd d8            |        ....    |      [83]: "1963-02-10T05:30:00Z" (-217449000) transition_time 0x178-0x17b.7 (4)
0x170|                                    f4 43 c9 e0|            .C..|      [84]: "1963-10-06T06:00:00Z" (-196884000) transition_time 0x17c-0x17f.7 (4)
0x180|f4 e9 df d8                                    |....            |      [85]: "1964-02-09T05:30:00Z" (-185999400) transition_time 0x180-0x183.7 (4)
0x180|            f6 23 ab e0                        |    .#..        |      [86]: "1964-10-04T06:00:00Z" (-165434400) transition_time 0x184-0x187.7 (4)
0x180|                        f6 d2 fc 58            |        ...X    |      [87]: "1965-02-14T05:30:00Z" (-153945000) transition_time 0x188-0x18b.7 (4)
0x180|                                    f8 03 8d e0|            ....|      [88]: "1965-10-03T06:00:00Z" (-133984800) transition_time 0x18c-0x18f.7 (4)
0x190|f8 b2 de 58                                    |...X            |      [89]: "1966-02-13T05:30:00Z" (-122495400) transition_time 0x190-0x193.7 (4)
0x190|            f9 e3 6f e0                        |    ..o.        |      [90]: "1966-10-02T06:00:00Z" (-102535200) transition_time 0x194-0x197.7 (4)
0x190|                        fa 92 c0 58            |        ...X    |      [91]: "1967-02-12T05:30:00Z" (-91045800) transition_time 0x198-0x19b.7 (4)
0x190|                                    fb cc 8c 60|            ...`|      [92]: "1967-10-08T06:00:00Z" (-70480800) transition_time 0x19c-0x19f.7 (4)
0x1a0|fc 72 a2 58                                    |.r.X            |      [93]: "1968-02-11T05:30:00Z" (-59596200) transition_time 0x1a0-0x1a3.7 (4)
0x1a0|            07 62 db 62                        |    .b.b        |      [94]: "1973-12-05T06:00:02Z" (123919202) transition_time 0x1a4-0x1a7.7 (4)
0x1a0|                        07 b9 d0 53            |        ...S    |      [95]: "1974-02-09T05:00:03Z" (129618003) transition_time 0x1a8-0x1ab.7 (4)
0x1a0|                                    18 61 71 6b|            .aqk|      [96]: "1982-12-18T06:00:11Z" (409039211) transition_time 0x1ac-0x1af.7 (4)
0x1b0|18 ab 37 5b                                    |..7[            |      [97]: "1983-02-12T05:00:11Z" (413874011) transition_time 0x1b0-0x1b3.7 (4)
0x1b0|            64 9b 78 1b                        |    d.x.        |      [98]: "2023-06-28T00:00:27Z" (1687910427) transition_time 0x1b4-0x1b7.7 (4)
     |                                               |                |    transition_types[0:99]: 0x1b8-0x21a.7 (99)
0x1b0|                        02                     |        .       |      [0]: 2 transition_type 0x1b8-0x1b8.7 (1)
0x1b0|                           01                  |         .      |      [1]: 1 transition_type 0x1b9-0x1b9.7 (1)
0x1b0|                              02               |          .     |      [2]: 2 transition_type 0x1ba-0x1ba.7 (1)
0x1b0|                                 01            |           .    |      [3]: 1 transition_type 0x1bb-0x1bb.7 (1)
0x1b0|                                    02         |            .   |      [4]: 2 transition_type 0x1bc-0x1bc.7 (1)
0x1b0|                                       01      |             .  |      [5]: 1 transition_type 0x1bd-0x1bd.7 (1)
0x1b0|                                          02   |              . |      [6]: 2 transition_type 0x1be-0x1be.7 (1)
0x1b0|                                             01|               .|      [7]: 1 transition_type 0x1bf-0x1bf.7 (1)
0x1c0|02                                             |.               |      [8]: 2 transition_type 0x1c0-0x1c0.7 (1)
0x1c0|   01                                          | .              |      [9]: 1 transition_type 0x1c1-0x1c1.7 (1)
0x1c0|      02                                       |  .             |      [10]: 2 transition_type 0x1c2-0x1c2.7 (1)
0x1c0|         01                                    |   .            |      [11]: 1 transition_type 0x1c3-0x1c3.7 (1)
0x1c0|            02                                 |    .           |      [12]: 2 transition_type 0x1c4-0x1c4.7 (1)
0x1c0|               01                              |     .          |      [13]: 1 transition_type 0x1c5-0x1c5.7 (1)
0x1c0|                  02                           |      .         |      [14]: 2 transition_type 0x1c6-0x1c6.7 (1)
0x1c0|                     01                        |       .        |      [15]: 1 transition_type 0x1c7-0x1c7.7 (1)
0x1c0|                        02                     |        .       |      [16]: 2 transition_type 0x1c8-0x1c8.7 (1)
0x1c0|                           01                  |         .      |      [17]: 1 transition_type 0x1c9-0x1c9.7 (1)
0x1c0|                              02               |          .     |      [18]: 2 transition_type 0x1ca-0x1ca.7 (1)
0x1c0|                                 01            |           .    |      [19]: 1 transition_type 0x1cb-0x1cb.7 (1)
0x1c0|                                    02         |            .   |      [20]: 2 transition_type 0x1cc-0x1cc.7 (1)
0x1c0|                                       01      |             .  |      [21]: 1 transition_type 0x1cd-0x1cd.7 (1)
0x1c0|                                          02   |              . |      [22]: 2 transition_type 0x1ce-0x1ce.7 (1)
0x1c0|                                             01|               .|      [23]: 1 transition_type 0x1cf-0x1cf.7 (1)
0x1d0|02                                             |.               |      [24]: 2 transition_type 0x1d0-0x1d0.7 (1)
0x1d0|   01                                          | .              |      [25]: 1 transition_type 0x1d1-0x1d1.7 (1)
0x1d0|      02                                       |  .             |      [26]: 2 transition_type 0x1d2-0x1d2.7 (1)
0x1d0|         01                                    |   .            |      [27]: 1 transition_type 0x1d3-0x1d3.7 (1)
0x1d0|            02                                 |    .           |      [28]: 2 transition_type 0x1d4-0x1d4.7 (1)
0x1d0|               01                              |     .          |      [29]: 1 transition_type 0x1d5-0x1d5.7 (1)
0x1d0|                  02                           |      .         |      [30]: 2 transition_type 0x1d6-0x1d6.7 (1)
0x1d0|                     01                        |       .        |      [31]: 1 transition_type 0x1d7-0x1d7.7 (1)
0x1d0|                        02                     |        .       |      [32]: 2 transition_type 0x1d8-0x1d8.7 (1)
0x1d0|                           01                  |         .      |      [33]: 1 transition_type 0x1d9-0x1d9.7 (1)
0x1d0|                              02               |          .     |      [34]: 2 transition_type 0x1da-0x1da.7 (1)
0x1d0|                                 01            |           .    |      [35]: 1 transition_type 0x1db-0x1db.7 (1)
0x1d0|                                    02         |            .   |      [36]: 2 transition_type 0x1dc-0x1dc.7 (1)
0x1d0|                                       01      |             .  |      [37]: 1 transition_type 0x1dd-0x1dd.7 (1)
0x1d0|                                          02   |              . |      [38]: 2 transition_type 0x1de-0x1de.7 (1)
0x1d0|                                             01|               .|      [39]: 1 transition_type 0x1df-0x1df.7 (1)
0x1e0|02                                             |.               |      [40]: 2 transition_type 0x1e0-0x1e0.7 (1)
0x1e0|   01                                          | .              |      [41]: 1 transition_type 0x1e1-0x1e1.7 (1)
0x1e0|      02                                       |  .             |      [42]: 2 transition_type 0x1e2-0x1e2.7 (1)
0x1e0|         01                                    |   .            |      [43]: 1 transition_type 0x1e3-0x1e3.7 (1)
0x1e0|            02                                 |    .           |      [44]: 2 transition_type 0x1e4-0x1e4.7 (1)
0x1e0|               01                              |     .          |      [45]: 1 transition_type 0x1e5-0x1e5.7 (1)
0x1e0|                  02                           |      .         |      [46]: 2 transition_type 0x1e6-0x1e6.7 (1)
0x1e0|                     01                        |       .        |      [47]: 1 transition_type 0x1e7-0x1e7.7 (1)
0x1e0|                        02                     |        .       |      [48]: 2 transition_type 0x1e8-0x1e8.7 (1)
0x1e0|                           03                  |         .      |      [49]: 3 transition_type 0x1e9-0x1e9.7 (1)
0x1e0|                              04               |          .     |      [50]: 4 transition_type 0x1ea-0x1ea.7 (1)
0x1e0|                                 02            |           .    |      [51]: 2 transition_type 0x1eb-0x1eb.7 (1)
0x1e0|                                    01         |            .   |      [52]: 1 transition_type 0x1ec-0x1ec.7 (1)
0x1e0|                                       02      |             .  |      [53]: 2 transition_type 0x1ed-0x1ed.7 (1)
0x1e0|                                          01   |              . |      [54]: 1 transition_type 0x1ee-0x1ee.7 (1)
0x1e0|                                             02|               .|      [55]: 2 transition_type 0x1ef-0x1ef.7 (1)
0x1f0|01                                             |.               |      [56]: 1 transition_type 0x1f0-0x1f0.7 (1)
0x1f0|   02                                          | .              |      [57]: 2 transition_type 0x1f1-0x1f1.7 (1)
0x1f0|      01                                       |  .             |      [58]: 1 transition_type 0x1f2-0x1f2.7 (1)
0x1f0|         02                                    |   .            |      [59]: 2 transition_type 0x1f3-0x1f3.7 (1)
0x1f0|            01                                 |    .           |      [60]: 1 transition_type 0x1f4-0x1f4.7 (1)
0x1f0|               02                              |     .          |      [61]: 2 transition_type 0x1f5-0x1f5.7 (1)
0x1f0|                  01                           |      .         |      [62]: 1 transition_type 0x1f6-0x1f6.7 (1)
0x1f0|                     02                        |       .        |      [63]: 2 transition_type 0x1f7-0x1f7.7 (1)
0x1f0|                        01                     |        .       |      [64]: 1 transition_type 0x1f8-0x1f8.7 (1)
0x1f0|                           02                  |         .      |      [65]: 2 transition_type 0x1f9-0x1f9.7 (1)
0x1f0|                              01               |          .     |      [66]: 1 transition_type 0x1fa-0x1fa.7 (1)
0x1f0|                                 02            |           .    |      [67]: 2 transition_type 0x1fb-0x1fb.7 (1)
0x1f0|                                    01         |            .   |      [68]: 1 transition_type 0x1fc-0x1fc.7 (1)
0x1f0|                                       02      |             .  |      [69]: 2 transition_type 0x1fd-0x1fd.7 (1)
0x1f0|                                          01   |              . |      [70]: 1 transition_type 0x1fe-0x1fe.7 (1)
0x1f0|                                             02|               .|      [71]: 2 transition_type 0x1ff-0x1ff.7 (1)
0x200|01                                             |.               |      [72]: 1 transition_type 0x200-0x200.7 (1)
0x200|   02                                          | .              |      [73]: 2 transition_type 0x201-0x201.7 (1)
0x200|      01                                       |  .             |      [74]: 1 transition_type 0x202-0x202.7 (1)
0x200|         02                                    |   .            |      [75]: 2 transition_type 0x203-0x203.7 (1)
0x200|            01                                 |    .           |      [76]: 1 transition_type 0x204-0x204.7 (1)
0x200|               02                              |     .          |      [77]: 2 transition_type 0x205-0x205.7 (1)
0x200|                  01                           |      .         |      [78]: 1 transition_type 0x206-0x206.7 (1)
0x200|                     02                        |       .        |      [79]: 2 transition_type 0x207-0x207.7 (1)
0x200|                        01                     |        .       |      [80]: 1 transition_type 0x208-0x208.7 (1)
0x200|                           02                  |         .      |      [81]: 2 transition_type 0x209-0x209.7 (1)
0x200|                              01               |          .     |      [82]: 1 transition_type 0x20a-0x20a.7 (1)
0x200|                                 02            |           .    |      [83]: 2 transition_type 0x20b-0x20b.7 (1)
0x200|                                    01         |            .   |      [84]: 1 transition_type 0x20c-0x20c.7 (1)
0x200|                                       02      |             .  |      [85]: 2 transition_type 0x20d-0x20d.7 (1)
0x200|                                          01   |              . |      [86]: 1 transition_type 0x20e-0x20e.7 (1)
0x200|                                             02|               .|      [87]: 2 transition_type 0x20f-0x20f.7 (1)
0x210|01                                             |.               |      [88]: 1 transition_type 0x210-0x210.7 (1)
0x210|   02                                          | .              |      [89]: 2 transition_type 0x211-0x211.7 (1)
0x210|      01                                       |  .             |      [90]: 1 transition_type 0x212-0x212.7 (1)
0x210|         02                                    |   .            |      [91]: 2 transition_type 0x213-0x213.7 (1)
0x210|            01                                 |    .           |      [92]: 1 transition_type 0x214-0x214.7 (1)
0x210|               02                              |     .          |      [93]: 2 transition_type 0x215-0x215.7 (1)
0x210|                  05                           |      .         |      [94]: 5 transition_type 0x216-0x216.7 (1)
0x210|                     02                        |       .        |      [95]: 2 transition_type 0x217-0x217.7 (1)
0x210|                        05                     |        .       |      [96]: 5 transition_type 0x218-0x218.7 (1)
0x210|                           02                  |         .      |      [97]: 2 transition_type 0x219-0x219.7 (1)
0x210|                              02               |          .     |      [98]: 2 transition_type 0x21a-0x21a.7 (1)
     |                                               |                |    local_time_type_records[0:6]: 0x21b-0x23e.7 (36)
     |                                               |                |      [0]{}: local_time_type 0x21b-0x220.7 (6)
0x210|                                 ff ff ad 50   |           ...P |        utoff: -21168 (valid) 0x21b-0x21e.7 (4)
0x210|                                             00|               .|        dst: 0 (valid) 0x21f-0x21f.7 (1)
0x220|00                                             |.               |        idx: 0 (valid) 0x220-0x220.7 (1)
     |                                               |                |      [1]{}: local_time_type 0x221-0x226.7 (6)
0x220|   ff ff b2 a8                                 | ....           |        utoff: -19800 (valid) 0x221-0x224.7 (4)
0x220|               01                              |     .          |        dst: 1 (valid) 0x225-0x225.7 (1)
0x220|                  04                           |      .         |        idx: 4 (valid) 0x226-0x226.7 (1)
     |                                               |                |      [2]{}: local_time_type 0x227-0x22c.7 (6)
0x220|                     ff ff ab a0               |       ....     |        utoff: -21600 (valid) 0x227-0x22a.7 (4)
0x220|                                 00            |           .    |        dst: 0 (valid) 0x22b-0x22b.7 (1)
0x220|                                    0a         |            .   |        idx: 10 (valid) 0x22c-0x22c.7 (1)
     |                                               |                |      [3]{}: local_time_type 0x22d-0x232.7 (6)
0x220|                                       ff ff b9|             ...|        utoff: -18000 (valid) 0x22d-0x230.7 (4)
0x230|b0                                             |.               |
0x230|   01                                          | .              |        dst: 1 (valid) 0x231-0x231.7 (1)
0x230|      0e                                       |  .             |        idx: 14 (valid) 0x232-0x232.7 (1)
     |                                               |                |      [4]{}: local_time_type 0x233-0x238.7 (6)
0x230|         ff ff b9 b0                           |   ....         |        utoff: -18000 (valid) 0x233-0x236.7 (4)
0x230|                     01                        |       .        |        dst: 1 (valid) 0x237-0x237.7 (1)
0x230|                        12                     |        .       |        idx: 18 (valid) 0x238-0x238.7 (1)
     |                                               |                |      [5]{}: local_time_type 0x239-0x23e.7 (6)
0x230|                           ff ff b9 b0         |         ....   |        utoff: -18000 (valid) 0x239-0x23c.7 (4)
0x230|                                       01      |             .  |        dst: 1 (valid) 0x23d-0x23d.7 (1)
0x230|                                          16   |              . |        idx: 22 (valid) 0x23e-0x23e.7 (1)
     |                                               |                |    time_zone_designations[0:6]: 0x23f-0x258.7 (26)
0x230|                                             4c|               L|      [0]: "LMT" time_zone_designation 0x23f-0x242.7 (4)
0x240|4d 54 00                                       |MT.             |
0x240|         2d 30 35 33 30 00                     |   -0530.       |      [1]: "-0530" time_zone_designation 0x243-0x248.7 (6)
0x240|                           43 53 54 00         |         CST.   |      [2]: "CST" time_zone_designation 0x249-0x24c.7 (4)
0x240|                                       43 57 54|             CWT|      [3]: "CWT" time_zone_designation 0x24d-0x250.7 (4)
0x250|00                                             |.               |
0x250|   43 50 54 00                                 | CPT.           |      [4]: "CPT" time_zone_designation 0x251-0x254.7 (4)
0x250|               43 44 54 00                     |     CDT.       |      [5]: "CDT" time_zone_designation 0x255-0x258.7 (4)
     |                                               |                |    leap_second_records[0:27]: 0x259-0x330.7 (216)
     |                                               |                |      [0]{}: leap_second_record 0x259-0x260.7 (8)
0x250|                           04 b2 58 00         |         ..X.   |        occur: "1972-07-01T00:00:00Z" (78796800) 0x259-0x25c.7 (4)
0x250|                                       00 00 00|             ...|        corr: 1 0x25d-0x260.7 (4)
0x260|01                                             |.               |
     |                                               |                |      [1]{}: leap_second_record 0x261-0x268.7 (8)
0x260|   05 a4 ec 01                                 | ....           |        occur: "1973-01-01T00:00:01Z" (94694401) 0x261-0x264.7 (4)
0x260|               00 00 00 02                     |     ....       |        corr: 2 0x265-0x268.7 (4)
     |                                               |                |      [2]{}: leap_second_record 0x269-0x270.7 (8)
0x260|                           07 86 1f 82         |         ....   |        occur: "1974-01-01T00:00:02Z" (126230402) 0x269-0x26c.7 (4)
0x260|                                       00 00 00|             ...|        corr: 3 0x26d-0x270.7 (4)
0x270|03                                             |.               |
     |                                               |                |      [3]{}: leap_second_record 0x271-0x278.7 (8)
0x270|   09 67 53 03                                 | .gS.           |        occur: "1975-01-01T00:00:03Z" (157766403) 0x271-0x274.7 (4)
0x270|               00 00 00 04                     |     ....       |        corr: 4 0x275-0x278.7 (4)
     |                                               |                |      [4]{}: leap_second_record 0x279-0x280.7 (8)
0x270|                           0b 48 86 84         |         .H..   |        occur: "1976-01-01T00:00:04Z" (189302404) 0x279-0x27c.7 (4)
0x270|                                       00 00 00|             ...|        corr: 5 0x27d-0x280.7 (4)
0x280|05                                             |.               |
     |                                               |                |      [5]{}: leap_second_record 0x281-0x288.7 (8)
0x280|   0d 2b 0b 85                                 | .+..           |        occur: "1977-01-01T00:00:05Z" (220924805) 0x281-0x284.7 (4)
0x280|               00 00 00 06                     |     ....       |        corr: 6 0x285-0x288.7 (4)
     |                                               |                |      [6]{}: leap_second_record 0x289-0x290.7 (8)
0x280|                           0f 0c 3f 06         |         ..?.   |        occur: "1978-01-01T00:00:06Z" (252460806) 0x289-0x28c.7 (4)
0x280|                                       00 00 00|             ...|        corr: 7 0x28d-0x290.7 (4)
0x290|07                                             |.               |
     |                                               |                |      [7]{}: leap_second_record 0x291-0x298.7 (8)
0x290|   10 ed 72 87                                 | ..r.           |        occur: "1979-01-01T00:00:07Z" (283996807) 0x291-0x294.7 (4)
0x290|               00 00 00 08                     |     ....       |        corr: 8 0x295-0x298.7 (4)
     |                                               |                |      [8]{}: leap_second_record 0x299-0x2a0.7 (8)
0x290|                           12 ce a6 08         |         ....   |        occur: "1980-01-01T00:00:08Z" (315532808) 0x299-0x29c.7 (4)
0x290|                                       00 00 00|             ...|        corr: 9 0x29d-0x2a0.7 (4)
0x2a0|09                                             |.               |
     |                                               |                |      [9]{}: leap_second_record 0x2a1-0x2a8.7 (8)
0x2a0|   15 9f ca 89                                 | ....           |        occur: "1981-07-01T00:00:09Z" (362793609) 0x2a1-0x2a4.7 (4)
0x2a0|               00 00 00 0a                     |     ....       |        corr: 10 0x2a5-0x2a8.7 (4)
     |                                               |                |      [10]{}: leap_second_record 0x2a9-0x2b0.7 (8)
0x2a0|                           17 80 fe 0a         |         ....   |        occur: "1982-07-01T00:00:10Z" (394329610) 0x2a9-0x2ac.7 (4)
0x2a0|                                       00 00 00|             ...|        corr: 11 0x2ad-0x2b0.7 (4)
0x2b0|0b                                             |.               |
     |                                               |                |      [11]{}: leap_second_record 0x2b1-0x2b8.7 (8)
0x2b0|   19 62 31 8b                                 | .b1.           |        occur: "1983-07-01T00:00:11Z" (425865611) 0x2b1-0x2b4.7 (4)
0x2b0|               00 00 00 0c                     |     ....       |        corr: 12 0x2b5-0x2b8.7 (4)
     |                                               |                |      [12]{}: leap_second_record 0x2b9-0x2c0.7 (8)
0x2b0|                           1d 25 ea 0c         |         .%..   |        occur: "1985-07-01T00:00:12Z" (489024012) 0x2b9-0x2bc.7 (4)
0x2b0|                                       00 00 00|             ...|        corr: 13 0x2bd-0x2c0.7 (4)
0x2c0|0d                                             |.               |
     |                                               |                |      [13]{}: leap_second_record 0x2c1-0x2c8.7 (8)
0x2c0|   21 da e5 0d                                 | !...           |        occur: "1988-01-01T00:00:13Z" (567993613) 0x2c1-0x2c4.7 (4)
0x2c0|               00 00 00 0e                     |     ....       |        corr: 14 0x2c5-0x2c8.7 (4)
     |                                               |                |      [14]{}: leap_second_record 0x2c9-0x2d0.7 (8)
0x2c0|                           25 9e 9d 8e         |         %...   |        occur: "1990-01-01T00:00:14Z" (631152014) 0x2c9-0x2cc.7 (4)
0x2c0|                                       00 00 00|             ...|        corr: 15 0x2cd-0x2d0.7 (4)
0x2d0|0f                                             |.               |
     |                                               |                |      [15]{}: leap_second_record 0x2d1-0x2d8.7 (8)
0x2d0|   27 7f d1 0f                                 | '...           |        occur: "1991-01-01T00:00:15Z" (662688015) 0x2d1-0x2d4.7 (4)
0x2d0|               00 00 00 10                     |     ....       |        corr: 16 0x2d5-0x2d8.7 (4)
     |                                               |                |      [16]{}: leap_second_record 0x2d9-0x2e0.7 (8)
0x2d0|                           2a 50 f5 90         |         *P..   |        occur: "1992-07-01T00:00:16Z" (709948816) 0x2d9-0x2dc.7 (4)
0x2d0|                                       00 00 00|             ...|        corr: 17 0x2dd-0x2e0.7 (4)
0x2e0|11                                             |.               |
     |                                               |                |      [17]{}: leap_second_record 0x2e1-0x2e8.7 (8)
0x2e0|   2c 32 29 11                                 | ,2).           |        occur: "1993-07-01T00:00:17Z" (741484817) 0x2e1-0x2e4.7 (4)
0x2e0|               00 00 00 12                     |     ....       |        corr: 18 0x2e5-0x2e8.7 (4)
     |                                               |                |      [18]{}: leap_second_record 0x2e9-0x2f0.7 (8)
0x2e0|                           2e 13 5c 92         |         ..\.   |        occur: "1994-07-01T00:00:18Z" (773020818) 0x2e9-0x2ec.7 (4)
0x2e0|                                       00 00 00|             ...|        corr: 19 0x2ed-0x2f0.7 (4)
0x2f0|13                                             |.               |
     |                                               |                |      [19]{}: leap_second_record 0x2f1-0x2f8.7 (8)
0x2f0|   30 e7 24 13                                 | 0.$.           |        occur: "1996-01-01T00:00:19Z" (820454419) 0x2f1-0x2f4.7 (4)
0x2f0|               00 00 00 14                     |     ....       |        corr: 20 0x2f5-0x2f8.7 (4)
     |                                               |                |      [20]{}: leap_second_record 0x2f9-0x300.7 (8)
0x2f0|                           33 b8 48 94         |         3.H.   |        occur: "1997-07-01T00:00:20Z" (867715220) 0x2f9-0x2fc.7 (4)
0x2f0|                                       00 00 00|             ...|        corr: 21 0x2fd-0x300.7 (4)
0x300|15                                             |.               |
     |                                               |                |      [21]{}: leap_second_record 0x301-0x308.7 (8)
0x300|   36 8c 10 15                                 | 6...           |        occur: "1999-01-01T00:00:21Z" (915148821) 0x301-0x304.7 (4)
0x300|               00 00 00 16                     |     ....       |        corr: 22 0x305-0x308.7 (4)
     |                                               |                |      [22]{}: leap_second_record 0x309-0x310.7 (8)
0x300|                           43 b7 1b 96         |         C...   |        occur: "2006-01-01T00:00:22Z" (1136073622) 0x309-0x30c.7 (4)
0x300|                                       00 00 00|             ...|        corr: 23 0x30d-0x310.7 (4)
0x310|17                                             |.               |
     |                                               |                |      [23]{}: leap_second_record 0x311-0x318.7 (8)
0x310|   49 5c 07 97                                 | I\..           |        occur: "2009-01-01T00:00:23Z" (1230768023) 0x311-0x314.7 (4)
0x310|               00 00 00 18                     |     ....       |        corr: 24 0x315-0x318.7 (4)
     |                                               |                |      [24]{}: leap_second_record 0x319-0x320.7 (8)
0x310|                           4f ef 93 18         |         O...   |        occur: "2012-07-01T00:00:24Z" (1341100824) 0x319-0x31c.7 (4)
0x310|                                       00 00 00|             ...|        corr: 25 0x31d-0x320.7 (4)
0x320|19                                             |.               |
     |                                               |                |      [25]{}: leap_second_record 0x321-0x328.7 (8)
0x320|   55 93 2d 99                                 | U.-.           |        occur: "2015-07-01T00:00:25Z" (1435708825) 0x321-0x324.7 (4)
0x320|               00 00 00 1a                     |     ....       |        corr: 26 0x325-0x328.7 (4)
     |                                               |                |      [26]{}: leap_second_record 0x329-0x330.7 (8)
0x320|                           58 68 46 9a         |         XhF.   |        occur: "2017-01-01T00:00:26Z" (1483228826) 0x329-0x32c.7 (4)
0x320|                                       00 00 00|             ...|        corr: 27 0x32d-0x330.7 (4)
0x330|1b                                             |.               |
     |                                               |                |    standard_wall_indicators[0:6]: 0x331-0x336.7 (6)
0x330|   00                                          | .              |      [0]: 0 standard_wall_indicator (valid) 0x331-0x331.7 (1)
0x330|      00                                       |  .             |      [1]: 0 standard_wall_indicator (valid) 0x332-0x332.7 (1)
0x330|         00                                    |   .            |      [2]: 0 standard_wall_indicator (valid) 0x333-0x333.7 (1)
0x330|            00                                 |    .           |      [3]: 0 standard_wall_indicator (valid) 0x334-0x334.7 (1)
0x330|               01                              |     .          |      [4]: 1 standard_wall_indicator (valid) 0x335-0x335.7 (1)
0x330|                  00                           |      .         |      [5]: 0 standard_wall_indicator (valid) 0x336-0x336.7 (1)
     |                                               |                |    ut_local_indicators[0:6]: 0x337-0x33c.7 (6)
0x330|                     00                        |       .        |      [0]: 0 ut_local_indicator (valid) 0x337-0x337.7 (1)
0x330|                        00                     |        .       |      [1]: 0 ut_local_indicator (valid) 0x338-0x338.7 (1)
0x330|                           00                  |         .      |      [2]: 0 ut_local_indicator (valid) 0x339-0x339.7 (1)
0x330|                              00               |          .     |      [3]: 0 ut_local_indicator (valid) 0x33a-0x33a.7 (1)
0x330|                                 01            |           .    |      [4]: 1 ut_local_indicator (valid) 0x33b-0x33b.7 (1)
0x330|                                    00         |            .   |      [5]: 0 ut_local_indicator (valid) 0x33c-0x33c.7 (1)
     |                                               |                |  v2plusheader{}: 0x33d-0x368.7 (44)
0x330|                                       54 5a 69|             TZi|    magic: 0x545a6966 (valid) 0x33d-0x340.7 (4)
0x340|66                                             |f               |
0x340|   32                                          | 2              |    ver: "2" (0x32) (valid) 0x341-0x341.7 (1)
0x340|      00 00 00 00 00 00 00 00 00 00 00 00 00 00|  ..............|    reserved: raw bits 0x342-0x350.7 (15)
0x350|00                                             |.               |
0x350|   00 00 00 06                                 | ....           |    isutcnt: 6 0x351-0x354.7 (4)
0x350|               00 00 00 06                     |     ....       |    isstdcnt: 6 0x355-0x358.7 (4)
0x350|                           00 00 00 1b         |         ....   |    leapcnt: 27 0x359-0x35c.7 (4)
0x350|                                       00 00 00|             ...|    timecnt: 99 0x35d-0x360.7 (4)
0x360|63                                             |c               |
0x360|   00 00 00 06                                 | ....           |    typecnt: 6 0x361-0x364.7 (4)
0x360|               00 00 00 1a                     |     ....       |    charcnt: 26 0x365-0x368.7 (4)
     |                                               |                |  v2plusdatablock{}: 0x369-0x871.7 (1289)
     |                                               |                |    transition_times[0:99]: 0x369-0x680.7 (792)
0x360|                           ff ff ff ff 93 5e d9|         .....^.|      [0]: "1912-04-01T05:52:48Z" (-1822500432) transition_time 0x369-0x370.7 (8)
0x370|b0                                             |.               |
0x370|   ff ff ff ff 9f 9f 3b e0                     | ......;.       |      [1]: "1918-10-06T06:00:00Z" (-1616954400) transition_time 0x371-0x378.7 (8)
0x370|                           ff ff ff ff a0 45 51|         .....EQ|      [2]: "1919-02-09T05:30:00Z" (-1606069800) transition_time 0x379-0x380.7 (8)
0x380|d8                                             |.               |
0x380|   ff ff ff ff a1 7f 1d e0                     | ........       |      [3]: "1919-10-05T06:00:00Z" (-1585504800) transition_time 0x381-0x388.7 (8)
0x380|                           ff ff ff ff a2 2e 6e|         ......n|      [4]: "1920-02-15T05:30:00Z" (-1574015400) transition_time 0x389-0x390.7 (8)
0x390|58                                             |X               |
0x390|   ff ff ff ff a3 5e ff e0                     | .....^..       |      [5]: "1920-10-03T06:00:00Z" (-1554055200) transition_time 0x391-0x398.7 (8)
0x390|                           ff ff ff ff a4 0e 50|         ......P|      [6]: "1921-02-13T05:30:00Z" (-1542565800) transition_time 0x399-0x3a0.7 (8)
0x3a0|58                                             |X               |
0x3a0|   ff ff ff ff a5 3e e1 e0                     | .....>..       |      [7]: "1921-10-02T06:00:00Z" (-1522605600) transition_time 0x3a1-0x3a8.7 (8)
0x3a0|                           ff ff ff ff a5 ee 32|         ......2|      [8]: "1922-02-12T05:30:00Z" (-1511116200) transition_time 0x3a9-0x3b0.7 (8)
0x3b0|58                                             |X               |
0x3b0|   ff ff ff ff a7 27 fe 60                     | .....'.`       |      [9]: "1922-10-08T06:00:00Z" (-1490551200) transition_time 0x3b1-0x3b8.7 (8)
0x3b0|                           ff ff ff ff a7 ce 14|         .......|      [10]: "1923-02-11T05:30:00Z" (-1479666600) transition_time 0x3b9-0x3c0.7 (8)
0x3c0|58                                             |X               |
0x3c0|   ff ff ff ff a9 07 e0 60                     | .......`       |      [11]: "1923-10-07T06:00:00Z" (-1459101600) transition_time 0x3c1-0x3c8.7 (8)
0x3c0|                           ff ff ff ff a9 ad f6|         .......|      [12]: "1924-02-10T05:30:00Z" (-1448217000) transition_time 0x3c9-0x3d0.7 (8)
0x3d0|58                                             |X               |
0x3d0|   ff ff ff ff aa e7 c2 60                     | .......`       |      [13]: "1924-10-05T06:00:00Z" (-1427652000) transition_time 0x3d1-0x3d8.7 (8)
0x3d0|                           ff ff ff ff ab 97 12|         .......|      [14]: "1925-02-15T05:30:00Z" (-1416162600) transition_time 0x3d9-0x3e0.7 (8)
0x3e0|d8                                             |.               |
0x3e0|   ff ff ff ff ac c7 a4 60                     | .......`       |      [15]: "1925-10-04T06:00:00Z" (-1396202400) transition_time 0x3e1-0x3e8.7 (8)
0x3e0|                           ff ff ff ff ad 76 f4|         .....v.|      [16]: "1926-02-14T05:30:00Z" (-1384713000) transition_time 0x3e9-0x3f0.7 (8)
0x3f0|d8                                             |.               |
0x3f0|   ff ff ff ff ae a7 86 60                     | .......`       |      [17]: "1926-10-03T06:00:00Z" (-1364752800) transition_time 0x3f1-0x3f8.7 (8)
0x3f0|                           ff ff ff ff af 56 d6|         .....V.|      [18]: "1927-02-13T05:30:00Z" (-1353263400) transition_time 0x3f9-0x400.7 (8)
0x400|d8                                             |.               |
0x400|   ff ff ff ff b0 87 68 60                     | ......h`       |      [19]: "1927-10-02T06:00:00Z" (-1333303200) transition_time 0x401-0x408.7 (8)
0x400|                           ff ff ff ff b1 36 b8|         .....6.|      [20]: "1928-02-12T05:30:00Z" (-1321813800) transition_time 0x409-0x410.7 (8)
0x410|d8                                             |.               |
0x410|   ff ff ff ff b2 70 84 e0                     | .....p..       |      [21]: "1928-10-07T06:00:00Z" (-1301248800) transition_time 0x411-0x418.7 (8)
0x410|                           ff ff ff ff b3 16 9a|         .......|      [22]: "1929-02-10T05:30:00Z" (-1290364200) transition_time 0x419-0x420.7 (8)
0x420|d8                                             |.               |
0x420|   ff ff ff ff b4 50 66 e0                     | .....Pf.       |      [23]: "1929-10-06T06:00:00Z" (-1269799200) transition_time 0x421-0x428.7 (8)
0x420|                           ff ff ff ff b4 f6 7c|         ......||      [24]: "1930-02-09T05:30:00Z" (-1258914600) transition_time 0x429-0x430.7 (8)
0x430|d8                                             |.               |
0x430|   ff ff ff ff b6 30 48 e0                     | .....0H.       |      [25]: "1930-10-05T06:00:00Z" (-1238349600) transition_time 0x431-0x438.7 (8)
0x430|                           ff ff ff ff b6 df 99|         .......|      [26]: "1931-02-15T05:30:00Z" (-1226860200) transition_time 0x439-0x440.7 (8)
0x440|58                                             |X               |
0x440|   ff ff ff ff b8 10 2a e0                     | ......*.       |      [27]: "1931-10-04T06:00:00Z" (-1206900000) transition_time 0x441-0x448.7 (8)
0x440|                           ff ff ff ff b8 bf 7b|         ......{|      [28]: "1932-02-14T05:30:00Z" (-1195410600) transition_time 0x449-0x450.7 (8)
0x450|58                                             |X               |
0x450|   ff ff ff ff b9 f0 0c e0                     | ........       |      [29]: "1932-10-02T06:00:00Z" (-1175450400) transition_time 0x451-0x458.7 (8)
0x450|                           ff ff ff ff ba 9f 5d|         ......]|      [30]: "1933-02-12T05:30:00Z" (-1163961000) transition_time 0x459-0x460.7 (8)
0x460|58                                             |X               |
0x460|   ff ff ff ff bb d9 29 60                     | ......)`       |      [31]: "1933-10-08T06:00:00Z" (-1143396000) transition_time 0x461-0x468.7 (8)
0x460|                           ff ff ff ff bc 7f 3f|         ......?|      [32]: "1934-02-11T05:30:00Z" (-1132511400) transition_time 0x469-0x470.7 (8)
0x470|58                                             |X               |
0x470|   ff ff ff ff bd b9 0b 60                     | .......`       |      [33]: "1934-10-07T06:00:00Z" (-1111946400) transition_time 0x471-0x478.7 (8)
0x470|                           ff ff ff ff be 5f 21|         ....._!|      [34]: "1935-02-10T05:30:00Z" (-1101061800) transition_time 0x479-0x480.7 (8)
0x480|58                                             |X               |
0x480|   ff ff ff ff bf 98 ed 60                     | .......`       |      [35]: "1935-10-06T06:00:00Z" (-1080496800) transition_time 0x481-0x488.7 (8)
0x480|                           ff ff ff ff c0 3f 03|         .....?.|      [36]: "1936-02-09T05:30:00Z" (-1069612200) transition_time 0x489-0x490.7 (8)
0x490|58                                             |X               |
0x490|   ff ff ff ff c1 78 cf 60                     | .....x.`       |      [37]: "1936-10-04T06:00:00Z" (-1049047200) transition_time 0x491-0x498.7 (8)
0x490|                           ff ff ff ff c2 28 1f|         .....(.|      [38]: "1937-02-14T05:30:00Z" (-1037557800) transition_time 0x499-0x4a0.7 (8)
0x4a0|d8                                             |.               |
0x4a0|   ff ff ff ff c3 58 b1 60                     | .....X.`       |      [39]: "1937-10-03T06:00:00Z" (-1017597600) transition_time 0x4a1-0x4a8.7 (8)
0x4a0|                           ff ff ff ff c4 08 01|         .......|      [40]: "1938-02-13T05:30:00Z" (-1006108200) transition_time 0x4a9-0x4b0.7 (8)
0x4b0|d8                                             |.               |
0x4b0|   ff ff ff ff c5 38 93 60                     | .....8.`       |      [41]: "1938-10-02T06:00:00Z" (-986148000) transition_time 0x4b1-0x4b8.7 (8)
0x4b0|                           ff ff ff ff c5 e7 e3|         .......|      [42]: "1939-02-12T05:30:00Z" (-974658600) transition_time 0x4b9-0x4c0.7 (8)
0x4c0|d8                                             |.               |
0x4c0|   ff ff ff ff c7 21 af e0                     | .....!..       |      [43]: "1939-10-08T06:00:00Z" (-954093600) transition_time 0x4c1-0x4c8.7 (8)
0x4c0|                           ff ff ff ff c7 c7 c5|         .......|      [44]: "1940-02-11T05:30:00Z" (-943209000) transition_time 0x4c9-0x4d0.7 (8)
0x4d0|d8                                             |.               |
0x4d0|   ff ff ff ff c9 01 91 e0                     | ........       |      [45]: "1940-10-06T06:00:00Z" (-922644000) transition_time 0x4d1-0x4d8.7 (8)
0x4d0|                           ff ff ff ff c9 a7 a7|         .......|      [46]: "1941-02-09T05:30:00Z" (-911759400) transition_time 0x4d9-0x4e0.7 (8)
0x4e0|d8                                             |.               |
0x4e0|   ff ff ff ff ca e1 73 e0                     | ......s.       |      [47]: "1941-10-05T06:00:00Z" (-891194400) transition_time 0x4e1-0x4e8.7 (8)
0x4e0|                           ff ff ff ff cb 90 c4|         .......|      [48]: "1942-02-15T05:30:00Z" (-879705000) transition_time 0x4e9-0x4f0.7 (8)
0x4f0|58                                             |X               |
0x4f0|   ff ff ff ff cc 40 22 e0                     | .....@".       |      [49]: "1942-06-28T06:00:00Z" (-868212000) transition_time 0x4f1-0x4f8.7 (8)
0x4f0|                           ff ff ff ff d2 23 f4|         .....#.|      [50]: "1945-08-14T23:00:00Z" (-769395600) transition_time 0x4f9-0x500.7 (8)
0x500|70                                             |p               |
0x500|   ff ff ff ff d2 c6 71 50                     | ......qP       |      [51]: "1945-12-16T05:00:00Z" (-758746800) transition_time 0x501-0x508.7 (8)
0x500|                           ff ff ff ff d6 29 fa|         .....).|      [52]: "1947-10-05T06:00:00Z" (-701892000) transition_time 0x509-0x510.7 (8)
0x510|60                                             |`               |
0x510|   ff ff ff ff d6 d9 4a d8                     | ......J.       |      [53]: "1948-02-15T05:30:00Z" (-690402600) transition_time 0x511-0x518.7 (8)
0x510|                           ff ff ff ff d8 09 dc|         .......|      [54]: "1948-10-03T06:00:00Z" (-670442400) transition_time 0x519-0x520.7 (8)
0x520|60                                             |`               |
0x520|   ff ff ff ff d8 b9 2c d8                     | ......,.       |      [55]: "1949-02-13T05:30:00Z" (-658953000) transition_time 0x521-0x528.7 (8)
0x520|                           ff ff ff ff d9 e9 be|         .......|      [56]: "1949-10-02T06:00:00Z" (-638992800) transition_time 0x529-0x530.7 (8)
0x530|60                                             |`               |
0x530|   ff ff ff ff da 99 0e d8                     | ........       |      [57]: "1950-02-12T05:30:00Z" (-627503400) transition_time 0x531-0x538.7 (8)
0x530|                           ff ff ff ff db d2 da|         .......|      [58]: "1950-10-08T06:00:00Z" (-606938400) transition_time 0x539-0x540.7 (8)
0x540|e0                                             |.               |
0x540|   ff ff ff ff dc 78 f0 d8                     | .....x..       |      [59]: "1951-02-11T05:30:00Z" (-596053800) transition_time 0x541-0x548.7 (8)
0x540|                           ff ff ff ff dd b2 bc|         .......|      [60]: "1951-10-07T06:00:00Z" (-575488800) transition_time 0x549-0x550.7 (8)
0x550|e0                                             |.               |
0x550|   ff ff ff ff de 58 d2 d8                     | .....X..       |      [61]: "1952-02-10T05:30:00Z" (-564604200) transition_time 0x551-0x558.7 (8)
0x550|                           ff ff ff ff df 92 9e|         .......|      [62]: "1952-10-05T06:00:00Z" (-544039200) transition_time 0x559-0x560.7 (8)
0x560|e0                                             |.               |
0x560|   ff ff ff ff e0 41 ef 58                     | .....A.X       |      [63]: "1953-02-15T05:30:00Z" (-532549800) transition_time 0x561-0x568.7 (8)
0x560|                           ff ff ff ff e1 72 80|         .....r.|      [64]: "1953-10-04T06:00:00Z" (-512589600) transition_time 0x569-0x570.7 (8)
0x570|e0                                             |.               |
0x570|   ff ff ff ff e2 21 d1 58                     | .....!.X       |      [65]: "1954-02-14T05:30:00Z" (-501100200) transition_time 0x571-0x578.7 (8)
0x570|                           ff ff ff ff e3 52 62|         .....Rb|      [66]: "1954-10-03T06:00:00Z" (-481140000) transition_time 0x579-0x580.7 (8)
0x580|e0                                             |.               |
0x580|   ff ff ff ff e4 01 b3 58                     | .......X       |      [67]: "1955-02-13T05:30:00Z" (-469650600) transition_time 0x581-0x588.7 (8)
0x580|                           ff ff ff ff e5 32 44|         .....2D|      [68]: "1955-10-02T06:00:00Z" (-449690400) transition_time 0x589-0x590.7 (8)
0x590|e0                                             |.               |
0x590|   ff ff ff ff e5 e1 95 58                     | .......X       |      [69]: "1956-02-12T05:30:00Z" (-438201000) transition_time 0x591-0x598.7 (8)
0x590|                           ff ff ff ff e7 1b 61|         ......a|      [70]: "1956-10-07T06:00:00Z" (-417636000) transition_time 0x599-0x5a0.7 (8)
0x5a0|60                                             |`               |
0x5a0|   ff ff ff ff e7 c1 77 58                     | ......wX       |      [71]: "1957-02-10T05:30:00Z" (-406751400) transition_time 0x5a1-0x5a8.7 (8)
0x5a0|                           ff ff ff ff e8 fb 43|         ......C|      [72]: "1957-10-06T06:00:00Z" (-386186400) transition_time 0x5a9-0x5b0.7 (8)
0x5b0|60                                             |`               |
0x5b0|   ff ff ff ff e9 a1 59 58                     | ......YX       |      [73]: "1958-02-09T05:30:00Z" (-375301800) transition_time 0x5b1-0x5b8.7 (8)
0x5b0|                           ff ff ff ff ea db 25|         ......%|      [74]: "1958-10-05T06:00:00Z" (-354736800) transition_time 0x5b9-0x5c0.7 (8)
0x5c0|60                                             |`               |
0x5c0|   ff ff ff ff eb 8a 75 d8                     | ......u.       |      [75]: "1959-02-15T05:30:00Z" (-343247400) transition_time 0x5c1-0x5c8.7 (8)
0x5c0|                           ff ff ff ff ec bb 07|         .......|      [76]: "1959-10-04T06:00:00Z" (-323287200) transition_time 0x5c9-0x5d0.7 (8)
0x5d0|60                                             |`               |
0x5d0|   ff ff ff ff ed 6a 57 d8                     | .....jW.       |      [77]: "1960-02-14T05:30:00Z" (-311797800) transition_time 0x5d1-0x5d8.7 (8)
0x5d0|                           ff ff ff ff ee 9a e9|         .......|      [78]: "1960-10-02T06:00:00Z" (-291837600) transition_time 0x5d9-0x5e0.7 (8)
0x5e0|60                                             |`               |
0x5e0|   ff ff ff ff ef 4a 39 d8                     | .....J9.       |      [79]: "1961-02-12T05:30:00Z" (-280348200) transition_time 0x5e1-0x5e8.7 (8)
0x5e0|                           ff ff ff ff f0 84 05|         .......|      [80]: "1961-10-08T06:00:00Z" (-259783200) transition_time 0x5e9-0x5f0.7 (8)
0x5f0|e0                                             |.               |
0x5f0|   ff ff ff ff f1 2a 1b d8                     | .....*..       |      [81]: "1962-02-11T05:30:00Z" (-248898600) transition_time 0x5f1-0x5f8.7 (8)
0x5f0|                           ff ff ff ff f2 63 e7|         .....c.|      [82]: "1962-10-07T06:00:00Z" (-228333600) transition_time 0x5f9-0x600.7 (8)
0x600|e0                                             |.               |
0x600|   ff ff ff ff f3 09 fd d8                     | ........       |      [83]: "1963-02-10T05:30:00Z" (-217449000) transition_time 0x601-0x608.7 (8)
0x600|                           ff ff ff ff f4 43 c9|         .....C.|      [84]: "1963-10-06T06:00:00Z" (-196884000) transition_time 0x609-0x610.7 (8)
0x610|e0                                             |.               |
0x610|   ff ff ff ff f4 e9 df d8                     | ........       |      [85]: "1964-02-09T05:30:00Z" (-185999400) transition_time 0x611-0x618.7 (8)
0x610|                           ff ff ff ff f6 23 ab|         .....#.|      [86]: "1964-10-04T06:00:00Z" (-165434400) transition_time 0x619-0x620.7 (8)
0x620|e0                                             |.               |
0x620|   ff ff ff ff f6 d2 fc 58                     | .......X       |      [87]: "1965-02-14T05:30:00Z" (-153945000) transition_time 0x621-0x628.7 (8)
0x620|                           ff ff ff ff f8 03 8d|         .......|      [88]: "1965-10-03T06:00:00Z" (-133984800) transition_time 0x629-0x630.7 (8)
0x630|e0                                             |.               |
0x630|   ff ff ff ff f8 b2 de 58                     | .......X       |      [89]: "1966-02-13T05:30:00Z" (-122495400) transition_time 0x631-0x638.7 (8)
0x630|                           ff ff ff ff f9 e3 6f|         ......o|      [90]: "1966-10-02T06:00:00Z" (-102535200) transition_time 0x639-0x640.7 (8)
0x640|e0                                             |.               |
0x640|   ff ff ff ff fa 92 c0 58                     | .......X       |      [91]: "1967-02-12T05:30:00Z" (-91045800) transition_time 0x641-0x648.7 (8)
0x640|                           ff ff ff ff fb cc 8c|         .......|      [92]: "1967-10-08T06:00:00Z" (-70480800) transition_time 0x649-0x650.7 (8)
0x650|60                                             |`               |
0x650|   ff ff ff ff fc 72 a2 58                     | .....r.X       |      [93]: "1968-02-11T05:30:00Z" (-59596200) transition_time 0x651-0x658.7 (8)
0x650|                           00 00 00 00 07 62 db|         .....b.|      [94]: "1973-12-05T06:00:02Z" (123919202) transition_time 0x659-0x660.7 (8)
0x660|62                                             |b               |
0x660|   00 00 00 00 07 b9 d0 53                     | .......S       |      [95]: "1974-02-09T05:00:03Z" (129618003) transition_time 0x661-0x668.7 (8)
0x660|                           00 00 00 00 18 61 71|         .....aq|      [96]: "1982-12-18T06:00:11Z" (409039211) transition_time 0x669-0x670.7 (8)
0x670|6b                                             |k               |
0x670|   00 00 00 00 18 ab 37 5b                     | ......7[       |      [97]: "1983-02-12T05:00:11Z" (413874011) transition_time 0x671-0x678.7 (8)
0x670|                           00 00 00 00 64 9b 78|         ....d.x|      [98]: "2023-06-28T00:00:27Z" (1687910427) transition_time 0x679-0x680.7 (8)
0x680|1b                                             |.               |
     |                                               |                |    transition_types[0:99]: 0x681-0x6e3.7 (99)
0x680|   02                                          | .              |      [0]: 2 transition_type 0x681-0x681.7 (1)
0x680|      01                                       |  .             |      [1]: 1 transition_type 0x682-0x682.7 (1)
0x680|         02                                    |   .            |      [2]: 2 transition_type 0x683-0x683.7 (1)
0x680|            01                                 |    .           |      [3]: 1 transition_type 0x684-0x684.7 (1)
0x680|               02                              |     .          |      [4]: 2 transition_type 0x685-0x685.7 (1)
0x680|                  01                           |      .         |      [5]: 1 transition_type 0x686-0x686.7 (1)
0x680|                     02                        |       .        |      [6]: 2 transition_type 0x687-0x687.7 (1)
0x680|                        01                     |        .       |      [7]: 1 transition_type 0x688-0x688.7 (1)
0x680|                           02                  |         .      |      [8]: 2 transition_type 0x689-0x689.7 (1)
0x680|                              01               |          .     |      [9]: 1 transition_type 0x68a-0x68a.7 (1)
0x680|                                 02            |           .    |      [10]: 2 transition_type 0x68b-0x68b.7 (1)
0x680|                                    01         |            .   |      [11]: 1 transition_type 0x68c-0x68c.7 (1)
0x680|                                       02      |             .  |      [12]: 2 transition_type 0x68d-0x68d.7 (1)
0x680|                                          01   |              . |      [13]: 1 transition_type 0x68e-0x68e.7 (1)
0x680|                                             02|               .|      [14]: 2 transition_type 0x68f-0x68f.7 (1)
0x690|01                                             |.               |      [15]: 1 transition_type 0x690-0x690.7 (1)
0x690|   02                                          | .              |      [16]: 2 transition_type 0x691-0x691.7 (1)
0x690|      01                                       |  .             |      [17]: 1 transition_type 0x692-0x692.7 (1)
0x690|         02                                    |   .            |      [18]: 2 transition_type 0x693-0x693.7 (1)
0x690|            01                                 |    .           |      [19]: 1 transition_type 0x694-0x694.7 (1)
0x690|               02                              |     .          |      [20]: 2 transition_type 0x695-0x695.7 (1)
0x690|                  01                           |      .         |      [21]: 1 transition_type 0x696-0x696.7 (1)
0x690|                     02                        |       .        |      [22]: 2 transition_type 0x697-0x697.7 (1)
0x690|                        01                     |        .       |      [23]: 1 transition_type 0x698-0x698.7 (1)
0x690|                           02                  |         .      |      [24]: 2 transition_type 0x699-0x699.7 (1)
0x690|                              01               |          .     |      [25]: 1 transition_type 0x69a-0x69a.7 (1)
0x690|                                 02            |           .    |      [26]: 2 transition_type 0x69b-0x69b.7 (1)
0x690|                                    01         |            .   |      [27]: 1 transition_type 0x69c-0x69c.7 (1)
0x690|                                       02      |             .  |      [28]: 2 transition_type 0x69d-0x69d.7 (1)
0x690|                                          01   |              . |      [29]: 1 transition_type 0x69e-0x69e.7 (1)
0x690|                                             02|               .|      [30]: 2 transition_type 0x69f-0x69f.7 (1)
0x6a0|01                                             |.               |      [31]: 1 transition_type 0x6a0-0x6a0.7 (1)
0x6a0|   02                                          | .              |      [32]: 2 transition_type 0x6a1-0x6a1.7 (1)
0x6a0|      01                                       |  .             |      [33]: 1 transition_type 0x6a2-0x6a2.7 (1)
0x6a0|         02                                    |   .            |      [34]: 2 transition_type 0x6a3-0x6a3.7 (1)
0x6a0|            01                                 |    .           |      [35]: 1 transition_type 0x6a4-0x6a4.7 (1)
0x6a0|               02                              |     .          |      [36]: 2 transition_type 0x6a5-0x6a5.7 (1)
0x6a0|                  01                           |      .         |      [37]: 1 transition_type 0x6a6-0x6a6.7 (1)
0x6a0|                     02                        |       .        |      [38]: 2 transition_type 0x6a7-0x6a7.7 (1)
0x6a0|                        01                     |        .       |      [39]: 1 transition_type 0x6a8-0x6a8.7 (1)
0x6a0|                           02                  |         .      |      [40]: 2 transition_type 0x6a9-0x6a9.7 (1)
0x6a0|                              01               |          .     |      [41]: 1 transition_type 0x6aa-0x6aa.7 (1)
0x6a0|                                 02            |           .    |      [42]: 2 transition_type 0x6ab-0x6ab.7 (1)
0x6a0|                                    01         |            .   |      [43]: 1 transition_type 0x6ac-0x6ac.7 (1)
0x6a0|                                       02      |             .  |      [44]: 2 transition_type 0x6ad-0x6ad.7 (1)
0x6a0|                                          01   |              . |      [45]: 1 transition_type 0x6ae-0x6ae.7 (1)
0x6a0|                                             02|               .|      [46]: 2 transition_type 0x6af-0x6af.7 (1)
0x6b0|01                                             |.               |      [47]: 1 transition_type 0x6b0-0x6b0.7 (1)
0x6b0|   02                                          | .              |      [48]: 2 transition_type 0x6b1-0x6b1.7 (1)
0x6b0|      03                                       |  .             |      [49]: 3 transition_type 0x6b2-0x6b2.7 (1)
0x6b0|         04                                    |   .            |      [50]: 4 transition_type 0x6b3-0x6b3.7 (1)
0x6b0|            02                                 |    .           |      [51]: 2 transition_type 0x6b4-0x6b4.7 (1)
0x6b0|               01                              |     .          |      [52]: 1 transition_type 0x6b5-0x6b5.7 (1)
0x6b0|                  02                           |      .         |      [53]: 2 transition_type 0x6b6-0x6b6.7 (1)
0x6b0|                     01                        |       .        |      [54]: 1 transition_type 0x6b7-0x6b7.7 (1)
0x6b0|                        02                     |        .       |      [55]: 2 transition_type 0x6b8-0x6b8.7 (1)
0x6b0|                           01                  |         .      |      [56]: 1 transition_type 0x6b9-0x6b9.7 (1)
0x6b0|                              02               |          .     |      [57]: 2 transition_type 0x6ba-0x6ba.7 (1)
0x6b0|                                 01            |           .    |      [58]: 1 transition_type 0x6bb-0x6bb.7 (1)
0x6b0|                                    02         |            .   |      [59]: 2 transition_type 0x6bc-0x6bc.7 (1)
0x6b0|                                       01      |             .  |      [60]: 1 transition_type 0x6bd-0x6bd.7 (1)
0x6b0|                                          02   |              . |      [61]: 2 transition_type 0x6be-0x6be.7 (1)
0x6b0|                                             01|               .|      [62]: 1 transition_type 0x6bf-0x6bf.7 (1)
0x6c0|02                                             |.               |      [63]: 2 transition_type 0x6c0-0x6c0.7 (1)
0x6c0|   01                                          | .              |      [64]: 1 transition_type 0x6c1-0x6c1.7 (1)
0x6c0|      02                                       |  .             |      [65]: 2 transition_type 0x6c2-0x6c2.7 (1)
0x6c0|         01                                    |   .            |      [66]: 1 transition_type 0x6c3-0x6c3.7 (1)
0x6c0|            02                                 |    .           |      [67]: 2 transition_type 0x6c4-0x6c4.7 (1)
0x6c0|               01                              |     .          |      [68]: 1 transition_type 0x6c5-0x6c5.7 (1)
0x6c0|                  02                           |      .         |      [69]: 2 transition_type 0x6c6-0x6c6.7 (1)
0x6c0|                     01                        |       .        |      [70]: 1 transition_type 0x6c7-0x6c7.7 (1)
0x6c0|                        02                     |        .       |      [71]: 2 transition_type 0x6c8-0x6c8.7 (1)
0x6c0|                           01                  |         .      |      [72]: 1 transition_type 0x6c9-0x6c9.7 (1)
0x6c0|                              02               |          .     |      [73]: 2 transition_type 0x6ca-0x6ca.7 (1)
0x6c0|                                 01            |           .    |      [74]: 1 transition_type 0x6cb-0x6cb.7 (1)
0x6c0|                                    02         |            .   |      [75]: 2 transition_type 0x6cc-0x6cc.7 (1)
0x6c0|                                       01      |             .  |      [76]: 1 transition_type 0x6cd-0x6cd.7 (1)
0x6c0|                                          02   |              . |      [77]: 2 transition_type 0x6ce-0x6ce.7 (1)
0x6c0|                                             01|               .|      [78]: 1 transition_type 0x6cf-0x6cf.7 (1)
0x6d0|02                                             |.               |      [79]: 2 transition_type 0x6d0-0x6d0.7 (1)
0x6d0|   01                                          | .              |      [80]: 1 transition_type 0x6d1-0x6d1.7 (1)
0x6d0|      02                                       |  .             |      [81]: 2 transition_type 0x6d2-0x6d2.7 (1)
0x6d0|         01                                    |   .            |      [82]: 1 transition_type 0x6d3-0x6d3.7 (1)
0x6d0|            02                                 |    .           |      [83]: 2 transition_type 0x6d4-0x6d4.7 (1)
0x6d0|               01                              |     .          |      [84]: 1 transition_type 0x6d5-0x6d5.7 (1)
0x6d0|                  02                           |      .         |      [85]: 2 transition_type 0x6d6-0x6d6.7 (1)
0x6d0|                     01                        |       .        |      [86]: 1 transition_type 0x6d7-0x6d7.7 (1)
0x6d0|                        02                     |        .       |      [87]: 2 transition_type 0x6d8-0x6d8.7 (1)
0x6d0|                           01                  |         .      |      [88]: 1 transition_type 0x6d9-0x6d9.7 (1)
0x6d0|                              02               |          .     |      [89]: 2 transition_type 0x6da-0x6da.7 (1)
0x6d0|                                 01            |           .    |      [90]: 1 transition_type 0x6db-0x6db.7 (1)
0x6d0|                                    02         |            .   |      [91]: 2 transition_type 0x6dc-0x6dc.7 (1)
0x6d0|                                       01      |             .  |      [92]: 1 transition_type 0x6dd-0x6dd.7 (1)
0x6d0|                                          02   |              . |      [93]: 2 transition_type 0x6de-0x6de.7 (1)
0x6d0|                                             05|               .|      [94]: 5 transition_type 0x6df-0x6df.7 (1)
0x6e0|02                                             |.               |      [95]: 2 transition_type 0x6e0-0x6e0.7 (1)
0x6e0|   05                                          | .              |      [96]: 5 transition_type 0x6e1-0x6e1.7 (1)
0x6e0|      02                                       |  .             |      [97]: 2 transition_type 0x6e2-0x6e2.7 (1)
0x6e0|         02                                    |   .            |      [98]: 2 transition_type 0x6e3-0x6e3.7 (1)
     |                                               |                |    local_time_type_records[0:6]: 0x6e4-0x707.7 (36)
     |                                               |                |      [0]{}: local_time_type 0x6e4-0x6e9.7 (6)
0x6e0|            ff ff ad 50                        |    ...P        |        utoff: -21168 (valid) 0x6e4-0x6e7.7 (4)
0x6e0|                        00                     |        .       |        dst: 0 (valid) 0x6e8-0x6e8.7 (1)
0x6e0|                           00                  |         .      |        idx: 0 (valid) 0x6e9-0x6e9.7 (1)
     |                                               |                |      [1]{}: local_time_type 0x6ea-0x6ef.7 (6)
0x6e0|                              ff ff b2 a8      |          ....  |        utoff: -19800 (valid) 0x6ea-0x6ed.7 (4)
0x6e0|                                          01   |              . |        dst: 1 (valid) 0x6ee-0x6ee.7 (1)
0x6e0|                                             04|               .|        idx: 4 (valid) 0x6ef-0x6ef.7 (1)
     |                                               |                |      [2]{}: local_time_type 0x6f0-0x6f5.7 (6)
0x6f0|ff ff ab a0                                    |....            |        utoff: -21600 (valid) 0x6f0-0x6f3.7 (4)
0x6f0|            00                                 |    .           |        dst: 0 (valid) 0x6f4-0x6f4.7 (1)
0x6f0|               0a                              |     .          |        idx: 10 (valid) 0x6f5-0x6f5.7 (1)
     |                                               |                |      [3]{}: local_time_type 0x6f6-0x6fb.7 (6)
0x6f0|                  ff ff b9 b0                  |      ....      |        utoff: -18000 (valid) 0x6f6-0x6f9.7 (4)
0x6f0|                              01               |          .     |        dst: 1 (valid) 0x6fa-0x6fa.7 (1)
0x6f0|                                 0e            |           .    |        idx: 14 (valid) 0x6fb-0x6fb.7 (1)
     |                                               |                |      [4]{}: local_time_type 0x6fc-0x701.7 (6)
0x6f0|                                    ff ff b9 b0|            ....|        utoff: -18000 (valid) 0x6fc-0x6ff.7 (4)
0x700|01                                             |.               |        dst: 1 (valid) 0x700-0x700.7 (1)
0x700|   12                                          | .              |        idx: 18 (valid) 0x701-0x701.7 (1)
     |                                               |                |      [5]{}: local_time_type 0x702-0x707.7 (6)
0x700|      ff ff b9 b0                              |  ....          |        utoff: -18000 (valid) 0x702-0x705.7 (4)
0x700|                  01                           |      .         |        dst: 1 (valid) 0x706-0x706.7 (1)
0x700|                     16                        |       .        |        idx: 22 (valid) 0x707-0x707.7 (1)
     |                                               |                |    time_zone_designations[0:6]: 0x708-0x721.7 (26)
0x700|                        4c 4d 54 00            |        LMT.    |      [0]: "LMT" time_zone_designation 0x708-0x70b.7 (4)
0x700|                                    2d 30 35 33|            -053|      [1]: "-0530" time_zone_designation 0x70c-0x711.7 (6)
0x710|30 00                                          |0.              |
0x710|      43 53 54 00                              |  CST.          |      [2]: "CST" time_zone_designation 0x712-0x715.7 (4)
0x710|                  43 57 54 00                  |      CWT.      |      [3]: "CWT" time_zone_designation 0x716-0x719.7 (4)
0x710|                              43 50 54 00      |          CPT.  |      [4]: "CPT" time_zone_designation 0x71a-0x71d.7 (4)
0x710|                                          43 44|              CD|      [5]: "CDT" time_zone_designation 0x71e-0x721.7 (4)
0x720|54 00                                          |T.              |
     |                                               |                |    leap_second_records[0:27]: 0x722-0x865.7 (324)
     |                                               |                |      [0]{}: leap_second_record 0x722-0x72d.7 (12)
0x720|      00 00 00 00 04 b2 58 00                  |  ......X.      |        occur: "1972-07-01T00:00:00Z" (78796800) 0x722-0x729.7 (8)
0x720|                              00 00 00 01      |          ....  |        corr: 1 0x72a-0x72d.7 (4)
     |                                               |                |      [1]{}: leap_second_record 0x72e-0x739.7 (12)
0x720|                                          00 00|              ..|        occur: "1973-01-01T00:00:01Z" (94694401) 0x72e-0x735.7 (8)
0x730|00 00 05 a4 ec 01                              |......          |
0x730|                  00 00 00 02                  |      ....      |        corr: 2 0x736-0x739.7 (4)
     |                                               |                |      [2]{}: leap_second_record 0x73a-0x745.7 (12)
0x730|                              00 00 00 00 07 86|          ......|        occur: "1974-01-01T00:00:02Z" (126230402) 0x73a-0x741.7 (8)
0x740|1f 82                                          |..              |
0x740|      00 00 00 03                              |  ....          |        corr: 3 0x742-0x745.7 (4)
     |                                               |                |      [3]{}: leap_second_record 0x746-0x751.7 (12)
0x740|                  00 00 00 00 09 67 53 03      |      .....gS.  |        occur: "1975-01-01T00:00:03Z" (157766403) 0x746-0x74d.7 (8)
0x740|                                          00 00|              ..|        corr: 4 0x74e-0x751.7 (4)
0x750|00 04                                          |..              |
     |                                               |                |      [4]{}: leap_second_record 0x752-0x75d.7 (12)
0x750|      00 00 00 00 0b 48 86 84                  |  .....H..      |        occur: "1976-01-01T00:00:04Z" (189302404) 0x752-0x759.7 (8)
0x750|                              00 00 00 05      |          ....  |        corr: 5 0x75a-0x75d.7 (4)
     |                                               |                |      [5]{}: leap_second_record 0x75e-0x769.7 (12)
0x750|                                          00 00|              ..|        occur: "1977-01-01T00:00:05Z" (220924805) 0x75e-0x765.7 (8)
0x760|00 00 0d 2b 0b 85                              |...+..          |
0x760|                  00 00 00 06                  |      ....      |        corr: 6 0x766-0x769.7 (4)
     |                                               |                |      [6]{}: leap_second_record 0x76a-0x775.7 (12)
0x760|                              00 00 00 00 0f 0c|          ......|        occur: "1978-01-01T00:00:06Z" (252460806) 0x76a-0x771.7 (8)
0x770|3f 06                                          |?.              |
0x770|      00 00 00 07                              |  ....          |        corr: 7 0x772-0x775.7 (4)
     |                                               |                |      [7]{}: leap_second_record 0x776-0x781.7 (12)
0x770|                  00 00 00 00 10 ed 72 87      |      ......r.  |        occur: "1979-01-01T00:00:07Z" (283996807) 0x776-0x77d.7 (8)
0x770|                                          00 00|              ..|        corr: 8 0x77e-0x781.7 (4)
0x780|00 08                                          |..              |
     |                                               |                |      [8]{}: leap_second_record 0x782-0x78d.7 (12)
0x780|      00 00 00 00 12 ce a6 08                  |  ........      |        occur: "1980-01-01T00:00:08Z" (315532808) 0x782-0x789.7 (8)
0x780|                              00 00 00 09      |          ....  |        corr: 9 0x78a-0x78d.7 (4)
     |                                               |                |      [9]{}: leap_second_record 0x78e-0x799.7 (12)
0x780|                                          00 00|              ..|        occur: "1981-07-01T00:00:09Z" (362793609) 0x78e-0x795.7 (8)
0x790|00 00 15 9f ca 89                              |......          |
0x790|                  00 00 00 0a                  |      ....      |        corr: 10 0x796-0x799.7 (4)
     |                                               |                |      [10]{}: leap_second_record 0x79a-0x7a5.7 (12)
0x790|                              00 00 00 00 17 80|          ......|        occur: "1982-07-01T00:00:10Z" (394329610) 0x79a-0x7a1.7 (8)
0x7a0|fe 0a                                          |..              |
0x7a0|      00 00 00 0b                              |  ....          |        corr: 11 0x7a2-0x7a5.7 (4)
     |                                               |                |      [11]{}: leap_second_record 0x7a6-0x7b1.7 (12)
0x7a0|                  00 00 00 00 19 62 31 8b      |      .....b1.  |        occur: "1983-07-01T00:00:11Z" (425865611) 0x7a6-0x7ad.7 (8)
0x7a0|                                          00 00|              ..|        corr: 12 0x7ae-0x7b1.7 (4)
0x7b0|00 0c                                          |..              |
     |                                               |                |      [12]{}: leap_second_record 0x7b2-0x7bd.7 (12)
0x7b0|      00 00 00 00 1d 25 ea 0c                  |  .....%..      |        occur: "1985-07-01T00:00:12Z" (489024012) 0x7b2-0x7b9.7 (8)
0x7b0|                              00 00 00 0d      |          ....  |        corr: 13 0x7ba-0x7bd.7 (4)
     |                                               |                |      [13]{}: leap_second_record 0x7be-0x7c9.7 (12)
0x7b0|                                          00 00|              ..|        occur: "1988-01-01T00:00:13Z" (567993613) 0x7be-0x7c5.7 (8)
0x7c0|00 00 21 da e5 0d                              |..!...          |
0x7c0|                  00 00 00 0e                  |      ....      |        corr: 14 0x7c6-0x7c9.7 (4)
     |                                               |                |      [14]{}: leap_second_record 0x7ca-0x7d5.7 (12)
0x7c0|                              00 00 00 00 25 9e|          ....%.|        occur: "1990-01-01T00:00:14Z" (631152014) 0x7ca-0x7d1.7 (8)
0x7d0|9d 8e                                          |..              |
0x7d0|      00 00 00 0f                              |  ....          |        corr: 15 0x7d2-0x7d5.7 (4)
     |                                               |                |      [15]{}: leap_second_record 0x7d6-0x7e1.7 (12)
0x7d0|                  00 00 00 00 27 7f d1 0f      |      ....'...  |        occur: "1991-01-01T00:00:15Z" (662688015) 0x7d6-0x7dd.7 (8)
0x7d0|                                          00 00|              ..|        corr: 16 0x7de-0x7e1.7 (4)
0x7e0|00 10                                          |..              |
     |                                               |                |      [16]{}: leap_second_record 0x7e2-0x7ed.7 (12)
0x7e0|      00 00 00 00 2a 50 f5 90                  |  ....*P..      |        occur: "1992-07-01T00:00:16Z" (709948816) 0x7e2-0x7e9.7 (8)
0x7e0|                              00 00 00 11      |          ....  |        corr: 17 0x7ea-0x7ed.7 (4)
     |                                               |                |      [17]{}: leap_second_record 0x7ee-0x7f9.7 (12)
0x7e0|                                          00 00|              ..|        occur: "1993-07-01T00:00:17Z" (741484817) 0x7ee-0x7f5.7 (8)
0x7f0|00 00 2c 32 29 11                              |..,2).          |
0x7f0|                  00 00 00 12                  |      ....      |        corr: 18 0x7f6-0x7f9.7 (4)
     |                                               |                |      [18]{}: leap_second_record 0x7fa-0x805.7 (12)
0x7f0|                              00 00 00 00 2e 13|          ......|        occur: "1994-07-01T00:00:18Z" (773020818) 0x7fa-0x801.7 (8)
0x800|5c 92                                          |\.              |
0x800|      00 00 00 13                              |  ....          |        corr: 19 0x802-0x805.7 (4)
     |                                               |                |      [19]{}: leap_second_record 0x806-0x811.7 (12)
0x800|                  00 00 00 00 30 e7 24 13      |      ....0.$.  |        occur: "1996-01-01T00:00:19Z" (820454419) 0x806-0x80d.7 (8)
0x800|                                          00 00|              ..|        corr: 20 0x80e-0x811.7 (4)
0x810|00 14                                          |..              |
     |                                               |                |      [20]{}: leap_second_record 0x812-0x81d.7 (12)
0x810|      00 00 00 00 33 b8 48 94                  |  ....3.H.      |        occur: "1997-07-01T00:00:20Z" (867715220) 0x812-0x819.7 (8)
0x810|                              00 00 00 15      |          ....  |        corr: 21 0x81a-0x81d.7 (4)
     |                                               |                |      [21]{}: leap_second_record 0x81e-0x829.7 (12)
0x810|                                          00 00|              ..|        occur: "1999-01-01T00:00:21Z" (915148821) 0x81e-0x825.7 (8)
0x820|00 00 36 8c 10 15                              |..6...          |
0x820|                  00 00 00 16                  |      ....      |        corr: 22 0x826-0x829.7 (4)
     |                                               |                |      [22]{}: leap_second_record 0x82a-0x835.7 (12)
0x820|                              00 00 00 00 43 b7|          ....C.|        occur: "2006-01-01T00:00:22Z" (1136073622) 0x82a-0x831.7 (8)
0x830|1b 96                                          |..              |
0x830|      00 00 00 17                              |  ....          |        corr: 23 0x832-0x835.7 (4)
     |                                               |                |      [23]{}: leap_second_record 0x836-0x841.7 (12)
0x830|                  00 00 00 00 49 5c 07 97      |      ....I\..  |        occur: "2009-01-01T00:00:23Z" (1230768023) 0x836-0x83d.7 (8)
0x830|                                          00 00|              ..|        corr: 24 0x83e-0x841.7 (4)
0x840|00 18                                          |..              |
     |                                               |                |      [24]{}: leap_second_record 0x842-0x84d.7 (12)
0x840|      00 00 00 00 4f ef 93 18                  |  ....O...      |        occur: "2012-07-01T00:00:24Z" (1341100824) 0x842-0x849.7 (8)
0x840|                              00 00 00 19      |          ....  |        corr: 25 0x84a-0x84d.7 (4)
     |                                               |                |      [25]{}: leap_second_record 0x84e-0x859.7 (12)
0x840|                                          00 00|              ..|        occur: "2015-07-01T00:00:25Z" (1435708825) 0x84e-0x855.7 (8)
0x850|00 00 55 93 2d 99                              |..U.-.          |
0x850|                  00 00 00 1a                  |      ....      |        corr: 26 0x856-0x859.7 (4)
     |                                               |                |      [26]{}: leap_second_record 0x85a-0x865.7 (12)
0x850|                              00 00 00 00 58 68|          ....Xh|        occur: "2017-01-01T00:00:26Z" (1483228826) 0x85a-0x861.7 (8)
0x860|46 9a                                          |F.              |
0x860|      00 00 00 1b                              |  ....          |        corr: 27 0x862-0x865.7 (4)
     |                                               |                |    standard_wall_indicators[0:6]: 0x866-0x86b.7 (6)
0x860|                  00                           |      .         |      [0]: 0 standard_wall_indicator (valid) 0x866-0x866.7 (1)
0x860|                     00                        |       .        |      [1]: 0 standard_wall_indicator (valid) 0x867-0x867.7 (1)
0x860|                        00                     |        .       |      [2]: 0 standard_wall_indicator (valid) 0x868-0x868.7 (1)
0x860|                           00                  |         .      |      [3]: 0 standard_wall_indicator (valid) 0x869-0x869.7 (1)
0x860|                              01               |          .     |      [4]: 1 standard_wall_indicator (valid) 0x86a-0x86a.7 (1)
0x860|                                 00            |           .    |      [5]: 0 standard_wall_indicator (valid) 0x86b-0x86b.7 (1)
     |                                               |                |    ut_local_indicators[0:6]: 0x86c-0x871.7 (6)
0x860|                                    00         |            .   |      [0]: 0 ut_local_indicator (valid) 0x86c-0x86c.7 (1)
0x860|                                       00      |             .  |      [1]: 0 ut_local_indicator (valid) 0x86d-0x86d.7 (1)
0x860|                                          00   |              . |      [2]: 0 ut_local_indicator (valid) 0x86e-0x86e.7 (1)
0x860|                                             00|               .|      [3]: 0 ut_local_indicator (valid) 0x86f-0x86f.7 (1)
0x870|01                                             |.               |      [4]: 1 ut_local_indicator (valid) 0x870-0x870.7 (1)
0x870|   00                                          | .              |      [5]: 0 ut_local_indicator (valid) 0x871-0x871.7 (1)
     |                                               |                |  footer{}: 0x872-0x873.7 (2)
0x870|      0a                                       |  .             |    nl1: 10 (valid) 0x872-0x872.7 (1)
     |                                               |                |    tz_string: "" 0x873-NA (0)
0x870|         0a|                                   |   .|           |    nl2: 10 (valid) 0x873-0x873.7 (1)
