$ fq -d tzif dv Berlin
     |00 01 02 03 04 05 06 07 08 09 0a 0b 0c 0d 0e 0f|0123456789abcdef|.{}: Berlin (tzif) 0x0-0x8fa (2298)
     |                                               |                |  v1header{}: 0x0-0x2c (44)
0x000|54 5a 69 66                                    |TZif            |    magic: 0x545a6966 (valid) 0x0-0x4 (4)
0x000|            32                                 |    2           |    ver: "2" (0x32) (valid) 0x4-0x5 (1)
0x000|               00 00 00 00 00 00 00 00 00 00 00|     ...........|    reserved: raw bits 0x5-0x14 (15)
0x010|00 00 00 00                                    |....            |
0x010|            00 00 00 09                        |    ....        |    isutcnt: 9 0x14-0x18 (4)
0x010|                        00 00 00 09            |        ....    |    isstdcnt: 9 0x18-0x1c (4)
0x010|                                    00 00 00 00|            ....|    leapcnt: 0 0x1c-0x20 (4)
0x020|00 00 00 8f                                    |....            |    timecnt: 143 0x20-0x24 (4)
0x020|            00 00 00 09                        |    ....        |    typecnt: 9 0x24-0x28 (4)
0x020|                        00 00 00 12            |        ....    |    charcnt: 18 0x28-0x2c (4)
     |                                               |                |  v1datablock{}: 0x2c-0x351 (805)
     |                                               |                |    transition_times[0:143]: 0x2c-0x268 (572)
0x020|                                    80 00 00 00|            ....|      [0]: "1901-12-13T20:45:52Z" (-2147483648) transition_time 0x2c-0x30 (4)
0x030|9b 0c 17 60                                    |...`            |      [1]: "1916-04-30T22:00:00Z" (-1693706400) transition_time 0x30-0x34 (4)
0x030|            9b d5 da f0                        |    ....        |      [2]: "1916-09-30T23:00:00Z" (-1680483600) transition_time 0x34-0x38 (4)
0x030|                        9c d9 ae 90            |        ....    |      [3]: "1917-04-16T01:00:00Z" (-1663455600) transition_time 0x38-0x3c (4)
0x030|                                    9d a4 b5 90|            ....|      [4]: "1917-09-17T01:00:00Z" (-1650150000) transition_time 0x3c-0x40 (4)
0x040|9e b9 90 90                                    |....            |      [5]: "1918-04-15T01:00:00Z" (-1632006000) transition_time 0x40-0x44 (4)
0x040|            9f 84 97 90                        |    ....        |      [6]: "1918-09-16T01:00:00Z" (-1618700400) transition_time 0x44-0x48 (4)
0x040|                        c8 09 71 90            |        ..q.    |      [7]: "1940-04-01T01:00:00Z" (-938905200) transition_time 0x48-0x4c (4)
0x040|                                    cc e7 4b 10|            ..K.|      [8]: "1942-11-02T01:00:00Z" (-857257200) transition_time 0x4c-0x50 (4)
0x050|cd a9 17 90                                    |....            |      [9]: "1943-03-29T01:00:00Z" (-844556400) transition_time 0x50-0x54 (4)
0x050|            ce a2 43 10                        |    ..C.        |      [10]: "1943-10-04T01:00:00Z" (-828226800) transition_time 0x54-0x58 (4)
0x050|                        cf 92 34 10            |        ..4.    |      [11]: "1944-04-03T01:00:00Z" (-812502000) transition_time 0x58-0x5c (4)
0x050|                                    d0 82 25 10|            ..%.|      [12]: "1944-10-02T01:00:00Z" (-796777200) transition_time 0x5c-0x60 (4)
0x060|d1 72 16 10                                    |.r..            |      [13]: "1945-04-02T01:00:00Z" (-781052400) transition_time 0x60-0x64 (4)
0x060|            d1 b6 96 00                        |    ....        |      [14]: "1945-05-24T00:00:00Z" (-776563200) transition_time 0x64-0x68 (4)
0x060|                        d2 58 be 80            |        .X..    |      [15]: "1945-09-24T00:00:00Z" (-765936000) transition_time 0x68-0x6c (4)
0x060|                                    d2 a1 4f 10|            ..O.|      [16]: "1945-11-18T01:00:00Z" (-761180400) transition_time 0x6c-0x70 (4)
0x070|d3 63 1b 90                                    |.c..            |      [17]: "1946-04-14T01:00:00Z" (-748479600) transition_time 0x70-0x74 (4)
0x070|            d4 4b 23 90                        |    .K#.        |      [18]: "1946-10-07T01:00:00Z" (-733273200) transition_time 0x74-0x78 (4)
0x070|                        d5 39 d1 20            |        .9.     |      [19]: "1947-04-06T02:00:00Z" (-717631200) transition_time 0x78-0x7c (4)
0x070|                                    d5 67 e7 90|            .g..|      [20]: "1947-05-11T01:00:00Z" (-714610800) transition_time 0x7c-0x80 (4)
0x080|d5 a8 73 00                                    |..s.            |      [21]: "1947-06-29T00:00:00Z" (-710380800) transition_time 0x80-0x84 (4)
0x080|            d6 29 b4 10                        |    .)..        |      [22]: "1947-10-05T01:00:00Z" (-701910000) transition_time 0x84-0x88 (4)
0x080|                        d7 2c 1a 10            |        .,..    |      [23]: "1948-04-18T01:00:00Z" (-684975600) transition_time 0x88-0x8c (4)
0x080|                                    d8 09 96 10|            ....|      [24]: "1948-10-03T01:00:00Z" (-670460400) transition_time 0x8c-0x90 (4)
0x090|d9 02 c1 90                                    |....            |      [25]: "1949-04-10T01:00:00Z" (-654130800) transition_time 0x90-0x94 (4)
0x090|            d9 e9 78 10                        |    ..x.        |      [26]: "1949-10-02T01:00:00Z" (-639010800) transition_time 0x94-0x98 (4)
0x090|                        13 4d 44 10            |        .MD.    |      [27]: "1980-04-06T01:00:00Z" (323830800) transition_time 0x98-0x9c (4)
0x090|                                    14 33 fa 90|            .3..|      [28]: "1980-09-28T01:00:00Z" (338950800) transition_time 0x9c-0xa0 (4)
0x0a0|15 23 eb 90                                    |.#..            |      [29]: "1981-03-29T01:00:00Z" (354675600) transition_time 0xa0-0xa4 (4)
0x0a0|            16 13 dc 90                        |    ....        |      [30]: "1981-09-27T01:00:00Z" (370400400) transition_time 0xa4-0xa8 (4)
0x0a0|                        17 03 cd 90            |        ....    |      [31]: "1982-03-28T01:00:00Z" (386125200) transition_time 0xa8-0xac (4)
0x0a0|                                    17 f3 be 90|            ....|      [32]: "1982-09-26T01:00:00Z" (401850000) transition_time 0xac-0xb0 (4)
0x0b0|18 e3 af 90                                    |....            |      [33]: "1983-03-27T01:00:00Z" (417574800) transition_time 0xb0-0xb4 (4)
0x0b0|            19 d3 a0 90                        |    ....        |      [34]: "1983-09-25T01:00:00Z" (433299600) transition_time 0xb4-0xb8 (4)
0x0b0|                        1a c3 91 90            |        ....    |      [35]: "1984-03-25T01:00:00Z" (449024400) transition_time 0xb8-0xbc (4)
0x0b0|                                    1b bc bd 10|            ....|      [36]: "1984-09-30T01:00:00Z" (465354000) transition_time 0xbc-0xc0 (4)
0x0c0|1c ac ae 10                                    |....            |      [37]: "1985-03-31T01:00:00Z" (481078800) transition_time 0xc0-0xc4 (4)
0x0c0|            1d 9c 9f 10                        |    ....        |      [38]: "1985-09-29T01:00:00Z" (496803600) transition_time 0xc4-0xc8 (4)
0x0c0|                        1e 8c 90 10            |        ....    |      [39]: "1986-03-30T01:00:00Z" (512528400) transition_time 0xc8-0xcc (4)
0x0c0|                                    1f 7c 81 10|            .|..|      [40]: "1986-09-28T01:00:00Z" (528253200) transition_time 0xcc-0xd0 (4)
0x0d0|20 6c 72 10                                    | lr.            |      [41]: "1987-03-29T01:00:00Z" (543978000) transition_time 0xd0-0xd4 (4)
0x0d0|            21 5c 63 10                        |    !\c.        |      [42]: "1987-09-27T01:00:00Z" (559702800) transition_time 0xd4-0xd8 (4)
0x0d0|                        22 4c 54 10            |        "LT.    |      [43]: "1988-03-27T01:00:00Z" (575427600) transition_time 0xd8-0xdc (4)
0x0d0|                                    23 3c 45 10|            #<E.|      [44]: "1988-09-25T01:00:00Z" (591152400) transition_time 0xdc-0xe0 (4)
0x0e0|24 2c 36 10                                    |$,6.            |      [45]: "1989-03-26T01:00:00Z" (606877200) transition_time 0xe0-0xe4 (4)
0x0e0|            25 1c 27 10                        |    %.'.        |      [46]: "1989-09-24T01:00:00Z" (622602000) transition_time 0xe4-0xe8 (4)
0x0e0|                        26 0c 18 10            |        &...    |      [47]: "1990-03-25T01:00:00Z" (638326800) transition_time 0xe8-0xec (4)
0x0e0|                                    27 05 43 90|            '.C.|      [48]: "1990-09-30T01:00:00Z" (654656400) transition_time 0xec-0xf0 (4)
0x0f0|27 f5 34 90                                    |'.4.            |      [49]: "1991-03-31T01:00:00Z" (670381200) transition_time 0xf0-0xf4 (4)
0x0f0|            28 e5 25 90                        |    (.%.        |      [50]: "1991-09-29T01:00:00Z" (686106000) transition_time 0xf4-0xf8 (4)
0x0f0|                        29 d5 16 90            |        )...    |      [51]: "1992-03-29T01:00:00Z" (701830800) transition_time 0xf8-0xfc (4)
0x0f0|                                    2a c5 07 90|            *...|      [52]: "1992-09-27T01:00:00Z" (717555600) transition_time 0xfc-0x100 (4)
0x100|2b b4 f8 90                                    |+...            |      [53]: "1993-03-28T01:00:00Z" (733280400) transition_time 0x100-0x104 (4)
0x100|            2c a4 e9 90                        |    ,...        |      [54]: "1993-09-26T01:00:00Z" (749005200) transition_time 0x104-0x108 (4)
0x100|                        2d 94 da 90            |        -...    |      [55]: "1994-03-27T01:00:00Z" (764730000) transition_time 0x108-0x10c (4)
0x100|                                    2e 84 cb 90|            ....|      [56]: "1994-09-25T01:00:00Z" (780454800) transition_time 0x10c-0x110 (4)
0x110|2f 74 bc 90                                    |/t..            |      [57]: "1995-03-26T01:00:00Z" (796179600) transition_time 0x110-0x114 (4)
0x110|            30 64 ad 90                        |    0d..        |      [58]: "1995-09-24T01:00:00Z" (811904400) transition_time 0x114-0x118 (4)
0x110|                        31 5d d9 10            |        1]..    |      [59]: "1996-03-31T01:00:00Z" (828234000) transition_time 0x118-0x11c (4)
0x110|                                    32 72 b4 10|            2r..|      [60]: "1996-10-27T01:00:00Z" (846378000) transition_time 0x11c-0x120 (4)
0x120|33 3d bb 10                                    |3=..            |      [61]: "1997-03-30T01:00:00Z" (859683600) transition_time 0x120-0x124 (4)
0x120|            34 52 96 10                        |    4R..        |      [62]: "1997-10-26T01:00:00Z" (877827600) transition_time 0x124-0x128 (4)
0x120|                        35 1d 9d 10            |        5...    |      [63]: "1998-03-29T01:00:00Z" (891133200) transition_time 0x128-0x12c (4)
0x120|                                    36 32 78 10|            62x.|      [64]: "1998-10-25T01:00:00Z" (909277200) transition_time 0x12c-0x130 (4)
0x130|36 fd 7f 10                                    |6...            |      [65]: "1999-03-28T01:00:00Z" (922582800) transition_time 0x130-0x134 (4)
0x130|            38 1b 94 90                        |    8...        |      [66]: "1999-10-31T01:00:00Z" (941331600) transition_time 0x134-0x138 (4)
0x130|                        38 dd 61 10            |        8.a.    |      [67]: "2000-03-26T01:00:00Z" (954032400) transition_time 0x138-0x13c (4)
0x130|                                    39 fb 76 90|            9.v.|      [68]: "2000-10-29T01:00:00Z" (972781200) transition_time 0x13c-0x140 (4)
0x140|3a bd 43 10                                    |:.C.            |      [69]: "2001-03-25T01:00:00Z" (985482000) transition_time 0x140-0x144 (4)
0x140|            3b db 58 90                        |    ;.X.        |      [70]: "2001-10-28T01:00:00Z" (1004230800) transition_time 0x144-0x148 (4)
0x140|                        3c a6 5f 90            |        <._.    |      [71]: "2002-03-31T01:00:00Z" (1017536400) transition_time 0x148-0x14c (4)
0x140|                                    3d bb 3a 90|            =.:.|      [72]: "2002-10-27T01:00:00Z" (1035680400) transition_time 0x14c-0x150 (4)
0x150|3e 86 41 90                                    |>.A.            |      [73]: "2003-03-30T01:00:00Z" (1048986000) transition_time 0x150-0x154 (4)
0x150|            3f 9b 1c 90                        |    ?...        |      [74]: "2003-10-26T01:00:00Z" (1067130000) transition_time 0x154-0x158 (4)
0x150|                        40 66 23 90            |        @f#.    |      [75]: "2004-03-28T01:00:00Z" (1080435600) transition_time 0x158-0x15c (4)
0x150|                                    41 84 39 10|            A.9.|      [76]: "2004-10-31T01:00:00Z" (1099184400) transition_time 0x15c-0x160 (4)
0x160|42 46 05 90                                    |BF..            |      [77]: "2005-03-27T01:00:00Z" (1111885200) transition_time 0x160-0x164 (4)
0x160|            43 64 1b 10                        |    Cd..        |      [78]: "2005-10-30T01:00:00Z" (1130634000) transition_time 0x164-0x168 (4)
0x160|                        44 25 e7 90            |        D%..    |      [79]: "2006-03-26T01:00:00Z" (1143334800) transition_time 0x168-0x16c (4)
0x160|                                    45 43 fd 10|            EC..|      [80]: "2006-10-29T01:00:00Z" (1162083600) transition_time 0x16c-0x170 (4)
0x170|46 05 c9 90                                    |F...            |      [81]: "2007-03-25T01:00:00Z" (1174784400) transition_time 0x170-0x174 (4)
0x170|            47 23 df 10                        |    G#..        |      [82]: "2007-10-28T01:00:00Z" (1193533200) transition_time 0x174-0x178 (4)
0x170|                        47 ee e6 10            |        G...    |      [83]: "2008-03-30T01:00:00Z" (1206838800) transition_time 0x178-0x17c (4)
0x170|                                    49 03 c1 10|            I...|      [84]: "2008-10-26T01:00:00Z" (1224982800) transition_time 0x17c-0x180 (4)
0x180|49 ce c8 10                                    |I...            |      [85]: "2009-03-29T01:00:00Z" (1238288400) transition_time 0x180-0x184 (4)
0x180|            4a e3 a3 10                        |    J...        |      [86]: "2009-10-25T01:00:00Z" (1256432400) transition_time 0x184-0x188 (4)
0x180|                        4b ae aa 10            |        K...    |      [87]: "2010-03-28T01:00:00Z" (1269738000) transition_time 0x188-0x18c (4)
0x180|                                    4c cc bf 90|            L...|      [88]: "2010-10-31T01:00:00Z" (1288486800) transition_time 0x18c-0x190 (4)
0x190|4d 8e 8c 10                                    |M...            |      [89]: "2011-03-27T01:00:00Z" (1301187600) transition_time 0x190-0x194 (4)
0x190|            4e ac a1 90                        |    N...        |      [90]: "2011-10-30T01:00:00Z" (1319936400) transition_time 0x194-0x198 (4)
0x190|                        4f 6e 6e 10            |        Onn.    |      [91]: "2012-03-25T01:00:00Z" (1332637200) transition_time 0x198-0x19c (4)
0x190|                                    50 8c 83 90|            P...|      [92]: "2012-10-28T01:00:00Z" (1351386000) transition_time 0x19c-0x1a0 (4)
0x1a0|51 57 8a 90                                    |QW..            |      [93]: "2013-03-31T01:00:00Z" (1364691600) transition_time 0x1a0-0x1a4 (4)
0x1a0|            52 6c 65 90                        |    Rle.        |      [94]: "2013-10-27T01:00:00Z" (1382835600) transition_time 0x1a4-0x1a8 (4)
0x1a0|                        53 37 6c 90            |        S7l.    |      [95]: "2014-03-30T01:00:00Z" (1396141200) transition_time 0x1a8-0x1ac (4)
0x1a0|                                    54 4c 47 90|            TLG.|      [96]: "2014-10-26T01:00:00Z" (1414285200) transition_time 0x1ac-0x1b0 (4)
0x1b0|55 17 4e 90                                    |U.N.            |      [97]: "2015-03-29T01:00:00Z" (1427590800) transition_time 0x1b0-0x1b4 (4)
0x1b0|            56 2c 29 90                        |    V,).        |      [98]: "2015-10-25T01:00:00Z" (1445734800) transition_time 0x1b4-0x1b8 (4)
0x1b0|                        56 f7 30 90            |        V.0.    |      [99]: "2016-03-27T01:00:00Z" (1459040400) transition_time 0x1b8-0x1bc (4)
0x1b0|                                    58 15 46 10|            X.F.|      [100]: "2016-10-30T01:00:00Z" (1477789200) transition_time 0x1bc-0x1c0 (4)
0x1c0|58 d7 12 90                                    |X...            |      [101]: "2017-03-26T01:00:00Z" (1490490000) transition_time 0x1c0-0x1c4 (4)
0x1c0|            59 f5 28 10                        |    Y.(.        |      [102]: "2017-10-29T01:00:00Z" (1509238800) transition_time 0x1c4-0x1c8 (4)
0x1c0|                        5a b6 f4 90            |        Z...    |      [103]: "2018-03-25T01:00:00Z" (1521939600) transition_time 0x1c8-0x1cc (4)
0x1c0|                                    5b d5 0a 10|            [...|      [104]: "2018-10-28T01:00:00Z" (1540688400) transition_time 0x1cc-0x1d0 (4)
0x1d0|5c a0 11 10                                    |\...            |      [105]: "2019-03-31T01:00:00Z" (1553994000) transition_time 0x1d0-0x1d4 (4)
0x1d0|            5d b4 ec 10                        |    ]...        |      [106]: "2019-10-27T01:00:00Z" (1572138000) transition_time 0x1d4-0x1d8 (4)
0x1d0|                        5e 7f f3 10            |        ^...    |      [107]: "2020-03-29T01:00:00Z" (1585443600) transition_time 0x1d8-0x1dc (4)
0x1d0|                                    5f 94 ce 10|            _...|      [108]: "2020-10-25T01:00:00Z" (1603587600) transition_time 0x1dc-0x1e0 (4)
0x1e0|60 5f d5 10                                    |`_..            |      [109]: "2021-03-28T01:00:00Z" (1616893200) transition_time 0x1e0-0x1e4 (4)
0x1e0|            61 7d ea 90                        |    a}..        |      [110]: "2021-10-31T01:00:00Z" (1635642000) transition_time 0x1e4-0x1e8 (4)
0x1e0|                        62 3f b7 10            |        b?..    |      [111]: "2022-03-27T01:00:00Z" (1648342800) transition_time 0x1e8-0x1ec (4)
0x1e0|                                    63 5d cc 90|            c]..|      [112]: "2022-10-30T01:00:00Z" (1667091600) transition_time 0x1ec-0x1f0 (4)
0x1f0|64 1f 99 10                                    |d...            |      [113]: "2023-03-26T01:00:00Z" (1679792400) transition_time 0x1f0-0x1f4 (4)
0x1f0|            65 3d ae 90                        |    e=..        |      [114]: "2023-10-29T01:00:00Z" (1698541200) transition_time 0x1f4-0x1f8 (4)
0x1f0|                        66 08 b5 90            |        f...    |      [115]: "2024-03-31T01:00:00Z" (1711846800) transition_time 0x1f8-0x1fc (4)
0x1f0|                                    67 1d 90 90|            g...|      [116]: "2024-10-27T01:00:00Z" (1729990800) transition_time 0x1fc-0x200 (4)
0x200|67 e8 97 90                                    |g...            |      [117]: "2025-03-30T01:00:00Z" (1743296400) transition_time 0x200-0x204 (4)
0x200|            68 fd 72 90                        |    h.r.        |      [118]: "2025-10-26T01:00:00Z" (1761440400) transition_time 0x204-0x208 (4)
0x200|                        69 c8 79 90            |        i.y.    |      [119]: "2026-03-29T01:00:00Z" (1774746000) transition_time 0x208-0x20c (4)
0x200|                                    6a dd 54 90|            j.T.|      [120]: "2026-10-25T01:00:00Z" (1792890000) transition_time 0x20c-0x210 (4)
0x210|6b a8 5b 90                                    |k.[.            |      [121]: "2027-03-28T01:00:00Z" (1806195600) transition_time 0x210-0x214 (4)
0x210|            6c c6 71 10                        |    l.q.        |      [122]: "2027-10-31T01:00:00Z" (1824944400) transition_time 0x214-0x218 (4)
0x210|                        6d 88 3d 90            |        m.=.    |      [123]: "2028-03-26T01:00:00Z" (1837645200) transition_time 0x218-0x21c (4)
0x210|                                    6e a6 53 10|            n.S.|      [124]: "2028-10-29T01:00:00Z" (1856394000) transition_time 0x21c-0x220 (4)
0x220|6f 68 1f 90                                    |oh..            |      [125]: "2029-03-25T01:00:00Z" (1869094800) transition_time 0x220-0x224 (4)
0x220|            70 86 35 10                        |    p.5.        |      [126]: "2029-10-28T01:00:00Z" (1887843600) transition_time 0x224-0x228 (4)
0x220|                        71 51 3c 10            |        qQ<.    |      [127]: "2030-03-31T01:00:00Z" (1901149200) transition_time 0x228-0x22c (4)
0x220|                                    72 66 17 10|            rf..|      [128]: "2030-10-27T01:00:00Z" (1919293200) transition_time 0x22c-0x230 (4)
0x230|73 31 1e 10                                    |s1..            |      [129]: "2031-03-30T01:00:00Z" (1932598800) transition_time 0x230-0x234 (4)
0x230|            74 45 f9 10                        |    tE..        |      [130]: "2031-10-26T01:00:00Z" (1950742800) transition_time 0x234-0x238 (4)
0x230|                        75 11 00 10            |        u...    |      [131]: "2032-03-28T01:00:00Z" (1964048400) transition_time 0x238-0x23c (4)
0x230|                                    76 2f 15 90|            v/..|      [132]: "2032-10-31T01:00:00Z" (1982797200) transition_time 0x23c-0x240 (4)
0x240|76 f0 e2 10                                    |v...            |      [133]: "2033-03-27T01:00:00Z" (1995498000) transition_time 0x240-0x244 (4)
0x240|            78 0e f7 90                        |    x...        |      [134]: "2033-10-30T01:00:00Z" (2014246800) transition_time 0x244-0x248 (4)
0x240|                        78 d0 c4 10            |        x...    |      [135]: "2034-03-26T01:00:00Z" (2026947600) transition_time 0x248-0x24c (4)
0x240|                                    79 ee d9 90|            y...|      [136]: "2034-10-29T01:00:00Z" (2045696400) transition_time 0x24c-0x250 (4)
0x250|7a b0 a6 10                                    |z...            |      [137]: "2035-03-25T01:00:00Z" (2058397200) transition_time 0x250-0x254 (4)
0x250|            7b ce bb 90                        |    {...        |      [138]: "2035-10-28T01:00:00Z" (2077146000) transition_time 0x254-0x258 (4)
0x250|                        7c 99 c2 90            |        |...    |      [139]: "2036-03-30T01:00:00Z" (2090451600) transition_time 0x258-0x25c (4)
0x250|                                    7d ae 9d 90|            }...|      [140]: "2036-10-26T01:00:00Z" (2108595600) transition_time 0x25c-0x260 (4)
0x260|7e 79 a4 90                                    |~y..            |      [141]: "2037-03-29T01:00:00Z" (2121901200) transition_time 0x260-0x264 (4)
0x260|            7f 8e 7f 90                        |    ....        |      [142]: "2037-10-25T01:00:00Z" (2140045200) transition_time 0x264-0x268 (4)
     |                                               |                |    transition_types[0:143]: 0x268-0x2f7 (143)
0x260|                        02                     |        .       |      [0]: 2 transition_type 0x268-0x269 (1)
0x260|                           01                  |         .      |      [1]: 1 transition_type 0x269-0x26a (1)
0x260|                              02               |          .     |      [2]: 2 transition_type 0x26a-0x26b (1)
0x260|                                 03            |           .    |      [3]: 3 transition_type 0x26b-0x26c (1)
0x260|                                    04         |            .   |      [4]: 4 transition_type 0x26c-0x26d (1)
0x260|                                       03      |             .  |      [5]: 3 transition_type 0x26d-0x26e (1)
0x260|                                          04   |              . |      [6]: 4 transition_type 0x26e-0x26f (1)
0x260|                                             03|               .|      [7]: 3 transition_type 0x26f-0x270 (1)
0x270|04                                             |.               |      [8]: 4 transition_type 0x270-0x271 (1)
0x270|   03                                          | .              |      [9]: 3 transition_type 0x271-0x272 (1)
0x270|      04                                       |  .             |      [10]: 4 transition_type 0x272-0x273 (1)
0x270|         03                                    |   .            |      [11]: 3 transition_type 0x273-0x274 (1)
0x270|            04                                 |    .           |      [12]: 4 transition_type 0x274-0x275 (1)
0x270|               03                              |     .          |      [13]: 3 transition_type 0x275-0x276 (1)
0x270|                  05                           |      .         |      [14]: 5 transition_type 0x276-0x277 (1)
0x270|                     01                        |       .        |      [15]: 1 transition_type 0x277-0x278 (1)
0x270|                        04                     |        .       |      [16]: 4 transition_type 0x278-0x279 (1)
0x270|                           03                  |         .      |      [17]: 3 transition_type 0x279-0x27a (1)
0x270|                              04               |          .     |      [18]: 4 transition_type 0x27a-0x27b (1)
0x270|                                 03            |           .    |      [19]: 3 transition_type 0x27b-0x27c (1)
0x270|                                    06         |            .   |      [20]: 6 transition_type 0x27c-0x27d (1)
0x270|                                       01      |             .  |      [21]: 1 transition_type 0x27d-0x27e (1)
0x270|                                          04   |              . |      [22]: 4 transition_type 0x27e-0x27f (1)
0x270|                                             03|               .|      [23]: 3 transition_type 0x27f-0x280 (1)
0x280|04                                             |.               |      [24]: 4 transition_type 0x280-0x281 (1)
0x280|   03                                          | .              |      [25]: 3 transition_type 0x281-0x282 (1)
0x280|      04                                       |  .             |      [26]: 4 transition_type 0x282-0x283 (1)
0x280|         07                                    |   .            |      [27]: 7 transition_type 0x283-0x284 (1)
0x280|            08                                 |    .           |      [28]: 8 transition_type 0x284-0x285 (1)
0x280|               07                              |     .          |      [29]: 7 transition_type 0x285-0x286 (1)
0x280|                  08                           |      .         |      [30]: 8 transition_type 0x286-0x287 (1)
0x280|                     07                        |       .        |      [31]: 7 transition_type 0x287-0x288 (1)
0x280|                        08                     |        .       |      [32]: 8 transition_type 0x288-0x289 (1)
0x280|                           07                  |         .      |      [33]: 7 transition_type 0x289-0x28a (1)
0x280|                              08               |          .     |      [34]: 8 transition_type 0x28a-0x28b (1)
0x280|                                 07            |           .    |      [35]: 7 transition_type 0x28b-0x28c (1)
0x280|                                    08         |            .   |      [36]: 8 transition_type 0x28c-0x28d (1)
0x280|                                       07      |             .  |      [37]: 7 transition_type 0x28d-0x28e (1)
0x280|                                          08   |              . |      [38]: 8 transition_type 0x28e-0x28f (1)
0x280|                                             07|               .|      [39]: 7 transition_type 0x28f-0x290 (1)
0x290|08                                             |.               |      [40]: 8 transition_type 0x290-0x291 (1)
0x290|   07                                          | .              |      [41]: 7 transition_type 0x291-0x292 (1)
0x290|      08                                       |  .             |      [42]: 8 transition_type 0x292-0x293 (1)
0x290|         07                                    |   .            |      [43]: 7 transition_type 0x293-0x294 (1)
0x290|            08                                 |    .           |      [44]: 8 transition_type 0x294-0x295 (1)
0x290|               07                              |     .          |      [45]: 7 transition_type 0x295-0x296 (1)
0x290|                  08                           |      .         |      [46]: 8 transition_type 0x296-0x297 (1)
0x290|                     07                        |       .        |      [47]: 7 transition_type 0x297-0x298 (1)
0x290|                        08                     |        .       |      [48]: 8 transition_type 0x298-0x299 (1)
0x290|                           07                  |         .      |      [49]: 7 transition_type 0x299-0x29a (1)
0x290|                              08               |          .     |      [50]: 8 transition_type 0x29a-0x29b (1)
0x290|                                 07            |           .    |      [51]: 7 transition_type 0x29b-0x29c (1)
0x290|                                    08         |            .   |      [52]: 8 transition_type 0x29c-0x29d (1)
0x290|                                       07      |             .  |      [53]: 7 transition_type 0x29d-0x29e (1)
0x290|                                          08   |              . |      [54]: 8 transition_type 0x29e-0x29f (1)
0x290|                                             07|               .|      [55]: 7 transition_type 0x29f-0x2a0 (1)
0x2a0|08                                             |.               |      [56]: 8 transition_type 0x2a0-0x2a1 (1)
0x2a0|   07                                          | .              |      [57]: 7 transition_type 0x2a1-0x2a2 (1)
0x2a0|      08                                       |  .             |      [58]: 8 transition_type 0x2a2-0x2a3 (1)
0x2a0|         07                                    |   .            |      [59]: 7 transition_type 0x2a3-0x2a4 (1)
0x2a0|            08                                 |    .           |      [60]: 8 transition_type 0x2a4-0x2a5 (1)
0x2a0|               07                              |     .          |      [61]: 7 transition_type 0x2a5-0x2a6 (1)
0x2a0|                  08                           |      .         |      [62]: 8 transition_type 0x2a6-0x2a7 (1)
0x2a0|                     07                        |       .        |      [63]: 7 transition_type 0x2a7-0x2a8 (1)
0x2a0|                        08                     |        .       |      [64]: 8 transition_type 0x2a8-0x2a9 (1)
0x2a0|                           07                  |         .      |      [65]: 7 transition_type 0x2a9-0x2aa (1)
0x2a0|                              08               |          .     |      [66]: 8 transition_type 0x2aa-0x2ab (1)
0x2a0|                                 07            |           .    |      [67]: 7 transition_type 0x2ab-0x2ac (1)
0x2a0|                                    08         |            .   |      [68]: 8 transition_type 0x2ac-0x2ad (1)
0x2a0|                                       07      |             .  |      [69]: 7 transition_type 0x2ad-0x2ae (1)
0x2a0|                                          08   |              . |      [70]: 8 transition_type 0x2ae-0x2af (1)
0x2a0|                                             07|               .|      [71]: 7 transition_type 0x2af-0x2b0 (1)
0x2b0|08                                             |.               |      [72]: 8 transition_type 0x2b0-0x2b1 (1)
0x2b0|   07                                          | .              |      [73]: 7 transition_type 0x2b1-0x2b2 (1)
0x2b0|      08                                       |  .             |      [74]: 8 transition_type 0x2b2-0x2b3 (1)
0x2b0|         07                                    |   .            |      [75]: 7 transition_type 0x2b3-0x2b4 (1)
0x2b0|            08                                 |    .           |      [76]: 8 transition_type 0x2b4-0x2b5 (1)
0x2b0|               07                              |     .          |      [77]: 7 transition_type 0x2b5-0x2b6 (1)
0x2b0|                  08                           |      .         |      [78]: 8 transition_type 0x2b6-0x2b7 (1)
0x2b0|                     07                        |       .        |      [79]: 7 transition_type 0x2b7-0x2b8 (1)
0x2b0|                        08                     |        .       |      [80]: 8 transition_type 0x2b8-0x2b9 (1)
0x2b0|                           07                  |         .      |      [81]: 7 transition_type 0x2b9-0x2ba (1)
0x2b0|                              08               |          .     |      [82]: 8 transition_type 0x2ba-0x2bb (1)
0x2b0|                                 07            |           .    |      [83]: 7 transition_type 0x2bb-0x2bc (1)
0x2b0|                                    08         |            .   |      [84]: 8 transition_type 0x2bc-0x2bd (1)
0x2b0|                                       07      |             .  |      [85]: 7 transition_type 0x2bd-0x2be (1)
0x2b0|                                          08   |              . |      [86]: 8 transition_type 0x2be-0x2bf (1)
0x2b0|                                             07|               .|      [87]: 7 transition_type 0x2bf-0x2c0 (1)
0x2c0|08                                             |.               |      [88]: 8 transition_type 0x2c0-0x2c1 (1)
0x2c0|   07                                          | .              |      [89]: 7 transition_type 0x2c1-0x2c2 (1)
0x2c0|      08                                       |  .             |      [90]: 8 transition_type 0x2c2-0x2c3 (1)
0x2c0|         07                                    |   .            |      [91]: 7 transition_type 0x2c3-0x2c4 (1)
0x2c0|            08                                 |    .           |      [92]: 8 transition_type 0x2c4-0x2c5 (1)
0x2c0|               07                              |     .          |      [93]: 7 transition_type 0x2c5-0x2c6 (1)
0x2c0|                  08                           |      .         |      [94]: 8 transition_type 0x2c6-0x2c7 (1)
0x2c0|                     07                        |       .        |      [95]: 7 transition_type 0x2c7-0x2c8 (1)
0x2c0|                        08                     |        .       |      [96]: 8 transition_type 0x2c8-0x2c9 (1)
0x2c0|                           07                  |         .      |      [97]: 7 transition_type 0x2c9-0x2ca (1)
0x2c0|                              08               |          .     |      [98]: 8 transition_type 0x2ca-0x2cb (1)
0x2c0|                                 07            |           .    |      [99]: 7 transition_type 0x2cb-0x2cc (1)
0x2c0|                                    08         |            .   |      [100]: 8 transition_type 0x2cc-0x2cd (1)
0x2c0|                                       07      |             .  |      [101]: 7 transition_type 0x2cd-0x2ce (1)
0x2c0|                                          08   |              . |      [102]: 8 transition_type 0x2ce-0x2cf (1)
0x2c0|                                             07|               .|      [103]: 7 transition_type 0x2cf-0x2d0 (1)
0x2d0|08                                             |.               |      [104]: 8 transition_type 0x2d0-0x2d1 (1)
0x2d0|   07                                          | .              |      [105]: 7 transition_type 0x2d1-0x2d2 (1)
0x2d0|      08                                       |  .             |      [106]: 8 transition_type 0x2d2-0x2d3 (1)
0x2d0|         07                                    |   .            |      [107]: 7 transition_type 0x2d3-0x2d4 (1)
0x2d0|            08                                 |    .           |      [108]: 8 transition_type 0x2d4-0x2d5 (1)
0x2d0|               07                              |     .          |      [109]: 7 transition_type 0x2d5-0x2d6 (1)
0x2d0|                  08                           |      .         |      [110]: 8 transition_type 0x2d6-0x2d7 (1)
0x2d0|                     07                        |       .        |      [111]: 7 transition_type 0x2d7-0x2d8 (1)
0x2d0|                        08                     |        .       |      [112]: 8 transition_type 0x2d8-0x2d9 (1)
0x2d0|                           07                  |         .      |      [113]: 7 transition_type 0x2d9-0x2da (1)
0x2d0|                              08               |          .     |      [114]: 8 transition_type 0x2da-0x2db (1)
0x2d0|                                 07            |           .    |      [115]: 7 transition_type 0x2db-0x2dc (1)
0x2d0|                                    08         |            .   |      [116]: 8 transition_type 0x2dc-0x2dd (1)
0x2d0|                                       07      |             .  |      [117]: 7 transition_type 0x2dd-0x2de (1)
0x2d0|                                          08   |              . |      [118]: 8 transition_type 0x2de-0x2df (1)
0x2d0|                                             07|               .|      [119]: 7 transition_type 0x2df-0x2e0 (1)
0x2e0|08                                             |.               |      [120]: 8 transition_type 0x2e0-0x2e1 (1)
0x2e0|   07                                          | .              |      [121]: 7 transition_type 0x2e1-0x2e2 (1)
0x2e0|      08                                       |  .             |      [122]: 8 transition_type 0x2e2-0x2e3 (1)
0x2e0|         07                                    |   .            |      [123]: 7 transition_type 0x2e3-0x2e4 (1)
0x2e0|            08                                 |    .           |      [124]: 8 transition_type 0x2e4-0x2e5 (1)
0x2e0|               07                              |     .          |      [125]: 7 transition_type 0x2e5-0x2e6 (1)
0x2e0|                  08                           |      .         |      [126]: 8 transition_type 0x2e6-0x2e7 (1)
0x2e0|                     07                        |       .        |      [127]: 7 transition_type 0x2e7-0x2e8 (1)
0x2e0|                        08                     |        .       |      [128]: 8 transition_type 0x2e8-0x2e9 (1)
0x2e0|                           07                  |         .      |      [129]: 7 transition_type 0x2e9-0x2ea (1)
0x2e0|                              08               |          .     |      [130]: 8 transition_type 0x2ea-0x2eb (1)
0x2e0|                                 07            |           .    |      [131]: 7 transition_type 0x2eb-0x2ec (1)
0x2e0|                                    08         |            .   |      [132]: 8 transition_type 0x2ec-0x2ed (1)
0x2e0|                                       07      |             .  |      [133]: 7 transition_type 0x2ed-0x2ee (1)
0x2e0|                                          08   |              . |      [134]: 8 transition_type 0x2ee-0x2ef (1)
0x2e0|                                             07|               .|      [135]: 7 transition_type 0x2ef-0x2f0 (1)
0x2f0|08                                             |.               |      [136]: 8 transition_type 0x2f0-0x2f1 (1)
0x2f0|   07                                          | .              |      [137]: 7 transition_type 0x2f1-0x2f2 (1)
0x2f0|      08                                       |  .             |      [138]: 8 transition_type 0x2f2-0x2f3 (1)
0x2f0|         07                                    |   .            |      [139]: 7 transition_type 0x2f3-0x2f4 (1)
0x2f0|            08                                 |    .           |      [140]: 8 transition_type 0x2f4-0x2f5 (1)
0x2f0|               07                              |     .          |      [141]: 7 transition_type 0x2f5-0x2f6 (1)
0x2f0|                  08                           |      .         |      [142]: 8 transition_type 0x2f6-0x2f7 (1)
     |                                               |                |    local_time_type_records[0:9]: 0x2f7-0x32d (54)
     |                                               |                |      [0]{}: local_time_type 0x2f7-0x2fd (6)
0x2f0|                     00 00 0c 88               |       ....     |        utoff: 3208 (valid) 0x2f7-0x2fb (4)
0x2f0|                                 00            |           .    |        dst: 0 (valid) 0x2fb-0x2fc (1)
0x2f0|                                    00         |            .   |        idx: 0 (valid) 0x2fc-0x2fd (1)
     |                                               |                |      [1]{}: local_time_type 0x2fd-0x303 (6)
0x2f0|                                       00 00 1c|             ...|        utoff: 7200 (valid) 0x2fd-0x301 (4)
0x300|20                                             |                |
0x300|   01                                          | .              |        dst: 1 (valid) 0x301-0x302 (1)
0x300|      04                                       |  .             |        idx: 4 (valid) 0x302-0x303 (1)
     |                                               |                |      [2]{}: local_time_type 0x303-0x309 (6)
0x300|         00 00 0e 10                           |   ....         |        utoff: 3600 (valid) 0x303-0x307 (4)
0x300|                     00                        |       .        |        dst: 0 (valid) 0x307-0x308 (1)
0x300|                        09                     |        .       |        idx: 9 (valid) 0x308-0x309 (1)
     |                                               |                |      [3]{}: local_time_type 0x309-0x30f (6)
0x300|                           00 00 1c 20         |         ...    |        utoff: 7200 (valid) 0x309-0x30d (4)
0x300|                                       01      |             .  |        dst: 1 (valid) 0x30d-0x30e (1)
0x300|                                          04   |              . |        idx: 4 (valid) 0x30e-0x30f (1)
     |                                               |                |      [4]{}: local_time_type 0x30f-0x315 (6)
0x300|                                             00|               .|        utoff: 3600 (valid) 0x30f-0x313 (4)
0x310|00 0e 10                                       |...             |
0x310|         00                                    |   .            |        dst: 0 (valid) 0x313-0x314 (1)
0x310|            09                                 |    .           |        idx: 9 (valid) 0x314-0x315 (1)
     |                                               |                |      [5]{}: local_time_type 0x315-0x31b (6)
0x310|               00 00 2a 30                     |     ..*0       |        utoff: 10800 (valid) 0x315-0x319 (4)
0x310|                           01                  |         .      |        dst: 1 (valid) 0x319-0x31a (1)
0x310|                              0d               |          .     |        idx: 13 (valid) 0x31a-0x31b (1)
     |                                               |                |      [6]{}: local_time_type 0x31b-0x321 (6)
0x310|                                 00 00 2a 30   |           ..*0 |        utoff: 10800 (valid) 0x31b-0x31f (4)
0x310|                                             01|               .|        dst: 1 (valid) 0x31f-0x320 (1)
0x320|0d                                             |.               |        idx: 13 (valid) 0x320-0x321 (1)
     |                                               |                |      [7]{}: local_time_type 0x321-0x327 (6)
0x320|   00 00 1c 20                                 | ...            |        utoff: 7200 (valid) 0x321-0x325 (4)
0x320|               01                              |     .          |        dst: 1 (valid) 0x325-0x326 (1)
0x320|                  04                           |      .         |        idx: 4 (valid) 0x326-0x327 (1)
     |                                               |                |      [8]{}: local_time_type 0x327-0x32d (6)
0x320|                     00 00 0e 10               |       ....     |        utoff: 3600 (valid) 0x327-0x32b (4)
0x320|                                 00            |           .    |        dst: 0 (valid) 0x32b-0x32c (1)
0x320|                                    09         |            .   |        idx: 9 (valid) 0x32c-0x32d (1)
     |                                               |                |    time_zone_designations[0:4]: 0x32d-0x33f (18)
0x320|                                       4c 4d 54|             LMT|      [0]: "LMT" time_zone_designation 0x32d-0x331 (4)
0x330|00                                             |.               |
0x330|   43 45 53 54 00                              | CEST.          |      [1]: "CEST" time_zone_designation 0x331-0x336 (5)
0x330|                  43 45 54 00                  |      CET.      |      [2]: "CET" time_zone_designation 0x336-0x33a (4)
0x330|                              43 45 4d 54 00   |          CEMT. |      [3]: "CEMT" time_zone_designation 0x33a-0x33f (5)
     |                                               |                |    leap_second_records[0:0]: 0x33f-0x33f (0)
     |                                               |                |    standard_wall_indicators[0:9]: 0x33f-0x348 (9)
0x330|                                             00|               .|      [0]: 0 standard_wall_indicator (valid) 0x33f-0x340 (1)
0x340|00                                             |.               |      [1]: 0 standard_wall_indicator (valid) 0x340-0x341 (1)
0x340|   00                                          | .              |      [2]: 0 standard_wall_indicator (valid) 0x341-0x342 (1)
0x340|      01                                       |  .             |      [3]: 1 standard_wall_indicator (valid) 0x342-0x343 (1)
0x340|         01                                    |   .            |      [4]: 1 standard_wall_indicator (valid) 0x343-0x344 (1)
0x340|            00                                 |    .           |      [5]: 0 standard_wall_indicator (valid) 0x344-0x345 (1)
0x340|               01                              |     .          |      [6]: 1 standard_wall_indicator (valid) 0x345-0x346 (1)
0x340|                  01                           |      .         |      [7]: 1 standard_wall_indicator (valid) 0x346-0x347 (1)
0x340|                     01                        |       .        |      [8]: 1 standard_wall_indicator (valid) 0x347-0x348 (1)
     |                                               |                |    ut_local_indicators[0:9]: 0x348-0x351 (9)
0x340|                        00                     |        .       |      [0]: 0 ut_local_indicator (valid) 0x348-0x349 (1)
0x340|                           00                  |         .      |      [1]: 0 ut_local_indicator (valid) 0x349-0x34a (1)
0x340|                              00               |          .     |      [2]: 0 ut_local_indicator (valid) 0x34a-0x34b (1)
0x340|                                 00            |           .    |      [3]: 0 ut_local_indicator (valid) 0x34b-0x34c (1)
0x340|                                    00         |            .   |      [4]: 0 ut_local_indicator (valid) 0x34c-0x34d (1)
0x340|                                       00      |             .  |      [5]: 0 ut_local_indicator (valid) 0x34d-0x34e (1)
0x340|                                          00   |              . |      [6]: 0 ut_local_indicator (valid) 0x34e-0x34f (1)
0x340|                                             01|               .|      [7]: 1 ut_local_indicator (valid) 0x34f-0x350 (1)
0x350|01                                             |.               |      [8]: 1 ut_local_indicator (valid) 0x350-0x351 (1)
     |                                               |                |  v2plusheader{}: 0x351-0x37d (44)
0x350|   54 5a 69 66                                 | TZif           |    magic: 0x545a6966 (valid) 0x351-0x355 (4)
0x350|               32                              |     2          |    ver: "2" (0x32) (valid) 0x355-0x356 (1)
0x350|                  00 00 00 00 00 00 00 00 00 00|      ..........|    reserved: raw bits 0x356-0x365 (15)
0x360|00 00 00 00 00                                 |.....           |
0x360|               00 00 00 09                     |     ....       |    isutcnt: 9 0x365-0x369 (4)
0x360|                           00 00 00 09         |         ....   |    isstdcnt: 9 0x369-0x36d (4)
0x360|                                       00 00 00|             ...|    leapcnt: 0 0x36d-0x371 (4)
0x370|00                                             |.               |
0x370|   00 00 00 8f                                 | ....           |    timecnt: 143 0x371-0x375 (4)
0x370|               00 00 00 09                     |     ....       |    typecnt: 9 0x375-0x379 (4)
0x370|                           00 00 00 12         |         ....   |    charcnt: 18 0x379-0x37d (4)
     |                                               |                |  v2plusdatablock{}: 0x37d-0x8de (1377)
     |                                               |                |    transition_times[0:143]: 0x37d-0x7f5 (1144)
0x370|                                       ff ff ff|             ...|      [0]: "1893-03-31T23:06:32Z" (-2422054408) transition_time 0x37d-0x385 (8)
0x380|ff 6f a2 61 f8                                 |.o.a.           |
0x380|               ff ff ff ff 9b 0c 17 60         |     .......`   |      [1]: "1916-04-30T22:00:00Z" (-1693706400) transition_time 0x385-0x38d (8)
0x380|                                       ff ff ff|             ...|      [2]: "1916-09-30T23:00:00Z" (-1680483600) transition_time 0x38d-0x395 (8)
0x390|ff 9b d5 da f0                                 |.....           |
0x390|               ff ff ff ff 9c d9 ae 90         |     ........   |      [3]: "1917-04-16T01:00:00Z" (-1663455600) transition_time 0x395-0x39d (8)
0x390|                                       ff ff ff|             ...|      [4]: "1917-09-17T01:00:00Z" (-1650150000) transition_time 0x39d-0x3a5 (8)
0x3a0|ff 9d a4 b5 90                                 |.....           |
0x3a0|               ff ff ff ff 9e b9 90 90         |     ........   |      [5]: "1918-04-15T01:00:00Z" (-1632006000) transition_time 0x3a5-0x3ad (8)
0x3a0|                                       ff ff ff|             ...|      [6]: "1918-09-16T01:00:00Z" (-1618700400) transition_time 0x3ad-0x3b5 (8)
0x3b0|ff 9f 84 97 90                                 |.....           |
0x3b0|               ff ff ff ff c8 09 71 90         |     ......q.   |      [7]: "1940-04-01T01:00:00Z" (-938905200) transition_time 0x3b5-0x3bd (8)
0x3b0|                                       ff ff ff|             ...|      [8]: "1942-11-02T01:00:00Z" (-857257200) transition_time 0x3bd-0x3c5 (8)
0x3c0|ff cc e7 4b 10                                 |...K.           |
0x3c0|               ff ff ff ff cd a9 17 90         |     ........   |      [9]: "1943-03-29T01:00:00Z" (-844556400) transition_time 0x3c5-0x3cd (8)
0x3c0|                                       ff ff ff|             ...|      [10]: "1943-10-04T01:00:00Z" (-828226800) transition_time 0x3cd-0x3d5 (8)
0x3d0|ff ce a2 43 10                                 |...C.           |
0x3d0|               ff ff ff ff cf 92 34 10         |     ......4.   |      [11]: "1944-04-03T01:00:00Z" (-812502000) transition_time 0x3d5-0x3dd (8)
0x3d0|                                       ff ff ff|             ...|      [12]: "1944-10-02T01:00:00Z" (-796777200) transition_time 0x3dd-0x3e5 (8)
0x3e0|ff d0 82 25 10                                 |...%.           |
0x3e0|               ff ff ff ff d1 72 16 10         |     .....r..   |      [13]: "1945-04-02T01:00:00Z" (-781052400) transition_time 0x3e5-0x3ed (8)
0x3e0|                                       ff ff ff|             ...|      [14]: "1945-05-24T00:00:00Z" (-776563200) transition_time 0x3ed-0x3f5 (8)
0x3f0|ff d1 b6 96 00                                 |.....           |
0x3f0|               ff ff ff ff d2 58 be 80         |     .....X..   |      [15]: "1945-09-24T00:00:00Z" (-765936000) transition_time 0x3f5-0x3fd (8)
0x3f0|                                       ff ff ff|             ...|      [16]: "1945-11-18T01:00:00Z" (-761180400) transition_time 0x3fd-0x405 (8)
0x400|ff d2 a1 4f 10                                 |...O.           |
0x400|               ff ff ff ff d3 63 1b 90         |     .....c..   |      [17]: "1946-04-14T01:00:00Z" (-748479600) transition_time 0x405-0x40d (8)
0x400|                                       ff ff ff|             ...|      [18]: "1946-10-07T01:00:00Z" (-733273200) transition_time 0x40d-0x415 (8)
0x410|ff d4 4b 23 90                                 |..K#.           |
0x410|               ff ff ff ff d5 39 d1 20         |     .....9.    |      [19]: "1947-04-06T02:00:00Z" (-717631200) transition_time 0x415-0x41d (8)
0x410|                                       ff ff ff|             ...|      [20]: "1947-05-11T01:00:00Z" (-714610800) transition_time 0x41d-0x425 (8)
0x420|ff d5 67 e7 90                                 |..g..           |
0x420|               ff ff ff ff d5 a8 73 00         |     ......s.   |      [21]: "1947-06-29T00:00:00Z" (-710380800) transition_time 0x425-0x42d (8)
0x420|                                       ff ff ff|             ...|      [22]: "1947-10-05T01:00:00Z" (-701910000) transition_time 0x42d-0x435 (8)
0x430|ff d6 29 b4 10                                 |..)..           |
0x430|               ff ff ff ff d7 2c 1a 10         |     .....,..   |      [23]: "1948-04-18T01:00:00Z" (-684975600) transition_time 0x435-0x43d (8)
0x430|                                       ff ff ff|             ...|      [24]: "1948-10-03T01:00:00Z" (-670460400) transition_time 0x43d-0x445 (8)
0x440|ff d8 09 96 10                                 |.....           |
0x440|               ff ff ff ff d9 02 c1 90         |     ........   |      [25]: "1949-04-10T01:00:00Z" (-654130800) transition_time 0x445-0x44d (8)
0x440|                                       ff ff ff|             ...|      [26]: "1949-10-02T01:00:00Z" (-639010800) transition_time 0x44d-0x455 (8)
0x450|ff d9 e9 78 10                                 |...x.           |
0x450|               00 00 00 00 13 4d 44 10         |     .....MD.   |      [27]: "1980-04-06T01:00:00Z" (323830800) transition_time 0x455-0x45d (8)
0x450|                                       00 00 00|             ...|      [28]: "1980-09-28T01:00:00Z" (338950800) transition_time 0x45d-0x465 (8)
0x460|00 14 33 fa 90                                 |..3..           |
0x460|               00 00 00 00 15 23 eb 90         |     .....#..   |      [29]: "1981-03-29T01:00:00Z" (354675600) transition_time 0x465-0x46d (8)
0x460|                                       00 00 00|             ...|      [30]: "1981-09-27T01:00:00Z" (370400400) transition_time 0x46d-0x475 (8)
0x470|00 16 13 dc 90                                 |.....           |
0x470|               00 00 00 00 17 03 cd 90         |     ........   |      [31]: "1982-03-28T01:00:00Z" (386125200) transition_time 0x475-0x47d (8)
0x470|                                       00 00 00|             ...|      [32]: "1982-09-26T01:00:00Z" (401850000) transition_time 0x47d-0x485 (8)
0x480|00 17 f3 be 90                                 |.....           |
0x480|               00 00 00 00 18 e3 af 90         |     ........   |      [33]: "1983-03-27T01:00:00Z" (417574800) transition_time 0x485-0x48d (8)
0x480|                                       00 00 00|             ...|      [34]: "1983-09-25T01:00:00Z" (433299600) transition_time 0x48d-0x495 (8)
0x490|00 19 d3 a0 90                                 |.....           |
0x490|               00 00 00 00 1a c3 91 90         |     ........   |      [35]: "1984-03-25T01:00:00Z" (449024400) transition_time 0x495-0x49d (8)
0x490|                                       00 00 00|             ...|      [36]: "1984-09-30T01:00:00Z" (465354000) transition_time 0x49d-0x4a5 (8)
0x4a0|00 1b bc bd 10                                 |.....           |
0x4a0|               00 00 00 00 1c ac ae 10         |     ........   |      [37]: "1985-03-31T01:00:00Z" (481078800) transition_time 0x4a5-0x4ad (8)
0x4a0|                                       00 00 00|             ...|      [38]: "1985-09-29T01:00:00Z" (496803600) transition_time 0x4ad-0x4b5 (8)
0x4b0|00 1d 9c 9f 10                                 |.....           |
0x4b0|               00 00 00 00 1e 8c 90 10         |     ........   |      [39]: "1986-03-30T01:00:00Z" (512528400) transition_time 0x4b5-0x4bd (8)
0x4b0|                                       00 00 00|             ...|      [40]: "1986-09-28T01:00:00Z" (528253200) transition_time 0x4bd-0x4c5 (8)
0x4c0|00 1f 7c 81 10                                 |..|..           |
0x4c0|               00 00 00 00 20 6c 72 10         |     .... lr.   |      [41]: "1987-03-29T01:00:00Z" (543978000) transition_time 0x4c5-0x4cd (8)
0x4c0|                                       00 00 00|             ...|      [42]: "1987-09-27T01:00:00Z" (559702800) transition_time 0x4cd-0x4d5 (8)
0x4d0|00 21 5c 63 10                                 |.!\c.           |
0x4d0|               00 00 00 00 22 4c 54 10         |     ...."LT.   |      [43]: "1988-03-27T01:00:00Z" (575427600) transition_time 0x4d5-0x4dd (8)
0x4d0|                                       00 00 00|             ...|      [44]: "1988-09-25T01:00:00Z" (591152400) transition_time 0x4dd-0x4e5 (8)
0x4e0|00 23 3c 45 10                                 |.#<E.           |
0x4e0|               00 00 00 00 24 2c 36 10         |     ....$,6.   |      [45]: "1989-03-26T01:00:00Z" (606877200) transition_time 0x4e5-0x4ed (8)
0x4e0|                                       00 00 00|             ...|      [46]: "1989-09-24T01:00:00Z" (622602000) transition_time 0x4ed-0x4f5 (8)
0x4f0|00 25 1c 27 10                                 |.%.'.           |
0x4f0|               00 00 00 00 26 0c 18 10         |     ....&...   |      [47]: "1990-03-25T01:00:00Z" (638326800) transition_time 0x4f5-0x4fd (8)
0x4f0|                                       00 00 00|             ...|      [48]: "1990-09-30T01:00:00Z" (654656400) transition_time 0x4fd-0x505 (8)
0x500|00 27 05 43 90                                 |.'.C.           |
0x500|               00 00 00 00 27 f5 34 90         |     ....'.4.   |      [49]: "1991-03-31T01:00:00Z" (670381200) transition_time 0x505-0x50d (8)
0x500|                                       00 00 00|             ...|      [50]: "1991-09-29T01:00:00Z" (686106000) transition_time 0x50d-0x515 (8)
0x510|00 28 e5 25 90                                 |.(.%.           |
0x510|               00 00 00 00 29 d5 16 90         |     ....)...   |      [51]: "1992-03-29T01:00:00Z" (701830800) transition_time 0x515-0x51d (8)
0x510|                                       00 00 00|             ...|      [52]: "1992-09-27T01:00:00Z" (717555600) transition_time 0x51d-0x525 (8)
0x520|00 2a c5 07 90                                 |.*...           |
0x520|               00 00 00 00 2b b4 f8 90         |     ....+...   |      [53]: "1993-03-28T01:00:00Z" (733280400) transition_time 0x525-0x52d (8)
0x520|                                       00 00 00|             ...|      [54]: "1993-09-26T01:00:00Z" (749005200) transition_time 0x52d-0x535 (8)
0x530|00 2c a4 e9 90                                 |.,...           |
0x530|               00 00 00 00 2d 94 da 90         |     ....-...   |      [55]: "1994-03-27T01:00:00Z" (764730000) transition_time 0x535-0x53d (8)
0x530|                                       00 00 00|             ...|      [56]: "1994-09-25T01:00:00Z" (780454800) transition_time 0x53d-0x545 (8)
0x540|00 2e 84 cb 90                                 |.....           |
0x540|               00 00 00 00 2f 74 bc 90         |     ..../t..   |      [57]: "1995-03-26T01:00:00Z" (796179600) transition_time 0x545-0x54d (8)
0x540|                                       00 00 00|             ...|      [58]: "1995-09-24T01:00:00Z" (811904400) transition_time 0x54d-0x555 (8)
0x550|00 30 64 ad 90                                 |.0d..           |
0x550|               00 00 00 00 31 5d d9 10         |     ....1]..   |      [59]: "1996-03-31T01:00:00Z" (828234000) transition_time 0x555-0x55d (8)
0x550|                                       00 00 00|             ...|      [60]: "1996-10-27T01:00:00Z" (846378000) transition_time 0x55d-0x565 (8)
0x560|00 32 72 b4 10                                 |.2r..           |
0x560|               00 00 00 00 33 3d bb 10         |     ....3=..   |      [61]: "1997-03-30T01:00:00Z" (859683600) transition_time 0x565-0x56d (8)
0x560|                                       00 00 00|             ...|      [62]: "1997-10-26T01:00:00Z" (877827600) transition_time 0x56d-0x575 (8)
0x570|00 34 52 96 10                                 |.4R..           |
0x570|               00 00 00 00 35 1d 9d 10         |     ....5...   |      [63]: "1998-03-29T01:00:00Z" (891133200) transition_time 0x575-0x57d (8)
0x570|                                       00 00 00|             ...|      [64]: "1998-10-25T01:00:00Z" (909277200) transition_time 0x57d-0x585 (8)
0x580|00 36 32 78 10                                 |.62x.           |
0x580|               00 00 00 00 36 fd 7f 10         |     ....6...   |      [65]: "1999-03-28T01:00:00Z" (922582800) transition_time 0x585-0x58d (8)
0x580|                                       00 00 00|             ...|      [66]: "1999-10-31T01:00:00Z" (941331600) transition_time 0x58d-0x595 (8)
0x590|00 38 1b 94 90                                 |.8...           |
0x590|               00 00 00 00 38 dd 61 10         |     ....8.a.   |      [67]: "2000-03-26T01:00:00Z" (954032400) transition_time 0x595-0x59d (8)
0x590|                                       00 00 00|             ...|      [68]: "2000-10-29T01:00:00Z" (972781200) transition_time 0x59d-0x5a5 (8)
0x5a0|00 39 fb 76 90                                 |.9.v.           |
0x5a0|               00 00 00 00 3a bd 43 10         |     ....:.C.   |      [69]: "2001-03-25T01:00:00Z" (985482000) transition_time 0x5a5-0x5ad (8)
0x5a0|                                       00 00 00|             ...|      [70]: "2001-10-28T01:00:00Z" (1004230800) transition_time 0x5ad-0x5b5 (8)
0x5b0|00 3b db 58 90                                 |.;.X.           |
0x5b0|               00 00 00 00 3c a6 5f 90         |     ....<._.   |      [71]: "2002-03-31T01:00:00Z" (1017536400) transition_time 0x5b5-0x5bd (8)
0x5b0|                                       00 00 00|             ...|      [72]: "2002-10-27T01:00:00Z" (1035680400) transition_time 0x5bd-0x5c5 (8)
0x5c0|00 3d bb 3a 90                                 |.=.:.           |
0x5c0|               00 00 00 00 3e 86 41 90         |     ....>.A.   |      [73]: "2003-03-30T01:00:00Z" (1048986000) transition_time 0x5c5-0x5cd (8)
0x5c0|                                       00 00 00|             ...|      [74]: "2003-10-26T01:00:00Z" (1067130000) transition_time 0x5cd-0x5d5 (8)
0x5d0|00 3f 9b 1c 90                                 |.?...           |
0x5d0|               00 00 00 00 40 66 23 90         |     ....@f#.   |      [75]: "2004-03-28T01:00:00Z" (1080435600) transition_time 0x5d5-0x5dd (8)
0x5d0|                                       00 00 00|             ...|      [76]: "2004-10-31T01:00:00Z" (1099184400) transition_time 0x5dd-0x5e5 (8)
0x5e0|00 41 84 39 10                                 |.A.9.           |
0x5e0|               00 00 00 00 42 46 05 90         |     ....BF..   |      [77]: "2005-03-27T01:00:00Z" (1111885200) transition_time 0x5e5-0x5ed (8)
0x5e0|                                       00 00 00|             ...|      [78]: "2005-10-30T01:00:00Z" (1130634000) transition_time 0x5ed-0x5f5 (8)
0x5f0|00 43 64 1b 10                                 |.Cd..           |
0x5f0|               00 00 00 00 44 25 e7 90         |     ....D%..   |      [79]: "2006-03-26T01:00:00Z" (1143334800) transition_time 0x5f5-0x5fd (8)
0x5f0|                                       00 00 00|             ...|      [80]: "2006-10-29T01:00:00Z" (1162083600) transition_time 0x5fd-0x605 (8)
0x600|00 45 43 fd 10                                 |.EC..           |
0x600|               00 00 00 00 46 05 c9 90         |     ....F...   |      [81]: "2007-03-25T01:00:00Z" (1174784400) transition_time 0x605-0x60d (8)
0x600|                                       00 00 00|             ...|      [82]: "2007-10-28T01:00:00Z" (1193533200) transition_time 0x60d-0x615 (8)
0x610|00 47 23 df 10                                 |.G#..           |
0x610|               00 00 00 00 47 ee e6 10         |     ....G...   |      [83]: "2008-03-30T01:00:00Z" (1206838800) transition_time 0x615-0x61d (8)
0x610|                                       00 00 00|             ...|      [84]: "2008-10-26T01:00:00Z" (1224982800) transition_time 0x61d-0x625 (8)
0x620|00 49 03 c1 10                                 |.I...           |
0x620|               00 00 00 00 49 ce c8 10         |     ....I...   |      [85]: "2009-03-29T01:00:00Z" (1238288400) transition_time 0x625-0x62d (8)
0x620|                                       00 00 00|             ...|      [86]: "2009-10-25T01:00:00Z" (1256432400) transition_time 0x62d-0x635 (8)
0x630|00 4a e3 a3 10                                 |.J...           |
0x630|               00 00 00 00 4b ae aa 10         |     ....K...   |      [87]: "2010-03-28T01:00:00Z" (1269738000) transition_time 0x635-0x63d (8)
0x630|                                       00 00 00|             ...|      [88]: "2010-10-31T01:00:00Z" (1288486800) transition_time 0x63d-0x645 (8)
0x640|00 4c cc bf 90                                 |.L...           |
0x640|               00 00 00 00 4d 8e 8c 10         |     ....M...   |      [89]: "2011-03-27T01:00:00Z" (1301187600) transition_time 0x645-0x64d (8)
0x640|                                       00 00 00|             ...|      [90]: "2011-10-30T01:00:00Z" (1319936400) transition_time 0x64d-0x655 (8)
0x650|00 4e ac a1 90                                 |.N...           |
0x650|               00 00 00 00 4f 6e 6e 10         |     ....Onn.   |      [91]: "2012-03-25T01:00:00Z" (1332637200) transition_time 0x655-0x65d (8)
0x650|                                       00 00 00|             ...|      [92]: "2012-10-28T01:00:00Z" (1351386000) transition_time 0x65d-0x665 (8)
0x660|00 50 8c 83 90                                 |.P...           |
0x660|               00 00 00 00 51 57 8a 90         |     ....QW..   |      [93]: "2013-03-31T01:00:00Z" (1364691600) transition_time 0x665-0x66d (8)
0x660|                                       00 00 00|             ...|      [94]: "2013-10-27T01:00:00Z" (1382835600) transition_time 0x66d-0x675 (8)
0x670|00 52 6c 65 90                                 |.Rle.           |
0x670|               00 00 00 00 53 37 6c 90         |     ....S7l.   |      [95]: "2014-03-30T01:00:00Z" (1396141200) transition_time 0x675-0x67d (8)
0x670|                                       00 00 00|             ...|      [96]: "2014-10-26T01:00:00Z" (1414285200) transition_time 0x67d-0x685 (8)
0x680|00 54 4c 47 90                                 |.TLG.           |
0x680|               00 00 00 00 55 17 4e 90         |     ....U.N.   |      [97]: "2015-03-29T01:00:00Z" (1427590800) transition_time 0x685-0x68d (8)
0x680|                                       00 00 00|             ...|      [98]: "2015-10-25T01:00:00Z" (1445734800) transition_time 0x68d-0x695 (8)
0x690|00 56 2c 29 90                                 |.V,).           |
0x690|               00 00 00 00 56 f7 30 90         |     ....V.0.   |      [99]: "2016-03-27T01:00:00Z" (1459040400) transition_time 0x695-0x69d (8)
0x690|                                       00 00 00|             ...|      [100]: "2016-10-30T01:00:00Z" (1477789200) transition_time 0x69d-0x6a5 (8)
0x6a0|00 58 15 46 10                                 |.X.F.           |
0x6a0|               00 00 00 00 58 d7 12 90         |     ....X...   |      [101]: "2017-03-26T01:00:00Z" (1490490000) transition_time 0x6a5-0x6ad (8)
0x6a0|                                       00 00 00|             ...|      [102]: "2017-10-29T01:00:00Z" (1509238800) transition_time 0x6ad-0x6b5 (8)
0x6b0|00 59 f5 28 10                                 |.Y.(.           |
0x6b0|               00 00 00 00 5a b6 f4 90         |     ....Z...   |      [103]: "2018-03-25T01:00:00Z" (1521939600) transition_time 0x6b5-0x6bd (8)
0x6b0|                                       00 00 00|             ...|      [104]: "2018-10-28T01:00:00Z" (1540688400) transition_time 0x6bd-0x6c5 (8)
0x6c0|00 5b d5 0a 10                                 |.[...           |
0x6c0|               00 00 00 00 5c a0 11 10         |     ....\...   |      [105]: "2019-03-31T01:00:00Z" (1553994000) transition_time 0x6c5-0x6cd (8)
0x6c0|                                       00 00 00|             ...|      [106]: "2019-10-27T01:00:00Z" (1572138000) transition_time 0x6cd-0x6d5 (8)
0x6d0|00 5d b4 ec 10                                 |.]...           |
0x6d0|               00 00 00 00 5e 7f f3 10         |     ....^...   |      [107]: "2020-03-29T01:00:00Z" (1585443600) transition_time 0x6d5-0x6dd (8)
0x6d0|                                       00 00 00|             ...|      [108]: "2020-10-25T01:00:00Z" (1603587600) transition_time 0x6dd-0x6e5 (8)
0x6e0|00 5f 94 ce 10                                 |._...           |
0x6e0|               00 00 00 00 60 5f d5 10         |     ....`_..   |      [109]: "2021-03-28T01:00:00Z" (1616893200) transition_time 0x6e5-0x6ed (8)
0x6e0|                                       00 00 00|             ...|      [110]: "2021-10-31T01:00:00Z" (1635642000) transition_time 0x6ed-0x6f5 (8)
0x6f0|00 61 7d ea 90                                 |.a}..           |
0x6f0|               00 00 00 00 62 3f b7 10         |     ....b?..   |      [111]: "2022-03-27T01:00:00Z" (1648342800) transition_time 0x6f5-0x6fd (8)
0x6f0|                                       00 00 00|             ...|      [112]: "2022-10-30T01:00:00Z" (1667091600) transition_time 0x6fd-0x705 (8)
0x700|00 63 5d cc 90                                 |.c]..           |
0x700|               00 00 00 00 64 1f 99 10         |     ....d...   |      [113]: "2023-03-26T01:00:00Z" (1679792400) transition_time 0x705-0x70d (8)
0x700|                                       00 00 00|             ...|      [114]: "2023-10-29T01:00:00Z" (1698541200) transition_time 0x70d-0x715 (8)
0x710|00 65 3d ae 90                                 |.e=..           |
0x710|               00 00 00 00 66 08 b5 90         |     ....f...   |      [115]: "2024-03-31T01:00:00Z" (1711846800) transition_time 0x715-0x71d (8)
0x710|                                       00 00 00|             ...|      [116]: "2024-10-27T01:00:00Z" (1729990800) transition_time 0x71d-0x725 (8)
0x720|00 67 1d 90 90                                 |.g...           |
0x720|               00 00 00 00 67 e8 97 90         |     ....g...   |      [117]: "2025-03-30T01:00:00Z" (1743296400) transition_time 0x725-0x72d (8)
0x720|                                       00 00 00|             ...|      [118]: "2025-10-26T01:00:00Z" (1761440400) transition_time 0x72d-0x735 (8)
0x730|00 68 fd 72 90                                 |.h.r.           |
0x730|               00 00 00 00 69 c8 79 90         |     ....i.y.   |      [119]: "2026-03-29T01:00:00Z" (1774746000) transition_time 0x735-0x73d (8)
0x730|                                       00 00 00|             ...|      [120]: "2026-10-25T01:00:00Z" (1792890000) transition_time 0x73d-0x745 (8)
0x740|00 6a dd 54 90                                 |.j.T.           |
0x740|               00 00 00 00 6b a8 5b 90         |     ....k.[.   |      [121]: "2027-03-28T01:00:00Z" (1806195600) transition_time 0x745-0x74d (8)
0x740|                                       00 00 00|             ...|      [122]: "2027-10-31T01:00:00Z" (1824944400) transition_time 0x74d-0x755 (8)
0x750|00 6c c6 71 10                                 |.l.q.           |
0x750|               00 00 00 00 6d 88 3d 90         |     ....m.=.   |      [123]: "2028-03-26T01:00:00Z" (1837645200) transition_time 0x755-0x75d (8)
0x750|                                       00 00 00|             ...|      [124]: "2028-10-29T01:00:00Z" (1856394000) transition_time 0x75d-0x765 (8)
0x760|00 6e a6 53 10                                 |.n.S.           |
0x760|               00 00 00 00 6f 68 1f 90         |     ....oh..   |      [125]: "2029-03-25T01:00:00Z" (1869094800) transition_time 0x765-0x76d (8)
0x760|                                       00 00 00|             ...|      [126]: "2029-10-28T01:00:00Z" (1887843600) transition_time 0x76d-0x775 (8)
0x770|00 70 86 35 10                                 |.p.5.           |
0x770|               00 00 00 00 71 51 3c 10         |     ....qQ<.   |      [127]: "2030-03-31T01:00:00Z" (1901149200) transition_time 0x775-0x77d (8)
0x770|                                       00 00 00|             ...|      [128]: "2030-10-27T01:00:00Z" (1919293200) transition_time 0x77d-0x785 (8)
0x780|00 72 66 17 10                                 |.rf..           |
0x780|               00 00 00 00 73 31 1e 10         |     ....s1..   |      [129]: "2031-03-30T01:00:00Z" (1932598800) transition_time 0x785-0x78d (8)
0x780|                                       00 00 00|             ...|      [130]: "2031-10-26T01:00:00Z" (1950742800) transition_time 0x78d-0x795 (8)
0x790|00 74 45 f9 10                                 |.tE..           |
0x790|               00 00 00 00 75 11 00 10         |     ....u...   |      [131]: "2032-03-28T01:00:00Z" (1964048400) transition_time 0x795-0x79d (8)
0x790|                                       00 00 00|             ...|      [132]: "2032-10-31T01:00:00Z" (1982797200) transition_time 0x79d-0x7a5 (8)
0x7a0|00 76 2f 15 90                                 |.v/..           |
0x7a0|               00 00 00 00 76 f0 e2 10         |     ....v...   |      [133]: "2033-03-27T01:00:00Z" (1995498000) transition_time 0x7a5-0x7ad (8)
0x7a0|                                       00 00 00|             ...|      [134]: "2033-10-30T01:00:00Z" (2014246800) transition_time 0x7ad-0x7b5 (8)
0x7b0|00 78 0e f7 90                                 |.x...           |
0x7b0|               00 00 00 00 78 d0 c4 10         |     ....x...   |      [135]: "2034-03-26T01:00:00Z" (2026947600) transition_time 0x7b5-0x7bd (8)
0x7b0|                                       00 00 00|             ...|      [136]: "2034-10-29T01:00:00Z" (2045696400) transition_time 0x7bd-0x7c5 (8)
0x7c0|00 79 ee d9 90                                 |.y...           |
0x7c0|               00 00 00 00 7a b0 a6 10         |     ....z...   |      [137]: "2035-03-25T01:00:00Z" (2058397200) transition_time 0x7c5-0x7cd (8)
0x7c0|                                       00 00 00|             ...|      [138]: "2035-10-28T01:00:00Z" (2077146000) transition_time 0x7cd-0x7d5 (8)
0x7d0|00 7b ce bb 90                                 |.{...           |
0x7d0|               00 00 00 00 7c 99 c2 90         |     ....|...   |      [139]: "2036-03-30T01:00:00Z" (2090451600) transition_time 0x7d5-0x7dd (8)
0x7d0|                                       00 00 00|             ...|      [140]: "2036-10-26T01:00:00Z" (2108595600) transition_time 0x7dd-0x7e5 (8)
0x7e0|00 7d ae 9d 90                                 |.}...           |
0x7e0|               00 00 00 00 7e 79 a4 90         |     ....~y..   |      [141]: "2037-03-29T01:00:00Z" (2121901200) transition_time 0x7e5-0x7ed (8)
0x7e0|                                       00 00 00|             ...|      [142]: "2037-10-25T01:00:00Z" (2140045200) transition_time 0x7ed-0x7f5 (8)
0x7f0|00 7f 8e 7f 90                                 |.....           |
     |                                               |                |    transition_types[0:143]: 0x7f5-0x884 (143)
0x7f0|               02                              |     .          |      [0]: 2 transition_type 0x7f5-0x7f6 (1)
0x7f0|                  01                           |      .         |      [1]: 1 transition_type 0x7f6-0x7f7 (1)
0x7f0|                     02                        |       .        |      [2]: 2 transition_type 0x7f7-0x7f8 (1)
0x7f0|                        03                     |        .       |      [3]: 3 transition_type 0x7f8-0x7f9 (1)
0x7f0|                           04                  |         .      |      [4]: 4 transition_type 0x7f9-0x7fa (1)
0x7f0|                              03               |          .     |      [5]: 3 transition_type 0x7fa-0x7fb (1)
0x7f0|                                 04            |           .    |      [6]: 4 transition_type 0x7fb-0x7fc (1)
0x7f0|                                    03         |            .   |      [7]: 3 transition_type 0x7fc-0x7fd (1)
0x7f0|                                       04      |             .  |      [8]: 4 transition_type 0x7fd-0x7fe (1)
0x7f0|                                          03   |              . |      [9]: 3 transition_type 0x7fe-0x7ff (1)
0x7f0|                                             04|               .|      [10]: 4 transition_type 0x7ff-0x800 (1)
0x800|03                                             |.               |      [11]: 3 transition_type 0x800-0x801 (1)
0x800|   04                                          | .              |      [12]: 4 transition_type 0x801-0x802 (1)
0x800|      03                                       |  .             |      [13]: 3 transition_type 0x802-0x803 (1)
0x800|         05                                    |   .            |      [14]: 5 transition_type 0x803-0x804 (1)
0x800|            01                                 |    .           |      [15]: 1 transition_type 0x804-0x805 (1)
0x800|               04                              |     .          |      [16]: 4 transition_type 0x805-0x806 (1)
0x800|                  03                           |      .         |      [17]: 3 transition_type 0x806-0x807 (1)
0x800|                     04                        |       .        |      [18]: 4 transition_type 0x807-0x808 (1)
0x800|                        03                     |        .       |      [19]: 3 transition_type 0x808-0x809 (1)
0x800|                           06                  |         .      |      [20]: 6 transition_type 0x809-0x80a (1)
0x800|                              01               |          .     |      [21]: 1 transition_type 0x80a-0x80b (1)
0x800|                                 04            |           .    |      [22]: 4 transition_type 0x80b-0x80c (1)
0x800|                                    03         |            .   |      [23]: 3 transition_type 0x80c-0x80d (1)
0x800|                                       04      |             .  |      [24]: 4 transition_type 0x80d-0x80e (1)
0x800|                                          03   |              . |      [25]: 3 transition_type 0x80e-0x80f (1)
0x800|                                             04|               .|      [26]: 4 transition_type 0x80f-0x810 (1)
0x810|07                                             |.               |      [27]: 7 transition_type 0x810-0x811 (1)
0x810|   08                                          | .              |      [28]: 8 transition_type 0x811-0x812 (1)
0x810|      07                                       |  .             |      [29]: 7 transition_type 0x812-0x813 (1)
0x810|         08                                    |   .            |      [30]: 8 transition_type 0x813-0x814 (1)
0x810|            07                                 |    .           |      [31]: 7 transition_type 0x814-0x815 (1)
0x810|               08                              |     .          |      [32]: 8 transition_type 0x815-0x816 (1)
0x810|                  07                           |      .         |      [33]: 7 transition_type 0x816-0x817 (1)
0x810|                     08                        |       .        |      [34]: 8 transition_type 0x817-0x818 (1)
0x810|                        07                     |        .       |      [35]: 7 transition_type 0x818-0x819 (1)
0x810|                           08                  |         .      |      [36]: 8 transition_type 0x819-0x81a (1)
0x810|                              07               |          .     |      [37]: 7 transition_type 0x81a-0x81b (1)
0x810|                                 08            |           .    |      [38]: 8 transition_type 0x81b-0x81c (1)
0x810|                                    07         |            .   |      [39]: 7 transition_type 0x81c-0x81d (1)
0x810|                                       08      |             .  |      [40]: 8 transition_type 0x81d-0x81e (1)
0x810|                                          07   |              . |      [41]: 7 transition_type 0x81e-0x81f (1)
0x810|                                             08|               .|      [42]: 8 transition_type 0x81f-0x820 (1)
0x820|07                                             |.               |      [43]: 7 transition_type 0x820-0x821 (1)
0x820|   08                                          | .              |      [44]: 8 transition_type 0x821-0x822 (1)
0x820|      07                                       |  .             |      [45]: 7 transition_type 0x822-0x823 (1)
0x820|         08                                    |   .            |      [46]: 8 transition_type 0x823-0x824 (1)
0x820|            07                                 |    .           |      [47]: 7 transition_type 0x824-0x825 (1)
0x820|               08                              |     .          |      [48]: 8 transition_type 0x825-0x826 (1)
0x820|                  07                           |      .         |      [49]: 7 transition_type 0x826-0x827 (1)
0x820|                     08                        |       .        |      [50]: 8 transition_type 0x827-0x828 (1)
0x820|                        07                     |        .       |      [51]: 7 transition_type 0x828-0x829 (1)
0x820|                           08                  |         .      |      [52]: 8 transition_type 0x829-0x82a (1)
0x820|                              07               |          .     |      [53]: 7 transition_type 0x82a-0x82b (1)
0x820|                                 08            |           .    |      [54]: 8 transition_type 0x82b-0x82c (1)
0x820|                                    07         |            .   |      [55]: 7 transition_type 0x82c-0x82d (1)
0x820|                                       08      |             .  |      [56]: 8 transition_type 0x82d-0x82e (1)
0x820|                                          07   |              . |      [57]: 7 transition_type 0x82e-0x82f (1)
0x820|                                             08|               .|      [58]: 8 transition_type 0x82f-0x830 (1)
0x830|07                                             |.               |      [59]: 7 transition_type 0x830-0x831 (1)
0x830|   08                                          | .              |      [60]: 8 transition_type 0x831-0x832 (1)
0x830|      07                                       |  .             |      [61]: 7 transition_type 0x832-0x833 (1)
0x830|         08                                    |   .            |      [62]: 8 transition_type 0x833-0x834 (1)
0x830|            07                                 |    .           |      [63]: 7 transition_type 0x834-0x835 (1)
0x830|               08                              |     .          |      [64]: 8 transition_type 0x835-0x836 (1)
0x830|                  07                           |      .         |      [65]: 7 transition_type 0x836-0x837 (1)
0x830|                     08                        |       .        |      [66]: 8 transition_type 0x837-0x838 (1)
0x830|                        07                     |        .       |      [67]: 7 transition_type 0x838-0x839 (1)
0x830|                           08                  |         .      |      [68]: 8 transition_type 0x839-0x83a (1)
0x830|                              07               |          .     |      [69]: 7 transition_type 0x83a-0x83b (1)
0x830|                                 08            |           .    |      [70]: 8 transition_type 0x83b-0x83c (1)
0x830|                                    07         |            .   |      [71]: 7 transition_type 0x83c-0x83d (1)
0x830|                                       08      |             .  |      [72]: 8 transition_type 0x83d-0x83e (1)
0x830|                                          07   |              . |      [73]: 7 transition_type 0x83e-0x83f (1)
0x830|                                             08|               .|      [74]: 8 transition_type 0x83f-0x840 (1)
0x840|07                                             |.               |      [75]: 7 transition_type 0x840-0x841 (1)
0x840|   08                                          | .              |      [76]: 8 transition_type 0x841-0x842 (1)
0x840|      07                                       |  .             |      [77]: 7 transition_type 0x842-0x843 (1)
0x840|         08                                    |   .            |      [78]: 8 transition_type 0x843-0x844 (1)
0x840|            07                                 |    .           |      [79]: 7 transition_type 0x844-0x845 (1)
0x840|               08                              |     .          |      [80]: 8 transition_type 0x845-0x846 (1)
0x840|                  07                           |      .         |      [81]: 7 transition_type 0x846-0x847 (1)
0x840|                     08                        |       .        |      [82]: 8 transition_type 0x847-0x848 (1)
0x840|                        07                     |        .       |      [83]: 7 transition_type 0x848-0x849 (1)
0x840|                           08                  |         .      |      [84]: 8 transition_type 0x849-0x84a (1)
0x840|                              07               |          .     |      [85]: 7 transition_type 0x84a-0x84b (1)
0x840|                                 08            |           .    |      [86]: 8 transition_type 0x84b-0x84c (1)
0x840|                                    07         |            .   |      [87]: 7 transition_type 0x84c-0x84d (1)
0x840|                                       08      |             .  |      [88]: 8 transition_type 0x84d-0x84e (1)
0x840|                                          07   |              . |      [89]: 7 transition_type 0x84e-0x84f (1)
0x840|                                             08|               .|      [90]: 8 transition_type 0x84f-0x850 (1)
0x850|07                                             |.               |      [91]: 7 transition_type 0x850-0x851 (1)
0x850|   08                                          | .              |      [92]: 8 transition_type 0x851-0x852 (1)
0x850|      07                                       |  .             |      [93]: 7 transition_type 0x852-0x853 (1)
0x850|         08                                    |   .            |      [94]: 8 transition_type 0x853-0x854 (1)
0x850|            07                                 |    .           |      [95]: 7 transition_type 0x854-0x855 (1)
0x850|               08                              |     .          |      [96]: 8 transition_type 0x855-0x856 (1)
0x850|                  07                           |      .         |      [97]: 7 transition_type 0x856-0x857 (1)
0x850|                     08                        |       .        |      [98]: 8 transition_type 0x857-0x858 (1)
0x850|                        07                     |        .       |      [99]: 7 transition_type 0x858-0x859 (1)
0x850|                           08                  |         .      |      [100]: 8 transition_type 0x859-0x85a (1)
0x850|                              07               |          .     |      [101]: 7 transition_type 0x85a-0x85b (1)
0x850|                                 08            |           .    |      [102]: 8 transition_type 0x85b-0x85c (1)
0x850|                                    07         |            .   |      [103]: 7 transition_type 0x85c-0x85d (1)
0x850|                                       08      |             .  |      [104]: 8 transition_type 0x85d-0x85e (1)
0x850|                                          07   |              . |      [105]: 7 transition_type 0x85e-0x85f (1)
0x850|                                             08|               .|      [106]: 8 transition_type 0x85f-0x860 (1)
0x860|07                                             |.               |      [107]: 7 transition_type 0x860-0x861 (1)
0x860|   08                                          | .              |      [108]: 8 transition_type 0x861-0x862 (1)
0x860|      07                                       |  .             |      [109]: 7 transition_type 0x862-0x863 (1)
0x860|         08                                    |   .            |      [110]: 8 transition_type 0x863-0x864 (1)
0x860|            07                                 |    .           |      [111]: 7 transition_type 0x864-0x865 (1)
0x860|               08                              |     .          |      [112]: 8 transition_type 0x865-0x866 (1)
0x860|                  07                           |      .         |      [113]: 7 transition_type 0x866-0x867 (1)
0x860|                     08                        |       .        |      [114]: 8 transition_type 0x867-0x868 (1)
0x860|                        07                     |        .       |      [115]: 7 transition_type 0x868-0x869 (1)
0x860|                           08                  |         .      |      [116]: 8 transition_type 0x869-0x86a (1)
0x860|                              07               |          .     |      [117]: 7 transition_type 0x86a-0x86b (1)
0x860|                                 08            |           .    |      [118]: 8 transition_type 0x86b-0x86c (1)
0x860|                                    07         |            .   |      [119]: 7 transition_type 0x86c-0x86d (1)
0x860|                                       08      |             .  |      [120]: 8 transition_type 0x86d-0x86e (1)
0x860|                                          07   |              . |      [121]: 7 transition_type 0x86e-0x86f (1)
0x860|                                             08|               .|      [122]: 8 transition_type 0x86f-0x870 (1)
0x870|07                                             |.               |      [123]: 7 transition_type 0x870-0x871 (1)
0x870|   08                                          | .              |      [124]: 8 transition_type 0x871-0x872 (1)
0x870|      07                                       |  .             |      [125]: 7 transition_type 0x872-0x873 (1)
0x870|         08                                    |   .            |      [126]: 8 transition_type 0x873-0x874 (1)
0x870|            07                                 |    .           |      [127]: 7 transition_type 0x874-0x875 (1)
0x870|               08                              |     .          |      [128]: 8 transition_type 0x875-0x876 (1)
0x870|                  07                           |      .         |      [129]: 7 transition_type 0x876-0x877 (1)
0x870|                     08                        |       .        |      [130]: 8 transition_type 0x877-0x878 (1)
0x870|                        07                     |        .       |      [131]: 7 transition_type 0x878-0x879 (1)
0x870|                           08                  |         .      |      [132]: 8 transition_type 0x879-0x87a (1)
0x870|                              07               |          .     |      [133]: 7 transition_type 0x87a-0x87b (1)
0x870|                                 08            |           .    |      [134]: 8 transition_type 0x87b-0x87c (1)
0x870|                                    07         |            .   |      [135]: 7 transition_type 0x87c-0x87d (1)
0x870|                                       08      |             .  |      [136]: 8 transition_type 0x87d-0x87e (1)
0x870|                                          07   |              . |      [137]: 7 transition_type 0x87e-0x87f (1)
0x870|                                             08|               .|      [138]: 8 transition_type 0x87f-0x880 (1)
0x880|07                                             |.               |      [139]: 7 transition_type 0x880-0x881 (1)
0x880|   08                                          | .              |      [140]: 8 transition_type 0x881-0x882 (1)
0x880|      07                                       |  .             |      [141]: 7 transition_type 0x882-0x883 (1)
0x880|         08                                    |   .            |      [142]: 8 transition_type 0x883-0x884 (1)
     |                                               |                |    local_time_type_records[0:9]: 0x884-0x8ba (54)
     |                                               |                |      [0]{}: local_time_type 0x884-0x88a (6)
0x880|            00 00 0c 88                        |    ....        |        utoff: 3208 (valid) 0x884-0x888 (4)
0x880|                        00                     |        .       |        dst: 0 (valid) 0x888-0x889 (1)
0x880|                           00                  |         .      |        idx: 0 (valid) 0x889-0x88a (1)
     |                                               |                |      [1]{}: local_time_type 0x88a-0x890 (6)
0x880|                              00 00 1c 20      |          ...   |        utoff: 7200 (valid) 0x88a-0x88e (4)
0x880|                                          01   |              . |        dst: 1 (valid) 0x88e-0x88f (1)
0x880|                                             04|               .|        idx: 4 (valid) 0x88f-0x890 (1)
     |                                               |                |      [2]{}: local_time_type 0x890-0x896 (6)
0x890|00 00 0e 10                                    |....            |        utoff: 3600 (valid) 0x890-0x894 (4)
0x890|            00                                 |    .           |        dst: 0 (valid) 0x894-0x895 (1)
0x890|               09                              |     .          |        idx: 9 (valid) 0x895-0x896 (1)
     |                                               |                |      [3]{}: local_time_type 0x896-0x89c (6)
0x890|                  00 00 1c 20                  |      ...       |        utoff: 7200 (valid) 0x896-0x89a (4)
0x890|                              01               |          .     |        dst: 1 (valid) 0x89a-0x89b (1)
0x890|                                 04            |           .    |        idx: 4 (valid) 0x89b-0x89c (1)
     |                                               |                |      [4]{}: local_time_type 0x89c-0x8a2 (6)
0x890|                                    00 00 0e 10|            ....|        utoff: 3600 (valid) 0x89c-0x8a0 (4)
0x8a0|00                                             |.               |        dst: 0 (valid) 0x8a0-0x8a1 (1)
0x8a0|   09                                          | .              |        idx: 9 (valid) 0x8a1-0x8a2 (1)
     |                                               |                |      [5]{}: local_time_type 0x8a2-0x8a8 (6)
0x8a0|      00 00 2a 30                              |  ..*0          |        utoff: 10800 (valid) 0x8a2-0x8a6 (4)
0x8a0|                  01                           |      .         |        dst: 1 (valid) 0x8a6-0x8a7 (1)
0x8a0|                     0d                        |       .        |        idx: 13 (valid) 0x8a7-0x8a8 (1)
     |                                               |                |      [6]{}: local_time_type 0x8a8-0x8ae (6)
0x8a0|                        00 00 2a 30            |        ..*0    |        utoff: 10800 (valid) 0x8a8-0x8ac (4)
0x8a0|                                    01         |            .   |        dst: 1 (valid) 0x8ac-0x8ad (1)
0x8a0|                                       0d      |             .  |        idx: 13 (valid) 0x8ad-0x8ae (1)
     |                                               |                |      [7]{}: local_time_type 0x8ae-0x8b4 (6)
0x8a0|                                          00 00|              ..|        utoff: 7200 (valid) 0x8ae-0x8b2 (4)
0x8b0|1c 20                                          |.               |
0x8b0|      01                                       |  .             |        dst: 1 (valid) 0x8b2-0x8b3 (1)
0x8b0|         04                                    |   .            |        idx: 4 (valid) 0x8b3-0x8b4 (1)
     |                                               |                |      [8]{}: local_time_type 0x8b4-0x8ba (6)
0x8b0|            00 00 0e 10                        |    ....        |        utoff: 3600 (valid) 0x8b4-0x8b8 (4)
0x8b0|                        00                     |        .       |        dst: 0 (valid) 0x8b8-0x8b9 (1)
0x8b0|                           09                  |         .      |        idx: 9 (valid) 0x8b9-0x8ba (1)
     |                                               |                |    time_zone_designations[0:4]: 0x8ba-0x8cc (18)
0x8b0|                              4c 4d 54 00      |          LMT.  |      [0]: "LMT" time_zone_designation 0x8ba-0x8be (4)
0x8b0|                                          43 45|              CE|      [1]: "CEST" time_zone_designation 0x8be-0x8c3 (5)
0x8c0|53 54 00                                       |ST.             |
0x8c0|         43 45 54 00                           |   CET.         |      [2]: "CET" time_zone_designation 0x8c3-0x8c7 (4)
0x8c0|                     43 45 4d 54 00            |       CEMT.    |      [3]: "CEMT" time_zone_designation 0x8c7-0x8cc (5)
     |                                               |                |    leap_second_records[0:0]: 0x8cc-0x8cc (0)
     |                                               |                |    standard_wall_indicators[0:9]: 0x8cc-0x8d5 (9)
0x8c0|                                    00         |            .   |      [0]: 0 standard_wall_indicator (valid) 0x8cc-0x8cd (1)
0x8c0|                                       00      |             .  |      [1]: 0 standard_wall_indicator (valid) 0x8cd-0x8ce (1)
0x8c0|                                          00   |              . |      [2]: 0 standard_wall_indicator (valid) 0x8ce-0x8cf (1)
0x8c0|                                             01|               .|      [3]: 1 standard_wall_indicator (valid) 0x8cf-0x8d0 (1)
0x8d0|01                                             |.               |      [4]: 1 standard_wall_indicator (valid) 0x8d0-0x8d1 (1)
0x8d0|   00                                          | .              |      [5]: 0 standard_wall_indicator (valid) 0x8d1-0x8d2 (1)
0x8d0|      01                                       |  .             |      [6]: 1 standard_wall_indicator (valid) 0x8d2-0x8d3 (1)
0x8d0|         01                                    |   .            |      [7]: 1 standard_wall_indicator (valid) 0x8d3-0x8d4 (1)
0x8d0|            01                                 |    .           |      [8]: 1 standard_wall_indicator (valid) 0x8d4-0x8d5 (1)
     |                                               |                |    ut_local_indicators[0:9]: 0x8d5-0x8de (9)
0x8d0|               00                              |     .          |      [0]: 0 ut_local_indicator (valid) 0x8d5-0x8d6 (1)
0x8d0|                  00                           |      .         |      [1]: 0 ut_local_indicator (valid) 0x8d6-0x8d7 (1)
0x8d0|                     00                        |       .        |      [2]: 0 ut_local_indicator (valid) 0x8d7-0x8d8 (1)
0x8d0|                        00                     |        .       |      [3]: 0 ut_local_indicator (valid) 0x8d8-0x8d9 (1)
0x8d0|                           00                  |         .      |      [4]: 0 ut_local_indicator (valid) 0x8d9-0x8da (1)
0x8d0|                              00               |          .     |      [5]: 0 ut_local_indicator (valid) 0x8da-0x8db (1)
0x8d0|                                 00            |           .    |      [6]: 0 ut_local_indicator (valid) 0x8db-0x8dc (1)
0x8d0|                                    01         |            .   |      [7]: 1 ut_local_indicator (valid) 0x8dc-0x8dd (1)
0x8d0|                                       01      |             .  |      [8]: 1 ut_local_indicator (valid) 0x8dd-0x8de (1)
     |                                               |                |  footer{}: 0x8de-0x8fa (28)
0x8d0|                                          0a   |              . |    nl1: 10 (valid) 0x8de-0x8df (1)
0x8d0|                                             43|               C|    tz_string: "CET-1CEST,M3.5.0,M10.5.0/3" 0x8df-0x8f9 (26)
0x8e0|45 54 2d 31 43 45 53 54 2c 4d 33 2e 35 2e 30 2c|ET-1CEST,M3.5.0,|
0x8f0|4d 31 30 2e 35 2e 30 2f 33                     |M10.5.0/3       |
0x8f0|                           0a|                 |         .|     |    nl2: 10 (valid) 0x8f9-0x8fa (1)
