$ fq -d tzif dv Bermuda
     |00 01 02 03 04 05 06 07 08 09 0a 0b 0c 0d 0e 0f|0123456789abcdef|.{}: Bermuda (tzif) 0x0-0x9d9.7 (2522)
     |                                               |                |  v1header{}: 0x0-0x2b.7 (44)
0x000|54 5a 69 66                                    |TZif            |    magic: 0x545a6966 (valid) 0x0-0x3.7 (4)
0x000|            32                                 |    2           |    ver: "2" (0x32) (valid) 0x4-0x4.7 (1)
0x000|               00 00 00 00 00 00 00 00 00 00 00|     ...........|    reserved: raw bits 0x5-0x13.7 (15)
0x010|00 00 00 00                                    |....            |
0x010|            00 00 00 00                        |    ....        |    isutcnt: 0 0x14-0x17.7 (4)
0x010|                        00 00 00 00            |        ....    |    isstdcnt: 0 0x18-0x1b.7 (4)
0x010|                                    00 00 00 1b|            ....|    leapcnt: 27 0x1c-0x1f.7 (4)
0x020|00 00 00 80                                    |....            |    timecnt: 128 0x20-0x23.7 (4)
0x020|            00 00 00 05                        |    ....        |    typecnt: 5 0x24-0x27.7 (4)
0x020|                        00 00 00 14            |        ....    |    charcnt: 20 0x28-0x2b.7 (4)
     |                                               |                |  v1datablock{}: 0x2c-0x3b5.7 (906)
     |                                               |                |    transition_times[0:128]: 0x2c-0x22b.7 (512)
0x020|                                    80 00 00 00|            ....|      [0]: "1901-12-13T20:45:52Z" (-2147483648) transition_time 0x2c-0x2f.7 (4)
0x030|9c cc ae 46                                    |...F            |      [1]: "1917-04-06T04:19:18Z" (-1664307642) transition_time 0x30-0x33.7 (4)
0x030|            9d b7 4b 36                        |    ..K6        |      [2]: "1917-10-01T03:19:18Z" (-1648932042) transition_time 0x34-0x37.7 (4)
0x030|                        9e b8 6d c6            |        ..m.    |      [3]: "1918-04-14T04:19:18Z" (-1632080442) transition_time 0x38-0x3b.7 (4)
0x030|                                    9f 84 b8 36|            ...6|      [4]: "1918-09-16T03:19:18Z" (-1618692042) transition_time 0x3c-0x3f.7 (4)
0x040|b4 c3 1d e6                                    |....            |      [5]: "1930-01-01T06:19:18Z" (-1262281242) transition_time 0x40-0x43.7 (4)
0x040|            cb 62 a6 e0                        |    .b..        |      [6]: "1942-01-11T06:00:00Z" (-882727200) transition_time 0x44-0x47.7 (4)
0x040|                        cc d3 bc d0            |        ....    |      [7]: "1942-10-18T05:00:00Z" (-858538800) transition_time 0x48-0x4b.7 (4)
0x040|                                    cd 9e d1 e0|            ....|      [8]: "1943-03-21T06:00:00Z" (-845229600) transition_time 0x4c-0x4f.7 (4)
0x050|ce c6 13 d0                                    |....            |      [9]: "1943-10-31T05:00:00Z" (-825879600) transition_time 0x50-0x53.7 (4)
0x050|            cf 75 79 60                        |    .uy`        |      [10]: "1944-03-12T06:00:00Z" (-814384800) transition_time 0x54-0x57.7 (4)
0x050|                        d0 af 30 50            |        ..0P    |      [11]: "1944-11-05T05:00:00Z" (-793825200) transition_time 0x58-0x5b.7 (4)
0x050|                                    d1 55 5b 60|            .U[`|      [12]: "1945-03-11T06:00:00Z" (-782935200) transition_time 0x5c-0x5f.7 (4)
0x060|d2 8f 12 50                                    |...P            |      [13]: "1945-11-04T05:00:00Z" (-762375600) transition_time 0x60-0x63.7 (4)
0x060|            d5 71 68 60                        |    .qh`        |      [14]: "1947-05-18T06:00:00Z" (-713988000) transition_time 0x64-0x67.7 (4)
0x060|                        d6 0e 3c d0            |        ..<.    |      [15]: "1947-09-14T05:00:00Z" (-703710000) transition_time 0x68-0x6b.7 (4)
0x060|                                    d7 5a 84 e0|            .Z..|      [16]: "1948-05-23T06:00:00Z" (-681933600) transition_time 0x6c-0x6f.7 (4)
0x070|d7 e4 e4 50                                    |...P            |      [17]: "1948-09-05T05:00:00Z" (-672865200) transition_time 0x70-0x73.7 (4)
0x070|            d9 3a 66 e0                        |    .:f.        |      [18]: "1949-05-22T06:00:00Z" (-650484000) transition_time 0x74-0x77.7 (4)
0x070|                        d9 c4 c6 50            |        ...P    |      [19]: "1949-09-04T05:00:00Z" (-641415600) transition_time 0x78-0x7b.7 (4)
0x070|                                    db 23 83 60|            .#.`|      [20]: "1950-05-28T06:00:00Z" (-618429600) transition_time 0x7c-0x7f.7 (4)
0x080|db a4 a8 50                                    |...P            |      [21]: "1950-09-03T05:00:00Z" (-609966000) transition_time 0x80-0x83.7 (4)
0x080|            dd 03 65 60                        |    ..e`        |      [22]: "1951-05-27T06:00:00Z" (-586980000) transition_time 0x84-0x87.7 (4)
0x080|                        dd 84 8a 50            |        ...P    |      [23]: "1951-09-02T05:00:00Z" (-578516400) transition_time 0x88-0x8b.7 (4)
0x080|                                    de e3 47 60|            ..G`|      [24]: "1952-05-25T06:00:00Z" (-555530400) transition_time 0x8c-0x8f.7 (4)
0x090|df 6d a6 d0                                    |.m..            |      [25]: "1952-09-07T05:00:00Z" (-546462000) transition_time 0x90-0x93.7 (4)
0x090|            e6 6c 09 e0                        |    .l..        |      [26]: "1956-05-27T06:00:00Z" (-429127200) transition_time 0x94-0x97.7 (4)
0x090|                        e7 37 02 d0            |        .7..    |      [27]: "1956-10-28T05:00:00Z" (-415825200) transition_time 0x98-0x9b.7 (4)
0x090|                                    08 20 b3 63|            . .c|      [28]: "1974-04-28T06:00:03Z" (136360803) transition_time 0x9c-0x9f.7 (4)
0x0a0|09 10 96 53                                    |...S            |      [29]: "1974-10-27T05:00:03Z" (152082003) transition_time 0xa0-0xa3.7 (4)
0x0a0|            0a 00 95 64                        |    ...d        |      [30]: "1975-04-27T06:00:04Z" (167810404) transition_time 0xa4-0xa7.7 (4)
0x0a0|                        0a f0 78 54            |        ..xT    |      [31]: "1975-10-26T05:00:04Z" (183531604) transition_time 0xa8-0xab.7 (4)
0x0a0|                                    0b e0 77 65|            ..we|      [32]: "1976-04-25T06:00:05Z" (199260005) transition_time 0xac-0xaf.7 (4)
0x0b0|0c d9 94 d5                                    |....            |      [33]: "1976-10-31T05:00:05Z" (215586005) transition_time 0xb0-0xb3.7 (4)
0x0b0|            0d c0 59 66                        |    ..Yf        |      [34]: "1977-04-24T06:00:06Z" (230709606) transition_time 0xb4-0xb7.7 (4)
0x0b0|                        0e b9 76 d6            |        ..v.    |      [35]: "1977-10-30T05:00:06Z" (247035606) transition_time 0xb8-0xbb.7 (4)
0x0b0|                                    0f a9 75 e7|            ..u.|      [36]: "1978-04-30T06:00:07Z" (262764007) transition_time 0xbc-0xbf.7 (4)
0x0c0|10 99 58 d7                                    |..X.            |      [37]: "1978-10-29T05:00:07Z" (278485207) transition_time 0xc0-0xc3.7 (4)
0x0c0|            11 89 57 e8                        |    ..W.        |      [38]: "1979-04-29T06:00:08Z" (294213608) transition_time 0xc4-0xc7.7 (4)
0x0c0|                        12 79 3a d8            |        .y:.    |      [39]: "1979-10-28T05:00:08Z" (309934808) transition_time 0xc8-0xcb.7 (4)
0x0c0|                                    13 69 39 e9|            .i9.|      [40]: "1980-04-27T06:00:09Z" (325663209) transition_time 0xcc-0xcf.7 (4)
0x0d0|14 59 1c d9                                    |.Y..            |      [41]: "1980-10-26T05:00:09Z" (341384409) transition_time 0xd0-0xd3.7 (4)
0x0d0|            15 49 1b e9                        |    .I..        |      [42]: "1981-04-26T06:00:09Z" (357112809) transition_time 0xd4-0xd7.7 (4)
0x0d0|                        16 38 fe da            |        .8..    |      [43]: "1981-10-25T05:00:10Z" (372834010) transition_time 0xd8-0xdb.7 (4)
0x0d0|                                    17 28 fd ea|            .(..|      [44]: "1982-04-25T06:00:10Z" (388562410) transition_time 0xdc-0xdf.7 (4)
0x0e0|18 22 1b 5b                                    |.".[            |      [45]: "1982-10-31T05:00:11Z" (404888411) transition_time 0xe0-0xe3.7 (4)
0x0e0|            19 08 df eb                        |    ....        |      [46]: "1983-04-24T06:00:11Z" (420012011) transition_time 0xe4-0xe7.7 (4)
0x0e0|                        1a 01 fd 5c            |        ...\    |      [47]: "1983-10-30T05:00:12Z" (436338012) transition_time 0xe8-0xeb.7 (4)
0x0e0|                                    1a f1 fc 6c|            ...l|      [48]: "1984-04-29T06:00:12Z" (452066412) transition_time 0xec-0xef.7 (4)
0x0f0|1b e1 df 5c                                    |...\            |      [49]: "1984-10-28T05:00:12Z" (467787612) transition_time 0xf0-0xf3.7 (4)
0x0f0|            1c d1 de 6c                        |    ...l        |      [50]: "1985-04-28T06:00:12Z" (483516012) transition_time 0xf4-0xf7.7 (4)
0x0f0|                        1d c1 c1 5d            |        ...]    |      [51]: "1985-10-27T05:00:13Z" (499237213) transition_time 0xf8-0xfb.7 (4)
0x0f0|                                    1e b1 c0 6d|            ...m|      [52]: "1986-04-27T06:00:13Z" (514965613) transition_time 0xfc-0xff.7 (4)
0x100|1f a1 a3 5d                                    |...]            |      [53]: "1986-10-26T05:00:13Z" (530686813) transition_time 0x100-0x103.7 (4)
0x100|            20 75 f2 ed                        |     u..        |      [54]: "1987-04-05T06:00:13Z" (544600813) transition_time 0x104-0x107.7 (4)
0x100|                        21 81 85 5d            |        !..]    |      [55]: "1987-10-25T05:00:13Z" (562136413) transition_time 0x108-0x10b.7 (4)
0x100|                                    22 55 d4 ee|            "U..|      [56]: "1988-04-03T06:00:14Z" (576050414) transition_time 0x10c-0x10f.7 (4)
0x110|23 6a a1 de                                    |#j..            |      [57]: "1988-10-30T05:00:14Z" (594190814) transition_time 0x110-0x113.7 (4)
0x110|            24 35 b6 ee                        |    $5..        |      [58]: "1989-04-02T06:00:14Z" (607500014) transition_time 0x114-0x117.7 (4)
0x110|                        25 4a 83 de            |        %J..    |      [59]: "1989-10-29T05:00:14Z" (625640414) transition_time 0x118-0x11b.7 (4)
0x110|                                    26 15 98 ef|            &...|      [60]: "1990-04-01T06:00:15Z" (638949615) transition_time 0x11c-0x11f.7 (4)
0x120|27 2a 65 df                                    |'*e.            |      [61]: "1990-10-28T05:00:15Z" (657090015) transition_time 0x120-0x123.7 (4)
0x120|            27 fe b5 70                        |    '..p        |      [62]: "1991-04-07T06:00:16Z" (671004016) transition_time 0x124-0x127.7 (4)
0x120|                        29 0a 47 e0            |        ).G.    |      [63]: "1991-10-27T05:00:16Z" (688539616) transition_time 0x128-0x12b.7 (4)
0x120|                                    29 de 97 70|            )..p|      [64]: "1992-04-05T06:00:16Z" (702453616) transition_time 0x12c-0x12f.7 (4)
0x130|2a ea 29 e1                                    |*.).            |      [65]: "1992-10-25T05:00:17Z" (719989217) transition_time 0x130-0x133.7 (4)
0x130|            2b be 79 71                        |    +.yq        |      [66]: "1993-04-04T06:00:17Z" (733903217) transition_time 0x134-0x137.7 (4)
0x130|                        2c d3 46 62            |        ,.Fb    |      [67]: "1993-10-31T05:00:18Z" (752043618) transition_time 0x138-0x13b.7 (4)
0x130|                                    2d 9e 5b 72|            -.[r|      [68]: "1994-04-03T06:00:18Z" (765352818) transition_time 0x13c-0x13f.7 (4)
0x140|2e b3 28 63                                    |..(c            |      [69]: "1994-10-30T05:00:19Z" (783493219) transition_time 0x140-0x143.7 (4)
0x140|            2f 7e 3d 73                        |    /~=s        |      [70]: "1995-04-02T06:00:19Z" (796802419) transition_time 0x144-0x147.7 (4)
0x140|                        30 93 0a 63            |        0..c    |      [71]: "1995-10-29T05:00:19Z" (814942819) transition_time 0x148-0x14b.7 (4)
0x140|                                    31 67 59 f4|            1gY.|      [72]: "1996-04-07T06:00:20Z" (828856820) transition_time 0x14c-0x14f.7 (4)
0x150|32 72 ec 64                                    |2r.d            |      [73]: "1996-10-27T05:00:20Z" (846392420) transition_time 0x150-0x153.7 (4)
0x150|            33 47 3b f4                        |    3G;.        |      [74]: "1997-04-06T06:00:20Z" (860306420) transition_time 0x154-0x157.7 (4)
0x150|                        34 52 ce 65            |        4R.e    |      [75]: "1997-10-26T05:00:21Z" (877842021) transition_time 0x158-0x15b.7 (4)
0x150|                                    35 27 1d f5|            5'..|      [76]: "1998-04-05T06:00:21Z" (891756021) transition_time 0x15c-0x15f.7 (4)
0x160|36 32 b0 65                                    |62.e            |      [77]: "1998-10-25T05:00:21Z" (909291621) transition_time 0x160-0x163.7 (4)
0x160|            37 06 ff f6                        |    7...        |      [78]: "1999-04-04T06:00:22Z" (923205622) transition_time 0x164-0x167.7 (4)
0x160|                        38 1b cc e6            |        8...    |      [79]: "1999-10-31T05:00:22Z" (941346022) transition_time 0x168-0x16b.7 (4)
0x160|                                    38 e6 e1 f6|            8...|      [80]: "2000-04-02T06:00:22Z" (954655222) transition_time 0x16c-0x16f.7 (4)
0x170|39 fb ae e6                                    |9...            |      [81]: "2000-10-29T05:00:22Z" (972795622) transition_time 0x170-0x173.7 (4)
0x170|            3a c6 c3 f6                        |    :...        |      [82]: "2001-04-01T06:00:22Z" (986104822) transition_time 0x174-0x177.7 (4)
0x170|                        3b db 90 e6            |        ;...    |      [83]: "2001-10-28T05:00:22Z" (1004245222) transition_time 0x178-0x17b.7 (4)
0x170|                                    3c af e0 76|            <..v|      [84]: "2002-04-07T06:00:22Z" (1018159222) transition_time 0x17c-0x17f.7 (4)
0x180|3d bb 72 e6                                    |=.r.            |      [85]: "2002-10-27T05:00:22Z" (1035694822) transition_time 0x180-0x183.7 (4)
0x180|            3e 8f c2 76                        |    >..v        |      [86]: "2003-04-06T06:00:22Z" (1049608822) transition_time 0x184-0x187.7 (4)
0x180|                        3f 9b 54 e6            |        ?.T.    |      [87]: "2003-10-26T05:00:22Z" (1067144422) transition_time 0x188-0x18b.7 (4)
0x180|                                    40 6f a4 76|            @o.v|      [88]: "2004-04-04T06:00:22Z" (1081058422) transition_time 0x18c-0x18f.7 (4)
0x190|41 84 71 66                                    |A.qf            |      [89]: "2004-10-31T05:00:22Z" (1099198822) transition_time 0x190-0x193.7 (4)
0x190|            42 4f 86 76                        |    BO.v        |      [90]: "2005-04-03T06:00:22Z" (1112508022) transition_time 0x194-0x197.7 (4)
0x190|                        43 64 53 66            |        CdSf    |      [91]: "2005-10-30T05:00:22Z" (1130648422) transition_time 0x198-0x19b.7 (4)
0x190|                                    44 2f 68 77|            D/hw|      [92]: "2006-04-02T06:00:23Z" (1143957623) transition_time 0x19c-0x19f.7 (4)
0x1a0|45 44 35 67                                    |ED5g            |      [93]: "2006-10-29T05:00:23Z" (1162098023) transition_time 0x1a0-0x1a3.7 (4)
0x1a0|            45 f3 9a f7                        |    E...        |      [94]: "2007-03-11T06:00:23Z" (1173592823) transition_time 0x1a4-0x1a7.7 (4)
0x1a0|                        47 2d 51 e7            |        G-Q.    |      [95]: "2007-11-04T05:00:23Z" (1194152423) transition_time 0x1a8-0x1ab.7 (4)
0x1a0|                                    47 d3 7c f7|            G.|.|      [96]: "2008-03-09T06:00:23Z" (1205042423) transition_time 0x1ac-0x1af.7 (4)
0x1b0|49 0d 33 e7                                    |I.3.            |      [97]: "2008-11-02T05:00:23Z" (1225602023) transition_time 0x1b0-0x1b3.7 (4)
0x1b0|            49 b3 5e f8                        |    I.^.        |      [98]: "2009-03-08T06:00:24Z" (1236492024) transition_time 0x1b4-0x1b7.7 (4)
0x1b0|                        4a ed 15 e8            |        J...    |      [99]: "2009-11-01T05:00:24Z" (1257051624) transition_time 0x1b8-0x1bb.7 (4)
0x1b0|                                    4b 9c 7b 78|            K.{x|      [100]: "2010-03-14T06:00:24Z" (1268546424) transition_time 0x1bc-0x1bf.7 (4)
0x1c0|4c d6 32 68                                    |L.2h            |      [101]: "2010-11-07T05:00:24Z" (1289106024) transition_time 0x1c0-0x1c3.7 (4)
0x1c0|            4d 7c 5d 78                        |    M|]x        |      [102]: "2011-03-13T06:00:24Z" (1299996024) transition_time 0x1c4-0x1c7.7 (4)
0x1c0|                        4e b6 14 68            |        N..h    |      [103]: "2011-11-06T05:00:24Z" (1320555624) transition_time 0x1c8-0x1cb.7 (4)
0x1c0|                                    4f 5c 3f 78|            O\?x|      [104]: "2012-03-11T06:00:24Z" (1331445624) transition_time 0x1cc-0x1cf.7 (4)
0x1d0|50 95 f6 69                                    |P..i            |      [105]: "2012-11-04T05:00:25Z" (1352005225) transition_time 0x1d0-0x1d3.7 (4)
0x1d0|            51 3c 21 79                        |    Q<!y        |      [106]: "2013-03-10T06:00:25Z" (1362895225) transition_time 0x1d4-0x1d7.7 (4)
0x1d0|                        52 75 d8 69            |        Ru.i    |      [107]: "2013-11-03T05:00:25Z" (1383454825) transition_time 0x1d8-0x1db.7 (4)
0x1d0|                                    53 1c 03 79|            S..y|      [108]: "2014-03-09T06:00:25Z" (1394344825) transition_time 0x1dc-0x1df.7 (4)
0x1e0|54 55 ba 69                                    |TU.i            |      [109]: "2014-11-02T05:00:25Z" (1414904425) transition_time 0x1e0-0x1e3.7 (4)
0x1e0|            54 fb e5 79                        |    T..y        |      [110]: "2015-03-08T06:00:25Z" (1425794425) transition_time 0x1e4-0x1e7.7 (4)
0x1e0|                        56 35 9c 6a            |        V5.j    |      [111]: "2015-11-01T05:00:26Z" (1446354026) transition_time 0x1e8-0x1eb.7 (4)
0x1e0|                                    56 e5 01 fa|            V...|      [112]: "2016-03-13T06:00:26Z" (1457848826) transition_time 0x1ec-0x1ef.7 (4)
0x1f0|58 1e b8 ea                                    |X...            |      [113]: "2016-11-06T05:00:26Z" (1478408426) transition_time 0x1f0-0x1f3.7 (4)
0x1f0|            58 c4 e3 fb                        |    X...        |      [114]: "2017-03-12T06:00:27Z" (1489298427) transition_time 0x1f4-0x1f7.7 (4)
0x1f0|                        59 fe 9a eb            |        Y...    |      [115]: "2017-11-05T05:00:27Z" (1509858027) transition_time 0x1f8-0x1fb.7 (4)
0x1f0|                                    5a a4 c5 fb|            Z...|      [116]: "2018-03-11T06:00:27Z" (1520748027) transition_time 0x1fc-0x1ff.7 (4)
0x200|5b de 7c eb                                    |[.|.            |      [117]: "2018-11-04T05:00:27Z" (1541307627) transition_time 0x200-0x203.7 (4)
0x200|            5c 84 a7 fb                        |    \...        |      [118]: "2019-03-10T06:00:27Z" (1552197627) transition_time 0x204-0x207.7 (4)
0x200|                        5d be 5e eb            |        ].^.    |      [119]: "2019-11-03T05:00:27Z" (1572757227) transition_time 0x208-0x20b.7 (4)
0x200|                                    5e 64 89 fb|            ^d..|      [120]: "2020-03-08T06:00:27Z" (1583647227) transition_time 0x20c-0x20f.7 (4)
0x210|5f 9e 40 eb                                    |_.@.            |      [121]: "2020-11-01T05:00:27Z" (1604206827) transition_time 0x210-0x213.7 (4)
0x210|            60 4d a6 7b                        |    `M.{        |      [122]: "2021-03-14T06:00:27Z" (1615701627) transition_time 0x214-0x217.7 (4)
0x210|                        61 87 5d 6b            |        a.]k    |      [123]: "2021-11-07T05:00:27Z" (1636261227) transition_time 0x218-0x21b.7 (4)
0x210|                                    62 2d 88 7b|            b-.{|      [124]: "2022-03-13T06:00:27Z" (1647151227) transition_time 0x21c-0x21f.7 (4)
0x220|63 67 3f 6b                                    |cg?k            |      [125]: "2022-11-06T05:00:27Z" (1667710827) transition_time 0x220-0x223.7 (4)
0x220|            64 0d 6a 7b                        |    d.j{        |      [126]: "2023-03-12T06:00:27Z" (1678600827) transition_time 0x224-0x227.7 (4)
0x220|                        64 9b 78 1b            |        d.x.    |      [127]: "2023-06-28T00:00:27Z" (1687910427) transition_time 0x228-0x22b.7 (4)
     |                                               |                |    transition_types[0:128]: 0x22c-0x2ab.7 (128)
0x220|                                    02         |            .   |      [0]: 2 transition_type 0x22c-0x22c.7 (1)
0x220|                                       01      |             .  |      [1]: 1 transition_type 0x22d-0x22d.7 (1)
0x220|                                          02   |              . |      [2]: 2 transition_type 0x22e-0x22e.7 (1)
0x220|                                             01|               .|      [3]: 1 transition_type 0x22f-0x22f.7 (1)
0x230|02                                             |.               |      [4]: 2 transition_type 0x230-0x230.7 (1)
0x230|   04                                          | .              |      [5]: 4 transition_type 0x231-0x231.7 (1)
0x230|      03                                       |  .             |      [6]: 3 transition_type 0x232-0x232.7 (1)
0x230|         04                                    |   .            |      [7]: 4 transition_type 0x233-0x233.7 (1)
0x230|            03                                 |    .           |      [8]: 3 transition_type 0x234-0x234.7 (1)
0x230|               04                              |     .          |      [9]: 4 transition_type 0x235-0x235.7 (1)
0x230|                  03                           |      .         |      [10]: 3 transition_type 0x236-0x236.7 (1)
0x230|                     04                        |       .        |      [11]: 4 transition_type 0x237-0x237.7 (1)
0x230|                        03                     |        .       |      [12]: 3 transition_type 0x238-0x238.7 (1)
0x230|                           04                  |         .      |      [13]: 4 transition_type 0x239-0x239.7 (1)
0x230|                              03               |          .     |      [14]: 3 transition_type 0x23a-0x23a.7 (1)
0x230|                                 04            |           .    |      [15]: 4 transition_type 0x23b-0x23b.7 (1)
0x230|                                    03         |            .   |      [16]: 3 transition_type 0x23c-0x23c.7 (1)
0x230|                                       04      |             .  |      [17]: 4 transition_type 0x23d-0x23d.7 (1)
0x230|                                          03   |              . |      [18]: 3 transition_type 0x23e-0x23e.7 (1)
0x230|                                             04|               .|      [19]: 4 transition_type 0x23f-0x23f.7 (1)
0x240|03                                             |.               |      [20]: 3 transition_type 0x240-0x240.7 (1)
0x240|   04                                          | .              |      [21]: 4 transition_type 0x241-0x241.7 (1)
0x240|      03                                       |  .             |      [22]: 3 transition_type 0x242-0x242.7 (1)
0x240|         04                                    |   .            |      [23]: 4 transition_type 0x243-0x243.7 (1)
0x240|            03                                 |    .           |      [24]: 3 transition_type 0x244-0x244.7 (1)
0x240|               04                              |     .          |      [25]: 4 transition_type 0x245-0x245.7 (1)
0x240|                  03                           |      .         |      [26]: 3 transition_type 0x246-0x246.7 (1)
0x240|                     04                        |       .        |      [27]: 4 transition_type 0x247-0x247.7 (1)
0x240|                        03                     |        .       |      [28]: 3 transition_type 0x248-0x248.7 (1)
0x240|                           04                  |         .      |      [29]: 4 transition_type 0x249-0x249.7 (1)
0x240|                              03               |          .     |      [30]: 3 transition_type 0x24a-0x24a.7 (1)
0x240|                                 04            |           .    |      [31]: 4 transition_type 0x24b-0x24b.7 (1)
0x240|                                    03         |            .   |      [32]: 3 transition_type 0x24c-0x24c.7 (1)
0x240|                                       04      |             .  |      [33]: 4 transition_type 0x24d-0x24d.7 (1)
0x240|                                          03   |              . |      [34]: 3 transition_type 0x24e-0x24e.7 (1)
0x240|                                             04|               .|      [35]: 4 transition_type 0x24f-0x24f.7 (1)
0x250|03                                             |.               |      [36]: 3 transition_type 0x250-0x250.7 (1)
0x250|   04                                          | .              |      [37]: 4 transition_type 0x251-0x251.7 (1)
0x250|      03                                       |  .             |      [38]: 3 transition_type 0x252-0x252.7 (1)
0x250|         04                                    |   .            |      [39]: 4 transition_type 0x253-0x253.7 (1)
0x250|            03                                 |    .           |      [40]: 3 transition_type 0x254-0x254.7 (1)
0x250|               04                              |     .          |      [41]: 4 transition_type 0x255-0x255.7 (1)
0x250|                  03                           |      .         |      [42]: 3 transition_type 0x256-0x256.7 (1)
0x250|                     04                        |       .        |      [43]: 4 transition_type 0x257-0x257.7 (1)
0x250|                        03                     |        .       |      [44]: 3 transition_type 0x258-0x258.7 (1)
0x250|                           04                  |         .      |      [45]: 4 transition_type 0x259-0x259.7 (1)
0x250|                              03               |          .     |      [46]: 3 transition_type 0x25a-0x25a.7 (1)
0x250|                                 04            |           .    |      [47]: 4 transition_type 0x25b-0x25b.7 (1)
0x250|                                    03         |            .   |      [48]: 3 transition_type 0x25c-0x25c.7 (1)
0x250|                                       04      |             .  |      [49]: 4 transition_type 0x25d-0x25d.7 (1)
0x250|                                          03   |              . |      [50]: 3 transition_type 0x25e-0x25e.7 (1)
0x250|                                             04|               .|      [51]: 4 transition_type 0x25f-0x25f.7 (1)
0x260|03                                             |.               |      [52]: 3 transition_type 0x260-0x260.7 (1)
0x260|   04                                          | .              |      [53]: 4 transition_type 0x261-0x261.7 (1)
0x260|      03                                       |  .             |      [54]: 3 transition_type 0x262-0x262.7 (1)
0x260|         04                                    |   .            |      [55]: 4 transition_type 0x263-0x263.7 (1)
0x260|            03                                 |    .           |      [56]: 3 transition_type 0x264-0x264.7 (1)
0x260|               04                              |     .          |      [57]: 4 transition_type 0x265-0x265.7 (1)
0x260|                  03                           |      .         |      [58]: 3 transition_type 0x266-0x266.7 (1)
0x260|                     04                        |       .        |      [59]: 4 transition_type 0x267-0x267.7 (1)
0x260|                        03                     |        .       |      [60]: 3 transition_type 0x268-0x268.7 (1)
0x260|                           04                  |         .      |      [61]: 4 transition_type 0x269-0x269.7 (1)
0x260|                              03               |          .     |      [62]: 3 transition_type 0x26a-0x26a.7 (1)
0x260|                                 04            |           .    |      [63]: 4 transition_type 0x26b-0x26b.7 (1)
0x260|                                    03         |            .   |      [64]: 3 transition_type 0x26c-0x26c.7 (1)
0x260|                                       04      |             .  |      [65]: 4 transition_type 0x26d-0x26d.7 (1)
0x260|                                          03   |              . |      [66]: 3 transition_type 0x26e-0x26e.7 (1)
0x260|                                             04|               .|      [67]: 4 transition_type 0x26f-0x26f.7 (1)
0x270|03                                             |.               |      [68]: 3 transition_type 0x270-0x270.7 (1)
0x270|   04                                          | .              |      [69]: 4 transition_type 0x271-0x271.7 (1)
0x270|      03                                       |  .             |      [70]: 3 transition_type 0x272-0x272.7 (1)
0x270|         04                                    |   .            |      [71]: 4 transition_type 0x273-0x273.7 (1)
0x270|            03                                 |    .           |      [72]: 3 transition_type 0x274-0x274.7 (1)
0x270|               04                              |     .          |      [73]: 4 transition_type 0x275-0x275.7 (1)
0x270|                  03                           |      .         |      [74]: 3 transition_type 0x276-0x276.7 (1)
0x270|                     04                        |       .        |      [75]: 4 transition_type 0x277-0x277.7 (1)
0x270|                        03                     |        .       |      [76]: 3 transition_type 0x278-0x278.7 (1)
0x270|                           04                  |         .      |      [77]: 4 transition_type 0x279-0x279.7 (1)
0x270|                              03               |          .     |      [78]: 3 transition_type 0x27a-0x27a.7 (1)
0x270|                                 04            |           .    |      [79]: 4 transition_type 0x27b-0x27b.7 (1)
0x270|                                    03         |            .   |      [80]: 3 transition_type 0x27c-0x27c.7 (1)
0x270|                                       04      |             .  |      [81]: 4 transition_type 0x27d-0x27d.7 (1)
0x270|                                          03   |              . |      [82]: 3 transition_type 0x27e-0x27e.7 (1)
0x270|                                             04|               .|      [83]: 4 transition_type 0x27f-0x27f.7 (1)
0x280|03                                             |.               |      [84]: 3 transition_type 0x280-0x280.7 (1)
0x280|   04                                          | .              |      [85]: 4 transition_type 0x281-0x281.7 (1)
0x280|      03                                       |  .             |      [86]: 3 transition_type 0x282-0x282.7 (1)
0x280|         04                                    |   .            |      [87]: 4 transition_type 0x283-0x283.7 (1)
0x280|            03                                 |    .           |      [88]: 3 transition_type 0x284-0x284.7 (1)
0x280|               04                              |     .          |      [89]: 4 transition_type 0x285-0x285.7 (1)
0x280|                  03                           |      .         |      [90]: 3 transition_type 0x286-0x286.7 (1)
0x280|                     04                        |       .        |      [91]: 4 transition_type 0x287-0x287.7 (1)
0x280|                        03                     |        .       |      [92]: 3 transition_type 0x288-0x288.7 (1)
0x280|                           04                  |         .      |      [93]: 4 transition_type 0x289-0x289.7 (1)
0x280|                              03               |          .     |      [94]: 3 transition_type 0x28a-0x28a.7 (1)
0x280|                                 04            |           .    |      [95]: 4 transition_type 0x28b-0x28b.7 (1)
0x280|                                    03         |            .   |      [96]: 3 transition_type 0x28c-0x28c.7 (1)
0x280|                                       04      |             .  |      [97]: 4 transition_type 0x28d-0x28d.7 (1)
0x280|                                          03   |              . |      [98]: 3 transition_type 0x28e-0x28e.7 (1)
0x280|                                             04|               .|      [99]: 4 transition_type 0x28f-0x28f.7 (1)
0x290|03                                             |.               |      [100]: 3 transition_type 0x290-0x290.7 (1)
0x290|   04                                          | .              |      [101]: 4 transition_type 0x291-0x291.7 (1)
0x290|      03                                       |  .             |      [102]: 3 transition_type 0x292-0x292.7 (1)
0x290|         04                                    |   .            |      [103]: 4 transition_type 0x293-0x293.7 (1)
0x290|            03                                 |    .           |      [104]: 3 transition_type 0x294-0x294.7 (1)
0x290|               04                              |     .          |      [105]: 4 transition_type 0x295-0x295.7 (1)
0x290|                  03                           |      .         |      [106]: 3 transition_type 0x296-0x296.7 (1)
0x290|                     04                        |       .        |      [107]: 4 transition_type 0x297-0x297.7 (1)
0x290|                        03                     |        .       |      [108]: 3 transition_type 0x298-0x298.7 (1)
0x290|                           04                  |         .      |      [109]: 4 transition_type 0x299-0x299.7 (1)
0x290|                              03               |          .     |      [110]: 3 transition_type 0x29a-0x29a.7 (1)
0x290|                                 04            |           .    |      [111]: 4 transition_type 0x29b-0x29b.7 (1)
0x290|                                    03         |            .   |      [112]: 3 transition_type 0x29c-0x29c.7 (1)
0x290|                                       04      |             .  |      [113]: 4 transition_type 0x29d-0x29d.7 (1)
0x290|                                          03   |              . |      [114]: 3 transition_type 0x29e-0x29e.7 (1)
0x290|                                             04|               .|      [115]: 4 transition_type 0x29f-0x29f.7 (1)
0x2a0|03                                             |.               |      [116]: 3 transition_type 0x2a0-0x2a0.7 (1)
0x2a0|   04                                          | .              |      [117]: 4 transition_type 0x2a1-0x2a1.7 (1)
0x2a0|      03                                       |  .             |      [118]: 3 transition_type 0x2a2-0x2a2.7 (1)
0x2a0|         04                                    |   .            |      [119]: 4 transition_type 0x2a3-0x2a3.7 (1)
0x2a0|            03                                 |    .           |      [120]: 3 transition_type 0x2a4-0x2a4.7 (1)
0x2a0|               04                              |     .          |      [121]: 4 transition_type 0x2a5-0x2a5.7 (1)
0x2a0|                  03                           |      .         |      [122]: 3 transition_type 0x2a6-0x2a6.7 (1)
0x2a0|                     04                        |       .        |      [123]: 4 transition_type 0x2a7-0x2a7.7 (1)
0x2a0|                        03                     |        .       |      [124]: 3 transition_type 0x2a8-0x2a8.7 (1)
0x2a0|                           04                  |         .      |      [125]: 4 transition_type 0x2a9-0x2a9.7 (1)
0x2a0|                              03               |          .     |      [126]: 3 transition_type 0x2aa-0x2aa.7 (1)
0x2a0|                                 03            |           .    |      [127]: 3 transition_type 0x2ab-0x2ab.7 (1)
     |                                               |                |    local_time_type_records[0:5]: 0x2ac-0x2c9.7 (30)
     |                                               |                |      [0]{}: local_time_type 0x2ac-0x2b1.7 (6)
0x2a0|                                    ff ff c3 3a|            ...:|        utoff: -15558 (valid) 0x2ac-0x2af.7 (4)
0x2b0|00                                             |.               |        dst: 0 (valid) 0x2b0-0x2b0.7 (1)
0x2b0|   00                                          | .              |        idx: 0 (valid) 0x2b1-0x2b1.7 (1)
     |                                               |                |      [1]{}: local_time_type 0x2b2-0x2b7.7 (6)
0x2b0|      ff ff d1 4a                              |  ...J          |        utoff: -11958 (valid) 0x2b2-0x2b5.7 (4)
0x2b0|                  01                           |      .         |        dst: 1 (valid) 0x2b6-0x2b6.7 (1)
0x2b0|                     04                        |       .        |        idx: 4 (valid) 0x2b7-0x2b7.7 (1)
     |                                               |                |      [2]{}: local_time_type 0x2b8-0x2bd.7 (6)
0x2b0|                        ff ff c3 3a            |        ...:    |        utoff: -15558 (valid) 0x2b8-0x2bb.7 (4)
0x2b0|                                    00         |            .   |        dst: 0 (valid) 0x2bc-0x2bc.7 (1)
0x2b0|                                       08      |             .  |        idx: 8 (valid) 0x2bd-0x2bd.7 (1)
     |                                               |                |      [3]{}: local_time_type 0x2be-0x2c3.7 (6)
0x2b0|                                          ff ff|              ..|        utoff: -10800 (valid) 0x2be-0x2c1.7 (4)
0x2c0|d5 d0                                          |..              |
0x2c0|      01                                       |  .             |        dst: 1 (valid) 0x2c2-0x2c2.7 (1)
0x2c0|         0c                                    |   .            |        idx: 12 (valid) 0x2c3-0x2c3.7 (1)
     |                                               |                |      [4]{}: local_time_type 0x2c4-0x2c9.7 (6)
0x2c0|            ff ff c7 c0                        |    ....        |        utoff: -14400 (valid) 0x2c4-0x2c7.7 (4)
0x2c0|                        00                     |        .       |        dst: 0 (valid) 0x2c8-0x2c8.7 (1)
0x2c0|                           10                  |         .      |        idx: 16 (valid) 0x2c9-0x2c9.7 (1)
     |                                               |                |    time_zone_designations[0:5]: 0x2ca-0x2dd.7 (20)
0x2c0|                              4c 4d 54 00      |          LMT.  |      [0]: "LMT" time_zone_designation 0x2ca-0x2cd.7 (4)
0x2c0|                                          42 53|              BS|      [1]: "BST" time_zone_designation 0x2ce-0x2d1.7 (4)
0x2d0|54 00                                          |T.              |
0x2d0|      42 4d 54 00                              |  BMT.          |      [2]: "BMT" time_zone_designation 0x2d2-0x2d5.7 (4)
0x2d0|                  41 44 54 00                  |      ADT.      |      [3]: "ADT" time_zone_designation 0x2d6-0x2d9.7 (4)
0x2d0|                              41 53 54 00      |          AST.  |      [4]: "AST" time_zone_designation 0x2da-0x2dd.7 (4)
     |                                               |                |    leap_second_records[0:27]: 0x2de-0x3b5.7 (216)
     |                                               |                |      [0]{}: leap_second_record 0x2de-0x2e5.7 (8)
0x2d0|                                          04 b2|              ..|        occur: "1972-07-01T00:00:00Z" (78796800) 0x2de-0x2e1.7 (4)
0x2e0|58 00                                          |X.              |
0x2e0|      00 00 00 01                              |  ....          |        corr: 1 0x2e2-0x2e5.7 (4)
     |                                               |                |      [1]{}: leap_second_record 0x2e6-0x2ed.7 (8)
0x2e0|                  05 a4 ec 01                  |      ....      |        occur: "1973-01-01T00:00:01Z" (94694401) 0x2e6-0x2e9.7 (4)
0x2e0|                              00 00 00 02      |          ....  |        corr: 2 0x2ea-0x2ed.7 (4)
     |                                               |                |      [2]{}: leap_second_record 0x2ee-0x2f5.7 (8)
0x2e0|                                          07 86|              ..|        occur: "1974-01-01T00:00:02Z" (126230402) 0x2ee-0x2f1.7 (4)
0x2f0|1f 82                                          |..              |
0x2f0|      00 00 00 03                              |  ....          |        corr: 3 0x2f2-0x2f5.7 (4)
     |                                               |                |      [3]{}: leap_second_record 0x2f6-0x2fd.7 (8)
0x2f0|                  09 67 53 03                  |      .gS.      |        occur: "1975-01-01T00:00:03Z" (157766403) 0x2f6-0x2f9.7 (4)
0x2f0|                              00 00 00 04      |          ....  |        corr: 4 0x2fa-0x2fd.7 (4)
     |                                               |                |      [4]{}: leap_second_record 0x2fe-0x305.7 (8)
0x2f0|                                          0b 48|              .H|        occur: "1976-01-01T00:00:04Z" (189302404) 0x2fe-0x301.7 (4)
0x300|86 84                                          |..              |
0x300|      00 00 00 05                              |  ....          |        corr: 5 0x302-0x305.7 (4)
     |                                               |                |      [5]{}: leap_second_record 0x306-0x30d.7 (8)
0x300|                  0d 2b 0b 85                  |      .+..      |        occur: "1977-01-01T00:00:05Z" (220924805) 0x306-0x309.7 (4)
0x300|                              00 00 00 06      |          ....  |        corr: 6 0x30a-0x30d.7 (4)
     |                                               |                |      [6]{}: leap_second_record 0x30e-0x315.7 (8)
0x300|                                          0f 0c|              ..|        occur: "1978-01-01T00:00:06Z" (252460806) 0x30e-0x311.7 (4)
0x310|3f 06                                          |?.              |
0x310|      00 00 00 07                              |  ....          |        corr: 7 0x312-0x315.7 (4)
     |                                               |                |      [7]{}: leap_second_record 0x316-0x31d.7 (8)
0x310|                  10 ed 72 87                  |      ..r.      |        occur: "1979-01-01T00:00:07Z" (283996807) 0x316-0x319.7 (4)
0x310|                              00 00 00 08      |          ....  |        corr: 8 0x31a-0x31d.7 (4)
     |                                               |                |      [8]{}: leap_second_record 0x31e-0x325.7 (8)
0x310|                                          12 ce|              ..|        occur: "1980-01-01T00:00:08Z" (315532808) 0x31e-0x321.7 (4)
0x320|a6 08                                          |..              |
0x320|      00 00 00 09                              |  ....          |        corr: 9 0x322-0x325.7 (4)
     |                                               |                |      [9]{}: leap_second_record 0x326-0x32d.7 (8)
0x320|                  15 9f ca 89                  |      ....      |        occur: "1981-07-01T00:00:09Z" (362793609) 0x326-0x329.7 (4)
0x320|                              00 00 00 0a      |          ....  |        corr: 10 0x32a-0x32d.7 (4)
     |                                               |                |      [10]{}: leap_second_record 0x32e-0x335.7 (8)
0x320|                                          17 80|              ..|        occur: "1982-07-01T00:00:10Z" (394329610) 0x32e-0x331.7 (4)
0x330|fe 0a                                          |..              |
0x330|      00 00 00 0b                              |  ....          |        corr: 11 0x332-0x335.7 (4)
     |                                               |                |      [11]{}: leap_second_record 0x336-0x33d.7 (8)
0x330|                  19 62 31 8b                  |      .b1.      |        occur: "1983-07-01T00:00:11Z" (425865611) 0x336-0x339.7 (4)
0x330|                              00 00 00 0c      |          ....  |        corr: 12 0x33a-0x33d.7 (4)
     |                                               |                |      [12]{}: leap_second_record 0x33e-0x345.7 (8)
0x330|                                          1d 25|              .%|        occur: "1985-07-01T00:00:12Z" (489024012) 0x33e-0x341.7 (4)
0x340|ea 0c                                          |..              |
0x340|      00 00 00 0d                              |  ....          |        corr: 13 0x342-0x345.7 (4)
     |                                               |                |      [13]{}: leap_second_record 0x346-0x34d.7 (8)
0x340|                  21 da e5 0d                  |      !...      |        occur: "1988-01-01T00:00:13Z" (567993613) 0x346-0x349.7 (4)
0x340|                              00 00 00 0e      |          ....  |        corr: 14 0x34a-0x34d.7 (4)
     |                                               |                |      [14]{}: leap_second_record 0x34e-0x355.7 (8)
0x340|                                          25 9e|              %.|        occur: "1990-01-01T00:00:14Z" (631152014) 0x34e-0x351.7 (4)
0x350|9d 8e                                          |..              |
0x350|      00 00 00 0f                              |  ....          |        corr: 15 0x352-0x355.7 (4)
     |                                               |                |      [15]{}: leap_second_record 0x356-0x35d.7 (8)
0x350|                  27 7f d1 0f                  |      '...      |        occur: "1991-01-01T00:00:15Z" (662688015) 0x356-0x359.7 (4)
0x350|                              00 00 00 10      |          ....  |        corr: 16 0x35a-0x35d.7 (4)
     |                                               |                |      [16]{}: leap_second_record 0x35e-0x365.7 (8)
0x350|                                          2a 50|              *P|        occur: "1992-07-01T00:00:16Z" (709948816) 0x35e-0x361.7 (4)
0x360|f5 90                                          |..              |
0x360|      00 00 00 11                              |  ....          |        corr: 17 0x362-0x365.7 (4)
     |                                               |                |      [17]{}: leap_second_record 0x366-0x36d.7 (8)
0x360|                  2c 32 29 11                  |      ,2).      |        occur: "1993-07-01T00:00:17Z" (741484817) 0x366-0x369.7 (4)
0x360|                              00 00 00 12      |          ....  |        corr: 18 0x36a-0x36d.7 (4)
     |                                               |                |      [18]{}: leap_second_record 0x36e-0x375.7 (8)
0x360|                                          2e 13|              ..|        occur: "1994-07-01T00:00:18Z" (773020818) 0x36e-0x371.7 (4)
0x370|5c 92                                          |\.              |
0x370|      00 00 00 13                              |  ....          |        corr: 19 0x372-0x375.7 (4)
     |                                               |                |      [19]{}: leap_second_record 0x376-0x37d.7 (8)
0x370|                  30 e7 24 13                  |      0.$.      |        occur: "1996-01-01T00:00:19Z" (820454419) 0x376-0x379.7 (4)
0x370|                              00 00 00 14      |          ....  |        corr: 20 0x37a-0x37d.7 (4)
     |                                               |                |      [20]{}: leap_second_record 0x37e-0x385.7 (8)
0x370|                                          33 b8|              3.|        occur: "1997-07-01T00:00:20Z" (867715220) 0x37e-0x381.7 (4)
0x380|48 94                                          |H.              |
0x380|      00 00 00 15                              |  ....          |        corr: 21 0x382-0x385.7 (4)
     |                                               |                |      [21]{}: leap_second_record 0x386-0x38d.7 (8)
0x380|                  36 8c 10 15                  |      6...      |        occur: "1999-01-01T00:00:21Z" (915148821) 0x386-0x389.7 (4)
0x380|                              00 00 00 16      |          ....  |        corr: 22 0x38a-0x38d.7 (4)
     |                                               |                |      [22]{}: leap_second_record 0x38e-0x395.7 (8)
0x380|                                          43 b7|              C.|        occur: "2006-01-01T00:00:22Z" (1136073622) 0x38e-0x391.7 (4)
0x390|1b 96                                          |..              |
0x390|      00 00 00 17                              |  ....          |        corr: 23 0x392-0x395.7 (4)
     |                                               |                |      [23]{}: leap_second_record 0x396-0x39d.7 (8)
0x390|                  49 5c 07 97                  |      I\..      |        occur: "2009-01-01T00:00:23Z" (1230768023) 0x396-0x399.7 (4)
0x390|                              00 00 00 18      |          ....  |        corr: 24 0x39a-0x39d.7 (4)
     |                                               |                |      [24]{}: leap_second_record 0x39e-0x3a5.7 (8)
0x390|                                          4f ef|              O.|        occur: "2012-07-01T00:00:24Z" (1341100824) 0x39e-0x3a1.7 (4)
0x3a0|93 18                                          |..              |
0x3a0|      00 00 00 19                              |  ....          |        corr: 25 0x3a2-0x3a5.7 (4)
     |                                               |                |      [25]{}: leap_second_record 0x3a6-0x3ad.7 (8)
0x3a0|                  55 93 2d 99                  |      U.-.      |        occur: "2015-07-01T00:00:25Z" (1435708825) 0x3a6-0x3a9.7 (4)
0x3a0|                              00 00 00 1a      |          ....  |        corr: 26 0x3aa-0x3ad.7 (4)
     |                                               |                |      [26]{}: leap_second_record 0x3ae-0x3b5.7 (8)
0x3a0|                                          58 68|              Xh|        occur: "2017-01-01T00:00:26Z" (1483228826) 0x3ae-0x3b1.7 (4)
0x3b0|46 9a                                          |F.              |
0x3b0|      00 00 00 1b                              |  ....          |        corr: 27 0x3b2-0x3b5.7 (4)
     |                                               |                |    standard_wall_indicators[0:0]: 0x3b6-NA (0)
     |                                               |                |    ut_local_indicators[0:0]: 0x3b6-NA (0)
     |                                               |                |  v2plusheader{}: 0x3b6-0x3e1.7 (44)
0x3b0|                  54 5a 69 66                  |      TZif      |    magic: 0x545a6966 (valid) 0x3b6-0x3b9.7 (4)
0x3b0|                              32               |          2     |    ver: "2" (0x32) (valid) 0x3ba-0x3ba.7 (1)
0x3b0|                                 00 00 00 00 00|           .....|    reserved: raw bits 0x3bb-0x3c9.7 (15)
0x3c0|00 00 00 00 00 00 00 00 00 00                  |..........      |
0x3c0|                              00 00 00 00      |          ....  |    isutcnt: 0 0x3ca-0x3cd.7 (4)
0x3c0|                                          00 00|              ..|    isstdcnt: 0 0x3ce-0x3d1.7 (4)
0x3d0|00 00                                          |..              |
0x3d0|      00 00 00 1b                              |  ....          |    leapcnt: 27 0x3d2-0x3d5.7 (4)
0x3d0|                  00 00 00 80                  |      ....      |    timecnt: 128 0x3d6-0x3d9.7 (4)
0x3d0|                              00 00 00 05      |          ....  |    typecnt: 5 0x3da-0x3dd.7 (4)
0x3d0|                                          00 00|              ..|    charcnt: 20 0x3de-0x3e1.7 (4)
0x3e0|00 14                                          |..              |
     |                                               |                |  v2plusdatablock{}: 0x3e2-0x9d7.7 (1526)
     |                                               |                |    transition_times[0:128]: 0x3e2-0x7e1.7 (1024)
0x3e0|      ff ff ff ff 69 87 18 46                  |  ....i..F      |      [0]: "1890-01-01T04:19:18Z" (-2524506042) transition_time 0x3e2-0x3e9.7 (8)
0x3e0|                              ff ff ff ff 9c cc|          ......|      [1]: "1917-04-06T04:19:18Z" (-1664307642) transition_time 0x3ea-0x3f1.7 (8)
0x3f0|ae 46                                          |.F              |
0x3f0|      ff ff ff ff 9d b7 4b 36                  |  ......K6      |      [2]: "1917-10-01T03:19:18Z" (-1648932042) transition_time 0x3f2-0x3f9.7 (8)
0x3f0|                              ff ff ff ff 9e b8|          ......|      [3]: "1918-04-14T04:19:18Z" (-1632080442) transition_time 0x3fa-0x401.7 (8)
0x400|6d c6                                          |m.              |
0x400|      ff ff ff ff 9f 84 b8 36                  |  .......6      |      [4]: "1918-09-16T03:19:18Z" (-1618692042) transition_time 0x402-0x409.7 (8)
0x400|                              ff ff ff ff b4 c3|          ......|      [5]: "1930-01-01T06:19:18Z" (-1262281242) transition_time 0x40a-0x411.7 (8)
0x410|1d e6                                          |..              |
0x410|      ff ff ff ff cb 62 a6 e0                  |  .....b..      |      [6]: "1942-01-11T06:00:00Z" (-882727200) transition_time 0x412-0x419.7 (8)
0x410|                              ff ff ff ff cc d3|          ......|      [7]: "1942-10-18T05:00:00Z" (-858538800) transition_time 0x41a-0x421.7 (8)
0x420|bc d0                                          |..              |
0x420|      ff ff ff ff cd 9e d1 e0                  |  ........      |      [8]: "1943-03-21T06:00:00Z" (-845229600) transition_time 0x422-0x429.7 (8)
0x420|                              ff ff ff ff ce c6|          ......|      [9]: "1943-10-31T05:00:00Z" (-825879600) transition_time 0x42a-0x431.7 (8)
0x430|13 d0                                          |..              |
0x430|      ff ff ff ff cf 75 79 60                  |  .....uy`      |      [10]: "1944-03-12T06:00:00Z" (-814384800) transition_time 0x432-0x439.7 (8)
0x430|                              ff ff ff ff d0 af|          ......|      [11]: "1944-11-05T05:00:00Z" (-793825200) transition_time 0x43a-0x441.7 (8)
0x440|30 50                                          |0P              |
0x440|      ff ff ff ff d1 55 5b 60                  |  .....U[`      |      [12]: "1945-03-11T06:00:00Z" (-782935200) transition_time 0x442-0x449.7 (8)
0x440|                              ff ff ff ff d2 8f|          ......|      [13]: "1945-11-04T05:00:00Z" (-762375600) transition_time 0x44a-0x451.7 (8)
0x450|12 50                                          |.P              |
0x450|      ff ff ff ff d5 71 68 60                  |  .....qh`      |      [14]: "1947-05-18T06:00:00Z" (-713988000) transition_time 0x452-0x459.7 (8)
0x450|                              ff ff ff ff d6 0e|          ......|      [15]: "1947-09-14T05:00:00Z" (-703710000) transition_time 0x45a-0x461.7 (8)
0x460|3c d0                                          |<.              |
0x460|      ff ff ff ff d7 5a 84 e0                  |  .....Z..      |      [16]: "1948-05-23T06:00:00Z" (-681933600) transition_time 0x462-0x469.7 (8)
0x460|                              ff ff ff ff d7 e4|          ......|      [17]: "1948-09-05T05:00:00Z" (-672865200) transition_time 0x46a-0x471.7 (8)
0x470|e4 50                                          |.P              |
0x470|      ff ff ff ff d9 3a 66 e0                  |  .....:f.      |      [18]: "1949-05-22T06:00:00Z" (-650484000) transition_time 0x472-0x479.7 (8)
0x470|                              ff ff ff ff d9 c4|          ......|      [19]: "1949-09-04T05:00:00Z" (-641415600) transition_time 0x47a-0x481.7 (8)
0x480|c6 50                                          |.P              |
0x480|      ff ff ff ff db 23 83 60                  |  .....#.`      |      [20]: "1950-05-28T06:00:00Z" (-618429600) transition_time 0x482-0x489.7 (8)
0x480|                              ff ff ff ff db a4|          ......|      [21]: "1950-09-03T05:00:00Z" (-609966000) transition_time 0x48a-0x491.7 (8)
0x490|a8 50                                          |.P              |
0x490|      ff ff ff ff dd 03 65 60                  |  ......e`      |      [22]: "1951-05-27T06:00:00Z" (-586980000) transition_time 0x492-0x499.7 (8)
0x490|                              ff ff ff ff dd 84|          ......|      [23]: "1951-09-02T05:00:00Z" (-578516400) transition_time 0x49a-0x4a1.7 (8)
0x4a0|8a 50                                          |.P              |
0x4a0|      ff ff ff ff de e3 47 60                  |  ......G`      |      [24]: "1952-05-25T06:00:00Z" (-555530400) transition_time 0x4a2-0x4a9.7 (8)
0x4a0|                              ff ff ff ff df 6d|          .....m|      [25]: "1952-09-07T05:00:00Z" (-546462000) transition_time 0x4aa-0x4b1.7 (8)
0x4b0|a6 d0                                          |..              |
0x4b0|      ff ff ff ff e6 6c 09 e0                  |  .....l..      |      [26]: "1956-05-27T06:00:00Z" (-429127200) transition_time 0x4b2-0x4b9.7 (8)
0x4b0|                              ff ff ff ff e7 37|          .....7|      [27]: "1956-10-28T05:00:00Z" (-415825200) transition_time 0x4ba-0x4c1.7 (8)
0x4c0|02 d0                                          |..              |
0x4c0|      00 00 00 00 08 20 b3 63                  |  ..... .c      |      [28]: "1974-04-28T06:00:03Z" (136360803) transition_time 0x4c2-0x4c9.7 (8)
0x4c0|                              00 00 00 00 09 10|          ......|      [29]: "1974-10-27T05:00:03Z" (152082003) transition_time 0x4ca-0x4d1.7 (8)
0x4d0|96 53                                          |.S              |
0x4d0|      00 00 00 00 0a 00 95 64                  |  .......d      |      [30]: "1975-04-27T06:00:04Z" (167810404) transition_time 0x4d2-0x4d9.7 (8)
0x4d0|                              00 00 00 00 0a f0|          ......|      [31]: "1975-10-26T05:00:04Z" (183531604) transition_time 0x4da-0x4e1.7 (8)
0x4e0|78 54                                          |xT              |
0x4e0|      00 00 00 00 0b e0 77 65                  |  ......we      |      [32]: "1976-04-25T06:00:05Z" (199260005) transition_time 0x4e2-0x4e9.7 (8)
0x4e0|                              00 00 00 00 0c d9|          ......|      [33]: "1976-10-31T05:00:05Z" (215586005) transition_time 0x4ea-0x4f1.7 (8)
0x4f0|94 d5                                          |..              |
0x4f0|      00 00 00 00 0d c0 59 66                  |  ......Yf      |      [34]: "1977-04-24T06:00:06Z" (230709606) transition_time 0x4f2-0x4f9.7 (8)
0x4f0|                              00 00 00 00 0e b9|          ......|      [35]: "1977-10-30T05:00:06Z" (247035606) transition_time 0x4fa-0x501.7 (8)
0x500|76 d6                                          |v.              |
0x500|      00 00 00 00 0f a9 75 e7                  |  ......u.      |      [36]: "1978-04-30T06:00:07Z" (262764007) transition_time 0x502-0x509.7 (8)
0x500|                              00 00 00 00 10 99|          ......|      [37]: "1978-10-29T05:00:07Z" (278485207) transition_time 0x50a-0x511.7 (8)
0x510|58 d7                                          |X.              |
0x510|      00 00 00 00 11 89 57 e8                  |  ......W.      |      [38]: "1979-04-29T06:00:08Z" (294213608) transition_time 0x512-0x519.7 (8)
0x510|                              00 00 00 00 12 79|          .....y|      [39]: "1979-10-28T05:00:08Z" (309934808) transition_time 0x51a-0x521.7 (8)
0x520|3a d8                                          |:.              |
0x520|      00 00 00 00 13 69 39 e9                  |  .....i9.      |      [40]: "1980-04-27T06:00:09Z" (325663209) transition_time 0x522-0x529.7 (8)
0x520|                              00 00 00 00 14 59|          .....Y|      [41]: "1980-10-26T05:00:09Z" (341384409) transition_time 0x52a-0x531.7 (8)
0x530|1c d9                                          |..              |
0x530|      00 00 00 00 15 49 1b e9                  |  .....I..      |      [42]: "1981-04-26T06:00:09Z" (357112809) transition_time 0x532-0x539.7 (8)
0x530|                              00 00 00 00 16 38|          .....8|      [43]: "1981-10-25T05:00:10Z" (372834010) transition_time 0x53a-0x541.7 (8)
0x540|fe da                                          |..              |
0x540|      00 00 00 00 17 28 fd ea                  |  .....(..      |      [44]: "1982-04-25T06:00:10Z" (388562410) transition_time 0x542-0x549.7 (8)
0x540|                              00 00 00 00 18 22|          ....."|      [45]: "1982-10-31T05:00:11Z" (404888411) transition_time 0x54a-0x551.7 (8)
0x550|1b 5b                                          |.[              |
0x550|      00 00 00 00 19 08 df eb                  |  ........      |      [46]: "1983-04-24T06:00:11Z" (420012011) transition_time 0x552-0x559.7 (8)
0x550|                              00 00 00 00 1a 01|          ......|      [47]: "1983-10-30T05:00:12Z" (436338012) transition_time 0x55a-0x561.7 (8)
0x560|fd 5c                                          |.\              |
0x560|      00 00 00 00 1a f1 fc 6c                  |  .......l      |      [48]: "1984-04-29T06:00:12Z" (452066412) transition_time 0x562-0x569.7 (8)
0x560|                              00 00 00 00 1b e1|          ......|      [49]: "1984-10-28T05:00:12Z" (467787612) transition_time 0x56a-0x571.7 (8)
0x570|df 5c                                          |.\              |
0x570|      00 00 00 00 1c d1 de 6c                  |  .......l      |      [50]: "1985-04-28T06:00:12Z" (483516012) transition_time 0x572-0x579.7 (8)
0x570|                              00 00 00 00 1d c1|          ......|      [51]: "1985-10-27T05:00:13Z" (499237213) transition_time 0x57a-0x581.7 (8)
0x580|c1 5d                                          |.]              |
0x580|      00 00 00 00 1e b1 c0 6d                  |  .......m      |      [52]: "1986-04-27T06:00:13Z" (514965613) transition_time 0x582-0x589.7 (8)
0x580|                              00 00 00 00 1f a1|          ......|      [53]: "1986-10-26T05:00:13Z" (530686813) transition_time 0x58a-0x591.7 (8)
0x590|a3 5d                                          |.]              |
0x590|      00 00 00 00 20 75 f2 ed                  |  .... u..      |      [54]: "1987-04-05T06:00:13Z" (544600813) transition_time 0x592-0x599.7 (8)
0x590|                              00 00 00 00 21 81|          ....!.|      [55]: "1987-10-25T05:00:13Z" (562136413) transition_time 0x59a-0x5a1.7 (8)
0x5a0|85 5d                                          |.]              |
0x5a0|      00 00 00 00 22 55 d4 ee                  |  ...."U..      |      [56]: "1988-04-03T06:00:14Z" (576050414) transition_time 0x5a2-0x5a9.7 (8)
0x5a0|                              00 00 00 00 23 6a|          ....#j|      [57]: "1988-10-30T05:00:14Z" (594190814) transition_time 0x5aa-0x5b1.7 (8)
0x5b0|a1 de                                          |..              |
0x5b0|      00 00 00 00 24 35 b6 ee                  |  ....$5..      |      [58]: "1989-04-02T06:00:14Z" (607500014) transition_time 0x5b2-0x5b9.7 (8)
0x5b0|                              00 00 00 00 25 4a|          ....%J|      [59]: "1989-10-29T05:00:14Z" (625640414) transition_time 0x5ba-0x5c1.7 (8)
0x5c0|83 de                                          |..              |
0x5c0|      00 00 00 00 26 15 98 ef                  |  ....&...      |      [60]: "1990-04-01T06:00:15Z" (638949615) transition_time 0x5c2-0x5c9.7 (8)
0x5c0|                              00 00 00 00 27 2a|          ....'*|      [61]: "1990-10-28T05:00:15Z" (657090015) transition_time 0x5ca-0x5d1.7 (8)
0x5d0|65 df                                          |e.              |
0x5d0|      00 00 00 00 27 fe b5 70                  |  ....'..p      |      [62]: "1991-04-07T06:00:16Z" (671004016) transition_time 0x5d2-0x5d9.7 (8)
0x5d0|                              00 00 00 00 29 0a|          ....).|      [63]: "1991-10-27T05:00:16Z" (688539616) transition_time 0x5da-0x5e1.7 (8)
0x5e0|47 e0                                          |G.              |
0x5e0|      00 00 00 00 29 de 97 70                  |  ....)..p      |      [64]: "1992-04-05T06:00:16Z" (702453616) transition_time 0x5e2-0x5e9.7 (8)
0x5e0|                              00 00 00 00 2a ea|          ....*.|      [65]: "1992-10-25T05:00:17Z" (719989217) transition_time 0x5ea-0x5f1.7 (8)
0x5f0|29 e1                                          |).              |
0x5f0|      00 00 00 00 2b be 79 71                  |  ....+.yq      |      [66]: "1993-04-04T06:00:17Z" (733903217) transition_time 0x5f2-0x5f9.7 (8)
0x5f0|                              00 00 00 00 2c d3|          ....,.|      [67]: "1993-10-31T05:00:18Z" (752043618) transition_time 0x5fa-0x601.7 (8)
0x600|46 62                                          |Fb              |
0x600|      00 00 00 00 2d 9e 5b 72                  |  ....-.[r      |      [68]: "1994-04-03T06:00:18Z" (765352818) transition_time 0x602-0x609.7 (8)
0x600|                              00 00 00 00 2e b3|          ......|      [69]: "1994-10-30T05:00:19Z" (783493219) transition_time 0x60a-0x611.7 (8)
0x610|28 63                                          |(c              |
0x610|      00 00 00 00 2f 7e 3d 73                  |  ..../~=s      |      [70]: "1995-04-02T06:00:19Z" (796802419) transition_time 0x612-0x619.7 (8)
0x610|                              00 00 00 00 30 93|          ....0.|      [71]: "1995-10-29T05:00:19Z" (814942819) transition_time 0x61a-0x621.7 (8)
0x620|0a 63                                          |.c              |
0x620|      00 00 00 00 31 67 59 f4                  |  ....1gY.      |      [72]: "1996-04-07T06:00:20Z" (828856820) transition_time 0x622-0x629.7 (8)
0x620|                              00 00 00 00 32 72|          ....2r|      [73]: "1996-10-27T05:00:20Z" (846392420) transition_time 0x62a-0x631.7 (8)
0x630|ec 64                                          |.d              |
0x630|      00 00 00 00 33 47 3b f4                  |  ....3G;.      |      [74]: "1997-04-06T06:00:20Z" (860306420) transition_time 0x632-0x639.7 (8)
0x630|                              00 00 00 00 34 52|          ....4R|      [75]: "1997-10-26T05:00:21Z" (877842021) transition_time 0x63a-0x641.7 (8)
0x640|ce 65                                          |.e              |
0x640|      00 00 00 00 35 27 1d f5                  |  ....5'..      |      [76]: "1998-04-05T06:00:21Z" (891756021) transition_time 0x642-0x649.7 (8)
0x640|                              00 00 00 00 36 32|          ....62|      [77]: "1998-10-25T05:00:21Z" (909291621) transition_time 0x64a-0x651.7 (8)
0x650|b0 65                                          |.e              |
0x650|      00 00 00 00 37 06 ff f6                  |  ....7...      |      [78]: "1999-04-04T06:00:22Z" (923205622) transition_time 0x652-0x659.7 (8)
0x650|                              00 00 00 00 38 1b|          ....8.|      [79]: "1999-10-31T05:00:22Z" (941346022) transition_time 0x65a-0x661.7 (8)
0x660|cc e6                                          |..              |
0x660|      00 00 00 00 38 e6 e1 f6                  |  ....8...      |      [80]: "2000-04-02T06:00:22Z" (954655222) transition_time 0x662-0x669.7 (8)
0x660|                              00 00 00 00 39 fb|          ....9.|      [81]: "2000-10-29T05:00:22Z" (972795622) transition_time 0x66a-0x671.7 (8)
0x670|ae e6                                          |..              |
0x670|      00 00 00 00 3a c6 c3 f6                  |  ....:...      |      [82]: "2001-04-01T06:00:22Z" (986104822) transition_time 0x672-0x679.7 (8)
0x670|                              00 00 00 00 3b db|          ....;.|      [83]: "2001-10-28T05:00:22Z" (1004245222) transition_time 0x67a-0x681.7 (8)
0x680|90 e6                                          |..              |
0x680|      00 00 00 00 3c af e0 76                  |  ....<..v      |      [84]: "2002-04-07T06:00:22Z" (1018159222) transition_time 0x682-0x689.7 (8)
0x680|                              00 00 00 00 3d bb|          ....=.|      [85]: "2002-10-27T05:00:22Z" (1035694822) transition_time 0x68a-0x691.7 (8)
0x690|72 e6                                          |r.              |
0x690|      00 00 00 00 3e 8f c2 76                  |  ....>..v      |      [86]: "2003-04-06T06:00:22Z" (1049608822) transition_time 0x692-0x699.7 (8)
0x690|                              00 00 00 00 3f 9b|          ....?.|      [87]: "2003-10-26T05:00:22Z" (1067144422) transition_time 0x69a-0x6a1.7 (8)
0x6a0|54 e6                                          |T.              |
0x6a0|      00 00 00 00 40 6f a4 76                  |  ....@o.v      |      [88]: "2004-04-04T06:00:22Z" (1081058422) transition_time 0x6a2-0x6a9.7 (8)
0x6a0|                              00 00 00 00 41 84|          ....A.|      [89]: "2004-10-31T05:00:22Z" (1099198822) transition_time 0x6aa-0x6b1.7 (8)
0x6b0|71 66                                          |qf              |
0x6b0|      00 00 00 00 42 4f 86 76                  |  ....BO.v      |      [90]: "2005-04-03T06:00:22Z" (1112508022) transition_time 0x6b2-0x6b9.7 (8)
0x6b0|                              00 00 00 00 43 64|          ....Cd|      [91]: "2005-10-30T05:00:22Z" (1130648422) transition_time 0x6ba-0x6c1.7 (8)
0x6c0|53 66                                          |Sf              |
0x6c0|      00 00 00 00 44 2f 68 77                  |  ....D/hw      |      [92]: "2006-04-02T06:00:23Z" (1143957623) transition_time 0x6c2-0x6c9.7 (8)
0x6c0|                              00 00 00 00 45 44|          ....ED|      [93]: "2006-10-29T05:00:23Z" (1162098023) transition_time 0x6ca-0x6d1.7 (8)
0x6d0|35 67                                          |5g              |
0x6d0|      00 00 00 00 45 f3 9a f7                  |  ....E...      |      [94]: "2007-03-11T06:00:23Z" (1173592823) transition_time 0x6d2-0x6d9.7 (8)
0x6d0|                              00 00 00 00 47 2d|          ....G-|      [95]: "2007-11-04T05:00:23Z" (1194152423) transition_time 0x6da-0x6e1.7 (8)
0x6e0|51 e7                                          |Q.              |
0x6e0|      00 00 00 00 47 d3 7c f7                  |  ....G.|.      |      [96]: "2008-03-09T06:00:23Z" (1205042423) transition_time 0x6e2-0x6e9.7 (8)
0x6e0|                              00 00 00 00 49 0d|          ....I.|      [97]: "2008-11-02T05:00:23Z" (1225602023) transition_time 0x6ea-0x6f1.7 (8)
0x6f0|33 e7                                          |3.              |
0x6f0|      00 00 00 00 49 b3 5e f8                  |  ....I.^.      |      [98]: "2009-03-08T06:00:24Z" (1236492024) transition_time 0x6f2-0x6f9.7 (8)
0x6f0|                              00 00 00 00 4a ed|          ....J.|      [99]: "2009-11-01T05:00:24Z" (1257051624) transition_time 0x6fa-0x701.7 (8)
0x700|15 e8                                          |..              |
0x700|      00 00 00 00 4b 9c 7b 78                  |  ....K.{x      |      [100]: "2010-03-14T06:00:24Z" (1268546424) transition_time 0x702-0x709.7 (8)
0x700|                              00 00 00 00 4c d6|          ....L.|      [101]: "2010-11-07T05:00:24Z" (1289106024) transition_time 0x70a-0x711.7 (8)
0x710|32 68                                          |2h              |
0x710|      00 00 00 00 4d 7c 5d 78                  |  ....M|]x      |      [102]: "2011-03-13T06:00:24Z" (1299996024) transition_time 0x712-0x719.7 (8)
0x710|                              00 00 00 00 4e b6|          ....N.|      [103]: "2011-11-06T05:00:24Z" (1320555624) transition_time 0x71a-0x721.7 (8)
0x720|14 68                                          |.h              |
0x720|      00 00 00 00 4f 5c 3f 78                  |  ....O\?x      |      [104]: "2012-03-11T06:00:24Z" (1331445624) transition_time 0x722-0x729.7 (8)
0x720|                              00 00 00 00 50 95|          ....P.|      [105]: "2012-11-04T05:00:25Z" (1352005225) transition_time 0x72a-0x731.7 (8)
0x730|f6 69                                          |.i              |
0x730|      00 00 00 00 51 3c 21 79                  |  ....Q<!y      |      [106]: "2013-03-10T06:00:25Z" (1362895225) transition_time 0x732-0x739.7 (8)
0x730|                              00 00 00 00 52 75|          ....Ru|      [107]: "2013-11-03T05:00:25Z" (1383454825) transition_time 0x73a-0x741.7 (8)
0x740|d8 69                                          |.i              |
0x740|      00 00 00 00 53 1c 03 79                  |  ....S..y      |      [108]: "2014-03-09T06:00:25Z" (1394344825) transition_time 0x742-0x749.7 (8)
0x740|                              00 00 00 00 54 55|          ....TU|      [109]: "2014-11-02T05:00:25Z" (1414904425) transition_time 0x74a-0x751.7 (8)
0x750|ba 69                                          |.i              |
0x750|      00 00 00 00 54 fb e5 79                  |  ....T..y      |      [110]: "2015-03-08T06:00:25Z" (1425794425) transition_time 0x752-0x759.7 (8)
0x750|                              00 00 00 00 56 35|          ....V5|      [111]: "2015-11-01T05:00:26Z" (1446354026) transition_time 0x75a-0x761.7 (8)
0x760|9c 6a                                          |.j              |
0x760|      00 00 00 00 56 e5 01 fa                  |  ....V...      |      [112]: "2016-03-13T06:00:26Z" (1457848826) transition_time 0x762-0x769.7 (8)
0x760|                              00 00 00 00 58 1e|          ....X.|      [113]: "2016-11-06T05:00:26Z" (1478408426) transition_time 0x76a-0x771.7 (8)
0x770|b8 ea                                          |..              |
0x770|      00 00 00 00 58 c4 e3 fb                  |  ....X...      |      [114]: "2017-03-12T06:00:27Z" (1489298427) transition_time 0x772-0x779.7 (8)
0x770|                              00 00 00 00 59 fe|          ....Y.|      [115]: "2017-11-05T05:00:27Z" (1509858027) transition_time 0x77a-0x781.7 (8)
0x780|9a eb                                          |..              |
0x780|      00 00 00 00 5a a4 c5 fb                  |  ....Z...      |      [116]: "2018-03-11T06:00:27Z" (1520748027) transition_time 0x782-0x789.7 (8)
0x780|                              00 00 00 00 5b de|          ....[.|      [117]: "2018-11-04T05:00:27Z" (1541307627) transition_time 0x78a-0x791.7 (8)
0x790|7c eb                                          ||.              |
0x790|      00 00 00 00 5c 84 a7 fb                  |  ....\...      |      [118]: "2019-03-10T06:00:27Z" (1552197627) transition_time 0x792-0x799.7 (8)
0x790|                              00 00 00 00 5d be|          ....].|      [119]: "2019-11-03T05:00:27Z" (1572757227) transition_time 0x79a-0x7a1.7 (8)
0x7a0|5e eb                                          |^.              |
0x7a0|      00 00 00 00 5e 64 89 fb                  |  ....^d..      |      [120]: "2020-03-08T06:00:27Z" (1583647227) transition_time 0x7a2-0x7a9.7 (8)
0x7a0|                              00 00 00 00 5f 9e|          ...._.|      [121]: "2020-11-01T05:00:27Z" (1604206827) transition_time 0x7aa-0x7b1.7 (8)
0x7b0|40 eb                                          |@.              |
0x7b0|      00 00 00 00 60 4d a6 7b                  |  ....`M.{      |      [122]: "2021-03-14T06:00:27Z" (1615701627) transition_time 0x7b2-0x7b9.7 (8)
0x7b0|                              00 00 00 00 61 87|          ....a.|      [123]: "2021-11-07T05:00:27Z" (1636261227) transition_time 0x7ba-0x7c1.7 (8)
0x7c0|5d 6b                                          |]k              |
0x7c0|      00 00 00 00 62 2d 88 7b                  |  ....b-.{      |      [124]: "2022-03-13T06:00:27Z" (1647151227) transition_time 0x7c2-0x7c9.7 (8)
0x7c0|                              00 00 00 00 63 67|          ....cg|      [125]: "2022-11-06T05:00:27Z" (1667710827) transition_time 0x7ca-0x7d1.7 (8)
0x7d0|3f 6b                                          |?k              |
0x7d0|      00 00 00 00 64 0d 6a 7b                  |  ....d.j{      |      [126]: "2023-03-12T06:00:27Z" (1678600827) transition_time 0x7d2-0x7d9.7 (8)
0x7d0|                              00 00 00 00 64 9b|          ....d.|      [127]: "2023-06-28T00:00:27Z" (1687910427) transition_time 0x7da-0x7e1.7 (8)
0x7e0|78 1b                                          |x.              |
     |                                               |                |    transition_types[0:128]: 0x7e2-0x861.7 (128)
0x7e0|      02                                       |  .             |      [0]: 2 transition_type 0x7e2-0x7e2.7 (1)
0x7e0|         01                                    |   .            |      [1]: 1 transition_type 0x7e3-0x7e3.7 (1)
0x7e0|            02                                 |    .           |      [2]: 2 transition_type 0x7e4-0x7e4.7 (1)
0x7e0|               01                              |     .          |      [3]: 1 transition_type 0x7e5-0x7e5.7 (1)
0x7e0|                  02                           |      .         |      [4]: 2 transition_type 0x7e6-0x7e6.7 (1)
0x7e0|                     04                        |       .        |      [5]: 4 transition_type 0x7e7-0x7e7.7 (1)
0x7e0|                        03                     |        .       |      [6]: 3 transition_type 0x7e8-0x7e8.7 (1)
0x7e0|                           04                  |         .      |      [7]: 4 transition_type 0x7e9-0x7e9.7 (1)
0x7e0|                              03               |          .     |      [8]: 3 transition_type 0x7ea-0x7ea.7 (1)
0x7e0|                                 04            |           .    |      [9]: 4 transition_type 0x7eb-0x7eb.7 (1)
0x7e0|                                    03         |            .   |      [10]: 3 transition_type 0x7ec-0x7ec.7 (1)
0x7e0|                                       04      |             .  |      [11]: 4 transition_type 0x7ed-0x7ed.7 (1)
0x7e0|                                          03   |              . |      [12]: 3 transition_type 0x7ee-0x7ee.7 (1)
0x7e0|                                             04|               .|      [13]: 4 transition_type 0x7ef-0x7ef.7 (1)
0x7f0|03                                             |.               |      [14]: 3 transition_type 0x7f0-0x7f0.7 (1)
0x7f0|   04                                          | .              |      [15]: 4 transition_type 0x7f1-0x7f1.7 (1)
0x7f0|      03                                       |  .             |      [16]: 3 transition_type 0x7f2-0x7f2.7 (1)
0x7f0|         04                                    |   .            |      [17]: 4 transition_type 0x7f3-0x7f3.7 (1)
0x7f0|            03                                 |    .           |      [18]: 3 transition_type 0x7f4-0x7f4.7 (1)
0x7f0|               04                              |     .          |      [19]: 4 transition_type 0x7f5-0x7f5.7 (1)
0x7f0|                  03                           |      .         |      [20]: 3 transition_type 0x7f6-0x7f6.7 (1)
0x7f0|                     04                        |       .        |      [21]: 4 transition_type 0x7f7-0x7f7.7 (1)
0x7f0|                        03                     |        .       |      [22]: 3 transition_type 0x7f8-0x7f8.7 (1)
0x7f0|                           04                  |         .      |      [23]: 4 transition_type 0x7f9-0x7f9.7 (1)
0x7f0|                              03               |          .     |      [24]: 3 transition_type 0x7fa-0x7fa.7 (1)
0x7f0|                                 04            |           .    |      [25]: 4 transition_type 0x7fb-0x7fb.7 (1)
0x7f0|                                    03         |            .   |      [26]: 3 transition_type 0x7fc-0x7fc.7 (1)
0x7f0|                                       04      |             .  |      [27]: 4 transition_type 0x7fd-0x7fd.7 (1)
0x7f0|                                          03   |              . |      [28]: 3 transition_type 0x7fe-0x7fe.7 (1)
0x7f0|                                             04|               .|      [29]: 4 transition_type 0x7ff-0x7ff.7 (1)
0x800|03                                             |.               |      [30]: 3 transition_type 0x800-0x800.7 (1)
0x800|   04                                          | .              |      [31]: 4 transition_type 0x801-0x801.7 (1)
0x800|      03                                       |  .             |      [32]: 3 transition_type 0x802-0x802.7 (1)
0x800|         04                                    |   .            |      [33]: 4 transition_type 0x803-0x803.7 (1)
0x800|            03                                 |    .           |      [34]: 3 transition_type 0x804-0x804.7 (1)
0x800|               04                              |     .          |      [35]: 4 transition_type 0x805-0x805.7 (1)
0x800|                  03                           |      .         |      [36]: 3 transition_type 0x806-0x806.7 (1)
0x800|                     04                        |       .        |      [37]: 4 transition_type 0x807-0x807.7 (1)
0x800|                        03                     |        .       |      [38]: 3 transition_type 0x808-0x808.7 (1)
0x800|                           04                  |         .      |      [39]: 4 transition_type 0x809-0x809.7 (1)
0x800|                              03               |          .     |      [40]: 3 transition_type 0x80a-0x80a.7 (1)
0x800|                                 04            |           .    |      [41]: 4 transition_type 0x80b-0x80b.7 (1)
0x800|                                    03         |            .   |      [42]: 3 transition_type 0x80c-0x80c.7 (1)
0x800|                                       04      |             .  |      [43]: 4 transition_type 0x80d-0x80d.7 (1)
0x800|                                          03   |              . |      [44]: 3 transition_type 0x80e-0x80e.7 (1)
0x800|                                             04|               .|      [45]: 4 transition_type 0x80f-0x80f.7 (1)
0x810|03                                             |.               |      [46]: 3 transition_type 0x810-0x810.7 (1)
0x810|   04                                          | .              |      [47]: 4 transition_type 0x811-0x811.7 (1)
0x810|      03                                       |  .             |      [48]: 3 transition_type 0x812-0x812.7 (1)
0x810|         04                                    |   .            |      [49]: 4 transition_type 0x813-0x813.7 (1)
0x810|            03                                 |    .           |      [50]: 3 transition_type 0x814-0x814.7 (1)
0x810|               04                              |     .          |      [51]: 4 transition_type 0x815-0x815.7 (1)
0x810|                  03                           |      .         |      [52]: 3 transition_type 0x816-0x816.7 (1)
0x810|                     04                        |       .        |      [53]: 4 transition_type 0x817-0x817.7 (1)
0x810|                        03                     |        .       |      [54]: 3 transition_type 0x818-0x818.7 (1)
0x810|                           04                  |         .      |      [55]: 4 transition_type 0x819-0x819.7 (1)
0x810|                              03               |          .     |      [56]: 3 transition_type 0x81a-0x81a.7 (1)
0x810|                                 04            |           .    |      [57]: 4 transition_type 0x81b-0x81b.7 (1)
0x810|                                    03         |            .   |      [58]: 3 transition_type 0x81c-0x81c.7 (1)
0x810|                                       04      |             .  |      [59]: 4 transition_type 0x81d-0x81d.7 (1)
0x810|                                          03   |              . |      [60]: 3 transition_type 0x81e-0x81e.7 (1)
0x810|                                             04|               .|      [61]: 4 transition_type 0x81f-0x81f.7 (1)
0x820|03                                             |.               |      [62]: 3 transition_type 0x820-0x820.7 (1)
0x820|   04                                          | .              |      [63]: 4 transition_type 0x821-0x821.7 (1)
0x820|      03                                       |  .             |      [64]: 3 transition_type 0x822-0x822.7 (1)
0x820|         04                                    |   .            |      [65]: 4 transition_type 0x823-0x823.7 (1)
0x820|            03                                 |    .           |      [66]: 3 transition_type 0x824-0x824.7 (1)
0x820|               04                              |     .          |      [67]: 4 transition_type 0x825-0x825.7 (1)
0x820|                  03                           |      .         |      [68]: 3 transition_type 0x826-0x826.7 (1)
0x820|                     04                        |       .        |      [69]: 4 transition_type 0x827-0x827.7 (1)
0x820|                        03                     |        .       |      [70]: 3 transition_type 0x828-0x828.7 (1)
0x820|                           04                  |         .      |      [71]: 4 transition_type 0x829-0x829.7 (1)
0x820|                              03               |          .     |      [72]: 3 transition_type 0x82a-0x82a.7 (1)
0x820|                                 04            |           .    |      [73]: 4 transition_type 0x82b-0x82b.7 (1)
0x820|                                    03         |            .   |      [74]: 3 transition_type 0x82c-0x82c.7 (1)
0x820|                                       04      |             .  |      [75]: 4 transition_type 0x82d-0x82d.7 (1)
0x820|                                          03   |              . |      [76]: 3 transition_type 0x82e-0x82e.7 (1)
0x820|                                             04|               .|      [77]: 4 transition_type 0x82f-0x82f.7 (1)
0x830|03                                             |.               |      [78]: 3 transition_type 0x830-0x830.7 (1)
0x830|   04                                          | .              |      [79]: 4 transition_type 0x831-0x831.7 (1)
0x830|      03                                       |  .             |      [80]: 3 transition_type 0x832-0x832.7 (1)
0x830|         04                                    |   .            |      [81]: 4 transition_type 0x833-0x833.7 (1)
0x830|            03                                 |    .           |      [82]: 3 transition_type 0x834-0x834.7 (1)
0x830|               04                              |     .          |      [83]: 4 transition_type 0x835-0x835.7 (1)
0x830|                  03                           |      .         |      [84]: 3 transition_type 0x836-0x836.7 (1)
0x830|                     04                        |       .        |      [85]: 4 transition_type 0x837-0x837.7 (1)
0x830|                        03                     |        .       |      [86]: 3 transition_type 0x838-0x838.7 (1)
0x830|                           04                  |         .      |      [87]: 4 transition_type 0x839-0x839.7 (1)
0x830|                              03               |          .     |      [88]: 3 transition_type 0x83a-0x83a.7 (1)
0x830|                                 04            |           .    |      [89]: 4 transition_type 0x83b-0x83b.7 (1)
0x830|                                    03         |            .   |      [90]: 3 transition_type 0x83c-0x83c.7 (1)
0x830|                                       04      |             .  |      [91]: 4 transition_type 0x83d-0x83d.7 (1)
0x830|                                          03   |              . |      [92]: 3 transition_type 0x83e-0x83e.7 (1)
0x830|                                             04|               .|      [93]: 4 transition_type 0x83f-0x83f.7 (1)
0x840|03                                             |.               |      [94]: 3 transition_type 0x840-0x840.7 (1)
0x840|   04                                          | .              |      [95]: 4 transition_type 0x841-0x841.7 (1)
0x840|      03                                       |  .             |      [96]: 3 transition_type 0x842-0x842.7 (1)
0x840|         04                                    |   .            |      [97]: 4 transition_type 0x843-0x843.7 (1)
0x840|            03                                 |    .           |      [98]: 3 transition_type 0x844-0x844.7 (1)
0x840|               04                              |     .          |      [99]: 4 transition_type 0x845-0x845.7 (1)
0x840|                  03                           |      .         |      [100]: 3 transition_type 0x846-0x846.7 (1)
0x840|                     04                        |       .        |      [101]: 4 transition_type 0x847-0x847.7 (1)
0x840|                        03                     |        .       |      [102]: 3 transition_type 0x848-0x848.7 (1)
0x840|                           04                  |         .      |      [103]: 4 transition_type 0x849-0x849.7 (1)
0x840|                              03               |          .     |      [104]: 3 transition_type 0x84a-0x84a.7 (1)
0x840|                                 04            |           .    |      [105]: 4 transition_type 0x84b-0x84b.7 (1)
0x840|                                    03         |            .   |      [106]: 3 transition_type 0x84c-0x84c.7 (1)
0x840|                                       04      |             .  |      [107]: 4 transition_type 0x84d-0x84d.7 (1)
0x840|                                          03   |              . |      [108]: 3 transition_type 0x84e-0x84e.7 (1)
0x840|                                             04|               .|      [109]: 4 transition_type 0x84f-0x84f.7 (1)
0x850|03                                             |.               |      [110]: 3 transition_type 0x850-0x850.7 (1)
0x850|   04                                          | .              |      [111]: 4 transition_type 0x851-0x851.7 (1)
0x850|      03                                       |  .             |      [112]: 3 transition_type 0x852-0x852.7 (1)
0x850|         04                                    |   .            |      [113]: 4 transition_type 0x853-0x853.7 (1)
0x850|            03                                 |    .           |      [114]: 3 transition_type 0x854-0x854.7 (1)
0x850|               04                              |     .          |      [115]: 4 transition_type 0x855-0x855.7 (1)
0x850|                  03                           |      .         |      [116]: 3 transition_type 0x856-0x856.7 (1)
0x850|                     04                        |       .        |      [117]: 4 transition_type 0x857-0x857.7 (1)
0x850|                        03                     |        .       |      [118]: 3 transition_type 0x858-0x858.7 (1)
0x850|                           04                  |         .      |      [119]: 4 transition_type 0x859-0x859.7 (1)
0x850|                              03               |          .     |      [120]: 3 transition_type 0x85a-0x85a.7 (1)
0x850|                                 04            |           .    |      [121]: 4 transition_type 0x85b-0x85b.7 (1)
0x850|                                    03         |            .   |      [122]: 3 transition_type 0x85c-0x85c.7 (1)
0x850|                                       04      |             .  |      [123]: 4 transition_type 0x85d-0x85d.7 (1)
0x850|                                          03   |              . |      [124]: 3 transition_type 0x85e-0x85e.7 (1)
0x850|                                             04|               .|      [125]: 4 transition_type 0x85f-0x85f.7 (1)
0x860|03                                             |.               |      [126]: 3 transition_type 0x860-0x860.7 (1)
0x860|   03                                          | .              |      [127]: 3 transition_type 0x861-0x861.7 (1)
     |                                               |                |    local_time_type_records[0:5]: 0x862-0x87f.7 (30)
     |                                               |                |      [0]{}: local_time_type 0x862-0x867.7 (6)
0x860|      ff ff c3 3a                              |  ...:          |        utoff: -15558 (valid) 0x862-0x865.7 (4)
0x860|                  00                           |      .         |        dst: 0 (valid) 0x866-0x866.7 (1)
0x860|                     00                        |       .        |        idx: 0 (valid) 0x867-0x867.7 (1)
     |                                               |                |      [1]{}: local_time_type 0x868-0x86d.7 (6)
0x860|                        ff ff d1 4a            |        ...J    |        utoff: -11958 (valid) 0x868-0x86b.7 (4)
0x860|                                    01         |            .   |        dst: 1 (valid) 0x86c-0x86c.7 (1)
0x860|                                       04      |             .  |        idx: 4 (valid) 0x86d-0x86d.7 (1)
     |                                               |                |      [2]{}: local_time_type 0x86e-0x873.7 (6)
0x860|                                          ff ff|              ..|        utoff: -15558 (valid) 0x86e-0x871.7 (4)
0x870|c3 3a                                          |.:              |
0x870|      00                                       |  .             |        dst: 0 (valid) 0x872-0x872.7 (1)
0x870|         08                                    |   .            |        idx: 8 (valid) 0x873-0x873.7 (1)
     |                                               |                |      [3]{}: local_time_type 0x874-0x879.7 (6)
0x870|            ff ff d5 d0                        |    ....        |        utoff: -10800 (valid) 0x874-0x877.7 (4)
0x870|                        01                     |        .       |        dst: 1 (valid) 0x878-0x878.7 (1)
0x870|                           0c                  |         .      |        idx: 12 (valid) 0x879-0x879.7 (1)
     |                                               |                |      [4]{}: local_time_type 0x87a-0x87f.7 (6)
0x870|                              ff ff c7 c0      |          ....  |        utoff: -14400 (valid) 0x87a-0x87d.7 (4)
0x870|                                          00   |              . |        dst: 0 (valid) 0x87e-0x87e.7 (1)
0x870|                                             10|               .|        idx: 16 (valid) 0x87f-0x87f.7 (1)
     |                                               |                |    time_zone_designations[0:5]: 0x880-0x893.7 (20)
0x880|4c 4d 54 00                                    |LMT.            |      [0]: "LMT" time_zone_designation 0x880-0x883.7 (4)
0x880|            42 53 54 00                        |    BST.        |      [1]: "BST" time_zone_designation 0x884-0x887.7 (4)
0x880|                        42 4d 54 00            |        BMT.    |      [2]: "BMT" time_zone_designation 0x888-0x88b.7 (4)
0x880|                                    41 44 54 00|            ADT.|      [3]: "ADT" time_zone_designation 0x88c-0x88f.7 (4)
0x890|41 53 54 00                                    |AST.            |      [4]: "AST" time_zone_designation 0x890-0x893.7 (4)
     |                                               |                |    leap_second_records[0:27]: 0x894-0x9d7.7 (324)
     |                                               |                |      [0]{}: leap_second_record 0x894-0x89f.7 (12)
0x890|            00 00 00 00 04 b2 58 00            |    ......X.    |        occur: "1972-07-01T00:00:00Z" (78796800) 0x894-0x89b.7 (8)
0x890|                                    00 00 00 01|            ....|        corr: 1 0x89c-0x89f.7 (4)
     |                                               |                |      [1]{}: leap_second_record 0x8a0-0x8ab.7 (12)
0x8a0|00 00 00 00 05 a4 ec 01                        |........        |        occur: "1973-01-01T00:00:01Z" (94694401) 0x8a0-0x8a7.7 (8)
0x8a0|                        00 00 00 02            |        ....    |        corr: 2 0x8a8-0x8ab.7 (4)
     |                                               |                |      [2]{}: leap_second_record 0x8ac-0x8b7.7 (12)
0x8a0|                                    00 00 00 00|            ....|        occur: "1974-01-01T00:00:02Z" (126230402) 0x8ac-0x8b3.7 (8)
0x8b0|07 86 1f 82                                    |....            |
0x8b0|            00 00 00 03                        |    ....        |        corr: 3 0x8b4-0x8b7.7 (4)
     |                                               |                |      [3]{}: leap_second_record 0x8b8-0x8c3.7 (12)
0x8b0|                        00 00 00 00 09 67 53 03|        .....gS.|        occur: "1975-01-01T00:00:03Z" (157766403) 0x8b8-0x8bf.7 (8)
0x8c0|00 00 00 04                                    |....            |        corr: 4 0x8c0-0x8c3.7 (4)
     |                                               |                |      [4]{}: leap_second_record 0x8c4-0x8cf.7 (12)
0x8c0|            00 00 00 00 0b 48 86 84            |    .....H..    |        occur: "1976-01-01T00:00:04Z" (189302404) 0x8c4-0x8cb.7 (8)
0x8c0|                                    00 00 00 05|            ....|        corr: 5 0x8cc-0x8cf.7 (4)
     |                                               |                |      [5]{}: leap_second_record 0x8d0-0x8db.7 (12)
0x8d0|00 00 00 00 0d 2b 0b 85                        |.....+..        |        occur: "1977-01-01T00:00:05Z" (220924805) 0x8d0-0x8d7.7 (8)
0x8d0|                        00 00 00 06            |        ....    |        corr: 6 0x8d8-0x8db.7 (4)
     |                                               |                |      [6]{}: leap_second_record 0x8dc-0x8e7.7 (12)
0x8d0|                                    00 00 00 00|            ....|        occur: "1978-01-01T00:00:06Z" (252460806) 0x8dc-0x8e3.7 (8)
0x8e0|0f 0c 3f 06                                    |..?.            |
0x8e0|            00 00 00 07                        |    ....        |        corr: 7 0x8e4-0x8e7.7 (4)
     |                                               |                |      [7]{}: leap_second_record 0x8e8-0x8f3.7 (12)
0x8e0|                        00 00 00 00 10 ed 72 87|        ......r.|        occur: "1979-01-01T00:00:07Z" (283996807) 0x8e8-0x8ef.7 (8)
0x8f0|00 00 00 08                                    |....            |        corr: 8 0x8f0-0x8f3.7 (4)
     |                                               |                |      [8]{}: leap_second_record 0x8f4-0x8ff.7 (12)
0x8f0|            00 00 00 00 12 ce a6 08            |    ........    |        occur: "1980-01-01T00:00:08Z" (315532808) 0x8f4-0x8fb.7 (8)
0x8f0|                                    00 00 00 09|            ....|        corr: 9 0x8fc-0x8ff.7 (4)
     |                                               |                |      [9]{}: leap_second_record 0x900-0x90b.7 (12)
0x900|00 00 00 00 15 9f ca 89                        |........        |        occur: "1981-07-01T00:00:09Z" (362793609) 0x900-0x907.7 (8)
0x900|                        00 00 00 0a            |        ....    |        corr: 10 0x908-0x90b.7 (4)
     |                                               |                |      [10]{}: leap_second_record 0x90c-0x917.7 (12)
0x900|                                    00 00 00 00|            ....|        occur: "1982-07-01T00:00:10Z" (394329610) 0x90c-0x913.7 (8)
0x910|17 80 fe 0a                                    |....            |
0x910|            00 00 00 0b                        |    ....        |        corr: 11 0x914-0x917.7 (4)
     |                                               |                |      [11]{}: leap_second_record 0x918-0x923.7 (12)
0x910|                        00 00 00 00 19 62 31 8b|        .....b1.|        occur: "1983-07-01T00:00:11Z" (425865611) 0x918-0x91f.7 (8)
0x920|00 00 00 0c                                    |....            |        corr: 12 0x920-0x923.7 (4)
     |                                               |                |      [12]{}: leap_second_record 0x924-0x92f.7 (12)
0x920|            00 00 00 00 1d 25 ea 0c            |    .....%..    |        occur: "1985-07-01T00:00:12Z" (489024012) 0x924-0x92b.7 (8)
0x920|                                    00 00 00 0d|            ....|        corr: 13 0x92c-0x92f.7 (4)
     |                                               |                |      [13]{}: leap_second_record 0x930-0x93b.7 (12)
0x930|00 00 00 00 21 da e5 0d                        |....!...        |        occur: "1988-01-01T00:00:13Z" (567993613) 0x930-0x937.7 (8)
0x930|                        00 00 00 0e            |        ....    |        corr: 14 0x938-0x93b.7 (4)
     |                                               |                |      [14]{}: leap_second_record 0x93c-0x947.7 (12)
0x930|                                    00 00 00 00|            ....|        occur: "1990-01-01T00:00:14Z" (631152014) 0x93c-0x943.7 (8)
0x940|25 9e 9d 8e                                    |%...            |
0x940|            00 00 00 0f                        |    ....        |        corr: 15 0x944-0x947.7 (4)
     |                                               |                |      [15]{}: leap_second_record 0x948-0x953.7 (12)
0x940|                        00 00 00 00 27 7f d1 0f|        ....'...|        occur: "1991-01-01T00:00:15Z" (662688015) 0x948-0x94f.7 (8)
0x950|00 00 00 10                                    |....            |        corr: 16 0x950-0x953.7 (4)
     |                                               |                |      [16]{}: leap_second_record 0x954-0x95f.7 (12)
0x950|            00 00 00 00 2a 50 f5 90            |    ....*P..    |        occur: "1992-07-01T00:00:16Z" (709948816) 0x954-0x95b.7 (8)
0x950|                                    00 00 00 11|            ....|        corr: 17 0x95c-0x95f.7 (4)
     |                                               |                |      [17]{}: leap_second_record 0x960-0x96b.7 (12)
0x960|00 00 00 00 2c 32 29 11                        |....,2).        |        occur: "1993-07-01T00:00:17Z" (741484817) 0x960-0x967.7 (8)
0x960|                        00 00 00 12            |        ....    |        corr: 18 0x968-0x96b.7 (4)
     |                                               |                |      [18]{}: leap_second_record 0x96c-0x977.7 (12)
0x960|                                    00 00 00 00|            ....|        occur: "1994-07-01T00:00:18Z" (773020818) 0x96c-0x973.7 (8)
0x970|2e 13 5c 92                                    |..\.            |
0x970|            00 00 00 13                        |    ....        |        corr: 19 0x974-0x977.7 (4)
     |                                               |                |      [19]{}: leap_second_record 0x978-0x983.7 (12)
0x970|                        00 00 00 00 30 e7 24 13|        ....0.$.|        occur: "1996-01-01T00:00:19Z" (820454419) 0x978-0x97f.7 (8)
0x980|00 00 00 14                                    |....            |        corr: 20 0x980-0x983.7 (4)
     |                                               |                |      [20]{}: leap_second_record 0x984-0x98f.7 (12)
0x980|            00 00 00 00 33 b8 48 94            |    ....3.H.    |        occur: "1997-07-01T00:00:20Z" (867715220) 0x984-0x98b.7 (8)
0x980|                                    00 00 00 15|            ....|        corr: 21 0x98c-0x98f.7 (4)
     |                                               |                |      [21]{}: leap_second_record 0x990-0x99b.7 (12)
0x990|00 00 00 00 36 8c 10 15                        |....6...        |        occur: "1999-01-01T00:00:21Z" (915148821) 0x990-0x997.7 (8)
0x990|                        00 00 00 16            |        ....    |        corr: 22 0x998-0x99b.7 (4)
     |                                               |                |      [22]{}: leap_second_record 0x99c-0x9a7.7 (12)
0x990|                                    00 00 00 00|            ....|        occur: "2006-01-01T00:00:22Z" (1136073622) 0x99c-0x9a3.7 (8)
0x9a0|43 b7 1b 96                                    |C...            |
0x9a0|            00 00 00 17                        |    ....        |        corr: 23 0x9a4-0x9a7.7 (4)
     |                                               |                |      [23]{}: leap_second_record 0x9a8-0x9b3.7 (12)
0x9a0|                        00 00 00 00 49 5c 07 97|        ....I\..|        occur: "2009-01-01T00:00:23Z" (1230768023) 0x9a8-0x9af.7 (8)
0x9b0|00 00 00 18                                    |....            |        corr: 24 0x9b0-0x9b3.7 (4)
     |                                               |                |      [24]{}: leap_second_record 0x9b4-0x9bf.7 (12)
0x9b0|            00 00 00 00 4f ef 93 18            |    ....O...    |        occur: "2012-07-01T00:00:24Z" (1341100824) 0x9b4-0x9bb.7 (8)
0x9b0|                                    00 00 00 19|            ....|        corr: 25 0x9bc-0x9bf.7 (4)
     |                                               |                |      [25]{}: leap_second_record 0x9c0-0x9cb.7 (12)
0x9c0|00 00 00 00 55 93 2d 99                        |....U.-.        |        occur: "2015-07-01T00:00:25Z" (1435708825) 0x9c0-0x9c7.7 (8)
0x9c0|                        00 00 00 1a            |        ....    |        corr: 26 0x9c8-0x9cb.7 (4)
     |                                               |                |      [26]{}: leap_second_record 0x9cc-0x9d7.7 (12)
0x9c0|                                    00 00 00 00|            ....|        occur: "2017-01-01T00:00:26Z" (1483228826) 0x9cc-0x9d3.7 (8)
0x9d0|58 68 46 9a                                    |XhF.            |
0x9d0|            00 00 00 1b                        |    ....        |        corr: 27 0x9d4-0x9d7.7 (4)
     |                                               |                |    standard_wall_indicators[0:0]: 0x9d8-NA (0)
     |                                               |                |    ut_local_indicators[0:0]: 0x9d8-NA (0)
     |                                               |                |  footer{}: 0x9d8-0x9d9.7 (2)
0x9d0|                        0a                     |        .       |    nl1: 10 (valid) 0x9d8-0x9d8.7 (1)
     |                                               |                |    tz_string: "" 0x9d9-NA (0)
0x9d0|                           0a|                 |         .|     |    nl2: 10 (valid) 0x9d9-0x9d9.7 (1)
