$ fq -d tzif dv Bishkek
     |00 01 02 03 04 05 06 07 08 09 0a 0b 0c 0d 0e 0f|0123456789abcdef|.{}: Bishkek (tzif) 0x0-0x5ec (1516)
     |                                               |                |  v1header{}: 0x0-0x2c (44)
0x000|54 5a 69 66                                    |TZif            |    magic: 0x545a6966 (valid) 0x0-0x4 (4)
0x000|            32                                 |    2           |    ver: "2" (0x32) (valid) 0x4-0x5 (1)
0x000|               00 00 00 00 00 00 00 00 00 00 00|     ...........|    reserved: raw bits 0x5-0x14 (15)
0x010|00 00 00 00                                    |....            |
0x010|            00 00 00 00                        |    ....        |    isutcnt: 0 0x14-0x18 (4)
0x010|                        00 00 00 08            |        ....    |    isstdcnt: 8 0x18-0x1c (4)
0x010|                                    00 00 00 1b|            ....|    leapcnt: 27 0x1c-0x20 (4)
0x020|00 00 00 35                                    |...5            |    timecnt: 53 0x20-0x24 (4)
0x020|            00 00 00 08                        |    ....        |    typecnt: 8 0x24-0x28 (4)
0x020|                        00 00 00 10            |        ....    |    charcnt: 16 0x28-0x2c (4)
     |                                               |                |  v1datablock{}: 0x2c-0x255 (553)
     |                                               |                |    transition_times[0:53]: 0x2c-0x100 (212)
0x020|                                    aa 19 7e 10|            ..~.|      [0]: "1924-05-01T19:01:36Z" (-1441169904) transition_time 0x2c-0x30 (4)
0x030|b5 a3 ef 30                                    |...0            |      [1]: "1930-06-20T19:00:00Z" (-1247547600) transition_time 0x30-0x34 (4)
0x030|            15 27 7d a9                        |    .'}.        |      [2]: "1981-03-31T18:00:09Z" (354909609) transition_time 0x34-0x38 (4)
0x030|                        16 18 b2 1a            |        ....    |      [3]: "1981-09-30T17:00:10Z" (370717210) transition_time 0x38-0x3c (4)
0x030|                                    17 08 b1 2a|            ...*|      [4]: "1982-03-31T18:00:10Z" (386445610) transition_time 0x3c-0x40 (4)
0x040|17 f9 e5 9b                                    |....            |      [5]: "1982-09-30T17:00:11Z" (402253211) transition_time 0x40-0x44 (4)
0x040|            18 e9 e4 ab                        |    ....        |      [6]: "1983-03-31T18:00:11Z" (417981611) transition_time 0x44-0x48 (4)
0x040|                        19 db 19 1c            |        ....    |      [7]: "1983-09-30T17:00:12Z" (433789212) transition_time 0x48-0x4c (4)
0x040|                                    1a cc 69 ac|            ..i.|      [8]: "1984-03-31T18:00:12Z" (449604012) transition_time 0x4c-0x50 (4)
0x050|1b bc 76 cc                                    |..v.            |      [9]: "1984-09-29T20:00:12Z" (465336012) transition_time 0x50-0x54 (4)
0x050|            1c ac 67 cc                        |    ..g.        |      [10]: "1985-03-30T20:00:12Z" (481060812) transition_time 0x54-0x58 (4)
0x050|                        1d 9c 58 cd            |        ..X.    |      [11]: "1985-09-28T20:00:13Z" (496785613) transition_time 0x58-0x5c (4)
0x050|                                    1e 8c 49 cd|            ..I.|      [12]: "1986-03-29T20:00:13Z" (512510413) transition_time 0x5c-0x60 (4)
0x060|1f 7c 3a cd                                    |.|:.            |      [13]: "1986-09-27T20:00:13Z" (528235213) transition_time 0x60-0x64 (4)
0x060|            20 6c 2b cd                        |     l+.        |      [14]: "1987-03-28T20:00:13Z" (543960013) transition_time 0x64-0x68 (4)
0x060|                        21 5c 1c cd            |        !\..    |      [15]: "1987-09-26T20:00:13Z" (559684813) transition_time 0x68-0x6c (4)
0x060|                                    22 4c 0d ce|            "L..|      [16]: "1988-03-26T20:00:14Z" (575409614) transition_time 0x6c-0x70 (4)
0x070|23 3b fe ce                                    |#;..            |      [17]: "1988-09-24T20:00:14Z" (591134414) transition_time 0x70-0x74 (4)
0x070|            24 2b ef ce                        |    $+..        |      [18]: "1989-03-25T20:00:14Z" (606859214) transition_time 0x74-0x78 (4)
0x070|                        25 1b e0 ce            |        %...    |      [19]: "1989-09-23T20:00:14Z" (622584014) transition_time 0x78-0x7c (4)
0x070|                                    26 0b d1 cf|            &...|      [20]: "1990-03-24T20:00:15Z" (638308815) transition_time 0x7c-0x80 (4)
0x080|27 04 fd 4f                                    |'..O            |      [21]: "1990-09-29T20:00:15Z" (654638415) transition_time 0x80-0x84 (4)
0x080|            27 f4 ee 50                        |    '..P        |      [22]: "1991-03-30T20:00:16Z" (670363216) transition_time 0x84-0x88 (4)
0x080|                        28 be a3 d0            |        (...    |      [23]: "1991-08-30T20:00:16Z" (683582416) transition_time 0x88-0x8c (4)
0x080|                                    29 e7 37 40|            ).7@|      [24]: "1992-04-11T19:00:16Z" (703018816) transition_time 0x8c-0x90 (4)
0x090|2a c4 a5 31                                    |*..1            |      [25]: "1992-09-26T18:00:17Z" (717530417) transition_time 0x90-0x94 (4)
0x090|            2b c7 19 41                        |    +..A        |      [26]: "1993-04-10T19:00:17Z" (734468417) transition_time 0x94-0x98 (4)
0x090|                        2c a4 87 32            |        ,..2    |      [27]: "1993-09-25T18:00:18Z" (748980018) transition_time 0x98-0x9c (4)
0x090|                                    2d a6 fb 42|            -..B|      [28]: "1994-04-09T19:00:18Z" (765918018) transition_time 0x9c-0xa0 (4)
0x0a0|2e 84 69 33                                    |..i3            |      [29]: "1994-09-24T18:00:19Z" (780429619) transition_time 0xa0-0xa4 (4)
0x0a0|            2f 86 dd 43                        |    /..C        |      [30]: "1995-04-08T19:00:19Z" (797367619) transition_time 0xa4-0xa8 (4)
0x0a0|                        30 64 4b 33            |        0dK3    |      [31]: "1995-09-23T18:00:19Z" (811879219) transition_time 0xa8-0xac (4)
0x0a0|                                    31 66 bf 44|            1f.D|      [32]: "1996-04-06T19:00:20Z" (828817220) transition_time 0xac-0xb0 (4)
0x0b0|32 4d 67 b4                                    |2Mg.            |      [33]: "1996-09-28T18:00:20Z" (843933620) transition_time 0xb0-0xb4 (4)
0x0b0|            33 3d 89 ec                        |    3=..        |      [34]: "1997-03-29T21:30:20Z" (859671020) transition_time 0xb4-0xb8 (4)
0x0b0|                        34 52 56 dd            |        4RV.    |      [35]: "1997-10-25T20:30:21Z" (877811421) transition_time 0xb8-0xbc (4)
0x0b0|                                    35 1d 6b ed|            5.k.|      [36]: "1998-03-28T21:30:21Z" (891120621) transition_time 0xbc-0xc0 (4)
0x0c0|36 32 38 dd                                    |628.            |      [37]: "1998-10-24T20:30:21Z" (909261021) transition_time 0xc0-0xc4 (4)
0x0c0|            36 fd 4d ee                        |    6.M.        |      [38]: "1999-03-27T21:30:22Z" (922570222) transition_time 0xc4-0xc8 (4)
0x0c0|                        38 1b 55 5e            |        8.U^    |      [39]: "1999-10-30T20:30:22Z" (941315422) transition_time 0xc8-0xcc (4)
0x0c0|                                    38 dd 2f ee|            8./.|      [40]: "2000-03-25T21:30:22Z" (954019822) transition_time 0xcc-0xd0 (4)
0x0d0|39 fb 37 5e                                    |9.7^            |      [41]: "2000-10-28T20:30:22Z" (972765022) transition_time 0xd0-0xd4 (4)
0x0d0|            3a bd 11 ee                        |    :...        |      [42]: "2001-03-24T21:30:22Z" (985469422) transition_time 0xd4-0xd8 (4)
0x0d0|                        3b db 19 5e            |        ;..^    |      [43]: "2001-10-27T20:30:22Z" (1004214622) transition_time 0xd8-0xdc (4)
0x0d0|                                    3c a6 2e 6e|            <..n|      [44]: "2002-03-30T21:30:22Z" (1017523822) transition_time 0xdc-0xe0 (4)
0x0e0|3d ba fb 5e                                    |=..^            |      [45]: "2002-10-26T20:30:22Z" (1035664222) transition_time 0xe0-0xe4 (4)
0x0e0|            3e 86 10 6e                        |    >..n        |      [46]: "2003-03-29T21:30:22Z" (1048973422) transition_time 0xe4-0xe8 (4)
0x0e0|                        3f 9a dd 5e            |        ?..^    |      [47]: "2003-10-25T20:30:22Z" (1067113822) transition_time 0xe8-0xec (4)
0x0e0|                                    40 65 f2 6e|            @e.n|      [48]: "2004-03-27T21:30:22Z" (1080423022) transition_time 0xec-0xf0 (4)
0x0f0|41 83 f9 de                                    |A...            |      [49]: "2004-10-30T20:30:22Z" (1099168222) transition_time 0xf0-0xf4 (4)
0x0f0|            42 45 d4 6e                        |    BE.n        |      [50]: "2005-03-26T21:30:22Z" (1111872622) transition_time 0xf4-0xf8 (4)
0x0f0|                        42 fb 92 36            |        B..6    |      [51]: "2005-08-11T18:00:22Z" (1123783222) transition_time 0xf8-0xfc (4)
0x0f0|                                    64 9b 78 1b|            d.x.|      [52]: "2023-06-28T00:00:27Z" (1687910427) transition_time 0xfc-0x100 (4)
     |                                               |                |    transition_types[0:53]: 0x100-0x135 (53)
0x100|01                                             |.               |      [0]: 1 transition_type 0x100-0x101 (1)
0x100|   03                                          | .              |      [1]: 3 transition_type 0x101-0x102 (1)
0x100|      02                                       |  .             |      [2]: 2 transition_type 0x102-0x103 (1)
0x100|         03                                    |   .            |      [3]: 3 transition_type 0x103-0x104 (1)
0x100|            02                                 |    .           |      [4]: 2 transition_type 0x104-0x105 (1)
0x100|               03                              |     .          |      [5]: 3 transition_type 0x105-0x106 (1)
0x100|                  02                           |      .         |      [6]: 2 transition_type 0x106-0x107 (1)
0x100|                     03                        |       .        |      [7]: 3 transition_type 0x107-0x108 (1)
0x100|                        02                     |        .       |      [8]: 2 transition_type 0x108-0x109 (1)
0x100|                           04                  |         .      |      [9]: 4 transition_type 0x109-0x10a (1)
0x100|                              05               |          .     |      [10]: 5 transition_type 0x10a-0x10b (1)
0x100|                                 04            |           .    |      [11]: 4 transition_type 0x10b-0x10c (1)
0x100|                                    05         |            .   |      [12]: 5 transition_type 0x10c-0x10d (1)
0x100|                                       04      |             .  |      [13]: 4 transition_type 0x10d-0x10e (1)
0x100|                                          05   |              . |      [14]: 5 transition_type 0x10e-0x10f (1)
0x100|                                             04|               .|      [15]: 4 transition_type 0x10f-0x110 (1)
0x110|05                                             |.               |      [16]: 5 transition_type 0x110-0x111 (1)
0x110|   04                                          | .              |      [17]: 4 transition_type 0x111-0x112 (1)
0x110|      05                                       |  .             |      [18]: 5 transition_type 0x112-0x113 (1)
0x110|         04                                    |   .            |      [19]: 4 transition_type 0x113-0x114 (1)
0x110|            05                                 |    .           |      [20]: 5 transition_type 0x114-0x115 (1)
0x110|               04                              |     .          |      [21]: 4 transition_type 0x115-0x116 (1)
0x110|                  06                           |      .         |      [22]: 6 transition_type 0x116-0x117 (1)
0x110|                     01                        |       .        |      [23]: 1 transition_type 0x117-0x118 (1)
0x110|                        06                     |        .       |      [24]: 6 transition_type 0x118-0x119 (1)
0x110|                           01                  |         .      |      [25]: 1 transition_type 0x119-0x11a (1)
0x110|                              06               |          .     |      [26]: 6 transition_type 0x11a-0x11b (1)
0x110|                                 01            |           .    |      [27]: 1 transition_type 0x11b-0x11c (1)
0x110|                                    06         |            .   |      [28]: 6 transition_type 0x11c-0x11d (1)
0x110|                                       01      |             .  |      [29]: 1 transition_type 0x11d-0x11e (1)
0x110|                                          06   |              . |      [30]: 6 transition_type 0x11e-0x11f (1)
0x110|                                             01|               .|      [31]: 1 transition_type 0x11f-0x120 (1)
0x120|06                                             |.               |      [32]: 6 transition_type 0x120-0x121 (1)
0x120|   01                                          | .              |      [33]: 1 transition_type 0x121-0x122 (1)
0x120|      07                                       |  .             |      [34]: 7 transition_type 0x122-0x123 (1)
0x120|         01                                    |   .            |      [35]: 1 transition_type 0x123-0x124 (1)
0x120|            07                                 |    .           |      [36]: 7 transition_type 0x124-0x125 (1)
0x120|               01                              |     .          |      [37]: 1 transition_type 0x125-0x126 (1)
0x120|                  07                           |      .         |      [38]: 7 transition_type 0x126-0x127 (1)
0x120|                     01                        |       .        |      [39]: 1 transition_type 0x127-0x128 (1)
0x120|                        07                     |        .       |      [40]: 7 transition_type 0x128-0x129 (1)
0x120|                           01                  |         .      |      [41]: 1 transition_type 0x129-0x12a (1)
0x120|                              07               |          .     |      [42]: 7 transition_type 0x12a-0x12b (1)
0x120|                                 01            |           .    |      [43]: 1 transition_type 0x12b-0x12c (1)
0x120|                                    07         |            .   |      [44]: 7 transition_type 0x12c-0x12d (1)
0x120|                                       01      |             .  |      [45]: 1 transition_type 0x12d-0x12e (1)
0x120|                                          07   |              . |      [46]: 7 transition_type 0x12e-0x12f (1)
0x120|                                             01|               .|      [47]: 1 transition_type 0x12f-0x130 (1)
0x130|07                                             |.               |      [48]: 7 transition_type 0x130-0x131 (1)
0x130|   01                                          | .              |      [49]: 1 transition_type 0x131-0x132 (1)
0x130|      07                                       |  .             |      [50]: 7 transition_type 0x132-0x133 (1)
0x130|         03                                    |   .            |      [51]: 3 transition_type 0x133-0x134 (1)
0x130|            03                                 |    .           |      [52]: 3 transition_type 0x134-0x135 (1)
     |                                               |                |    local_time_type_records[0:8]: 0x135-0x165 (48)
     |                                               |                |      [0]{}: local_time_type 0x135-0x13b (6)
0x130|               00 00 45 f0                     |     ..E.       |        utoff: 17904 (valid) 0x135-0x139 (4)
0x130|                           00                  |         .      |        dst: 0 (valid) 0x139-0x13a (1)
0x130|                              00               |          .     |        idx: 0 (valid) 0x13a-0x13b (1)
     |                                               |                |      [1]{}: local_time_type 0x13b-0x141 (6)
0x130|                                 00 00 46 50   |           ..FP |        utoff: 18000 (valid) 0x13b-0x13f (4)
0x130|                                             00|               .|        dst: 0 (valid) 0x13f-0x140 (1)
0x140|04                                             |.               |        idx: 4 (valid) 0x140-0x141 (1)
     |                                               |                |      [2]{}: local_time_type 0x141-0x147 (6)
0x140|   00 00 62 70                                 | ..bp           |        utoff: 25200 (valid) 0x141-0x145 (4)
0x140|               01                              |     .          |        dst: 1 (valid) 0x145-0x146 (1)
0x140|                  08                           |      .         |        idx: 8 (valid) 0x146-0x147 (1)
     |                                               |                |      [3]{}: local_time_type 0x147-0x14d (6)
0x140|                     00 00 54 60               |       ..T`     |        utoff: 21600 (valid) 0x147-0x14b (4)
0x140|                                 00            |           .    |        dst: 0 (valid) 0x14b-0x14c (1)
0x140|                                    0c         |            .   |        idx: 12 (valid) 0x14c-0x14d (1)
     |                                               |                |      [4]{}: local_time_type 0x14d-0x153 (6)
0x140|                                       00 00 54|             ..T|        utoff: 21600 (valid) 0x14d-0x151 (4)
0x150|60                                             |`               |
0x150|   00                                          | .              |        dst: 0 (valid) 0x151-0x152 (1)
0x150|      0c                                       |  .             |        idx: 12 (valid) 0x152-0x153 (1)
     |                                               |                |      [5]{}: local_time_type 0x153-0x159 (6)
0x150|         00 00 62 70                           |   ..bp         |        utoff: 25200 (valid) 0x153-0x157 (4)
0x150|                     01                        |       .        |        dst: 1 (valid) 0x157-0x158 (1)
0x150|                        08                     |        .       |        idx: 8 (valid) 0x158-0x159 (1)
     |                                               |                |      [6]{}: local_time_type 0x159-0x15f (6)
0x150|                           00 00 54 60         |         ..T`   |        utoff: 21600 (valid) 0x159-0x15d (4)
0x150|                                       01      |             .  |        dst: 1 (valid) 0x15d-0x15e (1)
0x150|                                          0c   |              . |        idx: 12 (valid) 0x15e-0x15f (1)
     |                                               |                |      [7]{}: local_time_type 0x15f-0x165 (6)
0x150|                                             00|               .|        utoff: 21600 (valid) 0x15f-0x163 (4)
0x160|00 54 60                                       |.T`             |
0x160|         01                                    |   .            |        dst: 1 (valid) 0x163-0x164 (1)
0x160|            0c                                 |    .           |        idx: 12 (valid) 0x164-0x165 (1)
     |                                               |                |    time_zone_designations[0:4]: 0x165-0x175 (16)
0x160|               4c 4d 54 00                     |     LMT.       |      [0]: "LMT" time_zone_designation 0x165-0x169 (4)
0x160|                           2b 30 35 00         |         +05.   |      [1]: "+05" time_zone_designation 0x169-0x16d (4)
0x160|                                       2b 30 37|             +07|      [2]: "+07" time_zone_designation 0x16d-0x171 (4)
0x170|00                                             |.               |
0x170|   2b 30 36 00                                 | +06.           |      [3]: "+06" time_zone_designation 0x171-0x175 (4)
     |                                               |                |    leap_second_records[0:27]: 0x175-0x24d (216)
     |                                               |                |      [0]{}: leap_second_record 0x175-0x17d (8)
0x170|               04 b2 58 00                     |     ..X.       |        occur: "1972-07-01T00:00:00Z" (78796800) 0x175-0x179 (4)
0x170|                           00 00 00 01         |         ....   |        corr: 1 0x179-0x17d (4)
     |                                               |                |      [1]{}: leap_second_record 0x17d-0x185 (8)
0x170|                                       05 a4 ec|             ...|        occur: "1973-01-01T00:00:01Z" (94694401) 0x17d-0x181 (4)
0x180|01                                             |.               |
0x180|   00 00 00 02                                 | ....           |        corr: 2 0x181-0x185 (4)
     |                                               |                |      [2]{}: leap_second_record 0x185-0x18d (8)
0x180|               07 86 1f 82                     |     ....       |        occur: "1974-01-01T00:00:02Z" (126230402) 0x185-0x189 (4)
0x180|                           00 00 00 03         |         ....   |        corr: 3 0x189-0x18d (4)
     |                                               |                |      [3]{}: leap_second_record 0x18d-0x195 (8)
0x180|                                       09 67 53|             .gS|        occur: "1975-01-01T00:00:03Z" (157766403) 0x18d-0x191 (4)
0x190|03                                             |.               |
0x190|   00 00 00 04                                 | ....           |        corr: 4 0x191-0x195 (4)
     |                                               |                |      [4]{}: leap_second_record 0x195-0x19d (8)
0x190|               0b 48 86 84                     |     .H..       |        occur: "1976-01-01T00:00:04Z" (189302404) 0x195-0x199 (4)
0x190|                           00 00 00 05         |         ....   |        corr: 5 0x199-0x19d (4)
     |                                               |                |      [5]{}: leap_second_record 0x19d-0x1a5 (8)
0x190|                                       0d 2b 0b|             .+.|        occur: "1977-01-01T00:00:05Z" (220924805) 0x19d-0x1a1 (4)
0x1a0|85                                             |.               |
0x1a0|   00 00 00 06                                 | ....           |        corr: 6 0x1a1-0x1a5 (4)
     |                                               |                |      [6]{}: leap_second_record 0x1a5-0x1ad (8)
0x1a0|               0f 0c 3f 06                     |     ..?.       |        occur: "1978-01-01T00:00:06Z" (252460806) 0x1a5-0x1a9 (4)
0x1a0|                           00 00 00 07         |         ....   |        corr: 7 0x1a9-0x1ad (4)
     |                                               |                |      [7]{}: leap_second_record 0x1ad-0x1b5 (8)
0x1a0|                                       10 ed 72|             ..r|        occur: "1979-01-01T00:00:07Z" (283996807) 0x1ad-0x1b1 (4)
0x1b0|87                                             |.               |
0x1b0|   00 00 00 08                                 | ....           |        corr: 8 0x1b1-0x1b5 (4)
     |                                               |                |      [8]{}: leap_second_record 0x1b5-0x1bd (8)
0x1b0|               12 ce a6 08                     |     ....       |        occur: "1980-01-01T00:00:08Z" (315532808) 0x1b5-0x1b9 (4)
0x1b0|                           00 00 00 09         |         ....   |        corr: 9 0x1b9-0x1bd (4)
     |                                               |                |      [9]{}: leap_second_record 0x1bd-0x1c5 (8)
0x1b0|                                       15 9f ca|             ...|        occur: "1981-07-01T00:00:09Z" (362793609) 0x1bd-0x1c1 (4)
0x1c0|89                                             |.               |
0x1c0|   00 00 00 0a                                 | ....           |        corr: 10 0x1c1-0x1c5 (4)
     |                                               |                |      [10]{}: leap_second_record 0x1c5-0x1cd (8)
0x1c0|               17 80 fe 0a                     |     ....       |        occur: "1982-07-01T00:00:10Z" (394329610) 0x1c5-0x1c9 (4)
0x1c0|                           00 00 00 0b         |         ....   |        corr: 11 0x1c9-0x1cd (4)
     |                                               |                |      [11]{}: leap_second_record 0x1cd-0x1d5 (8)
0x1c0|                                       19 62 31|             .b1|        occur: "1983-07-01T00:00:11Z" (425865611) 0x1cd-0x1d1 (4)
0x1d0|8b                                             |.               |
0x1d0|   00 00 00 0c                                 | ....           |        corr: 12 0x1d1-0x1d5 (4)
     |                                               |                |      [12]{}: leap_second_record 0x1d5-0x1dd (8)
0x1d0|               1d 25 ea 0c                     |     .%..       |        occur: "1985-07-01T00:00:12Z" (489024012) 0x1d5-0x1d9 (4)
0x1d0|                           00 00 00 0d         |         ....   |        corr: 13 0x1d9-0x1dd (4)
     |                                               |                |      [13]{}: leap_second_record 0x1dd-0x1e5 (8)
0x1d0|                                       21 da e5|             !..|        occur: "1988-01-01T00:00:13Z" (567993613) 0x1dd-0x1e1 (4)
0x1e0|0d                                             |.               |
0x1e0|   00 00 00 0e                                 | ....           |        corr: 14 0x1e1-0x1e5 (4)
     |                                               |                |      [14]{}: leap_second_record 0x1e5-0x1ed (8)
0x1e0|               25 9e 9d 8e                     |     %...       |        occur: "1990-01-01T00:00:14Z" (631152014) 0x1e5-0x1e9 (4)
0x1e0|                           00 00 00 0f         |         ....   |        corr: 15 0x1e9-0x1ed (4)
     |                                               |                |      [15]{}: leap_second_record 0x1ed-0x1f5 (8)
0x1e0|                                       27 7f d1|             '..|        occur: "1991-01-01T00:00:15Z" (662688015) 0x1ed-0x1f1 (4)
0x1f0|0f                                             |.               |
0x1f0|   00 00 00 10                                 | ....           |        corr: 16 0x1f1-0x1f5 (4)
     |                                               |                |      [16]{}: leap_second_record 0x1f5-0x1fd (8)
0x1f0|               2a 50 f5 90                     |     *P..       |        occur: "1992-07-01T00:00:16Z" (709948816) 0x1f5-0x1f9 (4)
0x1f0|                           00 00 00 11         |         ....   |        corr: 17 0x1f9-0x1fd (4)
     |                                               |                |      [17]{}: leap_second_record 0x1fd-0x205 (8)
0x1f0|                                       2c 32 29|             ,2)|        occur: "1993-07-01T00:00:17Z" (741484817) 0x1fd-0x201 (4)
0x200|11                                             |.               |
0x200|   00 00 00 12                                 | ....           |        corr: 18 0x201-0x205 (4)
     |                                               |                |      [18]{}: leap_second_record 0x205-0x20d (8)
0x200|               2e 13 5c 92                     |     ..\.       |        occur: "1994-07-01T00:00:18Z" (773020818) 0x205-0x209 (4)
0x200|                           00 00 00 13         |         ....   |        corr: 19 0x209-0x20d (4)
     |                                               |                |      [19]{}: leap_second_record 0x20d-0x215 (8)
0x200|                                       30 e7 24|             0.$|        occur: "1996-01-01T00:00:19Z" (820454419) 0x20d-0x211 (4)
0x210|13                                             |.               |
0x210|   00 00 00 14                                 | ....           |        corr: 20 0x211-0x215 (4)
     |                                               |                |      [20]{}: leap_second_record 0x215-0x21d (8)
0x210|               33 b8 48 94                     |     3.H.       |        occur: "1997-07-01T00:00:20Z" (867715220) 0x215-0x219 (4)
0x210|                           00 00 00 15         |         ....   |        corr: 21 0x219-0x21d (4)
     |                                               |                |      [21]{}: leap_second_record 0x21d-0x225 (8)
0x210|                                       36 8c 10|             6..|        occur: "1999-01-01T00:00:21Z" (915148821) 0x21d-0x221 (4)
0x220|15                                             |.               |
0x220|   00 00 00 16                                 | ....           |        corr: 22 0x221-0x225 (4)
     |                                               |                |      [22]{}: leap_second_record 0x225-0x22d (8)
0x220|               43 b7 1b 96                     |     C...       |        occur: "2006-01-01T00:00:22Z" (1136073622) 0x225-0x229 (4)
0x220|                           00 00 00 17         |         ....   |        corr: 23 0x229-0x22d (4)
     |                                               |                |      [23]{}: leap_second_record 0x22d-0x235 (8)
0x220|                                       49 5c 07|             I\.|        occur: "2009-01-01T00:00:23Z" (1230768023) 0x22d-0x231 (4)
0x230|97                                             |.               |
0x230|   00 00 00 18                                 | ....           |        corr: 24 0x231-0x235 (4)
     |                                               |                |      [24]{}: leap_second_record 0x235-0x23d (8)
0x230|               4f ef 93 18                     |     O...       |        occur: "2012-07-01T00:00:24Z" (1341100824) 0x235-0x239 (4)
0x230|                           00 00 00 19         |         ....   |        corr: 25 0x239-0x23d (4)
     |                                               |                |      [25]{}: leap_second_record 0x23d-0x245 (8)
0x230|                                       55 93 2d|             U.-|        occur: "2015-07-01T00:00:25Z" (1435708825) 0x23d-0x241 (4)
0x240|99                                             |.               |
0x240|   00 00 00 1a                                 | ....           |        corr: 26 0x241-0x245 (4)
     |                                               |                |      [26]{}: leap_second_record 0x245-0x24d (8)
0x240|               58 68 46 9a                     |     XhF.       |        occur: "2017-01-01T00:00:26Z" (1483228826) 0x245-0x249 (4)
0x240|                           00 00 00 1b         |         ....   |        corr: 27 0x249-0x24d (4)
     |                                               |                |    standard_wall_indicators[0:8]: 0x24d-0x255 (8)
0x240|                                       00      |             .  |      [0]: 0 standard_wall_indicator (valid) 0x24d-0x24e (1)
0x240|                                          00   |              . |      [1]: 0 standard_wall_indicator (valid) 0x24e-0x24f (1)
0x240|                                             00|               .|      [2]: 0 standard_wall_indicator (valid) 0x24f-0x250 (1)
0x250|00                                             |.               |      [3]: 0 standard_wall_indicator (valid) 0x250-0x251 (1)
0x250|   01                                          | .              |      [4]: 1 standard_wall_indicator (valid) 0x251-0x252 (1)
0x250|      01                                       |  .             |      [5]: 1 standard_wall_indicator (valid) 0x252-0x253 (1)
0x250|         01                                    |   .            |      [6]: 1 standard_wall_indicator (valid) 0x253-0x254 (1)
0x250|            00                                 |    .           |      [7]: 0 standard_wall_indicator (valid) 0x254-0x255 (1)
     |                                               |                |    ut_local_indicators[0:0]: 0x255-0x255 (0)
     |                                               |                |  v2plusheader{}: 0x255-0x281 (44)
0x250|               54 5a 69 66                     |     TZif       |    magic: 0x545a6966 (valid) 0x255-0x259 (4)
0x250|                           32                  |         2      |    ver: "2" (0x32) (valid) 0x259-0x25a (1)
0x250|                              00 00 00 00 00 00|          ......|    reserved: raw bits 0x25a-0x269 (15)
0x260|00 00 00 00 00 00 00 00 00                     |.........       |
0x260|                           00 00 00 00         |         ....   |    isutcnt: 0 0x269-0x26d (4)
0x260|                                       00 00 00|             ...|    isstdcnt: 8 0x26d-0x271 (4)
0x270|08                                             |.               |
0x270|   00 00 00 1b                                 | ....           |    leapcnt: 27 0x271-0x275 (4)
0x270|               00 00 00 35                     |     ...5       |    timecnt: 53 0x275-0x279 (4)
0x270|                           00 00 00 08         |         ....   |    typecnt: 8 0x279-0x27d (4)
0x270|                                       00 00 00|             ...|    charcnt: 16 0x27d-0x281 (4)
0x280|10                                             |.               |
     |                                               |                |  v2plusdatablock{}: 0x281-0x5ea (873)
     |                                               |                |    transition_times[0:53]: 0x281-0x429 (424)
0x280|   ff ff ff ff aa 19 7e 10                     | ......~.       |      [0]: "1924-05-01T19:01:36Z" (-1441169904) transition_time 0x281-0x289 (8)
0x280|                           ff ff ff ff b5 a3 ef|         .......|      [1]: "1930-06-20T19:00:00Z" (-1247547600) transition_time 0x289-0x291 (8)
0x290|30                                             |0               |
0x290|   00 00 00 00 15 27 7d a9                     | .....'}.       |      [2]: "1981-03-31T18:00:09Z" (354909609) transition_time 0x291-0x299 (8)
0x290|                           00 00 00 00 16 18 b2|         .......|      [3]: "1981-09-30T17:00:10Z" (370717210) transition_time 0x299-0x2a1 (8)
0x2a0|1a                                             |.               |
0x2a0|   00 00 00 00 17 08 b1 2a                     | .......*       |      [4]: "1982-03-31T18:00:10Z" (386445610) transition_time 0x2a1-0x2a9 (8)
0x2a0|                           00 00 00 00 17 f9 e5|         .......|      [5]: "1982-09-30T17:00:11Z" (402253211) transition_time 0x2a9-0x2b1 (8)
0x2b0|9b                                             |.               |
0x2b0|   00 00 00 00 18 e9 e4 ab                     | ........       |      [6]: "1983-03-31T18:00:11Z" (417981611) transition_time 0x2b1-0x2b9 (8)
0x2b0|                           00 00 00 00 19 db 19|         .......|      [7]: "1983-09-30T17:00:12Z" (433789212) transition_time 0x2b9-0x2c1 (8)
0x2c0|1c                                             |.               |
0x2c0|   00 00 00 00 1a cc 69 ac                     | ......i.       |      [8]: "1984-03-31T18:00:12Z" (449604012) transition_time 0x2c1-0x2c9 (8)
0x2c0|                           00 00 00 00 1b bc 76|         ......v|      [9]: "1984-09-29T20:00:12Z" (465336012) transition_time 0x2c9-0x2d1 (8)
0x2d0|cc                                             |.               |
0x2d0|   00 00 00 00 1c ac 67 cc                     | ......g.       |      [10]: "1985-03-30T20:00:12Z" (481060812) transition_time 0x2d1-0x2d9 (8)
0x2d0|                           00 00 00 00 1d 9c 58|         ......X|      [11]: "1985-09-28T20:00:13Z" (496785613) transition_time 0x2d9-0x2e1 (8)
0x2e0|cd                                             |.               |
0x2e0|   00 00 00 00 1e 8c 49 cd                     | ......I.       |      [12]: "1986-03-29T20:00:13Z" (512510413) transition_time 0x2e1-0x2e9 (8)
0x2e0|                           00 00 00 00 1f 7c 3a|         .....|:|      [13]: "1986-09-27T20:00:13Z" (528235213) transition_time 0x2e9-0x2f1 (8)
0x2f0|cd                                             |.               |
0x2f0|   00 00 00 00 20 6c 2b cd                     | .... l+.       |      [14]: "1987-03-28T20:00:13Z" (543960013) transition_time 0x2f1-0x2f9 (8)
0x2f0|                           00 00 00 00 21 5c 1c|         ....!\.|      [15]: "1987-09-26T20:00:13Z" (559684813) transition_time 0x2f9-0x301 (8)
0x300|cd                                             |.               |
0x300|   00 00 00 00 22 4c 0d ce                     | ...."L..       |      [16]: "1988-03-26T20:00:14Z" (575409614) transition_time 0x301-0x309 (8)
0x300|                           00 00 00 00 23 3b fe|         ....#;.|      [17]: "1988-09-24T20:00:14Z" (591134414) transition_time 0x309-0x311 (8)
0x310|ce                                             |.               |
0x310|   00 00 00 00 24 2b ef ce                     | ....$+..       |      [18]: "1989-03-25T20:00:14Z" (606859214) transition_time 0x311-0x319 (8)
0x310|                           00 00 00 00 25 1b e0|         ....%..|      [19]: "1989-09-23T20:00:14Z" (622584014) transition_time 0x319-0x321 (8)
0x320|ce                                             |.               |
0x320|   00 00 00 00 26 0b d1 cf                     | ....&...       |      [20]: "1990-03-24T20:00:15Z" (638308815) transition_time 0x321-0x329 (8)
0x320|                           00 00 00 00 27 04 fd|         ....'..|      [21]: "1990-09-29T20:00:15Z" (654638415) transition_time 0x329-0x331 (8)
0x330|4f                                             |O               |
0x330|   00 00 00 00 27 f4 ee 50                     | ....'..P       |      [22]: "1991-03-30T20:00:16Z" (670363216) transition_time 0x331-0x339 (8)
0x330|                           00 00 00 00 28 be a3|         ....(..|      [23]: "1991-08-30T20:00:16Z" (683582416) transition_time 0x339-0x341 (8)
0x340|d0                                             |.               |
0x340|   00 00 00 00 29 e7 37 40                     | ....).7@       |      [24]: "1992-04-11T19:00:16Z" (703018816) transition_time 0x341-0x349 (8)
0x340|                           00 00 00 00 2a c4 a5|         ....*..|      [25]: "1992-09-26T18:00:17Z" (717530417) transition_time 0x349-0x351 (8)
0x350|31                                             |1               |
0x350|   00 00 00 00 2b c7 19 41                     | ....+..A       |      [26]: "1993-04-10T19:00:17Z" (734468417) transition_time 0x351-0x359 (8)
0x350|                           00 00 00 00 2c a4 87|         ....,..|      [27]: "1993-09-25T18:00:18Z" (748980018) transition_time 0x359-0x361 (8)
0x360|32                                             |2               |
0x360|   00 00 00 00 2d a6 fb 42                     | ....-..B       |      [28]: "1994-04-09T19:00:18Z" (765918018) transition_time 0x361-0x369 (8)
0x360|                           00 00 00 00 2e 84 69|         ......i|      [29]: "1994-09-24T18:00:19Z" (780429619) transition_time 0x369-0x371 (8)
0x370|33                                             |3               |
0x370|   00 00 00 00 2f 86 dd 43                     | ..../..C       |      [30]: "1995-04-08T19:00:19Z" (797367619) transition_time 0x371-0x379 (8)
0x370|                           00 00 00 00 30 64 4b|         ....0dK|      [31]: "1995-09-23T18:00:19Z" (811879219) transition_time 0x379-0x381 (8)
0x380|33                                             |3               |
0x380|   00 00 00 00 31 66 bf 44                     | ....1f.D       |      [32]: "1996-04-06T19:00:20Z" (828817220) transition_time 0x381-0x389 (8)
0x380|                           00 00 00 00 32 4d 67|         ....2Mg|      [33]: "1996-09-28T18:00:20Z" (843933620) transition_time 0x389-0x391 (8)
0x390|b4                                             |.               |
0x390|   00 00 00 00 33 3d 89 ec                     | ....3=..       |      [34]: "1997-03-29T21:30:20Z" (859671020) transition_time 0x391-0x399 (8)
0x390|                           00 00 00 00 34 52 56|         ....4RV|      [35]: "1997-10-25T20:30:21Z" (877811421) transition_time 0x399-0x3a1 (8)
0x3a0|dd                                             |.               |
0x3a0|   00 00 00 00 35 1d 6b ed                     | ....5.k.       |      [36]: "1998-03-28T21:30:21Z" (891120621) transition_time 0x3a1-0x3a9 (8)
0x3a0|                           00 00 00 00 36 32 38|         ....628|      [37]: "1998-10-24T20:30:21Z" (909261021) transition_time 0x3a9-0x3b1 (8)
0x3b0|dd                                             |.               |
0x3b0|   00 00 00 00 36 fd 4d ee                     | ....6.M.       |      [38]: "1999-03-27T21:30:22Z" (922570222) transition_time 0x3b1-0x3b9 (8)
0x3b0|                           00 00 00 00 38 1b 55|         ....8.U|      [39]: "1999-10-30T20:30:22Z" (941315422) transition_time 0x3b9-0x3c1 (8)
0x3c0|5e                                             |^               |
0x3c0|   00 00 00 00 38 dd 2f ee                     | ....8./.       |      [40]: "2000-03-25T21:30:22Z" (954019822) transition_time 0x3c1-0x3c9 (8)
0x3c0|                           00 00 00 00 39 fb 37|         ....9.7|      [41]: "2000-10-28T20:30:22Z" (972765022) transition_time 0x3c9-0x3d1 (8)
0x3d0|5e                                             |^               |
0x3d0|   00 00 00 00 3a bd 11 ee                     | ....:...       |      [42]: "2001-03-24T21:30:22Z" (985469422) transition_time 0x3d1-0x3d9 (8)
0x3d0|                           00 00 00 00 3b db 19|         ....;..|      [43]: "2001-10-27T20:30:22Z" (1004214622) transition_time 0x3d9-0x3e1 (8)
0x3e0|5e                                             |^               |
0x3e0|   00 00 00 00 3c a6 2e 6e                     | ....<..n       |      [44]: "2002-03-30T21:30:22Z" (1017523822) transition_time 0x3e1-0x3e9 (8)
0x3e0|                           00 00 00 00 3d ba fb|         ....=..|      [45]: "2002-10-26T20:30:22Z" (1035664222) transition_time 0x3e9-0x3f1 (8)
0x3f0|5e                                             |^               |
0x3f0|   00 00 00 00 3e 86 10 6e                     | ....>..n       |      [46]: "2003-03-29T21:30:22Z" (1048973422) transition_time 0x3f1-0x3f9 (8)
0x3f0|                           00 00 00 00 3f 9a dd|         ....?..|      [47]: "2003-10-25T20:30:22Z" (1067113822) transition_time 0x3f9-0x401 (8)
0x400|5e                                             |^               |
0x400|   00 00 00 00 40 65 f2 6e                     | ....@e.n       |      [48]: "2004-03-27T21:30:22Z" (1080423022) transition_time 0x401-0x409 (8)
0x400|                           00 00 00 00 41 83 f9|         ....A..|      [49]: "2004-10-30T20:30:22Z" (1099168222) transition_time 0x409-0x411 (8)
0x410|de                                             |.               |
0x410|   00 00 00 00 42 45 d4 6e                     | ....BE.n       |      [50]: "2005-03-26T21:30:22Z" (1111872622) transition_time 0x411-0x419 (8)
0x410|                           00 00 00 00 42 fb 92|         ....B..|      [51]: "2005-08-11T18:00:22Z" (1123783222) transition_time 0x419-0x421 (8)
0x420|36                                             |6               |
0x420|   00 00 00 00 64 9b 78 1b                     | ....d.x.       |      [52]: "2023-06-28T00:00:27Z" (1687910427) transition_time 0x421-0x429 (8)
     |                                               |                |    transition_types[0:53]: 0x429-0x45e (53)
0x420|                           01                  |         .      |      [0]: 1 transition_type 0x429-0x42a (1)
0x420|                              03               |          .     |      [1]: 3 transition_type 0x42a-0x42b (1)
0x420|                                 02            |           .    |      [2]: 2 transition_type 0x42b-0x42c (1)
0x420|                                    03         |            .   |      [3]: 3 transition_type 0x42c-0x42d (1)
0x420|                                       02      |             .  |      [4]: 2 transition_type 0x42d-0x42e (1)
0x420|                                          03   |              . |      [5]: 3 transition_type 0x42e-0x42f (1)
0x420|                                             02|               .|      [6]: 2 transition_type 0x42f-0x430 (1)
0x430|03                                             |.               |      [7]: 3 transition_type 0x430-0x431 (1)
0x430|   02                                          | .              |      [8]: 2 transition_type 0x431-0x432 (1)
0x430|      04                                       |  .             |      [9]: 4 transition_type 0x432-0x433 (1)
0x430|         05                                    |   .            |      [10]: 5 transition_type 0x433-0x434 (1)
0x430|            04                                 |    .           |      [11]: 4 transition_type 0x434-0x435 (1)
0x430|               05                              |     .          |      [12]: 5 transition_type 0x435-0x436 (1)
0x430|                  04                           |      .         |      [13]: 4 transition_type 0x436-0x437 (1)
0x430|                     05                        |       .        |      [14]: 5 transition_type 0x437-0x438 (1)
0x430|                        04                     |        .       |      [15]: 4 transition_type 0x438-0x439 (1)
0x430|                           05                  |         .      |      [16]: 5 transition_type 0x439-0x43a (1)
0x430|                              04               |          .     |      [17]: 4 transition_type 0x43a-0x43b (1)
0x430|                                 05            |           .    |      [18]: 5 transition_type 0x43b-0x43c (1)
0x430|                                    04         |            .   |      [19]: 4 transition_type 0x43c-0x43d (1)
0x430|                                       05      |             .  |      [20]: 5 transition_type 0x43d-0x43e (1)
0x430|                                          04   |              . |      [21]: 4 transition_type 0x43e-0x43f (1)
0x430|                                             06|               .|      [22]: 6 transition_type 0x43f-0x440 (1)
0x440|01                                             |.               |      [23]: 1 transition_type 0x440-0x441 (1)
0x440|   06                                          | .              |      [24]: 6 transition_type 0x441-0x442 (1)
0x440|      01                                       |  .             |      [25]: 1 transition_type 0x442-0x443 (1)
0x440|         06                                    |   .            |      [26]: 6 transition_type 0x443-0x444 (1)
0x440|            01                                 |    .           |      [27]: 1 transition_type 0x444-0x445 (1)
0x440|               06                              |     .          |      [28]: 6 transition_type 0x445-0x446 (1)
0x440|                  01                           |      .         |      [29]: 1 transition_type 0x446-0x447 (1)
0x440|                     06                        |       .        |      [30]: 6 transition_type 0x447-0x448 (1)
0x440|                        01                     |        .       |      [31]: 1 transition_type 0x448-0x449 (1)
0x440|                           06                  |         .      |      [32]: 6 transition_type 0x449-0x44a (1)
0x440|                              01               |          .     |      [33]: 1 transition_type 0x44a-0x44b (1)
0x440|                                 07            |           .    |      [34]: 7 transition_type 0x44b-0x44c (1)
0x440|                                    01         |            .   |      [35]: 1 transition_type 0x44c-0x44d (1)
0x440|                                       07      |             .  |      [36]: 7 transition_type 0x44d-0x44e (1)
0x440|                                          01   |              . |      [37]: 1 transition_type 0x44e-0x44f (1)
0x440|                                             07|               .|      [38]: 7 transition_type 0x44f-0x450 (1)
0x450|01                                             |.               |      [39]: 1 transition_type 0x450-0x451 (1)
0x450|   07                                          | .              |      [40]: 7 transition_type 0x451-0x452 (1)
0x450|      01                                       |  .             |      [41]: 1 transition_type 0x452-0x453 (1)
0x450|         07                                    |   .            |      [42]: 7 transition_type 0x453-0x454 (1)
0x450|            01                                 |    .           |      [43]: 1 transition_type 0x454-0x455 (1)
0x450|               07                              |     .          |      [44]: 7 transition_type 0x455-0x456 (1)
0x450|                  01                           |      .         |      [45]: 1 transition_type 0x456-0x457 (1)
0x450|                     07                        |       .        |      [46]: 7 transition_type 0x457-0x458 (1)
0x450|                        01                     |        .       |      [47]: 1 transition_type 0x458-0x459 (1)
0x450|                           07                  |         .      |      [48]: 7 transition_type 0x459-0x45a (1)
0x450|                              01               |          .     |      [49]: 1 transition_type 0x45a-0x45b (1)
0x450|                                 07            |           .    |      [50]: 7 transition_type 0x45b-0x45c (1)
0x450|                                    03         |            .   |      [51]: 3 transition_type 0x45c-0x45d (1)
0x450|                                       03      |             .  |      [52]: 3 transition_type 0x45d-0x45e (1)
     |                                               |                |    local_time_type_records[0:8]: 0x45e-0x48e (48)
     |                                               |                |      [0]{}: local_time_type 0x45e-0x464 (6)
0x450|                                          00 00|              ..|        utoff: 17904 (valid) 0x45e-0x462 (4)
0x460|45 f0                                          |E.              |
0x460|      00                                       |  .             |        dst: 0 (valid) 0x462-0x463 (1)
0x460|         00                                    |   .            |        idx: 0 (valid) 0x463-0x464 (1)
     |                                               |                |      [1]{}: local_time_type 0x464-0x46a (6)
0x460|            00 00 46 50                        |    ..FP        |        utoff: 18000 (valid) 0x464-0x468 (4)
0x460|                        00                     |        .       |        dst: 0 (valid) 0x468-0x469 (1)
0x460|                           04                  |         .      |        idx: 4 (valid) 0x469-0x46a (1)
     |                                               |                |      [2]{}: local_time_type 0x46a-0x470 (6)
0x460|                              00 00 62 70      |          ..bp  |        utoff: 25200 (valid) 0x46a-0x46e (4)
0x460|                                          01   |              . |        dst: 1 (valid) 0x46e-0x46f (1)
0x460|                                             08|               .|        idx: 8 (valid) 0x46f-0x470 (1)
     |                                               |                |      [3]{}: local_time_type 0x470-0x476 (6)
0x470|00 00 54 60                                    |..T`            |        utoff: 21600 (valid) 0x470-0x474 (4)
0x470|            00                                 |    .           |        dst: 0 (valid) 0x474-0x475 (1)
0x470|               0c                              |     .          |        idx: 12 (valid) 0x475-0x476 (1)
     |                                               |                |      [4]{}: local_time_type 0x476-0x47c (6)
0x470|                  00 00 54 60                  |      ..T`      |        utoff: 21600 (valid) 0x476-0x47a (4)
0x470|                              00               |          .     |        dst: 0 (valid) 0x47a-0x47b (1)
0x470|                                 0c            |           .    |        idx: 12 (valid) 0x47b-0x47c (1)
     |                                               |                |      [5]{}: local_time_type 0x47c-0x482 (6)
0x470|                                    00 00 62 70|            ..bp|        utoff: 25200 (valid) 0x47c-0x480 (4)
0x480|01                                             |.               |        dst: 1 (valid) 0x480-0x481 (1)
0x480|   08                                          | .              |        idx: 8 (valid) 0x481-0x482 (1)
     |                                               |                |      [6]{}: local_time_type 0x482-0x488 (6)
0x480|      00 00 54 60                              |  ..T`          |        utoff: 21600 (valid) 0x482-0x486 (4)
0x480|                  01                           |      .         |        dst: 1 (valid) 0x486-0x487 (1)
0x480|                     0c                        |       .        |        idx: 12 (valid) 0x487-0x488 (1)
     |                                               |                |      [7]{}: local_time_type 0x488-0x48e (6)
0x480|                        00 00 54 60            |        ..T`    |        utoff: 21600 (valid) 0x488-0x48c (4)
0x480|                                    01         |            .   |        dst: 1 (valid) 0x48c-0x48d (1)
0x480|                                       0c      |             .  |        idx: 12 (valid) 0x48d-0x48e (1)
     |                                               |                |    time_zone_designations[0:4]: 0x48e-0x49e (16)
0x480|                                          4c 4d|              LM|      [0]: "LMT" time_zone_designation 0x48e-0x492 (4)
0x490|54 00                                          |T.              |
0x490|      2b 30 35 00                              |  +05.          |      [1]: "+05" time_zone_designation 0x492-0x496 (4)
0x490|                  2b 30 37 00                  |      +07.      |      [2]: "+07" time_zone_designation 0x496-0x49a (4)
0x490|                              2b 30 36 00      |          +06.  |      [3]: "+06" time_zone_designation 0x49a-0x49e (4)
     |                                               |                |    leap_second_records[0:27]: 0x49e-0x5e2 (324)
     |                                               |                |      [0]{}: leap_second_record 0x49e-0x4aa (12)
0x490|                                          00 00|              ..|        occur: "1972-07-01T00:00:00Z" (78796800) 0x49e-0x4a6 (8)
0x4a0|00 00 04 b2 58 00                              |....X.          |
0x4a0|                  00 00 00 01                  |      ....      |        corr: 1 0x4a6-0x4aa (4)
     |                                               |                |      [1]{}: leap_second_record 0x4aa-0x4b6 (12)
0x4a0|                              00 00 00 00 05 a4|          ......|        occur: "1973-01-01T00:00:01Z" (94694401) 0x4aa-0x4b2 (8)
0x4b0|ec 01                                          |..              |
0x4b0|      00 00 00 02                              |  ....          |        corr: 2 0x4b2-0x4b6 (4)
     |                                               |                |      [2]{}: leap_second_record 0x4b6-0x4c2 (12)
0x4b0|                  00 00 00 00 07 86 1f 82      |      ........  |        occur: "1974-01-01T00:00:02Z" (126230402) 0x4b6-0x4be (8)
0x4b0|                                          00 00|              ..|        corr: 3 0x4be-0x4c2 (4)
0x4c0|00 03                                          |..              |
     |                                               |                |      [3]{}: leap_second_record 0x4c2-0x4ce (12)
0x4c0|      00 00 00 00 09 67 53 03                  |  .....gS.      |        occur: "1975-01-01T00:00:03Z" (157766403) 0x4c2-0x4ca (8)
0x4c0|                              00 00 00 04      |          ....  |        corr: 4 0x4ca-0x4ce (4)
     |                                               |                |      [4]{}: leap_second_record 0x4ce-0x4da (12)
0x4c0|                                          00 00|              ..|        occur: "1976-01-01T00:00:04Z" (189302404) 0x4ce-0x4d6 (8)
0x4d0|00 00 0b 48 86 84                              |...H..          |
0x4d0|                  00 00 00 05                  |      ....      |        corr: 5 0x4d6-0x4da (4)
     |                                               |                |      [5]{}: leap_second_record 0x4da-0x4e6 (12)
0x4d0|                              00 00 00 00 0d 2b|          .....+|        occur: "1977-01-01T00:00:05Z" (220924805) 0x4da-0x4e2 (8)
0x4e0|0b 85                                          |..              |
0x4e0|      00 00 00 06                              |  ....          |        corr: 6 0x4e2-0x4e6 (4)
     |                                               |                |      [6]{}: leap_second_record 0x4e6-0x4f2 (12)
0x4e0|                  00 00 00 00 0f 0c 3f 06      |      ......?.  |        occur: "1978-01-01T00:00:06Z" (252460806) 0x4e6-0x4ee (8)
0x4e0|                                          00 00|              ..|        corr: 7 0x4ee-0x4f2 (4)
0x4f0|00 07                                          |..              |
     |                                               |                |      [7]{}: leap_second_record 0x4f2-0x4fe (12)
0x4f0|      00 00 00 00 10 ed 72 87                  |  ......r.      |        occur: "1979-01-01T00:00:07Z" (283996807) 0x4f2-0x4fa (8)
0x4f0|                              00 00 00 08      |          ....  |        corr: 8 0x4fa-0x4fe (4)
     |                                               |                |      [8]{}: leap_second_record 0x4fe-0x50a (12)
0x4f0|                                          00 00|              ..|        occur: "1980-01-01T00:00:08Z" (315532808) 0x4fe-0x506 (8)
0x500|00 00 12 ce a6 08                              |......          |
0x500|                  00 00 00 09                  |      ....      |        corr: 9 0x506-0x50a (4)
     |                                               |                |      [9]{}: leap_second_record 0x50a-0x516 (12)
0x500|                              00 00 00 00 15 9f|          ......|        occur: "1981-07-01T00:00:09Z" (362793609) 0x50a-0x512 (8)
0x510|ca 89                                          |..              |
0x510|      00 00 00 0a                              |  ....          |        corr: 10 0x512-0x516 (4)
     |                                               |                |      [10]{}: leap_second_record 0x516-0x522 (12)
0x510|                  00 00 00 00 17 80 fe 0a      |      ........  |        occur: "1982-07-01T00:00:10Z" (394329610) 0x516-0x51e (8)
0x510|                                          00 00|              ..|        corr: 11 0x51e-0x522 (4)
0x520|00 0b                                          |..              |
     |                                               |                |      [11]{}: leap_second_record 0x522-0x52e (12)
0x520|      00 00 00 00 19 62 31 8b                  |  .....b1.      |        occur: "1983-07-01T00:00:11Z" (425865611) 0x522-0x52a (8)
0x520|                              00 00 00 0c      |          ....  |        corr: 12 0x52a-0x52e (4)
     |                                               |                |      [12]{}: leap_second_record 0x52e-0x53a (12)
0x520|                                          00 00|              ..|        occur: "1985-07-01T00:00:12Z" (489024012) 0x52e-0x536 (8)
0x530|00 00 1d 25 ea 0c                              |...%..          |
0x530|                  00 00 00 0d                  |      ....      |        corr: 13 0x536-0x53a (4)
     |                                               |                |      [13]{}: leap_second_record 0x53a-0x546 (12)
0x530|                              00 00 00 00 21 da|          ....!.|        occur: "1988-01-01T00:00:13Z" (567993613) 0x53a-0x542 (8)
0x540|e5 0d                                          |..              |
0x540|      00 00 00 0e                              |  ....          |        corr: 14 0x542-0x546 (4)
     |                                               |                |      [14]{}: leap_second_record 0x546-0x552 (12)
0x540|                  00 00 00 00 25 9e 9d 8e      |      ....%...  |        occur: "1990-01-01T00:00:14Z" (631152014) 0x546-0x54e (8)
0x540|                                          00 00|              ..|        corr: 15 0x54e-0x552 (4)
0x550|00 0f                                          |..              |
     |                                               |                |      [15]{}: leap_second_record 0x552-0x55e (12)
0x550|      00 00 00 00 27 7f d1 0f                  |  ....'...      |        occur: "1991-01-01T00:00:15Z" (662688015) 0x552-0x55a (8)
0x550|                              00 00 00 10      |          ....  |        corr: 16 0x55a-0x55e (4)
     |                                               |                |      [16]{}: leap_second_record 0x55e-0x56a (12)
0x550|                                          00 00|              ..|        occur: "1992-07-01T00:00:16Z" (709948816) 0x55e-0x566 (8)
0x560|00 00 2a 50 f5 90                              |..*P..          |
0x560|                  00 00 00 11                  |      ....      |        corr: 17 0x566-0x56a (4)
     |                                               |                |      [17]{}: leap_second_record 0x56a-0x576 (12)
0x560|                              00 00 00 00 2c 32|          ....,2|        occur: "1993-07-01T00:00:17Z" (741484817) 0x56a-0x572 (8)
0x570|29 11                                          |).              |
0x570|      00 00 00 12                              |  ....          |        corr: 18 0x572-0x576 (4)
     |                                               |                |      [18]{}: leap_second_record 0x576-0x582 (12)
0x570|                  00 00 00 00 2e 13 5c 92      |      ......\.  |        occur: "1994-07-01T00:00:18Z" (773020818) 0x576-0x57e (8)
0x570|                                          00 00|              ..|        corr: 19 0x57e-0x582 (4)
0x580|00 13                                          |..              |
     |                                               |                |      [19]{}: leap_second_record 0x582-0x58e (12)
0x580|      00 00 00 00 30 e7 24 13                  |  ....0.$.      |        occur: "1996-01-01T00:00:19Z" (820454419) 0x582-0x58a (8)
0x580|                              00 00 00 14      |          ....  |        corr: 20 0x58a-0x58e (4)
     |                                               |                |      [20]{}: leap_second_record 0x58e-0x59a (12)
0x580|                                          00 00|              ..|        occur: "1997-07-01T00:00:20Z" (867715220) 0x58e-0x596 (8)
0x590|00 00 33 b8 48 94                              |..3.H.          |
0x590|                  00 00 00 15                  |      ....      |        corr: 21 0x596-0x59a (4)
     |                                               |                |      [21]{}: leap_second_record 0x59a-0x5a6 (12)
0x590|                              00 00 00 00 36 8c|          ....6.|        occur: "1999-01-01T00:00:21Z" (915148821) 0x59a-0x5a2 (8)
0x5a0|10 15                                          |..              |
0x5a0|      00 00 00 16                              |  ....          |        corr: 22 0x5a2-0x5a6 (4)
     |                                               |                |      [22]{}: leap_second_record 0x5a6-0x5b2 (12)
0x5a0|                  00 00 00 00 43 b7 1b 96      |      ....C...  |        occur: "2006-01-01T00:00:22Z" (1136073622) 0x5a6-0x5ae (8)
0x5a0|                                          00 00|              ..|        corr: 23 0x5ae-0x5b2 (4)
0x5b0|00 17                                          |..              |
     |                                               |                |      [23]{}: leap_second_record 0x5b2-0x5be (12)
0x5b0|      00 00 00 00 49 5c 07 97                  |  ....I\..      |        occur: "2009-01-01T00:00:23Z" (1230768023) 0x5b2-0x5ba (8)
0x5b0|                              00 00 00 18      |          ....  |        corr: 24 0x5ba-0x5be (4)
     |                                               |                |      [24]{}: leap_second_record 0x5be-0x5ca (12)
0x5b0|                                          00 00|              ..|        occur: "2012-07-01T00:00:24Z" (1341100824) 0x5be-0x5c6 (8)
0x5c0|00 00 4f ef 93 18                              |..O...          |
0x5c0|                  00 00 00 19                  |      ....      |        corr: 25 0x5c6-0x5ca (4)
     |                                               |                |      [25]{}: leap_second_record 0x5ca-0x5d6 (12)
0x5c0|                              00 00 00 00 55 93|          ....U.|        occur: "2015-07-01T00:00:25Z" (1435708825) 0x5ca-0x5d2 (8)
0x5d0|2d 99                                          |-.              |
0x5d0|      00 00 00 1a                              |  ....          |        corr: 26 0x5d2-0x5d6 (4)
     |                                               |                |      [26]{}: leap_second_record 0x5d6-0x5e2 (12)
0x5d0|                  00 00 00 00 58 68 46 9a      |      ....XhF.  |        occur: "2017-01-01T00:00:26Z" (1483228826) 0x5d6-0x5de (8)
0x5d0|                                          00 00|              ..|        corr: 27 0x5de-0x5e2 (4)
0x5e0|00 1b                                          |..              |
     |                                               |                |    standard_wall_indicators[0:8]: 0x5e2-0x5ea (8)
0x5e0|      00                                       |  .             |      [0]: 0 standard_wall_indicator (valid) 0x5e2-0x5e3 (1)
0x5e0|         00                                    |   .            |      [1]: 0 standard_wall_indicator (valid) 0x5e3-0x5e4 (1)
0x5e0|            00                                 |    .           |      [2]: 0 standard_wall_indicator (valid) 0x5e4-0x5e5 (1)
0x5e0|               00                              |     .          |      [3]: 0 standard_wall_indicator (valid) 0x5e5-0x5e6 (1)
0x5e0|                  01                           |      .         |      [4]: 1 standard_wall_indicator (valid) 0x5e6-0x5e7 (1)
0x5e0|                     01                        |       .        |      [5]: 1 standard_wall_indicator (valid) 0x5e7-0x5e8 (1)
0x5e0|                        01                     |        .       |      [6]: 1 standard_wall_indicator (valid) 0x5e8-0x5e9 (1)
0x5e0|                           00                  |         .      |      [7]: 0 standard_wall_indicator (valid) 0x5e9-0x5ea (1)
     |                                               |                |    ut_local_indicators[0:0]: 0x5ea-0x5ea (0)
     |                                               |                |  footer{}: 0x5ea-0x5ec (2)
0x5e0|                              0a               |          .     |    nl1: 10 (valid) 0x5ea-0x5eb (1)
     |                                               |                |    tz_string: "" 0x5eb-0x5eb (0)
0x5e0|                                 0a|           |           .|   |    nl2: 10 (valid) 0x5eb-0x5ec (1)
