$ fq -d tzif dv Bishkek
     |00 01 02 03 04 05 06 07 08 09 0a 0b 0c 0d 0e 0f|0123456789abcdef|.{}: Bishkek (tzif) 0x0-0x5eb.7 (1516)
     |                                               |                |  v1header{}: 0x0-0x2b.7 (44)
0x000|54 5a 69 66                                    |TZif            |    magic: 0x545a6966 (valid) 0x0-0x3.7 (4)
0x000|            32                                 |    2           |    ver: "2" (0x32) (valid) 0x4-0x4.7 (1)
0x000|               00 00 00 00 00 00 00 00 00 00 00|     ...........|    reserved: raw bits 0x5-0x13.7 (15)
0x010|00 00 00 00                                    |....            |
0x010|            00 00 00 00                        |    ....        |    isutcnt: 0 0x14-0x17.7 (4)
0x010|                        00 00 00 08            |        ....    |    isstdcnt: 8 0x18-0x1b.7 (4)
0x010|                                    00 00 00 1b|            ....|    leapcnt: 27 0x1c-0x1f.7 (4)
0x020|00 00 00 35                                    |...5            |    timecnt: 53 0x20-0x23.7 (4)
0x020|            00 00 00 08                        |    ....        |    typecnt: 8 0x24-0x27.7 (4)
0x020|                        00 00 00 10            |        ....    |    charcnt: 16 0x28-0x2b.7 (4)
     |                                               |                |  v1datablock{}: 0x2c-0x254.7 (553)
     |                                               |                |    transition_times[0:53]: 0x2c-0xff.7 (212)
0x020|                                    aa 19 7e 10|            ..~.|      [0]: "1924-05-01T19:01:36Z" (-1441169904) transition_time 0x2c-0x2f.7 (4)
0x030|b5 a3 ef 30                                    |...0            |      [1]: "1930-06-20T19:00:00Z" (-1247547600) transition_time 0x30-0x33.7 (4)
0x030|            15 27 7d a9                        |    .'}.        |      [2]: "1981-03-31T18:00:09Z" (354909609) transition_time 0x34-0x37.7 (4)
0x030|                        16 18 b2 1a            |        ....    |      [3]: "1981-09-30T17:00:10Z" (370717210) transition_time 0x38-0x3b.7 (4)
0x030|                                    17 08 b1 2a|            ...*|      [4]: "1982-03-31T18:00:10Z" (386445610) transition_time 0x3c-0x3f.7 (4)
0x040|17 f9 e5 9b                                    |....            |      [5]: "1982-09-30T17:00:11Z" (402253211) transition_time 0x40-0x43.7 (4)
0x040|            18 e9 e4 ab                        |    ....        |      [6]: "1983-03-31T18:00:11Z" (417981611) transition_time 0x44-0x47.7 (4)
0x040|                        19 db 19 1c            |        ....    |      [7]: "1983-09-30T17:00:12Z" (433789212) transition_time 0x48-0x4b.7 (4)
0x040|                                    1a cc 69 ac|            ..i.|      [8]: "1984-03-31T18:00:12Z" (449604012) transition_time 0x4c-0x4f.7 (4)
0x050|1b bc 76 cc                                    |..v.            |      [9]: "1984-09-29T20:00:12Z" (465336012) transition_time 0x50-0x53.7 (4)
0x050|            1c ac 67 cc                        |    ..g.        |      [10]: "1985-03-30T20:00:12Z" (481060812) transition_time 0x54-0x57.7 (4)
0x050|                        1d 9c 58 cd            |        ..X.    |      [11]: "1985-09-28T20:00:13Z" (496785613) transition_time 0x58-0x5b.7 (4)
0x050|                                    1e 8c 49 cd|            ..I.|      [12]: "1986-03-29T20:00:13Z" (512510413) transition_time 0x5c-0x5f.7 (4)
0x060|1f 7c 3a cd                                    |.|:.            |      [13]: "1986-09-27T20:00:13Z" (528235213) transition_time 0x60-0x63.7 (4)
0x060|            20 6c 2b cd                        |     l+.        |      [14]: "1987-03-28T20:00:13Z" (543960013) transition_time 0x64-0x67.7 (4)
0x060|                        21 5c 1c cd            |        !\..    |      [15]: "1987-09-26T20:00:13Z" (559684813) transition_time 0x68-0x6b.7 (4)
0x060|                                    22 4c 0d ce|            "L..|      [16]: "1988-03-26T20:00:14Z" (575409614) transition_time 0x6c-0x6f.7 (4)
0x070|23 3b fe ce                                    |#;..            |      [17]: "1988-09-24T20:00:14Z" (591134414) transition_time 0x70-0x73.7 (4)
0x070|            24 2b ef ce                        |    $+..        |      [18]: "1989-03-25T20:00:14Z" (606859214) transition_time 0x74-0x77.7 (4)
0x070|                        25 1b e0 ce            |        %...    |      [19]: "1989-09-23T20:00:14Z" (622584014) transition_time 0x78-0x7b.7 (4)
0x070|                                    26 0b d1 cf|            &...|      [20]: "1990-03-24T20:00:15Z" (638308815) transition_time 0x7c-0x7f.7 (4)
0x080|27 04 fd 4f                                    |'..O            |      [21]: "1990-09-29T20:00:15Z" (654638415) transition_time 0x80-0x83.7 (4)
0x080|            27 f4 ee 50                        |    '..P        |      [22]: "1991-03-30T20:00:16Z" (670363216) transition_time 0x84-0x87.7 (4)
0x080|                        28 be a3 d0            |        (...    |      [23]: "1991-08-30T20:00:16Z" (683582416) transition_time 0x88-0x8b.7 (4)
0x080|                                    29 e7 37 40|            ).7@|      [24]: "1992-04-11T19:00:16Z" (703018816) transition_time 0x8c-0x8f.7 (4)
0x090|2a c4 a5 31                                    |*..1            |      [25]: "1992-09-26T18:00:17Z" (717530417) transition_time 0x90-0x93.7 (4)
0x090|            2b c7 19 41                        |    +..A        |      [26]: "1993-04-10T19:00:17Z" (734468417) transition_time 0x94-0x97.7 (4)
0x090|                        2c a4 87 32            |        ,..2    |      [27]: "1993-09-25T18:00:18Z" (748980018) transition_time 0x98-0x9b.7 (4)
0x090|                                    2d a6 fb 42|            -..B|      [28]: "1994-04-09T19:00:18Z" (765918018) transition_time 0x9c-0x9f.7 (4)
0x0a0|2e 84 69 33                                    |..i3            |      [29]: "1994-09-24T18:00:19Z" (780429619) transition_time 0xa0-0xa3.7 (4)
0x0a0|            2f 86 dd 43                        |    /..C        |      [30]: "1995-04-08T19:00:19Z" (797367619) transition_time 0xa4-0xa7.7 (4)
0x0a0|                        30 64 4b 33            |        0dK3    |      [31]: "1995-09-23T18:00:19Z" (811879219) transition_time 0xa8-0xab.7 (4)
0x0a0|                                    31 66 bf 44|            1f.D|      [32]: "1996-04-06T19:00:20Z" (828817220) transition_time 0xac-0xaf.7 (4)
0x0b0|32 4d 67 b4                                    |2Mg.            |      [33]: "1996-09-28T18:00:20Z" (843933620) transition_time 0xb0-0xb3.7 (4)
0x0b0|            33 3d 89 ec                        |    3=..        |      [34]: "1997-03-29T21:30:20Z" (859671020) transition_time 0xb4-0xb7.7 (4)
0x0b0|                        34 52 56 dd            |        4RV.    |      [35]: "1997-10-25T20:30:21Z" (877811421) transition_time 0xb8-0xbb.7 (4)
0x0b0|                                    35 1d 6b ed|            5.k.|      [36]: "1998-03-28T21:30:21Z" (891120621) transition_time 0xbc-0xbf.7 (4)
0x0c0|36 32 38 dd                                    |628.            |      [37]: "1998-10-24T20:30:21Z" (909261021) transition_time 0xc0-0xc3.7 (4)
0x0c0|            36 fd 4d ee                        |    6.M.        |      [38]: "1999-03-27T21:30:22Z" (922570222) transition_time 0xc4-0xc7.7 (4)
0x0c0|                        38 1b 55 5e            |        8.U^    |      [39]: "1999-10-30T20:30:22Z" (941315422) transition_time 0xc8-0xcb.7 (4)
0x0c0|                                    38 dd 2f ee|            8./.|      [40]: "2000-03-25T21:30:22Z" (954019822) transition_time 0xcc-0xcf.7 (4)
0x0d0|39 fb 37 5e                                    |9.7^            |      [41]: "2000-10-28T20:30:22Z" (972765022) transition_time 0xd0-0xd3.7 (4)
0x0d0|            3a bd 11 ee                        |    :...        |      [42]: "2001-03-24T21:30:22Z" (985469422) transition_time 0xd4-0xd7.7 (4)
0x0d0|                        3b db 19 5e            |        ;..^    |      [43]: "2001-10-27T20:30:22Z" (1004214622) transition_time 0xd8-0xdb.7 (4)
0x0d0|                                    3c a6 2e 6e|            <..n|      [44]: "2002-03-30T21:30:22Z" (1017523822) transition_time 0xdc-0xdf.7 (4)
0x0e0|3d ba fb 5e                                    |=..^            |      [45]: "2002-10-26T20:30:22Z" (1035664222) transition_time 0xe0-0xe3.7 (4)
0x0e0|            3e 86 10 6e                        |    >..n        |      [46]: "2003-03-29T21:30:22Z" (1048973422) transition_time 0xe4-0xe7.7 (4)
0x0e0|                        3f 9a dd 5e            |        ?..^    |      [47]: "2003-10-25T20:30:22Z" (1067113822) transition_time 0xe8-0xeb.7 (4)
0x0e0|                                    40 65 f2 6e|            @e.n|      [48]: "2004-03-27T21:30:22Z" (1080423022) transition_time 0xec-0xef.7 (4)
0x0f0|41 83 f9 de                                    |A...            |      [49]: "2004-10-30T20:30:22Z" (1099168222) transition_time 0xf0-0xf3.7 (4)
0x0f0|            42 45 d4 6e                        |    BE.n        |      [50]: "2005-03-26T21:30:22Z" (1111872622) transition_time 0xf4-0xf7.7 (4)
0x0f0|                        42 fb 92 36            |        B..6    |      [51]: "2005-08-11T18:00:22Z" (1123783222) transition_time 0xf8-0xfb.7 (4)
0x0f0|                                    64 9b 78 1b|            d.x.|      [52]: "2023-06-28T00:00:27Z" (1687910427) transition_time 0xfc-0xff.7 (4)
     |                                               |                |    transition_types[0:53]: 0x100-0x134.7 (53)
0x100|01                                             |.               |      [0]: 1 transition_type 0x100-0x100.7 (1)
0x100|   03                                          | .              |      [1]: 3 transition_type 0x101-0x101.7 (1)
0x100|      02                                       |  .             |      [2]: 2 transition_type 0x102-0x102.7 (1)
0x100|         03                                    |   .            |      [3]: 3 transition_type 0x103-0x103.7 (1)
0x100|            02                                 |    .           |      [4]: 2 transition_type 0x104-0x104.7 (1)
0x100|               03                              |     .          |      [5]: 3 transition_type 0x105-0x105.7 (1)
0x100|                  02                           |      .         |      [6]: 2 transition_type 0x106-0x106.7 (1)
0x100|                     03                        |       .        |      [7]: 3 transition_type 0x107-0x107.7 (1)
0x100|                        02                     |        .       |      [8]: 2 transition_type 0x108-0x108.7 (1)
0x100|                           04                  |         .      |      [9]: 4 transition_type 0x109-0x109.7 (1)
0x100|                              05               |          .     |      [10]: 5 transition_type 0x10a-0x10a.7 (1)
0x100|                                 04            |           .    |      [11]: 4 transition_type 0x10b-0x10b.7 (1)
0x100|                                    05         |            .   |      [12]: 5 transition_type 0x10c-0x10c.7 (1)
0x100|                                       04      |             .  |      [13]: 4 transition_type 0x10d-0x10d.7 (1)
0x100|                                          05   |              . |      [14]: 5 transition_type 0x10e-0x10e.7 (1)
0x100|                                             04|               .|      [15]: 4 transition_type 0x10f-0x10f.7 (1)
0x110|05                                             |.               |      [16]: 5 transition_type 0x110-0x110.7 (1)
0x110|   04                                          | .              |      [17]: 4 transition_type 0x111-0x111.7 (1)
0x110|      05                                       |  .             |      [18]: 5 transition_type 0x112-0x112.7 (1)
0x110|         04                                    |   .            |      [19]: 4 transition_type 0x113-0x113.7 (1)
0x110|            05                                 |    .           |      [20]: 5 transition_type 0x114-0x114.7 (1)
0x110|               04                              |     .          |      [21]: 4 transition_type 0x115-0x115.7 (1)
0x110|                  06                           |      .         |      [22]: 6 transition_type 0x116-0x116.7 (1)
0x110|                     01                        |       .        |      [23]: 1 transition_type 0x117-0x117.7 (1)
0x110|                        06                     |        .       |      [24]: 6 transition_type 0x118-0x118.7 (1)
0x110|                           01                  |         .      |      [25]: 1 transition_type 0x119-0x119.7 (1)
0x110|                              06               |          .     |      [26]: 6 transition_type 0x11a-0x11a.7 (1)
0x110|                                 01            |           .    |      [27]: 1 transition_type 0x11b-0x11b.7 (1)
0x110|                                    06         |            .   |      [28]: 6 transition_type 0x11c-0x11c.7 (1)
0x110|                                       01      |             .  |      [29]: 1 transition_type 0x11d-0x11d.7 (1)
0x110|                                          06   |              . |      [30]: 6 transition_type 0x11e-0x11e.7 (1)
0x110|                                             01|               .|      [31]: 1 transition_type 0x11f-0x11f.7 (1)
0x120|06                                             |.               |      [32]: 6 transition_type 0x120-0x120.7 (1)
0x120|   01                                          | .              |      [33]: 1 transition_type 0x121-0x121.7 (1)
0x120|      07                                       |  .             |      [34]: 7 transition_type 0x122-0x122.7 (1)
0x120|         01                                    |   .            |      [35]: 1 transition_type 0x123-0x123.7 (1)
0x120|            07                                 |    .           |      [36]: 7 transition_type 0x124-0x124.7 (1)
0x120|               01                              |     .          |      [37]: 1 transition_type 0x125-0x125.7 (1)
0x120|                  07                           |      .         |      [38]: 7 transition_type 0x126-0x126.7 (1)
0x120|                     01                        |       .        |      [39]: 1 transition_type 0x127-0x127.7 (1)
0x120|                        07                     |        .       |      [40]: 7 transition_type 0x128-0x128.7 (1)
0x120|                           01                  |         .      |      [41]: 1 transition_type 0x129-0x129.7 (1)
0x120|                              07               |          .     |      [42]: 7 transition_type 0x12a-0x12a.7 (1)
0x120|                                 01            |           .    |      [43]: 1 transition_type 0x12b-0x12b.7 (1)
0x120|                                    07         |            .   |      [44]: 7 transition_type 0x12c-0x12c.7 (1)
0x120|                                       01      |             .  |      [45]: 1 transition_type 0x12d-0x12d.7 (1)
0x120|                                          07   |              . |      [46]: 7 transition_type 0x12e-0x12e.7 (1)
0x120|                                             01|               .|      [47]: 1 transition_type 0x12f-0x12f.7 (1)
0x130|07                                             |.               |      [48]: 7 transition_type 0x130-0x130.7 (1)
0x130|   01                                          | .              |      [49]: 1 transition_type 0x131-0x131.7 (1)
0x130|      07                                       |  .             |      [50]: 7 transition_type 0x132-0x132.7 (1)
0x130|         03                                    |   .            |      [51]: 3 transition_type 0x133-0x133.7 (1)
0x130|            03                                 |    .           |      [52]: 3 transition_type 0x134-0x134.7 (1)
     |                                               |                |    local_time_type_records[0:8]: 0x135-0x164.7 (48)
     |                                               |                |      [0]{}: local_time_type 0x135-0x13a.7 (6)
0x130|               00 00 45 f0                     |     ..E.       |        utoff: 17904 (valid) 0x135-0x138.7 (4)
0x130|                           00                  |         .      |        dst: 0 (valid) 0x139-0x139.7 (1)
0x130|                              00               |          .     |        idx: 0 (valid) 0x13a-0x13a.7 (1)
     |                                               |                |      [1]{}: local_time_type 0x13b-0x140.7 (6)
0x130|                                 00 00 46 50   |           ..FP |        utoff: 18000 (valid) 0x13b-0x13e.7 (4)
0x130|                                             00|               .|        dst: 0 (valid) 0x13f-0x13f.7 (1)
0x140|04                                             |.               |        idx: 4 (valid) 0x140-0x140.7 (1)
     |                                               |                |      [2]{}: local_time_type 0x141-0x146.7 (6)
0x140|   00 00 62 70                                 | ..bp           |        utoff: 25200 (valid) 0x141-0x144.7 (4)
0x140|               01                              |     .          |        dst: 1 (valid) 0x145-0x145.7 (1)
0x140|                  08                           |      .         |        idx: 8 (valid) 0x146-0x146.7 (1)
     |                                               |                |      [3]{}: local_time_type 0x147-0x14c.7 (6)
0x140|                     00 00 54 60               |       ..T`     |        utoff: 21600 (valid) 0x147-0x14a.7 (4)
0x140|                                 00            |           .    |        dst: 0 (valid) 0x14b-0x14b.7 (1)
0x140|                                    0c         |            .   |        idx: 12 (valid) 0x14c-0x14c.7 (1)
     |                                               |                |      [4]{}: local_time_type 0x14d-0x152.7 (6)
0x140|                                       00 00 54|             ..T|        utoff: 21600 (valid) 0x14d-0x150.7 (4)
0x150|60                                             |`               |
0x150|   00                                          | .              |        dst: 0 (valid) 0x151-0x151.7 (1)
0x150|      0c                                       |  .             |        idx: 12 (valid) 0x152-0x152.7 (1)
     |                                               |                |      [5]{}: local_time_type 0x153-0x158.7 (6)
0x150|         00 00 62 70                           |   ..bp         |        utoff: 25200 (valid) 0x153-0x156.7 (4)
0x150|                     01                        |       .        |        dst: 1 (valid) 0x157-0x157.7 (1)
0x150|                        08                     |        .       |        idx: 8 (valid) 0x158-0x158.7 (1)
     |                                               |                |      [6]{}: local_time_type 0x159-0x15e.7 (6)
0x150|                           00 00 54 60         |         ..T`   |        utoff: 21600 (valid) 0x159-0x15c.7 (4)
0x150|                                       01      |             .  |        dst: 1 (valid) 0x15d-0x15d.7 (1)
0x150|                                          0c   |              . |        idx: 12 (valid) 0x15e-0x15e.7 (1)
     |                                               |                |      [7]{}: local_time_type 0x15f-0x164.7 (6)
0x150|                                             00|               .|        utoff: 21600 (valid) 0x15f-0x162.7 (4)
0x160|00 54 60                                       |.T`             |
0x160|         01                                    |   .            |        dst: 1 (valid) 0x163-0x163.7 (1)
0x160|            0c                                 |    .           |        idx: 12 (valid) 0x164-0x164.7 (1)
     |                                               |                |    time_zone_designations[0:4]: 0x165-0x174.7 (16)
0x160|               4c 4d 54 00                     |     LMT.       |      [0]: "LMT" time_zone_designation 0x165-0x168.7 (4)
0x160|                           2b 30 35 00         |         +05.   |      [1]: "+05" time_zone_designation 0x169-0x16c.7 (4)
0x160|                                       2b 30 37|             +07|      [2]: "+07" time_zone_designation 0x16d-0x170.7 (4)
0x170|00                                             |.               |
0x170|   2b 30 36 00                                 | +06.           |      [3]: "+06" time_zone_designation 0x171-0x174.7 (4)
     |                                               |                |    leap_second_records[0:27]: 0x175-0x24c.7 (216)
     |                                               |                |      [0]{}: leap_second_record 0x175-0x17c.7 (8)
0x170|               04 b2 58 00                     |     ..X.       |        occur: "1972-07-01T00:00:00Z" (78796800) 0x175-0x178.7 (4)
0x170|                           00 00 00 01         |         ....   |        corr: 1 0x179-0x17c.7 (4)
     |                                               |                |      [1]{}: leap_second_record 0x17d-0x184.7 (8)
0x170|                                       05 a4 ec|             ...|        occur: "1973-01-01T00:00:01Z" (94694401) 0x17d-0x180.7 (4)
0x180|01                                             |.               |
0x180|   00 00 00 02                                 | ....           |        corr: 2 0x181-0x184.7 (4)
     |                                               |                |      [2]{}: leap_second_record 0x185-0x18c.7 (8)
0x180|               07 86 1f 82                     |     ....       |        occur: "1974-01-01T00:00:02Z" (126230402) 0x185-0x188.7 (4)
0x180|                           00 00 00 03         |         ....   |        corr: 3 0x189-0x18c.7 (4)
     |                                               |                |      [3]{}: leap_second_record 0x18d-0x194.7 (8)
0x180|                                       09 67 53|             .gS|        occur: "1975-01-01T00:00:03Z" (157766403) 0x18d-0x190.7 (4)
0x190|03                                             |.               |
0x190|   00 00 00 04                                 | ....           |        corr: 4 0x191-0x194.7 (4)
     |                                               |                |      [4]{}: leap_second_record 0x195-0x19c.7 (8)
0x190|               0b 48 86 84                     |     .H..       |        occur: "1976-01-01T00:00:04Z" (189302404) 0x195-0x198.7 (4)
0x190|                           00 00 00 05         |         ....   |        corr: 5 0x199-0x19c.7 (4)
     |                                               |                |      [5]{}: leap_second_record 0x19d-0x1a4.7 (8)
0x190|                                       0d 2b 0b|             .+.|        occur: "1977-01-01T00:00:05Z" (220924805) 0x19d-0x1a0.7 (4)
0x1a0|85                                             |.               |
0x1a0|   00 00 00 06                                 | ....           |        corr: 6 0x1a1-0x1a4.7 (4)
     |                                               |                |      [6]{}: leap_second_record 0x1a5-0x1ac.7 (8)
0x1a0|               0f 0c 3f 06                     |     ..?.       |        occur: "1978-01-01T00:00:06Z" (252460806) 0x1a5-0x1a8.7 (4)
0x1a0|                           00 00 00 07         |         ....   |        corr: 7 0x1a9-0x1ac.7 (4)
     |                                               |                |      [7]{}: leap_second_record 0x1ad-0x1b4.7 (8)
0x1a0|                                       10 ed 72|             ..r|        occur: "1979-01-01T00:00:07Z" (283996807) 0x1ad-0x1b0.7 (4)
0x1b0|87                                             |.               |
0x1b0|   00 00 00 08                                 | ....           |        corr: 8 0x1b1-0x1b4.7 (4)
     |                                               |                |      [8]{}: leap_second_record 0x1b5-0x1bc.7 (8)
0x1b0|               12 ce a6 08                     |     ....       |        occur: "1980-01-01T00:00:08Z" (315532808) 0x1b5-0x1b8.7 (4)
0x1b0|                           00 00 00 09         |         ....   |        corr: 9 0x1b9-0x1bc.7 (4)
     |                                               |                |      [9]{}: leap_second_record 0x1bd-0x1c4.7 (8)
0x1b0|                                       15 9f ca|             ...|        occur: "1981-07-01T00:00:09Z" (362793609) 0x1bd-0x1c0.7 (4)
0x1c0|89                                             |.               |
0x1c0|   00 00 00 0a                                 | ....           |        corr: 10 0x1c1-0x1c4.7 (4)
     |                                               |                |      [10]{}: leap_second_record 0x1c5-0x1cc.7 (8)
0x1c0|               17 80 fe 0a                     |     ....       |        occur: "1982-07-01T00:00:10Z" (394329610) 0x1c5-0x1c8.7 (4)
0x1c0|                           00 00 00 0b         |         ....   |        corr: 11 0x1c9-0x1cc.7 (4)
     |                                               |                |      [11]{}: leap_second_record 0x1cd-0x1d4.7 (8)
0x1c0|                                       19 62 31|             .b1|        occur: "1983-07-01T00:00:11Z" (425865611) 0x1cd-0x1d0.7 (4)
0x1d0|8b                                             |.               |
0x1d0|   00 00 00 0c                                 | ....           |        corr: 12 0x1d1-0x1d4.7 (4)
     |                                               |                |      [12]{}: leap_second_record 0x1d5-0x1dc.7 (8)
0x1d0|               1d 25 ea 0c                     |     .%..       |        occur: "1985-07-01T00:00:12Z" (489024012) 0x1d5-0x1d8.7 (4)
0x1d0|                           00 00 00 0d         |         ....   |        corr: 13 0x1d9-0x1dc.7 (4)
     |                                               |                |      [13]{}: leap_second_record 0x1dd-0x1e4.7 (8)
0x1d0|                                       21 da e5|             !..|        occur: "1988-01-01T00:00:13Z" (567993613) 0x1dd-0x1e0.7 (4)
0x1e0|0d                                             |.               |
0x1e0|   00 00 00 0e                                 | ....           |        corr: 14 0x1e1-0x1e4.7 (4)
     |                                               |                |      [14]{}: leap_second_record 0x1e5-0x1ec.7 (8)
0x1e0|               25 9e 9d 8e                     |     %...       |        occur: "1990-01-01T00:00:14Z" (631152014) 0x1e5-0x1e8.7 (4)
0x1e0|                           00 00 00 0f         |         ....   |        corr: 15 0x1e9-0x1ec.7 (4)
     |                                               |                |      [15]{}: leap_second_record 0x1ed-0x1f4.7 (8)
0x1e0|                                       27 7f d1|             '..|        occur: "1991-01-01T00:00:15Z" (662688015) 0x1ed-0x1f0.7 (4)
0x1f0|0f                                             |.               |
0x1f0|   00 00 00 10                                 | ....           |        corr: 16 0x1f1-0x1f4.7 (4)
     |                                               |                |      [16]{}: leap_second_record 0x1f5-0x1fc.7 (8)
0x1f0|               2a 50 f5 90                     |     *P..       |        occur: "1992-07-01T00:00:16Z" (709948816) 0x1f5-0x1f8.7 (4)
0x1f0|                           00 00 00 11         |         ....   |        corr: 17 0x1f9-0x1fc.7 (4)
     |                                               |                |      [17]{}: leap_second_record 0x1fd-0x204.7 (8)
0x1f0|                                       2c 32 29|             ,2)|        occur: "1993-07-01T00:00:17Z" (741484817) 0x1fd-0x200.7 (4)
0x200|11                                             |.               |
0x200|   00 00 00 12                                 | ....           |        corr: 18 0x201-0x204.7 (4)
     |                                               |                |      [18]{}: leap_second_record 0x205-0x20c.7 (8)
0x200|               2e 13 5c 92                     |     ..\.       |        occur: "1994-07-01T00:00:18Z" (773020818) 0x205-0x208.7 (4)
0x200|                           00 00 00 13         |         ....   |        corr: 19 0x209-0x20c.7 (4)
     |                                               |                |      [19]{}: leap_second_record 0x20d-0x214.7 (8)
0x200|                                       30 e7 24|             0.$|        occur: "1996-01-01T00:00:19Z" (820454419) 0x20d-0x210.7 (4)
0x210|13                                             |.               |
0x210|   00 00 00 14                                 | ....           |        corr: 20 0x211-0x214.7 (4)
     |                                               |                |      [20]{}: leap_second_record 0x215-0x21c.7 (8)
0x210|               33 b8 48 94                     |     3.H.       |        occur: "1997-07-01T00:00:20Z" (867715220) 0x215-0x218.7 (4)
0x210|                           00 00 00 15         |         ....   |        corr: 21 0x219-0x21c.7 (4)
     |                                               |                |      [21]{}: leap_second_record 0x21d-0x224.7 (8)
0x210|                                       36 8c 10|             6..|        occur: "1999-01-01T00:00:21Z" (915148821) 0x21d-0x220.7 (4)
0x220|15                                             |.               |
0x220|   00 00 00 16                                 | ....           |        corr: 22 0x221-0x224.7 (4)
     |                                               |                |      [22]{}: leap_second_record 0x225-0x22c.7 (8)
0x220|               43 b7 1b 96                     |     C...       |        occur: "2006-01-01T00:00:22Z" (1136073622) 0x225-0x228.7 (4)
0x220|                           00 00 00 17         |         ....   |        corr: 23 0x229-0x22c.7 (4)
     |                                               |                |      [23]{}: leap_second_record 0x22d-0x234.7 (8)
0x220|                                       49 5c 07|             I\.|        occur: "2009-01-01T00:00:23Z" (1230768023) 0x22d-0x230.7 (4)
0x230|97                                             |.               |
0x230|   00 00 00 18                                 | ....           |        corr: 24 0x231-0x234.7 (4)
     |                                               |                |      [24]{}: leap_second_record 0x235-0x23c.7 (8)
0x230|               4f ef 93 18                     |     O...       |        occur: "2012-07-01T00:00:24Z" (1341100824) 0x235-0x238.7 (4)
0x230|                           00 00 00 19         |         ....   |        corr: 25 0x239-0x23c.7 (4)
     |                                               |                |      [25]{}: leap_second_record 0x23d-0x244.7 (8)
0x230|                                       55 93 2d|             U.-|        occur: "2015-07-01T00:00:25Z" (1435708825) 0x23d-0x240.7 (4)
0x240|99                                             |.               |
0x240|   00 00 00 1a                                 | ....           |        corr: 26 0x241-0x244.7 (4)
     |                                               |                |      [26]{}: leap_second_record 0x245-0x24c.7 (8)
0x240|               58 68 46 9a                     |     XhF.       |        occur: "2017-01-01T00:00:26Z" (1483228826) 0x245-0x248.7 (4)
0x240|                           00 00 00 1b         |         ....   |        corr: 27 0x249-0x24c.7 (4)
     |                                               |                |    standard_wall_indicators[0:8]: 0x24d-0x254.7 (8)
0x240|                                       00      |             .  |      [0]: 0 standard_wall_indicator (valid) 0x24d-0x24d.7 (1)
0x240|                                          00   |              . |      [1]: 0 standard_wall_indicator (valid) 0x24e-0x24e.7 (1)
0x240|                                             00|               .|      [2]: 0 standard_wall_indicator (valid) 0x24f-0x24f.7 (1)
0x250|00                                             |.               |      [3]: 0 standard_wall_indicator (valid) 0x250-0x250.7 (1)
0x250|   01                                          | .              |      [4]: 1 standard_wall_indicator (valid) 0x251-0x251.7 (1)
0x250|      01                                       |  .             |      [5]: 1 standard_wall_indicator (valid) 0x252-0x252.7 (1)
0x250|         01                                    |   .            |      [6]: 1 standard_wall_indicator (valid) 0x253-0x253.7 (1)
0x250|            00                                 |    .           |      [7]: 0 standard_wall_indicator (valid) 0x254-0x254.7 (1)
     |                                               |                |    ut_local_indicators[0:0]: 0x255-NA (0)
     |                                               |                |  v2plusheader{}: 0x255-0x280.7 (44)
0x250|               54 5a 69 66                     |     TZif       |    magic: 0x545a6966 (valid) 0x255-0x258.7 (4)
0x250|                           32                  |         2      |    ver: "2" (0x32) (valid) 0x259-0x259.7 (1)
0x250|                              00 00 00 00 00 00|          ......|    reserved: raw bits 0x25a-0x268.7 (15)
0x260|00 00 00 00 00 00 00 00 00                     |.........       |
0x260|                           00 00 00 00         |         ....   |    isutcnt: 0 0x269-0x26c.7 (4)
0x260|                                       00 00 00|             ...|    isstdcnt: 8 0x26d-0x270.7 (4)
0x270|08                                             |.               |
0x270|   00 00 00 1b                                 | ....           |    leapcnt: 27 0x271-0x274.7 (4)
0x270|               00 00 00 35                     |     ...5       |    timecnt: 53 0x275-0x278.7 (4)
0x270|                           00 00 00 08         |         ....   |    typecnt: 8 0x279-0x27c.7 (4)
0x270|                                       00 00 00|             ...|    charcnt: 16 0x27d-0x280.7 (4)
0x280|10                                             |.               |
     |                                               |                |  v2plusdatablock{}: 0x281-0x5e9.7 (873)
     |                                               |                |    transition_times[0:53]: 0x281-0x428.7 (424)
0x280|   ff ff ff ff aa 19 7e 10                     | ......~.       |      [0]: "1924-05-01T19:01:36Z" (-1441169904) transition_time 0x281-0x288.7 (8)
0x280|                           ff ff ff ff b5 a3 ef|         .......|      [1]: "1930-06-20T19:00:00Z" (-1247547600) transition_time 0x289-0x290.7 (8)
0x290|30                                             |0               |
0x290|   00 00 00 00 15 27 7d a9                     | .....'}.       |      [2]: "1981-03-31T18:00:09Z" (354909609) transition_time 0x291-0x298.7 (8)
0x290|                           00 00 00 00 16 18 b2|         .......|      [3]: "1981-09-30T17:00:10Z" (370717210) transition_time 0x299-0x2a0.7 (8)
0x2a0|1a                                             |.               |
0x2a0|   00 00 00 00 17 08 b1 2a                     | .......*       |      [4]: "1982-03-31T18:00:10Z" (386445610) transition_time 0x2a1-0x2a8.7 (8)
0x2a0|                           00 00 00 00 17 f9 e5|         .......|      [5]: "1982-09-30T17:00:11Z" (402253211) transition_time 0x2a9-0x2b0.7 (8)
0x2b0|9b                                             |.               |
0x2b0|   00 00 00 00 18 e9 e4 ab                     | ........       |      [6]: "1983-03-31T18:00:11Z" (417981611) transition_time 0x2b1-0x2b8.7 (8)
0x2b0|                           00 00 00 00 19 db 19|         .......|      [7]: "1983-09-30T17:00:12Z" (433789212) transition_time 0x2b9-0x2c0.7 (8)
0x2c0|1c                                             |.               |
0x2c0|   00 00 00 00 1a cc 69 ac                     | ......i.       |      [8]: "1984-03-31T18:00:12Z" (449604012) transition_time 0x2c1-0x2c8.7 (8)
0x2c0|                           00 00 00 00 1b bc 76|         ......v|      [9]: "1984-09-29T20:00:12Z" (465336012) transition_time 0x2c9-0x2d0.7 (8)
0x2d0|cc                                             |.               |
0x2d0|   00 00 00 00 1c ac 67 cc                     | ......g.       |      [10]: "1985-03-30T20:00:12Z" (481060812) transition_time 0x2d1-0x2d8.7 (8)
0x2d0|                           00 00 00 00 1d 9c 58|         ......X|      [11]: "1985-09-28T20:00:13Z" (496785613) transition_time 0x2d9-0x2e0.7 (8)
0x2e0|cd                                             |.               |
0x2e0|   00 00 00 00 1e 8c 49 cd                     | ......I.       |      [12]: "1986-03-29T20:00:13Z" (512510413) transition_time 0x2e1-0x2e8.7 (8)
0x2e0|                           00 00 00 00 1f 7c 3a|         .....|:|      [13]: "1986-09-27T20:00:13Z" (528235213) transition_time 0x2e9-0x2f0.7 (8)
0x2f0|cd                                             |.               |
0x2f0|   00 00 00 00 20 6c 2b cd                     | .... l+.       |      [14]: "1987-03-28T20:00:13Z" (543960013) transition_time 0x2f1-0x2f8.7 (8)
0x2f0|                           00 00 00 00 21 5c 1c|         ....!\.|      [15]: "1987-09-26T20:00:13Z" (559684813) transition_time 0x2f9-0x300.7 (8)
0x300|cd                                             |.               |
0x300|   00 00 00 00 22 4c 0d ce                     | ...."L..       |      [16]: "1988-03-26T20:00:14Z" (575409614) transition_time 0x301-0x308.7 (8)
0x300|                           00 00 00 00 23 3b fe|         ....#;.|      [17]: "1988-09-24T20:00:14Z" (591134414) transition_time 0x309-0x310.7 (8)
0x310|ce                                             |.               |
0x310|   00 00 00 00 24 2b ef ce                     | ....$+..       |      [18]: "1989-03-25T20:00:14Z" (606859214) transition_time 0x311-0x318.7 (8)
0x310|                           00 00 00 00 25 1b e0|         ....%..|      [19]: "1989-09-23T20:00:14Z" (622584014) transition_time 0x319-0x320.7 (8)
0x320|ce                                             |.               |
0x320|   00 00 00 00 26 0b d1 cf                     | ....&...       |      [20]: "1990-03-24T20:00:15Z" (638308815) transition_time 0x321-0x328.7 (8)
0x320|                           00 00 00 00 27 04 fd|         ....'..|      [21]: "1990-09-29T20:00:15Z" (654638415) transition_time 0x329-0x330.7 (8)
0x330|4f                                             |O               |
0x330|   00 00 00 00 27 f4 ee 50                     | ....'..P       |      [22]: "1991-03-30T20:00:16Z" (670363216) transition_time 0x331-0x338.7 (8)
0x330|                           00 00 00 00 28 be a3|         ....(..|      [23]: "1991-08-30T20:00:16Z" (683582416) transition_time 0x339-0x340.7 (8)
0x340|d0                                             |.               |
0x340|   00 00 00 00 29 e7 37 40                     | ....).7@       |      [24]: "1992-04-11T19:00:16Z" (703018816) transition_time 0x341-0x348.7 (8)
0x340|                           00 00 00 00 2a c4 a5|         ....*..|      [25]: "1992-09-26T18:00:17Z" (717530417) transition_time 0x349-0x350.7 (8)
0x350|31                                             |1               |
0x350|   00 00 00 00 2b c7 19 41                     | ....+..A       |      [26]: "1993-04-10T19:00:17Z" (734468417) transition_time 0x351-0x358.7 (8)
0x350|                           00 00 00 00 2c a4 87|         ....,..|      [27]: "1993-09-25T18:00:18Z" (748980018) transition_time 0x359-0x360.7 (8)
0x360|32                                             |2               |
0x360|   00 00 00 00 2d a6 fb 42                     | ....-..B       |      [28]: "1994-04-09T19:00:18Z" (765918018) transition_time 0x361-0x368.7 (8)
0x360|                           00 00 00 00 2e 84 69|         ......i|      [29]: "1994-09-24T18:00:19Z" (780429619) transition_time 0x369-0x370.7 (8)
0x370|33                                             |3               |
0x370|   00 00 00 00 2f 86 dd 43                     | ..../..C       |      [30]: "1995-04-08T19:00:19Z" (797367619) transition_time 0x371-0x378.7 (8)
0x370|                           00 00 00 00 30 64 4b|         ....0dK|      [31]: "1995-09-23T18:00:19Z" (811879219) transition_time 0x379-0x380.7 (8)
0x380|33                                             |3               |
0x380|   00 00 00 00 31 66 bf 44                     | ....1f.D       |      [32]: "1996-04-06T19:00:20Z" (828817220) transition_time 0x381-0x388.7 (8)
0x380|                           00 00 00 00 32 4d 67|         ....2Mg|      [33]: "1996-09-28T18:00:20Z" (843933620) transition_time 0x389-0x390.7 (8)
0x390|b4                                             |.               |
0x390|   00 00 00 00 33 3d 89 ec                     | ....3=..       |      [34]: "1997-03-29T21:30:20Z" (859671020) transition_time 0x391-0x398.7 (8)
0x390|                           00 00 00 00 34 52 56|         ....4RV|      [35]: "1997-10-25T20:30:21Z" (877811421) transition_time 0x399-0x3a0.7 (8)
0x3a0|dd                                             |.               |
0x3a0|   00 00 00 00 35 1d 6b ed                     | ....5.k.       |      [36]: "1998-03-28T21:30:21Z" (891120621) transition_time 0x3a1-0x3a8.7 (8)
0x3a0|                           00 00 00 00 36 32 38|         ....628|      [37]: "1998-10-24T20:30:21Z" (909261021) transition_time 0x3a9-0x3b0.7 (8)
0x3b0|dd                                             |.               |
0x3b0|   00 00 00 00 36 fd 4d ee                     | ....6.M.       |      [38]: "1999-03-27T21:30:22Z" (922570222) transition_time 0x3b1-0x3b8.7 (8)
0x3b0|                           00 00 00 00 38 1b 55|         ....8.U|      [39]: "1999-10-30T20:30:22Z" (941315422) transition_time 0x3b9-0x3c0.7 (8)
0x3c0|5e                                             |^               |
0x3c0|   00 00 00 00 38 dd 2f ee                     | ....8./.       |      [40]: "2000-03-25T21:30:22Z" (954019822) transition_time 0x3c1-0x3c8.7 (8)
0x3c0|                           00 00 00 00 39 fb 37|         ....9.7|      [41]: "2000-10-28T20:30:22Z" (972765022) transition_time 0x3c9-0x3d0.7 (8)
0x3d0|5e                                             |^               |
0x3d0|   00 00 00 00 3a bd 11 ee                     | ....:...       |      [42]: "2001-03-24T21:30:22Z" (985469422) transition_time 0x3d1-0x3d8.7 (8)
0x3d0|                           00 00 00 00 3b db 19|         ....;..|      [43]: "2001-10-27T20:30:22Z" (1004214622) transition_time 0x3d9-0x3e0.7 (8)
0x3e0|5e                                             |^               |
0x3e0|   00 00 00 00 3c a6 2e 6e                     | ....<..n       |      [44]: "2002-03-30T21:30:22Z" (1017523822) transition_time 0x3e1-0x3e8.7 (8)
0x3e0|                           00 00 00 00 3d ba fb|         ....=..|      [45]: "2002-10-26T20:30:22Z" (1035664222) transition_time 0x3e9-0x3f0.7 (8)
0x3f0|5e                                             |^               |
0x3f0|   00 00 00 00 3e 86 10 6e                     | ....>..n       |      [46]: "2003-03-29T21:30:22Z" (1048973422) transition_time 0x3f1-0x3f8.7 (8)
0x3f0|                           00 00 00 00 3f 9a dd|         ....?..|      [47]: "2003-10-25T20:30:22Z" (1067113822) transition_time 0x3f9-0x400.7 (8)
0x400|5e                                             |^               |
0x400|   00 00 00 00 40 65 f2 6e                     | ....@e.n       |      [48]: "2004-03-27T21:30:22Z" (1080423022) transition_time 0x401-0x408.7 (8)
0x400|                           00 00 00 00 41 83 f9|         ....A..|      [49]: "2004-10-30T20:30:22Z" (1099168222) transition_time 0x409-0x410.7 (8)
0x410|de                                             |.               |
0x410|   00 00 00 00 42 45 d4 6e                     | ....BE.n       |      [50]: "2005-03-26T21:30:22Z" (1111872622) transition_time 0x411-0x418.7 (8)
0x410|                           00 00 00 00 42 fb 92|         ....B..|      [51]: "2005-08-11T18:00:22Z" (1123783222) transition_time 0x419-0x420.7 (8)
0x420|36                                             |6               |
0x420|   00 00 00 00 64 9b 78 1b                     | ....d.x.       |      [52]: "2023-06-28T00:00:27Z" (1687910427) transition_time 0x421-0x428.7 (8)
     |                                               |                |    transition_types[0:53]: 0x429-0x45d.7 (53)
0x420|                           01                  |         .      |      [0]: 1 transition_type 0x429-0x429.7 (1)
0x420|                              03               |          .     |      [1]: 3 transition_type 0x42a-0x42a.7 (1)
0x420|                                 02            |           .    |      [2]: 2 transition_type 0x42b-0x42b.7 (1)
0x420|                                    03         |            .   |      [3]: 3 transition_type 0x42c-0x42c.7 (1)
0x420|                                       02      |             .  |      [4]: 2 transition_type 0x42d-0x42d.7 (1)
0x420|                                          03   |              . |      [5]: 3 transition_type 0x42e-0x42e.7 (1)
0x420|                                             02|               .|      [6]: 2 transition_type 0x42f-0x42f.7 (1)
0x430|03                                             |.               |      [7]: 3 transition_type 0x430-0x430.7 (1)
0x430|   02                                          | .              |      [8]: 2 transition_type 0x431-0x431.7 (1)
0x430|      04                                       |  .             |      [9]: 4 transition_type 0x432-0x432.7 (1)
0x430|         05                                    |   .            |      [10]: 5 transition_type 0x433-0x433.7 (1)
0x430|            04                                 |    .           |      [11]: 4 transition_type 0x434-0x434.7 (1)
0x430|               05                              |     .          |      [12]: 5 transition_type 0x435-0x435.7 (1)
0x430|                  04                           |      .         |      [13]: 4 transition_type 0x436-0x436.7 (1)
0x430|                     05                        |       .        |      [14]: 5 transition_type 0x437-0x437.7 (1)
0x430|                        04                     |        .       |      [15]: 4 transition_type 0x438-0x438.7 (1)
0x430|                           05                  |         .      |      [16]: 5 transition_type 0x439-0x439.7 (1)
0x430|                              04               |          .     |      [17]: 4 transition_type 0x43a-0x43a.7 (1)
0x430|                                 05            |           .    |      [18]: 5 transition_type 0x43b-0x43b.7 (1)
0x430|                                    04         |            .   |      [19]: 4 transition_type 0x43c-0x43c.7 (1)
0x430|                                       05      |             .  |      [20]: 5 transition_type 0x43d-0x43d.7 (1)
0x430|                                          04   |              . |      [21]: 4 transition_type 0x43e-0x43e.7 (1)
0x430|                                             06|               .|      [22]: 6 transition_type 0x43f-0x43f.7 (1)
0x440|01                                             |.               |      [23]: 1 transition_type 0x440-0x440.7 (1)
0x440|   06                                          | .              |      [24]: 6 transition_type 0x441-0x441.7 (1)
0x440|      01                                       |  .             |      [25]: 1 transition_type 0x442-0x442.7 (1)
0x440|         06                                    |   .            |      [26]: 6 transition_type 0x443-0x443.7 (1)
0x440|            01                                 |    .           |      [27]: 1 transition_type 0x444-0x444.7 (1)
0x440|               06                              |     .          |      [28]: 6 transition_type 0x445-0x445.7 (1)
0x440|                  01                           |      .         |      [29]: 1 transition_type 0x446-0x446.7 (1)
0x440|                     06                        |       .        |      [30]: 6 transition_type 0x447-0x447.7 (1)
0x440|                        01                     |        .       |      [31]: 1 transition_type 0x448-0x448.7 (1)
0x440|                           06                  |         .      |      [32]: 6 transition_type 0x449-0x449.7 (1)
0x440|                              01               |          .     |      [33]: 1 transition_type 0x44a-0x44a.7 (1)
0x440|                                 07            |           .    |      [34]: 7 transition_type 0x44b-0x44b.7 (1)
0x440|                                    01         |            .   |      [35]: 1 transition_type 0x44c-0x44c.7 (1)
0x440|                                       07      |             .  |      [36]: 7 transition_type 0x44d-0x44d.7 (1)
0x440|                                          01   |              . |      [37]: 1 transition_type 0x44e-0x44e.7 (1)
0x440|                                             07|               .|      [38]: 7 transition_type 0x44f-0x44f.7 (1)
0x450|01                                             |.               |      [39]: 1 transition_type 0x450-0x450.7 (1)
0x450|   07                                          | .              |      [40]: 7 transition_type 0x451-0x451.7 (1)
0x450|      01                                       |  .             |      [41]: 1 transition_type 0x452-0x452.7 (1)
0x450|         07                                    |   .            |      [42]: 7 transition_type 0x453-0x453.7 (1)
0x450|            01                                 |    .           |      [43]: 1 transition_type 0x454-0x454.7 (1)
0x450|               07                              |     .          |      [44]: 7 transition_type 0x455-0x455.7 (1)
0x450|                  01                           |      .         |      [45]: 1 transition_type 0x456-0x456.7 (1)
0x450|                     07                        |       .        |      [46]: 7 transition_type 0x457-0x457.7 (1)
0x450|                        01                     |        .       |      [47]: 1 transition_type 0x458-0x458.7 (1)
0x450|                           07                  |         .      |      [48]: 7 transition_type 0x459-0x459.7 (1)
0x450|                              01               |          .     |      [49]: 1 transition_type 0x45a-0x45a.7 (1)
0x450|                                 07            |           .    |      [50]: 7 transition_type 0x45b-0x45b.7 (1)
0x450|                                    03         |            .   |      [51]: 3 transition_type 0x45c-0x45c.7 (1)
0x450|                                       03      |             .  |      [52]: 3 transition_type 0x45d-0x45d.7 (1)
     |                                               |                |    local_time_type_records[0:8]: 0x45e-0x48d.7 (48)
     |                                               |                |      [0]{}: local_time_type 0x45e-0x463.7 (6)
0x450|                                          00 00|              ..|        utoff: 17904 (valid) 0x45e-0x461.7 (4)
0x460|45 f0                                          |E.              |
0x460|      00                                       |  .             |        dst: 0 (valid) 0x462-0x462.7 (1)
0x460|         00                                    |   .            |        idx: 0 (valid) 0x463-0x463.7 (1)
     |                                               |                |      [1]{}: local_time_type 0x464-0x469.7 (6)
0x460|            00 00 46 50                        |    ..FP        |        utoff: 18000 (valid) 0x464-0x467.7 (4)
0x460|                        00                     |        .       |        dst: 0 (valid) 0x468-0x468.7 (1)
0x460|                           04                  |         .      |        idx: 4 (valid) 0x469-0x469.7 (1)
     |                                               |                |      [2]{}: local_time_type 0x46a-0x46f.7 (6)
0x460|                              00 00 62 70      |          ..bp  |        utoff: 25200 (valid) 0x46a-0x46d.7 (4)
0x460|                                          01   |              . |        dst: 1 (valid) 0x46e-0x46e.7 (1)
0x460|                                             08|               .|        idx: 8 (valid) 0x46f-0x46f.7 (1)
     |                                               |                |      [3]{}: local_time_type 0x470-0x475.7 (6)
0x470|00 00 54 60                                    |..T`            |        utoff: 21600 (valid) 0x470-0x473.7 (4)
0x470|            00                                 |    .           |        dst: 0 (valid) 0x474-0x474.7 (1)
0x470|               0c                              |     .          |        idx: 12 (valid) 0x475-0x475.7 (1)
     |                                               |                |      [4]{}: local_time_type 0x476-0x47b.7 (6)
0x470|                  00 00 54 60                  |      ..T`      |        utoff: 21600 (valid) 0x476-0x479.7 (4)
0x470|                              00               |          .     |        dst: 0 (valid) 0x47a-0x47a.7 (1)
0x470|                                 0c            |           .    |        idx: 12 (valid) 0x47b-0x47b.7 (1)
     |                                               |                |      [5]{}: local_time_type 0x47c-0x481.7 (6)
0x470|                                    00 00 62 70|            ..bp|        utoff: 25200 (valid) 0x47c-0x47f.7 (4)
0x480|01                                             |.               |        dst: 1 (valid) 0x480-0x480.7 (1)
0x480|   08                                          | .              |        idx: 8 (valid) 0x481-0x481.7 (1)
     |                                               |                |      [6]{}: local_time_type 0x482-0x487.7 (6)
0x480|      00 00 54 60                              |  ..T`          |        utoff: 21600 (valid) 0x482-0x485.7 (4)
0x480|                  01                           |      .         |        dst: 1 (valid) 0x486-0x486.7 (1)
0x480|                     0c                        |       .        |        idx: 12 (valid) 0x487-0x487.7 (1)
     |                                               |                |      [7]{}: local_time_type 0x488-0x48d.7 (6)
0x480|                        00 00 54 60            |        ..T`    |        utoff: 21600 (valid) 0x488-0x48b.7 (4)
0x480|                                    01         |            .   |        dst: 1 (valid) 0x48c-0x48c.7 (1)
0x480|                                       0c      |             .  |        idx: 12 (valid) 0x48d-0x48d.7 (1)
     |                                               |                |    time_zone_designations[0:4]: 0x48e-0x49d.7 (16)
0x480|                                          4c 4d|              LM|      [0]: "LMT" time_zone_designation 0x48e-0x491.7 (4)
0x490|54 00                                          |T.              |
0x490|      2b 30 35 00                              |  +05.          |      [1]: "+05" time_zone_designation 0x492-0x495.7 (4)
0x490|                  2b 30 37 00                  |      +07.      |      [2]: "+07" time_zone_designation 0x496-0x499.7 (4)
0x490|                              2b 30 36 00      |          +06.  |      [3]: "+06" time_zone_designation 0x49a-0x49d.7 (4)
     |                                               |                |    leap_second_records[0:27]: 0x49e-0x5e1.7 (324)
     |                                               |                |      [0]{}: leap_second_record 0x49e-0x4a9.7 (12)
0x490|                                          00 00|              ..|        occur: "1972-07-01T00:00:00Z" (78796800) 0x49e-0x4a5.7 (8)
0x4a0|00 00 04 b2 58 00                              |....X.          |
0x4a0|                  00 00 00 01                  |      ....      |        corr: 1 0x4a6-0x4a9.7 (4)
     |                                               |                |      [1]{}: leap_second_record 0x4aa-0x4b5.7 (12)
0x4a0|                              00 00 00 00 05 a4|          ......|        occur: "1973-01-01T00:00:01Z" (94694401) 0x4aa-0x4b1.7 (8)
0x4b0|ec 01                                          |..              |
0x4b0|      00 00 00 02                              |  ....          |        corr: 2 0x4b2-0x4b5.7 (4)
     |                                               |                |      [2]{}: leap_second_record 0x4b6-0x4c1.7 (12)
0x4b0|                  00 00 00 00 07 86 1f 82      |      ........  |        occur: "1974-01-01T00:00:02Z" (126230402) 0x4b6-0x4bd.7 (8)
0x4b0|                                          00 00|              ..|        corr: 3 0x4be-0x4c1.7 (4)
0x4c0|00 03                                          |..              |
     |                                               |                |      [3]{}: leap_second_record 0x4c2-0x4cd.7 (12)
0x4c0|      00 00 00 00 09 67 53 03                  |  .....gS.      |        occur: "1975-01-01T00:00:03Z" (157766403) 0x4c2-0x4c9.7 (8)
0x4c0|                              00 00 00 04      |          ....  |        corr: 4 0x4ca-0x4cd.7 (4)
     |                                               |                |      [4]{}: leap_second_record 0x4ce-0x4d9.7 (12)
0x4c0|                                          00 00|              ..|        occur: "1976-01-01T00:00:04Z" (189302404) 0x4ce-0x4d5.7 (8)
0x4d0|00 00 0b 48 86 84                              |...H..          |
0x4d0|                  00 00 00 05                  |      ....      |        corr: 5 0x4d6-0x4d9.7 (4)
     |                                               |                |      [5]{}: leap_second_record 0x4da-0x4e5.7 (12)
0x4d0|                              00 00 00 00 0d 2b|          .....+|        occur: "1977-01-01T00:00:05Z" (220924805) 0x4da-0x4e1.7 (8)
0x4e0|0b 85                                          |..              |
0x4e0|      00 00 00 06                              |  ....          |        corr: 6 0x4e2-0x4e5.7 (4)
     |                                               |                |      [6]{}: leap_second_record 0x4e6-0x4f1.7 (12)
0x4e0|                  00 00 00 00 0f 0c 3f 06      |      ......?.  |        occur: "1978-01-01T00:00:06Z" (252460806) 0x4e6-0x4ed.7 (8)
0x4e0|                                          00 00|              ..|        corr: 7 0x4ee-0x4f1.7 (4)
0x4f0|00 07                                          |..              |
     |                                               |                |      [7]{}: leap_second_record 0x4f2-0x4fd.7 (12)
0x4f0|      00 00 00 00 10 ed 72 87                  |  ......r.      |        occur: "1979-01-01T00:00:07Z" (283996807) 0x4f2-0x4f9.7 (8)
0x4f0|                              00 00 00 08      |          ....  |        corr: 8 0x4fa-0x4fd.7 (4)
     |                                               |                |      [8]{}: leap_second_record 0x4fe-0x509.7 (12)
0x4f0|                                          00 00|              ..|        occur: "1980-01-01T00:00:08Z" (315532808) 0x4fe-0x505.7 (8)
0x500|00 00 12 ce a6 08                              |......          |
0x500|                  00 00 00 09                  |      ....      |        corr: 9 0x506-0x509.7 (4)
     |                                               |                |      [9]{}: leap_second_record 0x50a-0x515.7 (12)
0x500|                              00 00 00 00 15 9f|          ......|        occur: "1981-07-01T00:00:09Z" (362793609) 0x50a-0x511.7 (8)
0x510|ca 89                                          |..              |
0x510|      00 00 00 0a                              |  ....          |        corr: 10 0x512-0x515.7 (4)
     |                                               |                |      [10]{}: leap_second_record 0x516-0x521.7 (12)
0x510|                  00 00 00 00 17 80 fe 0a      |      ........  |        occur: "1982-07-01T00:00:10Z" (394329610) 0x516-0x51d.7 (8)
0x510|                                          00 00|              ..|        corr: 11 0x51e-0x521.7 (4)
0x520|00 0b                                          |..              |
     |                                               |                |      [11]{}: leap_second_record 0x522-0x52d.7 (12)
0x520|      00 00 00 00 19 62 31 8b                  |  .....b1.      |        occur: "1983-07-01T00:00:11Z" (425865611) 0x522-0x529.7 (8)
0x520|                              00 00 00 0c      |          ....  |        corr: 12 0x52a-0x52d.7 (4)
     |                                               |                |      [12]{}: leap_second_record 0x52e-0x539.7 (12)
0x520|                                          00 00|              ..|        occur: "1985-07-01T00:00:12Z" (489024012) 0x52e-0x535.7 (8)
0x530|00 00 1d 25 ea 0c                              |...%..          |
0x530|                  00 00 00 0d                  |      ....      |        corr: 13 0x536-0x539.7 (4)
     |                                               |                |      [13]{}: leap_second_record 0x53a-0x545.7 (12)
0x530|                              00 00 00 00 21 da|          ....!.|        occur: "1988-01-01T00:00:13Z" (567993613) 0x53a-0x541.7 (8)
0x540|e5 0d                                          |..              |
0x540|      00 00 00 0e                              |  ....          |        corr: 14 0x542-0x545.7 (4)
     |                                               |                |      [14]{}: leap_second_record 0x546-0x551.7 (12)
0x540|                  00 00 00 00 25 9e 9d 8e      |      ....%...  |        occur: "1990-01-01T00:00:14Z" (631152014) 0x546-0x54d.7 (8)
0x540|                                          00 00|              ..|        corr: 15 0x54e-0x551.7 (4)
0x550|00 0f                                          |..              |
     |                                               |                |      [15]{}: leap_second_record 0x552-0x55d.7 (12)
0x550|      00 00 00 00 27 7f d1 0f                  |  ....'...      |        occur: "1991-01-01T00:00:15Z" (662688015) 0x552-0x559.7 (8)
0x550|                              00 00 00 10      |          ....  |        corr: 16 0x55a-0x55d.7 (4)
     |                                               |                |      [16]{}: leap_second_record 0x55e-0x569.7 (12)
0x550|                                          00 00|              ..|        occur: "1992-07-01T00:00:16Z" (709948816) 0x55e-0x565.7 (8)
0x560|00 00 2a 50 f5 90                              |..*P..          |
0x560|                  00 00 00 11                  |      ....      |        corr: 17 0x566-0x569.7 (4)
     |                                               |                |      [17]{}: leap_second_record 0x56a-0x575.7 (12)
0x560|                              00 00 00 00 2c 32|          ....,2|        occur: "1993-07-01T00:00:17Z" (741484817) 0x56a-0x571.7 (8)
0x570|29 11                                          |).              |
0x570|      00 00 00 12                              |  ....          |        corr: 18 0x572-0x575.7 (4)
     |                                               |                |      [18]{}: leap_second_record 0x576-0x581.7 (12)
0x570|                  00 00 00 00 2e 13 5c 92      |      ......\.  |        occur: "1994-07-01T00:00:18Z" (773020818) 0x576-0x57d.7 (8)
0x570|                                          00 00|              ..|        corr: 19 0x57e-0x581.7 (4)
0x580|00 13                                          |..              |
     |                                               |                |      [19]{}: leap_second_record 0x582-0x58d.7 (12)
0x580|      00 00 00 00 30 e7 24 13                  |  ....0.$.      |        occur: "1996-01-01T00:00:19Z" (820454419) 0x582-0x589.7 (8)
0x580|                              00 00 00 14      |          ....  |        corr: 20 0x58a-0x58d.7 (4)
     |                                               |                |      [20]{}: leap_second_record 0x58e-0x599.7 (12)
0x580|                                          00 00|              ..|        occur: "1997-07-01T00:00:20Z" (867715220) 0x58e-0x595.7 (8)
0x590|00 00 33 b8 48 94                              |..3.H.          |
0x590|                  00 00 00 15                  |      ....      |        corr: 21 0x596-0x599.7 (4)
     |                                               |                |      [21]{}: leap_second_record 0x59a-0x5a5.7 (12)
0x590|                              00 00 00 00 36 8c|          ....6.|        occur: "1999-01-01T00:00:21Z" (915148821) 0x59a-0x5a1.7 (8)
0x5a0|10 15                                          |..              |
0x5a0|      00 00 00 16                              |  ....          |        corr: 22 0x5a2-0x5a5.7 (4)
     |                                               |                |      [22]{}: leap_second_record 0x5a6-0x5b1.7 (12)
0x5a0|                  00 00 00 00 43 b7 1b 96      |      ....C...  |        occur: "2006-01-01T00:00:22Z" (1136073622) 0x5a6-0x5ad.7 (8)
0x5a0|                                          00 00|              ..|        corr: 23 0x5ae-0x5b1.7 (4)
0x5b0|00 17                                          |..              |
     |                                               |                |      [23]{}: leap_second_record 0x5b2-0x5bd.7 (12)
0x5b0|      00 00 00 00 49 5c 07 97                  |  ....I\..      |        occur: "2009-01-01T00:00:23Z" (1230768023) 0x5b2-0x5b9.7 (8)
0x5b0|                              00 00 00 18      |          ....  |        corr: 24 0x5ba-0x5bd.7 (4)
     |                                               |                |      [24]{}: leap_second_record 0x5be-0x5c9.7 (12)
0x5b0|                                          00 00|              ..|        occur: "2012-07-01T00:00:24Z" (1341100824) 0x5be-0x5c5.7 (8)
0x5c0|00 00 4f ef 93 18                              |..O...          |
0x5c0|                  00 00 00 19                  |      ....      |        corr: 25 0x5c6-0x5c9.7 (4)
     |                                               |                |      [25]{}: leap_second_record 0x5ca-0x5d5.7 (12)
0x5c0|                              00 00 00 00 55 93|          ....U.|        occur: "2015-07-01T00:00:25Z" (1435708825) 0x5ca-0x5d1.7 (8)
0x5d0|2d 99                                          |-.              |
0x5d0|      00 00 00 1a                              |  ....          |        corr: 26 0x5d2-0x5d5.7 (4)
     |                                               |                |      [26]{}: leap_second_record 0x5d6-0x5e1.7 (12)
0x5d0|                  00 00 00 00 58 68 46 9a      |      ....XhF.  |        occur: "2017-01-01T00:00:26Z" (1483228826) 0x5d6-0x5dd.7 (8)
0x5d0|                                          00 00|              ..|        corr: 27 0x5de-0x5e1.7 (4)
0x5e0|00 1b                                          |..              |
     |                                               |                |    standard_wall_indicators[0:8]: 0x5e2-0x5e9.7 (8)
0x5e0|      00                                       |  .             |      [0]: 0 standard_wall_indicator (valid) 0x5e2-0x5e2.7 (1)
0x5e0|         00                                    |   .            |      [1]: 0 standard_wall_indicator (valid) 0x5e3-0x5e3.7 (1)
0x5e0|            00                                 |    .           |      [2]: 0 standard_wall_indicator (valid) 0x5e4-0x5e4.7 (1)
0x5e0|               00                              |     .          |      [3]: 0 standard_wall_indicator (valid) 0x5e5-0x5e5.7 (1)
0x5e0|                  01                           |      .         |      [4]: 1 standard_wall_indicator (valid) 0x5e6-0x5e6.7 (1)
0x5e0|                     01                        |       .        |      [5]: 1 standard_wall_indicator (valid) 0x5e7-0x5e7.7 (1)
0x5e0|                        01                     |        .       |      [6]: 1 standard_wall_indicator (valid) 0x5e8-0x5e8.7 (1)
0x5e0|                           00                  |         .      |      [7]: 0 standard_wall_indicator (valid) 0x5e9-0x5e9.7 (1)
     |                                               |                |    ut_local_indicators[0:0]: 0x5ea-NA (0)
     |                                               |                |  footer{}: 0x5ea-0x5eb.7 (2)
0x5e0|                              0a               |          .     |    nl1: 10 (valid) 0x5ea-0x5ea.7 (1)
     |                                               |                |    tz_string: "" 0x5eb-NA (0)
0x5e0|                                 0a|           |           .|   |    nl2: 10 (valid) 0x5eb-0x5eb.7 (1)
