$ fq -d tzif dv Boise
     |00 01 02 03 04 05 06 07 08 09 0a 0b 0c 0d 0e 0f|0123456789abcdef|.{}: Boise (tzif) 0x0-0x9e7.7 (2536)
     |                                               |                |  v1header{}: 0x0-0x2b.7 (44)
0x000|54 5a 69 66                                    |TZif            |    magic: 0x545a6966 (valid) 0x0-0x3.7 (4)
0x000|            32                                 |    2           |    ver: "2" (0x32) (valid) 0x4-0x4.7 (1)
0x000|               00 00 00 00 00 00 00 00 00 00 00|     ...........|    reserved: raw bits 0x5-0x13.7 (15)
0x010|00 00 00 00                                    |....            |
0x010|            00 00 00 08                        |    ....        |    isutcnt: 8 0x14-0x17.7 (4)
0x010|                        00 00 00 08            |        ....    |    isstdcnt: 8 0x18-0x1b.7 (4)
0x010|                                    00 00 00 1b|            ....|    leapcnt: 27 0x1c-0x1f.7 (4)
0x020|00 00 00 7b                                    |...{            |    timecnt: 123 0x20-0x23.7 (4)
0x020|            00 00 00 08                        |    ....        |    typecnt: 8 0x24-0x27.7 (4)
0x020|                        00 00 00 1c            |        ....    |    charcnt: 28 0x28-0x2b.7 (4)
     |                                               |                |  v1datablock{}: 0x2c-0x3c6.7 (923)
     |                                               |                |    transition_times[0:123]: 0x2c-0x217.7 (492)
0x020|                                    80 00 00 00|            ....|      [0]: "1901-12-13T20:45:52Z" (-2147483648) transition_time 0x2c-0x2f.7 (4)
0x030|9e a6 48 a0                                    |..H.            |      [1]: "1918-03-31T10:00:00Z" (-1633269600) transition_time 0x30-0x33.7 (4)
0x030|            9f bb 15 90                        |    ....        |      [2]: "1918-10-27T09:00:00Z" (-1615129200) transition_time 0x34-0x37.7 (4)
0x030|                        a0 86 2a a0            |        ..*.    |      [3]: "1919-03-30T10:00:00Z" (-1601820000) transition_time 0x38-0x3b.7 (4)
0x030|                                    a1 9a f7 90|            ....|      [4]: "1919-10-26T09:00:00Z" (-1583679600) transition_time 0x3c-0x3f.7 (4)
0x040|a8 46 4c 20                                    |.FL             |      [5]: "1923-05-13T10:00:00Z" (-1471788000) transition_time 0x40-0x43.7 (4)
0x040|            cb 89 0c 90                        |    ....        |      [6]: "1942-02-09T09:00:00Z" (-880210800) transition_time 0x44-0x47.7 (4)
0x040|                        d2 23 f4 70            |        .#.p    |      [7]: "1945-08-14T23:00:00Z" (-769395600) transition_time 0x48-0x4b.7 (4)
0x040|                                    d2 61 18 00|            .a..|      [8]: "1945-09-30T08:00:00Z" (-765388800) transition_time 0x4c-0x4f.7 (4)
0x050|fa f8 75 10                                    |..u.            |      [9]: "1967-04-30T09:00:00Z" (-84380400) transition_time 0x50-0x53.7 (4)
0x050|            fb e8 58 00                        |    ..X.        |      [10]: "1967-10-29T08:00:00Z" (-68659200) transition_time 0x54-0x57.7 (4)
0x050|                        fc d8 57 10            |        ..W.    |      [11]: "1968-04-28T09:00:00Z" (-52930800) transition_time 0x58-0x5b.7 (4)
0x050|                                    fd c8 3a 00|            ..:.|      [12]: "1968-10-27T08:00:00Z" (-37209600) transition_time 0x5c-0x5f.7 (4)
0x060|fe b8 39 10                                    |..9.            |      [13]: "1969-04-27T09:00:00Z" (-21481200) transition_time 0x60-0x63.7 (4)
0x060|            ff a8 1c 00                        |    ....        |      [14]: "1969-10-26T08:00:00Z" (-5760000) transition_time 0x64-0x67.7 (4)
0x060|                        00 98 1b 10            |        ....    |      [15]: "1970-04-26T09:00:00Z" (9968400) transition_time 0x68-0x6b.7 (4)
0x060|                                    01 87 fe 00|            ....|      [16]: "1970-10-25T08:00:00Z" (25689600) transition_time 0x6c-0x6f.7 (4)
0x070|02 77 fd 10                                    |.w..            |      [17]: "1971-04-25T09:00:00Z" (41418000) transition_time 0x70-0x73.7 (4)
0x070|            03 71 1a 80                        |    .q..        |      [18]: "1971-10-31T08:00:00Z" (57744000) transition_time 0x74-0x77.7 (4)
0x070|                        04 61 19 90            |        .a..    |      [19]: "1972-04-30T09:00:00Z" (73472400) transition_time 0x78-0x7b.7 (4)
0x070|                                    05 50 fc 81|            .P..|      [20]: "1972-10-29T08:00:01Z" (89193601) transition_time 0x7c-0x7f.7 (4)
0x080|06 40 fb 92                                    |.@..            |      [21]: "1973-04-29T09:00:02Z" (104922002) transition_time 0x80-0x83.7 (4)
0x080|            07 30 de 82                        |    .0..        |      [22]: "1973-10-28T08:00:02Z" (120643202) transition_time 0x84-0x87.7 (4)
0x080|                        07 b2 1f 93            |        ....    |      [23]: "1974-02-03T09:00:03Z" (129114003) transition_time 0x88-0x8b.7 (4)
0x080|                                    09 10 c0 83|            ....|      [24]: "1974-10-27T08:00:03Z" (152092803) transition_time 0x8c-0x8f.7 (4)
0x090|09 ad b1 14                                    |....            |      [25]: "1975-02-23T09:00:04Z" (162378004) transition_time 0x90-0x93.7 (4)
0x090|            0a f0 a2 84                        |    ....        |      [26]: "1975-10-26T08:00:04Z" (183542404) transition_time 0x94-0x97.7 (4)
0x090|                        0b e0 a1 95            |        ....    |      [27]: "1976-04-25T09:00:05Z" (199270805) transition_time 0x98-0x9b.7 (4)
0x090|                                    0c d9 bf 05|            ....|      [28]: "1976-10-31T08:00:05Z" (215596805) transition_time 0x9c-0x9f.7 (4)
0x0a0|0d c0 83 96                                    |....            |      [29]: "1977-04-24T09:00:06Z" (230720406) transition_time 0xa0-0xa3.7 (4)
0x0a0|            0e b9 a1 06                        |    ....        |      [30]: "1977-10-30T08:00:06Z" (247046406) transition_time 0xa4-0xa7.7 (4)
0x0a0|                        0f a9 a0 17            |        ....    |      [31]: "1978-04-30T09:00:07Z" (262774807) transition_time 0xa8-0xab.7 (4)
0x0a0|                                    10 99 83 07|            ....|      [32]: "1978-10-29T08:00:07Z" (278496007) transition_time 0xac-0xaf.7 (4)
0x0b0|11 89 82 18                                    |....            |      [33]: "1979-04-29T09:00:08Z" (294224408) transition_time 0xb0-0xb3.7 (4)
0x0b0|            12 79 65 08                        |    .ye.        |      [34]: "1979-10-28T08:00:08Z" (309945608) transition_time 0xb4-0xb7.7 (4)
0x0b0|                        13 69 64 19            |        .id.    |      [35]: "1980-04-27T09:00:09Z" (325674009) transition_time 0xb8-0xbb.7 (4)
0x0b0|                                    14 59 47 09|            .YG.|      [36]: "1980-10-26T08:00:09Z" (341395209) transition_time 0xbc-0xbf.7 (4)
0x0c0|15 49 46 19                                    |.IF.            |      [37]: "1981-04-26T09:00:09Z" (357123609) transition_time 0xc0-0xc3.7 (4)
0x0c0|            16 39 29 0a                        |    .9).        |      [38]: "1981-10-25T08:00:10Z" (372844810) transition_time 0xc4-0xc7.7 (4)
0x0c0|                        17 29 28 1a            |        .)(.    |      [39]: "1982-04-25T09:00:10Z" (388573210) transition_time 0xc8-0xcb.7 (4)
0x0c0|                                    18 22 45 8b|            ."E.|      [40]: "1982-10-31T08:00:11Z" (404899211) transition_time 0xcc-0xcf.7 (4)
0x0d0|19 09 0a 1b                                    |....            |      [41]: "1983-04-24T09:00:11Z" (420022811) transition_time 0xd0-0xd3.7 (4)
0x0d0|            1a 02 27 8c                        |    ..'.        |      [42]: "1983-10-30T08:00:12Z" (436348812) transition_time 0xd4-0xd7.7 (4)
0x0d0|                        1a f2 26 9c            |        ..&.    |      [43]: "1984-04-29T09:00:12Z" (452077212) transition_time 0xd8-0xdb.7 (4)
0x0d0|                                    1b e2 09 8c|            ....|      [44]: "1984-10-28T08:00:12Z" (467798412) transition_time 0xdc-0xdf.7 (4)
0x0e0|1c d2 08 9c                                    |....            |      [45]: "1985-04-28T09:00:12Z" (483526812) transition_time 0xe0-0xe3.7 (4)
0x0e0|            1d c1 eb 8d                        |    ....        |      [46]: "1985-10-27T08:00:13Z" (499248013) transition_time 0xe4-0xe7.7 (4)
0x0e0|                        1e b1 ea 9d            |        ....    |      [47]: "1986-04-27T09:00:13Z" (514976413) transition_time 0xe8-0xeb.7 (4)
0x0e0|                                    1f a1 cd 8d|            ....|      [48]: "1986-10-26T08:00:13Z" (530697613) transition_time 0xec-0xef.7 (4)
0x0f0|20 76 1d 1d                                    | v..            |      [49]: "1987-04-05T09:00:13Z" (544611613) transition_time 0xf0-0xf3.7 (4)
0x0f0|            21 81 af 8d                        |    !...        |      [50]: "1987-10-25T08:00:13Z" (562147213) transition_time 0xf4-0xf7.7 (4)
0x0f0|                        22 55 ff 1e            |        "U..    |      [51]: "1988-04-03T09:00:14Z" (576061214) transition_time 0xf8-0xfb.7 (4)
0x0f0|                                    23 6a cc 0e|            #j..|      [52]: "1988-10-30T08:00:14Z" (594201614) transition_time 0xfc-0xff.7 (4)
0x100|24 35 e1 1e                                    |$5..            |      [53]: "1989-04-02T09:00:14Z" (607510814) transition_time 0x100-0x103.7 (4)
0x100|            25 4a ae 0e                        |    %J..        |      [54]: "1989-10-29T08:00:14Z" (625651214) transition_time 0x104-0x107.7 (4)
0x100|                        26 15 c3 1f            |        &...    |      [55]: "1990-04-01T09:00:15Z" (638960415) transition_time 0x108-0x10b.7 (4)
0x100|                                    27 2a 90 0f|            '*..|      [56]: "1990-10-28T08:00:15Z" (657100815) transition_time 0x10c-0x10f.7 (4)
0x110|27 fe df a0                                    |'...            |      [57]: "1991-04-07T09:00:16Z" (671014816) transition_time 0x110-0x113.7 (4)
0x110|            29 0a 72 10                        |    ).r.        |      [58]: "1991-10-27T08:00:16Z" (688550416) transition_time 0x114-0x117.7 (4)
0x110|                        29 de c1 a0            |        )...    |      [59]: "1992-04-05T09:00:16Z" (702464416) transition_time 0x118-0x11b.7 (4)
0x110|                                    2a ea 54 11|            *.T.|      [60]: "1992-10-25T08:00:17Z" (720000017) transition_time 0x11c-0x11f.7 (4)
0x120|2b be a3 a1                                    |+...            |      [61]: "1993-04-04T09:00:17Z" (733914017) transition_time 0x120-0x123.7 (4)
0x120|            2c d3 70 92                        |    ,.p.        |      [62]: "1993-10-31T08:00:18Z" (752054418) transition_time 0x124-0x127.7 (4)
0x120|                        2d 9e 85 a2            |        -...    |      [63]: "1994-04-03T09:00:18Z" (765363618) transition_time 0x128-0x12b.7 (4)
0x120|                                    2e b3 52 93|            ..R.|      [64]: "1994-10-30T08:00:19Z" (783504019) transition_time 0x12c-0x12f.7 (4)
0x130|2f 7e 67 a3                                    |/~g.            |      [65]: "1995-04-02T09:00:19Z" (796813219) transition_time 0x130-0x133.7 (4)
0x130|            30 93 34 93                        |    0.4.        |      [66]: "1995-10-29T08:00:19Z" (814953619) transition_time 0x134-0x137.7 (4)
0x130|                        31 67 84 24            |        1g.$    |      [67]: "1996-04-07T09:00:20Z" (828867620) transition_time 0x138-0x13b.7 (4)
0x130|                                    32 73 16 94|            2s..|      [68]: "1996-10-27T08:00:20Z" (846403220) transition_time 0x13c-0x13f.7 (4)
0x140|33 47 66 24                                    |3Gf$            |      [69]: "1997-04-06T09:00:20Z" (860317220) transition_time 0x140-0x143.7 (4)
0x140|            34 52 f8 95                        |    4R..        |      [70]: "1997-10-26T08:00:21Z" (877852821) transition_time 0x144-0x147.7 (4)
0x140|                        35 27 48 25            |        5'H%    |      [71]: "1998-04-05T09:00:21Z" (891766821) transition_time 0x148-0x14b.7 (4)
0x140|                                    36 32 da 95|            62..|      [72]: "1998-10-25T08:00:21Z" (909302421) transition_time 0x14c-0x14f.7 (4)
0x150|37 07 2a 26                                    |7.*&            |      [73]: "1999-04-04T09:00:22Z" (923216422) transition_time 0x150-0x153.7 (4)
0x150|            38 1b f7 16                        |    8...        |      [74]: "1999-10-31T08:00:22Z" (941356822) transition_time 0x154-0x157.7 (4)
0x150|                        38 e7 0c 26            |        8..&    |      [75]: "2000-04-02T09:00:22Z" (954666022) transition_time 0x158-0x15b.7 (4)
0x150|                                    39 fb d9 16|            9...|      [76]: "2000-10-29T08:00:22Z" (972806422) transition_time 0x15c-0x15f.7 (4)
0x160|3a c6 ee 26                                    |:..&            |      [77]: "2001-04-01T09:00:22Z" (986115622) transition_time 0x160-0x163.7 (4)
0x160|            3b db bb 16                        |    ;...        |      [78]: "2001-10-28T08:00:22Z" (1004256022) transition_time 0x164-0x167.7 (4)
0x160|                        3c b0 0a a6            |        <...    |      [79]: "2002-04-07T09:00:22Z" (1018170022) transition_time 0x168-0x16b.7 (4)
0x160|                                    3d bb 9d 16|            =...|      [80]: "2002-10-27T08:00:22Z" (1035705622) transition_time 0x16c-0x16f.7 (4)
0x170|3e 8f ec a6                                    |>...            |      [81]: "2003-04-06T09:00:22Z" (1049619622) transition_time 0x170-0x173.7 (4)
0x170|            3f 9b 7f 16                        |    ?...        |      [82]: "2003-10-26T08:00:22Z" (1067155222) transition_time 0x174-0x177.7 (4)
0x170|                        40 6f ce a6            |        @o..    |      [83]: "2004-04-04T09:00:22Z" (1081069222) transition_time 0x178-0x17b.7 (4)
0x170|                                    41 84 9b 96|            A...|      [84]: "2004-10-31T08:00:22Z" (1099209622) transition_time 0x17c-0x17f.7 (4)
0x180|42 4f b0 a6                                    |BO..            |      [85]: "2005-04-03T09:00:22Z" (1112518822) transition_time 0x180-0x183.7 (4)
0x180|            43 64 7d 96                        |    Cd}.        |      [86]: "2005-10-30T08:00:22Z" (1130659222) transition_time 0x184-0x187.7 (4)
0x180|                        44 2f 92 a7            |        D/..    |      [87]: "2006-04-02T09:00:23Z" (1143968423) transition_time 0x188-0x18b.7 (4)
0x180|                                    45 44 5f 97|            ED_.|      [88]: "2006-10-29T08:00:23Z" (1162108823) transition_time 0x18c-0x18f.7 (4)
0x190|45 f3 c5 27                                    |E..'            |      [89]: "2007-03-11T09:00:23Z" (1173603623) transition_time 0x190-0x193.7 (4)
0x190|            47 2d 7c 17                        |    G-|.        |      [90]: "2007-11-04T08:00:23Z" (1194163223) transition_time 0x194-0x197.7 (4)
0x190|                        47 d3 a7 27            |        G..'    |      [91]: "2008-03-09T09:00:23Z" (1205053223) transition_time 0x198-0x19b.7 (4)
0x190|                                    49 0d 5e 17|            I.^.|      [92]: "2008-11-02T08:00:23Z" (1225612823) transition_time 0x19c-0x19f.7 (4)
0x1a0|49 b3 89 28                                    |I..(            |      [93]: "2009-03-08T09:00:24Z" (1236502824) transition_time 0x1a0-0x1a3.7 (4)
0x1a0|            4a ed 40 18                        |    J.@.        |      [94]: "2009-11-01T08:00:24Z" (1257062424) transition_time 0x1a4-0x1a7.7 (4)
0x1a0|                        4b 9c a5 a8            |        K...    |      [95]: "2010-03-14T09:00:24Z" (1268557224) transition_time 0x1a8-0x1ab.7 (4)
0x1a0|                                    4c d6 5c 98|            L.\.|      [96]: "2010-11-07T08:00:24Z" (1289116824) transition_time 0x1ac-0x1af.7 (4)
0x1b0|4d 7c 87 a8                                    |M|..            |      [97]: "2011-03-13T09:00:24Z" (1300006824) transition_time 0x1b0-0x1b3.7 (4)
0x1b0|            4e b6 3e 98                        |    N.>.        |      [98]: "2011-11-06T08:00:24Z" (1320566424) transition_time 0x1b4-0x1b7.7 (4)
0x1b0|                        4f 5c 69 a8            |        O\i.    |      [99]: "2012-03-11T09:00:24Z" (1331456424) transition_time 0x1b8-0x1bb.7 (4)
0x1b0|                                    50 96 20 99|            P. .|      [100]: "2012-11-04T08:00:25Z" (1352016025) transition_time 0x1bc-0x1bf.7 (4)
0x1c0|51 3c 4b a9                                    |Q<K.            |      [101]: "2013-03-10T09:00:25Z" (1362906025) transition_time 0x1c0-0x1c3.7 (4)
0x1c0|            52 76 02 99                        |    Rv..        |      [102]: "2013-11-03T08:00:25Z" (1383465625) transition_time 0x1c4-0x1c7.7 (4)
0x1c0|                        53 1c 2d a9            |        S.-.    |      [103]: "2014-03-09T09:00:25Z" (1394355625) transition_time 0x1c8-0x1cb.7 (4)
0x1c0|                                    54 55 e4 99|            TU..|      [104]: "2014-11-02T08:00:25Z" (1414915225) transition_time 0x1cc-0x1cf.7 (4)
0x1d0|54 fc 0f a9                                    |T...            |      [105]: "2015-03-08T09:00:25Z" (1425805225) transition_time 0x1d0-0x1d3.7 (4)
0x1d0|            56 35 c6 9a                        |    V5..        |      [106]: "2015-11-01T08:00:26Z" (1446364826) transition_time 0x1d4-0x1d7.7 (4)
0x1d0|                        56 e5 2c 2a            |        V.,*    |      [107]: "2016-03-13T09:00:26Z" (1457859626) transition_time 0x1d8-0x1db.7 (4)
0x1d0|                                    58 1e e3 1a|            X...|      [108]: "2016-11-06T08:00:26Z" (1478419226) transition_time 0x1dc-0x1df.7 (4)
0x1e0|58 c5 0e 2b                                    |X..+            |      [109]: "2017-03-12T09:00:27Z" (1489309227) transition_time 0x1e0-0x1e3.7 (4)
0x1e0|            59 fe c5 1b                        |    Y...        |      [110]: "2017-11-05T08:00:27Z" (1509868827) transition_time 0x1e4-0x1e7.7 (4)
0x1e0|                        5a a4 f0 2b            |        Z..+    |      [111]: "2018-03-11T09:00:27Z" (1520758827) transition_time 0x1e8-0x1eb.7 (4)
0x1e0|                                    5b de a7 1b|            [...|      [112]: "2018-11-04T08:00:27Z" (1541318427) transition_time 0x1ec-0x1ef.7 (4)
0x1f0|5c 84 d2 2b                                    |\..+            |      [113]: "2019-03-10T09:00:27Z" (1552208427) transition_time 0x1f0-0x1f3.7 (4)
0x1f0|            5d be 89 1b                        |    ]...        |      [114]: "2019-11-03T08:00:27Z" (1572768027) transition_time 0x1f4-0x1f7.7 (4)
0x1f0|                        5e 64 b4 2b            |        ^d.+    |      [115]: "2020-03-08T09:00:27Z" (1583658027) transition_time 0x1f8-0x1fb.7 (4)
0x1f0|                                    5f 9e 6b 1b|            _.k.|      [116]: "2020-11-01T08:00:27Z" (1604217627) transition_time 0x1fc-0x1ff.7 (4)
0x200|60 4d d0 ab                                    |`M..            |      [117]: "2021-03-14T09:00:27Z" (1615712427) transition_time 0x200-0x203.7 (4)
0x200|            61 87 87 9b                        |    a...        |      [118]: "2021-11-07T08:00:27Z" (1636272027) transition_time 0x204-0x207.7 (4)
0x200|                        62 2d b2 ab            |        b-..    |      [119]: "2022-03-13T09:00:27Z" (1647162027) transition_time 0x208-0x20b.7 (4)
0x200|                                    63 67 69 9b|            cgi.|      [120]: "2022-11-06T08:00:27Z" (1667721627) transition_time 0x20c-0x20f.7 (4)
0x210|64 0d 94 ab                                    |d...            |      [121]: "2023-03-12T09:00:27Z" (1678611627) transition_time 0x210-0x213.7 (4)
0x210|            64 9b 78 1b                        |    d.x.        |      [122]: "2023-06-28T00:00:27Z" (1687910427) transition_time 0x214-0x217.7 (4)
     |                                               |                |    transition_types[0:123]: 0x218-0x292.7 (123)
0x210|                        03                     |        .       |      [0]: 3 transition_type 0x218-0x218.7 (1)
0x210|                           01                  |         .      |      [1]: 1 transition_type 0x219-0x219.7 (1)
0x210|                              02               |          .     |      [2]: 2 transition_type 0x21a-0x21a.7 (1)
0x210|                                 01            |           .    |      [3]: 1 transition_type 0x21b-0x21b.7 (1)
0x210|                                    02         |            .   |      [4]: 2 transition_type 0x21c-0x21c.7 (1)
0x210|                                       06      |             .  |      [5]: 6 transition_type 0x21d-0x21d.7 (1)
0x210|                                          04   |              . |      [6]: 4 transition_type 0x21e-0x21e.7 (1)
0x210|                                             05|               .|      [7]: 5 transition_type 0x21f-0x21f.7 (1)
0x220|06                                             |.               |      [8]: 6 transition_type 0x220-0x220.7 (1)
0x220|   07                                          | .              |      [9]: 7 transition_type 0x221-0x221.7 (1)
0x220|      06                                       |  .             |      [10]: 6 transition_type 0x222-0x222.7 (1)
0x220|         07                                    |   .            |      [11]: 7 transition_type 0x223-0x223.7 (1)
0x220|            06                                 |    .           |      [12]: 6 transition_type 0x224-0x224.7 (1)
0x220|               07                              |     .          |      [13]: 7 transition_type 0x225-0x225.7 (1)
0x220|                  06                           |      .         |      [14]: 6 transition_type 0x226-0x226.7 (1)
0x220|                     07                        |       .        |      [15]: 7 transition_type 0x227-0x227.7 (1)
0x220|                        06                     |        .       |      [16]: 6 transition_type 0x228-0x228.7 (1)
0x220|                           07                  |         .      |      [17]: 7 transition_type 0x229-0x229.7 (1)
0x220|                              06               |          .     |      [18]: 6 transition_type 0x22a-0x22a.7 (1)
0x220|                                 07            |           .    |      [19]: 7 transition_type 0x22b-0x22b.7 (1)
0x220|                                    06         |            .   |      [20]: 6 transition_type 0x22c-0x22c.7 (1)
0x220|                                       07      |             .  |      [21]: 7 transition_type 0x22d-0x22d.7 (1)
0x220|                                          06   |              . |      [22]: 6 transition_type 0x22e-0x22e.7 (1)
0x220|                                             07|               .|      [23]: 7 transition_type 0x22f-0x22f.7 (1)
0x230|06                                             |.               |      [24]: 6 transition_type 0x230-0x230.7 (1)
0x230|   07                                          | .              |      [25]: 7 transition_type 0x231-0x231.7 (1)
0x230|      06                                       |  .             |      [26]: 6 transition_type 0x232-0x232.7 (1)
0x230|         07                                    |   .            |      [27]: 7 transition_type 0x233-0x233.7 (1)
0x230|            06                                 |    .           |      [28]: 6 transition_type 0x234-0x234.7 (1)
0x230|               07                              |     .          |      [29]: 7 transition_type 0x235-0x235.7 (1)
0x230|                  06                           |      .         |      [30]: 6 transition_type 0x236-0x236.7 (1)
0x230|                     07                        |       .        |      [31]: 7 transition_type 0x237-0x237.7 (1)
0x230|                        06                     |        .       |      [32]: 6 transition_type 0x238-0x238.7 (1)
0x230|                           07                  |         .      |      [33]: 7 transition_type 0x239-0x239.7 (1)
0x230|                              06               |          .     |      [34]: 6 transition_type 0x23a-0x23a.7 (1)
0x230|                                 07            |           .    |      [35]: 7 transition_type 0x23b-0x23b.7 (1)
0x230|                                    06         |            .   |      [36]: 6 transition_type 0x23c-0x23c.7 (1)
0x230|                                       07      |             .  |      [37]: 7 transition_type 0x23d-0x23d.7 (1)
0x230|                                          06   |              . |      [38]: 6 transition_type 0x23e-0x23e.7 (1)
0x230|                                             07|               .|      [39]: 7 transition_type 0x23f-0x23f.7 (1)
0x240|06                                             |.               |      [40]: 6 transition_type 0x240-0x240.7 (1)
0x240|   07                                          | .              |      [41]: 7 transition_type 0x241-0x241.7 (1)
0x240|      06                                       |  .             |      [42]: 6 transition_type 0x242-0x242.7 (1)
0x240|         07                                    |   .            |      [43]: 7 transition_type 0x243-0x243.7 (1)
0x240|            06                                 |    .           |      [44]: 6 transition_type 0x244-0x244.7 (1)
0x240|               07                              |     .          |      [45]: 7 transition_type 0x245-0x245.7 (1)
0x240|                  06                           |      .         |      [46]: 6 transition_type 0x246-0x246.7 (1)
0x240|                     07                        |       .        |      [47]: 7 transition_type 0x247-0x247.7 (1)
0x240|                        06                     |        .       |      [48]: 6 transition_type 0x248-0x248.7 (1)
0x240|                           07                  |         .      |      [49]: 7 transition_type 0x249-0x249.7 (1)
0x240|                              06               |          .     |      [50]: 6 transition_type 0x24a-0x24a.7 (1)
0x240|                                 07            |           .    |      [51]: 7 transition_type 0x24b-0x24b.7 (1)
0x240|                                    06         |            .   |      [52]: 6 transition_type 0x24c-0x24c.7 (1)
0x240|                                       07      |             .  |      [53]: 7 transition_type 0x24d-0x24d.7 (1)
0x240|                                          06   |              . |      [54]: 6 transition_type 0x24e-0x24e.7 (1)
0x240|                                             07|               .|      [55]: 7 transition_type 0x24f-0x24f.7 (1)
0x250|06                                             |.               |      [56]: 6 transition_type 0x250-0x250.7 (1)
0x250|   07                                          | .              |      [57]: 7 transition_type 0x251-0x251.7 (1)
0x250|      06                                       |  .             |      [58]: 6 transition_type 0x252-0x252.7 (1)
0x250|         07                                    |   .            |      [59]: 7 transition_type 0x253-0x253.7 (1)
0x250|            06                                 |    .           |      [60]: 6 transition_type 0x254-0x254.7 (1)
0x250|               07                              |     .          |      [61]: 7 transition_type 0x255-0x255.7 (1)
0x250|                  06                           |      .         |      [62]: 6 transition_type 0x256-0x256.7 (1)
0x250|                     07                        |       .        |      [63]: 7 transition_type 0x257-0x257.7 (1)
0x250|                        06                     |        .       |      [64]: 6 transition_type 0x258-0x258.7 (1)
0x250|                           07                  |         .      |      [65]: 7 transition_type 0x259-0x259.7 (1)
0x250|                              06               |          .     |      [66]: 6 transition_type 0x25a-0x25a.7 (1)
0x250|                                 07            |           .    |      [67]: 7 transition_type 0x25b-0x25b.7 (1)
0x250|                                    06         |            .   |      [68]: 6 transition_type 0x25c-0x25c.7 (1)
0x250|                                       07      |             .  |      [69]: 7 transition_type 0x25d-0x25d.7 (1)
0x250|                                          06   |              . |      [70]: 6 transition_type 0x25e-0x25e.7 (1)
0x250|                                             07|               .|      [71]: 7 transition_type 0x25f-0x25f.7 (1)
0x260|06                                             |.               |      [72]: 6 transition_type 0x260-0x260.7 (1)
0x260|   07                                          | .              |      [73]: 7 transition_type 0x261-0x261.7 (1)
0x260|      06                                       |  .             |      [74]: 6 transition_type 0x262-0x262.7 (1)
0x260|         07                                    |   .            |      [75]: 7 transition_type 0x263-0x263.7 (1)
0x260|            06                                 |    .           |      [76]: 6 transition_type 0x264-0x264.7 (1)
0x260|               07                              |     .          |      [77]: 7 transition_type 0x265-0x265.7 (1)
0x260|                  06                           |      .         |      [78]: 6 transition_type 0x266-0x266.7 (1)
0x260|                     07                        |       .        |      [79]: 7 transition_type 0x267-0x267.7 (1)
0x260|                        06                     |        .       |      [80]: 6 transition_type 0x268-0x268.7 (1)
0x260|                           07                  |         .      |      [81]: 7 transition_type 0x269-0x269.7 (1)
0x260|                              06               |          .     |      [82]: 6 transition_type 0x26a-0x26a.7 (1)
0x260|                                 07            |           .    |      [83]: 7 transition_type 0x26b-0x26b.7 (1)
0x260|                                    06         |            .   |      [84]: 6 transition_type 0x26c-0x26c.7 (1)
0x260|                                       07      |             .  |      [85]: 7 transition_type 0x26d-0x26d.7 (1)
0x260|                                          06   |              . |      [86]: 6 transition_type 0x26e-0x26e.7 (1)
0x260|                                             07|               .|      [87]: 7 transition_type 0x26f-0x26f.7 (1)
0x270|06                                             |.               |      [88]: 6 transition_type 0x270-0x270.7 (1)
0x270|   07                                          | .              |      [89]: 7 transition_type 0x271-0x271.7 (1)
0x270|      06                                       |  .             |      [90]: 6 transition_type 0x272-0x272.7 (1)
0x270|         07                                    |   .            |      [91]: 7 transition_type 0x273-0x273.7 (1)
0x270|            06                                 |    .           |      [92]: 6 transition_type 0x274-0x274.7 (1)
0x270|               07                              |     .          |      [93]: 7 transition_type 0x275-0x275.7 (1)
0x270|                  06                           |      .         |      [94]: 6 transition_type 0x276-0x276.7 (1)
0x270|                     07                        |       .        |      [95]: 7 transition_type 0x277-0x277.7 (1)
0x270|                        06                     |        .       |      [96]: 6 transition_type 0x278-0x278.7 (1)
0x270|                           07                  |         .      |      [97]: 7 transition_type 0x279-0x279.7 (1)
0x270|                              06               |          .     |      [98]: 6 transition_type 0x27a-0x27a.7 (1)
0x270|                                 07            |           .    |      [99]: 7 transition_type 0x27b-0x27b.7 (1)
0x270|                                    06         |            .   |      [100]: 6 transition_type 0x27c-0x27c.7 (1)
0x270|                                       07      |             .  |      [101]: 7 transition_type 0x27d-0x27d.7 (1)
0x270|                                          06   |              . |      [102]: 6 transition_type 0x27e-0x27e.7 (1)
0x270|                                             07|               .|      [103]: 7 transition_type 0x27f-0x27f.7 (1)
0x280|06                                             |.               |      [104]: 6 transition_type 0x280-0x280.7 (1)
0x280|   07                                          | .              |      [105]: 7 transition_type 0x281-0x281.7 (1)
0x280|      06                                       |  .             |      [106]: 6 transition_type 0x282-0x282.7 (1)
0x280|         07                                    |   .            |      [107]: 7 transition_type 0x283-0x283.7 (1)
0x280|            06                                 |    .           |      [108]: 6 transition_type 0x284-0x284.7 (1)
0x280|               07                              |     .          |      [109]: 7 transition_type 0x285-0x285.7 (1)
0x280|                  06                           |      .         |      [110]: 6 transition_type 0x286-0x286.7 (1)
0x280|                     07                        |       .        |      [111]: 7 transition_type 0x287-0x287.7 (1)
0x280|                        06                     |        .       |      [112]: 6 transition_type 0x288-0x288.7 (1)
0x280|                           07                  |         .      |      [113]: 7 transition_type 0x289-0x289.7 (1)
0x280|                              06               |          .     |      [114]: 6 transition_type 0x28a-0x28a.7 (1)
0x280|                                 07            |           .    |      [115]: 7 transition_type 0x28b-0x28b.7 (1)
0x280|                                    06         |            .   |      [116]: 6 transition_type 0x28c-0x28c.7 (1)
0x280|                                       07      |             .  |      [117]: 7 transition_type 0x28d-0x28d.7 (1)
0x280|                                          06   |              . |      [118]: 6 transition_type 0x28e-0x28e.7 (1)
0x280|                                             07|               .|      [119]: 7 transition_type 0x28f-0x28f.7 (1)
0x290|06                                             |.               |      [120]: 6 transition_type 0x290-0x290.7 (1)
0x290|   07                                          | .              |      [121]: 7 transition_type 0x291-0x291.7 (1)
0x290|      07                                       |  .             |      [122]: 7 transition_type 0x292-0x292.7 (1)
     |                                               |                |    local_time_type_records[0:8]: 0x293-0x2c2.7 (48)
     |                                               |                |      [0]{}: local_time_type 0x293-0x298.7 (6)
0x290|         ff ff 93 0f                           |   ....         |        utoff: -27889 (valid) 0x293-0x296.7 (4)
0x290|                     00                        |       .        |        dst: 0 (valid) 0x297-0x297.7 (1)
0x290|                        00                     |        .       |        idx: 0 (valid) 0x298-0x298.7 (1)
     |                                               |                |      [1]{}: local_time_type 0x299-0x29e.7 (6)
0x290|                           ff ff 9d 90         |         ....   |        utoff: -25200 (valid) 0x299-0x29c.7 (4)
0x290|                                       01      |             .  |        dst: 1 (valid) 0x29d-0x29d.7 (1)
0x290|                                          04   |              . |        idx: 4 (valid) 0x29e-0x29e.7 (1)
     |                                               |                |      [2]{}: local_time_type 0x29f-0x2a4.7 (6)
0x290|                                             ff|               .|        utoff: -28800 (valid) 0x29f-0x2a2.7 (4)
0x2a0|ff 8f 80                                       |...             |
0x2a0|         00                                    |   .            |        dst: 0 (valid) 0x2a3-0x2a3.7 (1)
0x2a0|            08                                 |    .           |        idx: 8 (valid) 0x2a4-0x2a4.7 (1)
     |                                               |                |      [3]{}: local_time_type 0x2a5-0x2aa.7 (6)
0x2a0|               ff ff 8f 80                     |     ....       |        utoff: -28800 (valid) 0x2a5-0x2a8.7 (4)
0x2a0|                           00                  |         .      |        dst: 0 (valid) 0x2a9-0x2a9.7 (1)
0x2a0|                              08               |          .     |        idx: 8 (valid) 0x2aa-0x2aa.7 (1)
     |                                               |                |      [4]{}: local_time_type 0x2ab-0x2b0.7 (6)
0x2a0|                                 ff ff ab a0   |           .... |        utoff: -21600 (valid) 0x2ab-0x2ae.7 (4)
0x2a0|                                             01|               .|        dst: 1 (valid) 0x2af-0x2af.7 (1)
0x2b0|0c                                             |.               |        idx: 12 (valid) 0x2b0-0x2b0.7 (1)
     |                                               |                |      [5]{}: local_time_type 0x2b1-0x2b6.7 (6)
0x2b0|   ff ff ab a0                                 | ....           |        utoff: -21600 (valid) 0x2b1-0x2b4.7 (4)
0x2b0|               01                              |     .          |        dst: 1 (valid) 0x2b5-0x2b5.7 (1)
0x2b0|                  10                           |      .         |        idx: 16 (valid) 0x2b6-0x2b6.7 (1)
     |                                               |                |      [6]{}: local_time_type 0x2b7-0x2bc.7 (6)
0x2b0|                     ff ff 9d 90               |       ....     |        utoff: -25200 (valid) 0x2b7-0x2ba.7 (4)
0x2b0|                                 00            |           .    |        dst: 0 (valid) 0x2bb-0x2bb.7 (1)
0x2b0|                                    14         |            .   |        idx: 20 (valid) 0x2bc-0x2bc.7 (1)
     |                                               |                |      [7]{}: local_time_type 0x2bd-0x2c2.7 (6)
0x2b0|                                       ff ff ab|             ...|        utoff: -21600 (valid) 0x2bd-0x2c0.7 (4)
0x2c0|a0                                             |.               |
0x2c0|   01                                          | .              |        dst: 1 (valid) 0x2c1-0x2c1.7 (1)
0x2c0|      18                                       |  .             |        idx: 24 (valid) 0x2c2-0x2c2.7 (1)
     |                                               |                |    time_zone_designations[0:7]: 0x2c3-0x2de.7 (28)
0x2c0|         4c 4d 54 00                           |   LMT.         |      [0]: "LMT" time_zone_designation 0x2c3-0x2c6.7 (4)
0x2c0|                     50 44 54 00               |       PDT.     |      [1]: "PDT" time_zone_designation 0x2c7-0x2ca.7 (4)
0x2c0|                                 50 53 54 00   |           PST. |      [2]: "PST" time_zone_designation 0x2cb-0x2ce.7 (4)
0x2c0|                                             4d|               M|      [3]: "MWT" time_zone_designation 0x2cf-0x2d2.7 (4)
0x2d0|57 54 00                                       |WT.             |
0x2d0|         4d 50 54 00                           |   MPT.         |      [4]: "MPT" time_zone_designation 0x2d3-0x2d6.7 (4)
0x2d0|                     4d 53 54 00               |       MST.     |      [5]: "MST" time_zone_designation 0x2d7-0x2da.7 (4)
0x2d0|                                 4d 44 54 00   |           MDT. |      [6]: "MDT" time_zone_designation 0x2db-0x2de.7 (4)
     |                                               |                |    leap_second_records[0:27]: 0x2df-0x3b6.7 (216)
     |                                               |                |      [0]{}: leap_second_record 0x2df-0x2e6.7 (8)
0x2d0|                                             04|               .|        occur: "1972-07-01T00:00:00Z" (78796800) 0x2df-0x2e2.7 (4)
0x2e0|b2 58 00                                       |.X.             |
0x2e0|         00 00 00 01                           |   ....         |        corr: 1 0x2e3-0x2e6.7 (4)
     |                                               |                |      [1]{}: leap_second_record 0x2e7-0x2ee.7 (8)
0x2e0|                     05 a4 ec 01               |       ....     |        occur: "1973-01-01T00:00:01Z" (94694401) 0x2e7-0x2ea.7 (4)
0x2e0|                                 00 00 00 02   |           .... |        corr: 2 0x2eb-0x2ee.7 (4)
     |                                               |                |      [2]{}: leap_second_record 0x2ef-0x2f6.7 (8)
0x2e0|                                             07|               .|        occur: "1974-01-01T00:00:02Z" (126230402) 0x2ef-0x2f2.7 (4)
0x2f0|86 1f 82                                       |...             |
0x2f0|         00 00 00 03                           |   ....         |        corr: 3 0x2f3-0x2f6.7 (4)
     |                                               |                |      [3]{}: leap_second_record 0x2f7-0x2fe.7 (8)
0x2f0|                     09 67 53 03               |       .gS.     |        occur: "1975-01-01T00:00:03Z" (157766403) 0x2f7-0x2fa.7 (4)
0x2f0|                                 00 00 00 04   |           .... |        corr: 4 0x2fb-0x2fe.7 (4)
     |                                               |                |      [4]{}: leap_second_record 0x2ff-0x306.7 (8)
0x2f0|                                             0b|               .|        occur: "1976-01-01T00:00:04Z" (189302404) 0x2ff-0x302.7 (4)
0x300|48 86 84                                       |H..             |
0x300|         00 00 00 05                           |   ....         |        corr: 5 0x303-0x306.7 (4)
     |                                               |                |      [5]{}: leap_second_record 0x307-0x30e.7 (8)
0x300|                     0d 2b 0b 85               |       .+..     |        occur: "1977-01-01T00:00:05Z" (220924805) 0x307-0x30a.7 (4)
0x300|                                 00 00 00 06   |           .... |        corr: 6 0x30b-0x30e.7 (4)
     |                                               |                |      [6]{}: leap_second_record 0x30f-0x316.7 (8)
0x300|                                             0f|               .|        occur: "1978-01-01T00:00:06Z" (252460806) 0x30f-0x312.7 (4)
0x310|0c 3f 06                                       |.?.             |
0x310|         00 00 00 07                           |   ....         |        corr: 7 0x313-0x316.7 (4)
     |                                               |                |      [7]{}: leap_second_record 0x317-0x31e.7 (8)
0x310|                     10 ed 72 87               |       ..r.     |        occur: "1979-01-01T00:00:07Z" (283996807) 0x317-0x31a.7 (4)
0x310|                                 00 00 00 08   |           .... |        corr: 8 0x31b-0x31e.7 (4)
     |                                               |                |      [8]{}: leap_second_record 0x31f-0x326.7 (8)
0x310|                                             12|               .|        occur: "1980-01-01T00:00:08Z" (315532808) 0x31f-0x322.7 (4)
0x320|ce a6 08                                       |...             |
0x320|         00 00 00 09                           |   ....         |        corr: 9 0x323-0x326.7 (4)
     |                                               |                |      [9]{}: leap_second_record 0x327-0x32e.7 (8)
0x320|                     15 9f ca 89               |       ....     |        occur: "1981-07-01T00:00:09Z" (362793609) 0x327-0x32a.7 (4)
0x320|                                 00 00 00 0a   |           .... |        corr: 10 0x32b-0x32e.7 (4)
     |                                               |                |      [10]{}: leap_second_record 0x32f-0x336.7 (8)
0x320|                                             17|               .|        occur: "1982-07-01T00:00:10Z" (394329610) 0x32f-0x332.7 (4)
0x330|80 fe 0a                                       |...             |
0x330|         00 00 00 0b                           |   ....         |        corr: 11 0x333-0x336.7 (4)
     |                                               |                |      [11]{}: leap_second_record 0x337-0x33e.7 (8)
0x330|                     19 62 31 8b               |       .b1.     |        occur: "1983-07-01T00:00:11Z" (425865611) 0x337-0x33a.7 (4)
0x330|                                 00 00 00 0c   |           .... |        corr: 12 0x33b-0x33e.7 (4)
     |                                               |                |      [12]{}: leap_second_record 0x33f-0x346.7 (8)
0x330|                                             1d|               .|        occur: "1985-07-01T00:00:12Z" (489024012) 0x33f-0x342.7 (4)
0x340|25 ea 0c                                       |%..             |
0x340|         00 00 00 0d                           |   ....         |        corr: 13 0x343-0x346.7 (4)
     |                                               |                |      [13]{}: leap_second_record 0x347-0x34e.7 (8)
0x340|                     21 da e5 0d               |       !...     |        occur: "1988-01-01T00:00:13Z" (567993613) 0x347-0x34a.7 (4)
0x340|                                 00 00 00 0e   |           .... |        corr: 14 0x34b-0x34e.7 (4)
     |                                               |                |      [14]{}: leap_second_record 0x34f-0x356.7 (8)
0x340|                                             25|               %|        occur: "1990-01-01T00:00:14Z" (631152014) 0x34f-0x352.7 (4)
0x350|9e 9d 8e                                       |...             |
0x350|         00 00 00 0f                           |   ....         |        corr: 15 0x353-0x356.7 (4)
     |                                               |                |      [15]{}: leap_second_record 0x357-0x35e.7 (8)
0x350|                     27 7f d1 0f               |       '...     |        occur: "1991-01-01T00:00:15Z" (662688015) 0x357-0x35a.7 (4)
0x350|                                 00 00 00 10   |           .... |        corr: 16 0x35b-0x35e.7 (4)
     |                                               |                |      [16]{}: leap_second_record 0x35f-0x366.7 (8)
0x350|                                             2a|               *|        occur: "1992-07-01T00:00:16Z" (709948816) 0x35f-0x362.7 (4)
0x360|50 f5 90                                       |P..             |
0x360|         00 00 00 11                           |   ....         |        corr: 17 0x363-0x366.7 (4)
     |                                               |                |      [17]{}: leap_second_record 0x367-0x36e.7 (8)
0x360|                     2c 32 29 11               |       ,2).     |        occur: "1993-07-01T00:00:17Z" (741484817) 0x367-0x36a.7 (4)
0x360|                                 00 00 00 12   |           .... |        corr: 18 0x36b-0x36e.7 (4)
     |                                               |                |      [18]{}: leap_second_record 0x36f-0x376.7 (8)
0x360|                                             2e|               .|        occur: "1994-07-01T00:00:18Z" (773020818) 0x36f-0x372.7 (4)
0x370|13 5c 92                                       |.\.             |
0x370|         00 00 00 13                           |   ....         |        corr: 19 0x373-0x376.7 (4)
     |                                               |                |      [19]{}: leap_second_record 0x377-0x37e.7 (8)
0x370|                     30 e7 24 13               |       0.$.     |        occur: "1996-01-01T00:00:19Z" (820454419) 0x377-0x37a.7 (4)
0x370|                                 00 00 00 14   |           .... |        corr: 20 0x37b-0x37e.7 (4)
     |                                               |                |      [20]{}: leap_second_record 0x37f-0x386.7 (8)
0x370|                                             33|               3|        occur: "1997-07-01T00:00:20Z" (867715220) 0x37f-0x382.7 (4)
0x380|b8 48 94                                       |.H.             |
0x380|         00 00 00 15                           |   ....         |        corr: 21 0x383-0x386.7 (4)
     |                                               |                |      [21]{}: leap_second_record 0x387-0x38e.7 (8)
0x380|                     36 8c 10 15               |       6...     |        occur: "1999-01-01T00:00:21Z" (915148821) 0x387-0x38a.7 (4)
0x380|                                 00 00 00 16   |           .... |        corr: 22 0x38b-0x38e.7 (4)
     |                                               |                |      [22]{}: leap_second_record 0x38f-0x396.7 (8)
0x380|                                             43|               C|        occur: "2006-01-01T00:00:22Z" (1136073622) 0x38f-0x392.7 (4)
0x390|b7 1b 96                                       |...             |
0x390|         00 00 00 17                           |   ....         |        corr: 23 0x393-0x396.7 (4)
     |                                               |                |      [23]{}: leap_second_record 0x397-0x39e.7 (8)
0x390|                     49 5c 07 97               |       I\..     |        occur: "2009-01-01T00:00:23Z" (1230768023) 0x397-0x39a.7 (4)
0x390|                                 00 00 00 18   |           .... |        corr: 24 0x39b-0x39e.7 (4)
     |                                               |                |      [24]{}: leap_second_record 0x39f-0x3a6.7 (8)
0x390|                                             4f|               O|        occur: "2012-07-01T00:00:24Z" (1341100824) 0x39f-0x3a2.7 (4)
0x3a0|ef 93 18                                       |...             |
0x3a0|         00 00 00 19                           |   ....         |        corr: 25 0x3a3-0x3a6.7 (4)
     |                                               |                |      [25]{}: leap_second_record 0x3a7-0x3ae.7 (8)
0x3a0|                     55 93 2d 99               |       U.-.     |        occur: "2015-07-01T00:00:25Z" (1435708825) 0x3a7-0x3aa.7 (4)
0x3a0|                                 00 00 00 1a   |           .... |        corr: 26 0x3ab-0x3ae.7 (4)
     |                                               |                |      [26]{}: leap_second_record 0x3af-0x3b6.7 (8)
0x3a0|                                             58|               X|        occur: "2017-01-01T00:00:26Z" (1483228826) 0x3af-0x3b2.7 (4)
0x3b0|68 46 9a                                       |hF.             |
0x3b0|         00 00 00 1b                           |   ....         |        corr: 27 0x3b3-0x3b6.7 (4)
     |                                               |                |    standard_wall_indicators[0:8]: 0x3b7-0x3be.7 (8)
0x3b0|                     00                        |       .        |      [0]: 0 standard_wall_indicator (valid) 0x3b7-0x3b7.7 (1)
0x3b0|                        00                     |        .       |      [1]: 0 standard_wall_indicator (valid) 0x3b8-0x3b8.7 (1)
0x3b0|                           00                  |         .      |      [2]: 0 standard_wall_indicator (valid) 0x3b9-0x3b9.7 (1)
0x3b0|                              01               |          .     |      [3]: 1 standard_wall_indicator (valid) 0x3ba-0x3ba.7 (1)
0x3b0|                                 00            |           .    |      [4]: 0 standard_wall_indicator (valid) 0x3bb-0x3bb.7 (1)
0x3b0|                                    01         |            .   |      [5]: 1 standard_wall_indicator (valid) 0x3bc-0x3bc.7 (1)
0x3b0|                                       00      |             .  |      [6]: 0 standard_wall_indicator (valid) 0x3bd-0x3bd.7 (1)
0x3b0|                                          00   |              . |      [7]: 0 standard_wall_indicator (valid) 0x3be-0x3be.7 (1)
     |                                               |                |    ut_local_indicators[0:8]: 0x3bf-0x3c6.7 (8)
0x3b0|                                             00|               .|      [0]: 0 ut_local_indicator (valid) 0x3bf-0x3bf.7 (1)
0x3c0|00                                             |.               |      [1]: 0 ut_local_indicator (valid) 0x3c0-0x3c0.7 (1)
0x3c0|   00                                          | .              |      [2]: 0 ut_local_indicator (valid) 0x3c1-0x3c1.7 (1)
0x3c0|      01                                       |  .             |      [3]: 1 ut_local_indicator (valid) 0x3c2-0x3c2.7 (1)
0x3c0|         00                                    |   .            |      [4]: 0 ut_local_indicator (valid) 0x3c3-0x3c3.7 (1)
0x3c0|            01                                 |    .           |      [5]: 1 ut_local_indicator (valid) 0x3c4-0x3c4.7 (1)
0x3c0|               00                              |     .          |      [6]: 0 ut_local_indicator (valid) 0x3c5-0x3c5.7 (1)
0x3c0|                  00                           |      .         |      [7]: 0 ut_local_indicator (valid) 0x3c6-0x3c6.7 (1)
     |                                               |                |  v2plusheader{}: 0x3c7-0x3f2.7 (44)
0x3c0|                     54 5a 69 66               |       TZif     |    magic: 0x545a6966 (valid) 0x3c7-0x3ca.7 (4)
0x3c0|                                 32            |           2    |    ver: "2" (0x32) (valid) 0x3cb-0x3cb.7 (1)
0x3c0|                                    00 00 00 00|            ....|    reserved: raw bits 0x3cc-0x3da.7 (15)
0x3d0|00 00 00 00 00 00 00 00 00 00 00               |...........     |
0x3d0|                                 00 00 00 08   |           .... |    isutcnt: 8 0x3db-0x3de.7 (4)
0x3d0|                                             00|               .|    isstdcnt: 8 0x3df-0x3e2.7 (4)
0x3e0|00 00 08                                       |...             |
0x3e0|         00 00 00 1b                           |   ....         |    leapcnt: 27 0x3e3-0x3e6.7 (4)
0x3e0|                     00 00 00 7b               |       ...{     |    timecnt: 123 0x3e7-0x3ea.7 (4)
0x3e0|                                 00 00 00 08   |           .... |    typecnt: 8 0x3eb-0x3ee.7 (4)
0x3e0|                                             00|               .|    charcnt: 28 0x3ef-0x3f2.7 (4)
0x3f0|00 00 1c                                       |...             |
     |                                               |                |  v2plusdatablock{}: 0x3f3-0x9e5.7 (1523)
     |                                               |                |    transition_times[0:123]: 0x3f3-0x7ca.7 (984)
0x3f0|         ff ff ff ff 5e 04 1a c0               |   ....^...     |      [0]: "1883-11-18T20:00:00Z" (-2717640000) transition_time 0x3f3-0x3fa.7 (8)
0x3f0|                                 ff ff ff ff 9e|           .....|      [1]: "1918-03-31T10:00:00Z" (-1633269600) transition_time 0x3fb-0x402.7 (8)
0x400|a6 48 a0                                       |.H.             |
0x400|         ff ff ff ff 9f bb 15 90               |   ........     |      [2]: "1918-10-27T09:00:00Z" (-1615129200) transition_time 0x403-0x40a.7 (8)
0x400|                                 ff ff ff ff a0|           .....|      [3]: "1919-03-30T10:00:00Z" (-1601820000) transition_time 0x40b-0x412.7 (8)
0x410|86 2a a0                                       |.*.             |
0x410|         ff ff ff ff a1 9a f7 90               |   ........     |      [4]: "1919-10-26T09:00:00Z" (-1583679600) transition_time 0x413-0x41a.7 (8)
0x410|                                 ff ff ff ff a8|           .....|      [5]: "1923-05-13T10:00:00Z" (-1471788000) transition_time 0x41b-0x422.7 (8)
0x420|46 4c 20                                       |FL              |
0x420|         ff ff ff ff cb 89 0c 90               |   ........     |      [6]: "1942-02-09T09:00:00Z" (-880210800) transition_time 0x423-0x42a.7 (8)
0x420|                                 ff ff ff ff d2|           .....|      [7]: "1945-08-14T23:00:00Z" (-769395600) transition_time 0x42b-0x432.7 (8)
0x430|23 f4 70                                       |#.p             |
0x430|         ff ff ff ff d2 61 18 00               |   .....a..     |      [8]: "1945-09-30T08:00:00Z" (-765388800) transition_time 0x433-0x43a.7 (8)
0x430|                                 ff ff ff ff fa|           .....|      [9]: "1967-04-30T09:00:00Z" (-84380400) transition_time 0x43b-0x442.7 (8)
0x440|f8 75 10                                       |.u.             |
0x440|         ff ff ff ff fb e8 58 00               |   ......X.     |      [10]: "1967-10-29T08:00:00Z" (-68659200) transition_time 0x443-0x44a.7 (8)
0x440|                                 ff ff ff ff fc|           .....|      [11]: "1968-04-28T09:00:00Z" (-52930800) transition_time 0x44b-0x452.7 (8)
0x450|d8 57 10                                       |.W.             |
0x450|         ff ff ff ff fd c8 3a 00               |   ......:.     |      [12]: "1968-10-27T08:00:00Z" (-37209600) transition_time 0x453-0x45a.7 (8)
0x450|                                 ff ff ff ff fe|           .....|      [13]: "1969-04-27T09:00:00Z" (-21481200) transition_time 0x45b-0x462.7 (8)
0x460|b8 39 10                                       |.9.             |
0x460|         ff ff ff ff ff a8 1c 00               |   ........     |      [14]: "1969-10-26T08:00:00Z" (-5760000) transition_time 0x463-0x46a.7 (8)
0x460|                                 00 00 00 00 00|           .....|      [15]: "1970-04-26T09:00:00Z" (9968400) transition_time 0x46b-0x472.7 (8)
0x470|98 1b 10                                       |...             |
0x470|         00 00 00 00 01 87 fe 00               |   ........     |      [16]: "1970-10-25T08:00:00Z" (25689600) transition_time 0x473-0x47a.7 (8)
0x470|                                 00 00 00 00 02|           .....|      [17]: "1971-04-25T09:00:00Z" (41418000) transition_time 0x47b-0x482.7 (8)
0x480|77 fd 10                                       |w..             |
0x480|         00 00 00 00 03 71 1a 80               |   .....q..     |      [18]: "1971-10-31T08:00:00Z" (57744000) transition_time 0x483-0x48a.7 (8)
0x480|                                 00 00 00 00 04|           .....|      [19]: "1972-04-30T09:00:00Z" (73472400) transition_time 0x48b-0x492.7 (8)
0x490|61 19 90                                       |a..             |
0x490|         00 00 00 00 05 50 fc 81               |   .....P..     |      [20]: "1972-10-29T08:00:01Z" (89193601) transition_time 0x493-0x49a.7 (8)
0x490|                                 00 00 00 00 06|           .....|      [21]: "1973-04-29T09:00:02Z" (104922002) transition_time 0x49b-0x4a2.7 (8)
0x4a0|40 fb 92                                       |@..             |
0x4a0|         00 00 00 00 07 30 de 82               |   .....0..     |      [22]: "1973-10-28T08:00:02Z" (120643202) transition_time 0x4a3-0x4aa.7 (8)
0x4a0|                                 00 00 00 00 07|           .....|      [23]: "1974-02-03T09:00:03Z" (129114003) transition_time 0x4ab-0x4b2.7 (8)
0x4b0|b2 1f 93                                       |...             |
0x4b0|         00 00 00 00 09 10 c0 83               |   ........     |      [24]: "1974-10-27T08:00:03Z" (152092803) transition_time 0x4b3-0x4ba.7 (8)
0x4b0|                                 00 00 00 00 09|           .....|      [25]: "1975-02-23T09:00:04Z" (162378004) transition_time 0x4bb-0x4c2.7 (8)
0x4c0|ad b1 14                                       |...             |
0x4c0|         00 00 00 00 0a f0 a2 84               |   ........     |      [26]: "1975-10-26T08:00:04Z" (183542404) transition_time 0x4c3-0x4ca.7 (8)
0x4c0|                                 00 00 00 00 0b|           .....|      [27]: "1976-04-25T09:00:05Z" (199270805) transition_time 0x4cb-0x4d2.7 (8)
0x4d0|e0 a1 95                                       |...             |
0x4d0|         00 00 00 00 0c d9 bf 05               |   ........     |      [28]: "1976-10-31T08:00:05Z" (215596805) transition_time 0x4d3-0x4da.7 (8)
0x4d0|                                 00 00 00 00 0d|           .....|      [29]: "1977-04-24T09:00:06Z" (230720406) transition_time 0x4db-0x4e2.7 (8)
0x4e0|c0 83 96                                       |...             |
0x4e0|         00 00 00 00 0e b9 a1 06               |   ........     |      [30]: "1977-10-30T08:00:06Z" (247046406) transition_time 0x4e3-0x4ea.7 (8)
0x4e0|                                 00 00 00 00 0f|           .....|      [31]: "1978-04-30T09:00:07Z" (262774807) transition_time 0x4eb-0x4f2.7 (8)
0x4f0|a9 a0 17                                       |...             |
0x4f0|         00 00 00 00 10 99 83 07               |   ........     |      [32]: "1978-10-29T08:00:07Z" (278496007) transition_time 0x4f3-0x4fa.7 (8)
0x4f0|                                 00 00 00 00 11|           .....|      [33]: "1979-04-29T09:00:08Z" (294224408) transition_time 0x4fb-0x502.7 (8)
0x500|89 82 18                                       |...             |
0x500|         00 00 00 00 12 79 65 08               |   .....ye.     |      [34]: "1979-10-28T08:00:08Z" (309945608) transition_time 0x503-0x50a.7 (8)
0x500|                                 00 00 00 00 13|           .....|      [35]: "1980-04-27T09:00:09Z" (325674009) transition_time 0x50b-0x512.7 (8)
0x510|69 64 19                                       |id.             |
0x510|         00 00 00 00 14 59 47 09               |   .....YG.     |      [36]: "1980-10-26T08:00:09Z" (341395209) transition_time 0x513-0x51a.7 (8)
0x510|                                 00 00 00 00 15|           .....|      [37]: "1981-04-26T09:00:09Z" (357123609) transition_time 0x51b-0x522.7 (8)
0x520|49 46 19                                       |IF.             |
0x520|         00 00 00 00 16 39 29 0a               |   .....9).     |      [38]: "1981-10-25T08:00:10Z" (372844810) transition_time 0x523-0x52a.7 (8)
0x520|                                 00 00 00 00 17|           .....|      [39]: "1982-04-25T09:00:10Z" (388573210) transition_time 0x52b-0x532.7 (8)
0x530|29 28 1a                                       |)(.             |
0x530|         00 00 00 00 18 22 45 8b               |   ....."E.     |      [40]: "1982-10-31T08:00:11Z" (404899211) transition_time 0x533-0x53a.7 (8)
0x530|                                 00 00 00 00 19|           .....|      [41]: "1983-04-24T09:00:11Z" (420022811) transition_time 0x53b-0x542.7 (8)
0x540|09 0a 1b                                       |...             |
0x540|         00 00 00 00 1a 02 27 8c               |   ......'.     |      [42]: "1983-10-30T08:00:12Z" (436348812) transition_time 0x543-0x54a.7 (8)
0x540|                                 00 00 00 00 1a|           .....|      [43]: "1984-04-29T09:00:12Z" (452077212) transition_time 0x54b-0x552.7 (8)
0x550|f2 26 9c                                       |.&.             |
0x550|         00 00 00 00 1b e2 09 8c               |   ........     |      [44]: "1984-10-28T08:00:12Z" (467798412) transition_time 0x553-0x55a.7 (8)
0x550|                                 00 00 00 00 1c|           .....|      [45]: "1985-04-28T09:00:12Z" (483526812) transition_time 0x55b-0x562.7 (8)
0x560|d2 08 9c                                       |...             |
0x560|         00 00 00 00 1d c1 eb 8d               |   ........     |      [46]: "1985-10-27T08:00:13Z" (499248013) transition_time 0x563-0x56a.7 (8)
0x560|                                 00 00 00 00 1e|           .....|      [47]: "1986-04-27T09:00:13Z" (514976413) transition_time 0x56b-0x572.7 (8)
0x570|b1 ea 9d                                       |...             |
0x570|         00 00 00 00 1f a1 cd 8d               |   ........     |      [48]: "1986-10-26T08:00:13Z" (530697613) transition_time 0x573-0x57a.7 (8)
0x570|                                 00 00 00 00 20|           .... |      [49]: "1987-04-05T09:00:13Z" (544611613) transition_time 0x57b-0x582.7 (8)
0x580|76 1d 1d                                       |v..             |
0x580|         00 00 00 00 21 81 af 8d               |   ....!...     |      [50]: "1987-10-25T08:00:13Z" (562147213) transition_time 0x583-0x58a.7 (8)
0x580|                                 00 00 00 00 22|           ...."|      [51]: "1988-04-03T09:00:14Z" (576061214) transition_time 0x58b-0x592.7 (8)
0x590|55 ff 1e                                       |U..             |
0x590|         00 00 00 00 23 6a cc 0e               |   ....#j..     |      [52]: "1988-10-30T08:00:14Z" (594201614) transition_time 0x593-0x59a.7 (8)
0x590|                                 00 00 00 00 24|           ....$|      [53]: "1989-04-02T09:00:14Z" (607510814) transition_time 0x59b-0x5a2.7 (8)
0x5a0|35 e1 1e                                       |5..             |
0x5a0|         00 00 00 00 25 4a ae 0e               |   ....%J..     |      [54]: "1989-10-29T08:00:14Z" (625651214) transition_time 0x5a3-0x5aa.7 (8)
0x5a0|                                 00 00 00 00 26|           ....&|      [55]: "1990-04-01T09:00:15Z" (638960415) transition_time 0x5ab-0x5b2.7 (8)
0x5b0|15 c3 1f                                       |...             |
0x5b0|         00 00 00 00 27 2a 90 0f               |   ....'*..     |      [56]: "1990-10-28T08:00:15Z" (657100815) transition_time 0x5b3-0x5ba.7 (8)
0x5b0|                                 00 00 00 00 27|           ....'|      [57]: "1991-04-07T09:00:16Z" (671014816) transition_time 0x5bb-0x5c2.7 (8)
0x5c0|fe df a0                                       |...             |
0x5c0|         00 00 00 00 29 0a 72 10               |   ....).r.     |      [58]: "1991-10-27T08:00:16Z" (688550416) transition_time 0x5c3-0x5ca.7 (8)
0x5c0|                                 00 00 00 00 29|           ....)|      [59]: "1992-04-05T09:00:16Z" (702464416) transition_time 0x5cb-0x5d2.7 (8)
0x5d0|de c1 a0                                       |...             |
0x5d0|         00 00 00 00 2a ea 54 11               |   ....*.T.     |      [60]: "1992-10-25T08:00:17Z" (720000017) transition_time 0x5d3-0x5da.7 (8)
0x5d0|                                 00 00 00 00 2b|           ....+|      [61]: "1993-04-04T09:00:17Z" (733914017) transition_time 0x5db-0x5e2.7 (8)
0x5e0|be a3 a1                                       |...             |
0x5e0|         00 00 00 00 2c d3 70 92               |   ....,.p.     |      [62]: "1993-10-31T08:00:18Z" (752054418) transition_time 0x5e3-0x5ea.7 (8)
0x5e0|                                 00 00 00 00 2d|           ....-|      [63]: "1994-04-03T09:00:18Z" (765363618) transition_time 0x5eb-0x5f2.7 (8)
0x5f0|9e 85 a2                                       |...             |
0x5f0|         00 00 00 00 2e b3 52 93               |   ......R.     |      [64]: "1994-10-30T08:00:19Z" (783504019) transition_time 0x5f3-0x5fa.7 (8)
0x5f0|                                 00 00 00 00 2f|           ..../|      [65]: "1995-04-02T09:00:19Z" (796813219) transition_time 0x5fb-0x602.7 (8)
0x600|7e 67 a3                                       |~g.             |
0x600|         00 00 00 00 30 93 34 93               |   ....0.4.     |      [66]: "1995-10-29T08:00:19Z" (814953619) transition_time 0x603-0x60a.7 (8)
0x600|                                 00 00 00 00 31|           ....1|      [67]: "1996-04-07T09:00:20Z" (828867620) transition_time 0x60b-0x612.7 (8)
0x610|67 84 24                                       |g.$             |
0x610|         00 00 00 00 32 73 16 94               |   ....2s..     |      [68]: "1996-10-27T08:00:20Z" (846403220) transition_time 0x613-0x61a.7 (8)
0x610|                                 00 00 00 00 33|           ....3|      [69]: "1997-04-06T09:00:20Z" (860317220) transition_time 0x61b-0x622.7 (8)
0x620|47 66 24                                       |Gf$             |
0x620|         00 00 00 00 34 52 f8 95               |   ....4R..     |      [70]: "1997-10-26T08:00:21Z" (877852821) transition_time 0x623-0x62a.7 (8)
0x620|                                 00 00 00 00 35|           ....5|      [71]: "1998-04-05T09:00:21Z" (891766821) transition_time 0x62b-0x632.7 (8)
0x630|27 48 25                                       |'H%             |
0x630|         00 00 00 00 36 32 da 95               |   ....62..     |      [72]: "1998-10-25T08:00:21Z" (909302421) transition_time 0x633-0x63a.7 (8)
0x630|                                 00 00 00 00 37|           ....7|      [73]: "1999-04-04T09:00:22Z" (923216422) transition_time 0x63b-0x642.7 (8)
0x640|07 2a 26                                       |.*&             |
0x640|         00 00 00 00 38 1b f7 16               |   ....8...     |      [74]: "1999-10-31T08:00:22Z" (941356822) transition_time 0x643-0x64a.7 (8)
0x640|                                 00 00 00 00 38|           ....8|      [75]: "2000-04-02T09:00:22Z" (954666022) transition_time 0x64b-0x652.7 (8)
0x650|e7 0c 26                                       |..&             |
0x650|         00 00 00 00 39 fb d9 16               |   ....9...     |      [76]: "2000-10-29T08:00:22Z" (972806422) transition_time 0x653-0x65a.7 (8)
0x650|                                 00 00 00 00 3a|           ....:|      [77]: "2001-04-01T09:00:22Z" (986115622) transition_time 0x65b-0x662.7 (8)
0x660|c6 ee 26                                       |..&             |
0x660|         00 00 00 00 3b db bb 16               |   ....;...     |      [78]: "2001-10-28T08:00:22Z" (1004256022) transition_time 0x663-0x66a.7 (8)
0x660|                                 00 00 00 00 3c|           ....<|      [79]: "2002-04-07T09:00:22Z" (1018170022) transition_time 0x66b-0x672.7 (8)
0x670|b0 0a a6                                       |...             |
0x670|         00 00 00 00 3d bb 9d 16               |   ....=...     |      [80]: "2002-10-27T08:00:22Z" (1035705622) transition_time 0x673-0x67a.7 (8)
0x670|                                 00 00 00 00 3e|           ....>|      [81]: "2003-04-06T09:00:22Z" (1049619622) transition_time 0x67b-0x682.7 (8)
0x680|8f ec a6                                       |...             |
0x680|         00 00 00 00 3f 9b 7f 16               |   ....?...     |      [82]: "2003-10-26T08:00:22Z" (1067155222) transition_time 0x683-0x68a.7 (8)
0x680|                                 00 00 00 00 40|           ....@|      [83]: "2004-04-04T09:00:22Z" (1081069222) transition_time 0x68b-0x692.7 (8)
0x690|6f ce a6                                       |o..             |
0x690|         00 00 00 00 41 84 9b 96               |   ....A...     |      [84]: "2004-10-31T08:00:22Z" (1099209622) transition_time 0x693-0x69a.7 (8)
0x690|                                 00 00 00 00 42|           ....B|      [85]: "2005-04-03T09:00:22Z" (1112518822) transition_time 0x69b-0x6a2.7 (8)
0x6a0|4f b0 a6                                       |O..             |
0x6a0|         00 00 00 00 43 64 7d 96               |   ....Cd}.     |      [86]: "2005-10-30T08:00:22Z" (1130659222) transition_time 0x6a3-0x6aa.7 (8)
0x6a0|                                 00 00 00 00 44|           ....D|      [87]: "2006-04-02T09:00:23Z" (1143968423) transition_time 0x6ab-0x6b2.7 (8)
0x6b0|2f 92 a7                                       |/..             |
0x6b0|         00 00 00 00 45 44 5f 97               |   ....ED_.     |      [88]: "2006-10-29T08:00:23Z" (1162108823) transition_time 0x6b3-0x6ba.7 (8)
0x6b0|                                 00 00 00 00 45|           ....E|      [89]: "2007-03-11T09:00:23Z" (1173603623) transition_time 0x6bb-0x6c2.7 (8)
0x6c0|f3 c5 27                                       |..'             |
0x6c0|         00 00 00 00 47 2d 7c 17               |   ....G-|.     |      [90]: "2007-11-04T08:00:23Z" (1194163223) transition_time 0x6c3-0x6ca.7 (8)
0x6c0|                                 00 00 00 00 47|           ....G|      [91]: "2008-03-09T09:00:23Z" (1205053223) transition_time 0x6cb-0x6d2.7 (8)
0x6d0|d3 a7 27                                       |..'             |
0x6d0|         00 00 00 00 49 0d 5e 17               |   ....I.^.     |      [92]: "2008-11-02T08:00:23Z" (1225612823) transition_time 0x6d3-0x6da.7 (8)
0x6d0|                                 00 00 00 00 49|           ....I|      [93]: "2009-03-08T09:00:24Z" (1236502824) transition_time 0x6db-0x6e2.7 (8)
0x6e0|b3 89 28                                       |..(             |
0x6e0|         00 00 00 00 4a ed 40 18               |   ....J.@.     |      [94]: "2009-11-01T08:00:24Z" (1257062424) transition_time 0x6e3-0x6ea.7 (8)
0x6e0|                                 00 00 00 00 4b|           ....K|      [95]: "2010-03-14T09:00:24Z" (1268557224) transition_time 0x6eb-0x6f2.7 (8)
0x6f0|9c a5 a8                                       |...             |
0x6f0|         00 00 00 00 4c d6 5c 98               |   ....L.\.     |      [96]: "2010-11-07T08:00:24Z" (1289116824) transition_time 0x6f3-0x6fa.7 (8)
0x6f0|                                 00 00 00 00 4d|           ....M|      [97]: "2011-03-13T09:00:24Z" (1300006824) transition_time 0x6fb-0x702.7 (8)
0x700|7c 87 a8                                       ||..             |
0x700|         00 00 00 00 4e b6 3e 98               |   ....N.>.     |      [98]: "2011-11-06T08:00:24Z" (1320566424) transition_time 0x703-0x70a.7 (8)
0x700|                                 00 00 00 00 4f|           ....O|      [99]: "2012-03-11T09:00:24Z" (1331456424) transition_time 0x70b-0x712.7 (8)
0x710|5c 69 a8                                       |\i.             |
0x710|         00 00 00 00 50 96 20 99               |   ....P. .     |      [100]: "2012-11-04T08:00:25Z" (1352016025) transition_time 0x713-0x71a.7 (8)
0x710|                                 00 00 00 00 51|           ....Q|      [101]: "2013-03-10T09:00:25Z" (1362906025) transition_time 0x71b-0x722.7 (8)
0x720|3c 4b a9                                       |<K.             |
0x720|         00 00 00 00 52 76 02 99               |   ....Rv..     |      [102]: "2013-11-03T08:00:25Z" (1383465625) transition_time 0x723-0x72a.7 (8)
0x720|                                 00 00 00 00 53|           ....S|      [103]: "2014-03-09T09:00:25Z" (1394355625) transition_time 0x72b-0x732.7 (8)
0x730|1c 2d a9                                       |.-.             |
0x730|         00 00 00 00 54 55 e4 99               |   ....TU..     |      [104]: "2014-11-02T08:00:25Z" (1414915225) transition_time 0x733-0x73a.7 (8)
0x730|                                 00 00 00 00 54|           ....T|      [105]: "2015-03-08T09:00:25Z" (1425805225) transition_time 0x73b-0x742.7 (8)
0x740|fc 0f a9                                       |...             |
0x740|         00 00 00 00 56 35 c6 9a               |   ....V5..     |      [106]: "2015-11-01T08:00:26Z" (1446364826) transition_time 0x743-0x74a.7 (8)
0x740|                                 00 00 00 00 56|           ....V|      [107]: "2016-03-13T09:00:26Z" (1457859626) transition_time 0x74b-0x752.7 (8)
0x750|e5 2c 2a                                       |.,*             |
0x750|         00 00 00 00 58 1e e3 1a               |   ....X...     |      [108]: "2016-11-06T08:00:26Z" (1478419226) transition_time 0x753-0x75a.7 (8)
0x750|                                 00 00 00 00 58|           ....X|      [109]: "2017-03-12T09:00:27Z" (1489309227) transition_time 0x75b-0x762.7 (8)
0x760|c5 0e 2b                                       |..+             |
0x760|         00 00 00 00 59 fe c5 1b               |   ....Y...     |      [110]: "2017-11-05T08:00:27Z" (1509868827) transition_time 0x763-0x76a.7 (8)
0x760|                                 00 00 00 00 5a|           ....Z|      [111]: "2018-03-11T09:00:27Z" (1520758827) transition_time 0x76b-0x772.7 (8)
0x770|a4 f0 2b                                       |..+             |
0x770|         00 00 00 00 5b de a7 1b               |   ....[...     |      [112]: "2018-11-04T08:00:27Z" (1541318427) transition_time 0x773-0x77a.7 (8)
0x770|                                 00 00 00 00 5c|           ....\|      [113]: "2019-03-10T09:00:27Z" (1552208427) transition_time 0x77b-0x782.7 (8)
0x780|84 d2 2b                                       |..+             |
0x780|         00 00 00 00 5d be 89 1b               |   ....]...     |      [114]: "2019-11-03T08:00:27Z" (1572768027) transition_time 0x783-0x78a.7 (8)
0x780|                                 00 00 00 00 5e|           ....^|      [115]: "2020-03-08T09:00:27Z" (1583658027) transition_time 0x78b-0x792.7 (8)
0x790|64 b4 2b                                       |d.+             |
0x790|         00 00 00 00 5f 9e 6b 1b               |   ...._.k.     |      [116]: "2020-11-01T08:00:27Z" (1604217627) transition_time 0x793-0x79a.7 (8)
0x790|                                 00 00 00 00 60|           ....`|      [117]: "2021-03-14T09:00:27Z" (1615712427) transition_time 0x79b-0x7a2.7 (8)
0x7a0|4d d0 ab                                       |M..             |
0x7a0|         00 00 00 00 61 87 87 9b               |   ....a...     |      [118]: "2021-11-07T08:00:27Z" (1636272027) transition_time 0x7a3-0x7aa.7 (8)
0x7a0|                                 00 00 00 00 62|           ....b|      [119]: "2022-03-13T09:00:27Z" (1647162027) transition_time 0x7ab-0x7b2.7 (8)
0x7b0|2d b2 ab                                       |-..             |
0x7b0|         00 00 00 00 63 67 69 9b               |   ....cgi.     |      [120]: "2022-11-06T08:00:27Z" (1667721627) transition_time 0x7b3-0x7ba.7 (8)
0x7b0|                                 00 00 00 00 64|           ....d|      [121]: "2023-03-12T09:00:27Z" (1678611627) transition_time 0x7bb-0x7c2.7 (8)
0x7c0|0d 94 ab                                       |...             |
0x7c0|         00 00 00 00 64 9b 78 1b               |   ....d.x.     |      [122]: "2023-06-28T00:00:27Z" (1687910427) transition_time 0x7c3-0x7ca.7 (8)
     |                                               |                |    transition_types[0:123]: 0x7cb-0x845.7 (123)
0x7c0|                                 03            |           .    |      [0]: 3 transition_type 0x7cb-0x7cb.7 (1)
0x7c0|                                    01         |            .   |      [1]: 1 transition_type 0x7cc-0x7cc.7 (1)
0x7c0|                                       02      |             .  |      [2]: 2 transition_type 0x7cd-0x7cd.7 (1)
0x7c0|                                          01   |              . |      [3]: 1 transition_type 0x7ce-0x7ce.7 (1)
0x7c0|                                             02|               .|      [4]: 2 transition_type 0x7cf-0x7cf.7 (1)
0x7d0|06                                             |.               |      [5]: 6 transition_type 0x7d0-0x7d0.7 (1)
0x7d0|   04                                          | .              |      [6]: 4 transition_type 0x7d1-0x7d1.7 (1)
0x7d0|      05                                       |  .             |      [7]: 5 transition_type 0x7d2-0x7d2.7 (1)
0x7d0|         06                                    |   .            |      [8]: 6 transition_type 0x7d3-0x7d3.7 (1)
0x7d0|            07                                 |    .           |      [9]: 7 transition_type 0x7d4-0x7d4.7 (1)
0x7d0|               06                              |     .          |      [10]: 6 transition_type 0x7d5-0x7d5.7 (1)
0x7d0|                  07                           |      .         |      [11]: 7 transition_type 0x7d6-0x7d6.7 (1)
0x7d0|                     06                        |       .        |      [12]: 6 transition_type 0x7d7-0x7d7.7 (1)
0x7d0|                        07                     |        .       |      [13]: 7 transition_type 0x7d8-0x7d8.7 (1)
0x7d0|                           06                  |         .      |      [14]: 6 transition_type 0x7d9-0x7d9.7 (1)
0x7d0|                              07               |          .     |      [15]: 7 transition_type 0x7da-0x7da.7 (1)
0x7d0|                                 06            |           .    |      [16]: 6 transition_type 0x7db-0x7db.7 (1)
0x7d0|                                    07         |            .   |      [17]: 7 transition_type 0x7dc-0x7dc.7 (1)
0x7d0|                                       06      |             .  |      [18]: 6 transition_type 0x7dd-0x7dd.7 (1)
0x7d0|                                          07   |              . |      [19]: 7 transition_type 0x7de-0x7de.7 (1)
0x7d0|                                             06|               .|      [20]: 6 transition_type 0x7df-0x7df.7 (1)
0x7e0|07                                             |.               |      [21]: 7 transition_type 0x7e0-0x7e0.7 (1)
0x7e0|   06                                          | .              |      [22]: 6 transition_type 0x7e1-0x7e1.7 (1)
0x7e0|      07                                       |  .             |      [23]: 7 transition_type 0x7e2-0x7e2.7 (1)
0x7e0|         06                                    |   .            |      [24]: 6 transition_type 0x7e3-0x7e3.7 (1)
0x7e0|            07                                 |    .           |      [25]: 7 transition_type 0x7e4-0x7e4.7 (1)
0x7e0|               06                              |     .          |      [26]: 6 transition_type 0x7e5-0x7e5.7 (1)
0x7e0|                  07                           |      .         |      [27]: 7 transition_type 0x7e6-0x7e6.7 (1)
0x7e0|                     06                        |       .        |      [28]: 6 transition_type 0x7e7-0x7e7.7 (1)
0x7e0|                        07                     |        .       |      [29]: 7 transition_type 0x7e8-0x7e8.7 (1)
0x7e0|                           06                  |         .      |      [30]: 6 transition_type 0x7e9-0x7e9.7 (1)
0x7e0|                              07               |          .     |      [31]: 7 transition_type 0x7ea-0x7ea.7 (1)
0x7e0|                                 06            |           .    |      [32]: 6 transition_type 0x7eb-0x7eb.7 (1)
0x7e0|                                    07         |            .   |      [33]: 7 transition_type 0x7ec-0x7ec.7 (1)
0x7e0|                                       06      |             .  |      [34]: 6 transition_type 0x7ed-0x7ed.7 (1)
0x7e0|                                          07   |              . |      [35]: 7 transition_type 0x7ee-0x7ee.7 (1)
0x7e0|                                             06|               .|      [36]: 6 transition_type 0x7ef-0x7ef.7 (1)
0x7f0|07                                             |.               |      [37]: 7 transition_type 0x7f0-0x7f0.7 (1)
0x7f0|   06                                          | .              |      [38]: 6 transition_type 0x7f1-0x7f1.7 (1)
0x7f0|      07                                       |  .             |      [39]: 7 transition_type 0x7f2-0x7f2.7 (1)
0x7f0|         06                                    |   .            |      [40]: 6 transition_type 0x7f3-0x7f3.7 (1)
0x7f0|            07                                 |    .           |      [41]: 7 transition_type 0x7f4-0x7f4.7 (1)
0x7f0|               06                              |     .          |      [42]: 6 transition_type 0x7f5-0x7f5.7 (1)
0x7f0|                  07                           |      .         |      [43]: 7 transition_type 0x7f6-0x7f6.7 (1)
0x7f0|                     06                        |       .        |      [44]: 6 transition_type 0x7f7-0x7f7.7 (1)
0x7f0|                        07                     |        .       |      [45]: 7 transition_type 0x7f8-0x7f8.7 (1)
0x7f0|                           06                  |         .      |      [46]: 6 transition_type 0x7f9-0x7f9.7 (1)
0x7f0|                              07               |          .     |      [47]: 7 transition_type 0x7fa-0x7fa.7 (1)
0x7f0|                                 06            |           .    |      [48]: 6 transition_type 0x7fb-0x7fb.7 (1)
0x7f0|                                    07         |            .   |      [49]: 7 transition_type 0x7fc-0x7fc.7 (1)
0x7f0|                                       06      |             .  |      [50]: 6 transition_type 0x7fd-0x7fd.7 (1)
0x7f0|                                          07   |              . |      [51]: 7 transition_type 0x7fe-0x7fe.7 (1)
0x7f0|                                             06|               .|      [52]: 6 transition_type 0x7ff-0x7ff.7 (1)
0x800|07                                             |.               |      [53]: 7 transition_type 0x800-0x800.7 (1)
0x800|   06                                          | .              |      [54]: 6 transition_type 0x801-0x801.7 (1)
0x800|      07                                       |  .             |      [55]: 7 transition_type 0x802-0x802.7 (1)
0x800|         06                                    |   .            |      [56]: 6 transition_type 0x803-0x803.7 (1)
0x800|            07                                 |    .           |      [57]: 7 transition_type 0x804-0x804.7 (1)
0x800|               06                              |     .          |      [58]: 6 transition_type 0x805-0x805.7 (1)
0x800|                  07                           |      .         |      [59]: 7 transition_type 0x806-0x806.7 (1)
0x800|                     06                        |       .        |      [60]: 6 transition_type 0x807-0x807.7 (1)
0x800|                        07                     |        .       |      [61]: 7 transition_type 0x808-0x808.7 (1)
0x800|                           06                  |         .      |      [62]: 6 transition_type 0x809-0x809.7 (1)
0x800|                              07               |          .     |      [63]: 7 transition_type 0x80a-0x80a.7 (1)
0x800|                                 06            |           .    |      [64]: 6 transition_type 0x80b-0x80b.7 (1)
0x800|                                    07         |            .   |      [65]: 7 transition_type 0x80c-0x80c.7 (1)
0x800|                                       06      |             .  |      [66]: 6 transition_type 0x80d-0x80d.7 (1)
0x800|                                          07   |              . |      [67]: 7 transition_type 0x80e-0x80e.7 (1)
0x800|                                             06|               .|      [68]: 6 transition_type 0x80f-0x80f.7 (1)
0x810|07                                             |.               |      [69]: 7 transition_type 0x810-0x810.7 (1)
0x810|   06                                          | .              |      [70]: 6 transition_type 0x811-0x811.7 (1)
0x810|      07                                       |  .             |      [71]: 7 transition_type 0x812-0x812.7 (1)
0x810|         06                                    |   .            |      [72]: 6 transition_type 0x813-0x813.7 (1)
0x810|            07                                 |    .           |      [73]: 7 transition_type 0x814-0x814.7 (1)
0x810|               06                              |     .          |      [74]: 6 transition_type 0x815-0x815.7 (1)
0x810|                  07                           |      .         |      [75]: 7 transition_type 0x816-0x816.7 (1)
0x810|                     06                        |       .        |      [76]: 6 transition_type 0x817-0x817.7 (1)
0x810|                        07                     |        .       |      [77]: 7 transition_type 0x818-0x818.7 (1)
0x810|                           06                  |         .      |      [78]: 6 transition_type 0x819-0x819.7 (1)
0x810|                              07               |          .     |      [79]: 7 transition_type 0x81a-0x81a.7 (1)
0x810|                                 06            |           .    |      [80]: 6 transition_type 0x81b-0x81b.7 (1)
0x810|                                    07         |            .   |      [81]: 7 transition_type 0x81c-0x81c.7 (1)
0x810|                                       06      |             .  |      [82]: 6 transition_type 0x81d-0x81d.7 (1)
0x810|                                          07   |              . |      [83]: 7 transition_type 0x81e-0x81e.7 (1)
0x810|                                             06|               .|      [84]: 6 transition_type 0x81f-0x81f.7 (1)
0x820|07                                             |.               |      [85]: 7 transition_type 0x820-0x820.7 (1)
0x820|   06                                          | .              |      [86]: 6 transition_type 0x821-0x821.7 (1)
0x820|      07                                       |  .             |      [87]: 7 transition_type 0x822-0x822.7 (1)
0x820|         06                                    |   .            |      [88]: 6 transition_type 0x823-0x823.7 (1)
0x820|            07                                 |    .           |      [89]: 7 transition_type 0x824-0x824.7 (1)
0x820|               06                              |     .          |      [90]: 6 transition_type 0x825-0x825.7 (1)
0x820|                  07                           |      .         |      [91]: 7 transition_type 0x826-0x826.7 (1)
0x820|                     06                        |       .        |      [92]: 6 transition_type 0x827-0x827.7 (1)
0x820|                        07                     |        .       |      [93]: 7 transition_type 0x828-0x828.7 (1)
0x820|                           06                  |         .      |      [94]: 6 transition_type 0x829-0x829.7 (1)
0x820|                              07               |          .     |      [95]: 7 transition_type 0x82a-0x82a.7 (1)
0x820|                                 06            |           .    |      [96]: 6 transition_type 0x82b-0x82b.7 (1)
0x820|                                    07         |            .   |      [97]: 7 transition_type 0x82c-0x82c.7 (1)
0x820|                                       06      |             .  |      [98]: 6 transition_type 0x82d-0x82d.7 (1)
0x820|                                          07   |              . |      [99]: 7 transition_type 0x82e-0x82e.7 (1)
0x820|                                             06|               .|      [100]: 6 transition_type 0x82f-0x82f.7 (1)
0x830|07                                             |.               |      [101]: 7 transition_type 0x830-0x830.7 (1)
0x830|   06                                          | .              |      [102]: 6 transition_type 0x831-0x831.7 (1)
0x830|      07                                       |  .             |      [103]: 7 transition_type 0x832-0x832.7 (1)
0x830|         06                                    |   .            |      [104]: 6 transition_type 0x833-0x833.7 (1)
0x830|            07                                 |    .           |      [105]: 7 transition_type 0x834-0x834.7 (1)
0x830|               06                              |     .          |      [106]: 6 transition_type 0x835-0x835.7 (1)
0x830|                  07                           |      .         |      [107]: 7 transition_type 0x836-0x836.7 (1)
0x830|                     06                        |       .        |      [108]: 6 transition_type 0x837-0x837.7 (1)
0x830|                        07                     |        .       |      [109]: 7 transition_type 0x838-0x838.7 (1)
0x830|                           06                  |         .      |      [110]: 6 transition_type 0x839-0x839.7 (1)
0x830|                              07               |          .     |      [111]: 7 transition_type 0x83a-0x83a.7 (1)
0x830|                                 06            |           .    |      [112]: 6 transition_type 0x83b-0x83b.7 (1)
0x830|                                    07         |            .   |      [113]: 7 transition_type 0x83c-0x83c.7 (1)
0x830|                                       06      |             .  |      [114]: 6 transition_type 0x83d-0x83d.7 (1)
0x830|                                          07   |              . |      [115]: 7 transition_type 0x83e-0x83e.7 (1)
0x830|                                             06|               .|      [116]: 6 transition_type 0x83f-0x83f.7 (1)
0x840|07                                             |.               |      [117]: 7 transition_type 0x840-0x840.7 (1)
0x840|   06                                          | .              |      [118]: 6 transition_type 0x841-0x841.7 (1)
0x840|      07                                       |  .             |      [119]: 7 transition_type 0x842-0x842.7 (1)
0x840|         06                                    |   .            |      [120]: 6 transition_type 0x843-0x843.7 (1)
0x840|            07                                 |    .           |      [121]: 7 transition_type 0x844-0x844.7 (1)
0x840|               07                              |     .          |      [122]: 7 transition_type 0x845-0x845.7 (1)
     |                                               |                |    local_time_type_records[0:8]: 0x846-0x875.7 (48)
     |                                               |                |      [0]{}: local_time_type 0x846-0x84b.7 (6)
0x840|                  ff ff 93 0f                  |      ....      |        utoff: -27889 (valid) 0x846-0x849.7 (4)
0x840|                              00               |          .     |        dst: 0 (valid) 0x84a-0x84a.7 (1)
0x840|                                 00            |           .    |        idx: 0 (valid) 0x84b-0x84b.7 (1)
     |                                               |                |      [1]{}: local_time_type 0x84c-0x851.7 (6)
0x840|                                    ff ff 9d 90|            ....|        utoff: -25200 (valid) 0x84c-0x84f.7 (4)
0x850|01                                             |.               |        dst: 1 (valid) 0x850-0x850.7 (1)
0x850|   04                                          | .              |        idx: 4 (valid) 0x851-0x851.7 (1)
     |                                               |                |      [2]{}: local_time_type 0x852-0x857.7 (6)
0x850|      ff ff 8f 80                              |  ....          |        utoff: -28800 (valid) 0x852-0x855.7 (4)
0x850|                  00                           |      .         |        dst: 0 (valid) 0x856-0x856.7 (1)
0x850|                     08                        |       .        |        idx: 8 (valid) 0x857-0x857.7 (1)
     |                                               |                |      [3]{}: local_time_type 0x858-0x85d.7 (6)
0x850|                        ff ff 8f 80            |        ....    |        utoff: -28800 (valid) 0x858-0x85b.7 (4)
0x850|                                    00         |            .   |        dst: 0 (valid) 0x85c-0x85c.7 (1)
0x850|                                       08      |             .  |        idx: 8 (valid) 0x85d-0x85d.7 (1)
     |                                               |                |      [4]{}: local_time_type 0x85e-0x863.7 (6)
0x850|                                          ff ff|              ..|        utoff: -21600 (valid) 0x85e-0x861.7 (4)
0x860|ab a0                                          |..              |
0x860|      01                                       |  .             |        dst: 1 (valid) 0x862-0x862.7 (1)
0x860|         0c                                    |   .            |        idx: 12 (valid) 0x863-0x863.7 (1)
     |                                               |                |      [5]{}: local_time_type 0x864-0x869.7 (6)
0x860|            ff ff ab a0                        |    ....        |        utoff: -21600 (valid) 0x864-0x867.7 (4)
0x860|                        01                     |        .       |        dst: 1 (valid) 0x868-0x868.7 (1)
0x860|                           10                  |         .      |        idx: 16 (valid) 0x869-0x869.7 (1)
     |                                               |                |      [6]{}: local_time_type 0x86a-0x86f.7 (6)
0x860|                              ff ff 9d 90      |          ....  |        utoff: -25200 (valid) 0x86a-0x86d.7 (4)
0x860|                                          00   |              . |        dst: 0 (valid) 0x86e-0x86e.7 (1)
0x860|                                             14|               .|        idx: 20 (valid) 0x86f-0x86f.7 (1)
     |                                               |                |      [7]{}: local_time_type 0x870-0x875.7 (6)
0x870|ff ff ab a0                                    |....            |        utoff: -21600 (valid) 0x870-0x873.7 (4)
0x870|            01                                 |    .           |        dst: 1 (valid) 0x874-0x874.7 (1)
0x870|               18                              |     .          |        idx: 24 (valid) 0x875-0x875.7 (1)
     |                                               |                |    time_zone_designations[0:7]: 0x876-0x891.7 (28)
0x870|                  4c 4d 54 00                  |      LMT.      |      [0]: "LMT" time_zone_designation 0x876-0x879.7 (4)
0x870|                              50 44 54 00      |          PDT.  |      [1]: "PDT" time_zone_designation 0x87a-0x87d.7 (4)
0x870|                                          50 53|              PS|      [2]: "PST" time_zone_designation 0x87e-0x881.7 (4)
0x880|54 00                                          |T.              |
0x880|      4d 57 54 00                              |  MWT.          |      [3]: "MWT" time_zone_designation 0x882-0x885.7 (4)
0x880|                  4d 50 54 00                  |      MPT.      |      [4]: "MPT" time_zone_designation 0x886-0x889.7 (4)
0x880|                              4d 53 54 00      |          MST.  |      [5]: "MST" time_zone_designation 0x88a-0x88d.7 (4)
0x880|                                          4d 44|              MD|      [6]: "MDT" time_zone_designation 0x88e-0x891.7 (4)
0x890|54 00                                          |T.              |
     |                                               |                |    leap_second_records[0:27]: 0x892-0x9d5.7 (324)
     |                                               |                |      [0]{}: leap_second_record 0x892-0x89d.7 (12)
0x890|      00 00 00 00 04 b2 58 00                  |  ......X.      |        occur: "1972-07-01T00:00:00Z" (78796800) 0x892-0x899.7 (8)
0x890|                              00 00 00 01      |          ....  |        corr: 1 0x89a-0x89d.7 (4)
     |                                               |                |      [1]{}: leap_second_record 0x89e-0x8a9.7 (12)
0x890|                                          00 00|              ..|        occur: "1973-01-01T00:00:01Z" (94694401) 0x89e-0x8a5.7 (8)
0x8a0|00 00 05 a4 ec 01                              |......          |
0x8a0|                  00 00 00 02                  |      ....      |        corr: 2 0x8a6-0x8a9.7 (4)
     |                                               |                |      [2]{}: leap_second_record 0x8aa-0x8b5.7 (12)
0x8a0|                              00 00 00 00 07 86|          ......|        occur: "1974-01-01T00:00:02Z" (126230402) 0x8aa-0x8b1.7 (8)
0x8b0|1f 82                                          |..              |
0x8b0|      00 00 00 03                              |  ....          |        corr: 3 0x8b2-0x8b5.7 (4)
     |                                               |                |      [3]{}: leap_second_record 0x8b6-0x8c1.7 (12)
0x8b0|                  00 00 00 00 09 67 53 03      |      .....gS.  |        occur: "1975-01-01T00:00:03Z" (157766403) 0x8b6-0x8bd.7 (8)
0x8b0|                                          00 00|              ..|        corr: 4 0x8be-0x8c1.7 (4)
0x8c0|00 04                                          |..              |
     |                                               |                |      [4]{}: leap_second_record 0x8c2-0x8cd.7 (12)
0x8c0|      00 00 00 00 0b 48 86 84                  |  .....H..      |        occur: "1976-01-01T00:00:04Z" (189302404) 0x8c2-0x8c9.7 (8)
0x8c0|                              00 00 00 05      |          ....  |        corr: 5 0x8ca-0x8cd.7 (4)
     |                                               |                |      [5]{}: leap_second_record 0x8ce-0x8d9.7 (12)
0x8c0|                                          00 00|              ..|        occur: "1977-01-01T00:00:05Z" (220924805) 0x8ce-0x8d5.7 (8)
0x8d0|00 00 0d 2b 0b 85                              |...+..          |
0x8d0|                  00 00 00 06                  |      ....      |        corr: 6 0x8d6-0x8d9.7 (4)
     |                                               |                |      [6]{}: leap_second_record 0x8da-0x8e5.7 (12)
0x8d0|                              00 00 00 00 0f 0c|          ......|        occur: "1978-01-01T00:00:06Z" (252460806) 0x8da-0x8e1.7 (8)
0x8e0|3f 06                                          |?.              |
0x8e0|      00 00 00 07                              |  ....          |        corr: 7 0x8e2-0x8e5.7 (4)
     |                                               |                |      [7]{}: leap_second_record 0x8e6-0x8f1.7 (12)
0x8e0|                  00 00 00 00 10 ed 72 87      |      ......r.  |        occur: "1979-01-01T00:00:07Z" (283996807) 0x8e6-0x8ed.7 (8)
0x8e0|                                          00 00|              ..|        corr: 8 0x8ee-0x8f1.7 (4)
0x8f0|00 08                                          |..              |
     |                                               |                |      [8]{}: leap_second_record 0x8f2-0x8fd.7 (12)
0x8f0|      00 00 00 00 12 ce a6 08                  |  ........      |        occur: "1980-01-01T00:00:08Z" (315532808) 0x8f2-0x8f9.7 (8)
0x8f0|                              00 00 00 09      |          ....  |        corr: 9 0x8fa-0x8fd.7 (4)
     |                                               |                |      [9]{}: leap_second_record 0x8fe-0x909.7 (12)
0x8f0|                                          00 00|              ..|        occur: "1981-07-01T00:00:09Z" (362793609) 0x8fe-0x905.7 (8)
0x900|00 00 15 9f ca 89                              |......          |
0x900|                  00 00 00 0a                  |      ....      |        corr: 10 0x906-0x909.7 (4)
     |                                               |                |      [10]{}: leap_second_record 0x90a-0x915.7 (12)
0x900|                              00 00 00 00 17 80|          ......|        occur: "1982-07-01T00:00:10Z" (394329610) 0x90a-0x911.7 (8)
0x910|fe 0a                                          |..              |
0x910|      00 00 00 0b                              |  ....          |        corr: 11 0x912-0x915.7 (4)
     |                                               |                |      [11]{}: leap_second_record 0x916-0x921.7 (12)
0x910|                  00 00 00 00 19 62 31 8b      |      .....b1.  |        occur: "1983-07-01T00:00:11Z" (425865611) 0x916-0x91d.7 (8)
0x910|                                          00 00|              ..|        corr: 12 0x91e-0x921.7 (4)
0x920|00 0c                                          |..              |
     |                                               |                |      [12]{}: leap_second_record 0x922-0x92d.7 (12)
0x920|      00 00 00 00 1d 25 ea 0c                  |  .....%..      |        occur: "1985-07-01T00:00:12Z" (489024012) 0x922-0x929.7 (8)
0x920|                              00 00 00 0d      |          ....  |        corr: 13 0x92a-0x92d.7 (4)
     |                                               |                |      [13]{}: leap_second_record 0x92e-0x939.7 (12)
0x920|                                          00 00|              ..|        occur: "1988-01-01T00:00:13Z" (567993613) 0x92e-0x935.7 (8)
0x930|00 00 21 da e5 0d                              |..!...          |
0x930|                  00 00 00 0e                  |      ....      |        corr: 14 0x936-0x939.7 (4)
     |                                               |                |      [14]{}: leap_second_record 0x93a-0x945.7 (12)
0x930|                              00 00 00 00 25 9e|          ....%.|        occur: "1990-01-01T00:00:14Z" (631152014) 0x93a-0x941.7 (8)
0x940|9d 8e                                          |..              |
0x940|      00 00 00 0f                              |  ....          |        corr: 15 0x942-0x945.7 (4)
     |                                               |                |      [15]{}: leap_second_record 0x946-0x951.7 (12)
0x940|                  00 00 00 00 27 7f d1 0f      |      ....'...  |        occur: "1991-01-01T00:00:15Z" (662688015) 0x946-0x94d.7 (8)
0x940|                                          00 00|              ..|        corr: 16 0x94e-0x951.7 (4)
0x950|00 10                                          |..              |
     |                                               |                |      [16]{}: leap_second_record 0x952-0x95d.7 (12)
0x950|      00 00 00 00 2a 50 f5 90                  |  ....*P..      |        occur: "1992-07-01T00:00:16Z" (709948816) 0x952-0x959.7 (8)
0x950|                              00 00 00 11      |          ....  |        corr: 17 0x95a-0x95d.7 (4)
     |                                               |                |      [17]{}: leap_second_record 0x95e-0x969.7 (12)
0x950|                                          00 00|              ..|        occur: "1993-07-01T00:00:17Z" (741484817) 0x95e-0x965.7 (8)
0x960|00 00 2c 32 29 11                              |..,2).          |
0x960|                  00 00 00 12                  |      ....      |        corr: 18 0x966-0x969.7 (4)
     |                                               |                |      [18]{}: leap_second_record 0x96a-0x975.7 (12)
0x960|                              00 00 00 00 2e 13|          ......|        occur: "1994-07-01T00:00:18Z" (773020818) 0x96a-0x971.7 (8)
0x970|5c 92                                          |\.              |
0x970|      00 00 00 13                              |  ....          |        corr: 19 0x972-0x975.7 (4)
     |                                               |                |      [19]{}: leap_second_record 0x976-0x981.7 (12)
0x970|                  00 00 00 00 30 e7 24 13      |      ....0.$.  |        occur: "1996-01-01T00:00:19Z" (820454419) 0x976-0x97d.7 (8)
0x970|                                          00 00|              ..|        corr: 20 0x97e-0x981.7 (4)
0x980|00 14                                          |..              |
     |                                               |                |      [20]{}: leap_second_record 0x982-0x98d.7 (12)
0x980|      00 00 00 00 33 b8 48 94                  |  ....3.H.      |        occur: "1997-07-01T00:00:20Z" (867715220) 0x982-0x989.7 (8)
0x980|                              00 00 00 15      |          ....  |        corr: 21 0x98a-0x98d.7 (4)
     |                                               |                |      [21]{}: leap_second_record 0x98e-0x999.7 (12)
0x980|                                          00 00|              ..|        occur: "1999-01-01T00:00:21Z" (915148821) 0x98e-0x995.7 (8)
0x990|00 00 36 8c 10 15                              |..6...          |
0x990|                  00 00 00 16                  |      ....      |        corr: 22 0x996-0x999.7 (4)
     |                                               |                |      [22]{}: leap_second_record 0x99a-0x9a5.7 (12)
0x990|                              00 00 00 00 43 b7|          ....C.|        occur: "2006-01-01T00:00:22Z" (1136073622) 0x99a-0x9a1.7 (8)
0x9a0|1b 96                                          |..              |
0x9a0|      00 00 00 17                              |  ....          |        corr: 23 0x9a2-0x9a5.7 (4)
     |                                               |                |      [23]{}: leap_second_record 0x9a6-0x9b1.7 (12)
0x9a0|                  00 00 00 00 49 5c 07 97      |      ....I\..  |        occur: "2009-01-01T00:00:23Z" (1230768023) 0x9a6-0x9ad.7 (8)
0x9a0|                                          00 00|              ..|        corr: 24 0x9ae-0x9b1.7 (4)
0x9b0|00 18                                          |..              |
     |                                               |                |      [24]{}: leap_second_record 0x9b2-0x9bd.7 (12)
0x9b0|      00 00 00 00 4f ef 93 18                  |  ....O...      |        occur: "2012-07-01T00:00:24Z" (1341100824) 0x9b2-0x9b9.7 (8)
0x9b0|                              00 00 00 19      |          ....  |        corr: 25 0x9ba-0x9bd.7 (4)
     |                                               |                |      [25]{}: leap_second_record 0x9be-0x9c9.7 (12)
0x9b0|                                          00 00|              ..|        occur: "2015-07-01T00:00:25Z" (1435708825) 0x9be-0x9c5.7 (8)
0x9c0|00 00 55 93 2d 99                              |..U.-.          |
0x9c0|                  00 00 00 1a                  |      ....      |        corr: 26 0x9c6-0x9c9.7 (4)
     |                                               |                |      [26]{}: leap_second_record 0x9ca-0x9d5.7 (12)
0x9c0|                              00 00 00 00 58 68|          ....Xh|        occur: "2017-01-01T00:00:26Z" (1483228826) 0x9ca-0x9d1.7 (8)
0x9d0|46 9a                                          |F.              |
0x9d0|      00 00 00 1b                              |  ....          |        corr: 27 0x9d2-0x9d5.7 (4)
     |                                               |                |    standard_wall_indicators[0:8]: 0x9d6-0x9dd.7 (8)
0x9d0|                  00                           |      .         |      [0]: 0 standard_wall_indicator (valid) 0x9d6-0x9d6.7 (1)
0x9d0|                     00                        |       .        |      [1]: 0 standard_wall_indicator (valid) 0x9d7-0x9d7.7 (1)
0x9d0|                        00                     |        .       |      [2]: 0 standard_wall_indicator (valid) 0x9d8-0x9d8.7 (1)
0x9d0|                           01                  |         .      |      [3]: 1 standard_wall_indicator (valid) 0x9d9-0x9d9.7 (1)
0x9d0|                              00               |          .     |      [4]: 0 standard_wall_indicator (valid) 0x9da-0x9da.7 (1)
0x9d0|                                 01            |           .    |      [5]: 1 standard_wall_indicator (valid) 0x9db-0x9db.7 (1)
0x9d0|                                    00         |            .   |      [6]: 0 standard_wall_indicator (valid) 0x9dc-0x9dc.7 (1)
0x9d0|                                       00      |             .  |      [7]: 0 standard_wall_indicator (valid) 0x9dd-0x9dd.7 (1)
     |                                               |                |    ut_local_indicators[0:8]: 0x9de-0x9e5.7 (8)
0x9d0|                                          00   |              . |      [0]: 0 ut_local_indicator (valid) 0x9de-0x9de.7 (1)
0x9d0|                                             00|               .|      [1]: 0 ut_local_indicator (valid) 0x9df-0x9df.7 (1)
0x9e0|00                                             |.               |      [2]: 0 ut_local_indicator (valid) 0x9e0-0x9e0.7 (1)
0x9e0|   01                                          | .              |      [3]: 1 ut_local_indicator (valid) 0x9e1-0x9e1.7 (1)
0x9e0|      00                                       |  .             |      [4]: 0 ut_local_indicator (valid) 0x9e2-0x9e2.7 (1)
0x9e0|         01                                    |   .            |      [5]: 1 ut_local_indicator (valid) 0x9e3-0x9e3.7 (1)
0x9e0|            00                                 |    .           |      [6]: 0 ut_local_indicator (valid) 0x9e4-0x9e4.7 (1)
0x9e0|               00                              |     .          |      [7]: 0 ut_local_indicator (valid) 0x9e5-0x9e5.7 (1)
     |                                               |                |  footer{}: 0x9e6-0x9e7.7 (2)
0x9e0|                  0a                           |      .         |    nl1: 10 (valid) 0x9e6-0x9e6.7 (1)
     |                                               |                |    tz_string: "" 0x9e7-NA (0)
0x9e0|                     0a|                       |       .|       |    nl2: 10 (valid) 0x9e7-0x9e7.7 (1)
