$ fq -d tzif dv Bougainville
     |00 01 02 03 04 05 06 07 08 09 0a 0b 0c 0d 0e 0f|0123456789abcdef|.{}: Bougainville (tzif) 0x0-0x10c (268)
     |                                               |                |  v1header{}: 0x0-0x2c (44)
0x000|54 5a 69 66                                    |TZif            |    magic: 0x545a6966 (valid) 0x0-0x4 (4)
0x000|            32                                 |    2           |    ver: "2" (0x32) (valid) 0x4-0x5 (1)
0x000|               00 00 00 00 00 00 00 00 00 00 00|     ...........|    reserved: raw bits 0x5-0x14 (15)
0x010|00 00 00 00                                    |....            |
0x010|            00 00 00 00                        |    ....        |    isutcnt: 0 0x14-0x18 (4)
0x010|                        00 00 00 00            |        ....    |    isstdcnt: 0 0x18-0x1c (4)
0x010|                                    00 00 00 00|            ....|    leapcnt: 0 0x1c-0x20 (4)
0x020|00 00 00 05                                    |....            |    timecnt: 5 0x20-0x24 (4)
0x020|            00 00 00 04                        |    ....        |    typecnt: 4 0x24-0x28 (4)
0x020|                        00 00 00 10            |        ....    |    charcnt: 16 0x28-0x2c (4)
     |                                               |                |  v1datablock{}: 0x2c-0x6d (65)
     |                                               |                |    transition_times[0:5]: 0x2c-0x40 (20)
0x020|                                    80 00 00 00|            ....|      [0]: "1901-12-13T20:45:52Z" (-2147483648) transition_time 0x2c-0x30 (4)
0x030|cc 43 36 60                                    |.C6`            |      [1]: "1942-06-30T14:00:00Z" (-868010400) transition_time 0x30-0x34 (4)
0x030|            d2 2b 6c f0                        |    .+l.        |      [2]: "1945-08-20T15:00:00Z" (-768906000) transition_time 0x34-0x38 (4)
0x030|                        54 9e d7 80            |        T...    |      [3]: "2014-12-27T16:00:00Z" (1419696000) transition_time 0x38-0x3c (4)
0x030|                                    7f ff ff ff|            ....|      [4]: "2038-01-19T03:14:07Z" (2147483647) transition_time 0x3c-0x40 (4)
     |                                               |                |    transition_types[0:5]: 0x40-0x45 (5)
0x040|01                                             |.               |      [0]: 1 transition_type 0x40-0x41 (1)
0x040|   02                                          | .              |      [1]: 2 transition_type 0x41-0x42 (1)
0x040|      01                                       |  .             |      [2]: 1 transition_type 0x42-0x43 (1)
0x040|         03                                    |   .            |      [3]: 3 transition_type 0x43-0x44 (1)
0x040|            03                                 |    .           |      [4]: 3 transition_type 0x44-0x45 (1)
     |                                               |                |    local_time_type_records[0:4]: 0x45-0x5d (24)
     |                                               |                |      [0]{}: local_time_type 0x45-0x4b (6)
0x040|               00 00 91 d8                     |     ....       |        utoff: 37336 (valid) 0x45-0x49 (4)
0x040|                           00                  |         .      |        dst: 0 (valid) 0x49-0x4a (1)
0x040|                              00               |          .     |        idx: 0 (valid) 0x4a-0x4b (1)
     |                                               |                |      [1]{}: local_time_type 0x4b-0x51 (6)
0x040|                                 00 00 8c a0   |           .... |        utoff: 36000 (valid) 0x4b-0x4f (4)
0x040|                                             00|               .|        dst: 0 (valid) 0x4f-0x50 (1)
0x050|04                                             |.               |        idx: 4 (valid) 0x50-0x51 (1)
     |                                               |                |      [2]{}: local_time_type 0x51-0x57 (6)
0x050|   00 00 7e 90                                 | ..~.           |        utoff: 32400 (valid) 0x51-0x55 (4)
0x050|               00                              |     .          |        dst: 0 (valid) 0x55-0x56 (1)
0x050|                  08                           |      .         |        idx: 8 (valid) 0x56-0x57 (1)
     |                                               |                |      [3]{}: local_time_type 0x57-0x5d (6)
0x050|                     00 00 9a b0               |       ....     |        utoff: 39600 (valid) 0x57-0x5b (4)
0x050|                                 00            |           .    |        dst: 0 (valid) 0x5b-0x5c (1)
0x050|                                    0c         |            .   |        idx: 12 (valid) 0x5c-0x5d (1)
     |                                               |                |    time_zone_designations[0:4]: 0x5d-0x6d (16)
0x050|                                       4c 4d 54|             LMT|      [0]: "LMT" time_zone_designation 0x5d-0x61 (4)
0x060|00                                             |.               |
0x060|   2b 31 30 00                                 | +10.           |      [1]: "+10" time_zone_designation 0x61-0x65 (4)
0x060|               2b 30 39 00                     |     +09.       |      [2]: "+09" time_zone_designation 0x65-0x69 (4)
0x060|                           2b 31 31 00         |         +11.   |      [3]: "+11" time_zone_designation 0x69-0x6d (4)
     |                                               |                |    leap_second_records[0:0]: 0x6d-0x6d (0)
     |                                               |                |    standard_wall_indicators[0:0]: 0x6d-0x6d (0)
     |                                               |                |    ut_local_indicators[0:0]: 0x6d-0x6d (0)
     |                                               |                |  v2plusheader{}: 0x6d-0x99 (44)
0x060|                                       54 5a 69|             TZi|    magic: 0x545a6966 (valid) 0x6d-0x71 (4)
0x070|66                                             |f               |
0x070|   32                                          | 2              |    ver: "2" (0x32) (valid) 0x71-0x72 (1)
0x070|      00 00 00 00 00 00 00 00 00 00 00 00 00 00|  ..............|    reserved: raw bits 0x72-0x81 (15)
0x080|00                                             |.               |
0x080|   00 00 00 00                                 | ....           |    isutcnt: 0 0x81-0x85 (4)
0x080|               00 00 00 00                     |     ....       |    isstdcnt: 0 0x85-0x89 (4)
0x080|                           00 00 00 00         |         ....   |    leapcnt: 0 0x89-0x8d (4)
0x080|                                       00 00 00|             ...|    timecnt: 6 0x8d-0x91 (4)
0x090|06                                             |.               |
0x090|   00 00 00 05                                 | ....           |    typecnt: 5 0x91-0x95 (4)
0x090|               00 00 00 15                     |     ....       |    charcnt: 21 0x95-0x99 (4)
     |                                               |                |  v2plusdatablock{}: 0x99-0x102 (105)
     |                                               |                |    transition_times[0:6]: 0x99-0xc9 (48)
0x090|                           ff ff ff ff 56 b6 52|         ....V.R|      [0]: "1879-12-31T13:37:44Z" (-2840178136) transition_time 0x99-0xa1 (8)
0x0a0|28                                             |(               |
0x0a0|   ff ff ff ff 72 ed a4 90                     | ....r...       |      [1]: "1894-12-31T14:11:28Z" (-2366790512) transition_time 0xa1-0xa9 (8)
0x0a0|                           ff ff ff ff cc 43 36|         .....C6|      [2]: "1942-06-30T14:00:00Z" (-868010400) transition_time 0xa9-0xb1 (8)
0x0b0|60                                             |`               |
0x0b0|   ff ff ff ff d2 2b 6c f0                     | .....+l.       |      [3]: "1945-08-20T15:00:00Z" (-768906000) transition_time 0xb1-0xb9 (8)
0x0b0|                           00 00 00 00 54 9e d7|         ....T..|      [4]: "2014-12-27T16:00:00Z" (1419696000) transition_time 0xb9-0xc1 (8)
0x0c0|80                                             |.               |
0x0c0|   00 00 00 00 7f ff ff ff                     | ........       |      [5]: "2038-01-19T03:14:07Z" (2147483647) transition_time 0xc1-0xc9 (8)
     |                                               |                |    transition_types[0:6]: 0xc9-0xcf (6)
0x0c0|                           01                  |         .      |      [0]: 1 transition_type 0xc9-0xca (1)
0x0c0|                              02               |          .     |      [1]: 2 transition_type 0xca-0xcb (1)
0x0c0|                                 03            |           .    |      [2]: 3 transition_type 0xcb-0xcc (1)
0x0c0|                                    02         |            .   |      [3]: 2 transition_type 0xcc-0xcd (1)
0x0c0|                                       04      |             .  |      [4]: 4 transition_type 0xcd-0xce (1)
0x0c0|                                          04   |              . |      [5]: 4 transition_type 0xce-0xcf (1)
     |                                               |                |    local_time_type_records[0:5]: 0xcf-0xed (30)
     |                                               |                |      [0]{}: local_time_type 0xcf-0xd5 (6)
0x0c0|                                             00|               .|        utoff: 37336 (valid) 0xcf-0xd3 (4)
0x0d0|00 91 d8                                       |...             |
0x0d0|         00                                    |   .            |        dst: 0 (valid) 0xd3-0xd4 (1)
0x0d0|            00                                 |    .           |        idx: 0 (valid) 0xd4-0xd5 (1)
     |                                               |                |      [1]{}: local_time_type 0xd5-0xdb (6)
0x0d0|               00 00 89 f0                     |     ....       |        utoff: 35312 (valid) 0xd5-0xd9 (4)
0x0d0|                           00                  |         .      |        dst: 0 (valid) 0xd9-0xda (1)
0x0d0|                              04               |          .     |        idx: 4 (valid) 0xda-0xdb (1)
     |                                               |                |      [2]{}: local_time_type 0xdb-0xe1 (6)
0x0d0|                                 00 00 8c a0   |           .... |        utoff: 36000 (valid) 0xdb-0xdf (4)
0x0d0|                                             00|               .|        dst: 0 (valid) 0xdf-0xe0 (1)
0x0e0|09                                             |.               |        idx: 9 (valid) 0xe0-0xe1 (1)
     |                                               |                |      [3]{}: local_time_type 0xe1-0xe7 (6)
0x0e0|   00 00 7e 90                                 | ..~.           |        utoff: 32400 (valid) 0xe1-0xe5 (4)
0x0e0|               00                              |     .          |        dst: 0 (valid) 0xe5-0xe6 (1)
0x0e0|                  0d                           |      .         |        idx: 13 (valid) 0xe6-0xe7 (1)
     |                                               |                |      [4]{}: local_time_type 0xe7-0xed (6)
0x0e0|                     00 00 9a b0               |       ....     |        utoff: 39600 (valid) 0xe7-0xeb (4)
0x0e0|                                 00            |           .    |        dst: 0 (valid) 0xeb-0xec (1)
0x0e0|                                    11         |            .   |        idx: 17 (valid) 0xec-0xed (1)
     |                                               |                |    time_zone_designations[0:5]: 0xed-0x102 (21)
0x0e0|                                       4c 4d 54|             LMT|      [0]: "LMT" time_zone_designation 0xed-0xf1 (4)
0x0f0|00                                             |.               |
0x0f0|   50 4d 4d 54 00                              | PMMT.          |      [1]: "PMMT" time_zone_designation 0xf1-0xf6 (5)
0x0f0|                  2b 31 30 00                  |      +10.      |      [2]: "+10" time_zone_designation 0xf6-0xfa (4)
0x0f0|                              2b 30 39 00      |          +09.  |      [3]: "+09" time_zone_designation 0xfa-0xfe (4)
0x0f0|                                          2b 31|              +1|      [4]: "+11" time_zone_designation 0xfe-0x102 (4)
0x100|31 00                                          |1.              |
     |                                               |                |    leap_second_records[0:0]: 0x102-0x102 (0)
     |                                               |                |    standard_wall_indicators[0:0]: 0x102-0x102 (0)
     |                                               |                |    ut_local_indicators[0:0]: 0x102-0x102 (0)
     |                                               |                |  footer{}: 0x102-0x10c (10)
0x100|      0a                                       |  .             |    nl1: 10 (valid) 0x102-0x103 (1)
0x100|         3c 2b 31 31 3e 2d 31 31               |   <+11>-11     |    tz_string: "<+11>-11" 0x103-0x10b (8)
0x100|                                 0a|           |           .|   |    nl2: 10 (valid) 0x10b-0x10c (1)
