$ fq -d tzif dv Brisbane
     |00 01 02 03 04 05 06 07 08 09 0a 0b 0c 0d 0e 0f|0123456789abcdef|.{}: Brisbane (tzif) 0x0-0x1a2.7 (419)
     |                                               |                |  v1header{}: 0x0-0x2b.7 (44)
0x000|54 5a 69 66                                    |TZif            |    magic: 0x545a6966 (valid) 0x0-0x3.7 (4)
0x000|            32                                 |    2           |    ver: "2" (0x32) (valid) 0x4-0x4.7 (1)
0x000|               00 00 00 00 00 00 00 00 00 00 00|     ...........|    reserved: raw bits 0x5-0x13.7 (15)
0x010|00 00 00 00                                    |....            |
0x010|            00 00 00 00                        |    ....        |    isutcnt: 0 0x14-0x17.7 (4)
0x010|                        00 00 00 04            |        ....    |    isstdcnt: 4 0x18-0x1b.7 (4)
0x010|                                    00 00 00 00|            ....|    leapcnt: 0 0x1c-0x1f.7 (4)
0x020|00 00 00 11                                    |....            |    timecnt: 17 0x20-0x23.7 (4)
0x020|            00 00 00 04                        |    ....        |    typecnt: 4 0x24-0x27.7 (4)
0x020|                        00 00 00 0e            |        ....    |    charcnt: 14 0x28-0x2b.7 (4)
     |                                               |                |  v1datablock{}: 0x2c-0xaa.7 (127)
     |                                               |                |    transition_times[0:17]: 0x2c-0x6f.7 (68)
0x020|                                    80 00 00 00|            ....|      [0]: "1901-12-13T20:45:52Z" (-2147483648) transition_time 0x2c-0x2f.7 (4)
0x030|9c 4e c2 80                                    |.N..            |      [1]: "1916-12-31T16:00:00Z" (-1672560000) transition_time 0x30-0x33.7 (4)
0x030|            9c bc 2f 00                        |    ../.        |      [2]: "1917-03-24T16:00:00Z" (-1665388800) transition_time 0x34-0x37.7 (4)
0x030|                        cb 54 b3 00            |        .T..    |      [3]: "1941-12-31T16:00:00Z" (-883641600) transition_time 0x38-0x3b.7 (4)
0x030|                                    cb c7 65 80|            ..e.|      [4]: "1942-03-28T16:00:00Z" (-876124800) transition_time 0x3c-0x3f.7 (4)
0x040|cc b7 56 80                                    |..V.            |      [5]: "1942-09-26T16:00:00Z" (-860400000) transition_time 0x40-0x43.7 (4)
0x040|            cd a7 47 80                        |    ..G.        |      [6]: "1943-03-27T16:00:00Z" (-844675200) transition_time 0x44-0x47.7 (4)
0x040|                        ce a0 73 00            |        ..s.    |      [7]: "1943-10-02T16:00:00Z" (-828345600) transition_time 0x48-0x4b.7 (4)
0x040|                                    cf 87 29 80|            ..).|      [8]: "1944-03-25T16:00:00Z" (-813225600) transition_time 0x4c-0x4f.7 (4)
0x050|03 70 39 80                                    |.p9.            |      [9]: "1971-10-30T16:00:00Z" (57686400) transition_time 0x50-0x53.7 (4)
0x050|            04 0d 1c 00                        |    ....        |      [10]: "1972-02-26T16:00:00Z" (67968000) transition_time 0x54-0x57.7 (4)
0x050|                        25 49 cd 00            |        %I..    |      [11]: "1989-10-28T16:00:00Z" (625593600) transition_time 0x58-0x5b.7 (4)
0x050|                                    25 ef ea 00|            %...|      [12]: "1990-03-03T16:00:00Z" (636480000) transition_time 0x5c-0x5f.7 (4)
0x060|27 29 af 00                                    |')..            |      [13]: "1990-10-27T16:00:00Z" (657043200) transition_time 0x60-0x63.7 (4)
0x060|            27 cf cc 00                        |    '...        |      [14]: "1991-03-02T16:00:00Z" (667929600) transition_time 0x64-0x67.7 (4)
0x060|                        29 09 91 00            |        )...    |      [15]: "1991-10-26T16:00:00Z" (688492800) transition_time 0x68-0x6b.7 (4)
0x060|                                    29 af ae 00|            )...|      [16]: "1992-02-29T16:00:00Z" (699379200) transition_time 0x6c-0x6f.7 (4)
     |                                               |                |    transition_types[0:17]: 0x70-0x80.7 (17)
0x070|03                                             |.               |      [0]: 3 transition_type 0x70-0x70.7 (1)
0x070|   01                                          | .              |      [1]: 1 transition_type 0x71-0x71.7 (1)
0x070|      02                                       |  .             |      [2]: 2 transition_type 0x72-0x72.7 (1)
0x070|         01                                    |   .            |      [3]: 1 transition_type 0x73-0x73.7 (1)
0x070|            02                                 |    .           |      [4]: 2 transition_type 0x74-0x74.7 (1)
0x070|               01                              |     .          |      [5]: 1 transition_type 0x75-0x75.7 (1)
0x070|                  02                           |      .         |      [6]: 2 transition_type 0x76-0x76.7 (1)
0x070|                     01                        |       .        |      [7]: 1 transition_type 0x77-0x77.7 (1)
0x070|                        02                     |        .       |      [8]: 2 transition_type 0x78-0x78.7 (1)
0x070|                           01                  |         .      |      [9]: 1 transition_type 0x79-0x79.7 (1)
0x070|                              02               |          .     |      [10]: 2 transition_type 0x7a-0x7a.7 (1)
0x070|                                 01            |           .    |      [11]: 1 transition_type 0x7b-0x7b.7 (1)
0x070|                                    02         |            .   |      [12]: 2 transition_type 0x7c-0x7c.7 (1)
0x070|                                       01      |             .  |      [13]: 1 transition_type 0x7d-0x7d.7 (1)
0x070|                                          02   |              . |      [14]: 2 transition_type 0x7e-0x7e.7 (1)
0x070|                                             01|               .|      [15]: 1 transition_type 0x7f-0x7f.7 (1)
0x080|02                                             |.               |      [16]: 2 transition_type 0x80-0x80.7 (1)
     |                                               |                |    local_time_type_records[0:4]: 0x81-0x98.7 (24)
     |                                               |                |      [0]{}: local_time_type 0x81-0x86.7 (6)
0x080|   00 00 8f 78                                 | ...x           |        utoff: 36728 (valid) 0x81-0x84.7 (4)
0x080|               00                              |     .          |        dst: 0 (valid) 0x85-0x85.7 (1)
0x080|                  00                           |      .         |        idx: 0 (valid) 0x86-0x86.7 (1)
     |                                               |                |      [1]{}: local_time_type 0x87-0x8c.7 (6)
0x080|                     00 00 9a b0               |       ....     |        utoff: 39600 (valid) 0x87-0x8a.7 (4)
0x080|                                 01            |           .    |        dst: 1 (valid) 0x8b-0x8b.7 (1)
0x080|                                    04         |            .   |        idx: 4 (valid) 0x8c-0x8c.7 (1)
     |                                               |                |      [2]{}: local_time_type 0x8d-0x92.7 (6)
0x080|                                       00 00 8c|             ...|        utoff: 36000 (valid) 0x8d-0x90.7 (4)
0x090|a0                                             |.               |
0x090|   00                                          | .              |        dst: 0 (valid) 0x91-0x91.7 (1)
0x090|      09                                       |  .             |        idx: 9 (valid) 0x92-0x92.7 (1)
     |                                               |                |      [3]{}: local_time_type 0x93-0x98.7 (6)
0x090|         00 00 8c a0                           |   ....         |        utoff: 36000 (valid) 0x93-0x96.7 (4)
0x090|                     00                        |       .        |        dst: 0 (valid) 0x97-0x97.7 (1)
0x090|                        09                     |        .       |        idx: 9 (valid) 0x98-0x98.7 (1)
     |                                               |                |    time_zone_designations[0:3]: 0x99-0xa6.7 (14)
0x090|                           4c 4d 54 00         |         LMT.   |      [0]: "LMT" time_zone_designation 0x99-0x9c.7 (4)
0x090|                                       41 45 44|             AED|      [1]: "AEDT" time_zone_designation 0x9d-0xa1.7 (5)
0x0a0|54 00                                          |T.              |
0x0a0|      41 45 53 54 00                           |  AEST.         |      [2]: "AEST" time_zone_designation 0xa2-0xa6.7 (5)
     |                                               |                |    leap_second_records[0:0]: 0xa7-NA (0)
     |                                               |                |    standard_wall_indicators[0:4]: 0xa7-0xaa.7 (4)
0x0a0|                     00                        |       .        |      [0]: 0 standard_wall_indicator (valid) 0xa7-0xa7.7 (1)
0x0a0|                        01                     |        .       |      [1]: 1 standard_wall_indicator (valid) 0xa8-0xa8.7 (1)
0x0a0|                           01                  |         .      |      [2]: 1 standard_wall_indicator (valid) 0xa9-0xa9.7 (1)
0x0a0|                              00               |          .     |      [3]: 0 standard_wall_indicator (valid) 0xaa-0xaa.7 (1)
     |                                               |                |    ut_local_indicators[0:0]: 0xab-NA (0)
     |                                               |                |  v2plusheader{}: 0xab-0xd6.7 (44)
0x0a0|                                 54 5a 69 66   |           TZif |    magic: 0x545a6966 (valid) 0xab-0xae.7 (4)
0x0a0|                                             32|               2|    ver: "2" (0x32) (valid) 0xaf-0xaf.7 (1)
0x0b0|00 00 00 00 00 00 00 00 00 00 00 00 00 00 00   |............... |    reserved: raw bits 0xb0-0xbe.7 (15)
0x0b0|                                             00|               .|    isutcnt: 0 0xbf-0xc2.7 (4)
0x0c0|00 00 00                                       |...             |
0x0c0|         00 00 00 04                           |   ....         |    isstdcnt: 4 0xc3-0xc6.7 (4)
0x0c0|                     00 00 00 00               |       ....     |    leapcnt: 0 0xc7-0xca.7 (4)
0x0c0|                                 00 00 00 11   |           .... |    timecnt: 17 0xcb-0xce.7 (4)
0x0c0|                                             00|               .|    typecnt: 4 0xcf-0xd2.7 (4)
0x0d0|00 00 04                                       |...             |
0x0d0|         00 00 00 0e                           |   ....         |    charcnt: 14 0xd3-0xd6.7 (4)
     |                                               |                |  v2plusdatablock{}: 0xd7-0x199.7 (195)
     |                                               |                |    transition_times[0:17]: 0xd7-0x15e.7 (136)
0x0d0|                     ff ff ff ff 72 ed 9f 08   |       ....r... |      [0]: "1894-12-31T13:47:52Z" (-2366791928) transition_time 0xd7-0xde.7 (8)
0x0d0|                                             ff|               .|      [1]: "1916-12-31T16:00:00Z" (-1672560000) transition_time 0xdf-0xe6.7 (8)
0x0e0|ff ff ff 9c 4e c2 80                           |....N..         |
0x0e0|                     ff ff ff ff 9c bc 2f 00   |       ....../. |      [2]: "1917-03-24T16:00:00Z" (-1665388800) transition_time 0xe7-0xee.7 (8)
0x0e0|                                             ff|               .|      [3]: "1941-12-31T16:00:00Z" (-883641600) transition_time 0xef-0xf6.7 (8)
0x0f0|ff ff ff cb 54 b3 00                           |....T..         |
0x0f0|                     ff ff ff ff cb c7 65 80   |       ......e. |      [4]: "1942-03-28T16:00:00Z" (-876124800) transition_time 0xf7-0xfe.7 (8)
0x0f0|                                             ff|               .|      [5]: "1942-09-26T16:00:00Z" (-860400000) transition_time 0xff-0x106.7 (8)
0x100|ff ff ff cc b7 56 80                           |.....V.         |
0x100|                     ff ff ff ff cd a7 47 80   |       ......G. |      [6]: "1943-03-27T16:00:00Z" (-844675200) transition_time 0x107-0x10e.7 (8)
0x100|                                             ff|               .|      [7]: "1943-10-02T16:00:00Z" (-828345600) transition_time 0x10f-0x116.7 (8)
0x110|ff ff ff ce a0 73 00                           |.....s.         |
0x110|                     ff ff ff ff cf 87 29 80   |       ......). |      [8]: "1944-03-25T16:00:00Z" (-813225600) transition_time 0x117-0x11e.7 (8)
0x110|                                             00|               .|      [9]: "1971-10-30T16:00:00Z" (57686400) transition_time 0x11f-0x126.7 (8)
0x120|00 00 00 03 70 39 80                           |....p9.         |
0x120|                     00 00 00 00 04 0d 1c 00   |       ........ |      [10]: "1972-02-26T16:00:00Z" (67968000) transition_time 0x127-0x12e.7 (8)
0x120|                                             00|               .|      [11]: "1989-10-28T16:00:00Z" (625593600) transition_time 0x12f-0x136.7 (8)
0x130|00 00 00 25 49 cd 00                           |...%I..         |
0x130|                     00 00 00 00 25 ef ea 00   |       ....%... |      [12]: "1990-03-03T16:00:00Z" (636480000) transition_time 0x137-0x13e.7 (8)
0x130|                                             00|               .|      [13]: "1990-10-27T16:00:00Z" (657043200) transition_time 0x13f-0x146.7 (8)
0x140|00 00 00 27 29 af 00                           |...')..         |
0x140|                     00 00 00 00 27 cf cc 00   |       ....'... |      [14]: "1991-03-02T16:00:00Z" (667929600) transition_time 0x147-0x14e.7 (8)
0x140|                                             00|               .|      [15]: "1991-10-26T16:00:00Z" (688492800) transition_time 0x14f-0x156.7 (8)
0x150|00 00 00 29 09 91 00                           |...)...         |
0x150|                     00 00 00 00 29 af ae 00   |       ....)... |      [16]: "1992-02-29T16:00:00Z" (699379200) transition_time 0x157-0x15e.7 (8)
     |                                               |                |    transition_types[0:17]: 0x15f-0x16f.7 (17)
0x150|                                             03|               .|      [0]: 3 transition_type 0x15f-0x15f.7 (1)
0x160|01                                             |.               |      [1]: 1 transition_type 0x160-0x160.7 (1)
0x160|   02                                          | .              |      [2]: 2 transition_type 0x161-0x161.7 (1)
0x160|      01                                       |  .             |      [3]: 1 transition_type 0x162-0x162.7 (1)
0x160|         02                                    |   .            |      [4]: 2 transition_type 0x163-0x163.7 (1)
0x160|            01                                 |    .           |      [5]: 1 transition_type 0x164-0x164.7 (1)
0x160|               02                              |     .          |      [6]: 2 transition_type 0x165-0x165.7 (1)
0x160|                  01                           |      .         |      [7]: 1 transition_type 0x166-0x166.7 (1)
0x160|                     02                        |       .        |      [8]: 2 transition_type 0x167-0x167.7 (1)
0x160|                        01                     |        .       |      [9]: 1 transition_type 0x168-0x168.7 (1)
0x160|                           02                  |         .      |      [10]: 2 transition_type 0x169-0x169.7 (1)
0x160|                              01               |          .     |      [11]: 1 transition_type 0x16a-0x16a.7 (1)
0x160|                                 02            |           .    |      [12]: 2 transition_type 0x16b-0x16b.7 (1)
0x160|                                    01         |            .   |      [13]: 1 transition_type 0x16c-0x16c.7 (1)
0x160|                                       02      |             .  |      [14]: 2 transition_type 0x16d-0x16d.7 (1)
0x160|                                          01   |              . |      [15]: 1 transition_type 0x16e-0x16e.7 (1)
0x160|                                             02|               .|      [16]: 2 transition_type 0x16f-0x16f.7 (1)
     |                                               |                |    local_time_type_records[0:4]: 0x170-0x187.7 (24)
     |                                               |                |      [0]{}: local_time_type 0x170-0x175.7 (6)
0x170|00 00 8f 78                                    |...x            |        utoff: 36728 (valid) 0x170-0x173.7 (4)
0x170|            00                                 |    .           |        dst: 0 (valid) 0x174-0x174.7 (1)
0x170|               00                              |     .          |        idx: 0 (valid) 0x175-0x175.7 (1)
     |                                               |                |      [1]{}: local_time_type 0x176-0x17b.7 (6)
0x170|                  00 00 9a b0                  |      ....      |        utoff: 39600 (valid) 0x176-0x179.7 (4)
0x170|                              01               |          .     |        dst: 1 (valid) 0x17a-0x17a.7 (1)
0x170|                                 04            |           .    |        idx: 4 (valid) 0x17b-0x17b.7 (1)
     |                                               |                |      [2]{}: local_time_type 0x17c-0x181.7 (6)
0x170|                                    00 00 8c a0|            ....|        utoff: 36000 (valid) 0x17c-0x17f.7 (4)
0x180|00                                             |.               |        dst: 0 (valid) 0x180-0x180.7 (1)
0x180|   09                                          | .              |        idx: 9 (valid) 0x181-0x181.7 (1)
     |                                               |                |      [3]{}: local_time_type 0x182-0x187.7 (6)
0x180|      00 00 8c a0                              |  ....          |        utoff: 36000 (valid) 0x182-0x185.7 (4)
0x180|                  00                           |      .         |        dst: 0 (valid) 0x186-0x186.7 (1)
0x180|                     09                        |       .        |        idx: 9 (valid) 0x187-0x187.7 (1)
     |                                               |                |    time_zone_designations[0:3]: 0x188-0x195.7 (14)
0x180|                        4c 4d 54 00            |        LMT.    |      [0]: "LMT" time_zone_designation 0x188-0x18b.7 (4)
0x180|                                    41 45 44 54|            AEDT|      [1]: "AEDT" time_zone_designation 0x18c-0x190.7 (5)
0x190|00                                             |.               |
0x190|   41 45 53 54 00                              | AEST.          |      [2]: "AEST" time_zone_designation 0x191-0x195.7 (5)
     |                                               |                |    leap_second_records[0:0]: 0x196-NA (0)
     |                                               |                |    standard_wall_indicators[0:4]: 0x196-0x199.7 (4)
0x190|                  00                           |      .         |      [0]: 0 standard_wall_indicator (valid) 0x196-0x196.7 (1)
0x190|                     01                        |       .        |      [1]: 1 standard_wall_indicator (valid) 0x197-0x197.7 (1)
0x190|                        01                     |        .       |      [2]: 1 standard_wall_indicator (valid) 0x198-0x198.7 (1)
0x190|                           00                  |         .      |      [3]: 0 standard_wall_indicator (valid) 0x199-0x199.7 (1)
     |                                               |                |    ut_local_indicators[0:0]: 0x19a-NA (0)
     |                                               |                |  footer{}: 0x19a-0x1a2.7 (9)
0x190|                              0a               |          .     |    nl1: 10 (valid) 0x19a-0x19a.7 (1)
0x190|                                 41 45 53 54 2d|           AEST-|    tz_string: "AEST-10" 0x19b-0x1a1.7 (7)
0x1a0|31 30                                          |10              |
0x1a0|      0a|                                      |  .|            |    nl2: 10 (valid) 0x1a2-0x1a2.7 (1)
