$ fq -d tzif dv Brussels
     |00 01 02 03 04 05 06 07 08 09 0a 0b 0c 0d 0e 0f|0123456789abcdef|.{}: Brussels (tzif) 0x0-0xb74.7 (2933)
     |                                               |                |  v1header{}: 0x0-0x2b.7 (44)
0x000|54 5a 69 66                                    |TZif            |    magic: 0x545a6966 (valid) 0x0-0x3.7 (4)
0x000|            32                                 |    2           |    ver: "2" (0x32) (valid) 0x4-0x4.7 (1)
0x000|               00 00 00 00 00 00 00 00 00 00 00|     ...........|    reserved: raw bits 0x5-0x13.7 (15)
0x010|00 00 00 00                                    |....            |
0x010|            00 00 00 0b                        |    ....        |    isutcnt: 11 0x14-0x17.7 (4)
0x010|                        00 00 00 0b            |        ....    |    isstdcnt: 11 0x18-0x1b.7 (4)
0x010|                                    00 00 00 00|            ....|    leapcnt: 0 0x1c-0x1f.7 (4)
0x020|00 00 00 b8                                    |....            |    timecnt: 184 0x20-0x23.7 (4)
0x020|            00 00 00 0b                        |    ....        |    typecnt: 11 0x24-0x27.7 (4)
0x020|                        00 00 00 16            |        ....    |    charcnt: 22 0x28-0x2b.7 (4)
     |                                               |                |  v1datablock{}: 0x2c-0x431.7 (1030)
     |                                               |                |    transition_times[0:184]: 0x2c-0x30b.7 (736)
0x020|                                    80 00 00 00|            ....|      [0]: "1901-12-13T20:45:52Z" (-2147483648) transition_time 0x2c-0x2f.7 (4)
0x030|98 44 49 80                                    |.DI.            |      [1]: "1914-11-08T00:00:00Z" (-1740355200) transition_time 0x30-0x33.7 (4)
0x030|            9b 0c 25 70                        |    ..%p        |      [2]: "1916-04-30T23:00:00Z" (-1693702800) transition_time 0x34-0x37.7 (4)
0x030|                        9b d5 da f0            |        ....    |      [3]: "1916-09-30T23:00:00Z" (-1680483600) transition_time 0x38-0x3b.7 (4)
0x030|                                    9c d9 ae 90|            ....|      [4]: "1917-04-16T01:00:00Z" (-1663455600) transition_time 0x3c-0x3f.7 (4)
0x040|9d a4 b5 90                                    |....            |      [5]: "1917-09-17T01:00:00Z" (-1650150000) transition_time 0x40-0x43.7 (4)
0x040|            9e b9 90 90                        |    ....        |      [6]: "1918-04-15T01:00:00Z" (-1632006000) transition_time 0x44-0x47.7 (4)
0x040|                        9f 84 97 90            |        ....    |      [7]: "1918-09-16T01:00:00Z" (-1618700400) transition_time 0x48-0x4b.7 (4)
0x040|                                    9f ce f8 30|            ...0|      [8]: "1918-11-11T11:00:00Z" (-1613826000) transition_time 0x4c-0x4f.7 (4)
0x050|a0 60 a5 f0                                    |.`..            |      [9]: "1919-03-01T23:00:00Z" (-1604278800) transition_time 0x50-0x53.7 (4)
0x050|            a1 7e bb 70                        |    .~.p        |      [10]: "1919-10-04T23:00:00Z" (-1585530000) transition_time 0x54-0x57.7 (4)
0x050|                        a2 2e 12 f0            |        ....    |      [11]: "1920-02-14T23:00:00Z" (-1574038800) transition_time 0x58-0x5b.7 (4)
0x050|                                    a3 7a 4c f0|            .zL.|      [12]: "1920-10-23T23:00:00Z" (-1552266000) transition_time 0x5c-0x5f.7 (4)
0x060|a4 35 81 f0                                    |.5..            |      [13]: "1921-03-14T23:00:00Z" (-1539997200) transition_time 0x60-0x63.7 (4)
0x060|            a5 5e 23 70                        |    .^#p        |      [14]: "1921-10-25T23:00:00Z" (-1520557200) transition_time 0x64-0x67.7 (4)
0x060|                        a6 25 35 f0            |        .%5.    |      [15]: "1922-03-25T23:00:00Z" (-1507510800) transition_time 0x68-0x6b.7 (4)
0x060|                                    a7 27 9b f0|            .'..|      [16]: "1922-10-07T23:00:00Z" (-1490576400) transition_time 0x6c-0x6f.7 (4)
0x070|a8 2a 01 f0                                    |.*..            |      [17]: "1923-04-21T23:00:00Z" (-1473642000) transition_time 0x70-0x73.7 (4)
0x070|            a9 07 7d f0                        |    ..}.        |      [18]: "1923-10-06T23:00:00Z" (-1459126800) transition_time 0x74-0x77.7 (4)
0x070|                        a9 ee 34 70            |        ..4p    |      [19]: "1924-03-29T23:00:00Z" (-1444006800) transition_time 0x78-0x7b.7 (4)
0x070|                                    aa e7 5f f0|            .._.|      [20]: "1924-10-04T23:00:00Z" (-1427677200) transition_time 0x7c-0x7f.7 (4)
0x080|ab d7 50 f0                                    |..P.            |      [21]: "1925-04-04T23:00:00Z" (-1411952400) transition_time 0x80-0x83.7 (4)
0x080|            ac c7 41 f0                        |    ..A.        |      [22]: "1925-10-03T23:00:00Z" (-1396227600) transition_time 0x84-0x87.7 (4)
0x080|                        ad c9 a7 f0            |        ....    |      [23]: "1926-04-17T23:00:00Z" (-1379293200) transition_time 0x88-0x8b.7 (4)
0x080|                                    ae a7 23 f0|            ..#.|      [24]: "1926-10-02T23:00:00Z" (-1364778000) transition_time 0x8c-0x8f.7 (4)
0x090|af a0 4f 70                                    |..Op            |      [25]: "1927-04-09T23:00:00Z" (-1348448400) transition_time 0x90-0x93.7 (4)
0x090|            b0 87 05 f0                        |    ....        |      [26]: "1927-10-01T23:00:00Z" (-1333328400) transition_time 0x94-0x97.7 (4)
0x090|                        b1 89 6b f0            |        ..k.    |      [27]: "1928-04-14T23:00:00Z" (-1316394000) transition_time 0x98-0x9b.7 (4)
0x090|                                    b2 70 4c a0|            .pL.|      [28]: "1928-10-07T02:00:00Z" (-1301263200) transition_time 0x9c-0x9f.7 (4)
0x0a0|b3 72 b2 a0                                    |.r..            |      [29]: "1929-04-21T02:00:00Z" (-1284328800) transition_time 0xa0-0xa3.7 (4)
0x0a0|            b4 50 2e a0                        |    .P..        |      [30]: "1929-10-06T02:00:00Z" (-1269813600) transition_time 0xa4-0xa7.7 (4)
0x0a0|                        b5 49 5a 20            |        .IZ     |      [31]: "1930-04-13T02:00:00Z" (-1253484000) transition_time 0xa8-0xab.7 (4)
0x0a0|                                    b6 30 10 a0|            .0..|      [32]: "1930-10-05T02:00:00Z" (-1238364000) transition_time 0xac-0xaf.7 (4)
0x0b0|b7 32 76 a0                                    |.2v.            |      [33]: "1931-04-19T02:00:00Z" (-1221429600) transition_time 0xb0-0xb3.7 (4)
0x0b0|            b8 0f f2 a0                        |    ....        |      [34]: "1931-10-04T02:00:00Z" (-1206914400) transition_time 0xb4-0xb7.7 (4)
0x0b0|                        b8 ff e3 a0            |        ....    |      [35]: "1932-04-03T02:00:00Z" (-1191189600) transition_time 0xb8-0xbb.7 (4)
0x0b0|                                    b9 ef d4 a0|            ....|      [36]: "1932-10-02T02:00:00Z" (-1175464800) transition_time 0xbc-0xbf.7 (4)
0x0c0|ba d6 8b 20                                    |...             |      [37]: "1933-03-26T02:00:00Z" (-1160344800) transition_time 0xc0-0xc3.7 (4)
0x0c0|            bb d8 f1 20                        |    ...         |      [38]: "1933-10-08T02:00:00Z" (-1143410400) transition_time 0xc4-0xc7.7 (4)
0x0c0|                        bc c8 e2 20            |        ...     |      [39]: "1934-04-08T02:00:00Z" (-1127685600) transition_time 0xc8-0xcb.7 (4)
0x0c0|                                    bd b8 d3 20|            ... |      [40]: "1934-10-07T02:00:00Z" (-1111960800) transition_time 0xcc-0xcf.7 (4)
0x0d0|be 9f 89 a0                                    |....            |      [41]: "1935-03-31T02:00:00Z" (-1096840800) transition_time 0xd0-0xd3.7 (4)
0x0d0|            bf 98 b5 20                        |    ...         |      [42]: "1935-10-06T02:00:00Z" (-1080511200) transition_time 0xd4-0xd7.7 (4)
0x0d0|                        c0 9b 1b 20            |        ...     |      [43]: "1936-04-19T02:00:00Z" (-1063576800) transition_time 0xd8-0xdb.7 (4)
0x0d0|                                    c1 78 97 20|            .x. |      [44]: "1936-10-04T02:00:00Z" (-1049061600) transition_time 0xdc-0xdf.7 (4)
0x0e0|c2 68 88 20                                    |.h.             |      [45]: "1937-04-04T02:00:00Z" (-1033336800) transition_time 0xe0-0xe3.7 (4)
0x0e0|            c3 58 79 20                        |    .Xy         |      [46]: "1937-10-03T02:00:00Z" (-1017612000) transition_time 0xe4-0xe7.7 (4)
0x0e0|                        c4 3f 2f a0            |        .?/.    |      [47]: "1938-03-27T02:00:00Z" (-1002492000) transition_time 0xe8-0xeb.7 (4)
0x0e0|                                    c5 38 5b 20|            .8[ |      [48]: "1938-10-02T02:00:00Z" (-986162400) transition_time 0xec-0xef.7 (4)
0x0f0|c6 3a c1 20                                    |.:.             |      [49]: "1939-04-16T02:00:00Z" (-969228000) transition_time 0xf0-0xf3.7 (4)
0x0f0|            c7 58 d6 a0                        |    .X..        |      [50]: "1939-11-19T02:00:00Z" (-950479200) transition_time 0xf4-0xf7.7 (4)
0x0f0|                        c7 da 09 a0            |        ....    |      [51]: "1940-02-25T02:00:00Z" (-942012000) transition_time 0xf8-0xfb.7 (4)
0x0f0|                                    c8 4a 19 20|            .J. |      [52]: "1940-05-20T02:00:00Z" (-934668000) transition_time 0xfc-0xff.7 (4)
0x100|cc e7 4b 10                                    |..K.            |      [53]: "1942-11-02T01:00:00Z" (-857257200) transition_time 0x100-0x103.7 (4)
0x100|            cd a9 17 90                        |    ....        |      [54]: "1943-03-29T01:00:00Z" (-844556400) transition_time 0x104-0x107.7 (4)
0x100|                        ce a2 43 10            |        ..C.    |      [55]: "1943-10-04T01:00:00Z" (-828226800) transition_time 0x108-0x10b.7 (4)
0x100|                                    cf 92 34 10|            ..4.|      [56]: "1944-04-03T01:00:00Z" (-812502000) transition_time 0x10c-0x10f.7 (4)
0x110|d0 6e 5e 90                                    |.n^.            |      [57]: "1944-09-17T01:00:00Z" (-798073200) transition_time 0x110-0x113.7 (4)
0x110|            d1 72 16 10                        |    .r..        |      [58]: "1945-04-02T01:00:00Z" (-781052400) transition_time 0x114-0x117.7 (4)
0x110|                        d2 4e 40 90            |        .N@.    |      [59]: "1945-09-16T01:00:00Z" (-766623600) transition_time 0x118-0x11b.7 (4)
0x110|                                    d3 91 40 10|            ..@.|      [60]: "1946-05-19T01:00:00Z" (-745455600) transition_time 0x11c-0x11f.7 (4)
0x120|d4 4b 23 90                                    |.K#.            |      [61]: "1946-10-07T01:00:00Z" (-733273200) transition_time 0x120-0x123.7 (4)
0x120|            0d a4 63 90                        |    ..c.        |      [62]: "1977-04-03T01:00:00Z" (228877200) transition_time 0x124-0x127.7 (4)
0x120|                        0e 8b 1a 10            |        ....    |      [63]: "1977-09-25T01:00:00Z" (243997200) transition_time 0x128-0x12b.7 (4)
0x120|                                    0f 84 45 90|            ..E.|      [64]: "1978-04-02T01:00:00Z" (260326800) transition_time 0x12c-0x12f.7 (4)
0x130|10 74 36 90                                    |.t6.            |      [65]: "1978-10-01T01:00:00Z" (276051600) transition_time 0x130-0x133.7 (4)
0x130|            11 64 27 90                        |    .d'.        |      [66]: "1979-04-01T01:00:00Z" (291776400) transition_time 0x134-0x137.7 (4)
0x130|                        12 54 18 90            |        .T..    |      [67]: "1979-09-30T01:00:00Z" (307501200) transition_time 0x138-0x13b.7 (4)
0x130|                                    13 4d 44 10|            .MD.|      [68]: "1980-04-06T01:00:00Z" (323830800) transition_time 0x13c-0x13f.7 (4)
0x140|14 33 fa 90                                    |.3..            |      [69]: "1980-09-28T01:00:00Z" (338950800) transition_time 0x140-0x143.7 (4)
0x140|            15 23 eb 90                        |    .#..        |      [70]: "1981-03-29T01:00:00Z" (354675600) transition_time 0x144-0x147.7 (4)
0x140|                        16 13 dc 90            |        ....    |      [71]: "1981-09-27T01:00:00Z" (370400400) transition_time 0x148-0x14b.7 (4)
0x140|                                    17 03 cd 90|            ....|      [72]: "1982-03-28T01:00:00Z" (386125200) transition_time 0x14c-0x14f.7 (4)
0x150|17 f3 be 90                                    |....            |      [73]: "1982-09-26T01:00:00Z" (401850000) transition_time 0x150-0x153.7 (4)
0x150|            18 e3 af 90                        |    ....        |      [74]: "1983-03-27T01:00:00Z" (417574800) transition_time 0x154-0x157.7 (4)
0x150|                        19 d3 a0 90            |        ....    |      [75]: "1983-09-25T01:00:00Z" (433299600) transition_time 0x158-0x15b.7 (4)
0x150|                                    1a c3 91 90|            ....|      [76]: "1984-03-25T01:00:00Z" (449024400) transition_time 0x15c-0x15f.7 (4)
0x160|1b bc bd 10                                    |....            |      [77]: "1984-09-30T01:00:00Z" (465354000) transition_time 0x160-0x163.7 (4)
0x160|            1c ac ae 10                        |    ....        |      [78]: "1985-03-31T01:00:00Z" (481078800) transition_time 0x164-0x167.7 (4)
0x160|                        1d 9c 9f 10            |        ....    |      [79]: "1985-09-29T01:00:00Z" (496803600) transition_time 0x168-0x16b.7 (4)
0x160|                                    1e 8c 90 10|            ....|      [80]: "1986-03-30T01:00:00Z" (512528400) transition_time 0x16c-0x16f.7 (4)
0x170|1f 7c 81 10                                    |.|..            |      [81]: "1986-09-28T01:00:00Z" (528253200) transition_time 0x170-0x173.7 (4)
0x170|            20 6c 72 10                        |     lr.        |      [82]: "1987-03-29T01:00:00Z" (543978000) transition_time 0x174-0x177.7 (4)
0x170|                        21 5c 63 10            |        !\c.    |      [83]: "1987-09-27T01:00:00Z" (559702800) transition_time 0x178-0x17b.7 (4)
0x170|                                    22 4c 54 10|            "LT.|      [84]: "1988-03-27T01:00:00Z" (575427600) transition_time 0x17c-0x17f.7 (4)
0x180|23 3c 45 10                                    |#<E.            |      [85]: "1988-09-25T01:00:00Z" (591152400) transition_time 0x180-0x183.7 (4)
0x180|            24 2c 36 10                        |    $,6.        |      [86]: "1989-03-26T01:00:00Z" (606877200) transition_time 0x184-0x187.7 (4)
0x180|                        25 1c 27 10            |        %.'.    |      [87]: "1989-09-24T01:00:00Z" (622602000) transition_time 0x188-0x18b.7 (4)
0x180|                                    26 0c 18 10|            &...|      [88]: "1990-03-25T01:00:00Z" (638326800) transition_time 0x18c-0x18f.7 (4)
0x190|27 05 43 90                                    |'.C.            |      [89]: "1990-09-30T01:00:00Z" (654656400) transition_time 0x190-0x193.7 (4)
0x190|            27 f5 34 90                        |    '.4.        |      [90]: "1991-03-31T01:00:00Z" (670381200) transition_time 0x194-0x197.7 (4)
0x190|                        28 e5 25 90            |        (.%.    |      [91]: "1991-09-29T01:00:00Z" (686106000) transition_time 0x198-0x19b.7 (4)
0x190|                                    29 d5 16 90|            )...|      [92]: "1992-03-29T01:00:00Z" (701830800) transition_time 0x19c-0x19f.7 (4)
0x1a0|2a c5 07 90                                    |*...            |      [93]: "1992-09-27T01:00:00Z" (717555600) transition_time 0x1a0-0x1a3.7 (4)
0x1a0|            2b b4 f8 90                        |    +...        |      [94]: "1993-03-28T01:00:00Z" (733280400) transition_time 0x1a4-0x1a7.7 (4)
0x1a0|                        2c a4 e9 90            |        ,...    |      [95]: "1993-09-26T01:00:00Z" (749005200) transition_time 0x1a8-0x1ab.7 (4)
0x1a0|                                    2d 94 da 90|            -...|      [96]: "1994-03-27T01:00:00Z" (764730000) transition_time 0x1ac-0x1af.7 (4)
0x1b0|2e 84 cb 90                                    |....            |      [97]: "1994-09-25T01:00:00Z" (780454800) transition_time 0x1b0-0x1b3.7 (4)
0x1b0|            2f 74 bc 90                        |    /t..        |      [98]: "1995-03-26T01:00:00Z" (796179600) transition_time 0x1b4-0x1b7.7 (4)
0x1b0|                        30 64 ad 90            |        0d..    |      [99]: "1995-09-24T01:00:00Z" (811904400) transition_time 0x1b8-0x1bb.7 (4)
0x1b0|                                    31 5d d9 10|            1]..|      [100]: "1996-03-31T01:00:00Z" (828234000) transition_time 0x1bc-0x1bf.7 (4)
0x1c0|32 72 b4 10                                    |2r..            |      [101]: "1996-10-27T01:00:00Z" (846378000) transition_time 0x1c0-0x1c3.7 (4)
0x1c0|            33 3d bb 10                        |    3=..        |      [102]: "1997-03-30T01:00:00Z" (859683600) transition_time 0x1c4-0x1c7.7 (4)
0x1c0|                        34 52 96 10            |        4R..    |      [103]: "1997-10-26T01:00:00Z" (877827600) transition_time 0x1c8-0x1cb.7 (4)
0x1c0|                                    35 1d 9d 10|            5...|      [104]: "1998-03-29T01:00:00Z" (891133200) transition_time 0x1cc-0x1cf.7 (4)
0x1d0|36 32 78 10                                    |62x.            |      [105]: "1998-10-25T01:00:00Z" (909277200) transition_time 0x1d0-0x1d3.7 (4)
0x1d0|            36 fd 7f 10                        |    6...        |      [106]: "1999-03-28T01:00:00Z" (922582800) transition_time 0x1d4-0x1d7.7 (4)
0x1d0|                        38 1b 94 90            |        8...    |      [107]: "1999-10-31T01:00:00Z" (941331600) transition_time 0x1d8-0x1db.7 (4)
0x1d0|                                    38 dd 61 10|            8.a.|      [108]: "2000-03-26T01:00:00Z" (954032400) transition_time 0x1dc-0x1df.7 (4)
0x1e0|39 fb 76 90                                    |9.v.            |      [109]: "2000-10-29T01:00:00Z" (972781200) transition_time 0x1e0-0x1e3.7 (4)
0x1e0|            3a bd 43 10                        |    :.C.        |      [110]: "2001-03-25T01:00:00Z" (985482000) transition_time 0x1e4-0x1e7.7 (4)
0x1e0|                        3b db 58 90            |        ;.X.    |      [111]: "2001-10-28T01:00:00Z" (1004230800) transition_time 0x1e8-0x1eb.7 (4)
0x1e0|                                    3c a6 5f 90|            <._.|      [112]: "2002-03-31T01:00:00Z" (1017536400) transition_time 0x1ec-0x1ef.7 (4)
0x1f0|3d bb 3a 90                                    |=.:.            |      [113]: "2002-10-27T01:00:00Z" (1035680400) transition_time 0x1f0-0x1f3.7 (4)
0x1f0|            3e 86 41 90                        |    >.A.        |      [114]: "2003-03-30T01:00:00Z" (1048986000) transition_time 0x1f4-0x1f7.7 (4)
0x1f0|                        3f 9b 1c 90            |        ?...    |      [115]: "2003-10-26T01:00:00Z" (1067130000) transition_time 0x1f8-0x1fb.7 (4)
0x1f0|                                    40 66 23 90|            @f#.|      [116]: "2004-03-28T01:00:00Z" (1080435600) transition_time 0x1fc-0x1ff.7 (4)
0x200|41 84 39 10                                    |A.9.            |      [117]: "2004-10-31T01:00:00Z" (1099184400) transition_time 0x200-0x203.7 (4)
0x200|            42 46 05 90                        |    BF..        |      [118]: "2005-03-27T01:00:00Z" (1111885200) transition_time 0x204-0x207.7 (4)
0x200|                        43 64 1b 10            |        Cd..    |      [119]: "2005-10-30T01:00:00Z" (1130634000) transition_time 0x208-0x20b.7 (4)
0x200|                                    44 25 e7 90|            D%..|      [120]: "2006-03-26T01:00:00Z" (1143334800) transition_time 0x20c-0x20f.7 (4)
0x210|45 43 fd 10                                    |EC..            |      [121]: "2006-10-29T01:00:00Z" (1162083600) transition_time 0x210-0x213.7 (4)
0x210|            46 05 c9 90                        |    F...        |      [122]: "2007-03-25T01:00:00Z" (1174784400) transition_time 0x214-0x217.7 (4)
0x210|                        47 23 df 10            |        G#..    |      [123]: "2007-10-28T01:00:00Z" (1193533200) transition_time 0x218-0x21b.7 (4)
0x210|                                    47 ee e6 10|            G...|      [124]: "2008-03-30T01:00:00Z" (1206838800) transition_time 0x21c-0x21f.7 (4)
0x220|49 03 c1 10                                    |I...            |      [125]: "2008-10-26T01:00:00Z" (1224982800) transition_time 0x220-0x223.7 (4)
0x220|            49 ce c8 10                        |    I...        |      [126]: "2009-03-29T01:00:00Z" (1238288400) transition_time 0x224-0x227.7 (4)
0x220|                        4a e3 a3 10            |        J...    |      [127]: "2009-10-25T01:00:00Z" (1256432400) transition_time 0x228-0x22b.7 (4)
0x220|                                    4b ae aa 10|            K...|      [128]: "2010-03-28T01:00:00Z" (1269738000) transition_time 0x22c-0x22f.7 (4)
0x230|4c cc bf 90                                    |L...            |      [129]: "2010-10-31T01:00:00Z" (1288486800) transition_time 0x230-0x233.7 (4)
0x230|            4d 8e 8c 10                        |    M...        |      [130]: "2011-03-27T01:00:00Z" (1301187600) transition_time 0x234-0x237.7 (4)
0x230|                        4e ac a1 90            |        N...    |      [131]: "2011-10-30T01:00:00Z" (1319936400) transition_time 0x238-0x23b.7 (4)
0x230|                                    4f 6e 6e 10|            Onn.|      [132]: "2012-03-25T01:00:00Z" (1332637200) transition_time 0x23c-0x23f.7 (4)
0x240|50 8c 83 90                                    |P...            |      [133]: "2012-10-28T01:00:00Z" (1351386000) transition_time 0x240-0x243.7 (4)
0x240|            51 57 8a 90                        |    QW..        |      [134]: "2013-03-31T01:00:00Z" (1364691600) transition_time 0x244-0x247.7 (4)
0x240|                        52 6c 65 90            |        Rle.    |      [135]: "2013-10-27T01:00:00Z" (1382835600) transition_time 0x248-0x24b.7 (4)
0x240|                                    53 37 6c 90|            S7l.|      [136]: "2014-03-30T01:00:00Z" (1396141200) transition_time 0x24c-0x24f.7 (4)
0x250|54 4c 47 90                                    |TLG.            |      [137]: "2014-10-26T01:00:00Z" (1414285200) transition_time 0x250-0x253.7 (4)
0x250|            55 17 4e 90                        |    U.N.        |      [138]: "2015-03-29T01:00:00Z" (1427590800) transition_time 0x254-0x257.7 (4)
0x250|                        56 2c 29 90            |        V,).    |      [139]: "2015-10-25T01:00:00Z" (1445734800) transition_time 0x258-0x25b.7 (4)
0x250|                                    56 f7 30 90|            V.0.|      [140]: "2016-03-27T01:00:00Z" (1459040400) transition_time 0x25c-0x25f.7 (4)
0x260|58 15 46 10                                    |X.F.            |      [141]: "2016-10-30T01:00:00Z" (1477789200) transition_time 0x260-0x263.7 (4)
0x260|            58 d7 12 90                        |    X...        |      [142]: "2017-03-26T01:00:00Z" (1490490000) transition_time 0x264-0x267.7 (4)
0x260|                        59 f5 28 10            |        Y.(.    |      [143]: "2017-10-29T01:00:00Z" (1509238800) transition_time 0x268-0x26b.7 (4)
0x260|                                    5a b6 f4 90|            Z...|      [144]: "2018-03-25T01:00:00Z" (1521939600) transition_time 0x26c-0x26f.7 (4)
0x270|5b d5 0a 10                                    |[...            |      [145]: "2018-10-28T01:00:00Z" (1540688400) transition_time 0x270-0x273.7 (4)
0x270|            5c a0 11 10                        |    \...        |      [146]: "2019-03-31T01:00:00Z" (1553994000) transition_time 0x274-0x277.7 (4)
0x270|                        5d b4 ec 10            |        ]...    |      [147]: "2019-10-27T01:00:00Z" (1572138000) transition_time 0x278-0x27b.7 (4)
0x270|                                    5e 7f f3 10|            ^...|      [148]: "2020-03-29T01:00:00Z" (1585443600) transition_time 0x27c-0x27f.7 (4)
0x280|5f 94 ce 10                                    |_...            |      [149]: "2020-10-25T01:00:00Z" (1603587600) transition_time 0x280-0x283.7 (4)
0x280|            60 5f d5 10                        |    `_..        |      [150]: "2021-03-28T01:00:00Z" (1616893200) transition_time 0x284-0x287.7 (4)
0x280|                        61 7d ea 90            |        a}..    |      [151]: "2021-10-31T01:00:00Z" (1635642000) transition_time 0x288-0x28b.7 (4)
0x280|                                    62 3f b7 10|            b?..|      [152]: "2022-03-27T01:00:00Z" (1648342800) transition_time 0x28c-0x28f.7 (4)
0x290|63 5d cc 90                                    |c]..            |      [153]: "2022-10-30T01:00:00Z" (1667091600) transition_time 0x290-0x293.7 (4)
0x290|            64 1f 99 10                        |    d...        |      [154]: "2023-03-26T01:00:00Z" (1679792400) transition_time 0x294-0x297.7 (4)
0x290|                        65 3d ae 90            |        e=..    |      [155]: "2023-10-29T01:00:00Z" (1698541200) transition_time 0x298-0x29b.7 (4)
0x290|                                    66 08 b5 90|            f...|      [156]: "2024-03-31T01:00:00Z" (1711846800) transition_time 0x29c-0x29f.7 (4)
0x2a0|67 1d 90 90                                    |g...            |      [157]: "2024-10-27T01:00:00Z" (1729990800) transition_time 0x2a0-0x2a3.7 (4)
0x2a0|            67 e8 97 90                        |    g...        |      [158]: "2025-03-30T01:00:00Z" (1743296400) transition_time 0x2a4-0x2a7.7 (4)
0x2a0|                        68 fd 72 90            |        h.r.    |      [159]: "2025-10-26T01:00:00Z" (1761440400) transition_time 0x2a8-0x2ab.7 (4)
0x2a0|                                    69 c8 79 90|            i.y.|      [160]: "2026-03-29T01:00:00Z" (1774746000) transition_time 0x2ac-0x2af.7 (4)
0x2b0|6a dd 54 90                                    |j.T.            |      [161]: "2026-10-25T01:00:00Z" (1792890000) transition_time 0x2b0-0x2b3.7 (4)
0x2b0|            6b a8 5b 90                        |    k.[.        |      [162]: "2027-03-28T01:00:00Z" (1806195600) transition_time 0x2b4-0x2b7.7 (4)
0x2b0|                        6c c6 71 10            |        l.q.    |      [163]: "2027-10-31T01:00:00Z" (1824944400) transition_time 0x2b8-0x2bb.7 (4)
0x2b0|                                    6d 88 3d 90|            m.=.|      [164]: "2028-03-26T01:00:00Z" (1837645200) transition_time 0x2bc-0x2bf.7 (4)
0x2c0|6e a6 53 10                                    |n.S.            |      [165]: "2028-10-29T01:00:00Z" (1856394000) transition_time 0x2c0-0x2c3.7 (4)
0x2c0|            6f 68 1f 90                        |    oh..        |      [166]: "2029-03-25T01:00:00Z" (1869094800) transition_time 0x2c4-0x2c7.7 (4)
0x2c0|                        70 86 35 10            |        p.5.    |      [167]: "2029-10-28T01:00:00Z" (1887843600) transition_time 0x2c8-0x2cb.7 (4)
0x2c0|                                    71 51 3c 10|            qQ<.|      [168]: "2030-03-31T01:00:00Z" (1901149200) transition_time 0x2cc-0x2cf.7 (4)
0x2d0|72 66 17 10                                    |rf..            |      [169]: "2030-10-27T01:00:00Z" (1919293200) transition_time 0x2d0-0x2d3.7 (4)
0x2d0|            73 31 1e 10                        |    s1..        |      [170]: "2031-03-30T01:00:00Z" (1932598800) transition_time 0x2d4-0x2d7.7 (4)
0x2d0|                        74 45 f9 10            |        tE..    |      [171]: "2031-10-26T01:00:00Z" (1950742800) transition_time 0x2d8-0x2db.7 (4)
0x2d0|                                    75 11 00 10|            u...|      [172]: "2032-03-28T01:00:00Z" (1964048400) transition_time 0x2dc-0x2df.7 (4)
0x2e0|76 2f 15 90                                    |v/..            |      [173]: "2032-10-31T01:00:00Z" (1982797200) transition_time 0x2e0-0x2e3.7 (4)
0x2e0|            76 f0 e2 10                        |    v...        |      [174]: "2033-03-27T01:00:00Z" (1995498000) transition_time 0x2e4-0x2e7.7 (4)
0x2e0|                        78 0e f7 90            |        x...    |      [175]: "2033-10-30T01:00:00Z" (2014246800) transition_time 0x2e8-0x2eb.7 (4)
0x2e0|                                    78 d0 c4 10|            x...|      [176]: "2034-03-26T01:00:00Z" (2026947600) transition_time 0x2ec-0x2ef.7 (4)
0x2f0|79 ee d9 90                                    |y...            |      [177]: "2034-10-29T01:00:00Z" (2045696400) transition_time 0x2f0-0x2f3.7 (4)
0x2f0|            7a b0 a6 10                        |    z...        |      [178]: "2035-03-25T01:00:00Z" (2058397200) transition_time 0x2f4-0x2f7.7 (4)
0x2f0|                        7b ce bb 90            |        {...    |      [179]: "2035-10-28T01:00:00Z" (2077146000) transition_time 0x2f8-0x2fb.7 (4)
0x2f0|                                    7c 99 c2 90|            |...|      [180]: "2036-03-30T01:00:00Z" (2090451600) transition_time 0x2fc-0x2ff.7 (4)
0x300|7d ae 9d 90                                    |}...            |      [181]: "2036-10-26T01:00:00Z" (2108595600) transition_time 0x300-0x303.7 (4)
0x300|            7e 79 a4 90                        |    ~y..        |      [182]: "2037-03-29T01:00:00Z" (2121901200) transition_time 0x304-0x307.7 (4)
0x300|                        7f 8e 7f 90            |        ....    |      [183]: "2037-10-25T01:00:00Z" (2140045200) transition_time 0x308-0x30b.7 (4)
     |                                               |                |    transition_types[0:184]: 0x30c-0x3c3.7 (184)
0x300|                                    01         |            .   |      [0]: 1 transition_type 0x30c-0x30c.7 (1)
0x300|                                       02      |             .  |      [1]: 2 transition_type 0x30d-0x30d.7 (1)
0x300|                                          05   |              . |      [2]: 5 transition_type 0x30e-0x30e.7 (1)
0x300|                                             02|               .|      [3]: 2 transition_type 0x30f-0x30f.7 (1)
0x310|03                                             |.               |      [4]: 3 transition_type 0x310-0x310.7 (1)
0x310|   04                                          | .              |      [5]: 4 transition_type 0x311-0x311.7 (1)
0x310|      03                                       |  .             |      [6]: 3 transition_type 0x312-0x312.7 (1)
0x310|         04                                    |   .            |      [7]: 4 transition_type 0x313-0x313.7 (1)
0x310|            08                                 |    .           |      [8]: 8 transition_type 0x314-0x314.7 (1)
0x310|               06                              |     .          |      [9]: 6 transition_type 0x315-0x315.7 (1)
0x310|                  07                           |      .         |      [10]: 7 transition_type 0x316-0x316.7 (1)
0x310|                     06                        |       .        |      [11]: 6 transition_type 0x317-0x317.7 (1)
0x310|                        07                     |        .       |      [12]: 7 transition_type 0x318-0x318.7 (1)
0x310|                           06                  |         .      |      [13]: 6 transition_type 0x319-0x319.7 (1)
0x310|                              07               |          .     |      [14]: 7 transition_type 0x31a-0x31a.7 (1)
0x310|                                 06            |           .    |      [15]: 6 transition_type 0x31b-0x31b.7 (1)
0x310|                                    07         |            .   |      [16]: 7 transition_type 0x31c-0x31c.7 (1)
0x310|                                       06      |             .  |      [17]: 6 transition_type 0x31d-0x31d.7 (1)
0x310|                                          07   |              . |      [18]: 7 transition_type 0x31e-0x31e.7 (1)
0x310|                                             06|               .|      [19]: 6 transition_type 0x31f-0x31f.7 (1)
0x320|07                                             |.               |      [20]: 7 transition_type 0x320-0x320.7 (1)
0x320|   06                                          | .              |      [21]: 6 transition_type 0x321-0x321.7 (1)
0x320|      07                                       |  .             |      [22]: 7 transition_type 0x322-0x322.7 (1)
0x320|         06                                    |   .            |      [23]: 6 transition_type 0x323-0x323.7 (1)
0x320|            07                                 |    .           |      [24]: 7 transition_type 0x324-0x324.7 (1)
0x320|               06                              |     .          |      [25]: 6 transition_type 0x325-0x325.7 (1)
0x320|                  07                           |      .         |      [26]: 7 transition_type 0x326-0x326.7 (1)
0x320|                     06                        |       .        |      [27]: 6 transition_type 0x327-0x327.7 (1)
0x320|                        07                     |        .       |      [28]: 7 transition_type 0x328-0x328.7 (1)
0x320|                           06                  |         .      |      [29]: 6 transition_type 0x329-0x329.7 (1)
0x320|                              07               |          .     |      [30]: 7 transition_type 0x32a-0x32a.7 (1)
0x320|                                 06            |           .    |      [31]: 6 transition_type 0x32b-0x32b.7 (1)
0x320|                                    07         |            .   |      [32]: 7 transition_type 0x32c-0x32c.7 (1)
0x320|                                       06      |             .  |      [33]: 6 transition_type 0x32d-0x32d.7 (1)
0x320|                                          07   |              . |      [34]: 7 transition_type 0x32e-0x32e.7 (1)
0x320|                                             06|               .|      [35]: 6 transition_type 0x32f-0x32f.7 (1)
0x330|07                                             |.               |      [36]: 7 transition_type 0x330-0x330.7 (1)
0x330|   06                                          | .              |      [37]: 6 transition_type 0x331-0x331.7 (1)
0x330|      07                                       |  .             |      [38]: 7 transition_type 0x332-0x332.7 (1)
0x330|         06                                    |   .            |      [39]: 6 transition_type 0x333-0x333.7 (1)
0x330|            07                                 |    .           |      [40]: 7 transition_type 0x334-0x334.7 (1)
0x330|               06                              |     .          |      [41]: 6 transition_type 0x335-0x335.7 (1)
0x330|                  07                           |      .         |      [42]: 7 transition_type 0x336-0x336.7 (1)
0x330|                     06                        |       .        |      [43]: 6 transition_type 0x337-0x337.7 (1)
0x330|                        07                     |        .       |      [44]: 7 transition_type 0x338-0x338.7 (1)
0x330|                           06                  |         .      |      [45]: 6 transition_type 0x339-0x339.7 (1)
0x330|                              07               |          .     |      [46]: 7 transition_type 0x33a-0x33a.7 (1)
0x330|                                 06            |           .    |      [47]: 6 transition_type 0x33b-0x33b.7 (1)
0x330|                                    07         |            .   |      [48]: 7 transition_type 0x33c-0x33c.7 (1)
0x330|                                       06      |             .  |      [49]: 6 transition_type 0x33d-0x33d.7 (1)
0x330|                                          07   |              . |      [50]: 7 transition_type 0x33e-0x33e.7 (1)
0x330|                                             06|               .|      [51]: 6 transition_type 0x33f-0x33f.7 (1)
0x340|03                                             |.               |      [52]: 3 transition_type 0x340-0x340.7 (1)
0x340|   04                                          | .              |      [53]: 4 transition_type 0x341-0x341.7 (1)
0x340|      03                                       |  .             |      [54]: 3 transition_type 0x342-0x342.7 (1)
0x340|         04                                    |   .            |      [55]: 4 transition_type 0x343-0x343.7 (1)
0x340|            03                                 |    .           |      [56]: 3 transition_type 0x344-0x344.7 (1)
0x340|               04                              |     .          |      [57]: 4 transition_type 0x345-0x345.7 (1)
0x340|                  03                           |      .         |      [58]: 3 transition_type 0x346-0x346.7 (1)
0x340|                     04                        |       .        |      [59]: 4 transition_type 0x347-0x347.7 (1)
0x340|                        03                     |        .       |      [60]: 3 transition_type 0x348-0x348.7 (1)
0x340|                           04                  |         .      |      [61]: 4 transition_type 0x349-0x349.7 (1)
0x340|                              09               |          .     |      [62]: 9 transition_type 0x34a-0x34a.7 (1)
0x340|                                 0a            |           .    |      [63]: 10 transition_type 0x34b-0x34b.7 (1)
0x340|                                    09         |            .   |      [64]: 9 transition_type 0x34c-0x34c.7 (1)
0x340|                                       0a      |             .  |      [65]: 10 transition_type 0x34d-0x34d.7 (1)
0x340|                                          09   |              . |      [66]: 9 transition_type 0x34e-0x34e.7 (1)
0x340|                                             0a|               .|      [67]: 10 transition_type 0x34f-0x34f.7 (1)
0x350|09                                             |.               |      [68]: 9 transition_type 0x350-0x350.7 (1)
0x350|   0a                                          | .              |      [69]: 10 transition_type 0x351-0x351.7 (1)
0x350|      09                                       |  .             |      [70]: 9 transition_type 0x352-0x352.7 (1)
0x350|         0a                                    |   .            |      [71]: 10 transition_type 0x353-0x353.7 (1)
0x350|            09                                 |    .           |      [72]: 9 transition_type 0x354-0x354.7 (1)
0x350|               0a                              |     .          |      [73]: 10 transition_type 0x355-0x355.7 (1)
0x350|                  09                           |      .         |      [74]: 9 transition_type 0x356-0x356.7 (1)
0x350|                     0a                        |       .        |      [75]: 10 transition_type 0x357-0x357.7 (1)
0x350|                        09                     |        .       |      [76]: 9 transition_type 0x358-0x358.7 (1)
0x350|                           0a                  |         .      |      [77]: 10 transition_type 0x359-0x359.7 (1)
0x350|                              09               |          .     |      [78]: 9 transition_type 0x35a-0x35a.7 (1)
0x350|                                 0a            |           .    |      [79]: 10 transition_type 0x35b-0x35b.7 (1)
0x350|                                    09         |            .   |      [80]: 9 transition_type 0x35c-0x35c.7 (1)
0x350|                                       0a      |             .  |      [81]: 10 transition_type 0x35d-0x35d.7 (1)
0x350|                                          09   |              . |      [82]: 9 transition_type 0x35e-0x35e.7 (1)
0x350|                                             0a|               .|      [83]: 10 transition_type 0x35f-0x35f.7 (1)
0x360|09                                             |.               |      [84]: 9 transition_type 0x360-0x360.7 (1)
0x360|   0a                                          | .              |      [85]: 10 transition_type 0x361-0x361.7 (1)
0x360|      09                                       |  .             |      [86]: 9 transition_type 0x362-0x362.7 (1)
0x360|         0a                                    |   .            |      [87]: 10 transition_type 0x363-0x363.7 (1)
0x360|            09                                 |    .           |      [88]: 9 transition_type 0x364-0x364.7 (1)
0x360|               0a                              |     .          |      [89]: 10 transition_type 0x365-0x365.7 (1)
0x360|                  09                           |      .         |      [90]: 9 transition_type 0x366-0x366.7 (1)
0x360|                     0a                        |       .        |      [91]: 10 transition_type 0x367-0x367.7 (1)
0x360|                        09                     |        .       |      [92]: 9 transition_type 0x368-0x368.7 (1)
0x360|                           0a                  |         .      |      [93]: 10 transition_type 0x369-0x369.7 (1)
0x360|                              09               |          .     |      [94]: 9 transition_type 0x36a-0x36a.7 (1)
0x360|                                 0a            |           .    |      [95]: 10 transition_type 0x36b-0x36b.7 (1)
0x360|                                    09         |            .   |      [96]: 9 transition_type 0x36c-0x36c.7 (1)
0x360|                                       0a      |             .  |      [97]: 10 transition_type 0x36d-0x36d.7 (1)
0x360|                                          09   |              . |      [98]: 9 transition_type 0x36e-0x36e.7 (1)
0x360|                                             0a|               .|      [99]: 10 transition_type 0x36f-0x36f.7 (1)
0x370|09                                             |.               |      [100]: 9 transition_type 0x370-0x370.7 (1)
0x370|   0a                                          | .              |      [101]: 10 transition_type 0x371-0x371.7 (1)
0x370|      09                                       |  .             |      [102]: 9 transition_type 0x372-0x372.7 (1)
0x370|         0a                                    |   .            |      [103]: 10 transition_type 0x373-0x373.7 (1)
0x370|            09                                 |    .           |      [104]: 9 transition_type 0x374-0x374.7 (1)
0x370|               0a                              |     .          |      [105]: 10 transition_type 0x375-0x375.7 (1)
0x370|                  09                           |      .         |      [106]: 9 transition_type 0x376-0x376.7 (1)
0x370|                     0a                        |       .        |      [107]: 10 transition_type 0x377-0x377.7 (1)
0x370|                        09                     |        .       |      [108]: 9 transition_type 0x378-0x378.7 (1)
0x370|                           0a                  |         .      |      [109]: 10 transition_type 0x379-0x379.7 (1)
0x370|                              09               |          .     |      [110]: 9 transition_type 0x37a-0x37a.7 (1)
0x370|                                 0a            |           .    |      [111]: 10 transition_type 0x37b-0x37b.7 (1)
0x370|                                    09         |            .   |      [112]: 9 transition_type 0x37c-0x37c.7 (1)
0x370|                                       0a      |             .  |      [113]: 10 transition_type 0x37d-0x37d.7 (1)
0x370|                                          09   |              . |      [114]: 9 transition_type 0x37e-0x37e.7 (1)
0x370|                                             0a|               .|      [115]: 10 transition_type 0x37f-0x37f.7 (1)
0x380|09                                             |.               |      [116]: 9 transition_type 0x380-0x380.7 (1)
0x380|   0a                                          | .              |      [117]: 10 transition_type 0x381-0x381.7 (1)
0x380|      09                                       |  .             |      [118]: 9 transition_type 0x382-0x382.7 (1)
0x380|         0a                                    |   .            |      [119]: 10 transition_type 0x383-0x383.7 (1)
0x380|            09                                 |    .           |      [120]: 9 transition_type 0x384-0x384.7 (1)
0x380|               0a                              |     .          |      [121]: 10 transition_type 0x385-0x385.7 (1)
0x380|                  09                           |      .         |      [122]: 9 transition_type 0x386-0x386.7 (1)
0x380|                     0a                        |       .        |      [123]: 10 transition_type 0x387-0x387.7 (1)
0x380|                        09                     |        .       |      [124]: 9 transition_type 0x388-0x388.7 (1)
0x380|                           0a                  |         .      |      [125]: 10 transition_type 0x389-0x389.7 (1)
0x380|                              09               |          .     |      [126]: 9 transition_type 0x38a-0x38a.7 (1)
0x380|                                 0a            |           .    |      [127]: 10 transition_type 0x38b-0x38b.7 (1)
0x380|                                    09         |            .   |      [128]: 9 transition_type 0x38c-0x38c.7 (1)
0x380|                                       0a      |             .  |      [129]: 10 transition_type 0x38d-0x38d.7 (1)
0x380|                                          09   |              . |      [130]: 9 transition_type 0x38e-0x38e.7 (1)
0x380|                                             0a|               .|      [131]: 10 transition_type 0x38f-0x38f.7 (1)
0x390|09                                             |.               |      [132]: 9 transition_type 0x390-0x390.7 (1)
0x390|   0a                                          | .              |      [133]: 10 transition_type 0x391-0x391.7 (1)
0x390|      09                                       |  .             |      [134]: 9 transition_type 0x392-0x392.7 (1)
0x390|         0a                                    |   .            |      [135]: 10 transition_type 0x393-0x393.7 (1)
0x390|            09                                 |    .           |      [136]: 9 transition_type 0x394-0x394.7 (1)
0x390|               0a                              |     .          |      [137]: 10 transition_type 0x395-0x395.7 (1)
0x390|                  09                           |      .         |      [138]: 9 transition_type 0x396-0x396.7 (1)
0x390|                     0a                        |       .        |      [139]: 10 transition_type 0x397-0x397.7 (1)
0x390|                        09                     |        .       |      [140]: 9 transition_type 0x398-0x398.7 (1)
0x390|                           0a                  |         .      |      [141]: 10 transition_type 0x399-0x399.7 (1)
0x390|                              09               |          .     |      [142]: 9 transition_type 0x39a-0x39a.7 (1)
0x390|                                 0a            |           .    |      [143]: 10 transition_type 0x39b-0x39b.7 (1)
0x390|                                    09         |            .   |      [144]: 9 transition_type 0x39c-0x39c.7 (1)
0x390|                                       0a      |             .  |      [145]: 10 transition_type 0x39d-0x39d.7 (1)
0x390|                                          09   |              . |      [146]: 9 transition_type 0x39e-0x39e.7 (1)
0x390|                                             0a|               .|      [147]: 10 transition_type 0x39f-0x39f.7 (1)
0x3a0|09                                             |.               |      [148]: 9 transition_type 0x3a0-0x3a0.7 (1)
0x3a0|   0a                                          | .              |      [149]: 10 transition_type 0x3a1-0x3a1.7 (1)
0x3a0|      09                                       |  .             |      [150]: 9 transition_type 0x3a2-0x3a2.7 (1)
0x3a0|         0a                                    |   .            |      [151]: 10 transition_type 0x3a3-0x3a3.7 (1)
0x3a0|            09                                 |    .           |      [152]: 9 transition_type 0x3a4-0x3a4.7 (1)
0x3a0|               0a                              |     .          |      [153]: 10 transition_type 0x3a5-0x3a5.7 (1)
0x3a0|                  09                           |      .         |      [154]: 9 transition_type 0x3a6-0x3a6.7 (1)
0x3a0|                     0a                        |       .        |      [155]: 10 transition_type 0x3a7-0x3a7.7 (1)
0x3a0|                        09                     |        .       |      [156]: 9 transition_type 0x3a8-0x3a8.7 (1)
0x3a0|                           0a                  |         .      |      [157]: 10 transition_type 0x3a9-0x3a9.7 (1)
0x3a0|                              09               |          .     |      [158]: 9 transition_type 0x3aa-0x3aa.7 (1)
0x3a0|                                 0a            |           .    |      [159]: 10 transition_type 0x3ab-0x3ab.7 (1)
0x3a0|                                    09         |            .   |      [160]: 9 transition_type 0x3ac-0x3ac.7 (1)
0x3a0|                                       0a      |             .  |      [161]: 10 transition_type 0x3ad-0x3ad.7 (1)
0x3a0|                                          09   |              . |      [162]: 9 transition_type 0x3ae-0x3ae.7 (1)
0x3a0|                                             0a|               .|      [163]: 10 transition_type 0x3af-0x3af.7 (1)
0x3b0|09                                             |.               |      [164]: 9 transition_type 0x3b0-0x3b0.7 (1)
0x3b0|   0a                                          | .              |      [165]: 10 transition_type 0x3b1-0x3b1.7 (1)
0x3b0|      09                                       |  .             |      [166]: 9 transition_type 0x3b2-0x3b2.7 (1)
0x3b0|         0a                                    |   .            |      [167]: 10 transition_type 0x3b3-0x3b3.7 (1)
0x3b0|            09                                 |    .           |      [168]: 9 transition_type 0x3b4-0x3b4.7 (1)
0x3b0|               0a                              |     .          |      [169]: 10 transition_type 0x3b5-0x3b5.7 (1)
0x3b0|                  09                           |      .         |      [170]: 9 transition_type 0x3b6-0x3b6.7 (1)
0x3b0|                     0a                        |       .        |      [171]: 10 transition_type 0x3b7-0x3b7.7 (1)
0x3b0|                        09                     |        .       |      [172]: 9 transition_type 0x3b8-0x3b8.7 (1)
0x3b0|                           0a                  |         .      |      [173]: 10 transition_type 0x3b9-0x3b9.7 (1)
0x3b0|                              09               |          .     |      [174]: 9 transition_type 0x3ba-0x3ba.7 (1)
0x3b0|                                 0a            |           .    |      [175]: 10 transition_type 0x3bb-0x3bb.7 (1)
0x3b0|                                    09         |            .   |      [176]: 9 transition_type 0x3bc-0x3bc.7 (1)
0x3b0|                                       0a      |             .  |      [177]: 10 transition_type 0x3bd-0x3bd.7 (1)
0x3b0|                                          09   |              . |      [178]: 9 transition_type 0x3be-0x3be.7 (1)
0x3b0|                                             0a|               .|      [179]: 10 transition_type 0x3bf-0x3bf.7 (1)
0x3c0|09                                             |.               |      [180]: 9 transition_type 0x3c0-0x3c0.7 (1)
0x3c0|   0a                                          | .              |      [181]: 10 transition_type 0x3c1-0x3c1.7 (1)
0x3c0|      09                                       |  .             |      [182]: 9 transition_type 0x3c2-0x3c2.7 (1)
0x3c0|         0a                                    |   .            |      [183]: 10 transition_type 0x3c3-0x3c3.7 (1)
     |                                               |                |    local_time_type_records[0:11]: 0x3c4-0x405.7 (66)
     |                                               |                |      [0]{}: local_time_type 0x3c4-0x3c9.7 (6)
0x3c0|            00 00 04 1a                        |    ....        |        utoff: 1050 (valid) 0x3c4-0x3c7.7 (4)
0x3c0|                        00                     |        .       |        dst: 0 (valid) 0x3c8-0x3c8.7 (1)
0x3c0|                           00                  |         .      |        idx: 0 (valid) 0x3c9-0x3c9.7 (1)
     |                                               |                |      [1]{}: local_time_type 0x3ca-0x3cf.7 (6)
0x3c0|                              00 00 00 00      |          ....  |        utoff: 0 (valid) 0x3ca-0x3cd.7 (4)
0x3c0|                                          00   |              . |        dst: 0 (valid) 0x3ce-0x3ce.7 (1)
0x3c0|                                             04|               .|        idx: 4 (valid) 0x3cf-0x3cf.7 (1)
     |                                               |                |      [2]{}: local_time_type 0x3d0-0x3d5.7 (6)
0x3d0|00 00 0e 10                                    |....            |        utoff: 3600 (valid) 0x3d0-0x3d3.7 (4)
0x3d0|            00                                 |    .           |        dst: 0 (valid) 0x3d4-0x3d4.7 (1)
0x3d0|               08                              |     .          |        idx: 8 (valid) 0x3d5-0x3d5.7 (1)
     |                                               |                |      [3]{}: local_time_type 0x3d6-0x3db.7 (6)
0x3d0|                  00 00 1c 20                  |      ...       |        utoff: 7200 (valid) 0x3d6-0x3d9.7 (4)
0x3d0|                              01               |          .     |        dst: 1 (valid) 0x3da-0x3da.7 (1)
0x3d0|                                 0c            |           .    |        idx: 12 (valid) 0x3db-0x3db.7 (1)
     |                                               |                |      [4]{}: local_time_type 0x3dc-0x3e1.7 (6)
0x3d0|                                    00 00 0e 10|            ....|        utoff: 3600 (valid) 0x3dc-0x3df.7 (4)
0x3e0|00                                             |.               |        dst: 0 (valid) 0x3e0-0x3e0.7 (1)
0x3e0|   08                                          | .              |        idx: 8 (valid) 0x3e1-0x3e1.7 (1)
     |                                               |                |      [5]{}: local_time_type 0x3e2-0x3e7.7 (6)
0x3e0|      00 00 1c 20                              |  ...           |        utoff: 7200 (valid) 0x3e2-0x3e5.7 (4)
0x3e0|                  01                           |      .         |        dst: 1 (valid) 0x3e6-0x3e6.7 (1)
0x3e0|                     0c                        |       .        |        idx: 12 (valid) 0x3e7-0x3e7.7 (1)
     |                                               |                |      [6]{}: local_time_type 0x3e8-0x3ed.7 (6)
0x3e0|                        00 00 0e 10            |        ....    |        utoff: 3600 (valid) 0x3e8-0x3eb.7 (4)
0x3e0|                                    01         |            .   |        dst: 1 (valid) 0x3ec-0x3ec.7 (1)
0x3e0|                                       11      |             .  |        idx: 17 (valid) 0x3ed-0x3ed.7 (1)
     |                                               |                |      [7]{}: local_time_type 0x3ee-0x3f3.7 (6)
0x3e0|                                          00 00|              ..|        utoff: 0 (valid) 0x3ee-0x3f1.7 (4)
0x3f0|00 00                                          |..              |
0x3f0|      00                                       |  .             |        dst: 0 (valid) 0x3f2-0x3f2.7 (1)
0x3f0|         04                                    |   .            |        idx: 4 (valid) 0x3f3-0x3f3.7 (1)
     |                                               |                |      [8]{}: local_time_type 0x3f4-0x3f9.7 (6)
0x3f0|            00 00 00 00                        |    ....        |        utoff: 0 (valid) 0x3f4-0x3f7.7 (4)
0x3f0|                        00                     |        .       |        dst: 0 (valid) 0x3f8-0x3f8.7 (1)
0x3f0|                           04                  |         .      |        idx: 4 (valid) 0x3f9-0x3f9.7 (1)
     |                                               |                |      [9]{}: local_time_type 0x3fa-0x3ff.7 (6)
0x3f0|                              00 00 1c 20      |          ...   |        utoff: 7200 (valid) 0x3fa-0x3fd.7 (4)
0x3f0|                                          01   |              . |        dst: 1 (valid) 0x3fe-0x3fe.7 (1)
0x3f0|                                             0c|               .|        idx: 12 (valid) 0x3ff-0x3ff.7 (1)
     |                                               |                |      [10]{}: local_time_type 0x400-0x405.7 (6)
0x400|00 00 0e 10                                    |....            |        utoff: 3600 (valid) 0x400-0x403.7 (4)
0x400|            00                                 |    .           |        dst: 0 (valid) 0x404-0x404.7 (1)
0x400|               08                              |     .          |        idx: 8 (valid) 0x405-0x405.7 (1)
     |                                               |                |    time_zone_designations[0:5]: 0x406-0x41b.7 (22)
0x400|                  4c 4d 54 00                  |      LMT.      |      [0]: "LMT" time_zone_designation 0x406-0x409.7 (4)
0x400|                              57 45 54 00      |          WET.  |      [1]: "WET" time_zone_designation 0x40a-0x40d.7 (4)
0x400|                                          43 45|              CE|      [2]: "CET" time_zone_designation 0x40e-0x411.7 (4)
0x410|54 00                                          |T.              |
0x410|      43 45 53 54 00                           |  CEST.         |      [3]: "CEST" time_zone_designation 0x412-0x416.7 (5)
0x410|                     57 45 53 54 00            |       WEST.    |      [4]: "WEST" time_zone_designation 0x417-0x41b.7 (5)
     |                                               |                |    leap_second_records[0:0]: 0x41c-NA (0)
     |                                               |                |    standard_wall_indicators[0:11]: 0x41c-0x426.7 (11)
0x410|                                    00         |            .   |      [0]: 0 standard_wall_indicator (valid) 0x41c-0x41c.7 (1)
0x410|                                       00      |             .  |      [1]: 0 standard_wall_indicator (valid) 0x41d-0x41d.7 (1)
0x410|                                          00   |              . |      [2]: 0 standard_wall_indicator (valid) 0x41e-0x41e.7 (1)
0x410|                                             01|               .|      [3]: 1 standard_wall_indicator (valid) 0x41f-0x41f.7 (1)
0x420|01                                             |.               |      [4]: 1 standard_wall_indicator (valid) 0x420-0x420.7 (1)
0x420|   00                                          | .              |      [5]: 0 standard_wall_indicator (valid) 0x421-0x421.7 (1)
0x420|      01                                       |  .             |      [6]: 1 standard_wall_indicator (valid) 0x422-0x422.7 (1)
0x420|         01                                    |   .            |      [7]: 1 standard_wall_indicator (valid) 0x423-0x423.7 (1)
0x420|            01                                 |    .           |      [8]: 1 standard_wall_indicator (valid) 0x424-0x424.7 (1)
0x420|               01                              |     .          |      [9]: 1 standard_wall_indicator (valid) 0x425-0x425.7 (1)
0x420|                  01                           |      .         |      [10]: 1 standard_wall_indicator (valid) 0x426-0x426.7 (1)
     |                                               |                |    ut_local_indicators[0:11]: 0x427-0x431.7 (11)
0x420|                     00                        |       .        |      [0]: 0 ut_local_indicator (valid) 0x427-0x427.7 (1)
0x420|                        00                     |        .       |      [1]: 0 ut_local_indicator (valid) 0x428-0x428.7 (1)
0x420|                           00                  |         .      |      [2]: 0 ut_local_indicator (valid) 0x429-0x429.7 (1)
0x420|                              00               |          .     |      [3]: 0 ut_local_indicator (valid) 0x42a-0x42a.7 (1)
0x420|                                 00            |           .    |      [4]: 0 ut_local_indicator (valid) 0x42b-0x42b.7 (1)
0x420|                                    00         |            .   |      [5]: 0 ut_local_indicator (valid) 0x42c-0x42c.7 (1)
0x420|                                       00      |             .  |      [6]: 0 ut_local_indicator (valid) 0x42d-0x42d.7 (1)
0x420|                                          00   |              . |      [7]: 0 ut_local_indicator (valid) 0x42e-0x42e.7 (1)
0x420|                                             01|               .|      [8]: 1 ut_local_indicator (valid) 0x42f-0x42f.7 (1)
0x430|01                                             |.               |      [9]: 1 ut_local_indicator (valid) 0x430-0x430.7 (1)
0x430|   01                                          | .              |      [10]: 1 ut_local_indicator (valid) 0x431-0x431.7 (1)
     |                                               |                |  v2plusheader{}: 0x432-0x45d.7 (44)
0x430|      54 5a 69 66                              |  TZif          |    magic: 0x545a6966 (valid) 0x432-0x435.7 (4)
0x430|                  32                           |      2         |    ver: "2" (0x32) (valid) 0x436-0x436.7 (1)
0x430|                     00 00 00 00 00 00 00 00 00|       .........|    reserved: raw bits 0x437-0x445.7 (15)
0x440|00 00 00 00 00 00                              |......          |
0x440|                  00 00 00 0c                  |      ....      |    isutcnt: 12 0x446-0x449.7 (4)
0x440|                              00 00 00 0c      |          ....  |    isstdcnt: 12 0x44a-0x44d.7 (4)
0x440|                                          00 00|              ..|    leapcnt: 0 0x44e-0x451.7 (4)
0x450|00 00                                          |..              |
0x450|      00 00 00 b9                              |  ....          |    timecnt: 185 0x452-0x455.7 (4)
0x450|                  00 00 00 0c                  |      ....      |    typecnt: 12 0x456-0x459.7 (4)
0x450|                              00 00 00 1a      |          ....  |    charcnt: 26 0x45a-0x45d.7 (4)
     |                                               |                |  v2plusdatablock{}: 0x45e-0xb58.7 (1787)
     |                                               |                |    transition_times[0:185]: 0x45e-0xa25.7 (1480)
0x450|                                          ff ff|              ..|      [0]: "1879-12-31T23:42:30Z" (-2840141850) transition_time 0x45e-0x465.7 (8)
0x460|ff ff 56 b6 df e6                              |..V...          |
0x460|                  ff ff ff ff 6d e8 c8 00      |      ....m...  |      [1]: "1892-05-01T00:00:00Z" (-2450995200) transition_time 0x466-0x46d.7 (8)
0x460|                                          ff ff|              ..|      [2]: "1914-11-08T00:00:00Z" (-1740355200) transition_time 0x46e-0x475.7 (8)
0x470|ff ff 98 44 49 80                              |...DI.          |
0x470|                  ff ff ff ff 9b 0c 25 70      |      ......%p  |      [3]: "1916-04-30T23:00:00Z" (-1693702800) transition_time 0x476-0x47d.7 (8)
0x470|                                          ff ff|              ..|      [4]: "1916-09-30T23:00:00Z" (-1680483600) transition_time 0x47e-0x485.7 (8)
0x480|ff ff 9b d5 da f0                              |......          |
0x480|                  ff ff ff ff 9c d9 ae 90      |      ........  |      [5]: "1917-04-16T01:00:00Z" (-1663455600) transition_time 0x486-0x48d.7 (8)
0x480|                                          ff ff|              ..|      [6]: "1917-09-17T01:00:00Z" (-1650150000) transition_time 0x48e-0x495.7 (8)
0x490|ff ff 9d a4 b5 90                              |......          |
0x490|                  ff ff ff ff 9e b9 90 90      |      ........  |      [7]: "1918-04-15T01:00:00Z" (-1632006000) transition_time 0x496-0x49d.7 (8)
0x490|                                          ff ff|              ..|      [8]: "1918-09-16T01:00:00Z" (-1618700400) transition_time 0x49e-0x4a5.7 (8)
0x4a0|ff ff 9f 84 97 90                              |......          |
0x4a0|                  ff ff ff ff 9f ce f8 30      |      .......0  |      [9]: "1918-11-11T11:00:00Z" (-1613826000) transition_time 0x4a6-0x4ad.7 (8)
0x4a0|                                          ff ff|              ..|      [10]: "1919-03-01T23:00:00Z" (-1604278800) transition_time 0x4ae-0x4b5.7 (8)
0x4b0|ff ff a0 60 a5 f0                              |...`..          |
0x4b0|                  ff ff ff ff a1 7e bb 70      |      .....~.p  |      [11]: "1919-10-04T23:00:00Z" (-1585530000) transition_time 0x4b6-0x4bd.7 (8)
0x4b0|                                          ff ff|              ..|      [12]: "1920-02-14T23:00:00Z" (-1574038800) transition_time 0x4be-0x4c5.7 (8)
0x4c0|ff ff a2 2e 12 f0                              |......          |
0x4c0|                  ff ff ff ff a3 7a 4c f0      |      .....zL.  |      [13]: "1920-10-23T23:00:00Z" (-1552266000) transition_time 0x4c6-0x4cd.7 (8)
0x4c0|                                          ff ff|              ..|      [14]: "1921-03-14T23:00:00Z" (-1539997200) transition_time 0x4ce-0x4d5.7 (8)
0x4d0|ff ff a4 35 81 f0                              |...5..          |
0x4d0|                  ff ff ff ff a5 5e 23 70      |      .....^#p  |      [15]: "1921-10-25T23:00:00Z" (-1520557200) transition_time 0x4d6-0x4dd.7 (8)
0x4d0|                                          ff ff|              ..|      [16]: "1922-03-25T23:00:00Z" (-1507510800) transition_time 0x4de-0x4e5.7 (8)
0x4e0|ff ff a6 25 35 f0                              |...%5.          |
0x4e0|                  ff ff ff ff a7 27 9b f0      |      .....'..  |      [17]: "1922-10-07T23:00:00Z" (-1490576400) transition_time 0x4e6-0x4ed.7 (8)
0x4e0|                                          ff ff|              ..|      [18]: "1923-04-21T23:00:00Z" (-1473642000) transition_time 0x4ee-0x4f5.7 (8)
0x4f0|ff ff a8 2a 01 f0                              |...*..          |
0x4f0|                  ff ff ff ff a9 07 7d f0      |      ......}.  |      [19]: "1923-10-06T23:00:00Z" (-1459126800) transition_time 0x4f6-0x4fd.7 (8)
0x4f0|                                          ff ff|              ..|      [20]: "1924-03-29T23:00:00Z" (-1444006800) transition_time 0x4fe-0x505.7 (8)
0x500|ff ff a9 ee 34 70                              |....4p          |
0x500|                  ff ff ff ff aa e7 5f f0      |      ......_.  |      [21]: "1924-10-04T23:00:00Z" (-1427677200) transition_time 0x506-0x50d.7 (8)
0x500|                                          ff ff|              ..|      [22]: "1925-04-04T23:00:00Z" (-1411952400) transition_time 0x50e-0x515.7 (8)
0x510|ff ff ab d7 50 f0                              |....P.          |
0x510|                  ff ff ff ff ac c7 41 f0      |      ......A.  |      [23]: "1925-10-03T23:00:00Z" (-1396227600) transition_time 0x516-0x51d.7 (8)
0x510|                                          ff ff|              ..|      [24]: "1926-04-17T23:00:00Z" (-1379293200) transition_time 0x51e-0x525.7 (8)
0x520|ff ff ad c9 a7 f0                              |......          |
0x520|                  ff ff ff ff ae a7 23 f0      |      ......#.  |      [25]: "1926-10-02T23:00:00Z" (-1364778000) transition_time 0x526-0x52d.7 (8)
0x520|                                          ff ff|              ..|      [26]: "1927-04-09T23:00:00Z" (-1348448400) transition_time 0x52e-0x535.7 (8)
0x530|ff ff af a0 4f 70                              |....Op          |
0x530|                  ff ff ff ff b0 87 05 f0      |      ........  |      [27]: "1927-10-01T23:00:00Z" (-1333328400) transition_time 0x536-0x53d.7 (8)
0x530|                                          ff ff|              ..|      [28]: "1928-04-14T23:00:00Z" (-1316394000) transition_time 0x53e-0x545.7 (8)
0x540|ff ff b1 89 6b f0                              |....k.          |
0x540|                  ff ff ff ff b2 70 4c a0      |      .....pL.  |      [29]: "1928-10-07T02:00:00Z" (-1301263200) transition_time 0x546-0x54d.7 (8)
0x540|                                          ff ff|              ..|      [30]: "1929-04-21T02:00:00Z" (-1284328800) transition_time 0x54e-0x555.7 (8)
0x550|ff ff b3 72 b2 a0                              |...r..          |
0x550|                  ff ff ff ff b4 50 2e a0      |      .....P..  |      [31]: "1929-10-06T02:00:00Z" (-1269813600) transition_time 0x556-0x55d.7 (8)
0x550|                                          ff ff|              ..|      [32]: "1930-04-13T02:00:00Z" (-1253484000) transition_time 0x55e-0x565.7 (8)
0x560|ff ff b5 49 5a 20                              |...IZ           |
0x560|                  ff ff ff ff b6 30 10 a0      |      .....0..  |      [33]: "1930-10-05T02:00:00Z" (-1238364000) transition_time 0x566-0x56d.7 (8)
0x560|                                          ff ff|              ..|      [34]: "1931-04-19T02:00:00Z" (-1221429600) transition_time 0x56e-0x575.7 (8)
0x570|ff ff b7 32 76 a0                              |...2v.          |
0x570|                  ff ff ff ff b8 0f f2 a0      |      ........  |      [35]: "1931-10-04T02:00:00Z" (-1206914400) transition_time 0x576-0x57d.7 (8)
0x570|                                          ff ff|              ..|      [36]: "1932-04-03T02:00:00Z" (-1191189600) transition_time 0x57e-0x585.7 (8)
0x580|ff ff b8 ff e3 a0                              |......          |
0x580|                  ff ff ff ff b9 ef d4 a0      |      ........  |      [37]: "1932-10-02T02:00:00Z" (-1175464800) transition_time 0x586-0x58d.7 (8)
0x580|                                          ff ff|              ..|      [38]: "1933-03-26T02:00:00Z" (-1160344800) transition_time 0x58e-0x595.7 (8)
0x590|ff ff ba d6 8b 20                              |.....           |
0x590|                  ff ff ff ff bb d8 f1 20      |      .......   |      [39]: "1933-10-08T02:00:00Z" (-1143410400) transition_time 0x596-0x59d.7 (8)
0x590|                                          ff ff|              ..|      [40]: "1934-04-08T02:00:00Z" (-1127685600) transition_time 0x59e-0x5a5.7 (8)
0x5a0|ff ff bc c8 e2 20                              |.....           |
0x5a0|                  ff ff ff ff bd b8 d3 20      |      .......   |      [41]: "1934-10-07T02:00:00Z" (-1111960800) transition_time 0x5a6-0x5ad.7 (8)
0x5a0|                                          ff ff|              ..|      [42]: "1935-03-31T02:00:00Z" (-1096840800) transition_time 0x5ae-0x5b5.7 (8)
0x5b0|ff ff be 9f 89 a0                              |......          |
0x5b0|                  ff ff ff ff bf 98 b5 20      |      .......   |      [43]: "1935-10-06T02:00:00Z" (-1080511200) transition_time 0x5b6-0x5bd.7 (8)
0x5b0|                                          ff ff|              ..|      [44]: "1936-04-19T02:00:00Z" (-1063576800) transition_time 0x5be-0x5c5.7 (8)
0x5c0|ff ff c0 9b 1b 20                              |.....           |
0x5c0|                  ff ff ff ff c1 78 97 20      |      .....x.   |      [45]: "1936-10-04T02:00:00Z" (-1049061600) transition_time 0x5c6-0x5cd.7 (8)
0x5c0|                                          ff ff|              ..|      [46]: "1937-04-04T02:00:00Z" (-1033336800) transition_time 0x5ce-0x5d5.7 (8)
0x5d0|ff ff c2 68 88 20                              |...h.           |
0x5d0|                  ff ff ff ff c3 58 79 20      |      .....Xy   |      [47]: "1937-10-03T02:00:00Z" (-1017612000) transition_time 0x5d6-0x5dd.7 (8)
0x5d0|                                          ff ff|              ..|      [48]: "1938-03-27T02:00:00Z" (-1002492000) transition_time 0x5de-0x5e5.7 (8)
0x5e0|ff ff c4 3f 2f a0                              |...?/.          |
0x5e0|                  ff ff ff ff c5 38 5b 20      |      .....8[   |      [49]: "1938-10-02T02:00:00Z" (-986162400) transition_time 0x5e6-0x5ed.7 (8)
0x5e0|                                          ff ff|              ..|      [50]: "1939-04-16T02:00:00Z" (-969228000) transition_time 0x5ee-0x5f5.7 (8)
0x5f0|ff ff c6 3a c1 20                              |...:.           |
0x5f0|                  ff ff ff ff c7 58 d6 a0      |      .....X..  |      [51]: "1939-11-19T02:00:00Z" (-950479200) transition_time 0x5f6-0x5fd.7 (8)
0x5f0|                                          ff ff|              ..|      [52]: "1940-02-25T02:00:00Z" (-942012000) transition_time 0x5fe-0x605.7 (8)
0x600|ff ff c7 da 09 a0                              |......          |
0x600|                  ff ff ff ff c8 4a 19 20      |      .....J.   |      [53]: "1940-05-20T02:00:00Z" (-934668000) transition_time 0x606-0x60d.7 (8)
0x600|                                          ff ff|              ..|      [54]: "1942-11-02T01:00:00Z" (-857257200) transition_time 0x60e-0x615.7 (8)
0x610|ff ff cc e7 4b 10                              |....K.          |
0x610|                  ff ff ff ff cd a9 17 90      |      ........  |      [55]: "1943-03-29T01:00:00Z" (-844556400) transition_time 0x616-0x61d.7 (8)
0x610|                                          ff ff|              ..|      [56]: "1943-10-04T01:00:00Z" (-828226800) transition_time 0x61e-0x625.7 (8)
0x620|ff ff ce a2 43 10                              |....C.          |
0x620|                  ff ff ff ff cf 92 34 10      |      ......4.  |      [57]: "1944-04-03T01:00:00Z" (-812502000) transition_time 0x626-0x62d.7 (8)
0x620|                                          ff ff|              ..|      [58]: "1944-09-17T01:00:00Z" (-798073200) transition_time 0x62e-0x635.7 (8)
0x630|ff ff d0 6e 5e 90                              |...n^.          |
0x630|                  ff ff ff ff d1 72 16 10      |      .....r..  |      [59]: "1945-04-02T01:00:00Z" (-781052400) transition_time 0x636-0x63d.7 (8)
0x630|                                          ff ff|              ..|      [60]: "1945-09-16T01:00:00Z" (-766623600) transition_time 0x63e-0x645.7 (8)
0x640|ff ff d2 4e 40 90                              |...N@.          |
0x640|                  ff ff ff ff d3 91 40 10      |      ......@.  |      [61]: "1946-05-19T01:00:00Z" (-745455600) transition_time 0x646-0x64d.7 (8)
0x640|                                          ff ff|              ..|      [62]: "1946-10-07T01:00:00Z" (-733273200) transition_time 0x64e-0x655.7 (8)
0x650|ff ff d4 4b 23 90                              |...K#.          |
0x650|                  00 00 00 00 0d a4 63 90      |      ......c.  |      [63]: "1977-04-03T01:00:00Z" (228877200) transition_time 0x656-0x65d.7 (8)
0x650|                                          00 00|              ..|      [64]: "1977-09-25T01:00:00Z" (243997200) transition_time 0x65e-0x665.7 (8)
0x660|00 00 0e 8b 1a 10                              |......          |
0x660|                  00 00 00 00 0f 84 45 90      |      ......E.  |      [65]: "1978-04-02T01:00:00Z" (260326800) transition_time 0x666-0x66d.7 (8)
0x660|                                          00 00|              ..|      [66]: "1978-10-01T01:00:00Z" (276051600) transition_time 0x66e-0x675.7 (8)
0x670|00 00 10 74 36 90                              |...t6.          |
0x670|                  00 00 00 00 11 64 27 90      |      .....d'.  |      [67]: "1979-04-01T01:00:00Z" (291776400) transition_time 0x676-0x67d.7 (8)
0x670|                                          00 00|              ..|      [68]: "1979-09-30T01:00:00Z" (307501200) transition_time 0x67e-0x685.7 (8)
0x680|00 00 12 54 18 90                              |...T..          |
0x680|                  00 00 00 00 13 4d 44 10      |      .....MD.  |      [69]: "1980-04-06T01:00:00Z" (323830800) transition_time 0x686-0x68d.7 (8)
0x680|                                          00 00|              ..|      [70]: "1980-09-28T01:00:00Z" (338950800) transition_time 0x68e-0x695.7 (8)
0x690|00 00 14 33 fa 90                              |...3..          |
0x690|                  00 00 00 00 15 23 eb 90      |      .....#..  |      [71]: "1981-03-29T01:00:00Z" (354675600) transition_time 0x696-0x69d.7 (8)
0x690|                                          00 00|              ..|      [72]: "1981-09-27T01:00:00Z" (370400400) transition_time 0x69e-0x6a5.7 (8)
0x6a0|00 00 16 13 dc 90                              |......          |
0x6a0|                  00 00 00 00 17 03 cd 90      |      ........  |      [73]: "1982-03-28T01:00:00Z" (386125200) transition_time 0x6a6-0x6ad.7 (8)
0x6a0|                                          00 00|              ..|      [74]: "1982-09-26T01:00:00Z" (401850000) transition_time 0x6ae-0x6b5.7 (8)
0x6b0|00 00 17 f3 be 90                              |......          |
0x6b0|                  00 00 00 00 18 e3 af 90      |      ........  |      [75]: "1983-03-27T01:00:00Z" (417574800) transition_time 0x6b6-0x6bd.7 (8)
0x6b0|                                          00 00|              ..|      [76]: "1983-09-25T01:00:00Z" (433299600) transition_time 0x6be-0x6c5.7 (8)
0x6c0|00 00 19 d3 a0 90                              |......          |
0x6c0|                  00 00 00 00 1a c3 91 90      |      ........  |      [77]: "1984-03-25T01:00:00Z" (449024400) transition_time 0x6c6-0x6cd.7 (8)
0x6c0|                                          00 00|              ..|      [78]: "1984-09-30T01:00:00Z" (465354000) transition_time 0x6ce-0x6d5.7 (8)
0x6d0|00 00 1b bc bd 10                              |......          |
0x6d0|                  00 00 00 00 1c ac ae 10      |      ........  |      [79]: "1985-03-31T01:00:00Z" (481078800) transition_time 0x6d6-0x6dd.7 (8)
0x6d0|                                          00 00|              ..|      [80]: "1985-09-29T01:00:00Z" (496803600) transition_time 0x6de-0x6e5.7 (8)
0x6e0|00 00 1d 9c 9f 10                              |......          |
0x6e0|                  00 00 00 00 1e 8c 90 10      |      ........  |      [81]: "1986-03-30T01:00:00Z" (512528400) transition_time 0x6e6-0x6ed.7 (8)
0x6e0|                                          00 00|              ..|      [82]: "1986-09-28T01:00:00Z" (528253200) transition_time 0x6ee-0x6f5.7 (8)
0x6f0|00 00 1f 7c 81 10                              |...|..          |
0x6f0|                  00 00 00 00 20 6c 72 10      |      .... lr.  |      [83]: "1987-03-29T01:00:00Z" (543978000) transition_time 0x6f6-0x6fd.7 (8)
0x6f0|                                          00 00|              ..|      [84]: "1987-09-27T01:00:00Z" (559702800) transition_time 0x6fe-0x705.7 (8)
0x700|00 00 21 5c 63 10                              |..!\c.          |
0x700|                  00 00 00 00 22 4c 54 10      |      ...."LT.  |      [85]: "1988-03-27T01:00:00Z" (575427600) transition_time 0x706-0x70d.7 (8)
0x700|                                          00 00|              ..|      [86]: "1988-09-25T01:00:00Z" (591152400) transition_time 0x70e-0x715.7 (8)
0x710|00 00 23 3c 45 10                              |..#<E.          |
0x710|                  00 00 00 00 24 2c 36 10      |      ....$,6.  |      [87]: "1989-03-26T01:00:00Z" (606877200) transition_time 0x716-0x71d.7 (8)
0x710|                                          00 00|              ..|      [88]: "1989-09-24T01:00:00Z" (622602000) transition_time 0x71e-0x725.7 (8)
0x720|00 00 25 1c 27 10                              |..%.'.          |
0x720|                  00 00 00 00 26 0c 18 10      |      ....&...  |      [89]: "1990-03-25T01:00:00Z" (638326800) transition_time 0x726-0x72d.7 (8)
0x720|                                          00 00|              ..|      [90]: "1990-09-30T01:00:00Z" (654656400) transition_time 0x72e-0x735.7 (8)
0x730|00 00 27 05 43 90                              |..'.C.          |
0x730|                  00 00 00 00 27 f5 34 90      |      ....'.4.  |      [91]: "1991-03-31T01:00:00Z" (670381200) transition_time 0x736-0x73d.7 (8)
0x730|                                          00 00|              ..|      [92]: "1991-09-29T01:00:00Z" (686106000) transition_time 0x73e-0x745.7 (8)
0x740|00 00 28 e5 25 90                              |..(.%.          |
0x740|                  00 00 00 00 29 d5 16 90      |      ....)...  |      [93]: "1992-03-29T01:00:00Z" (701830800) transition_time 0x746-0x74d.7 (8)
0x740|                                          00 00|              ..|      [94]: "1992-09-27T01:00:00Z" (717555600) transition_time 0x74e-0x755.7 (8)
0x750|00 00 2a c5 07 90                              |..*...          |
0x750|                  00 00 00 00 2b b4 f8 90      |      ....+...  |      [95]: "1993-03-28T01:00:00Z" (733280400) transition_time 0x756-0x75d.7 (8)
0x750|                                          00 00|              ..|      [96]: "1993-09-26T01:00:00Z" (749005200) transition_time 0x75e-0x765.7 (8)
0x760|00 00 2c a4 e9 90                              |..,...          |
0x760|                  00 00 00 00 2d 94 da 90      |      ....-...  |      [97]: "1994-03-27T01:00:00Z" (764730000) transition_time 0x766-0x76d.7 (8)
0x760|                                          00 00|              ..|      [98]: "1994-09-25T01:00:00Z" (780454800) transition_time 0x76e-0x775.7 (8)
0x770|00 00 2e 84 cb 90                              |......          |
0x770|                  00 00 00 00 2f 74 bc 90      |      ..../t..  |      [99]: "1995-03-26T01:00:00Z" (796179600) transition_time 0x776-0x77d.7 (8)
0x770|                                          00 00|              ..|      [100]: "1995-09-24T01:00:00Z" (811904400) transition_time 0x77e-0x785.7 (8)
0x780|00 00 30 64 ad 90                              |..0d..          |
0x780|                  00 00 00 00 31 5d d9 10      |      ....1]..  |      [101]: "1996-03-31T01:00:00Z" (828234000) transition_time 0x786-0x78d.7 (8)
0x780|                                          00 00|              ..|      [102]: "1996-10-27T01:00:00Z" (846378000) transition_time 0x78e-0x795.7 (8)
0x790|00 00 32 72 b4 10                              |..2r..          |
0x790|                  00 00 00 00 33 3d bb 10      |      ....3=..  |      [103]: "1997-03-30T01:00:00Z" (859683600) transition_time 0x796-0x79d.7 (8)
0x790|                                          00 00|              ..|      [104]: "1997-10-26T01:00:00Z" (877827600) transition_time 0x79e-0x7a5.7 (8)
0x7a0|00 00 34 52 96 10                              |..4R..          |
0x7a0|                  00 00 00 00 35 1d 9d 10      |      ....5...  |      [105]: "1998-03-29T01:00:00Z" (891133200) transition_time 0x7a6-0x7ad.7 (8)
0x7a0|                                          00 00|              ..|      [106]: "1998-10-25T01:00:00Z" (909277200) transition_time 0x7ae-0x7b5.7 (8)
0x7b0|00 00 36 32 78 10                              |..62x.          |
0x7b0|                  00 00 00 00 36 fd 7f 10      |      ....6...  |      [107]: "1999-03-28T01:00:00Z" (922582800) transition_time 0x7b6-0x7bd.7 (8)
0x7b0|                                          00 00|              ..|      [108]: "1999-10-31T01:00:00Z" (941331600) transition_time 0x7be-0x7c5.7 (8)
0x7c0|00 00 38 1b 94 90                              |..8...          |
0x7c0|                  00 00 00 00 38 dd 61 10      |      ....8.a.  |      [109]: "2000-03-26T01:00:00Z" (954032400) transition_time 0x7c6-0x7cd.7 (8)
0x7c0|                                          00 00|              ..|      [110]: "2000-10-29T01:00:00Z" (972781200) transition_time 0x7ce-0x7d5.7 (8)
0x7d0|00 00 39 fb 76 90                              |..9.v.          |
0x7d0|                  00 00 00 00 3a bd 43 10      |      ....:.C.  |      [111]: "2001-03-25T01:00:00Z" (985482000) transition_time 0x7d6-0x7dd.7 (8)
0x7d0|                                          00 00|              ..|      [112]: "2001-10-28T01:00:00Z" (1004230800) transition_time 0x7de-0x7e5.7 (8)
0x7e0|00 00 3b db 58 90                              |..;.X.          |
0x7e0|                  00 00 00 00 3c a6 5f 90      |      ....<._.  |      [113]: "2002-03-31T01:00:00Z" (1017536400) transition_time 0x7e6-0x7ed.7 (8)
0x7e0|                                          00 00|              ..|      [114]: "2002-10-27T01:00:00Z" (1035680400) transition_time 0x7ee-0x7f5.7 (8)
0x7f0|00 00 3d bb 3a 90                              |..=.:.          |
0x7f0|                  00 00 00 00 3e 86 41 90      |      ....>.A.  |      [115]: "2003-03-30T01:00:00Z" (1048986000) transition_time 0x7f6-0x7fd.7 (8)
0x7f0|                                          00 00|              ..|      [116]: "2003-10-26T01:00:00Z" (1067130000) transition_time 0x7fe-0x805.7 (8)
0x800|00 00 3f 9b 1c 90                              |..?...          |
0x800|                  00 00 00 00 40 66 23 90      |      ....@f#.  |      [117]: "2004-03-28T01:00:00Z" (1080435600) transition_time 0x806-0x80d.7 (8)
0x800|                                          00 00|              ..|      [118]: "2004-10-31T01:00:00Z" (1099184400) transition_time 0x80e-0x815.7 (8)
0x810|00 00 41 84 39 10                              |..A.9.          |
0x810|                  00 00 00 00 42 46 05 90      |      ....BF..  |      [119]: "2005-03-27T01:00:00Z" (1111885200) transition_time 0x816-0x81d.7 (8)
0x810|                                          00 00|              ..|      [120]: "2005-10-30T01:00:00Z" (1130634000) transition_time 0x81e-0x825.7 (8)
0x820|00 00 43 64 1b 10                              |..Cd..          |
0x820|                  00 00 00 00 44 25 e7 90      |      ....D%..  |      [121]: "2006-03-26T01:00:00Z" (1143334800) transition_time 0x826-0x82d.7 (8)
0x820|                                          00 00|              ..|      [122]: "2006-10-29T01:00:00Z" (1162083600) transition_time 0x82e-0x835.7 (8)
0x830|00 00 45 43 fd 10                              |..EC..          |
0x830|                  00 00 00 00 46 05 c9 90      |      ....F...  |      [123]: "2007-03-25T01:00:00Z" (1174784400) transition_time 0x836-0x83d.7 (8)
0x830|                                          00 00|              ..|      [124]: "2007-10-28T01:00:00Z" (1193533200) transition_time 0x83e-0x845.7 (8)
0x840|00 00 47 23 df 10                              |..G#..          |
0x840|                  00 00 00 00 47 ee e6 10      |      ....G...  |      [125]: "2008-03-30T01:00:00Z" (1206838800) transition_time 0x846-0x84d.7 (8)
0x840|                                          00 00|              ..|      [126]: "2008-10-26T01:00:00Z" (1224982800) transition_time 0x84e-0x855.7 (8)
0x850|00 00 49 03 c1 10                              |..I...          |
0x850|                  00 00 00 00 49 ce c8 10      |      ....I...  |      [127]: "2009-03-29T01:00:00Z" (1238288400) transition_time 0x856-0x85d.7 (8)
0x850|                                          00 00|              ..|      [128]: "2009-10-25T01:00:00Z" (1256432400) transition_time 0x85e-0x865.7 (8)
0x860|00 00 4a e3 a3 10                              |..J...          |
0x860|                  00 00 00 00 4b ae aa 10      |      ....K...  |      [129]: "2010-03-28T01:00:00Z" (1269738000) transition_time 0x866-0x86d.7 (8)
0x860|                                          00 00|              ..|      [130]: "2010-10-31T01:00:00Z" (1288486800) transition_time 0x86e-0x875.7 (8)
0x870|00 00 4c cc bf 90                              |..L...          |
0x870|                  00 00 00 00 4d 8e 8c 10      |      ....M...  |      [131]: "2011-03-27T01:00:00Z" (1301187600) transition_time 0x876-0x87d.7 (8)
0x870|                                          00 00|              ..|      [132]: "2011-10-30T01:00:00Z" (1319936400) transition_time 0x87e-0x885.7 (8)
0x880|00 00 4e ac a1 90                              |..N...          |
0x880|                  00 00 00 00 4f 6e 6e 10      |      ....Onn.  |      [133]: "2012-03-25T01:00:00Z" (1332637200) transition_time 0x886-0x88d.7 (8)
0x880|                                          00 00|              ..|      [134]: "2012-10-28T01:00:00Z" (1351386000) transition_time 0x88e-0x895.7 (8)
0x890|00 00 50 8c 83 90                              |..P...          |
0x890|                  00 00 00 00 51 57 8a 90      |      ....QW..  |      [135]: "2013-03-31T01:00:00Z" (1364691600) transition_time 0x896-0x89d.7 (8)
0x890|                                          00 00|              ..|      [136]: "2013-10-27T01:00:00Z" (1382835600) transition_time 0x89e-0x8a5.7 (8)
0x8a0|00 00 52 6c 65 90                              |..Rle.          |
0x8a0|                  00 00 00 00 53 37 6c 90      |      ....S7l.  |      [137]: "2014-03-30T01:00:00Z" (1396141200) transition_time 0x8a6-0x8ad.7 (8)
0x8a0|                                          00 00|              ..|      [138]: "2014-10-26T01:00:00Z" (1414285200) transition_time 0x8ae-0x8b5.7 (8)
0x8b0|00 00 54 4c 47 90                              |..TLG.          |
0x8b0|                  00 00 00 00 55 17 4e 90      |      ....U.N.  |      [139]: "2015-03-29T01:00:00Z" (1427590800) transition_time 0x8b6-0x8bd.7 (8)
0x8b0|                                          00 00|              ..|      [140]: "2015-10-25T01:00:00Z" (1445734800) transition_time 0x8be-0x8c5.7 (8)
0x8c0|00 00 56 2c 29 90                              |..V,).          |
0x8c0|                  00 00 00 00 56 f7 30 90      |      ....V.0.  |      [141]: "2016-03-27T01:00:00Z" (1459040400) transition_time 0x8c6-0x8cd.7 (8)
0x8c0|                                          00 00|              ..|      [142]: "2016-10-30T01:00:00Z" (1477789200) transition_time 0x8ce-0x8d5.7 (8)
0x8d0|00 00 58 15 46 10                              |..X.F.          |
0x8d0|                  00 00 00 00 58 d7 12 90      |      ....X...  |      [143]: "2017-03-26T01:00:00Z" (1490490000) transition_time 0x8d6-0x8dd.7 (8)
0x8d0|                                          00 00|              ..|      [144]: "2017-10-29T01:00:00Z" (1509238800) transition_time 0x8de-0x8e5.7 (8)
0x8e0|00 00 59 f5 28 10                              |..Y.(.          |
0x8e0|                  00 00 00 00 5a b6 f4 90      |      ....Z...  |      [145]: "2018-03-25T01:00:00Z" (1521939600) transition_time 0x8e6-0x8ed.7 (8)
0x8e0|                                          00 00|              ..|      [146]: "2018-10-28T01:00:00Z" (1540688400) transition_time 0x8ee-0x8f5.7 (8)
0x8f0|00 00 5b d5 0a 10                              |..[...          |
0x8f0|                  00 00 00 00 5c a0 11 10      |      ....\...  |      [147]: "2019-03-31T01:00:00Z" (1553994000) transition_time 0x8f6-0x8fd.7 (8)
0x8f0|                                          00 00|              ..|      [148]: "2019-10-27T01:00:00Z" (1572138000) transition_time 0x8fe-0x905.7 (8)
0x900|00 00 5d b4 ec 10                              |..]...          |
0x900|                  00 00 00 00 5e 7f f3 10      |      ....^...  |      [149]: "2020-03-29T01:00:00Z" (1585443600) transition_time 0x906-0x90d.7 (8)
0x900|                                          00 00|              ..|      [150]: "2020-10-25T01:00:00Z" (1603587600) transition_time 0x90e-0x915.7 (8)
0x910|00 00 5f 94 ce 10                              |.._...          |
0x910|                  00 00 00 00 60 5f d5 10      |      ....`_..  |      [151]: "2021-03-28T01:00:00Z" (1616893200) transition_time 0x916-0x91d.7 (8)
0x910|                                          00 00|              ..|      [152]: "2021-10-31T01:00:00Z" (1635642000) transition_time 0x91e-0x925.7 (8)
0x920|00 00 61 7d ea 90                              |..a}..          |
0x920|                  00 00 00 00 62 3f b7 10      |      ....b?..  |      [153]: "2022-03-27T01:00:00Z" (1648342800) transition_time 0x926-0x92d.7 (8)
0x920|                                          00 00|              ..|      [154]: "2022-10-30T01:00:00Z" (1667091600) transition_time 0x92e-0x935.7 (8)
0x930|00 00 63 5d cc 90                              |..c]..          |
0x930|                  00 00 00 00 64 1f 99 10      |      ....d...  |      [155]: "2023-03-26T01:00:00Z" (1679792400) transition_time 0x936-0x93d.7 (8)
0x930|                                          00 00|              ..|      [156]: "2023-10-29T01:00:00Z" (1698541200) transition_time 0x93e-0x945.7 (8)
0x940|00 00 65 3d ae 90                              |..e=..          |
0x940|                  00 00 00 00 66 08 b5 90      |      ....f...  |      [157]: "2024-03-31T01:00:00Z" (1711846800) transition_time 0x946-0x94d.7 (8)
0x940|                                          00 00|              ..|      [158]: "2024-10-27T01:00:00Z" (1729990800) transition_time 0x94e-0x955.7 (8)
0x950|00 00 67 1d 90 90                              |..g...          |
0x950|                  00 00 00 00 67 e8 97 90      |      ....g...  |      [159]: "2025-03-30T01:00:00Z" (1743296400) transition_time 0x956-0x95d.7 (8)
0x950|                                          00 00|              ..|      [160]: "2025-10-26T01:00:00Z" (1761440400) transition_time 0x95e-0x965.7 (8)
0x960|00 00 68 fd 72 90                              |..h.r.          |
0x960|                  00 00 00 00 69 c8 79 90      |      ....i.y.  |      [161]: "2026-03-29T01:00:00Z" (1774746000) transition_time 0x966-0x96d.7 (8)
0x960|                                          00 00|              ..|      [162]: "2026-10-25T01:00:00Z" (1792890000) transition_time 0x96e-0x975.7 (8)
0x970|00 00 6a dd 54 90                              |..j.T.          |
0x970|                  00 00 00 00 6b a8 5b 90      |      ....k.[.  |      [163]: "2027-03-28T01:00:00Z" (1806195600) transition_time 0x976-0x97d.7 (8)
0x970|                                          00 00|              ..|      [164]: "2027-10-31T01:00:00Z" (1824944400) transition_time 0x97e-0x985.7 (8)
0x980|00 00 6c c6 71 10                              |..l.q.          |
0x980|                  00 00 00 00 6d 88 3d 90      |      ....m.=.  |      [165]: "2028-03-26T01:00:00Z" (1837645200) transition_time 0x986-0x98d.7 (8)
0x980|                                          00 00|              ..|      [166]: "2028-10-29T01:00:00Z" (1856394000) transition_time 0x98e-0x995.7 (8)
0x990|00 00 6e a6 53 10                              |..n.S.          |
0x990|                  00 00 00 00 6f 68 1f 90      |      ....oh..  |      [167]: "2029-03-25T01:00:00Z" (1869094800) transition_time 0x996-0x99d.7 (8)
0x990|                                          00 00|              ..|      [168]: "2029-10-28T01:00:00Z" (1887843600) transition_time 0x99e-0x9a5.7 (8)
0x9a0|00 00 70 86 35 10                              |..p.5.          |
0x9a0|                  00 00 00 00 71 51 3c 10      |      ....qQ<.  |      [169]: "2030-03-31T01:00:00Z" (1901149200) transition_time 0x9a6-0x9ad.7 (8)
0x9a0|                                          00 00|              ..|      [170]: "2030-10-27T01:00:00Z" (1919293200) transition_time 0x9ae-0x9b5.7 (8)
0x9b0|00 00 72 66 17 10                              |..rf..          |
0x9b0|                  00 00 00 00 73 31 1e 10      |      ....s1..  |      [171]: "2031-03-30T01:00:00Z" (1932598800) transition_time 0x9b6-0x9bd.7 (8)
0x9b0|                                          00 00|              ..|      [172]: "2031-10-26T01:00:00Z" (1950742800) transition_time 0x9be-0x9c5.7 (8)
0x9c0|00 00 74 45 f9 10                              |..tE..          |
0x9c0|                  00 00 00 00 75 11 00 10      |      ....u...  |      [173]: "2032-03-28T01:00:00Z" (1964048400) transition_time 0x9c6-0x9cd.7 (8)
0x9c0|                                          00 00|              ..|      [174]: "2032-10-31T01:00:00Z" (1982797200) transition_time 0x9ce-0x9d5.7 (8)
0x9d0|00 00 76 2f 15 90                              |..v/..          |
0x9d0|                  00 00 00 00 76 f0 e2 10      |      ....v...  |      [175]: "2033-03-27T01:00:00Z" (1995498000) transition_time 0x9d6-0x9dd.7 (8)
0x9d0|                                          00 00|              ..|      [176]: "2033-10-30T01:00:00Z" (2014246800) transition_time 0x9de-0x9e5.7 (8)
0x9e0|00 00 78 0e f7 90                              |..x...          |
0x9e0|                  00 00 00 00 78 d0 c4 10      |      ....x...  |      [177]: "2034-03-26T01:00:00Z" (2026947600) transition_time 0x9e6-0x9ed.7 (8)
0x9e0|                                          00 00|              ..|      [178]: "2034-10-29T01:00:00Z" (2045696400) transition_time 0x9ee-0x9f5.7 (8)
0x9f0|00 00 79 ee d9 90                              |..y...          |
0x9f0|                  00 00 00 00 7a b0 a6 10      |      ....z...  |      [179]: "2035-03-25T01:00:00Z" (2058397200) transition_time 0x9f6-0x9fd.7 (8)
0x9f0|                                          00 00|              ..|      [180]: "2035-10-28T01:00:00Z" (2077146000) transition_time 0x9fe-0xa05.7 (8)
0xa00|00 00 7b ce bb 90                              |..{...          |
0xa00|                  00 00 00 00 7c 99 c2 90      |      ....|...  |      [181]: "2036-03-30T01:00:00Z" (2090451600) transition_time 0xa06-0xa0d.7 (8)
0xa00|                                          00 00|              ..|      [182]: "2036-10-26T01:00:00Z" (2108595600) transition_time 0xa0e-0xa15.7 (8)
0xa10|00 00 7d ae 9d 90                              |..}...          |
0xa10|                  00 00 00 00 7e 79 a4 90      |      ....~y..  |      [183]: "2037-03-29T01:00:00Z" (2121901200) transition_time 0xa16-0xa1d.7 (8)
0xa10|                                          00 00|              ..|      [184]: "2037-10-25T01:00:00Z" (2140045200) transition_time 0xa1e-0xa25.7 (8)
0xa20|00 00 7f 8e 7f 90                              |......          |
     |                                               |                |    transition_types[0:185]: 0xa26-0xade.7 (185)
0xa20|                  01                           |      .         |      [0]: 1 transition_type 0xa26-0xa26.7 (1)
0xa20|                     02                        |       .        |      [1]: 2 transition_type 0xa27-0xa27.7 (1)
0xa20|                        03                     |        .       |      [2]: 3 transition_type 0xa28-0xa28.7 (1)
0xa20|                           06                  |         .      |      [3]: 6 transition_type 0xa29-0xa29.7 (1)
0xa20|                              03               |          .     |      [4]: 3 transition_type 0xa2a-0xa2a.7 (1)
0xa20|                                 04            |           .    |      [5]: 4 transition_type 0xa2b-0xa2b.7 (1)
0xa20|                                    05         |            .   |      [6]: 5 transition_type 0xa2c-0xa2c.7 (1)
0xa20|                                       04      |             .  |      [7]: 4 transition_type 0xa2d-0xa2d.7 (1)
0xa20|                                          05   |              . |      [8]: 5 transition_type 0xa2e-0xa2e.7 (1)
0xa20|                                             09|               .|      [9]: 9 transition_type 0xa2f-0xa2f.7 (1)
0xa30|07                                             |.               |      [10]: 7 transition_type 0xa30-0xa30.7 (1)
0xa30|   08                                          | .              |      [11]: 8 transition_type 0xa31-0xa31.7 (1)
0xa30|      07                                       |  .             |      [12]: 7 transition_type 0xa32-0xa32.7 (1)
0xa30|         08                                    |   .            |      [13]: 8 transition_type 0xa33-0xa33.7 (1)
0xa30|            07                                 |    .           |      [14]: 7 transition_type 0xa34-0xa34.7 (1)
0xa30|               08                              |     .          |      [15]: 8 transition_type 0xa35-0xa35.7 (1)
0xa30|                  07                           |      .         |      [16]: 7 transition_type 0xa36-0xa36.7 (1)
0xa30|                     08                        |       .        |      [17]: 8 transition_type 0xa37-0xa37.7 (1)
0xa30|                        07                     |        .       |      [18]: 7 transition_type 0xa38-0xa38.7 (1)
0xa30|                           08                  |         .      |      [19]: 8 transition_type 0xa39-0xa39.7 (1)
0xa30|                              07               |          .     |      [20]: 7 transition_type 0xa3a-0xa3a.7 (1)
0xa30|                                 08            |           .    |      [21]: 8 transition_type 0xa3b-0xa3b.7 (1)
0xa30|                                    07         |            .   |      [22]: 7 transition_type 0xa3c-0xa3c.7 (1)
0xa30|                                       08      |             .  |      [23]: 8 transition_type 0xa3d-0xa3d.7 (1)
0xa30|                                          07   |              . |      [24]: 7 transition_type 0xa3e-0xa3e.7 (1)
0xa30|                                             08|               .|      [25]: 8 transition_type 0xa3f-0xa3f.7 (1)
0xa40|07                                             |.               |      [26]: 7 transition_type 0xa40-0xa40.7 (1)
0xa40|   08                                          | .              |      [27]: 8 transition_type 0xa41-0xa41.7 (1)
0xa40|      07                                       |  .             |      [28]: 7 transition_type 0xa42-0xa42.7 (1)
0xa40|         08                                    |   .            |      [29]: 8 transition_type 0xa43-0xa43.7 (1)
0xa40|            07                                 |    .           |      [30]: 7 transition_type 0xa44-0xa44.7 (1)
0xa40|               08                              |     .          |      [31]: 8 transition_type 0xa45-0xa45.7 (1)
0xa40|                  07                           |      .         |      [32]: 7 transition_type 0xa46-0xa46.7 (1)
0xa40|                     08                        |       .        |      [33]: 8 transition_type 0xa47-0xa47.7 (1)
0xa40|                        07                     |        .       |      [34]: 7 transition_type 0xa48-0xa48.7 (1)
0xa40|                           08                  |         .      |      [35]: 8 transition_type 0xa49-0xa49.7 (1)
0xa40|                              07               |          .     |      [36]: 7 transition_type 0xa4a-0xa4a.7 (1)
0xa40|                                 08            |           .    |      [37]: 8 transition_type 0xa4b-0xa4b.7 (1)
0xa40|                                    07         |            .   |      [38]: 7 transition_type 0xa4c-0xa4c.7 (1)
0xa40|                                       08      |             .  |      [39]: 8 transition_type 0xa4d-0xa4d.7 (1)
0xa40|                                          07   |              . |      [40]: 7 transition_type 0xa4e-0xa4e.7 (1)
0xa40|                                             08|               .|      [41]: 8 transition_type 0xa4f-0xa4f.7 (1)
0xa50|07                                             |.               |      [42]: 7 transition_type 0xa50-0xa50.7 (1)
0xa50|   08                                          | .              |      [43]: 8 transition_type 0xa51-0xa51.7 (1)
0xa50|      07                                       |  .             |      [44]: 7 transition_type 0xa52-0xa52.7 (1)
0xa50|         08                                    |   .            |      [45]: 8 transition_type 0xa53-0xa53.7 (1)
0xa50|            07                                 |    .           |      [46]: 7 transition_type 0xa54-0xa54.7 (1)
0xa50|               08                              |     .          |      [47]: 8 transition_type 0xa55-0xa55.7 (1)
0xa50|                  07                           |      .         |      [48]: 7 transition_type 0xa56-0xa56.7 (1)
0xa50|                     08                        |       .        |      [49]: 8 transition_type 0xa57-0xa57.7 (1)
0xa50|                        07                     |        .       |      [50]: 7 transition_type 0xa58-0xa58.7 (1)
0xa50|                           08                  |         .      |      [51]: 8 transition_type 0xa59-0xa59.7 (1)
0xa50|                              07               |          .     |      [52]: 7 transition_type 0xa5a-0xa5a.7 (1)
0xa50|                                 04            |           .    |      [53]: 4 transition_type 0xa5b-0xa5b.7 (1)
0xa50|                                    05         |            .   |      [54]: 5 transition_type 0xa5c-0xa5c.7 (1)
0xa50|                                       04      |             .  |      [55]: 4 transition_type 0xa5d-0xa5d.7 (1)
0xa50|                                          05   |              . |      [56]: 5 transition_type 0xa5e-0xa5e.7 (1)
0xa50|                                             04|               .|      [57]: 4 transition_type 0xa5f-0xa5f.7 (1)
0xa60|05                                             |.               |      [58]: 5 transition_type 0xa60-0xa60.7 (1)
0xa60|   04                                          | .              |      [59]: 4 transition_type 0xa61-0xa61.7 (1)
0xa60|      05                                       |  .             |      [60]: 5 transition_type 0xa62-0xa62.7 (1)
0xa60|         04                                    |   .            |      [61]: 4 transition_type 0xa63-0xa63.7 (1)
0xa60|            05                                 |    .           |      [62]: 5 transition_type 0xa64-0xa64.7 (1)
0xa60|               0a                              |     .          |      [63]: 10 transition_type 0xa65-0xa65.7 (1)
0xa60|                  0b                           |      .         |      [64]: 11 transition_type 0xa66-0xa66.7 (1)
0xa60|                     0a                        |       .        |      [65]: 10 transition_type 0xa67-0xa67.7 (1)
0xa60|                        0b                     |        .       |      [66]: 11 transition_type 0xa68-0xa68.7 (1)
0xa60|                           0a                  |         .      |      [67]: 10 transition_type 0xa69-0xa69.7 (1)
0xa60|                              0b               |          .     |      [68]: 11 transition_type 0xa6a-0xa6a.7 (1)
0xa60|                                 0a            |           .    |      [69]: 10 transition_type 0xa6b-0xa6b.7 (1)
0xa60|                                    0b         |            .   |      [70]: 11 transition_type 0xa6c-0xa6c.7 (1)
0xa60|                                       0a      |             .  |      [71]: 10 transition_type 0xa6d-0xa6d.7 (1)
0xa60|                                          0b   |              . |      [72]: 11 transition_type 0xa6e-0xa6e.7 (1)
0xa60|                                             0a|               .|      [73]: 10 transition_type 0xa6f-0xa6f.7 (1)
0xa70|0b                                             |.               |      [74]: 11 transition_type 0xa70-0xa70.7 (1)
0xa70|   0a                                          | .              |      [75]: 10 transition_type 0xa71-0xa71.7 (1)
0xa70|      0b                                       |  .             |      [76]: 11 transition_type 0xa72-0xa72.7 (1)
0xa70|         0a                                    |   .            |      [77]: 10 transition_type 0xa73-0xa73.7 (1)
0xa70|            0b                                 |    .           |      [78]: 11 transition_type 0xa74-0xa74.7 (1)
0xa70|               0a                              |     .          |      [79]: 10 transition_type 0xa75-0xa75.7 (1)
0xa70|                  0b                           |      .         |      [80]: 11 transition_type 0xa76-0xa76.7 (1)
0xa70|                     0a                        |       .        |      [81]: 10 transition_type 0xa77-0xa77.7 (1)
0xa70|                        0b                     |        .       |      [82]: 11 transition_type 0xa78-0xa78.7 (1)
0xa70|                           0a                  |         .      |      [83]: 10 transition_type 0xa79-0xa79.7 (1)
0xa70|                              0b               |          .     |      [84]: 11 transition_type 0xa7a-0xa7a.7 (1)
0xa70|                                 0a            |           .    |      [85]: 10 transition_type 0xa7b-0xa7b.7 (1)
0xa70|                                    0b         |            .   |      [86]: 11 transition_type 0xa7c-0xa7c.7 (1)
0xa70|                                       0a      |             .  |      [87]: 10 transition_type 0xa7d-0xa7d.7 (1)
0xa70|                                          0b   |              . |      [88]: 11 transition_type 0xa7e-0xa7e.7 (1)
0xa70|                                             0a|               .|      [89]: 10 transition_type 0xa7f-0xa7f.7 (1)
0xa80|0b                                             |.               |      [90]: 11 transition_type 0xa80-0xa80.7 (1)
0xa80|   0a                                          | .              |      [91]: 10 transition_type 0xa81-0xa81.7 (1)
0xa80|      0b                                       |  .             |      [92]: 11 transition_type 0xa82-0xa82.7 (1)
0xa80|         0a                                    |   .            |      [93]: 10 transition_type 0xa83-0xa83.7 (1)
0xa80|            0b                                 |    .           |      [94]: 11 transition_type 0xa84-0xa84.7 (1)
0xa80|               0a                              |     .          |      [95]: 10 transition_type 0xa85-0xa85.7 (1)
0xa80|                  0b                           |      .         |      [96]: 11 transition_type 0xa86-0xa86.7 (1)
0xa80|                     0a                        |       .        |      [97]: 10 transition_type 0xa87-0xa87.7 (1)
0xa80|                        0b                     |        .       |      [98]: 11 transition_type 0xa88-0xa88.7 (1)
0xa80|                           0a                  |         .      |      [99]: 10 transition_type 0xa89-0xa89.7 (1)
0xa80|                              0b               |          .     |      [100]: 11 transition_type 0xa8a-0xa8a.7 (1)
0xa80|                                 0a            |           .    |      [101]: 10 transition_type 0xa8b-0xa8b.7 (1)
0xa80|                                    0b         |            .   |      [102]: 11 transition_type 0xa8c-0xa8c.7 (1)
0xa80|                                       0a      |             .  |      [103]: 10 transition_type 0xa8d-0xa8d.7 (1)
0xa80|                                          0b   |              . |      [104]: 11 transition_type 0xa8e-0xa8e.7 (1)
0xa80|                                             0a|               .|      [105]: 10 transition_type 0xa8f-0xa8f.7 (1)
0xa90|0b                                             |.               |      [106]: 11 transition_type 0xa90-0xa90.7 (1)
0xa90|   0a                                          | .              |      [107]: 10 transition_type 0xa91-0xa91.7 (1)
0xa90|      0b                                       |  .             |      [108]: 11 transition_type 0xa92-0xa92.7 (1)
0xa90|         0a                                    |   .            |      [109]: 10 transition_type 0xa93-0xa93.7 (1)
0xa90|            0b                                 |    .           |      [110]: 11 transition_type 0xa94-0xa94.7 (1)
0xa90|               0a                              |     .          |      [111]: 10 transition_type 0xa95-0xa95.7 (1)
0xa90|                  0b                           |      .         |      [112]: 11 transition_type 0xa96-0xa96.7 (1)
0xa90|                     0a                        |       .        |      [113]: 10 transition_type 0xa97-0xa97.7 (1)
0xa90|                        0b                     |        .       |      [114]: 11 transition_type 0xa98-0xa98.7 (1)
0xa90|                           0a                  |         .      |      [115]: 10 transition_type 0xa99-0xa99.7 (1)
0xa90|                              0b               |          .     |      [116]: 11 transition_type 0xa9a-0xa9a.7 (1)
0xa90|                                 0a            |           .    |      [117]: 10 transition_type 0xa9b-0xa9b.7 (1)
0xa90|                                    0b         |            .   |      [118]: 11 transition_type 0xa9c-0xa9c.7 (1)
0xa90|                                       0a      |             .  |      [119]: 10 transition_type 0xa9d-0xa9d.7 (1)
0xa90|                                          0b   |              . |      [120]: 11 transition_type 0xa9e-0xa9e.7 (1)
0xa90|                                             0a|               .|      [121]: 10 transition_type 0xa9f-0xa9f.7 (1)
0xaa0|0b                                             |.               |      [122]: 11 transition_type 0xaa0-0xaa0.7 (1)
0xaa0|   0a                                          | .              |      [123]: 10 transition_type 0xaa1-0xaa1.7 (1)
0xaa0|      0b                                       |  .             |      [124]: 11 transition_type 0xaa2-0xaa2.7 (1)
0xaa0|         0a                                    |   .            |      [125]: 10 transition_type 0xaa3-0xaa3.7 (1)
0xaa0|            0b                                 |    .           |      [126]: 11 transition_type 0xaa4-0xaa4.7 (1)
0xaa0|               0a                              |     .          |      [127]: 10 transition_type 0xaa5-0xaa5.7 (1)
0xaa0|                  0b                           |      .         |      [128]: 11 transition_type 0xaa6-0xaa6.7 (1)
0xaa0|                     0a                        |       .        |      [129]: 10 transition_type 0xaa7-0xaa7.7 (1)
0xaa0|                        0b                     |        .       |      [130]: 11 transition_type 0xaa8-0xaa8.7 (1)
0xaa0|                           0a                  |         .      |      [131]: 10 transition_type 0xaa9-0xaa9.7 (1)
0xaa0|                              0b               |          .     |      [132]: 11 transition_type 0xaaa-0xaaa.7 (1)
0xaa0|                                 0a            |           .    |      [133]: 10 transition_type 0xaab-0xaab.7 (1)
0xaa0|                                    0b         |            .   |      [134]: 11 transition_type 0xaac-0xaac.7 (1)
0xaa0|                                       0a      |             .  |      [135]: 10 transition_type 0xaad-0xaad.7 (1)
0xaa0|                                          0b   |              . |      [136]: 11 transition_type 0xaae-0xaae.7 (1)
0xaa0|                                             0a|               .|      [137]: 10 transition_type 0xaaf-0xaaf.7 (1)
0xab0|0b                                             |.               |      [138]: 11 transition_type 0xab0-0xab0.7 (1)
0xab0|   0a                                          | .              |      [139]: 10 transition_type 0xab1-0xab1.7 (1)
0xab0|      0b                                       |  .             |      [140]: 11 transition_type 0xab2-0xab2.7 (1)
0xab0|         0a                                    |   .            |      [141]: 10 transition_type 0xab3-0xab3.7 (1)
0xab0|            0b                                 |    .           |      [142]: 11 transition_type 0xab4-0xab4.7 (1)
0xab0|               0a                              |     .          |      [143]: 10 transition_type 0xab5-0xab5.7 (1)
0xab0|                  0b                           |      .         |      [144]: 11 transition_type 0xab6-0xab6.7 (1)
0xab0|                     0a                        |       .        |      [145]: 10 transition_type 0xab7-0xab7.7 (1)
0xab0|                        0b                     |        .       |      [146]: 11 transition_type 0xab8-0xab8.7 (1)
0xab0|                           0a                  |         .      |      [147]: 10 transition_type 0xab9-0xab9.7 (1)
0xab0|                              0b               |          .     |      [148]: 11 transition_type 0xaba-0xaba.7 (1)
0xab0|                                 0a            |           .    |      [149]: 10 transition_type 0xabb-0xabb.7 (1)
0xab0|                                    0b         |            .   |      [150]: 11 transition_type 0xabc-0xabc.7 (1)
0xab0|                                       0a      |             .  |      [151]: 10 transition_type 0xabd-0xabd.7 (1)
0xab0|                                          0b   |              . |      [152]: 11 transition_type 0xabe-0xabe.7 (1)
0xab0|                                             0a|               .|      [153]: 10 transition_type 0xabf-0xabf.7 (1)
0xac0|0b                                             |.               |      [154]: 11 transition_type 0xac0-0xac0.7 (1)
0xac0|   0a                                          | .              |      [155]: 10 transition_type 0xac1-0xac1.7 (1)
0xac0|      0b                                       |  .             |      [156]: 11 transition_type 0xac2-0xac2.7 (1)
0xac0|         0a                                    |   .            |      [157]: 10 transition_type 0xac3-0xac3.7 (1)
0xac0|            0b                                 |    .           |      [158]: 11 transition_type 0xac4-0xac4.7 (1)
0xac0|               0a                              |     .          |      [159]: 10 transition_type 0xac5-0xac5.7 (1)
0xac0|                  0b                           |      .         |      [160]: 11 transition_type 0xac6-0xac6.7 (1)
0xac0|                     0a                        |       .        |      [161]: 10 transition_type 0xac7-0xac7.7 (1)
0xac0|                        0b                     |        .       |      [162]: 11 transition_type 0xac8-0xac8.7 (1)
0xac0|                           0a                  |         .      |      [163]: 10 transition_type 0xac9-0xac9.7 (1)
0xac0|                              0b               |          .     |      [164]: 11 transition_type 0xaca-0xaca.7 (1)
0xac0|                                 0a            |           .    |      [165]: 10 transition_type 0xacb-0xacb.7 (1)
0xac0|                                    0b         |            .   |      [166]: 11 transition_type 0xacc-0xacc.7 (1)
0xac0|                                       0a      |             .  |      [167]: 10 transition_type 0xacd-0xacd.7 (1)
0xac0|                                          0b   |              . |      [168]: 11 transition_type 0xace-0xace.7 (1)
0xac0|                                             0a|               .|      [169]: 10 transition_type 0xacf-0xacf.7 (1)
0xad0|0b                                             |.               |      [170]: 11 transition_type 0xad0-0xad0.7 (1)
0xad0|   0a                                          | .              |      [171]: 10 transition_type 0xad1-0xad1.7 (1)
0xad0|      0b                                       |  .             |      [172]: 11 transition_type 0xad2-0xad2.7 (1)
0xad0|         0a                                    |   .            |      [173]: 10 transition_type 0xad3-0xad3.7 (1)
0xad0|            0b                                 |    .           |      [174]: 11 transition_type 0xad4-0xad4.7 (1)
0xad0|               0a                              |     .          |      [175]: 10 transition_type 0xad5-0xad5.7 (1)
0xad0|                  0b                           |      .         |      [176]: 11 transition_type 0xad6-0xad6.7 (1)
0xad0|                     0a                        |       .        |      [177]: 10 transition_type 0xad7-0xad7.7 (1)
0xad0|                        0b                     |        .       |      [178]: 11 transition_type 0xad8-0xad8.7 (1)
0xad0|                           0a                  |         .      |      [179]: 10 transition_type 0xad9-0xad9.7 (1)
0xad0|                              0b               |          .     |      [180]: 11 transition_type 0xada-0xada.7 (1)
0xad0|                                 0a            |           .    |      [181]: 10 transition_type 0xadb-0xadb.7 (1)
0xad0|                                    0b         |            .   |      [182]: 11 transition_type 0xadc-0xadc.7 (1)
0xad0|                                       0a      |             .  |      [183]: 10 transition_type 0xadd-0xadd.7 (1)
0xad0|                                          0b   |              . |      [184]: 11 transition_type 0xade-0xade.7 (1)
     |                                               |                |    local_time_type_records[0:12]: 0xadf-0xb26.7 (72)
     |                                               |                |      [0]{}: local_time_type 0xadf-0xae4.7 (6)
0xad0|                                             00|               .|        utoff: 1050 (valid) 0xadf-0xae2.7 (4)
0xae0|00 04 1a                                       |...             |
0xae0|         00                                    |   .            |        dst: 0 (valid) 0xae3-0xae3.7 (1)
0xae0|            00                                 |    .           |        idx: 0 (valid) 0xae4-0xae4.7 (1)
     |                                               |                |      [1]{}: local_time_type 0xae5-0xaea.7 (6)
0xae0|               00 00 04 1a                     |     ....       |        utoff: 1050 (valid) 0xae5-0xae8.7 (4)
0xae0|                           00                  |         .      |        dst: 0 (valid) 0xae9-0xae9.7 (1)
0xae0|                              04               |          .     |        idx: 4 (valid) 0xaea-0xaea.7 (1)
     |                                               |                |      [2]{}: local_time_type 0xaeb-0xaf0.7 (6)
0xae0|                                 00 00 00 00   |           .... |        utoff: 0 (valid) 0xaeb-0xaee.7 (4)
0xae0|                                             00|               .|        dst: 0 (valid) 0xaef-0xaef.7 (1)
0xaf0|08                                             |.               |        idx: 8 (valid) 0xaf0-0xaf0.7 (1)
     |                                               |                |      [3]{}: local_time_type 0xaf1-0xaf6.7 (6)
0xaf0|   00 00 0e 10                                 | ....           |        utoff: 3600 (valid) 0xaf1-0xaf4.7 (4)
0xaf0|               00                              |     .          |        dst: 0 (valid) 0xaf5-0xaf5.7 (1)
0xaf0|                  0c                           |      .         |        idx: 12 (valid) 0xaf6-0xaf6.7 (1)
     |                                               |                |      [4]{}: local_time_type 0xaf7-0xafc.7 (6)
0xaf0|                     00 00 1c 20               |       ...      |        utoff: 7200 (valid) 0xaf7-0xafa.7 (4)
0xaf0|                                 01            |           .    |        dst: 1 (valid) 0xafb-0xafb.7 (1)
0xaf0|                                    10         |            .   |        idx: 16 (valid) 0xafc-0xafc.7 (1)
     |                                               |                |      [5]{}: local_time_type 0xafd-0xb02.7 (6)
0xaf0|                                       00 00 0e|             ...|        utoff: 3600 (valid) 0xafd-0xb00.7 (4)
0xb00|10                                             |.               |
0xb00|   00                                          | .              |        dst: 0 (valid) 0xb01-0xb01.7 (1)
0xb00|      0c                                       |  .             |        idx: 12 (valid) 0xb02-0xb02.7 (1)
     |                                               |                |      [6]{}: local_time_type 0xb03-0xb08.7 (6)
0xb00|         00 00 1c 20                           |   ...          |        utoff: 7200 (valid) 0xb03-0xb06.7 (4)
0xb00|                     01                        |       .        |        dst: 1 (valid) 0xb07-0xb07.7 (1)
0xb00|                        10                     |        .       |        idx: 16 (valid) 0xb08-0xb08.7 (1)
     |                                               |                |      [7]{}: local_time_type 0xb09-0xb0e.7 (6)
0xb00|                           00 00 0e 10         |         ....   |        utoff: 3600 (valid) 0xb09-0xb0c.7 (4)
0xb00|                                       01      |             .  |        dst: 1 (valid) 0xb0d-0xb0d.7 (1)
0xb00|                                          15   |              . |        idx: 21 (valid) 0xb0e-0xb0e.7 (1)
     |                                               |                |      [8]{}: local_time_type 0xb0f-0xb14.7 (6)
0xb00|                                             00|               .|        utoff: 0 (valid) 0xb0f-0xb12.7 (4)
0xb10|00 00 00                                       |...             |
0xb10|         00                                    |   .            |        dst: 0 (valid) 0xb13-0xb13.7 (1)
0xb10|            08                                 |    .           |        idx: 8 (valid) 0xb14-0xb14.7 (1)
     |                                               |                |      [9]{}: local_time_type 0xb15-0xb1a.7 (6)
0xb10|               00 00 00 00                     |     ....       |        utoff: 0 (valid) 0xb15-0xb18.7 (4)
0xb10|                           00                  |         .      |        dst: 0 (valid) 0xb19-0xb19.7 (1)
0xb10|                              08               |          .     |        idx: 8 (valid) 0xb1a-0xb1a.7 (1)
     |                                               |                |      [10]{}: local_time_type 0xb1b-0xb20.7 (6)
0xb10|                                 00 00 1c 20   |           ...  |        utoff: 7200 (valid) 0xb1b-0xb1e.7 (4)
0xb10|                                             01|               .|        dst: 1 (valid) 0xb1f-0xb1f.7 (1)
0xb20|10                                             |.               |        idx: 16 (valid) 0xb20-0xb20.7 (1)
     |                                               |                |      [11]{}: local_time_type 0xb21-0xb26.7 (6)
0xb20|   00 00 0e 10                                 | ....           |        utoff: 3600 (valid) 0xb21-0xb24.7 (4)
0xb20|               00                              |     .          |        dst: 0 (valid) 0xb25-0xb25.7 (1)
0xb20|                  0c                           |      .         |        idx: 12 (valid) 0xb26-0xb26.7 (1)
     |                                               |                |    time_zone_designations[0:6]: 0xb27-0xb40.7 (26)
0xb20|                     4c 4d 54 00               |       LMT.     |      [0]: "LMT" time_zone_designation 0xb27-0xb2a.7 (4)
0xb20|                                 42 4d 54 00   |           BMT. |      [1]: "BMT" time_zone_designation 0xb2b-0xb2e.7 (4)
0xb20|                                             57|               W|      [2]: "WET" time_zone_designation 0xb2f-0xb32.7 (4)
0xb30|45 54 00                                       |ET.             |
0xb30|         43 45 54 00                           |   CET.         |      [3]: "CET" time_zone_designation 0xb33-0xb36.7 (4)
0xb30|                     43 45 53 54 00            |       CEST.    |      [4]: "CEST" time_zone_designation 0xb37-0xb3b.7 (5)
0xb30|                                    57 45 53 54|            WEST|      [5]: "WEST" time_zone_designation 0xb3c-0xb40.7 (5)
0xb40|00                                             |.               |
     |                                               |                |    leap_second_records[0:0]: 0xb41-NA (0)
     |                                               |                |    standard_wall_indicators[0:12]: 0xb41-0xb4c.7 (12)
0xb40|   00                                          | .              |      [0]: 0 standard_wall_indicator (valid) 0xb41-0xb41.7 (1)
0xb40|      00                                       |  .             |      [1]: 0 standard_wall_indicator (valid) 0xb42-0xb42.7 (1)
0xb40|         00                                    |   .            |      [2]: 0 standard_wall_indicator (valid) 0xb43-0xb43.7 (1)
0xb40|            00                                 |    .           |      [3]: 0 standard_wall_indicator (valid) 0xb44-0xb44.7 (1)
0xb40|               01                              |     .          |      [4]: 1 standard_wall_indicator (valid) 0xb45-0xb45.7 (1)
0xb40|                  01                           |      .         |      [5]: 1 standard_wall_indicator (valid) 0xb46-0xb46.7 (1)
0xb40|                     00                        |       .        |      [6]: 0 standard_wall_indicator (valid) 0xb47-0xb47.7 (1)
0xb40|                        01                     |        .       |      [7]: 1 standard_wall_indicator (valid) 0xb48-0xb48.7 (1)
0xb40|                           01                  |         .      |      [8]: 1 standard_wall_indicator (valid) 0xb49-0xb49.7 (1)
0xb40|                              01               |          .     |      [9]: 1 standard_wall_indicator (valid) 0xb4a-0xb4a.7 (1)
0xb40|                                 01            |           .    |      [10]: 1 standard_wall_indicator (valid) 0xb4b-0xb4b.7 (1)
0xb40|                                    01         |            .   |      [11]: 1 standard_wall_indicator (valid) 0xb4c-0xb4c.7 (1)
     |                                               |                |    ut_local_indicators[0:12]: 0xb4d-0xb58.7 (12)
0xb40|                                       00      |             .  |      [0]: 0 ut_local_indicator (valid) 0xb4d-0xb4d.7 (1)
0xb40|                                          00   |              . |      [1]: 0 ut_local_indicator (valid) 0xb4e-0xb4e.7 (1)
0xb40|                                             00|               .|      [2]: 0 ut_local_indicator (valid) 0xb4f-0xb4f.7 (1)
0xb50|00                                             |.               |      [3]: 0 ut_local_indicator (valid) 0xb50-0xb50.7 (1)
0xb50|   00                                          | .              |      [4]: 0 ut_local_indicator (valid) 0xb51-0xb51.7 (1)
0xb50|      00                                       |  .             |      [5]: 0 ut_local_indicator (valid) 0xb52-0xb52.7 (1)
0xb50|         00                                    |   .            |      [6]: 0 ut_local_indicator (valid) 0xb53-0xb53.7 (1)
0xb50|            00                                 |    .           |      [7]: 0 ut_local_indicator (valid) 0xb54-0xb54.7 (1)
0xb50|               00                              |     .          |      [8]: 0 ut_local_indicator (valid) 0xb55-0xb55.7 (1)
0xb50|                  01                           |      .         |      [9]: 1 ut_local_indicator (valid) 0xb56-0xb56.7 (1)
0xb50|                     01                        |       .        |      [10]: 1 ut_local_indicator (valid) 0xb57-0xb57.7 (1)
0xb50|                        01                     |        .       |      [11]: 1 ut_local_indicator (valid) 0xb58-0xb58.7 (1)
     |                                               |                |  footer{}: 0xb59-0xb74.7 (28)
0xb50|                           0a                  |         .      |    nl1: 10 (valid) 0xb59-0xb59.7 (1)
0xb50|                              43 45 54 2d 31 43|          CET-1C|    tz_string: "CET-1CEST,M3.5.0,M10.5.0/3" 0xb5a-0xb73.7 (26)
0xb60|45 53 54 2c 4d 33 2e 35 2e 30 2c 4d 31 30 2e 35|EST,M3.5.0,M10.5|
0xb70|2e 30 2f 33                                    |.0/3            |
0xb70|            0a|                                |    .|          |    nl2: 10 (valid) 0xb74-0xb74.7 (1)
