$ fq -d tzif dv Bucharest
     |00 01 02 03 04 05 06 07 08 09 0a 0b 0c 0d 0e 0f|0123456789abcdef|.{}: Bucharest (tzif) 0x0-0x888 (2184)
     |                                               |                |  v1header{}: 0x0-0x2c (44)
0x000|54 5a 69 66                                    |TZif            |    magic: 0x545a6966 (valid) 0x0-0x4 (4)
0x000|            32                                 |    2           |    ver: "2" (0x32) (valid) 0x4-0x5 (1)
0x000|               00 00 00 00 00 00 00 00 00 00 00|     ...........|    reserved: raw bits 0x5-0x14 (15)
0x010|00 00 00 00                                    |....            |
0x010|            00 00 00 08                        |    ....        |    isutcnt: 8 0x14-0x18 (4)
0x010|                        00 00 00 08            |        ....    |    isstdcnt: 8 0x18-0x1c (4)
0x010|                                    00 00 00 00|            ....|    leapcnt: 0 0x1c-0x20 (4)
0x020|00 00 00 88                                    |....            |    timecnt: 136 0x20-0x24 (4)
0x020|            00 00 00 08                        |    ....        |    typecnt: 8 0x24-0x28 (4)
0x020|                        00 00 00 11            |        ....    |    charcnt: 17 0x28-0x2c (4)
     |                                               |                |  v1datablock{}: 0x2c-0x325 (761)
     |                                               |                |    transition_times[0:136]: 0x2c-0x24c (544)
0x020|                                    80 00 00 00|            ....|      [0]: "1901-12-13T20:45:52Z" (-2147483648) transition_time 0x2c-0x30 (4)
0x030|b7 b0 d2 08                                    |....            |      [1]: "1931-07-23T22:15:36Z" (-1213148664) transition_time 0x30-0x34 (4)
0x030|            b9 3e f3 60                        |    .>.`        |      [2]: "1932-05-20T22:00:00Z" (-1187056800) transition_time 0x34-0x38 (4)
0x030|                        b9 ef 9c 60            |        ...`    |      [3]: "1932-10-01T22:00:00Z" (-1175479200) transition_time 0x38-0x3c (4)
0x030|                                    ba df 8d 60|            ...`|      [4]: "1933-04-01T22:00:00Z" (-1159754400) transition_time 0x3c-0x40 (4)
0x040|bb cf 7e 60                                    |..~`            |      [5]: "1933-09-30T22:00:00Z" (-1144029600) transition_time 0x40-0x44 (4)
0x040|            bc c8 a9 e0                        |    ....        |      [6]: "1934-04-07T22:00:00Z" (-1127700000) transition_time 0x44-0x48 (4)
0x040|                        bd b8 9a e0            |        ....    |      [7]: "1934-10-06T22:00:00Z" (-1111975200) transition_time 0x48-0x4c (4)
0x040|                                    be a8 8b e0|            ....|      [8]: "1935-04-06T22:00:00Z" (-1096250400) transition_time 0x4c-0x50 (4)
0x050|bf 98 7c e0                                    |..|.            |      [9]: "1935-10-05T22:00:00Z" (-1080525600) transition_time 0x50-0x54 (4)
0x050|            c0 88 6d e0                        |    ..m.        |      [10]: "1936-04-04T22:00:00Z" (-1064800800) transition_time 0x54-0x58 (4)
0x050|                        c1 78 5e e0            |        .x^.    |      [11]: "1936-10-03T22:00:00Z" (-1049076000) transition_time 0x58-0x5c (4)
0x050|                                    c2 68 4f e0|            .hO.|      [12]: "1937-04-03T22:00:00Z" (-1033351200) transition_time 0x5c-0x60 (4)
0x060|c3 58 40 e0                                    |.X@.            |      [13]: "1937-10-02T22:00:00Z" (-1017626400) transition_time 0x60-0x64 (4)
0x060|            c4 48 31 e0                        |    .H1.        |      [14]: "1938-04-02T22:00:00Z" (-1001901600) transition_time 0x64-0x68 (4)
0x060|                        c5 38 22 e0            |        .8".    |      [15]: "1938-10-01T22:00:00Z" (-986176800) transition_time 0x68-0x6c (4)
0x060|                                    c6 28 13 e0|            .(..|      [16]: "1939-04-01T22:00:00Z" (-970452000) transition_time 0x6c-0x70 (4)
0x070|c7 18 04 e0                                    |....            |      [17]: "1939-09-30T22:00:00Z" (-954727200) transition_time 0x70-0x74 (4)
0x070|            11 ad d1 60                        |    ...`        |      [18]: "1979-05-26T22:00:00Z" (296604000) transition_time 0x74-0x78 (4)
0x070|                        12 53 e0 50            |        .S.P    |      [19]: "1979-09-29T21:00:00Z" (307486800) transition_time 0x78-0x7c (4)
0x070|                                    13 4d 0b d0|            .M..|      [20]: "1980-04-05T21:00:00Z" (323816400) transition_time 0x7c-0x80 (4)
0x080|14 33 d0 60                                    |.3.`            |      [21]: "1980-09-27T22:00:00Z" (338940000) transition_time 0x80-0x84 (4)
0x080|            15 23 dd 80                        |    .#..        |      [22]: "1981-03-29T00:00:00Z" (354672000) transition_time 0x84-0x88 (4)
0x080|                        16 13 ce 80            |        ....    |      [23]: "1981-09-27T00:00:00Z" (370396800) transition_time 0x88-0x8c (4)
0x080|                                    17 03 bf 80|            ....|      [24]: "1982-03-28T00:00:00Z" (386121600) transition_time 0x8c-0x90 (4)
0x090|17 f3 b0 80                                    |....            |      [25]: "1982-09-26T00:00:00Z" (401846400) transition_time 0x90-0x94 (4)
0x090|            18 e3 a1 80                        |    ....        |      [26]: "1983-03-27T00:00:00Z" (417571200) transition_time 0x94-0x98 (4)
0x090|                        19 d3 92 80            |        ....    |      [27]: "1983-09-25T00:00:00Z" (433296000) transition_time 0x98-0x9c (4)
0x090|                                    1a c3 83 80|            ....|      [28]: "1984-03-25T00:00:00Z" (449020800) transition_time 0x9c-0xa0 (4)
0x0a0|1b bc af 00                                    |....            |      [29]: "1984-09-30T00:00:00Z" (465350400) transition_time 0xa0-0xa4 (4)
0x0a0|            1c ac a0 00                        |    ....        |      [30]: "1985-03-31T00:00:00Z" (481075200) transition_time 0xa4-0xa8 (4)
0x0a0|                        1d 9c 91 00            |        ....    |      [31]: "1985-09-29T00:00:00Z" (496800000) transition_time 0xa8-0xac (4)
0x0a0|                                    1e 8c 82 00|            ....|      [32]: "1986-03-30T00:00:00Z" (512524800) transition_time 0xac-0xb0 (4)
0x0b0|1f 7c 73 00                                    |.|s.            |      [33]: "1986-09-28T00:00:00Z" (528249600) transition_time 0xb0-0xb4 (4)
0x0b0|            20 6c 64 00                        |     ld.        |      [34]: "1987-03-29T00:00:00Z" (543974400) transition_time 0xb4-0xb8 (4)
0x0b0|                        21 5c 55 00            |        !\U.    |      [35]: "1987-09-27T00:00:00Z" (559699200) transition_time 0xb8-0xbc (4)
0x0b0|                                    22 4c 46 00|            "LF.|      [36]: "1988-03-27T00:00:00Z" (575424000) transition_time 0xbc-0xc0 (4)
0x0c0|23 3c 37 00                                    |#<7.            |      [37]: "1988-09-25T00:00:00Z" (591148800) transition_time 0xc0-0xc4 (4)
0x0c0|            24 2c 28 00                        |    $,(.        |      [38]: "1989-03-26T00:00:00Z" (606873600) transition_time 0xc4-0xc8 (4)
0x0c0|                        25 1c 19 00            |        %...    |      [39]: "1989-09-24T00:00:00Z" (622598400) transition_time 0xc8-0xcc (4)
0x0c0|                                    26 0c 0a 00|            &...|      [40]: "1990-03-25T00:00:00Z" (638323200) transition_time 0xcc-0xd0 (4)
0x0d0|27 05 35 80                                    |'.5.            |      [41]: "1990-09-30T00:00:00Z" (654652800) transition_time 0xd0-0xd4 (4)
0x0d0|            27 f5 0a 60                        |    '..`        |      [42]: "1991-03-30T22:00:00Z" (670370400) transition_time 0xd4-0xd8 (4)
0x0d0|                        28 e4 fb 60            |        (..`    |      [43]: "1991-09-28T22:00:00Z" (686095200) transition_time 0xd8-0xdc (4)
0x0d0|                                    29 d4 ec 60|            )..`|      [44]: "1992-03-28T22:00:00Z" (701820000) transition_time 0xdc-0xe0 (4)
0x0e0|2a c4 dd 60                                    |*..`            |      [45]: "1992-09-26T22:00:00Z" (717544800) transition_time 0xe0-0xe4 (4)
0x0e0|            2b b4 ce 60                        |    +..`        |      [46]: "1993-03-27T22:00:00Z" (733269600) transition_time 0xe4-0xe8 (4)
0x0e0|                        2c a4 bf 60            |        ,..`    |      [47]: "1993-09-25T22:00:00Z" (748994400) transition_time 0xe8-0xec (4)
0x0e0|                                    2d 94 b0 60|            -..`|      [48]: "1994-03-26T22:00:00Z" (764719200) transition_time 0xec-0xf0 (4)
0x0f0|2e 84 93 50                                    |...P            |      [49]: "1994-09-24T21:00:00Z" (780440400) transition_time 0xf0-0xf4 (4)
0x0f0|            2f 74 92 60                        |    /t.`        |      [50]: "1995-03-25T22:00:00Z" (796168800) transition_time 0xf4-0xf8 (4)
0x0f0|                        30 64 75 50            |        0duP    |      [51]: "1995-09-23T21:00:00Z" (811890000) transition_time 0xf8-0xfc (4)
0x0f0|                                    31 5d ae e0|            1]..|      [52]: "1996-03-30T22:00:00Z" (828223200) transition_time 0xfc-0x100 (4)
0x100|32 72 7b d0                                    |2r{.            |      [53]: "1996-10-26T21:00:00Z" (846363600) transition_time 0x100-0x104 (4)
0x100|            33 3d bb 10                        |    3=..        |      [54]: "1997-03-30T01:00:00Z" (859683600) transition_time 0x104-0x108 (4)
0x100|                        34 52 96 10            |        4R..    |      [55]: "1997-10-26T01:00:00Z" (877827600) transition_time 0x108-0x10c (4)
0x100|                                    35 1d 9d 10|            5...|      [56]: "1998-03-29T01:00:00Z" (891133200) transition_time 0x10c-0x110 (4)
0x110|36 32 78 10                                    |62x.            |      [57]: "1998-10-25T01:00:00Z" (909277200) transition_time 0x110-0x114 (4)
0x110|            36 fd 7f 10                        |    6...        |      [58]: "1999-03-28T01:00:00Z" (922582800) transition_time 0x114-0x118 (4)
0x110|                        38 1b 94 90            |        8...    |      [59]: "1999-10-31T01:00:00Z" (941331600) transition_time 0x118-0x11c (4)
0x110|                                    38 dd 61 10|            8.a.|      [60]: "2000-03-26T01:00:00Z" (954032400) transition_time 0x11c-0x120 (4)
0x120|39 fb 76 90                                    |9.v.            |      [61]: "2000-10-29T01:00:00Z" (972781200) transition_time 0x120-0x124 (4)
0x120|            3a bd 43 10                        |    :.C.        |      [62]: "2001-03-25T01:00:00Z" (985482000) transition_time 0x124-0x128 (4)
0x120|                        3b db 58 90            |        ;.X.    |      [63]: "2001-10-28T01:00:00Z" (1004230800) transition_time 0x128-0x12c (4)
0x120|                                    3c a6 5f 90|            <._.|      [64]: "2002-03-31T01:00:00Z" (1017536400) transition_time 0x12c-0x130 (4)
0x130|3d bb 3a 90                                    |=.:.            |      [65]: "2002-10-27T01:00:00Z" (1035680400) transition_time 0x130-0x134 (4)
0x130|            3e 86 41 90                        |    >.A.        |      [66]: "2003-03-30T01:00:00Z" (1048986000) transition_time 0x134-0x138 (4)
0x130|                        3f 9b 1c 90            |        ?...    |      [67]: "2003-10-26T01:00:00Z" (1067130000) transition_time 0x138-0x13c (4)
0x130|                                    40 66 23 90|            @f#.|      [68]: "2004-03-28T01:00:00Z" (1080435600) transition_time 0x13c-0x140 (4)
0x140|41 84 39 10                                    |A.9.            |      [69]: "2004-10-31T01:00:00Z" (1099184400) transition_time 0x140-0x144 (4)
0x140|            42 46 05 90                        |    BF..        |      [70]: "2005-03-27T01:00:00Z" (1111885200) transition_time 0x144-0x148 (4)
0x140|                        43 64 1b 10            |        Cd..    |      [71]: "2005-10-30T01:00:00Z" (1130634000) transition_time 0x148-0x14c (4)
0x140|                                    44 25 e7 90|            D%..|      [72]: "2006-03-26T01:00:00Z" (1143334800) transition_time 0x14c-0x150 (4)
0x150|45 43 fd 10                                    |EC..            |      [73]: "2006-10-29T01:00:00Z" (1162083600) transition_time 0x150-0x154 (4)
0x150|            46 05 c9 90                        |    F...        |      [74]: "2007-03-25T01:00:00Z" (1174784400) transition_time 0x154-0x158 (4)
0x150|                        47 23 df 10            |        G#..    |      [75]: "2007-10-28T01:00:00Z" (1193533200) transition_time 0x158-0x15c (4)
0x150|                                    47 ee e6 10|            G...|      [76]: "2008-03-30T01:00:00Z" (1206838800) transition_time 0x15c-0x160 (4)
0x160|49 03 c1 10                                    |I...            |      [77]: "2008-10-26T01:00:00Z" (1224982800) transition_time 0x160-0x164 (4)
0x160|            49 ce c8 10                        |    I...        |      [78]: "2009-03-29T01:00:00Z" (1238288400) transition_time 0x164-0x168 (4)
0x160|                        4a e3 a3 10            |        J...    |      [79]: "2009-10-25T01:00:00Z" (1256432400) transition_time 0x168-0x16c (4)
0x160|                                    4b ae aa 10|            K...|      [80]: "2010-03-28T01:00:00Z" (1269738000) transition_time 0x16c-0x170 (4)
0x170|4c cc bf 90                                    |L...            |      [81]: "2010-10-31T01:00:00Z" (1288486800) transition_time 0x170-0x174 (4)
0x170|            4d 8e 8c 10                        |    M...        |      [82]: "2011-03-27T01:00:00Z" (1301187600) transition_time 0x174-0x178 (4)
0x170|                        4e ac a1 90            |        N...    |      [83]: "2011-10-30T01:00:00Z" (1319936400) transition_time 0x178-0x17c (4)
0x170|                                    4f 6e 6e 10|            Onn.|      [84]: "2012-03-25T01:00:00Z" (1332637200) transition_time 0x17c-0x180 (4)
0x180|50 8c 83 90                                    |P...            |      [85]: "2012-10-28T01:00:00Z" (1351386000) transition_time 0x180-0x184 (4)
0x180|            51 57 8a 90                        |    QW..        |      [86]: "2013-03-31T01:00:00Z" (1364691600) transition_time 0x184-0x188 (4)
0x180|                        52 6c 65 90            |        Rle.    |      [87]: "2013-10-27T01:00:00Z" (1382835600) transition_time 0x188-0x18c (4)
0x180|                                    53 37 6c 90|            S7l.|      [88]: "2014-03-30T01:00:00Z" (1396141200) transition_time 0x18c-0x190 (4)
0x190|54 4c 47 90                                    |TLG.            |      [89]: "2014-10-26T01:00:00Z" (1414285200) transition_time 0x190-0x194 (4)
0x190|            55 17 4e 90                        |    U.N.        |      [90]: "2015-03-29T01:00:00Z" (1427590800) transition_time 0x194-0x198 (4)
0x190|                        56 2c 29 90            |        V,).    |      [91]: "2015-10-25T01:00:00Z" (1445734800) transition_time 0x198-0x19c (4)
0x190|                                    56 f7 30 90|            V.0.|      [92]: "2016-03-27T01:00:00Z" (1459040400) transition_time 0x19c-0x1a0 (4)
0x1a0|58 15 46 10                                    |X.F.            |      [93]: "2016-10-30T01:00:00Z" (1477789200) transition_time 0x1a0-0x1a4 (4)
0x1a0|            58 d7 12 90                        |    X...        |      [94]: "2017-03-26T01:00:00Z" (1490490000) transition_time 0x1a4-0x1a8 (4)
0x1a0|                        59 f5 28 10            |        Y.(.    |      [95]: "2017-10-29T01:00:00Z" (1509238800) transition_time 0x1a8-0x1ac (4)
0x1a0|                                    5a b6 f4 90|            Z...|      [96]: "2018-03-25T01:00:00Z" (1521939600) transition_time 0x1ac-0x1b0 (4)
0x1b0|5b d5 0a 10                                    |[...            |      [97]: "2018-10-28T01:00:00Z" (1540688400) transition_time 0x1b0-0x1b4 (4)
0x1b0|            5c a0 11 10                        |    \...        |      [98]: "2019-03-31T01:00:00Z" (1553994000) transition_time 0x1b4-0x1b8 (4)
0x1b0|                        5d b4 ec 10            |        ]...    |      [99]: "2019-10-27T01:00:00Z" (1572138000) transition_time 0x1b8-0x1bc (4)
0x1b0|                                    5e 7f f3 10|            ^...|      [100]: "2020-03-29T01:00:00Z" (1585443600) transition_time 0x1bc-0x1c0 (4)
0x1c0|5f 94 ce 10                                    |_...            |      [101]: "2020-10-25T01:00:00Z" (1603587600) transition_time 0x1c0-0x1c4 (4)
0x1c0|            60 5f d5 10                        |    `_..        |      [102]: "2021-03-28T01:00:00Z" (1616893200) transition_time 0x1c4-0x1c8 (4)
0x1c0|                        61 7d ea 90            |        a}..    |      [103]: "2021-10-31T01:00:00Z" (1635642000) transition_time 0x1c8-0x1cc (4)
0x1c0|                                    62 3f b7 10|            b?..|      [104]: "2022-03-27T01:00:00Z" (1648342800) transition_time 0x1cc-0x1d0 (4)
0x1d0|63 5d cc 90                                    |c]..            |      [105]: "2022-10-30T01:00:00Z" (1667091600) transition_time 0x1d0-0x1d4 (4)
0x1d0|            64 1f 99 10                        |    d...        |      [106]: "2023-03-26T01:00:00Z" (1679792400) transition_time 0x1d4-0x1d8 (4)
0x1d0|                        65 3d ae 90            |        e=..    |      [107]: "2023-10-29T01:00:00Z" (1698541200) transition_time 0x1d8-0x1dc (4)
0x1d0|                                    66 08 b5 90|            f...|      [108]: "2024-03-31T01:00:00Z" (1711846800) transition_time 0x1dc-0x1e0 (4)
0x1e0|67 1d 90 90                                    |g...            |      [109]: "2024-10-27T01:00:00Z" (1729990800) transition_time 0x1e0-0x1e4 (4)
0x1e0|            67 e8 97 90                        |    g...        |      [110]: "2025-03-30T01:00:00Z" (1743296400) transition_time 0x1e4-0x1e8 (4)
0x1e0|                        68 fd 72 90            |        h.r.    |      [111]: "2025-10-26T01:00:00Z" (1761440400) transition_time 0x1e8-0x1ec (4)
0x1e0|                                    69 c8 79 90|            i.y.|      [112]: "2026-03-29T01:00:00Z" (1774746000) transition_time 0x1ec-0x1f0 (4)
0x1f0|6a dd 54 90                                    |j.T.            |      [113]: "2026-10-25T01:00:00Z" (1792890000) transition_time 0x1f0-0x1f4 (4)
0x1f0|            6b a8 5b 90                        |    k.[.        |      [114]: "2027-03-28T01:00:00Z" (1806195600) transition_time 0x1f4-0x1f8 (4)
0x1f0|                        6c c6 71 10            |        l.q.    |      [115]: "2027-10-31T01:00:00Z" (1824944400) transition_time 0x1f8-0x1fc (4)
0x1f0|                                    6d 88 3d 90|            m.=.|      [116]: "2028-03-26T01:00:00Z" (1837645200) transition_time 0x1fc-0x200 (4)
0x200|6e a6 53 10                                    |n.S.            |      [117]: "2028-10-29T01:00:00Z" (1856394000) transition_time 0x200-0x204 (4)
0x200|            6f 68 1f 90                        |    oh..        |      [118]: "2029-03-25T01:00:00Z" (1869094800) transition_time 0x204-0x208 (4)
0x200|                        70 86 35 10            |        p.5.    |      [119]: "2029-10-28T01:00:00Z" (1887843600) transition_time 0x208-0x20c (4)
0x200|                                    71 51 3c 10|            qQ<.|      [120]: "2030-03-31T01:00:00Z" (1901149200) transition_time 0x20c-0x210 (4)
0x210|72 66 17 10                                    |rf..            |      [121]: "2030-10-27T01:00:00Z" (1919293200) transition_time 0x210-0x214 (4)
0x210|            73 31 1e 10                        |    s1..        |      [122]: "2031-03-30T01:00:00Z" (1932598800) transition_time 0x214-0x218 (4)
0x210|                        74 45 f9 10            |        tE..    |      [123]: "2031-10-26T01:00:00Z" (1950742800) transition_time 0x218-0x21c (4)
0x210|                                    75 11 00 10|            u...|      [124]: "2032-03-28T01:00:00Z" (1964048400) transition_time 0x21c-0x220 (4)
0x220|76 2f 15 90                                    |v/..            |      [125]: "2032-10-31T01:00:00Z" (1982797200) transition_time 0x220-0x224 (4)
0x220|            76 f0 e2 10                        |    v...        |      [126]: "2033-03-27T01:00:00Z" (1995498000) transition_time 0x224-0x228 (4)
0x220|                        78 0e f7 90            |        x...    |      [127]: "2033-10-30T01:00:00Z" (2014246800) transition_time 0x228-0x22c (4)
0x220|                                    78 d0 c4 10|            x...|      [128]: "2034-03-26T01:00:00Z" (2026947600) transition_time 0x22c-0x230 (4)
0x230|79 ee d9 90                                    |y...            |      [129]: "2034-10-29T01:00:00Z" (2045696400) transition_time 0x230-0x234 (4)
0x230|            7a b0 a6 10                        |    z...        |      [130]: "2035-03-25T01:00:00Z" (2058397200) transition_time 0x234-0x238 (4)
0x230|                        7b ce bb 90            |        {...    |      [131]: "2035-10-28T01:00:00Z" (2077146000) transition_time 0x238-0x23c (4)
0x230|                                    7c 99 c2 90|            |...|      [132]: "2036-03-30T01:00:00Z" (2090451600) transition_time 0x23c-0x240 (4)
0x240|7d ae 9d 90                                    |}...            |      [133]: "2036-10-26T01:00:00Z" (2108595600) transition_time 0x240-0x244 (4)
0x240|            7e 79 a4 90                        |    ~y..        |      [134]: "2037-03-29T01:00:00Z" (2121901200) transition_time 0x244-0x248 (4)
0x240|                        7f 8e 7f 90            |        ....    |      [135]: "2037-10-25T01:00:00Z" (2140045200) transition_time 0x248-0x24c (4)
     |                                               |                |    transition_types[0:136]: 0x24c-0x2d4 (136)
0x240|                                    01         |            .   |      [0]: 1 transition_type 0x24c-0x24d (1)
0x240|                                       05      |             .  |      [1]: 5 transition_type 0x24d-0x24e (1)
0x240|                                          02   |              . |      [2]: 2 transition_type 0x24e-0x24f (1)
0x240|                                             03|               .|      [3]: 3 transition_type 0x24f-0x250 (1)
0x250|02                                             |.               |      [4]: 2 transition_type 0x250-0x251 (1)
0x250|   03                                          | .              |      [5]: 3 transition_type 0x251-0x252 (1)
0x250|      02                                       |  .             |      [6]: 2 transition_type 0x252-0x253 (1)
0x250|         03                                    |   .            |      [7]: 3 transition_type 0x253-0x254 (1)
0x250|            02                                 |    .           |      [8]: 2 transition_type 0x254-0x255 (1)
0x250|               03                              |     .          |      [9]: 3 transition_type 0x255-0x256 (1)
0x250|                  02                           |      .         |      [10]: 2 transition_type 0x256-0x257 (1)
0x250|                     03                        |       .        |      [11]: 3 transition_type 0x257-0x258 (1)
0x250|                        02                     |        .       |      [12]: 2 transition_type 0x258-0x259 (1)
0x250|                           03                  |         .      |      [13]: 3 transition_type 0x259-0x25a (1)
0x250|                              02               |          .     |      [14]: 2 transition_type 0x25a-0x25b (1)
0x250|                                 03            |           .    |      [15]: 3 transition_type 0x25b-0x25c (1)
0x250|                                    02         |            .   |      [16]: 2 transition_type 0x25c-0x25d (1)
0x250|                                       03      |             .  |      [17]: 3 transition_type 0x25d-0x25e (1)
0x250|                                          04   |              . |      [18]: 4 transition_type 0x25e-0x25f (1)
0x250|                                             05|               .|      [19]: 5 transition_type 0x25f-0x260 (1)
0x260|04                                             |.               |      [20]: 4 transition_type 0x260-0x261 (1)
0x260|   05                                          | .              |      [21]: 5 transition_type 0x261-0x262 (1)
0x260|      02                                       |  .             |      [22]: 2 transition_type 0x262-0x263 (1)
0x260|         03                                    |   .            |      [23]: 3 transition_type 0x263-0x264 (1)
0x260|            02                                 |    .           |      [24]: 2 transition_type 0x264-0x265 (1)
0x260|               03                              |     .          |      [25]: 3 transition_type 0x265-0x266 (1)
0x260|                  02                           |      .         |      [26]: 2 transition_type 0x266-0x267 (1)
0x260|                     03                        |       .        |      [27]: 3 transition_type 0x267-0x268 (1)
0x260|                        02                     |        .       |      [28]: 2 transition_type 0x268-0x269 (1)
0x260|                           03                  |         .      |      [29]: 3 transition_type 0x269-0x26a (1)
0x260|                              02               |          .     |      [30]: 2 transition_type 0x26a-0x26b (1)
0x260|                                 03            |           .    |      [31]: 3 transition_type 0x26b-0x26c (1)
0x260|                                    02         |            .   |      [32]: 2 transition_type 0x26c-0x26d (1)
0x260|                                       03      |             .  |      [33]: 3 transition_type 0x26d-0x26e (1)
0x260|                                          02   |              . |      [34]: 2 transition_type 0x26e-0x26f (1)
0x260|                                             03|               .|      [35]: 3 transition_type 0x26f-0x270 (1)
0x270|02                                             |.               |      [36]: 2 transition_type 0x270-0x271 (1)
0x270|   03                                          | .              |      [37]: 3 transition_type 0x271-0x272 (1)
0x270|      02                                       |  .             |      [38]: 2 transition_type 0x272-0x273 (1)
0x270|         03                                    |   .            |      [39]: 3 transition_type 0x273-0x274 (1)
0x270|            02                                 |    .           |      [40]: 2 transition_type 0x274-0x275 (1)
0x270|               03                              |     .          |      [41]: 3 transition_type 0x275-0x276 (1)
0x270|                  02                           |      .         |      [42]: 2 transition_type 0x276-0x277 (1)
0x270|                     03                        |       .        |      [43]: 3 transition_type 0x277-0x278 (1)
0x270|                        02                     |        .       |      [44]: 2 transition_type 0x278-0x279 (1)
0x270|                           03                  |         .      |      [45]: 3 transition_type 0x279-0x27a (1)
0x270|                              02               |          .     |      [46]: 2 transition_type 0x27a-0x27b (1)
0x270|                                 03            |           .    |      [47]: 3 transition_type 0x27b-0x27c (1)
0x270|                                    04         |            .   |      [48]: 4 transition_type 0x27c-0x27d (1)
0x270|                                       05      |             .  |      [49]: 5 transition_type 0x27d-0x27e (1)
0x270|                                          04   |              . |      [50]: 4 transition_type 0x27e-0x27f (1)
0x270|                                             05|               .|      [51]: 5 transition_type 0x27f-0x280 (1)
0x280|04                                             |.               |      [52]: 4 transition_type 0x280-0x281 (1)
0x280|   05                                          | .              |      [53]: 5 transition_type 0x281-0x282 (1)
0x280|      06                                       |  .             |      [54]: 6 transition_type 0x282-0x283 (1)
0x280|         07                                    |   .            |      [55]: 7 transition_type 0x283-0x284 (1)
0x280|            06                                 |    .           |      [56]: 6 transition_type 0x284-0x285 (1)
0x280|               07                              |     .          |      [57]: 7 transition_type 0x285-0x286 (1)
0x280|                  06                           |      .         |      [58]: 6 transition_type 0x286-0x287 (1)
0x280|                     07                        |       .        |      [59]: 7 transition_type 0x287-0x288 (1)
0x280|                        06                     |        .       |      [60]: 6 transition_type 0x288-0x289 (1)
0x280|                           07                  |         .      |      [61]: 7 transition_type 0x289-0x28a (1)
0x280|                              06               |          .     |      [62]: 6 transition_type 0x28a-0x28b (1)
0x280|                                 07            |           .    |      [63]: 7 transition_type 0x28b-0x28c (1)
0x280|                                    06         |            .   |      [64]: 6 transition_type 0x28c-0x28d (1)
0x280|                                       07      |             .  |      [65]: 7 transition_type 0x28d-0x28e (1)
0x280|                                          06   |              . |      [66]: 6 transition_type 0x28e-0x28f (1)
0x280|                                             07|               .|      [67]: 7 transition_type 0x28f-0x290 (1)
0x290|06                                             |.               |      [68]: 6 transition_type 0x290-0x291 (1)
0x290|   07                                          | .              |      [69]: 7 transition_type 0x291-0x292 (1)
0x290|      06                                       |  .             |      [70]: 6 transition_type 0x292-0x293 (1)
0x290|         07                                    |   .            |      [71]: 7 transition_type 0x293-0x294 (1)
0x290|            06                                 |    .           |      [72]: 6 transition_type 0x294-0x295 (1)
0x290|               07                              |     .          |      [73]: 7 transition_type 0x295-0x296 (1)
0x290|                  06                           |      .         |      [74]: 6 transition_type 0x296-0x297 (1)
0x290|                     07                        |       .        |      [75]: 7 transition_type 0x297-0x298 (1)
0x290|                        06                     |        .       |      [76]: 6 transition_type 0x298-0x299 (1)
0x290|                           07                  |         .      |      [77]: 7 transition_type 0x299-0x29a (1)
0x290|                              06               |          .     |      [78]: 6 transition_type 0x29a-0x29b (1)
0x290|                                 07            |           .    |      [79]: 7 transition_type 0x29b-0x29c (1)
0x290|                                    06         |            .   |      [80]: 6 transition_type 0x29c-0x29d (1)
0x290|                                       07      |             .  |      [81]: 7 transition_type 0x29d-0x29e (1)
0x290|                                          06   |              . |      [82]: 6 transition_type 0x29e-0x29f (1)
0x290|                                             07|               .|      [83]: 7 transition_type 0x29f-0x2a0 (1)
0x2a0|06                                             |.               |      [84]: 6 transition_type 0x2a0-0x2a1 (1)
0x2a0|   07                                          | .              |      [85]: 7 transition_type 0x2a1-0x2a2 (1)
0x2a0|      06                                       |  .             |      [86]: 6 transition_type 0x2a2-0x2a3 (1)
0x2a0|         07                                    |   .            |      [87]: 7 transition_type 0x2a3-0x2a4 (1)
0x2a0|            06                                 |    .           |      [88]: 6 transition_type 0x2a4-0x2a5 (1)
0x2a0|               07                              |     .          |      [89]: 7 transition_type 0x2a5-0x2a6 (1)
0x2a0|                  06                           |      .         |      [90]: 6 transition_type 0x2a6-0x2a7 (1)
0x2a0|                     07                        |       .        |      [91]: 7 transition_type 0x2a7-0x2a8 (1)
0x2a0|                        06                     |        .       |      [92]: 6 transition_type 0x2a8-0x2a9 (1)
0x2a0|                           07                  |         .      |      [93]: 7 transition_type 0x2a9-0x2aa (1)
0x2a0|                              06               |          .     |      [94]: 6 transition_type 0x2aa-0x2ab (1)
0x2a0|                                 07            |           .    |      [95]: 7 transition_type 0x2ab-0x2ac (1)
0x2a0|                                    06         |            .   |      [96]: 6 transition_type 0x2ac-0x2ad (1)
0x2a0|                                       07      |             .  |      [97]: 7 transition_type 0x2ad-0x2ae (1)
0x2a0|                                          06   |              . |      [98]: 6 transition_type 0x2ae-0x2af (1)
0x2a0|                                             07|               .|      [99]: 7 transition_type 0x2af-0x2b0 (1)
0x2b0|06                                             |.               |      [100]: 6 transition_type 0x2b0-0x2b1 (1)
0x2b0|   07                                          | .              |      [101]: 7 transition_type 0x2b1-0x2b2 (1)
0x2b0|      06                                       |  .             |      [102]: 6 transition_type 0x2b2-0x2b3 (1)
0x2b0|         07                                    |   .            |      [103]: 7 transition_type 0x2b3-0x2b4 (1)
0x2b0|            06                                 |    .           |      [104]: 6 transition_type 0x2b4-0x2b5 (1)
0x2b0|               07                              |     .          |      [105]: 7 transition_type 0x2b5-0x2b6 (1)
0x2b0|                  06                           |      .         |      [106]: 6 transition_type 0x2b6-0x2b7 (1)
0x2b0|                     07                        |       .        |      [107]: 7 transition_type 0x2b7-0x2b8 (1)
0x2b0|                        06                     |        .       |      [108]: 6 transition_type 0x2b8-0x2b9 (1)
0x2b0|                           07                  |         .      |      [109]: 7 transition_type 0x2b9-0x2ba (1)
0x2b0|                              06               |          .     |      [110]: 6 transition_type 0x2ba-0x2bb (1)
0x2b0|                                 07            |           .    |      [111]: 7 transition_type 0x2bb-0x2bc (1)
0x2b0|                                    06         |            .   |      [112]: 6 transition_type 0x2bc-0x2bd (1)
0x2b0|                                       07      |             .  |      [113]: 7 transition_type 0x2bd-0x2be (1)
0x2b0|                                          06   |              . |      [114]: 6 transition_type 0x2be-0x2bf (1)
0x2b0|                                             07|               .|      [115]: 7 transition_type 0x2bf-0x2c0 (1)
0x2c0|06                                             |.               |      [116]: 6 transition_type 0x2c0-0x2c1 (1)
0x2c0|   07                                          | .              |      [117]: 7 transition_type 0x2c1-0x2c2 (1)
0x2c0|      06                                       |  .             |      [118]: 6 transition_type 0x2c2-0x2c3 (1)
0x2c0|         07                                    |   .            |      [119]: 7 transition_type 0x2c3-0x2c4 (1)
0x2c0|            06                                 |    .           |      [120]: 6 transition_type 0x2c4-0x2c5 (1)
0x2c0|               07                              |     .          |      [121]: 7 transition_type 0x2c5-0x2c6 (1)
0x2c0|                  06                           |      .         |      [122]: 6 transition_type 0x2c6-0x2c7 (1)
0x2c0|                     07                        |       .        |      [123]: 7 transition_type 0x2c7-0x2c8 (1)
0x2c0|                        06                     |        .       |      [124]: 6 transition_type 0x2c8-0x2c9 (1)
0x2c0|                           07                  |         .      |      [125]: 7 transition_type 0x2c9-0x2ca (1)
0x2c0|                              06               |          .     |      [126]: 6 transition_type 0x2ca-0x2cb (1)
0x2c0|                                 07            |           .    |      [127]: 7 transition_type 0x2cb-0x2cc (1)
0x2c0|                                    06         |            .   |      [128]: 6 transition_type 0x2cc-0x2cd (1)
0x2c0|                                       07      |             .  |      [129]: 7 transition_type 0x2cd-0x2ce (1)
0x2c0|                                          06   |              . |      [130]: 6 transition_type 0x2ce-0x2cf (1)
0x2c0|                                             07|               .|      [131]: 7 transition_type 0x2cf-0x2d0 (1)
0x2d0|06                                             |.               |      [132]: 6 transition_type 0x2d0-0x2d1 (1)
0x2d0|   07                                          | .              |      [133]: 7 transition_type 0x2d1-0x2d2 (1)
0x2d0|      06                                       |  .             |      [134]: 6 transition_type 0x2d2-0x2d3 (1)
0x2d0|         07                                    |   .            |      [135]: 7 transition_type 0x2d3-0x2d4 (1)
     |                                               |                |    local_time_type_records[0:8]: 0x2d4-0x304 (48)
     |                                               |                |      [0]{}: local_time_type 0x2d4-0x2da (6)
0x2d0|            00 00 18 78                        |    ...x        |        utoff: 6264 (valid) 0x2d4-0x2d8 (4)
0x2d0|                        00                     |        .       |        dst: 0 (valid) 0x2d8-0x2d9 (1)
0x2d0|                           00                  |         .      |        idx: 0 (valid) 0x2d9-0x2da (1)
     |                                               |                |      [1]{}: local_time_type 0x2da-0x2e0 (6)
0x2d0|                              00 00 18 78      |          ...x  |        utoff: 6264 (valid) 0x2da-0x2de (4)
0x2d0|                                          00   |              . |        dst: 0 (valid) 0x2de-0x2df (1)
0x2d0|                                             04|               .|        idx: 4 (valid) 0x2df-0x2e0 (1)
     |                                               |                |      [2]{}: local_time_type 0x2e0-0x2e6 (6)
0x2e0|00 00 2a 30                                    |..*0            |        utoff: 10800 (valid) 0x2e0-0x2e4 (4)
0x2e0|            01                                 |    .           |        dst: 1 (valid) 0x2e4-0x2e5 (1)
0x2e0|               08                              |     .          |        idx: 8 (valid) 0x2e5-0x2e6 (1)
     |                                               |                |      [3]{}: local_time_type 0x2e6-0x2ec (6)
0x2e0|                  00 00 1c 20                  |      ...       |        utoff: 7200 (valid) 0x2e6-0x2ea (4)
0x2e0|                              00               |          .     |        dst: 0 (valid) 0x2ea-0x2eb (1)
0x2e0|                                 0d            |           .    |        idx: 13 (valid) 0x2eb-0x2ec (1)
     |                                               |                |      [4]{}: local_time_type 0x2ec-0x2f2 (6)
0x2e0|                                    00 00 2a 30|            ..*0|        utoff: 10800 (valid) 0x2ec-0x2f0 (4)
0x2f0|01                                             |.               |        dst: 1 (valid) 0x2f0-0x2f1 (1)
0x2f0|   08                                          | .              |        idx: 8 (valid) 0x2f1-0x2f2 (1)
     |                                               |                |      [5]{}: local_time_type 0x2f2-0x2f8 (6)
0x2f0|      00 00 1c 20                              |  ...           |        utoff: 7200 (valid) 0x2f2-0x2f6 (4)
0x2f0|                  00                           |      .         |        dst: 0 (valid) 0x2f6-0x2f7 (1)
0x2f0|                     0d                        |       .        |        idx: 13 (valid) 0x2f7-0x2f8 (1)
     |                                               |                |      [6]{}: local_time_type 0x2f8-0x2fe (6)
0x2f0|                        00 00 2a 30            |        ..*0    |        utoff: 10800 (valid) 0x2f8-0x2fc (4)
0x2f0|                                    01         |            .   |        dst: 1 (valid) 0x2fc-0x2fd (1)
0x2f0|                                       08      |             .  |        idx: 8 (valid) 0x2fd-0x2fe (1)
     |                                               |                |      [7]{}: local_time_type 0x2fe-0x304 (6)
0x2f0|                                          00 00|              ..|        utoff: 7200 (valid) 0x2fe-0x302 (4)
0x300|1c 20                                          |.               |
0x300|      00                                       |  .             |        dst: 0 (valid) 0x302-0x303 (1)
0x300|         0d                                    |   .            |        idx: 13 (valid) 0x303-0x304 (1)
     |                                               |                |    time_zone_designations[0:4]: 0x304-0x315 (17)
0x300|            4c 4d 54 00                        |    LMT.        |      [0]: "LMT" time_zone_designation 0x304-0x308 (4)
0x300|                        42 4d 54 00            |        BMT.    |      [1]: "BMT" time_zone_designation 0x308-0x30c (4)
0x300|                                    45 45 53 54|            EEST|      [2]: "EEST" time_zone_designation 0x30c-0x311 (5)
0x310|00                                             |.               |
0x310|   45 45 54 00                                 | EET.           |      [3]: "EET" time_zone_designation 0x311-0x315 (4)
     |                                               |                |    leap_second_records[0:0]: 0x315-0x315 (0)
     |                                               |                |    standard_wall_indicators[0:8]: 0x315-0x31d (8)
0x310|               00                              |     .          |      [0]: 0 standard_wall_indicator (valid) 0x315-0x316 (1)
0x310|                  00                           |      .         |      [1]: 0 standard_wall_indicator (valid) 0x316-0x317 (1)
0x310|                     01                        |       .        |      [2]: 1 standard_wall_indicator (valid) 0x317-0x318 (1)
0x310|                        01                     |        .       |      [3]: 1 standard_wall_indicator (valid) 0x318-0x319 (1)
0x310|                           00                  |         .      |      [4]: 0 standard_wall_indicator (valid) 0x319-0x31a (1)
0x310|                              00               |          .     |      [5]: 0 standard_wall_indicator (valid) 0x31a-0x31b (1)
0x310|                                 01            |           .    |      [6]: 1 standard_wall_indicator (valid) 0x31b-0x31c (1)
0x310|                                    01         |            .   |      [7]: 1 standard_wall_indicator (valid) 0x31c-0x31d (1)
     |                                               |                |    ut_local_indicators[0:8]: 0x31d-0x325 (8)
0x310|                                       00      |             .  |      [0]: 0 ut_local_indicator (valid) 0x31d-0x31e (1)
0x310|                                          00   |              . |      [1]: 0 ut_local_indicator (valid) 0x31e-0x31f (1)
0x310|                                             00|               .|      [2]: 0 ut_local_indicator (valid) 0x31f-0x320 (1)
0x320|00                                             |.               |      [3]: 0 ut_local_indicator (valid) 0x320-0x321 (1)
0x320|   00                                          | .              |      [4]: 0 ut_local_indicator (valid) 0x321-0x322 (1)
0x320|      00                                       |  .             |      [5]: 0 ut_local_indicator (valid) 0x322-0x323 (1)
0x320|         01                                    |   .            |      [6]: 1 ut_local_indicator (valid) 0x323-0x324 (1)
0x320|            01                                 |    .           |      [7]: 1 ut_local_indicator (valid) 0x324-0x325 (1)
     |                                               |                |  v2plusheader{}: 0x325-0x351 (44)
0x320|               54 5a 69 66                     |     TZif       |    magic: 0x545a6966 (valid) 0x325-0x329 (4)
0x320|                           32                  |         2      |    ver: "2" (0x32) (valid) 0x329-0x32a (1)
0x320|                              00 00 00 00 00 00|          ......|    reserved: raw bits 0x32a-0x339 (15)
0x330|00 00 00 00 00 00 00 00 00                     |.........       |
0x330|                           00 00 00 08         |         ....   |    isutcnt: 8 0x339-0x33d (4)
0x330|                                       00 00 00|             ...|    isstdcnt: 8 0x33d-0x341 (4)
0x340|08                                             |.               |
0x340|   00 00 00 00                                 | ....           |    leapcnt: 0 0x341-0x345 (4)
0x340|               00 00 00 88                     |     ....       |    timecnt: 136 0x345-0x349 (4)
0x340|                           00 00 00 08         |         ....   |    typecnt: 8 0x349-0x34d (4)
0x340|                                       00 00 00|             ...|    charcnt: 17 0x34d-0x351 (4)
0x350|11                                             |.               |
     |                                               |                |  v2plusdatablock{}: 0x351-0x86a (1305)
     |                                               |                |    transition_times[0:136]: 0x351-0x791 (1088)
0x350|   ff ff ff ff 6c cf e0 08                     | ....l...       |      [0]: "1891-09-30T22:15:36Z" (-2469404664) transition_time 0x351-0x359 (8)
0x350|                           ff ff ff ff b7 b0 d2|         .......|      [1]: "1931-07-23T22:15:36Z" (-1213148664) transition_time 0x359-0x361 (8)
0x360|08                                             |.               |
0x360|   ff ff ff ff b9 3e f3 60                     | .....>.`       |      [2]: "1932-05-20T22:00:00Z" (-1187056800) transition_time 0x361-0x369 (8)
0x360|                           ff ff ff ff b9 ef 9c|         .......|      [3]: "1932-10-01T22:00:00Z" (-1175479200) transition_time 0x369-0x371 (8)
0x370|60                                             |`               |
0x370|   ff ff ff ff ba df 8d 60                     | .......`       |      [4]: "1933-04-01T22:00:00Z" (-1159754400) transition_time 0x371-0x379 (8)
0x370|                           ff ff ff ff bb cf 7e|         ......~|      [5]: "1933-09-30T22:00:00Z" (-1144029600) transition_time 0x379-0x381 (8)
0x380|60                                             |`               |
0x380|   ff ff ff ff bc c8 a9 e0                     | ........       |      [6]: "1934-04-07T22:00:00Z" (-1127700000) transition_time 0x381-0x389 (8)
0x380|                           ff ff ff ff bd b8 9a|         .......|      [7]: "1934-10-06T22:00:00Z" (-1111975200) transition_time 0x389-0x391 (8)
0x390|e0                                             |.               |
0x390|   ff ff ff ff be a8 8b e0                     | ........       |      [8]: "1935-04-06T22:00:00Z" (-1096250400) transition_time 0x391-0x399 (8)
0x390|                           ff ff ff ff bf 98 7c|         ......||      [9]: "1935-10-05T22:00:00Z" (-1080525600) transition_time 0x399-0x3a1 (8)
0x3a0|e0                                             |.               |
0x3a0|   ff ff ff ff c0 88 6d e0                     | ......m.       |      [10]: "1936-04-04T22:00:00Z" (-1064800800) transition_time 0x3a1-0x3a9 (8)
0x3a0|                           ff ff ff ff c1 78 5e|         .....x^|      [11]: "1936-10-03T22:00:00Z" (-1049076000) transition_time 0x3a9-0x3b1 (8)
0x3b0|e0                                             |.               |
0x3b0|   ff ff ff ff c2 68 4f e0                     | .....hO.       |      [12]: "1937-04-03T22:00:00Z" (-1033351200) transition_time 0x3b1-0x3b9 (8)
0x3b0|                           ff ff ff ff c3 58 40|         .....X@|      [13]: "1937-10-02T22:00:00Z" (-1017626400) transition_time 0x3b9-0x3c1 (8)
0x3c0|e0                                             |.               |
0x3c0|   ff ff ff ff c4 48 31 e0                     | .....H1.       |      [14]: "1938-04-02T22:00:00Z" (-1001901600) transition_time 0x3c1-0x3c9 (8)
0x3c0|                           ff ff ff ff c5 38 22|         .....8"|      [15]: "1938-10-01T22:00:00Z" (-986176800) transition_time 0x3c9-0x3d1 (8)
0x3d0|e0                                             |.               |
0x3d0|   ff ff ff ff c6 28 13 e0                     | .....(..       |      [16]: "1939-04-01T22:00:00Z" (-970452000) transition_time 0x3d1-0x3d9 (8)
0x3d0|                           ff ff ff ff c7 18 04|         .......|      [17]: "1939-09-30T22:00:00Z" (-954727200) transition_time 0x3d9-0x3e1 (8)
0x3e0|e0                                             |.               |
0x3e0|   00 00 00 00 11 ad d1 60                     | .......`       |      [18]: "1979-05-26T22:00:00Z" (296604000) transition_time 0x3e1-0x3e9 (8)
0x3e0|                           00 00 00 00 12 53 e0|         .....S.|      [19]: "1979-09-29T21:00:00Z" (307486800) transition_time 0x3e9-0x3f1 (8)
0x3f0|50                                             |P               |
0x3f0|   00 00 00 00 13 4d 0b d0                     | .....M..       |      [20]: "1980-04-05T21:00:00Z" (323816400) transition_time 0x3f1-0x3f9 (8)
0x3f0|                           00 00 00 00 14 33 d0|         .....3.|      [21]: "1980-09-27T22:00:00Z" (338940000) transition_time 0x3f9-0x401 (8)
0x400|60                                             |`               |
0x400|   00 00 00 00 15 23 dd 80                     | .....#..       |      [22]: "1981-03-29T00:00:00Z" (354672000) transition_time 0x401-0x409 (8)
0x400|                           00 00 00 00 16 13 ce|         .......|      [23]: "1981-09-27T00:00:00Z" (370396800) transition_time 0x409-0x411 (8)
0x410|80                                             |.               |
0x410|   00 00 00 00 17 03 bf 80                     | ........       |      [24]: "1982-03-28T00:00:00Z" (386121600) transition_time 0x411-0x419 (8)
0x410|                           00 00 00 00 17 f3 b0|         .......|      [25]: "1982-09-26T00:00:00Z" (401846400) transition_time 0x419-0x421 (8)
0x420|80                                             |.               |
0x420|   00 00 00 00 18 e3 a1 80                     | ........       |      [26]: "1983-03-27T00:00:00Z" (417571200) transition_time 0x421-0x429 (8)
0x420|                           00 00 00 00 19 d3 92|         .......|      [27]: "1983-09-25T00:00:00Z" (433296000) transition_time 0x429-0x431 (8)
0x430|80                                             |.               |
0x430|   00 00 00 00 1a c3 83 80                     | ........       |      [28]: "1984-03-25T00:00:00Z" (449020800) transition_time 0x431-0x439 (8)
0x430|                           00 00 00 00 1b bc af|         .......|      [29]: "1984-09-30T00:00:00Z" (465350400) transition_time 0x439-0x441 (8)
0x440|00                                             |.               |
0x440|   00 00 00 00 1c ac a0 00                     | ........       |      [30]: "1985-03-31T00:00:00Z" (481075200) transition_time 0x441-0x449 (8)
0x440|                           00 00 00 00 1d 9c 91|         .......|      [31]: "1985-09-29T00:00:00Z" (496800000) transition_time 0x449-0x451 (8)
0x450|00                                             |.               |
0x450|   00 00 00 00 1e 8c 82 00                     | ........       |      [32]: "1986-03-30T00:00:00Z" (512524800) transition_time 0x451-0x459 (8)
0x450|                           00 00 00 00 1f 7c 73|         .....|s|      [33]: "1986-09-28T00:00:00Z" (528249600) transition_time 0x459-0x461 (8)
0x460|00                                             |.               |
0x460|   00 00 00 00 20 6c 64 00                     | .... ld.       |      [34]: "1987-03-29T00:00:00Z" (543974400) transition_time 0x461-0x469 (8)
0x460|                           00 00 00 00 21 5c 55|         ....!\U|      [35]: "1987-09-27T00:00:00Z" (559699200) transition_time 0x469-0x471 (8)
0x470|00                                             |.               |
0x470|   00 00 00 00 22 4c 46 00                     | ...."LF.       |      [36]: "1988-03-27T00:00:00Z" (575424000) transition_time 0x471-0x479 (8)
0x470|                           00 00 00 00 23 3c 37|         ....#<7|      [37]: "1988-09-25T00:00:00Z" (591148800) transition_time 0x479-0x481 (8)
0x480|00                                             |.               |
0x480|   00 00 00 00 24 2c 28 00                     | ....$,(.       |      [38]: "1989-03-26T00:00:00Z" (606873600) transition_time 0x481-0x489 (8)
0x480|                           00 00 00 00 25 1c 19|         ....%..|      [39]: "1989-09-24T00:00:00Z" (622598400) transition_time 0x489-0x491 (8)
0x490|00                                             |.               |
0x490|   00 00 00 00 26 0c 0a 00                     | ....&...       |      [40]: "1990-03-25T00:00:00Z" (638323200) transition_time 0x491-0x499 (8)
0x490|                           00 00 00 00 27 05 35|         ....'.5|      [41]: "1990-09-30T00:00:00Z" (654652800) transition_time 0x499-0x4a1 (8)
0x4a0|80                                             |.               |
0x4a0|   00 00 00 00 27 f5 0a 60                     | ....'..`       |      [42]: "1991-03-30T22:00:00Z" (670370400) transition_time 0x4a1-0x4a9 (8)
0x4a0|                           00 00 00 00 28 e4 fb|         ....(..|      [43]: "1991-09-28T22:00:00Z" (686095200) transition_time 0x4a9-0x4b1 (8)
0x4b0|60                                             |`               |
0x4b0|   00 00 00 00 29 d4 ec 60                     | ....)..`       |      [44]: "1992-03-28T22:00:00Z" (701820000) transition_time 0x4b1-0x4b9 (8)
0x4b0|                           00 00 00 00 2a c4 dd|         ....*..|      [45]: "1992-09-26T22:00:00Z" (717544800) transition_time 0x4b9-0x4c1 (8)
0x4c0|60                                             |`               |
0x4c0|   00 00 00 00 2b b4 ce 60                     | ....+..`       |      [46]: "1993-03-27T22:00:00Z" (733269600) transition_time 0x4c1-0x4c9 (8)
0x4c0|                           00 00 00 00 2c a4 bf|         ....,..|      [47]: "1993-09-25T22:00:00Z" (748994400) transition_time 0x4c9-0x4d1 (8)
0x4d0|60                                             |`               |
0x4d0|   00 00 00 00 2d 94 b0 60                     | ....-..`       |      [48]: "1994-03-26T22:00:00Z" (764719200) transition_time 0x4d1-0x4d9 (8)
0x4d0|                           00 00 00 00 2e 84 93|         .......|      [49]: "1994-09-24T21:00:00Z" (780440400) transition_time 0x4d9-0x4e1 (8)
0x4e0|50                                             |P               |
0x4e0|   00 00 00 00 2f 74 92 60                     | ..../t.`       |      [50]: "1995-03-25T22:00:00Z" (796168800) transition_time 0x4e1-0x4e9 (8)
0x4e0|                           00 00 00 00 30 64 75|         ....0du|      [51]: "1995-09-23T21:00:00Z" (811890000) transition_time 0x4e9-0x4f1 (8)
0x4f0|50                                             |P               |
0x4f0|   00 00 00 00 31 5d ae e0                     | ....1]..       |      [52]: "1996-03-30T22:00:00Z" (828223200) transition_time 0x4f1-0x4f9 (8)
0x4f0|                           00 00 00 00 32 72 7b|         ....2r{|      [53]: "1996-10-26T21:00:00Z" (846363600) transition_time 0x4f9-0x501 (8)
0x500|d0                                             |.               |
0x500|   00 00 00 00 33 3d bb 10                     | ....3=..       |      [54]: "1997-03-30T01:00:00Z" (859683600) transition_time 0x501-0x509 (8)
0x500|                           00 00 00 00 34 52 96|         ....4R.|      [55]: "1997-10-26T01:00:00Z" (877827600) transition_time 0x509-0x511 (8)
0x510|10                                             |.               |
0x510|   00 00 00 00 35 1d 9d 10                     | ....5...       |      [56]: "1998-03-29T01:00:00Z" (891133200) transition_time 0x511-0x519 (8)
0x510|                           00 00 00 00 36 32 78|         ....62x|      [57]: "1998-10-25T01:00:00Z" (909277200) transition_time 0x519-0x521 (8)
0x520|10                                             |.               |
0x520|   00 00 00 00 36 fd 7f 10                     | ....6...       |      [58]: "1999-03-28T01:00:00Z" (922582800) transition_time 0x521-0x529 (8)
0x520|                           00 00 00 00 38 1b 94|         ....8..|      [59]: "1999-10-31T01:00:00Z" (941331600) transition_time 0x529-0x531 (8)
0x530|90                                             |.               |
0x530|   00 00 00 00 38 dd 61 10                     | ....8.a.       |      [60]: "2000-03-26T01:00:00Z" (954032400) transition_time 0x531-0x539 (8)
0x530|                           00 00 00 00 39 fb 76|         ....9.v|      [61]: "2000-10-29T01:00:00Z" (972781200) transition_time 0x539-0x541 (8)
0x540|90                                             |.               |
0x540|   00 00 00 00 3a bd 43 10                     | ....:.C.       |      [62]: "2001-03-25T01:00:00Z" (985482000) transition_time 0x541-0x549 (8)
0x540|                           00 00 00 00 3b db 58|         ....;.X|      [63]: "2001-10-28T01:00:00Z" (1004230800) transition_time 0x549-0x551 (8)
0x550|90                                             |.               |
0x550|   00 00 00 00 3c a6 5f 90                     | ....<._.       |      [64]: "2002-03-31T01:00:00Z" (1017536400) transition_time 0x551-0x559 (8)
0x550|                           00 00 00 00 3d bb 3a|         ....=.:|      [65]: "2002-10-27T01:00:00Z" (1035680400) transition_time 0x559-0x561 (8)
0x560|90                                             |.               |
0x560|   00 00 00 00 3e 86 41 90                     | ....>.A.       |      [66]: "2003-03-30T01:00:00Z" (1048986000) transition_time 0x561-0x569 (8)
0x560|                           00 00 00 00 3f 9b 1c|         ....?..|      [67]: "2003-10-26T01:00:00Z" (1067130000) transition_time 0x569-0x571 (8)
0x570|90                                             |.               |
0x570|   00 00 00 00 40 66 23 90                     | ....@f#.       |      [68]: "2004-03-28T01:00:00Z" (1080435600) transition_time 0x571-0x579 (8)
0x570|                           00 00 00 00 41 84 39|         ....A.9|      [69]: "2004-10-31T01:00:00Z" (1099184400) transition_time 0x579-0x581 (8)
0x580|10                                             |.               |
0x580|   00 00 00 00 42 46 05 90                     | ....BF..       |      [70]: "2005-03-27T01:00:00Z" (1111885200) transition_time 0x581-0x589 (8)
0x580|                           00 00 00 00 43 64 1b|         ....Cd.|      [71]: "2005-10-30T01:00:00Z" (1130634000) transition_time 0x589-0x591 (8)
0x590|10                                             |.               |
0x590|   00 00 00 00 44 25 e7 90                     | ....D%..       |      [72]: "2006-03-26T01:00:00Z" (1143334800) transition_time 0x591-0x599 (8)
0x590|                           00 00 00 00 45 43 fd|         ....EC.|      [73]: "2006-10-29T01:00:00Z" (1162083600) transition_time 0x599-0x5a1 (8)
0x5a0|10                                             |.               |
0x5a0|   00 00 00 00 46 05 c9 90                     | ....F...       |      [74]: "2007-03-25T01:00:00Z" (1174784400) transition_time 0x5a1-0x5a9 (8)
0x5a0|                           00 00 00 00 47 23 df|         ....G#.|      [75]: "2007-10-28T01:00:00Z" (1193533200) transition_time 0x5a9-0x5b1 (8)
0x5b0|10                                             |.               |
0x5b0|   00 00 00 00 47 ee e6 10                     | ....G...       |      [76]: "2008-03-30T01:00:00Z" (1206838800) transition_time 0x5b1-0x5b9 (8)
0x5b0|                           00 00 00 00 49 03 c1|         ....I..|      [77]: "2008-10-26T01:00:00Z" (1224982800) transition_time 0x5b9-0x5c1 (8)
0x5c0|10                                             |.               |
0x5c0|   00 00 00 00 49 ce c8 10                     | ....I...       |      [78]: "2009-03-29T01:00:00Z" (1238288400) transition_time 0x5c1-0x5c9 (8)
0x5c0|                           00 00 00 00 4a e3 a3|         ....J..|      [79]: "2009-10-25T01:00:00Z" (1256432400) transition_time 0x5c9-0x5d1 (8)
0x5d0|10                                             |.               |
0x5d0|   00 00 00 00 4b ae aa 10                     | ....K...       |      [80]: "2010-03-28T01:00:00Z" (1269738000) transition_time 0x5d1-0x5d9 (8)
0x5d0|                           00 00 00 00 4c cc bf|         ....L..|      [81]: "2010-10-31T01:00:00Z" (1288486800) transition_time 0x5d9-0x5e1 (8)
0x5e0|90                                             |.               |
0x5e0|   00 00 00 00 4d 8e 8c 10                     | ....M...       |      [82]: "2011-03-27T01:00:00Z" (1301187600) transition_time 0x5e1-0x5e9 (8)
0x5e0|                           00 00 00 00 4e ac a1|         ....N..|      [83]: "2011-10-30T01:00:00Z" (1319936400) transition_time 0x5e9-0x5f1 (8)
0x5f0|90                                             |.               |
0x5f0|   00 00 00 00 4f 6e 6e 10                     | ....Onn.       |      [84]: "2012-03-25T01:00:00Z" (1332637200) transition_time 0x5f1-0x5f9 (8)
0x5f0|                           00 00 00 00 50 8c 83|         ....P..|      [85]: "2012-10-28T01:00:00Z" (1351386000) transition_time 0x5f9-0x601 (8)
0x600|90                                             |.               |
0x600|   00 00 00 00 51 57 8a 90                     | ....QW..       |      [86]: "2013-03-31T01:00:00Z" (1364691600) transition_time 0x601-0x609 (8)
0x600|                           00 00 00 00 52 6c 65|         ....Rle|      [87]: "2013-10-27T01:00:00Z" (1382835600) transition_time 0x609-0x611 (8)
0x610|90                                             |.               |
0x610|   00 00 00 00 53 37 6c 90                     | ....S7l.       |      [88]: "2014-03-30T01:00:00Z" (1396141200) transition_time 0x611-0x619 (8)
0x610|                           00 00 00 00 54 4c 47|         ....TLG|      [89]: "2014-10-26T01:00:00Z" (1414285200) transition_time 0x619-0x621 (8)
0x620|90                                             |.               |
0x620|   00 00 00 00 55 17 4e 90                     | ....U.N.       |      [90]: "2015-03-29T01:00:00Z" (1427590800) transition_time 0x621-0x629 (8)
0x620|                           00 00 00 00 56 2c 29|         ....V,)|      [91]: "2015-10-25T01:00:00Z" (1445734800) transition_time 0x629-0x631 (8)
0x630|90                                             |.               |
0x630|   00 00 00 00 56 f7 30 90                     | ....V.0.       |      [92]: "2016-03-27T01:00:00Z" (1459040400) transition_time 0x631-0x639 (8)
0x630|                           00 00 00 00 58 15 46|         ....X.F|      [93]: "2016-10-30T01:00:00Z" (1477789200) transition_time 0x639-0x641 (8)
0x640|10                                             |.               |
0x640|   00 00 00 00 58 d7 12 90                     | ....X...       |      [94]: "2017-03-26T01:00:00Z" (1490490000) transition_time 0x641-0x649 (8)
0x640|                           00 00 00 00 59 f5 28|         ....Y.(|      [95]: "2017-10-29T01:00:00Z" (1509238800) transition_time 0x649-0x651 (8)
0x650|10                                             |.               |
0x650|   00 00 00 00 5a b6 f4 90                     | ....Z...       |      [96]: "2018-03-25T01:00:00Z" (1521939600) transition_time 0x651-0x659 (8)
0x650|                           00 00 00 00 5b d5 0a|         ....[..|      [97]: "2018-10-28T01:00:00Z" (1540688400) transition_time 0x659-0x661 (8)
0x660|10                                             |.               |
0x660|   00 00 00 00 5c a0 11 10                     | ....\...       |      [98]: "2019-03-31T01:00:00Z" (1553994000) transition_time 0x661-0x669 (8)
0x660|                           00 00 00 00 5d b4 ec|         ....]..|      [99]: "2019-10-27T01:00:00Z" (1572138000) transition_time 0x669-0x671 (8)
0x670|10                                             |.               |
0x670|   00 00 00 00 5e 7f f3 10                     | ....^...       |      [100]: "2020-03-29T01:00:00Z" (1585443600) transition_time 0x671-0x679 (8)
0x670|                           00 00 00 00 5f 94 ce|         ...._..|      [101]: "2020-10-25T01:00:00Z" (1603587600) transition_time 0x679-0x681 (8)
0x680|10                                             |.               |
0x680|   00 00 00 00 60 5f d5 10                     | ....`_..       |      [102]: "2021-03-28T01:00:00Z" (1616893200) transition_time 0x681-0x689 (8)
0x680|                           00 00 00 00 61 7d ea|         ....a}.|      [103]: "2021-10-31T01:00:00Z" (1635642000) transition_time 0x689-0x691 (8)
0x690|90                                             |.               |
0x690|   00 00 00 00 62 3f b7 10                     | ....b?..       |      [104]: "2022-03-27T01:00:00Z" (1648342800) transition_time 0x691-0x699 (8)
0x690|                           00 00 00 00 63 5d cc|         ....c].|      [105]: "2022-10-30T01:00:00Z" (1667091600) transition_time 0x699-0x6a1 (8)
0x6a0|90                                             |.               |
0x6a0|   00 00 00 00 64 1f 99 10                     | ....d...       |      [106]: "2023-03-26T01:00:00Z" (1679792400) transition_time 0x6a1-0x6a9 (8)
0x6a0|                           00 00 00 00 65 3d ae|         ....e=.|      [107]: "2023-10-29T01:00:00Z" (1698541200) transition_time 0x6a9-0x6b1 (8)
0x6b0|90                                             |.               |
0x6b0|   00 00 00 00 66 08 b5 90                     | ....f...       |      [108]: "2024-03-31T01:00:00Z" (1711846800) transition_time 0x6b1-0x6b9 (8)
0x6b0|                           00 00 00 00 67 1d 90|         ....g..|      [109]: "2024-10-27T01:00:00Z" (1729990800) transition_time 0x6b9-0x6c1 (8)
0x6c0|90                                             |.               |
0x6c0|   00 00 00 00 67 e8 97 90                     | ....g...       |      [110]: "2025-03-30T01:00:00Z" (1743296400) transition_time 0x6c1-0x6c9 (8)
0x6c0|                           00 00 00 00 68 fd 72|         ....h.r|      [111]: "2025-10-26T01:00:00Z" (1761440400) transition_time 0x6c9-0x6d1 (8)
0x6d0|90                                             |.               |
0x6d0|   00 00 00 00 69 c8 79 90                     | ....i.y.       |      [112]: "2026-03-29T01:00:00Z" (1774746000) transition_time 0x6d1-0x6d9 (8)
0x6d0|                           00 00 00 00 6a dd 54|         ....j.T|      [113]: "2026-10-25T01:00:00Z" (1792890000) transition_time 0x6d9-0x6e1 (8)
0x6e0|90                                             |.               |
0x6e0|   00 00 00 00 6b a8 5b 90                     | ....k.[.       |      [114]: "2027-03-28T01:00:00Z" (1806195600) transition_time 0x6e1-0x6e9 (8)
0x6e0|                           00 00 00 00 6c c6 71|         ....l.q|      [115]: "2027-10-31T01:00:00Z" (1824944400) transition_time 0x6e9-0x6f1 (8)
0x6f0|10                                             |.               |
0x6f0|   00 00 00 00 6d 88 3d 90                     | ....m.=.       |      [116]: "2028-03-26T01:00:00Z" (1837645200) transition_time 0x6f1-0x6f9 (8)
0x6f0|                           00 00 00 00 6e a6 53|         ....n.S|      [117]: "2028-10-29T01:00:00Z" (1856394000) transition_time 0x6f9-0x701 (8)
0x700|10                                             |.               |
0x700|   00 00 00 00 6f 68 1f 90                     | ....oh..       |      [118]: "2029-03-25T01:00:00Z" (1869094800) transition_time 0x701-0x709 (8)
0x700|                           00 00 00 00 70 86 35|         ....p.5|      [119]: "2029-10-28T01:00:00Z" (1887843600) transition_time 0x709-0x711 (8)
0x710|10                                             |.               |
0x710|   00 00 00 00 71 51 3c 10                     | ....qQ<.       |      [120]: "2030-03-31T01:00:00Z" (1901149200) transition_time 0x711-0x719 (8)
0x710|                           00 00 00 00 72 66 17|         ....rf.|      [121]: "2030-10-27T01:00:00Z" (1919293200) transition_time 0x719-0x721 (8)
0x720|10                                             |.               |
0x720|   00 00 00 00 73 31 1e 10                     | ....s1..       |      [122]: "2031-03-30T01:00:00Z" (1932598800) transition_time 0x721-0x729 (8)
0x720|                           00 00 00 00 74 45 f9|         ....tE.|      [123]: "2031-10-26T01:00:00Z" (1950742800) transition_time 0x729-0x731 (8)
0x730|10                                             |.               |
0x730|   00 00 00 00 75 11 00 10                     | ....u...       |      [124]: "2032-03-28T01:00:00Z" (1964048400) transition_time 0x731-0x739 (8)
0x730|                           00 00 00 00 76 2f 15|         ....v/.|      [125]: "2032-10-31T01:00:00Z" (1982797200) transition_time 0x739-0x741 (8)
0x740|90                                             |.               |
0x740|   00 00 00 00 76 f0 e2 10                     | ....v...       |      [126]: "2033-03-27T01:00:00Z" (1995498000) transition_time 0x741-0x749 (8)
0x740|                           00 00 00 00 78 0e f7|         ....x..|      [127]: "2033-10-30T01:00:00Z" (2014246800) transition_time 0x749-0x751 (8)
0x750|90                                             |.               |
0x750|   00 00 00 00 78 d0 c4 10                     | ....x...       |      [128]: "2034-03-26T01:00:00Z" (2026947600) transition_time 0x751-0x759 (8)
0x750|                           00 00 00 00 79 ee d9|         ....y..|      [129]: "2034-10-29T01:00:00Z" (2045696400) transition_time 0x759-0x761 (8)
0x760|90                                             |.               |
0x760|   00 00 00 00 7a b0 a6 10                     | ....z...       |      [130]: "2035-03-25T01:00:00Z" (2058397200) transition_time 0x761-0x769 (8)
0x760|                           00 00 00 00 7b ce bb|         ....{..|      [131]: "2035-10-28T01:00:00Z" (2077146000) transition_time 0x769-0x771 (8)
0x770|90                                             |.               |
0x770|   00 00 00 00 7c 99 c2 90                     | ....|...       |      [132]: "2036-03-30T01:00:00Z" (2090451600) transition_time 0x771-0x779 (8)
0x770|                           00 00 00 00 7d ae 9d|         ....}..|      [133]: "2036-10-26T01:00:00Z" (2108595600) transition_time 0x779-0x781 (8)
0x780|90                                             |.               |
0x780|   00 00 00 00 7e 79 a4 90                     | ....~y..       |      [134]: "2037-03-29T01:00:00Z" (2121901200) transition_time 0x781-0x789 (8)
0x780|                           00 00 00 00 7f 8e 7f|         .......|      [135]: "2037-10-25T01:00:00Z" (2140045200) transition_time 0x789-0x791 (8)
0x790|90                                             |.               |
     |                                               |                |    transition_types[0:136]: 0x791-0x819 (136)
0x790|   01                                          | .              |      [0]: 1 transition_type 0x791-0x792 (1)
0x790|      05                                       |  .             |      [1]: 5 transition_type 0x792-0x793 (1)
0x790|         02                                    |   .            |      [2]: 2 transition_type 0x793-0x794 (1)
0x790|            03                                 |    .           |      [3]: 3 transition_type 0x794-0x795 (1)
0x790|               02                              |     .          |      [4]: 2 transition_type 0x795-0x796 (1)
0x790|                  03                           |      .         |      [5]: 3 transition_type 0x796-0x797 (1)
0x790|                     02                        |       .        |      [6]: 2 transition_type 0x797-0x798 (1)
0x790|                        03                     |        .       |      [7]: 3 transition_type 0x798-0x799 (1)
0x790|                           02                  |         .      |      [8]: 2 transition_type 0x799-0x79a (1)
0x790|                              03               |          .     |      [9]: 3 transition_type 0x79a-0x79b (1)
0x790|                                 02            |           .    |      [10]: 2 transition_type 0x79b-0x79c (1)
0x790|                                    03         |            .   |      [11]: 3 transition_type 0x79c-0x79d (1)
0x790|                                       02      |             .  |      [12]: 2 transition_type 0x79d-0x79e (1)
0x790|                                          03   |              . |      [13]: 3 transition_type 0x79e-0x79f (1)
0x790|                                             02|               .|      [14]: 2 transition_type 0x79f-0x7a0 (1)
0x7a0|03                                             |.               |      [15]: 3 transition_type 0x7a0-0x7a1 (1)
0x7a0|   02                                          | .              |      [16]: 2 transition_type 0x7a1-0x7a2 (1)
0x7a0|      03                                       |  .             |      [17]: 3 transition_type 0x7a2-0x7a3 (1)
0x7a0|         04                                    |   .            |      [18]: 4 transition_type 0x7a3-0x7a4 (1)
0x7a0|            05                                 |    .           |      [19]: 5 transition_type 0x7a4-0x7a5 (1)
0x7a0|               04                              |     .          |      [20]: 4 transition_type 0x7a5-0x7a6 (1)
0x7a0|                  05                           |      .         |      [21]: 5 transition_type 0x7a6-0x7a7 (1)
0x7a0|                     02                        |       .        |      [22]: 2 transition_type 0x7a7-0x7a8 (1)
0x7a0|                        03                     |        .       |      [23]: 3 transition_type 0x7a8-0x7a9 (1)
0x7a0|                           02                  |         .      |      [24]: 2 transition_type 0x7a9-0x7aa (1)
0x7a0|                              03               |          .     |      [25]: 3 transition_type 0x7aa-0x7ab (1)
0x7a0|                                 02            |           .    |      [26]: 2 transition_type 0x7ab-0x7ac (1)
0x7a0|                                    03         |            .   |      [27]: 3 transition_type 0x7ac-0x7ad (1)
0x7a0|                                       02      |             .  |      [28]: 2 transition_type 0x7ad-0x7ae (1)
0x7a0|                                          03   |              . |      [29]: 3 transition_type 0x7ae-0x7af (1)
0x7a0|                                             02|               .|      [30]: 2 transition_type 0x7af-0x7b0 (1)
0x7b0|03                                             |.               |      [31]: 3 transition_type 0x7b0-0x7b1 (1)
0x7b0|   02                                          | .              |      [32]: 2 transition_type 0x7b1-0x7b2 (1)
0x7b0|      03                                       |  .             |      [33]: 3 transition_type 0x7b2-0x7b3 (1)
0x7b0|         02                                    |   .            |      [34]: 2 transition_type 0x7b3-0x7b4 (1)
0x7b0|            03                                 |    .           |      [35]: 3 transition_type 0x7b4-0x7b5 (1)
0x7b0|               02                              |     .          |      [36]: 2 transition_type 0x7b5-0x7b6 (1)
0x7b0|                  03                           |      .         |      [37]: 3 transition_type 0x7b6-0x7b7 (1)
0x7b0|                     02                        |       .        |      [38]: 2 transition_type 0x7b7-0x7b8 (1)
0x7b0|                        03                     |        .       |      [39]: 3 transition_type 0x7b8-0x7b9 (1)
0x7b0|                           02                  |         .      |      [40]: 2 transition_type 0x7b9-0x7ba (1)
0x7b0|                              03               |          .     |      [41]: 3 transition_type 0x7ba-0x7bb (1)
0x7b0|                                 02            |           .    |      [42]: 2 transition_type 0x7bb-0x7bc (1)
0x7b0|                                    03         |            .   |      [43]: 3 transition_type 0x7bc-0x7bd (1)
0x7b0|                                       02      |             .  |      [44]: 2 transition_type 0x7bd-0x7be (1)
0x7b0|                                          03   |              . |      [45]: 3 transition_type 0x7be-0x7bf (1)
0x7b0|                                             02|               .|      [46]: 2 transition_type 0x7bf-0x7c0 (1)
0x7c0|03                                             |.               |      [47]: 3 transition_type 0x7c0-0x7c1 (1)
0x7c0|   04                                          | .              |      [48]: 4 transition_type 0x7c1-0x7c2 (1)
0x7c0|      05                                       |  .             |      [49]: 5 transition_type 0x7c2-0x7c3 (1)
0x7c0|         04                                    |   .            |      [50]: 4 transition_type 0x7c3-0x7c4 (1)
0x7c0|            05                                 |    .           |      [51]: 5 transition_type 0x7c4-0x7c5 (1)
0x7c0|               04                              |     .          |      [52]: 4 transition_type 0x7c5-0x7c6 (1)
0x7c0|                  05                           |      .         |      [53]: 5 transition_type 0x7c6-0x7c7 (1)
0x7c0|                     06                        |       .        |      [54]: 6 transition_type 0x7c7-0x7c8 (1)
0x7c0|                        07                     |        .       |      [55]: 7 transition_type 0x7c8-0x7c9 (1)
0x7c0|                           06                  |         .      |      [56]: 6 transition_type 0x7c9-0x7ca (1)
0x7c0|                              07               |          .     |      [57]: 7 transition_type 0x7ca-0x7cb (1)
0x7c0|                                 06            |           .    |      [58]: 6 transition_type 0x7cb-0x7cc (1)
0x7c0|                                    07         |            .   |      [59]: 7 transition_type 0x7cc-0x7cd (1)
0x7c0|                                       06      |             .  |      [60]: 6 transition_type 0x7cd-0x7ce (1)
0x7c0|                                          07   |              . |      [61]: 7 transition_type 0x7ce-0x7cf (1)
0x7c0|                                             06|               .|      [62]: 6 transition_type 0x7cf-0x7d0 (1)
0x7d0|07                                             |.               |      [63]: 7 transition_type 0x7d0-0x7d1 (1)
0x7d0|   06                                          | .              |      [64]: 6 transition_type 0x7d1-0x7d2 (1)
0x7d0|      07                                       |  .             |      [65]: 7 transition_type 0x7d2-0x7d3 (1)
0x7d0|         06                                    |   .            |      [66]: 6 transition_type 0x7d3-0x7d4 (1)
0x7d0|            07                                 |    .           |      [67]: 7 transition_type 0x7d4-0x7d5 (1)
0x7d0|               06                              |     .          |      [68]: 6 transition_type 0x7d5-0x7d6 (1)
0x7d0|                  07                           |      .         |      [69]: 7 transition_type 0x7d6-0x7d7 (1)
0x7d0|                     06                        |       .        |      [70]: 6 transition_type 0x7d7-0x7d8 (1)
0x7d0|                        07                     |        .       |      [71]: 7 transition_type 0x7d8-0x7d9 (1)
0x7d0|                           06                  |         .      |      [72]: 6 transition_type 0x7d9-0x7da (1)
0x7d0|                              07               |          .     |      [73]: 7 transition_type 0x7da-0x7db (1)
0x7d0|                                 06            |           .    |      [74]: 6 transition_type 0x7db-0x7dc (1)
0x7d0|                                    07         |            .   |      [75]: 7 transition_type 0x7dc-0x7dd (1)
0x7d0|                                       06      |             .  |      [76]: 6 transition_type 0x7dd-0x7de (1)
0x7d0|                                          07   |              . |      [77]: 7 transition_type 0x7de-0x7df (1)
0x7d0|                                             06|               .|      [78]: 6 transition_type 0x7df-0x7e0 (1)
0x7e0|07                                             |.               |      [79]: 7 transition_type 0x7e0-0x7e1 (1)
0x7e0|   06                                          | .              |      [80]: 6 transition_type 0x7e1-0x7e2 (1)
0x7e0|      07                                       |  .             |      [81]: 7 transition_type 0x7e2-0x7e3 (1)
0x7e0|         06                                    |   .            |      [82]: 6 transition_type 0x7e3-0x7e4 (1)
0x7e0|            07                                 |    .           |      [83]: 7 transition_type 0x7e4-0x7e5 (1)
0x7e0|               06                              |     .          |      [84]: 6 transition_type 0x7e5-0x7e6 (1)
0x7e0|                  07                           |      .         |      [85]: 7 transition_type 0x7e6-0x7e7 (1)
0x7e0|                     06                        |       .        |      [86]: 6 transition_type 0x7e7-0x7e8 (1)
0x7e0|                        07                     |        .       |      [87]: 7 transition_type 0x7e8-0x7e9 (1)
0x7e0|                           06                  |         .      |      [88]: 6 transition_type 0x7e9-0x7ea (1)
0x7e0|                              07               |          .     |      [89]: 7 transition_type 0x7ea-0x7eb (1)
0x7e0|                                 06            |           .    |      [90]: 6 transition_type 0x7eb-0x7ec (1)
0x7e0|                                    07         |            .   |      [91]: 7 transition_type 0x7ec-0x7ed (1)
0x7e0|                                       06      |             .  |      [92]: 6 transition_type 0x7ed-0x7ee (1)
0x7e0|                                          07   |              . |      [93]: 7 transition_type 0x7ee-0x7ef (1)
0x7e0|                                             06|               .|      [94]: 6 transition_type 0x7ef-0x7f0 (1)
0x7f0|07                                             |.               |      [95]: 7 transition_type 0x7f0-0x7f1 (1)
0x7f0|   06                                          | .              |      [96]: 6 transition_type 0x7f1-0x7f2 (1)
0x7f0|      07                                       |  .             |      [97]: 7 transition_type 0x7f2-0x7f3 (1)
0x7f0|         06                                    |   .            |      [98]: 6 transition_type 0x7f3-0x7f4 (1)
0x7f0|            07                                 |    .           |      [99]: 7 transition_type 0x7f4-0x7f5 (1)
0x7f0|               06                              |     .          |      [100]: 6 transition_type 0x7f5-0x7f6 (1)
0x7f0|                  07                           |      .         |      [101]: 7 transition_type 0x7f6-0x7f7 (1)
0x7f0|                     06                        |       .        |      [102]: 6 transition_type 0x7f7-0x7f8 (1)
0x7f0|                        07                     |        .       |      [103]: 7 transition_type 0x7f8-0x7f9 (1)
0x7f0|                           06                  |         .      |      [104]: 6 transition_type 0x7f9-0x7fa (1)
0x7f0|                              07               |          .     |      [105]: 7 transition_type 0x7fa-0x7fb (1)
0x7f0|                                 06            |           .    |      [106]: 6 transition_type 0x7fb-0x7fc (1)
0x7f0|                                    07         |            .   |      [107]: 7 transition_type 0x7fc-0x7fd (1)
0x7f0|                                       06      |             .  |      [108]: 6 transition_type 0x7fd-0x7fe (1)
0x7f0|                                          07   |              . |      [109]: 7 transition_type 0x7fe-0x7ff (1)
0x7f0|                                             06|               .|      [110]: 6 transition_type 0x7ff-0x800 (1)
0x800|07                                             |.               |      [111]: 7 transition_type 0x800-0x801 (1)
0x800|   06                                          | .              |      [112]: 6 transition_type 0x801-0x802 (1)
0x800|      07                                       |  .             |      [113]: 7 transition_type 0x802-0x803 (1)
0x800|         06                                    |   .            |      [114]: 6 transition_type 0x803-0x804 (1)
0x800|            07                                 |    .           |      [115]: 7 transition_type 0x804-0x805 (1)
0x800|               06                              |     .          |      [116]: 6 transition_type 0x805-0x806 (1)
0x800|                  07                           |      .         |      [117]: 7 transition_type 0x806-0x807 (1)
0x800|                     06                        |       .        |      [118]: 6 transition_type 0x807-0x808 (1)
0x800|                        07                     |        .       |      [119]: 7 transition_type 0x808-0x809 (1)
0x800|                           06                  |         .      |      [120]: 6 transition_type 0x809-0x80a (1)
0x800|                              07               |          .     |      [121]: 7 transition_type 0x80a-0x80b (1)
0x800|                                 06            |           .    |      [122]: 6 transition_type 0x80b-0x80c (1)
0x800|                                    07         |            .   |      [123]: 7 transition_type 0x80c-0x80d (1)
0x800|                                       06      |             .  |      [124]: 6 transition_type 0x80d-0x80e (1)
0x800|                                          07   |              . |      [125]: 7 transition_type 0x80e-0x80f (1)
0x800|                                             06|               .|      [126]: 6 transition_type 0x80f-0x810 (1)
0x810|07                                             |.               |      [127]: 7 transition_type 0x810-0x811 (1)
0x810|   06                                          | .              |      [128]: 6 transition_type 0x811-0x812 (1)
0x810|      07                                       |  .             |      [129]: 7 transition_type 0x812-0x813 (1)
0x810|         06                                    |   .            |      [130]: 6 transition_type 0x813-0x814 (1)
0x810|            07                                 |    .           |      [131]: 7 transition_type 0x814-0x815 (1)
0x810|               06                              |     .          |      [132]: 6 transition_type 0x815-0x816 (1)
0x810|                  07                           |      .         |      [133]: 7 transition_type 0x816-0x817 (1)
0x810|                     06                        |       .        |      [134]: 6 transition_type 0x817-0x818 (1)
0x810|                        07                     |        .       |      [135]: 7 transition_type 0x818-0x819 (1)
     |                                               |                |    local_time_type_records[0:8]: 0x819-0x849 (48)
     |                                               |                |      [0]{}: local_time_type 0x819-0x81f (6)
0x810|                           00 00 18 78         |         ...x   |        utoff: 6264 (valid) 0x819-0x81d (4)
0x810|                                       00      |             .  |        dst: 0 (valid) 0x81d-0x81e (1)
0x810|                                          00   |              . |        idx: 0 (valid) 0x81e-0x81f (1)
     |                                               |                |      [1]{}: local_time_type 0x81f-0x825 (6)
0x810|                                             00|               .|        utoff: 6264 (valid) 0x81f-0x823 (4)
0x820|00 18 78                                       |..x             |
0x820|         00                                    |   .            |        dst: 0 (valid) 0x823-0x824 (1)
0x820|            04                                 |    .           |        idx: 4 (valid) 0x824-0x825 (1)
     |                                               |                |      [2]{}: local_time_type 0x825-0x82b (6)
0x820|               00 00 2a 30                     |     ..*0       |        utoff: 10800 (valid) 0x825-0x829 (4)
0x820|                           01                  |         .      |        dst: 1 (valid) 0x829-0x82a (1)
0x820|                              08               |          .     |        idx: 8 (valid) 0x82a-0x82b (1)
     |                                               |                |      [3]{}: local_time_type 0x82b-0x831 (6)
0x820|                                 00 00 1c 20   |           ...  |        utoff: 7200 (valid) 0x82b-0x82f (4)
0x820|                                             00|               .|        dst: 0 (valid) 0x82f-0x830 (1)
0x830|0d                                             |.               |        idx: 13 (valid) 0x830-0x831 (1)
     |                                               |                |      [4]{}: local_time_type 0x831-0x837 (6)
0x830|   00 00 2a 30                                 | ..*0           |        utoff: 10800 (valid) 0x831-0x835 (4)
0x830|               01                              |     .          |        dst: 1 (valid) 0x835-0x836 (1)
0x830|                  08                           |      .         |        idx: 8 (valid) 0x836-0x837 (1)
     |                                               |                |      [5]{}: local_time_type 0x837-0x83d (6)
0x830|                     00 00 1c 20               |       ...      |        utoff: 7200 (valid) 0x837-0x83b (4)
0x830|                                 00            |           .    |        dst: 0 (valid) 0x83b-0x83c (1)
0x830|                                    0d         |            .   |        idx: 13 (valid) 0x83c-0x83d (1)
     |                                               |                |      [6]{}: local_time_type 0x83d-0x843 (6)
0x830|                                       00 00 2a|             ..*|        utoff: 10800 (valid) 0x83d-0x841 (4)
0x840|30                                             |0               |
0x840|   01                                          | .              |        dst: 1 (valid) 0x841-0x842 (1)
0x840|      08                                       |  .             |        idx: 8 (valid) 0x842-0x843 (1)
     |                                               |                |      [7]{}: local_time_type 0x843-0x849 (6)
0x840|         00 00 1c 20                           |   ...          |        utoff: 7200 (valid) 0x843-0x847 (4)
0x840|                     00                        |       .        |        dst: 0 (valid) 0x847-0x848 (1)
0x840|                        0d                     |        .       |        idx: 13 (valid) 0x848-0x849 (1)
     |                                               |                |    time_zone_designations[0:4]: 0x849-0x85a (17)
0x840|                           4c 4d 54 00         |         LMT.   |      [0]: "LMT" time_zone_designation 0x849-0x84d (4)
0x840|                                       42 4d 54|             BMT|      [1]: "BMT" time_zone_designation 0x84d-0x851 (4)
0x850|00                                             |.               |
0x850|   45 45 53 54 00                              | EEST.          |      [2]: "EEST" time_zone_designation 0x851-0x856 (5)
0x850|                  45 45 54 00                  |      EET.      |      [3]: "EET" time_zone_designation 0x856-0x85a (4)
     |                                               |                |    leap_second_records[0:0]: 0x85a-0x85a (0)
     |                                               |                |    standard_wall_indicators[0:8]: 0x85a-0x862 (8)
0x850|                              00               |          .     |      [0]: 0 standard_wall_indicator (valid) 0x85a-0x85b (1)
0x850|                                 00            |           .    |      [1]: 0 standard_wall_indicator (valid) 0x85b-0x85c (1)
0x850|                                    01         |            .   |      [2]: 1 standard_wall_indicator (valid) 0x85c-0x85d (1)
0x850|                                       01      |             .  |      [3]: 1 standard_wall_indicator (valid) 0x85d-0x85e (1)
0x850|                                          00   |              . |      [4]: 0 standard_wall_indicator (valid) 0x85e-0x85f (1)
0x850|                                             00|               .|      [5]: 0 standard_wall_indicator (valid) 0x85f-0x860 (1)
0x860|01                                             |.               |      [6]: 1 standard_wall_indicator (valid) 0x860-0x861 (1)
0x860|   01                                          | .              |      [7]: 1 standard_wall_indicator (valid) 0x861-0x862 (1)
     |                                               |                |    ut_local_indicators[0:8]: 0x862-0x86a (8)
0x860|      00                                       |  .             |      [0]: 0 ut_local_indicator (valid) 0x862-0x863 (1)
0x860|         00                                    |   .            |      [1]: 0 ut_local_indicator (valid) 0x863-0x864 (1)
0x860|            00                                 |    .           |      [2]: 0 ut_local_indicator (valid) 0x864-0x865 (1)
0x860|               00                              |     .          |      [3]: 0 ut_local_indicator (valid) 0x865-0x866 (1)
0x860|                  00                           |      .         |      [4]: 0 ut_local_indicator (valid) 0x866-0x867 (1)
0x860|                     00                        |       .        |      [5]: 0 ut_local_indicator (valid) 0x867-0x868 (1)
0x860|                        01                     |        .       |      [6]: 1 ut_local_indicator (valid) 0x868-0x869 (1)
0x860|                           01                  |         .      |      [7]: 1 ut_local_indicator (valid) 0x869-0x86a (1)
     |                                               |                |  footer{}: 0x86a-0x888 (30)
0x860|                              0a               |          .     |    nl1: 10 (valid) 0x86a-0x86b (1)
0x860|                                 45 45 54 2d 32|           EET-2|    tz_string: "EET-2EEST,M3.5.0/3,M10.5.0/4" 0x86b-0x887 (28)
0x870|45 45 53 54 2c 4d 33 2e 35 2e 30 2f 33 2c 4d 31|EEST,M3.5.0/3,M1|
0x880|30 2e 35 2e 30 2f 34                           |0.5.0/4         |
0x880|                     0a|                       |       .|       |    nl2: 10 (valid) 0x887-0x888 (1)
