$ fq -d tzif dv Budapest
     |00 01 02 03 04 05 06 07 08 09 0a 0b 0c 0d 0e 0f|0123456789abcdef|.{}: Budapest (tzif) 0x0-0x940 (2368)
     |                                               |                |  v1header{}: 0x0-0x2c (44)
0x000|54 5a 69 66                                    |TZif            |    magic: 0x545a6966 (valid) 0x0-0x4 (4)
0x000|            32                                 |    2           |    ver: "2" (0x32) (valid) 0x4-0x5 (1)
0x000|               00 00 00 00 00 00 00 00 00 00 00|     ...........|    reserved: raw bits 0x5-0x14 (15)
0x010|00 00 00 00                                    |....            |
0x010|            00 00 00 07                        |    ....        |    isutcnt: 7 0x14-0x18 (4)
0x010|                        00 00 00 07            |        ....    |    isstdcnt: 7 0x18-0x1c (4)
0x010|                                    00 00 00 00|            ....|    leapcnt: 0 0x1c-0x20 (4)
0x020|00 00 00 97                                    |....            |    timecnt: 151 0x20-0x24 (4)
0x020|            00 00 00 07                        |    ....        |    typecnt: 7 0x24-0x28 (4)
0x020|                        00 00 00 0d            |        ....    |    charcnt: 13 0x28-0x2c (4)
     |                                               |                |  v1datablock{}: 0x2c-0x364 (824)
     |                                               |                |    transition_times[0:151]: 0x2c-0x288 (604)
0x020|                                    80 00 00 00|            ....|      [0]: "1901-12-13T20:45:52Z" (-2147483648) transition_time 0x2c-0x30 (4)
0x030|9b 0c 17 60                                    |...`            |      [1]: "1916-04-30T22:00:00Z" (-1693706400) transition_time 0x30-0x34 (4)
0x030|            9b d5 da f0                        |    ....        |      [2]: "1916-09-30T23:00:00Z" (-1680483600) transition_time 0x34-0x38 (4)
0x030|                        9c d9 ae 90            |        ....    |      [3]: "1917-04-16T01:00:00Z" (-1663455600) transition_time 0x38-0x3c (4)
0x030|                                    9d a4 b5 90|            ....|      [4]: "1917-09-17T01:00:00Z" (-1650150000) transition_time 0x3c-0x40 (4)
0x040|9e b9 90 90                                    |....            |      [5]: "1918-04-15T01:00:00Z" (-1632006000) transition_time 0x40-0x44 (4)
0x040|            9f 84 97 90                        |    ....        |      [6]: "1918-09-16T01:00:00Z" (-1618700400) transition_time 0x44-0x48 (4)
0x040|                        a0 9a c4 10            |        ....    |      [7]: "1919-04-15T01:00:00Z" (-1600470000) transition_time 0x48-0x4c (4)
0x040|                                    a1 64 79 90|            .dy.|      [8]: "1919-09-15T01:00:00Z" (-1587250800) transition_time 0x4c-0x50 (4)
0x050|a2 70 1a 10                                    |.p..            |      [9]: "1920-04-05T01:00:00Z" (-1569711600) transition_time 0x50-0x54 (4)
0x050|            a3 4d 96 10                        |    .M..        |      [10]: "1920-09-20T01:00:00Z" (-1555196400) transition_time 0x54-0x58 (4)
0x050|                        c9 f3 b5 60            |        ...`    |      [11]: "1941-04-07T22:00:00Z" (-906775200) transition_time 0x58-0x5c (4)
0x050|                                    cc e7 4b 10|            ..K.|      [12]: "1942-11-02T01:00:00Z" (-857257200) transition_time 0x5c-0x60 (4)
0x060|cd a9 17 90                                    |....            |      [13]: "1943-03-29T01:00:00Z" (-844556400) transition_time 0x60-0x64 (4)
0x060|            ce a2 43 10                        |    ..C.        |      [14]: "1943-10-04T01:00:00Z" (-828226800) transition_time 0x64-0x68 (4)
0x060|                        cf 92 34 10            |        ..4.    |      [15]: "1944-04-03T01:00:00Z" (-812502000) transition_time 0x68-0x6c (4)
0x060|                                    d0 82 25 10|            ..%.|      [16]: "1944-10-02T01:00:00Z" (-796777200) transition_time 0x6c-0x70 (4)
0x070|d1 99 78 e0                                    |..x.            |      [17]: "1945-05-01T22:00:00Z" (-778471200) transition_time 0x70-0x74 (4)
0x070|            d2 8a c9 70                        |    ...p        |      [18]: "1945-10-31T23:00:00Z" (-762656400) transition_time 0x74-0x78 (4)
0x070|                        d3 50 a6 90            |        .P..    |      [19]: "1946-03-31T01:00:00Z" (-749689200) transition_time 0x78-0x7c (4)
0x070|                                    d4 4b 15 80|            .K..|      [20]: "1946-10-07T00:00:00Z" (-733276800) transition_time 0x7c-0x80 (4)
0x080|d5 39 c3 10                                    |.9..            |      [21]: "1947-04-06T01:00:00Z" (-717634800) transition_time 0x80-0x84 (4)
0x080|            d6 29 b4 10                        |    .)..        |      [22]: "1947-10-05T01:00:00Z" (-701910000) transition_time 0x84-0x88 (4)
0x080|                        d7 19 a5 10            |        ....    |      [23]: "1948-04-04T01:00:00Z" (-686185200) transition_time 0x88-0x8c (4)
0x080|                                    d8 09 96 10|            ....|      [24]: "1948-10-03T01:00:00Z" (-670460400) transition_time 0x8c-0x90 (4)
0x090|d9 02 c1 90                                    |....            |      [25]: "1949-04-10T01:00:00Z" (-654130800) transition_time 0x90-0x94 (4)
0x090|            d9 e9 78 10                        |    ..x.        |      [26]: "1949-10-02T01:00:00Z" (-639010800) transition_time 0x94-0x98 (4)
0x090|                        e2 a2 a8 f0            |        ....    |      [27]: "1954-05-22T23:00:00Z" (-492656400) transition_time 0x98-0x9c (4)
0x090|                                    e3 51 f2 60|            .Q.`|      [28]: "1954-10-02T22:00:00Z" (-481168800) transition_time 0x9c-0xa0 (4)
0x0a0|e4 82 a7 10                                    |....            |      [29]: "1955-05-22T01:00:00Z" (-461199600) transition_time 0xa0-0xa4 (4)
0x0a0|            e5 31 fe 90                        |    .1..        |      [30]: "1955-10-02T01:00:00Z" (-449708400) transition_time 0xa4-0xa8 (4)
0x0a0|                        e6 74 fe 10            |        .t..    |      [31]: "1956-06-03T01:00:00Z" (-428540400) transition_time 0xa8-0xac (4)
0x0a0|                                    e7 11 e0 90|            ....|      [32]: "1956-09-30T01:00:00Z" (-418258800) transition_time 0xac-0xb0 (4)
0x0b0|e8 54 e0 10                                    |.T..            |      [33]: "1957-06-02T01:00:00Z" (-397090800) transition_time 0xb0-0xb4 (4)
0x0b0|            e8 f1 c2 90                        |    ....        |      [34]: "1957-09-29T01:00:00Z" (-386809200) transition_time 0xb4-0xb8 (4)
0x0b0|                        13 4d 27 f0            |        .M'.    |      [35]: "1980-04-05T23:00:00Z" (323823600) transition_time 0xb8-0xbc (4)
0x0b0|                                    14 33 de 70|            .3.p|      [36]: "1980-09-27T23:00:00Z" (338943600) transition_time 0xbc-0xc0 (4)
0x0c0|15 23 cf 70                                    |.#.p            |      [37]: "1981-03-28T23:00:00Z" (354668400) transition_time 0xc0-0xc4 (4)
0x0c0|            16 13 c0 70                        |    ...p        |      [38]: "1981-09-26T23:00:00Z" (370393200) transition_time 0xc4-0xc8 (4)
0x0c0|                        17 03 b1 70            |        ...p    |      [39]: "1982-03-27T23:00:00Z" (386118000) transition_time 0xc8-0xcc (4)
0x0c0|                                    17 f3 a2 70|            ...p|      [40]: "1982-09-25T23:00:00Z" (401842800) transition_time 0xcc-0xd0 (4)
0x0d0|18 e3 93 70                                    |...p            |      [41]: "1983-03-26T23:00:00Z" (417567600) transition_time 0xd0-0xd4 (4)
0x0d0|            19 d3 84 70                        |    ...p        |      [42]: "1983-09-24T23:00:00Z" (433292400) transition_time 0xd4-0xd8 (4)
0x0d0|                        1a c3 91 90            |        ....    |      [43]: "1984-03-25T01:00:00Z" (449024400) transition_time 0xd8-0xdc (4)
0x0d0|                                    1b bc bd 10|            ....|      [44]: "1984-09-30T01:00:00Z" (465354000) transition_time 0xdc-0xe0 (4)
0x0e0|1c ac ae 10                                    |....            |      [45]: "1985-03-31T01:00:00Z" (481078800) transition_time 0xe0-0xe4 (4)
0x0e0|            1d 9c 9f 10                        |    ....        |      [46]: "1985-09-29T01:00:00Z" (496803600) transition_time 0xe4-0xe8 (4)
0x0e0|                        1e 8c 90 10            |        ....    |      [47]: "1986-03-30T01:00:00Z" (512528400) transition_time 0xe8-0xec (4)
0x0e0|                                    1f 7c 81 10|            .|..|      [48]: "1986-09-28T01:00:00Z" (528253200) transition_time 0xec-0xf0 (4)
0x0f0|20 6c 72 10                                    | lr.            |      [49]: "1987-03-29T01:00:00Z" (543978000) transition_time 0xf0-0xf4 (4)
0x0f0|            21 5c 63 10                        |    !\c.        |      [50]: "1987-09-27T01:00:00Z" (559702800) transition_time 0xf4-0xf8 (4)
0x0f0|                        22 4c 54 10            |        "LT.    |      [51]: "1988-03-27T01:00:00Z" (575427600) transition_time 0xf8-0xfc (4)
0x0f0|                                    23 3c 45 10|            #<E.|      [52]: "1988-09-25T01:00:00Z" (591152400) transition_time 0xfc-0x100 (4)
0x100|24 2c 36 10                                    |$,6.            |      [53]: "1989-03-26T01:00:00Z" (606877200) transition_time 0x100-0x104 (4)
0x100|            25 1c 27 10                        |    %.'.        |      [54]: "1989-09-24T01:00:00Z" (622602000) transition_time 0x104-0x108 (4)
0x100|                        26 0c 18 10            |        &...    |      [55]: "1990-03-25T01:00:00Z" (638326800) transition_time 0x108-0x10c (4)
0x100|                                    27 05 43 90|            '.C.|      [56]: "1990-09-30T01:00:00Z" (654656400) transition_time 0x10c-0x110 (4)
0x110|27 f5 34 90                                    |'.4.            |      [57]: "1991-03-31T01:00:00Z" (670381200) transition_time 0x110-0x114 (4)
0x110|            28 e5 25 90                        |    (.%.        |      [58]: "1991-09-29T01:00:00Z" (686106000) transition_time 0x114-0x118 (4)
0x110|                        29 d5 16 90            |        )...    |      [59]: "1992-03-29T01:00:00Z" (701830800) transition_time 0x118-0x11c (4)
0x110|                                    2a c5 07 90|            *...|      [60]: "1992-09-27T01:00:00Z" (717555600) transition_time 0x11c-0x120 (4)
0x120|2b b4 f8 90                                    |+...            |      [61]: "1993-03-28T01:00:00Z" (733280400) transition_time 0x120-0x124 (4)
0x120|            2c a4 e9 90                        |    ,...        |      [62]: "1993-09-26T01:00:00Z" (749005200) transition_time 0x124-0x128 (4)
0x120|                        2d 94 da 90            |        -...    |      [63]: "1994-03-27T01:00:00Z" (764730000) transition_time 0x128-0x12c (4)
0x120|                                    2e 84 cb 90|            ....|      [64]: "1994-09-25T01:00:00Z" (780454800) transition_time 0x12c-0x130 (4)
0x130|2f 74 bc 90                                    |/t..            |      [65]: "1995-03-26T01:00:00Z" (796179600) transition_time 0x130-0x134 (4)
0x130|            30 64 ad 90                        |    0d..        |      [66]: "1995-09-24T01:00:00Z" (811904400) transition_time 0x134-0x138 (4)
0x130|                        31 5d d9 10            |        1]..    |      [67]: "1996-03-31T01:00:00Z" (828234000) transition_time 0x138-0x13c (4)
0x130|                                    32 72 b4 10|            2r..|      [68]: "1996-10-27T01:00:00Z" (846378000) transition_time 0x13c-0x140 (4)
0x140|33 3d bb 10                                    |3=..            |      [69]: "1997-03-30T01:00:00Z" (859683600) transition_time 0x140-0x144 (4)
0x140|            34 52 96 10                        |    4R..        |      [70]: "1997-10-26T01:00:00Z" (877827600) transition_time 0x144-0x148 (4)
0x140|                        35 1d 9d 10            |        5...    |      [71]: "1998-03-29T01:00:00Z" (891133200) transition_time 0x148-0x14c (4)
0x140|                                    36 32 78 10|            62x.|      [72]: "1998-10-25T01:00:00Z" (909277200) transition_time 0x14c-0x150 (4)
0x150|36 fd 7f 10                                    |6...            |      [73]: "1999-03-28T01:00:00Z" (922582800) transition_time 0x150-0x154 (4)
0x150|            38 1b 94 90                        |    8...        |      [74]: "1999-10-31T01:00:00Z" (941331600) transition_time 0x154-0x158 (4)
0x150|                        38 dd 61 10            |        8.a.    |      [75]: "2000-03-26T01:00:00Z" (954032400) transition_time 0x158-0x15c (4)
0x150|                                    39 fb 76 90|            9.v.|      [76]: "2000-10-29T01:00:00Z" (972781200) transition_time 0x15c-0x160 (4)
0x160|3a bd 43 10                                    |:.C.            |      [77]: "2001-03-25T01:00:00Z" (985482000) transition_time 0x160-0x164 (4)
0x160|            3b db 58 90                        |    ;.X.        |      [78]: "2001-10-28T01:00:00Z" (1004230800) transition_time 0x164-0x168 (4)
0x160|                        3c a6 5f 90            |        <._.    |      [79]: "2002-03-31T01:00:00Z" (1017536400) transition_time 0x168-0x16c (4)
0x160|                                    3d bb 3a 90|            =.:.|      [80]: "2002-10-27T01:00:00Z" (1035680400) transition_time 0x16c-0x170 (4)
0x170|3e 86 41 90                                    |>.A.            |      [81]: "2003-03-30T01:00:00Z" (1048986000) transition_time 0x170-0x174 (4)
0x170|            3f 9b 1c 90                        |    ?...        |      [82]: "2003-10-26T01:00:00Z" (1067130000) transition_time 0x174-0x178 (4)
0x170|                        40 66 23 90            |        @f#.    |      [83]: "2004-03-28T01:00:00Z" (1080435600) transition_time 0x178-0x17c (4)
0x170|                                    41 84 39 10|            A.9.|      [84]: "2004-10-31T01:00:00Z" (1099184400) transition_time 0x17c-0x180 (4)
0x180|42 46 05 90                                    |BF..            |      [85]: "2005-03-27T01:00:00Z" (1111885200) transition_time 0x180-0x184 (4)
0x180|            43 64 1b 10                        |    Cd..        |      [86]: "2005-10-30T01:00:00Z" (1130634000) transition_time 0x184-0x188 (4)
0x180|                        44 25 e7 90            |        D%..    |      [87]: "2006-03-26T01:00:00Z" (1143334800) transition_time 0x188-0x18c (4)
0x180|                                    45 43 fd 10|            EC..|      [88]: "2006-10-29T01:00:00Z" (1162083600) transition_time 0x18c-0x190 (4)
0x190|46 05 c9 90                                    |F...            |      [89]: "2007-03-25T01:00:00Z" (1174784400) transition_time 0x190-0x194 (4)
0x190|            47 23 df 10                        |    G#..        |      [90]: "2007-10-28T01:00:00Z" (1193533200) transition_time 0x194-0x198 (4)
0x190|                        47 ee e6 10            |        G...    |      [91]: "2008-03-30T01:00:00Z" (1206838800) transition_time 0x198-0x19c (4)
0x190|                                    49 03 c1 10|            I...|      [92]: "2008-10-26T01:00:00Z" (1224982800) transition_time 0x19c-0x1a0 (4)
0x1a0|49 ce c8 10                                    |I...            |      [93]: "2009-03-29T01:00:00Z" (1238288400) transition_time 0x1a0-0x1a4 (4)
0x1a0|            4a e3 a3 10                        |    J...        |      [94]: "2009-10-25T01:00:00Z" (1256432400) transition_time 0x1a4-0x1a8 (4)
0x1a0|                        4b ae aa 10            |        K...    |      [95]: "2010-03-28T01:00:00Z" (1269738000) transition_time 0x1a8-0x1ac (4)
0x1a0|                                    4c cc bf 90|            L...|      [96]: "2010-10-31T01:00:00Z" (1288486800) transition_time 0x1ac-0x1b0 (4)
0x1b0|4d 8e 8c 10                                    |M...            |      [97]: "2011-03-27T01:00:00Z" (1301187600) transition_time 0x1b0-0x1b4 (4)
0x1b0|            4e ac a1 90                        |    N...        |      [98]: "2011-10-30T01:00:00Z" (1319936400) transition_time 0x1b4-0x1b8 (4)
0x1b0|                        4f 6e 6e 10            |        Onn.    |      [99]: "2012-03-25T01:00:00Z" (1332637200) transition_time 0x1b8-0x1bc (4)
0x1b0|                                    50 8c 83 90|            P...|      [100]: "2012-10-28T01:00:00Z" (1351386000) transition_time 0x1bc-0x1c0 (4)
0x1c0|51 57 8a 90                                    |QW..            |      [101]: "2013-03-31T01:00:00Z" (1364691600) transition_time 0x1c0-0x1c4 (4)
0x1c0|            52 6c 65 90                        |    Rle.        |      [102]: "2013-10-27T01:00:00Z" (1382835600) transition_time 0x1c4-0x1c8 (4)
0x1c0|                        53 37 6c 90            |        S7l.    |      [103]: "2014-03-30T01:00:00Z" (1396141200) transition_time 0x1c8-0x1cc (4)
0x1c0|                                    54 4c 47 90|            TLG.|      [104]: "2014-10-26T01:00:00Z" (1414285200) transition_time 0x1cc-0x1d0 (4)
0x1d0|55 17 4e 90                                    |U.N.            |      [105]: "2015-03-29T01:00:00Z" (1427590800) transition_time 0x1d0-0x1d4 (4)
0x1d0|            56 2c 29 90                        |    V,).        |      [106]: "2015-10-25T01:00:00Z" (1445734800) transition_time 0x1d4-0x1d8 (4)
0x1d0|                        56 f7 30 90            |        V.0.    |      [107]: "2016-03-27T01:00:00Z" (1459040400) transition_time 0x1d8-0x1dc (4)
0x1d0|                                    58 15 46 10|            X.F.|      [108]: "2016-10-30T01:00:00Z" (1477789200) transition_time 0x1dc-0x1e0 (4)
0x1e0|58 d7 12 90                                    |X...            |      [109]: "2017-03-26T01:00:00Z" (1490490000) transition_time 0x1e0-0x1e4 (4)
0x1e0|            59 f5 28 10                        |    Y.(.        |      [110]: "2017-10-29T01:00:00Z" (1509238800) transition_time 0x1e4-0x1e8 (4)
0x1e0|                        5a b6 f4 90            |        Z...    |      [111]: "2018-03-25T01:00:00Z" (1521939600) transition_time 0x1e8-0x1ec (4)
0x1e0|                                    5b d5 0a 10|            [...|      [112]: "2018-10-28T01:00:00Z" (1540688400) transition_time 0x1ec-0x1f0 (4)
0x1f0|5c a0 11 10                                    |\...            |      [113]: "2019-03-31T01:00:00Z" (1553994000) transition_time 0x1f0-0x1f4 (4)
0x1f0|            5d b4 ec 10                        |    ]...        |      [114]: "2019-10-27T01:00:00Z" (1572138000) transition_time 0x1f4-0x1f8 (4)
0x1f0|                        5e 7f f3 10            |        ^...    |      [115]: "2020-03-29T01:00:00Z" (1585443600) transition_time 0x1f8-0x1fc (4)
0x1f0|                                    5f 94 ce 10|            _...|      [116]: "2020-10-25T01:00:00Z" (1603587600) transition_time 0x1fc-0x200 (4)
0x200|60 5f d5 10                                    |`_..            |      [117]: "2021-03-28T01:00:00Z" (1616893200) transition_time 0x200-0x204 (4)
0x200|            61 7d ea 90                        |    a}..        |      [118]: "2021-10-31T01:00:00Z" (1635642000) transition_time 0x204-0x208 (4)
0x200|                        62 3f b7 10            |        b?..    |      [119]: "2022-03-27T01:00:00Z" (1648342800) transition_time 0x208-0x20c (4)
0x200|                                    63 5d cc 90|            c]..|      [120]: "2022-10-30T01:00:00Z" (1667091600) transition_time 0x20c-0x210 (4)
0x210|64 1f 99 10                                    |d...            |      [121]: "2023-03-26T01:00:00Z" (1679792400) transition_time 0x210-0x214 (4)
0x210|            65 3d ae 90                        |    e=..        |      [122]: "2023-10-29T01:00:00Z" (1698541200) transition_time 0x214-0x218 (4)
0x210|                        66 08 b5 90            |        f...    |      [123]: "2024-03-31T01:00:00Z" (1711846800) transition_time 0x218-0x21c (4)
0x210|                                    67 1d 90 90|            g...|      [124]: "2024-10-27T01:00:00Z" (1729990800) transition_time 0x21c-0x220 (4)
0x220|67 e8 97 90                                    |g...            |      [125]: "2025-03-30T01:00:00Z" (1743296400) transition_time 0x220-0x224 (4)
0x220|            68 fd 72 90                        |    h.r.        |      [126]: "2025-10-26T01:00:00Z" (1761440400) transition_time 0x224-0x228 (4)
0x220|                        69 c8 79 90            |        i.y.    |      [127]: "2026-03-29T01:00:00Z" (1774746000) transition_time 0x228-0x22c (4)
0x220|                                    6a dd 54 90|            j.T.|      [128]: "2026-10-25T01:00:00Z" (1792890000) transition_time 0x22c-0x230 (4)
0x230|6b a8 5b 90                                    |k.[.            |      [129]: "2027-03-28T01:00:00Z" (1806195600) transition_time 0x230-0x234 (4)
0x230|            6c c6 71 10                        |    l.q.        |      [130]: "2027-10-31T01:00:00Z" (1824944400) transition_time 0x234-0x238 (4)
0x230|                        6d 88 3d 90            |        m.=.    |      [131]: "2028-03-26T01:00:00Z" (1837645200) transition_time 0x238-0x23c (4)
0x230|                                    6e a6 53 10|            n.S.|      [132]: "2028-10-29T01:00:00Z" (1856394000) transition_time 0x23c-0x240 (4)
0x240|6f 68 1f 90                                    |oh..            |      [133]: "2029-03-25T01:00:00Z" (1869094800) transition_time 0x240-0x244 (4)
0x240|            70 86 35 10                        |    p.5.        |      [134]: "2029-10-28T01:00:00Z" (1887843600) transition_time 0x244-0x248 (4)
0x240|                        71 51 3c 10            |        qQ<.    |      [135]: "2030-03-31T01:00:00Z" (1901149200) transition_time 0x248-0x24c (4)
0x240|                                    72 66 17 10|            rf..|      [136]: "2030-10-27T01:00:00Z" (1919293200) transition_time 0x24c-0x250 (4)
0x250|73 31 1e 10                                    |s1..            |      [137]: "2031-03-30T01:00:00Z" (1932598800) transition_time 0x250-0x254 (4)
0x250|            74 45 f9 10                        |    tE..        |      [138]: "2031-10-26T01:00:00Z" (1950742800) transition_time 0x254-0x258 (4)
0x250|                        75 11 00 10            |        u...    |      [139]: "2032-03-28T01:00:00Z" (1964048400) transition_time 0x258-0x25c (4)
0x250|                                    76 2f 15 90|            v/..|      [140]: "2032-10-31T01:00:00Z" (1982797200) transition_time 0x25c-0x260 (4)
0x260|76 f0 e2 10                                    |v...            |      [141]: "2033-03-27T01:00:00Z" (1995498000) transition_time 0x260-0x264 (4)
0x260|            78 0e f7 90                        |    x...        |      [142]: "2033-10-30T01:00:00Z" (2014246800) transition_time 0x264-0x268 (4)
0x260|                        78 d0 c4 10            |        x...    |      [143]: "2034-03-26T01:00:00Z" (2026947600) transition_time 0x268-0x26c (4)
0x260|                                    79 ee d9 90|            y...|      [144]: "2034-10-29T01:00:00Z" (2045696400) transition_time 0x26c-0x270 (4)
0x270|7a b0 a6 10                                    |z...            |      [145]: "2035-03-25T01:00:00Z" (2058397200) transition_time 0x270-0x274 (4)
0x270|            7b ce bb 90                        |    {...        |      [146]: "2035-10-28T01:00:00Z" (2077146000) transition_time 0x274-0x278 (4)
0x270|                        7c 99 c2 90            |        |...    |      [147]: "2036-03-30T01:00:00Z" (2090451600) transition_time 0x278-0x27c (4)
0x270|                                    7d ae 9d 90|            }...|      [148]: "2036-10-26T01:00:00Z" (2108595600) transition_time 0x27c-0x280 (4)
0x280|7e 79 a4 90                                    |~y..            |      [149]: "2037-03-29T01:00:00Z" (2121901200) transition_time 0x280-0x284 (4)
0x280|            7f 8e 7f 90                        |    ....        |      [150]: "2037-10-25T01:00:00Z" (2140045200) transition_time 0x284-0x288 (4)
     |                                               |                |    transition_types[0:151]: 0x288-0x31f (151)
0x280|                        02                     |        .       |      [0]: 2 transition_type 0x288-0x289 (1)
0x280|                           01                  |         .      |      [1]: 1 transition_type 0x289-0x28a (1)
0x280|                              02               |          .     |      [2]: 2 transition_type 0x28a-0x28b (1)
0x280|                                 03            |           .    |      [3]: 3 transition_type 0x28b-0x28c (1)
0x280|                                    04         |            .   |      [4]: 4 transition_type 0x28c-0x28d (1)
0x280|                                       01      |             .  |      [5]: 1 transition_type 0x28d-0x28e (1)
0x280|                                          02   |              . |      [6]: 2 transition_type 0x28e-0x28f (1)
0x280|                                             01|               .|      [7]: 1 transition_type 0x28f-0x290 (1)
0x290|02                                             |.               |      [8]: 2 transition_type 0x290-0x291 (1)
0x290|   01                                          | .              |      [9]: 1 transition_type 0x291-0x292 (1)
0x290|      02                                       |  .             |      [10]: 2 transition_type 0x292-0x293 (1)
0x290|         01                                    |   .            |      [11]: 1 transition_type 0x293-0x294 (1)
0x290|            04                                 |    .           |      [12]: 4 transition_type 0x294-0x295 (1)
0x290|               03                              |     .          |      [13]: 3 transition_type 0x295-0x296 (1)
0x290|                  04                           |      .         |      [14]: 4 transition_type 0x296-0x297 (1)
0x290|                     03                        |       .        |      [15]: 3 transition_type 0x297-0x298 (1)
0x290|                        04                     |        .       |      [16]: 4 transition_type 0x298-0x299 (1)
0x290|                           01                  |         .      |      [17]: 1 transition_type 0x299-0x29a (1)
0x290|                              02               |          .     |      [18]: 2 transition_type 0x29a-0x29b (1)
0x290|                                 03            |           .    |      [19]: 3 transition_type 0x29b-0x29c (1)
0x290|                                    02         |            .   |      [20]: 2 transition_type 0x29c-0x29d (1)
0x290|                                       03      |             .  |      [21]: 3 transition_type 0x29d-0x29e (1)
0x290|                                          04   |              . |      [22]: 4 transition_type 0x29e-0x29f (1)
0x290|                                             03|               .|      [23]: 3 transition_type 0x29f-0x2a0 (1)
0x2a0|04                                             |.               |      [24]: 4 transition_type 0x2a0-0x2a1 (1)
0x2a0|   03                                          | .              |      [25]: 3 transition_type 0x2a1-0x2a2 (1)
0x2a0|      04                                       |  .             |      [26]: 4 transition_type 0x2a2-0x2a3 (1)
0x2a0|         01                                    |   .            |      [27]: 1 transition_type 0x2a3-0x2a4 (1)
0x2a0|            02                                 |    .           |      [28]: 2 transition_type 0x2a4-0x2a5 (1)
0x2a0|               01                              |     .          |      [29]: 1 transition_type 0x2a5-0x2a6 (1)
0x2a0|                  02                           |      .         |      [30]: 2 transition_type 0x2a6-0x2a7 (1)
0x2a0|                     01                        |       .        |      [31]: 1 transition_type 0x2a7-0x2a8 (1)
0x2a0|                        02                     |        .       |      [32]: 2 transition_type 0x2a8-0x2a9 (1)
0x2a0|                           01                  |         .      |      [33]: 1 transition_type 0x2a9-0x2aa (1)
0x2a0|                              02               |          .     |      [34]: 2 transition_type 0x2aa-0x2ab (1)
0x2a0|                                 01            |           .    |      [35]: 1 transition_type 0x2ab-0x2ac (1)
0x2a0|                                    02         |            .   |      [36]: 2 transition_type 0x2ac-0x2ad (1)
0x2a0|                                       01      |             .  |      [37]: 1 transition_type 0x2ad-0x2ae (1)
0x2a0|                                          02   |              . |      [38]: 2 transition_type 0x2ae-0x2af (1)
0x2a0|                                             01|               .|      [39]: 1 transition_type 0x2af-0x2b0 (1)
0x2b0|02                                             |.               |      [40]: 2 transition_type 0x2b0-0x2b1 (1)
0x2b0|   01                                          | .              |      [41]: 1 transition_type 0x2b1-0x2b2 (1)
0x2b0|      02                                       |  .             |      [42]: 2 transition_type 0x2b2-0x2b3 (1)
0x2b0|         05                                    |   .            |      [43]: 5 transition_type 0x2b3-0x2b4 (1)
0x2b0|            06                                 |    .           |      [44]: 6 transition_type 0x2b4-0x2b5 (1)
0x2b0|               05                              |     .          |      [45]: 5 transition_type 0x2b5-0x2b6 (1)
0x2b0|                  06                           |      .         |      [46]: 6 transition_type 0x2b6-0x2b7 (1)
0x2b0|                     05                        |       .        |      [47]: 5 transition_type 0x2b7-0x2b8 (1)
0x2b0|                        06                     |        .       |      [48]: 6 transition_type 0x2b8-0x2b9 (1)
0x2b0|                           05                  |         .      |      [49]: 5 transition_type 0x2b9-0x2ba (1)
0x2b0|                              06               |          .     |      [50]: 6 transition_type 0x2ba-0x2bb (1)
0x2b0|                                 05            |           .    |      [51]: 5 transition_type 0x2bb-0x2bc (1)
0x2b0|                                    06         |            .   |      [52]: 6 transition_type 0x2bc-0x2bd (1)
0x2b0|                                       05      |             .  |      [53]: 5 transition_type 0x2bd-0x2be (1)
0x2b0|                                          06   |              . |      [54]: 6 transition_type 0x2be-0x2bf (1)
0x2b0|                                             05|               .|      [55]: 5 transition_type 0x2bf-0x2c0 (1)
0x2c0|06                                             |.               |      [56]: 6 transition_type 0x2c0-0x2c1 (1)
0x2c0|   05                                          | .              |      [57]: 5 transition_type 0x2c1-0x2c2 (1)
0x2c0|      06                                       |  .             |      [58]: 6 transition_type 0x2c2-0x2c3 (1)
0x2c0|         05                                    |   .            |      [59]: 5 transition_type 0x2c3-0x2c4 (1)
0x2c0|            06                                 |    .           |      [60]: 6 transition_type 0x2c4-0x2c5 (1)
0x2c0|               05                              |     .          |      [61]: 5 transition_type 0x2c5-0x2c6 (1)
0x2c0|                  06                           |      .         |      [62]: 6 transition_type 0x2c6-0x2c7 (1)
0x2c0|                     05                        |       .        |      [63]: 5 transition_type 0x2c7-0x2c8 (1)
0x2c0|                        06                     |        .       |      [64]: 6 transition_type 0x2c8-0x2c9 (1)
0x2c0|                           05                  |         .      |      [65]: 5 transition_type 0x2c9-0x2ca (1)
0x2c0|                              06               |          .     |      [66]: 6 transition_type 0x2ca-0x2cb (1)
0x2c0|                                 05            |           .    |      [67]: 5 transition_type 0x2cb-0x2cc (1)
0x2c0|                                    06         |            .   |      [68]: 6 transition_type 0x2cc-0x2cd (1)
0x2c0|                                       05      |             .  |      [69]: 5 transition_type 0x2cd-0x2ce (1)
0x2c0|                                          06   |              . |      [70]: 6 transition_type 0x2ce-0x2cf (1)
0x2c0|                                             05|               .|      [71]: 5 transition_type 0x2cf-0x2d0 (1)
0x2d0|06                                             |.               |      [72]: 6 transition_type 0x2d0-0x2d1 (1)
0x2d0|   05                                          | .              |      [73]: 5 transition_type 0x2d1-0x2d2 (1)
0x2d0|      06                                       |  .             |      [74]: 6 transition_type 0x2d2-0x2d3 (1)
0x2d0|         05                                    |   .            |      [75]: 5 transition_type 0x2d3-0x2d4 (1)
0x2d0|            06                                 |    .           |      [76]: 6 transition_type 0x2d4-0x2d5 (1)
0x2d0|               05                              |     .          |      [77]: 5 transition_type 0x2d5-0x2d6 (1)
0x2d0|                  06                           |      .         |      [78]: 6 transition_type 0x2d6-0x2d7 (1)
0x2d0|                     05                        |       .        |      [79]: 5 transition_type 0x2d7-0x2d8 (1)
0x2d0|                        06                     |        .       |      [80]: 6 transition_type 0x2d8-0x2d9 (1)
0x2d0|                           05                  |         .      |      [81]: 5 transition_type 0x2d9-0x2da (1)
0x2d0|                              06               |          .     |      [82]: 6 transition_type 0x2da-0x2db (1)
0x2d0|                                 05            |           .    |      [83]: 5 transition_type 0x2db-0x2dc (1)
0x2d0|                                    06         |            .   |      [84]: 6 transition_type 0x2dc-0x2dd (1)
0x2d0|                                       05      |             .  |      [85]: 5 transition_type 0x2dd-0x2de (1)
0x2d0|                                          06   |              . |      [86]: 6 transition_type 0x2de-0x2df (1)
0x2d0|                                             05|               .|      [87]: 5 transition_type 0x2df-0x2e0 (1)
0x2e0|06                                             |.               |      [88]: 6 transition_type 0x2e0-0x2e1 (1)
0x2e0|   05                                          | .              |      [89]: 5 transition_type 0x2e1-0x2e2 (1)
0x2e0|      06                                       |  .             |      [90]: 6 transition_type 0x2e2-0x2e3 (1)
0x2e0|         05                                    |   .            |      [91]: 5 transition_type 0x2e3-0x2e4 (1)
0x2e0|            06                                 |    .           |      [92]: 6 transition_type 0x2e4-0x2e5 (1)
0x2e0|               05                              |     .          |      [93]: 5 transition_type 0x2e5-0x2e6 (1)
0x2e0|                  06                           |      .         |      [94]: 6 transition_type 0x2e6-0x2e7 (1)
0x2e0|                     05                        |       .        |      [95]: 5 transition_type 0x2e7-0x2e8 (1)
0x2e0|                        06                     |        .       |      [96]: 6 transition_type 0x2e8-0x2e9 (1)
0x2e0|                           05                  |         .      |      [97]: 5 transition_type 0x2e9-0x2ea (1)
0x2e0|                              06               |          .     |      [98]: 6 transition_type 0x2ea-0x2eb (1)
0x2e0|                                 05            |           .    |      [99]: 5 transition_type 0x2eb-0x2ec (1)
0x2e0|                                    06         |            .   |      [100]: 6 transition_type 0x2ec-0x2ed (1)
0x2e0|                                       05      |             .  |      [101]: 5 transition_type 0x2ed-0x2ee (1)
0x2e0|                                          06   |              . |      [102]: 6 transition_type 0x2ee-0x2ef (1)
0x2e0|                                             05|               .|      [103]: 5 transition_type 0x2ef-0x2f0 (1)
0x2f0|06                                             |.               |      [104]: 6 transition_type 0x2f0-0x2f1 (1)
0x2f0|   05                                          | .              |      [105]: 5 transition_type 0x2f1-0x2f2 (1)
0x2f0|      06                                       |  .             |      [106]: 6 transition_type 0x2f2-0x2f3 (1)
0x2f0|         05                                    |   .            |      [107]: 5 transition_type 0x2f3-0x2f4 (1)
0x2f0|            06                                 |    .           |      [108]: 6 transition_type 0x2f4-0x2f5 (1)
0x2f0|               05                              |     .          |      [109]: 5 transition_type 0x2f5-0x2f6 (1)
0x2f0|                  06                           |      .         |      [110]: 6 transition_type 0x2f6-0x2f7 (1)
0x2f0|                     05                        |       .        |      [111]: 5 transition_type 0x2f7-0x2f8 (1)
0x2f0|                        06                     |        .       |      [112]: 6 transition_type 0x2f8-0x2f9 (1)
0x2f0|                           05                  |         .      |      [113]: 5 transition_type 0x2f9-0x2fa (1)
0x2f0|                              06               |          .     |      [114]: 6 transition_type 0x2fa-0x2fb (1)
0x2f0|                                 05            |           .    |      [115]: 5 transition_type 0x2fb-0x2fc (1)
0x2f0|                                    06         |            .   |      [116]: 6 transition_type 0x2fc-0x2fd (1)
0x2f0|                                       05      |             .  |      [117]: 5 transition_type 0x2fd-0x2fe (1)
0x2f0|                                          06   |              . |      [118]: 6 transition_type 0x2fe-0x2ff (1)
0x2f0|                                             05|               .|      [119]: 5 transition_type 0x2ff-0x300 (1)
0x300|06                                             |.               |      [120]: 6 transition_type 0x300-0x301 (1)
0x300|   05                                          | .              |      [121]: 5 transition_type 0x301-0x302 (1)
0x300|      06                                       |  .             |      [122]: 6 transition_type 0x302-0x303 (1)
0x300|         05                                    |   .            |      [123]: 5 transition_type 0x303-0x304 (1)
0x300|            06                                 |    .           |      [124]: 6 transition_type 0x304-0x305 (1)
0x300|               05                              |     .          |      [125]: 5 transition_type 0x305-0x306 (1)
0x300|                  06                           |      .         |      [126]: 6 transition_type 0x306-0x307 (1)
0x300|                     05                        |       .        |      [127]: 5 transition_type 0x307-0x308 (1)
0x300|                        06                     |        .       |      [128]: 6 transition_type 0x308-0x309 (1)
0x300|                           05                  |         .      |      [129]: 5 transition_type 0x309-0x30a (1)
0x300|                              06               |          .     |      [130]: 6 transition_type 0x30a-0x30b (1)
0x300|                                 05            |           .    |      [131]: 5 transition_type 0x30b-0x30c (1)
0x300|                                    06         |            .   |      [132]: 6 transition_type 0x30c-0x30d (1)
0x300|                                       05      |             .  |      [133]: 5 transition_type 0x30d-0x30e (1)
0x300|                                          06   |              . |      [134]: 6 transition_type 0x30e-0x30f (1)
0x300|                                             05|               .|      [135]: 5 transition_type 0x30f-0x310 (1)
0x310|06                                             |.               |      [136]: 6 transition_type 0x310-0x311 (1)
0x310|   05                                          | .              |      [137]: 5 transition_type 0x311-0x312 (1)
0x310|      06                                       |  .             |      [138]: 6 transition_type 0x312-0x313 (1)
0x310|         05                                    |   .            |      [139]: 5 transition_type 0x313-0x314 (1)
0x310|            06                                 |    .           |      [140]: 6 transition_type 0x314-0x315 (1)
0x310|               05                              |     .          |      [141]: 5 transition_type 0x315-0x316 (1)
0x310|                  06                           |      .         |      [142]: 6 transition_type 0x316-0x317 (1)
0x310|                     05                        |       .        |      [143]: 5 transition_type 0x317-0x318 (1)
0x310|                        06                     |        .       |      [144]: 6 transition_type 0x318-0x319 (1)
0x310|                           05                  |         .      |      [145]: 5 transition_type 0x319-0x31a (1)
0x310|                              06               |          .     |      [146]: 6 transition_type 0x31a-0x31b (1)
0x310|                                 05            |           .    |      [147]: 5 transition_type 0x31b-0x31c (1)
0x310|                                    06         |            .   |      [148]: 6 transition_type 0x31c-0x31d (1)
0x310|                                       05      |             .  |      [149]: 5 transition_type 0x31d-0x31e (1)
0x310|                                          06   |              . |      [150]: 6 transition_type 0x31e-0x31f (1)
     |                                               |                |    local_time_type_records[0:7]: 0x31f-0x349 (42)
     |                                               |                |      [0]{}: local_time_type 0x31f-0x325 (6)
0x310|                                             00|               .|        utoff: 4580 (valid) 0x31f-0x323 (4)
0x320|00 11 e4                                       |...             |
0x320|         00                                    |   .            |        dst: 0 (valid) 0x323-0x324 (1)
0x320|            00                                 |    .           |        idx: 0 (valid) 0x324-0x325 (1)
     |                                               |                |      [1]{}: local_time_type 0x325-0x32b (6)
0x320|               00 00 1c 20                     |     ...        |        utoff: 7200 (valid) 0x325-0x329 (4)
0x320|                           01                  |         .      |        dst: 1 (valid) 0x329-0x32a (1)
0x320|                              04               |          .     |        idx: 4 (valid) 0x32a-0x32b (1)
     |                                               |                |      [2]{}: local_time_type 0x32b-0x331 (6)
0x320|                                 00 00 0e 10   |           .... |        utoff: 3600 (valid) 0x32b-0x32f (4)
0x320|                                             00|               .|        dst: 0 (valid) 0x32f-0x330 (1)
0x330|09                                             |.               |        idx: 9 (valid) 0x330-0x331 (1)
     |                                               |                |      [3]{}: local_time_type 0x331-0x337 (6)
0x330|   00 00 1c 20                                 | ...            |        utoff: 7200 (valid) 0x331-0x335 (4)
0x330|               01                              |     .          |        dst: 1 (valid) 0x335-0x336 (1)
0x330|                  04                           |      .         |        idx: 4 (valid) 0x336-0x337 (1)
     |                                               |                |      [4]{}: local_time_type 0x337-0x33d (6)
0x330|                     00 00 0e 10               |       ....     |        utoff: 3600 (valid) 0x337-0x33b (4)
0x330|                                 00            |           .    |        dst: 0 (valid) 0x33b-0x33c (1)
0x330|                                    09         |            .   |        idx: 9 (valid) 0x33c-0x33d (1)
     |                                               |                |      [5]{}: local_time_type 0x33d-0x343 (6)
0x330|                                       00 00 1c|             ...|        utoff: 7200 (valid) 0x33d-0x341 (4)
0x340|20                                             |                |
0x340|   01                                          | .              |        dst: 1 (valid) 0x341-0x342 (1)
0x340|      04                                       |  .             |        idx: 4 (valid) 0x342-0x343 (1)
     |                                               |                |      [6]{}: local_time_type 0x343-0x349 (6)
0x340|         00 00 0e 10                           |   ....         |        utoff: 3600 (valid) 0x343-0x347 (4)
0x340|                     00                        |       .        |        dst: 0 (valid) 0x347-0x348 (1)
0x340|                        09                     |        .       |        idx: 9 (valid) 0x348-0x349 (1)
     |                                               |                |    time_zone_designations[0:3]: 0x349-0x356 (13)
0x340|                           4c 4d 54 00         |         LMT.   |      [0]: "LMT" time_zone_designation 0x349-0x34d (4)
0x340|                                       43 45 53|             CES|      [1]: "CEST" time_zone_designation 0x34d-0x352 (5)
0x350|54 00                                          |T.              |
0x350|      43 45 54 00                              |  CET.          |      [2]: "CET" time_zone_designation 0x352-0x356 (4)
     |                                               |                |    leap_second_records[0:0]: 0x356-0x356 (0)
     |                                               |                |    standard_wall_indicators[0:7]: 0x356-0x35d (7)
0x350|                  00                           |      .         |      [0]: 0 standard_wall_indicator (valid) 0x356-0x357 (1)
0x350|                     00                        |       .        |      [1]: 0 standard_wall_indicator (valid) 0x357-0x358 (1)
0x350|                        00                     |        .       |      [2]: 0 standard_wall_indicator (valid) 0x358-0x359 (1)
0x350|                           01                  |         .      |      [3]: 1 standard_wall_indicator (valid) 0x359-0x35a (1)
0x350|                              01               |          .     |      [4]: 1 standard_wall_indicator (valid) 0x35a-0x35b (1)
0x350|                                 01            |           .    |      [5]: 1 standard_wall_indicator (valid) 0x35b-0x35c (1)
0x350|                                    01         |            .   |      [6]: 1 standard_wall_indicator (valid) 0x35c-0x35d (1)
     |                                               |                |    ut_local_indicators[0:7]: 0x35d-0x364 (7)
0x350|                                       00      |             .  |      [0]: 0 ut_local_indicator (valid) 0x35d-0x35e (1)
0x350|                                          00   |              . |      [1]: 0 ut_local_indicator (valid) 0x35e-0x35f (1)
0x350|                                             00|               .|      [2]: 0 ut_local_indicator (valid) 0x35f-0x360 (1)
0x360|00                                             |.               |      [3]: 0 ut_local_indicator (valid) 0x360-0x361 (1)
0x360|   00                                          | .              |      [4]: 0 ut_local_indicator (valid) 0x361-0x362 (1)
0x360|      01                                       |  .             |      [5]: 1 ut_local_indicator (valid) 0x362-0x363 (1)
0x360|         01                                    |   .            |      [6]: 1 ut_local_indicator (valid) 0x363-0x364 (1)
     |                                               |                |  v2plusheader{}: 0x364-0x390 (44)
0x360|            54 5a 69 66                        |    TZif        |    magic: 0x545a6966 (valid) 0x364-0x368 (4)
0x360|                        32                     |        2       |    ver: "2" (0x32) (valid) 0x368-0x369 (1)
0x360|                           00 00 00 00 00 00 00|         .......|    reserved: raw bits 0x369-0x378 (15)
0x370|00 00 00 00 00 00 00 00                        |........        |
0x370|                        00 00 00 07            |        ....    |    isutcnt: 7 0x378-0x37c (4)
0x370|                                    00 00 00 07|            ....|    isstdcnt: 7 0x37c-0x380 (4)
0x380|00 00 00 00                                    |....            |    leapcnt: 0 0x380-0x384 (4)
0x380|            00 00 00 97                        |    ....        |    timecnt: 151 0x384-0x388 (4)
0x380|                        00 00 00 07            |        ....    |    typecnt: 7 0x388-0x38c (4)
0x380|                                    00 00 00 0d|            ....|    charcnt: 13 0x38c-0x390 (4)
     |                                               |                |  v2plusdatablock{}: 0x390-0x924 (1428)
     |                                               |                |    transition_times[0:151]: 0x390-0x848 (1208)
0x390|ff ff ff ff 6b 17 91 9c                        |....k...        |      [0]: "1890-10-31T22:43:40Z" (-2498260580) transition_time 0x390-0x398 (8)
0x390|                        ff ff ff ff 9b 0c 17 60|        .......`|      [1]: "1916-04-30T22:00:00Z" (-1693706400) transition_time 0x398-0x3a0 (8)
0x3a0|ff ff ff ff 9b d5 da f0                        |........        |      [2]: "1916-09-30T23:00:00Z" (-1680483600) transition_time 0x3a0-0x3a8 (8)
0x3a0|                        ff ff ff ff 9c d9 ae 90|        ........|      [3]: "1917-04-16T01:00:00Z" (-1663455600) transition_time 0x3a8-0x3b0 (8)
0x3b0|ff ff ff ff 9d a4 b5 90                        |........        |      [4]: "1917-09-17T01:00:00Z" (-1650150000) transition_time 0x3b0-0x3b8 (8)
0x3b0|                        ff ff ff ff 9e b9 90 90|        ........|      [5]: "1918-04-15T01:00:00Z" (-1632006000) transition_time 0x3b8-0x3c0 (8)
0x3c0|ff ff ff ff 9f 84 97 90                        |........        |      [6]: "1918-09-16T01:00:00Z" (-1618700400) transition_time 0x3c0-0x3c8 (8)
0x3c0|                        ff ff ff ff a0 9a c4 10|        ........|      [7]: "1919-04-15T01:00:00Z" (-1600470000) transition_time 0x3c8-0x3d0 (8)
0x3d0|ff ff ff ff a1 64 79 90                        |.....dy.        |      [8]: "1919-09-15T01:00:00Z" (-1587250800) transition_time 0x3d0-0x3d8 (8)
0x3d0|                        ff ff ff ff a2 70 1a 10|        .....p..|      [9]: "1920-04-05T01:00:00Z" (-1569711600) transition_time 0x3d8-0x3e0 (8)
0x3e0|ff ff ff ff a3 4d 96 10                        |.....M..        |      [10]: "1920-09-20T01:00:00Z" (-1555196400) transition_time 0x3e0-0x3e8 (8)
0x3e0|                        ff ff ff ff c9 f3 b5 60|        .......`|      [11]: "1941-04-07T22:00:00Z" (-906775200) transition_time 0x3e8-0x3f0 (8)
0x3f0|ff ff ff ff cc e7 4b 10                        |......K.        |      [12]: "1942-11-02T01:00:00Z" (-857257200) transition_time 0x3f0-0x3f8 (8)
0x3f0|                        ff ff ff ff cd a9 17 90|        ........|      [13]: "1943-03-29T01:00:00Z" (-844556400) transition_time 0x3f8-0x400 (8)
0x400|ff ff ff ff ce a2 43 10                        |......C.        |      [14]: "1943-10-04T01:00:00Z" (-828226800) transition_time 0x400-0x408 (8)
0x400|                        ff ff ff ff cf 92 34 10|        ......4.|      [15]: "1944-04-03T01:00:00Z" (-812502000) transition_time 0x408-0x410 (8)
0x410|ff ff ff ff d0 82 25 10                        |......%.        |      [16]: "1944-10-02T01:00:00Z" (-796777200) transition_time 0x410-0x418 (8)
0x410|                        ff ff ff ff d1 99 78 e0|        ......x.|      [17]: "1945-05-01T22:00:00Z" (-778471200) transition_time 0x418-0x420 (8)
0x420|ff ff ff ff d2 8a c9 70                        |.......p        |      [18]: "1945-10-31T23:00:00Z" (-762656400) transition_time 0x420-0x428 (8)
0x420|                        ff ff ff ff d3 50 a6 90|        .....P..|      [19]: "1946-03-31T01:00:00Z" (-749689200) transition_time 0x428-0x430 (8)
0x430|ff ff ff ff d4 4b 15 80                        |.....K..        |      [20]: "1946-10-07T00:00:00Z" (-733276800) transition_time 0x430-0x438 (8)
0x430|                        ff ff ff ff d5 39 c3 10|        .....9..|      [21]: "1947-04-06T01:00:00Z" (-717634800) transition_time 0x438-0x440 (8)
0x440|ff ff ff ff d6 29 b4 10                        |.....)..        |      [22]: "1947-10-05T01:00:00Z" (-701910000) transition_time 0x440-0x448 (8)
0x440|                        ff ff ff ff d7 19 a5 10|        ........|      [23]: "1948-04-04T01:00:00Z" (-686185200) transition_time 0x448-0x450 (8)
0x450|ff ff ff ff d8 09 96 10                        |........        |      [24]: "1948-10-03T01:00:00Z" (-670460400) transition_time 0x450-0x458 (8)
0x450|                        ff ff ff ff d9 02 c1 90|        ........|      [25]: "1949-04-10T01:00:00Z" (-654130800) transition_time 0x458-0x460 (8)
0x460|ff ff ff ff d9 e9 78 10                        |......x.        |      [26]: "1949-10-02T01:00:00Z" (-639010800) transition_time 0x460-0x468 (8)
0x460|                        ff ff ff ff e2 a2 a8 f0|        ........|      [27]: "1954-05-22T23:00:00Z" (-492656400) transition_time 0x468-0x470 (8)
0x470|ff ff ff ff e3 51 f2 60                        |.....Q.`        |      [28]: "1954-10-02T22:00:00Z" (-481168800) transition_time 0x470-0x478 (8)
0x470|                        ff ff ff ff e4 82 a7 10|        ........|      [29]: "1955-05-22T01:00:00Z" (-461199600) transition_time 0x478-0x480 (8)
0x480|ff ff ff ff e5 31 fe 90                        |.....1..        |      [30]: "1955-10-02T01:00:00Z" (-449708400) transition_time 0x480-0x488 (8)
0x480|                        ff ff ff ff e6 74 fe 10|        .....t..|      [31]: "1956-06-03T01:00:00Z" (-428540400) transition_time 0x488-0x490 (8)
0x490|ff ff ff ff e7 11 e0 90                        |........        |      [32]: "1956-09-30T01:00:00Z" (-418258800) transition_time 0x490-0x498 (8)
0x490|                        ff ff ff ff e8 54 e0 10|        .....T..|      [33]: "1957-06-02T01:00:00Z" (-397090800) transition_time 0x498-0x4a0 (8)
0x4a0|ff ff ff ff e8 f1 c2 90                        |........        |      [34]: "1957-09-29T01:00:00Z" (-386809200) transition_time 0x4a0-0x4a8 (8)
0x4a0|                        00 00 00 00 13 4d 27 f0|        .....M'.|      [35]: "1980-04-05T23:00:00Z" (323823600) transition_time 0x4a8-0x4b0 (8)
0x4b0|00 00 00 00 14 33 de 70                        |.....3.p        |      [36]: "1980-09-27T23:00:00Z" (338943600) transition_time 0x4b0-0x4b8 (8)
0x4b0|                        00 00 00 00 15 23 cf 70|        .....#.p|      [37]: "1981-03-28T23:00:00Z" (354668400) transition_time 0x4b8-0x4c0 (8)
0x4c0|00 00 00 00 16 13 c0 70                        |.......p        |      [38]: "1981-09-26T23:00:00Z" (370393200) transition_time 0x4c0-0x4c8 (8)
0x4c0|                        00 00 00 00 17 03 b1 70|        .......p|      [39]: "1982-03-27T23:00:00Z" (386118000) transition_time 0x4c8-0x4d0 (8)
0x4d0|00 00 00 00 17 f3 a2 70                        |.......p        |      [40]: "1982-09-25T23:00:00Z" (401842800) transition_time 0x4d0-0x4d8 (8)
0x4d0|                        00 00 00 00 18 e3 93 70|        .......p|      [41]: "1983-03-26T23:00:00Z" (417567600) transition_time 0x4d8-0x4e0 (8)
0x4e0|00 00 00 00 19 d3 84 70                        |.......p        |      [42]: "1983-09-24T23:00:00Z" (433292400) transition_time 0x4e0-0x4e8 (8)
0x4e0|                        00 00 00 00 1a c3 91 90|        ........|      [43]: "1984-03-25T01:00:00Z" (449024400) transition_time 0x4e8-0x4f0 (8)
0x4f0|00 00 00 00 1b bc bd 10                        |........        |      [44]: "1984-09-30T01:00:00Z" (465354000) transition_time 0x4f0-0x4f8 (8)
0x4f0|                        00 00 00 00 1c ac ae 10|        ........|      [45]: "1985-03-31T01:00:00Z" (481078800) transition_time 0x4f8-0x500 (8)
0x500|00 00 00 00 1d 9c 9f 10                        |........        |      [46]: "1985-09-29T01:00:00Z" (496803600) transition_time 0x500-0x508 (8)
0x500|                        00 00 00 00 1e 8c 90 10|        ........|      [47]: "1986-03-30T01:00:00Z" (512528400) transition_time 0x508-0x510 (8)
0x510|00 00 00 00 1f 7c 81 10                        |.....|..        |      [48]: "1986-09-28T01:00:00Z" (528253200) transition_time 0x510-0x518 (8)
0x510|                        00 00 00 00 20 6c 72 10|        .... lr.|      [49]: "1987-03-29T01:00:00Z" (543978000) transition_time 0x518-0x520 (8)
0x520|00 00 00 00 21 5c 63 10                        |....!\c.        |      [50]: "1987-09-27T01:00:00Z" (559702800) transition_time 0x520-0x528 (8)
0x520|                        00 00 00 00 22 4c 54 10|        ...."LT.|      [51]: "1988-03-27T01:00:00Z" (575427600) transition_time 0x528-0x530 (8)
0x530|00 00 00 00 23 3c 45 10                        |....#<E.        |      [52]: "1988-09-25T01:00:00Z" (591152400) transition_time 0x530-0x538 (8)
0x530|                        00 00 00 00 24 2c 36 10|        ....$,6.|      [53]: "1989-03-26T01:00:00Z" (606877200) transition_time 0x538-0x540 (8)
0x540|00 00 00 00 25 1c 27 10                        |....%.'.        |      [54]: "1989-09-24T01:00:00Z" (622602000) transition_time 0x540-0x548 (8)
0x540|                        00 00 00 00 26 0c 18 10|        ....&...|      [55]: "1990-03-25T01:00:00Z" (638326800) transition_time 0x548-0x550 (8)
0x550|00 00 00 00 27 05 43 90                        |....'.C.        |      [56]: "1990-09-30T01:00:00Z" (654656400) transition_time 0x550-0x558 (8)
0x550|                        00 00 00 00 27 f5 34 90|        ....'.4.|      [57]: "1991-03-31T01:00:00Z" (670381200) transition_time 0x558-0x560 (8)
0x560|00 00 00 00 28 e5 25 90                        |....(.%.        |      [58]: "1991-09-29T01:00:00Z" (686106000) transition_time 0x560-0x568 (8)
0x560|                        00 00 00 00 29 d5 16 90|        ....)...|      [59]: "1992-03-29T01:00:00Z" (701830800) transition_time 0x568-0x570 (8)
0x570|00 00 00 00 2a c5 07 90                        |....*...        |      [60]: "1992-09-27T01:00:00Z" (717555600) transition_time 0x570-0x578 (8)
0x570|                        00 00 00 00 2b b4 f8 90|        ....+...|      [61]: "1993-03-28T01:00:00Z" (733280400) transition_time 0x578-0x580 (8)
0x580|00 00 00 00 2c a4 e9 90                        |....,...        |      [62]: "1993-09-26T01:00:00Z" (749005200) transition_time 0x580-0x588 (8)
0x580|                        00 00 00 00 2d 94 da 90|        ....-...|      [63]: "1994-03-27T01:00:00Z" (764730000) transition_time 0x588-0x590 (8)
0x590|00 00 00 00 2e 84 cb 90                        |........        |      [64]: "1994-09-25T01:00:00Z" (780454800) transition_time 0x590-0x598 (8)
0x590|                        00 00 00 00 2f 74 bc 90|        ..../t..|      [65]: "1995-03-26T01:00:00Z" (796179600) transition_time 0x598-0x5a0 (8)
0x5a0|00 00 00 00 30 64 ad 90                        |....0d..        |      [66]: "1995-09-24T01:00:00Z" (811904400) transition_time 0x5a0-0x5a8 (8)
0x5a0|                        00 00 00 00 31 5d d9 10|        ....1]..|      [67]: "1996-03-31T01:00:00Z" (828234000) transition_time 0x5a8-0x5b0 (8)
0x5b0|00 00 00 00 32 72 b4 10                        |....2r..        |      [68]: "1996-10-27T01:00:00Z" (846378000) transition_time 0x5b0-0x5b8 (8)
0x5b0|                        00 00 00 00 33 3d bb 10|        ....3=..|      [69]: "1997-03-30T01:00:00Z" (859683600) transition_time 0x5b8-0x5c0 (8)
0x5c0|00 00 00 00 34 52 96 10                        |....4R..        |      [70]: "1997-10-26T01:00:00Z" (877827600) transition_time 0x5c0-0x5c8 (8)
0x5c0|                        00 00 00 00 35 1d 9d 10|        ....5...|      [71]: "1998-03-29T01:00:00Z" (891133200) transition_time 0x5c8-0x5d0 (8)
0x5d0|00 00 00 00 36 32 78 10                        |....62x.        |      [72]: "1998-10-25T01:00:00Z" (909277200) transition_time 0x5d0-0x5d8 (8)
0x5d0|                        00 00 00 00 36 fd 7f 10|        ....6...|      [73]: "1999-03-28T01:00:00Z" (922582800) transition_time 0x5d8-0x5e0 (8)
0x5e0|00 00 00 00 38 1b 94 90                        |....8...        |      [74]: "1999-10-31T01:00:00Z" (941331600) transition_time 0x5e0-0x5e8 (8)
0x5e0|                        00 00 00 00 38 dd 61 10|        ....8.a.|      [75]: "2000-03-26T01:00:00Z" (954032400) transition_time 0x5e8-0x5f0 (8)
0x5f0|00 00 00 00 39 fb 76 90                        |....9.v.        |      [76]: "2000-10-29T01:00:00Z" (972781200) transition_time 0x5f0-0x5f8 (8)
0x5f0|                        00 00 00 00 3a bd 43 10|        ....:.C.|      [77]: "2001-03-25T01:00:00Z" (985482000) transition_time 0x5f8-0x600 (8)
0x600|00 00 00 00 3b db 58 90                        |....;.X.        |      [78]: "2001-10-28T01:00:00Z" (1004230800) transition_time 0x600-0x608 (8)
0x600|                        00 00 00 00 3c a6 5f 90|        ....<._.|      [79]: "2002-03-31T01:00:00Z" (1017536400) transition_time 0x608-0x610 (8)
0x610|00 00 00 00 3d bb 3a 90                        |....=.:.        |      [80]: "2002-10-27T01:00:00Z" (1035680400) transition_time 0x610-0x618 (8)
0x610|                        00 00 00 00 3e 86 41 90|        ....>.A.|      [81]: "2003-03-30T01:00:00Z" (1048986000) transition_time 0x618-0x620 (8)
0x620|00 00 00 00 3f 9b 1c 90                        |....?...        |      [82]: "2003-10-26T01:00:00Z" (1067130000) transition_time 0x620-0x628 (8)
0x620|                        00 00 00 00 40 66 23 90|        ....@f#.|      [83]: "2004-03-28T01:00:00Z" (1080435600) transition_time 0x628-0x630 (8)
0x630|00 00 00 00 41 84 39 10                        |....A.9.        |      [84]: "2004-10-31T01:00:00Z" (1099184400) transition_time 0x630-0x638 (8)
0x630|                        00 00 00 00 42 46 05 90|        ....BF..|      [85]: "2005-03-27T01:00:00Z" (1111885200) transition_time 0x638-0x640 (8)
0x640|00 00 00 00 43 64 1b 10                        |....Cd..        |      [86]: "2005-10-30T01:00:00Z" (1130634000) transition_time 0x640-0x648 (8)
0x640|                        00 00 00 00 44 25 e7 90|        ....D%..|      [87]: "2006-03-26T01:00:00Z" (1143334800) transition_time 0x648-0x650 (8)
0x650|00 00 00 00 45 43 fd 10                        |....EC..        |      [88]: "2006-10-29T01:00:00Z" (1162083600) transition_time 0x650-0x658 (8)
0x650|                        00 00 00 00 46 05 c9 90|        ....F...|      [89]: "2007-03-25T01:00:00Z" (1174784400) transition_time 0x658-0x660 (8)
0x660|00 00 00 00 47 23 df 10                        |....G#..        |      [90]: "2007-10-28T01:00:00Z" (1193533200) transition_time 0x660-0x668 (8)
0x660|                        00 00 00 00 47 ee e6 10|        ....G...|      [91]: "2008-03-30T01:00:00Z" (1206838800) transition_time 0x668-0x670 (8)
0x670|00 00 00 00 49 03 c1 10                        |....I...        |      [92]: "2008-10-26T01:00:00Z" (1224982800) transition_time 0x670-0x678 (8)
0x670|                        00 00 00 00 49 ce c8 10|        ....I...|      [93]: "2009-03-29T01:00:00Z" (1238288400) transition_time 0x678-0x680 (8)
0x680|00 00 00 00 4a e3 a3 10                        |....J...        |      [94]: "2009-10-25T01:00:00Z" (1256432400) transition_time 0x680-0x688 (8)
0x680|                        00 00 00 00 4b ae aa 10|        ....K...|      [95]: "2010-03-28T01:00:00Z" (1269738000) transition_time 0x688-0x690 (8)
0x690|00 00 00 00 4c cc bf 90                        |....L...        |      [96]: "2010-10-31T01:00:00Z" (1288486800) transition_time 0x690-0x698 (8)
0x690|                        00 00 00 00 4d 8e 8c 10|        ....M...|      [97]: "2011-03-27T01:00:00Z" (1301187600) transition_time 0x698-0x6a0 (8)
0x6a0|00 00 00 00 4e ac a1 90                        |....N...        |      [98]: "2011-10-30T01:00:00Z" (1319936400) transition_time 0x6a0-0x6a8 (8)
0x6a0|                        00 00 00 00 4f 6e 6e 10|        ....Onn.|      [99]: "2012-03-25T01:00:00Z" (1332637200) transition_time 0x6a8-0x6b0 (8)
0x6b0|00 00 00 00 50 8c 83 90                        |....P...        |      [100]: "2012-10-28T01:00:00Z" (1351386000) transition_time 0x6b0-0x6b8 (8)
0x6b0|                        00 00 00 00 51 57 8a 90|        ....QW..|      [101]: "2013-03-31T01:00:00Z" (1364691600) transition_time 0x6b8-0x6c0 (8)
0x6c0|00 00 00 00 52 6c 65 90                        |....Rle.        |      [102]: "2013-10-27T01:00:00Z" (1382835600) transition_time 0x6c0-0x6c8 (8)
0x6c0|                        00 00 00 00 53 37 6c 90|        ....S7l.|      [103]: "2014-03-30T01:00:00Z" (1396141200) transition_time 0x6c8-0x6d0 (8)
0x6d0|00 00 00 00 54 4c 47 90                        |....TLG.        |      [104]: "2014-10-26T01:00:00Z" (1414285200) transition_time 0x6d0-0x6d8 (8)
0x6d0|                        00 00 00 00 55 17 4e 90|        ....U.N.|      [105]: "2015-03-29T01:00:00Z" (1427590800) transition_time 0x6d8-0x6e0 (8)
0x6e0|00 00 00 00 56 2c 29 90                        |....V,).        |      [106]: "2015-10-25T01:00:00Z" (1445734800) transition_time 0x6e0-0x6e8 (8)
0x6e0|                        00 00 00 00 56 f7 30 90|        ....V.0.|      [107]: "2016-03-27T01:00:00Z" (1459040400) transition_time 0x6e8-0x6f0 (8)
0x6f0|00 00 00 00 58 15 46 10                        |....X.F.        |      [108]: "2016-10-30T01:00:00Z" (1477789200) transition_time 0x6f0-0x6f8 (8)
0x6f0|                        00 00 00 00 58 d7 12 90|        ....X...|      [109]: "2017-03-26T01:00:00Z" (1490490000) transition_time 0x6f8-0x700 (8)
0x700|00 00 00 00 59 f5 28 10                        |....Y.(.        |      [110]: "2017-10-29T01:00:00Z" (1509238800) transition_time 0x700-0x708 (8)
0x700|                        00 00 00 00 5a b6 f4 90|        ....Z...|      [111]: "2018-03-25T01:00:00Z" (1521939600) transition_time 0x708-0x710 (8)
0x710|00 00 00 00 5b d5 0a 10                        |....[...        |      [112]: "2018-10-28T01:00:00Z" (1540688400) transition_time 0x710-0x718 (8)
0x710|                        00 00 00 00 5c a0 11 10|        ....\...|      [113]: "2019-03-31T01:00:00Z" (1553994000) transition_time 0x718-0x720 (8)
0x720|00 00 00 00 5d b4 ec 10                        |....]...        |      [114]: "2019-10-27T01:00:00Z" (1572138000) transition_time 0x720-0x728 (8)
0x720|                        00 00 00 00 5e 7f f3 10|        ....^...|      [115]: "2020-03-29T01:00:00Z" (1585443600) transition_time 0x728-0x730 (8)
0x730|00 00 00 00 5f 94 ce 10                        |...._...        |      [116]: "2020-10-25T01:00:00Z" (1603587600) transition_time 0x730-0x738 (8)
0x730|                        00 00 00 00 60 5f d5 10|        ....`_..|      [117]: "2021-03-28T01:00:00Z" (1616893200) transition_time 0x738-0x740 (8)
0x740|00 00 00 00 61 7d ea 90                        |....a}..        |      [118]: "2021-10-31T01:00:00Z" (1635642000) transition_time 0x740-0x748 (8)
0x740|                        00 00 00 00 62 3f b7 10|        ....b?..|      [119]: "2022-03-27T01:00:00Z" (1648342800) transition_time 0x748-0x750 (8)
0x750|00 00 00 00 63 5d cc 90                        |....c]..        |      [120]: "2022-10-30T01:00:00Z" (1667091600) transition_time 0x750-0x758 (8)
0x750|                        00 00 00 00 64 1f 99 10|        ....d...|      [121]: "2023-03-26T01:00:00Z" (1679792400) transition_time 0x758-0x760 (8)
0x760|00 00 00 00 65 3d ae 90                        |....e=..        |      [122]: "2023-10-29T01:00:00Z" (1698541200) transition_time 0x760-0x768 (8)
0x760|                        00 00 00 00 66 08 b5 90|        ....f...|      [123]: "2024-03-31T01:00:00Z" (1711846800) transition_time 0x768-0x770 (8)
0x770|00 00 00 00 67 1d 90 90                        |....g...        |      [124]: "2024-10-27T01:00:00Z" (1729990800) transition_time 0x770-0x778 (8)
0x770|                        00 00 00 00 67 e8 97 90|        ....g...|      [125]: "2025-03-30T01:00:00Z" (1743296400) transition_time 0x778-0x780 (8)
0x780|00 00 00 00 68 fd 72 90                        |....h.r.        |      [126]: "2025-10-26T01:00:00Z" (1761440400) transition_time 0x780-0x788 (8)
0x780|                        00 00 00 00 69 c8 79 90|        ....i.y.|      [127]: "2026-03-29T01:00:00Z" (1774746000) transition_time 0x788-0x790 (8)
0x790|00 00 00 00 6a dd 54 90                        |....j.T.        |      [128]: "2026-10-25T01:00:00Z" (1792890000) transition_time 0x790-0x798 (8)
0x790|                        00 00 00 00 6b a8 5b 90|        ....k.[.|      [129]: "2027-03-28T01:00:00Z" (1806195600) transition_time 0x798-0x7a0 (8)
0x7a0|00 00 00 00 6c c6 71 10                        |....l.q.        |      [130]: "2027-10-31T01:00:00Z" (1824944400) transition_time 0x7a0-0x7a8 (8)
0x7a0|                        00 00 00 00 6d 88 3d 90|        ....m.=.|      [131]: "2028-03-26T01:00:00Z" (1837645200) transition_time 0x7a8-0x7b0 (8)
0x7b0|00 00 00 00 6e a6 53 10                        |....n.S.        |      [132]: "2028-10-29T01:00:00Z" (1856394000) transition_time 0x7b0-0x7b8 (8)
0x7b0|                        00 00 00 00 6f 68 1f 90|        ....oh..|      [133]: "2029-03-25T01:00:00Z" (1869094800) transition_time 0x7b8-0x7c0 (8)
0x7c0|00 00 00 00 70 86 35 10                        |....p.5.        |      [134]: "2029-10-28T01:00:00Z" (1887843600) transition_time 0x7c0-0x7c8 (8)
0x7c0|                        00 00 00 00 71 51 3c 10|        ....qQ<.|      [135]: "2030-03-31T01:00:00Z" (1901149200) transition_time 0x7c8-0x7d0 (8)
0x7d0|00 00 00 00 72 66 17 10                        |....rf..        |      [136]: "2030-10-27T01:00:00Z" (1919293200) transition_time 0x7d0-0x7d8 (8)
0x7d0|                        00 00 00 00 73 31 1e 10|        ....s1..|      [137]: "2031-03-30T01:00:00Z" (1932598800) transition_time 0x7d8-0x7e0 (8)
0x7e0|00 00 00 00 74 45 f9 10                        |....tE..        |      [138]: "2031-10-26T01:00:00Z" (1950742800) transition_time 0x7e0-0x7e8 (8)
0x7e0|                        00 00 00 00 75 11 00 10|        ....u...|      [139]: "2032-03-28T01:00:00Z" (1964048400) transition_time 0x7e8-0x7f0 (8)
0x7f0|00 00 00 00 76 2f 15 90                        |....v/..        |      [140]: "2032-10-31T01:00:00Z" (1982797200) transition_time 0x7f0-0x7f8 (8)
0x7f0|                        00 00 00 00 76 f0 e2 10|        ....v...|      [141]: "2033-03-27T01:00:00Z" (1995498000) transition_time 0x7f8-0x800 (8)
0x800|00 00 00 00 78 0e f7 90                        |....x...        |      [142]: "2033-10-30T01:00:00Z" (2014246800) transition_time 0x800-0x808 (8)
0x800|                        00 00 00 00 78 d0 c4 10|        ....x...|      [143]: "2034-03-26T01:00:00Z" (2026947600) transition_time 0x808-0x810 (8)
0x810|00 00 00 00 79 ee d9 90                        |....y...        |      [144]: "2034-10-29T01:00:00Z" (2045696400) transition_time 0x810-0x818 (8)
0x810|                        00 00 00 00 7a b0 a6 10|        ....z...|      [145]: "2035-03-25T01:00:00Z" (2058397200) transition_time 0x818-0x820 (8)
0x820|00 00 00 00 7b ce bb 90                        |....{...        |      [146]: "2035-10-28T01:00:00Z" (2077146000) transition_time 0x820-0x828 (8)
0x820|                        00 00 00 00 7c 99 c2 90|        ....|...|      [147]: "2036-03-30T01:00:00Z" (2090451600) transition_time 0x828-0x830 (8)
0x830|00 00 00 00 7d ae 9d 90                        |....}...        |      [148]: "2036-10-26T01:00:00Z" (2108595600) transition_time 0x830-0x838 (8)
0x830|                        00 00 00 00 7e 79 a4 90|        ....~y..|      [149]: "2037-03-29T01:00:00Z" (2121901200) transition_time 0x838-0x840 (8)
0x840|00 00 00 00 7f 8e 7f 90                        |........        |      [150]: "2037-10-25T01:00:00Z" (2140045200) transition_time 0x840-0x848 (8)
     |                                               |                |    transition_types[0:151]: 0x848-0x8df (151)
0x840|                        02                     |        .       |      [0]: 2 transition_type 0x848-0x849 (1)
0x840|                           01                  |         .      |      [1]: 1 transition_type 0x849-0x84a (1)
0x840|                              02               |          .     |      [2]: 2 transition_type 0x84a-0x84b (1)
0x840|                                 03            |           .    |      [3]: 3 transition_type 0x84b-0x84c (1)
0x840|                                    04         |            .   |      [4]: 4 transition_type 0x84c-0x84d (1)
0x840|                                       01      |             .  |      [5]: 1 transition_type 0x84d-0x84e (1)
0x840|                                          02   |              . |      [6]: 2 transition_type 0x84e-0x84f (1)
0x840|                                             01|               .|      [7]: 1 transition_type 0x84f-0x850 (1)
0x850|02                                             |.               |      [8]: 2 transition_type 0x850-0x851 (1)
0x850|   01                                          | .              |      [9]: 1 transition_type 0x851-0x852 (1)
0x850|      02                                       |  .             |      [10]: 2 transition_type 0x852-0x853 (1)
0x850|         01                                    |   .            |      [11]: 1 transition_type 0x853-0x854 (1)
0x850|            04                                 |    .           |      [12]: 4 transition_type 0x854-0x855 (1)
0x850|               03                              |     .          |      [13]: 3 transition_type 0x855-0x856 (1)
0x850|                  04                           |      .         |      [14]: 4 transition_type 0x856-0x857 (1)
0x850|                     03                        |       .        |      [15]: 3 transition_type 0x857-0x858 (1)
0x850|                        04                     |        .       |      [16]: 4 transition_type 0x858-0x859 (1)
0x850|                           01                  |         .      |      [17]: 1 transition_type 0x859-0x85a (1)
0x850|                              02               |          .     |      [18]: 2 transition_type 0x85a-0x85b (1)
0x850|                                 03            |           .    |      [19]: 3 transition_type 0x85b-0x85c (1)
0x850|                                    02         |            .   |      [20]: 2 transition_type 0x85c-0x85d (1)
0x850|                                       03      |             .  |      [21]: 3 transition_type 0x85d-0x85e (1)
0x850|                                          04   |              . |      [22]: 4 transition_type 0x85e-0x85f (1)
0x850|                                             03|               .|      [23]: 3 transition_type 0x85f-0x860 (1)
0x860|04                                             |.               |      [24]: 4 transition_type 0x860-0x861 (1)
0x860|   03                                          | .              |      [25]: 3 transition_type 0x861-0x862 (1)
0x860|      04                                       |  .             |      [26]: 4 transition_type 0x862-0x863 (1)
0x860|         01                                    |   .            |      [27]: 1 transition_type 0x863-0x864 (1)
0x860|            02                                 |    .           |      [28]: 2 transition_type 0x864-0x865 (1)
0x860|               01                              |     .          |      [29]: 1 transition_type 0x865-0x866 (1)
0x860|                  02                           |      .         |      [30]: 2 transition_type 0x866-0x867 (1)
0x860|                     01                        |       .        |      [31]: 1 transition_type 0x867-0x868 (1)
0x860|                        02                     |        .       |      [32]: 2 transition_type 0x868-0x869 (1)
0x860|                           01                  |         .      |      [33]: 1 transition_type 0x869-0x86a (1)
0x860|                              02               |          .     |      [34]: 2 transition_type 0x86a-0x86b (1)
0x860|                                 01            |           .    |      [35]: 1 transition_type 0x86b-0x86c (1)
0x860|                                    02         |            .   |      [36]: 2 transition_type 0x86c-0x86d (1)
0x860|                                       01      |             .  |      [37]: 1 transition_type 0x86d-0x86e (1)
0x860|                                          02   |              . |      [38]: 2 transition_type 0x86e-0x86f (1)
0x860|                                             01|               .|      [39]: 1 transition_type 0x86f-0x870 (1)
0x870|02                                             |.               |      [40]: 2 transition_type 0x870-0x871 (1)
0x870|   01                                          | .              |      [41]: 1 transition_type 0x871-0x872 (1)
0x870|      02                                       |  .             |      [42]: 2 transition_type 0x872-0x873 (1)
0x870|         05                                    |   .            |      [43]: 5 transition_type 0x873-0x874 (1)
0x870|            06                                 |    .           |      [44]: 6 transition_type 0x874-0x875 (1)
0x870|               05                              |     .          |      [45]: 5 transition_type 0x875-0x876 (1)
0x870|                  06                           |      .         |      [46]: 6 transition_type 0x876-0x877 (1)
0x870|                     05                        |       .        |      [47]: 5 transition_type 0x877-0x878 (1)
0x870|                        06                     |        .       |      [48]: 6 transition_type 0x878-0x879 (1)
0x870|                           05                  |         .      |      [49]: 5 transition_type 0x879-0x87a (1)
0x870|                              06               |          .     |      [50]: 6 transition_type 0x87a-0x87b (1)
0x870|                                 05            |           .    |      [51]: 5 transition_type 0x87b-0x87c (1)
0x870|                                    06         |            .   |      [52]: 6 transition_type 0x87c-0x87d (1)
0x870|                                       05      |             .  |      [53]: 5 transition_type 0x87d-0x87e (1)
0x870|                                          06   |              . |      [54]: 6 transition_type 0x87e-0x87f (1)
0x870|                                             05|               .|      [55]: 5 transition_type 0x87f-0x880 (1)
0x880|06                                             |.               |      [56]: 6 transition_type 0x880-0x881 (1)
0x880|   05                                          | .              |      [57]: 5 transition_type 0x881-0x882 (1)
0x880|      06                                       |  .             |      [58]: 6 transition_type 0x882-0x883 (1)
0x880|         05                                    |   .            |      [59]: 5 transition_type 0x883-0x884 (1)
0x880|            06                                 |    .           |      [60]: 6 transition_type 0x884-0x885 (1)
0x880|               05                              |     .          |      [61]: 5 transition_type 0x885-0x886 (1)
0x880|                  06                           |      .         |      [62]: 6 transition_type 0x886-0x887 (1)
0x880|                     05                        |       .        |      [63]: 5 transition_type 0x887-0x888 (1)
0x880|                        06                     |        .       |      [64]: 6 transition_type 0x888-0x889 (1)
0x880|                           05                  |         .      |      [65]: 5 transition_type 0x889-0x88a (1)
0x880|                              06               |          .     |      [66]: 6 transition_type 0x88a-0x88b (1)
0x880|                                 05            |           .    |      [67]: 5 transition_type 0x88b-0x88c (1)
0x880|                                    06         |            .   |      [68]: 6 transition_type 0x88c-0x88d (1)
0x880|                                       05      |             .  |      [69]: 5 transition_type 0x88d-0x88e (1)
0x880|                                          06   |              . |      [70]: 6 transition_type 0x88e-0x88f (1)
0x880|                                             05|               .|      [71]: 5 transition_type 0x88f-0x890 (1)
0x890|06                                             |.               |      [72]: 6 transition_type 0x890-0x891 (1)
0x890|   05                                          | .              |      [73]: 5 transition_type 0x891-0x892 (1)
0x890|      06                                       |  .             |      [74]: 6 transition_type 0x892-0x893 (1)
0x890|         05                                    |   .            |      [75]: 5 transition_type 0x893-0x894 (1)
0x890|            06                                 |    .           |      [76]: 6 transition_type 0x894-0x895 (1)
0x890|               05                              |     .          |      [77]: 5 transition_type 0x895-0x896 (1)
0x890|                  06                           |      .         |      [78]: 6 transition_type 0x896-0x897 (1)
0x890|                     05                        |       .        |      [79]: 5 transition_type 0x897-0x898 (1)
0x890|                        06                     |        .       |      [80]: 6 transition_type 0x898-0x899 (1)
0x890|                           05                  |         .      |      [81]: 5 transition_type 0x899-0x89a (1)
0x890|                              06               |          .     |      [82]: 6 transition_type 0x89a-0x89b (1)
0x890|                                 05            |           .    |      [83]: 5 transition_type 0x89b-0x89c (1)
0x890|                                    06         |            .   |      [84]: 6 transition_type 0x89c-0x89d (1)
0x890|                                       05      |             .  |      [85]: 5 transition_type 0x89d-0x89e (1)
0x890|                                          06   |              . |      [86]: 6 transition_type 0x89e-0x89f (1)
0x890|                                             05|               .|      [87]: 5 transition_type 0x89f-0x8a0 (1)
0x8a0|06                                             |.               |      [88]: 6 transition_type 0x8a0-0x8a1 (1)
0x8a0|   05                                          | .              |      [89]: 5 transition_type 0x8a1-0x8a2 (1)
0x8a0|      06                                       |  .             |      [90]: 6 transition_type 0x8a2-0x8a3 (1)
0x8a0|         05                                    |   .            |      [91]: 5 transition_type 0x8a3-0x8a4 (1)
0x8a0|            06                                 |    .           |      [92]: 6 transition_type 0x8a4-0x8a5 (1)
0x8a0|               05                              |     .          |      [93]: 5 transition_type 0x8a5-0x8a6 (1)
0x8a0|                  06                           |      .         |      [94]: 6 transition_type 0x8a6-0x8a7 (1)
0x8a0|                     05                        |       .        |      [95]: 5 transition_type 0x8a7-0x8a8 (1)
0x8a0|                        06                     |        .       |      [96]: 6 transition_type 0x8a8-0x8a9 (1)
0x8a0|                           05                  |         .      |      [97]: 5 transition_type 0x8a9-0x8aa (1)
0x8a0|                              06               |          .     |      [98]: 6 transition_type 0x8aa-0x8ab (1)
0x8a0|                                 05            |           .    |      [99]: 5 transition_type 0x8ab-0x8ac (1)
0x8a0|                                    06         |            .   |      [100]: 6 transition_type 0x8ac-0x8ad (1)
0x8a0|                                       05      |             .  |      [101]: 5 transition_type 0x8ad-0x8ae (1)
0x8a0|                                          06   |              . |      [102]: 6 transition_type 0x8ae-0x8af (1)
0x8a0|                                             05|               .|      [103]: 5 transition_type 0x8af-0x8b0 (1)
0x8b0|06                                             |.               |      [104]: 6 transition_type 0x8b0-0x8b1 (1)
0x8b0|   05                                          | .              |      [105]: 5 transition_type 0x8b1-0x8b2 (1)
0x8b0|      06                                       |  .             |      [106]: 6 transition_type 0x8b2-0x8b3 (1)
0x8b0|         05                                    |   .            |      [107]: 5 transition_type 0x8b3-0x8b4 (1)
0x8b0|            06                                 |    .           |      [108]: 6 transition_type 0x8b4-0x8b5 (1)
0x8b0|               05                              |     .          |      [109]: 5 transition_type 0x8b5-0x8b6 (1)
0x8b0|                  06                           |      .         |      [110]: 6 transition_type 0x8b6-0x8b7 (1)
0x8b0|                     05                        |       .        |      [111]: 5 transition_type 0x8b7-0x8b8 (1)
0x8b0|                        06                     |        .       |      [112]: 6 transition_type 0x8b8-0x8b9 (1)
0x8b0|                           05                  |         .      |      [113]: 5 transition_type 0x8b9-0x8ba (1)
0x8b0|                              06               |          .     |      [114]: 6 transition_type 0x8ba-0x8bb (1)
0x8b0|                                 05            |           .    |      [115]: 5 transition_type 0x8bb-0x8bc (1)
0x8b0|                                    06         |            .   |      [116]: 6 transition_type 0x8bc-0x8bd (1)
0x8b0|                                       05      |             .  |      [117]: 5 transition_type 0x8bd-0x8be (1)
0x8b0|                                          06   |              . |      [118]: 6 transition_type 0x8be-0x8bf (1)
0x8b0|                                             05|               .|      [119]: 5 transition_type 0x8bf-0x8c0 (1)
0x8c0|06                                             |.               |      [120]: 6 transition_type 0x8c0-0x8c1 (1)
0x8c0|   05                                          | .              |      [121]: 5 transition_type 0x8c1-0x8c2 (1)
0x8c0|      06                                       |  .             |      [122]: 6 transition_type 0x8c2-0x8c3 (1)
0x8c0|         05                                    |   .            |      [123]: 5 transition_type 0x8c3-0x8c4 (1)
0x8c0|            06                                 |    .           |      [124]: 6 transition_type 0x8c4-0x8c5 (1)
0x8c0|               05                              |     .          |      [125]: 5 transition_type 0x8c5-0x8c6 (1)
0x8c0|                  06                           |      .         |      [126]: 6 transition_type 0x8c6-0x8c7 (1)
0x8c0|                     05                        |       .        |      [127]: 5 transition_type 0x8c7-0x8c8 (1)
0x8c0|                        06                     |        .       |      [128]: 6 transition_type 0x8c8-0x8c9 (1)
0x8c0|                           05                  |         .      |      [129]: 5 transition_type 0x8c9-0x8ca (1)
0x8c0|                              06               |          .     |      [130]: 6 transition_type 0x8ca-0x8cb (1)
0x8c0|                                 05            |           .    |      [131]: 5 transition_type 0x8cb-0x8cc (1)
0x8c0|                                    06         |            .   |      [132]: 6 transition_type 0x8cc-0x8cd (1)
0x8c0|                                       05      |             .  |      [133]: 5 transition_type 0x8cd-0x8ce (1)
0x8c0|                                          06   |              . |      [134]: 6 transition_type 0x8ce-0x8cf (1)
0x8c0|                                             05|               .|      [135]: 5 transition_type 0x8cf-0x8d0 (1)
0x8d0|06                                             |.               |      [136]: 6 transition_type 0x8d0-0x8d1 (1)
0x8d0|   05                                          | .              |      [137]: 5 transition_type 0x8d1-0x8d2 (1)
0x8d0|      06                                       |  .             |      [138]: 6 transition_type 0x8d2-0x8d3 (1)
0x8d0|         05                                    |   .            |      [139]: 5 transition_type 0x8d3-0x8d4 (1)
0x8d0|            06                                 |    .           |      [140]: 6 transition_type 0x8d4-0x8d5 (1)
0x8d0|               05                              |     .          |      [141]: 5 transition_type 0x8d5-0x8d6 (1)
0x8d0|                  06                           |      .         |      [142]: 6 transition_type 0x8d6-0x8d7 (1)
0x8d0|                     05                        |       .        |      [143]: 5 transition_type 0x8d7-0x8d8 (1)
0x8d0|                        06                     |        .       |      [144]: 6 transition_type 0x8d8-0x8d9 (1)
0x8d0|                           05                  |         .      |      [145]: 5 transition_type 0x8d9-0x8da (1)
0x8d0|                              06               |          .     |      [146]: 6 transition_type 0x8da-0x8db (1)
0x8d0|                                 05            |           .    |      [147]: 5 transition_type 0x8db-0x8dc (1)
0x8d0|                                    06         |            .   |      [148]: 6 transition_type 0x8dc-0x8dd (1)
0x8d0|                                       05      |             .  |      [149]: 5 transition_type 0x8dd-0x8de (1)
0x8d0|                                          06   |              . |      [150]: 6 transition_type 0x8de-0x8df (1)
     |                                               |                |    local_time_type_records[0:7]: 0x8df-0x909 (42)
     |                                               |                |      [0]{}: local_time_type 0x8df-0x8e5 (6)
0x8d0|                                             00|               .|        utoff: 4580 (valid) 0x8df-0x8e3 (4)
0x8e0|00 11 e4                                       |...             |
0x8e0|         00                                    |   .            |        dst: 0 (valid) 0x8e3-0x8e4 (1)
0x8e0|            00                                 |    .           |        idx: 0 (valid) 0x8e4-0x8e5 (1)
     |                                               |                |      [1]{}: local_time_type 0x8e5-0x8eb (6)
0x8e0|               00 00 1c 20                     |     ...        |        utoff: 7200 (valid) 0x8e5-0x8e9 (4)
0x8e0|                           01                  |         .      |        dst: 1 (valid) 0x8e9-0x8ea (1)
0x8e0|                              04               |          .     |        idx: 4 (valid) 0x8ea-0x8eb (1)
     |                                               |                |      [2]{}: local_time_type 0x8eb-0x8f1 (6)
0x8e0|                                 00 00 0e 10   |           .... |        utoff: 3600 (valid) 0x8eb-0x8ef (4)
0x8e0|                                             00|               .|        dst: 0 (valid) 0x8ef-0x8f0 (1)
0x8f0|09                                             |.               |        idx: 9 (valid) 0x8f0-0x8f1 (1)
     |                                               |                |      [3]{}: local_time_type 0x8f1-0x8f7 (6)
0x8f0|   00 00 1c 20                                 | ...            |        utoff: 7200 (valid) 0x8f1-0x8f5 (4)
0x8f0|               01                              |     .          |        dst: 1 (valid) 0x8f5-0x8f6 (1)
0x8f0|                  04                           |      .         |        idx: 4 (valid) 0x8f6-0x8f7 (1)
     |                                               |                |      [4]{}: local_time_type 0x8f7-0x8fd (6)
0x8f0|                     00 00 0e 10               |       ....     |        utoff: 3600 (valid) 0x8f7-0x8fb (4)
0x8f0|                                 00            |           .    |        dst: 0 (valid) 0x8fb-0x8fc (1)
0x8f0|                                    09         |            .   |        idx: 9 (valid) 0x8fc-0x8fd (1)
     |                                               |                |      [5]{}: local_time_type 0x8fd-0x903 (6)
0x8f0|                                       00 00 1c|             ...|        utoff: 7200 (valid) 0x8fd-0x901 (4)
0x900|20                                             |                |
0x900|   01                                          | .              |        dst: 1 (valid) 0x901-0x902 (1)
0x900|      04                                       |  .             |        idx: 4 (valid) 0x902-0x903 (1)
     |                                               |                |      [6]{}: local_time_type 0x903-0x909 (6)
0x900|         00 00 0e 10                           |   ....         |        utoff: 3600 (valid) 0x903-0x907 (4)
0x900|                     00                        |       .        |        dst: 0 (valid) 0x907-0x908 (1)
0x900|                        09                     |        .       |        idx: 9 (valid) 0x908-0x909 (1)
     |                                               |                |    time_zone_designations[0:3]: 0x909-0x916 (13)
0x900|                           4c 4d 54 00         |         LMT.   |      [0]: "LMT" time_zone_designation 0x909-0x90d (4)
0x900|                                       43 45 53|             CES|      [1]: "CEST" time_zone_designation 0x90d-0x912 (5)
0x910|54 00                                          |T.              |
0x910|      43 45 54 00                              |  CET.          |      [2]: "CET" time_zone_designation 0x912-0x916 (4)
     |                                               |                |    leap_second_records[0:0]: 0x916-0x916 (0)
     |                                               |                |    standard_wall_indicators[0:7]: 0x916-0x91d (7)
0x910|                  00                           |      .         |      [0]: 0 standard_wall_indicator (valid) 0x916-0x917 (1)
0x910|                     00                        |       .        |      [1]: 0 standard_wall_indicator (valid) 0x917-0x918 (1)
0x910|                        00                     |        .       |      [2]: 0 standard_wall_indicator (valid) 0x918-0x919 (1)
0x910|                           01                  |         .      |      [3]: 1 standard_wall_indicator (valid) 0x919-0x91a (1)
0x910|                              01               |          .     |      [4]: 1 standard_wall_indicator (valid) 0x91a-0x91b (1)
0x910|                                 01            |           .    |      [5]: 1 standard_wall_indicator (valid) 0x91b-0x91c (1)
0x910|                                    01         |            .   |      [6]: 1 standard_wall_indicator (valid) 0x91c-0x91d (1)
     |                                               |                |    ut_local_indicators[0:7]: 0x91d-0x924 (7)
0x910|                                       00      |             .  |      [0]: 0 ut_local_indicator (valid) 0x91d-0x91e (1)
0x910|                                          00   |              . |      [1]: 0 ut_local_indicator (valid) 0x91e-0x91f (1)
0x910|                                             00|               .|      [2]: 0 ut_local_indicator (valid) 0x91f-0x920 (1)
0x920|00                                             |.               |      [3]: 0 ut_local_indicator (valid) 0x920-0x921 (1)
0x920|   00                                          | .              |      [4]: 0 ut_local_indicator (valid) 0x921-0x922 (1)
0x920|      01                                       |  .             |      [5]: 1 ut_local_indicator (valid) 0x922-0x923 (1)
0x920|         01                                    |   .            |      [6]: 1 ut_local_indicator (valid) 0x923-0x924 (1)
     |                                               |                |  footer{}: 0x924-0x940 (28)
0x920|            0a                                 |    .           |    nl1: 10 (valid) 0x924-0x925 (1)
0x920|               43 45 54 2d 31 43 45 53 54 2c 4d|     CET-1CEST,M|    tz_string: "CET-1CEST,M3.5.0,M10.5.0/3" 0x925-0x93f (26)
0x930|33 2e 35 2e 30 2c 4d 31 30 2e 35 2e 30 2f 33   |3.5.0,M10.5.0/3 |
0x930|                                             0a|               .|    nl2: 10 (valid) 0x93f-0x940 (1)
