$ fq -d tzif dv Cairo
     |00 01 02 03 04 05 06 07 08 09 0a 0b 0c 0d 0e 0f|0123456789abcdef|.{}: Cairo (tzif) 0x0-0x7a2.7 (1955)
     |                                               |                |  v1header{}: 0x0-0x2b.7 (44)
0x000|54 5a 69 66                                    |TZif            |    magic: 0x545a6966 (valid) 0x0-0x3.7 (4)
0x000|            32                                 |    2           |    ver: "2" (0x32) (valid) 0x4-0x4.7 (1)
0x000|               00 00 00 00 00 00 00 00 00 00 00|     ...........|    reserved: raw bits 0x5-0x13.7 (15)
0x010|00 00 00 00                                    |....            |
0x010|            00 00 00 00                        |    ....        |    isutcnt: 0 0x14-0x17.7 (4)
0x010|                        00 00 00 04            |        ....    |    isstdcnt: 4 0x18-0x1b.7 (4)
0x010|                                    00 00 00 00|            ....|    leapcnt: 0 0x1c-0x1f.7 (4)
0x020|00 00 00 7f                                    |....            |    timecnt: 127 0x20-0x23.7 (4)
0x020|            00 00 00 04                        |    ....        |    typecnt: 4 0x24-0x27.7 (4)
0x020|                        00 00 00 0d            |        ....    |    charcnt: 13 0x28-0x2b.7 (4)
     |                                               |                |  v1datablock{}: 0x2c-0x2cf.7 (676)
     |                                               |                |    transition_times[0:127]: 0x2c-0x227.7 (508)
0x020|                                    80 00 00 00|            ....|      [0]: "1901-12-13T20:45:52Z" (-2147483648) transition_time 0x2c-0x2f.7 (4)
0x030|c8 93 b4 e0                                    |....            |      [1]: "1940-07-14T22:00:00Z" (-929844000) transition_time 0x30-0x33.7 (4)
0x030|            c8 fa 7b d0                        |    ..{.        |      [2]: "1940-09-30T21:00:00Z" (-923108400) transition_time 0x34-0x37.7 (4)
0x030|                        c9 fc ef e0            |        ....    |      [3]: "1941-04-14T22:00:00Z" (-906170400) transition_time 0x38-0x3b.7 (4)
0x030|                                    ca c7 e8 d0|            ....|      [4]: "1941-09-15T21:00:00Z" (-892868400) transition_time 0x3c-0x3f.7 (4)
0x040|cb cb ae 60                                    |...`            |      [5]: "1942-03-31T22:00:00Z" (-875844000) transition_time 0x40-0x43.7 (4)
0x040|            cc df 29 d0                        |    ..).        |      [6]: "1942-10-26T21:00:00Z" (-857790000) transition_time 0x44-0x47.7 (4)
0x040|                        cd ac e1 e0            |        ....    |      [7]: "1943-03-31T22:00:00Z" (-844308000) transition_time 0x48-0x4b.7 (4)
0x040|                                    ce c6 f4 d0|            ....|      [8]: "1943-10-31T21:00:00Z" (-825822000) transition_time 0x4c-0x4f.7 (4)
0x050|cf 8f 66 e0                                    |..f.            |      [9]: "1944-03-31T22:00:00Z" (-812685600) transition_time 0x50-0x53.7 (4)
0x050|            d0 a9 79 d0                        |    ..y.        |      [10]: "1944-10-31T21:00:00Z" (-794199600) transition_time 0x54-0x57.7 (4)
0x050|                        d1 84 60 e0            |        ..`.    |      [11]: "1945-04-15T22:00:00Z" (-779853600) transition_time 0x58-0x5b.7 (4)
0x050|                                    d2 8a ad 50|            ...P|      [12]: "1945-10-31T21:00:00Z" (-762663600) transition_time 0x5c-0x5f.7 (4)
0x060|e8 36 63 60                                    |.6c`            |      [13]: "1957-05-09T22:00:00Z" (-399088800) transition_time 0x60-0x63.7 (4)
0x060|            e8 f4 2d 50                        |    ..-P        |      [14]: "1957-09-30T21:00:00Z" (-386650800) transition_time 0x64-0x67.7 (4)
0x060|                        ea 0b b9 60            |        ...`    |      [15]: "1958-04-30T22:00:00Z" (-368330400) transition_time 0x68-0x6b.7 (4)
0x060|                                    ea d5 60 d0|            ..`.|      [16]: "1958-09-30T21:00:00Z" (-355114800) transition_time 0x6c-0x6f.7 (4)
0x070|eb ec fa f0                                    |....            |      [17]: "1959-04-30T23:00:00Z" (-336790800) transition_time 0x70-0x73.7 (4)
0x070|            ec b5 6d 00                        |    ..m.        |      [18]: "1959-09-30T00:00:00Z" (-323654400) transition_time 0x74-0x77.7 (4)
0x070|                        ed cf 7f f0            |        ....    |      [19]: "1960-04-30T23:00:00Z" (-305168400) transition_time 0x78-0x7b.7 (4)
0x070|                                    ee 97 f2 00|            ....|      [20]: "1960-09-30T00:00:00Z" (-292032000) transition_time 0x7c-0x7f.7 (4)
0x080|ef b0 b3 70                                    |...p            |      [21]: "1961-04-30T23:00:00Z" (-273632400) transition_time 0x80-0x83.7 (4)
0x080|            f0 79 25 80                        |    .y%.        |      [22]: "1961-09-30T00:00:00Z" (-260496000) transition_time 0x84-0x87.7 (4)
0x080|                        f1 91 e6 f0            |        ....    |      [23]: "1962-04-30T23:00:00Z" (-242096400) transition_time 0x88-0x8b.7 (4)
0x080|                                    f2 5a 59 00|            .ZY.|      [24]: "1962-09-30T00:00:00Z" (-228960000) transition_time 0x8c-0x8f.7 (4)
0x090|f3 73 1a 70                                    |.s.p            |      [25]: "1963-04-30T23:00:00Z" (-210560400) transition_time 0x90-0x93.7 (4)
0x090|            f4 3b 8c 80                        |    .;..        |      [26]: "1963-09-30T00:00:00Z" (-197424000) transition_time 0x94-0x97.7 (4)
0x090|                        f5 55 9f 70            |        .U.p    |      [27]: "1964-04-30T23:00:00Z" (-178938000) transition_time 0x98-0x9b.7 (4)
0x090|                                    f6 1e 11 80|            ....|      [28]: "1964-09-30T00:00:00Z" (-165801600) transition_time 0x9c-0x9f.7 (4)
0x0a0|f7 36 d2 f0                                    |.6..            |      [29]: "1965-04-30T23:00:00Z" (-147402000) transition_time 0xa0-0xa3.7 (4)
0x0a0|            f7 ff 45 00                        |    ..E.        |      [30]: "1965-09-30T00:00:00Z" (-134265600) transition_time 0xa4-0xa7.7 (4)
0x0a0|                        f9 18 06 70            |        ...p    |      [31]: "1966-04-30T23:00:00Z" (-115866000) transition_time 0xa8-0xab.7 (4)
0x0a0|                                    f9 e1 ca 00|            ....|      [32]: "1966-10-01T00:00:00Z" (-102643200) transition_time 0xac-0xaf.7 (4)
0x0b0|fa f9 39 f0                                    |..9.            |      [33]: "1967-04-30T23:00:00Z" (-84330000) transition_time 0xb0-0xb3.7 (4)
0x0b0|            fb c2 fd 80                        |    ....        |      [34]: "1967-10-01T00:00:00Z" (-71107200) transition_time 0xb4-0xb7.7 (4)
0x0b0|                        fc db be f0            |        ....    |      [35]: "1968-04-30T23:00:00Z" (-52707600) transition_time 0xb8-0xbb.7 (4)
0x0b0|                                    fd a5 82 80|            ....|      [36]: "1968-10-01T00:00:00Z" (-39484800) transition_time 0xbc-0xbf.7 (4)
0x0c0|fe bc f2 70                                    |...p            |      [37]: "1969-04-30T23:00:00Z" (-21171600) transition_time 0xc0-0xc3.7 (4)
0x0c0|            ff 86 b6 00                        |    ....        |      [38]: "1969-10-01T00:00:00Z" (-7948800) transition_time 0xc4-0xc7.7 (4)
0x0c0|                        00 9e 25 f0            |        ..%.    |      [39]: "1970-04-30T23:00:00Z" (10364400) transition_time 0xc8-0xcb.7 (4)
0x0c0|                                    01 67 e9 80|            .g..|      [40]: "1970-10-01T00:00:00Z" (23587200) transition_time 0xcc-0xcf.7 (4)
0x0d0|02 7f 59 70                                    |..Yp            |      [41]: "1971-04-30T23:00:00Z" (41900400) transition_time 0xd0-0xd3.7 (4)
0x0d0|            03 49 1d 00                        |    .I..        |      [42]: "1971-10-01T00:00:00Z" (55123200) transition_time 0xd4-0xd7.7 (4)
0x0d0|                        04 61 de 70            |        .a.p    |      [43]: "1972-04-30T23:00:00Z" (73522800) transition_time 0xd8-0xdb.7 (4)
0x0d0|                                    05 2b a2 00|            .+..|      [44]: "1972-10-01T00:00:00Z" (86745600) transition_time 0xdc-0xdf.7 (4)
0x0e0|06 43 11 f0                                    |.C..            |      [45]: "1973-04-30T23:00:00Z" (105058800) transition_time 0xe0-0xe3.7 (4)
0x0e0|            07 0c d5 80                        |    ....        |      [46]: "1973-10-01T00:00:00Z" (118281600) transition_time 0xe4-0xe7.7 (4)
0x0e0|                        08 24 45 70            |        .$Ep    |      [47]: "1974-04-30T23:00:00Z" (136594800) transition_time 0xe8-0xeb.7 (4)
0x0e0|                                    08 ee 09 00|            ....|      [48]: "1974-10-01T00:00:00Z" (149817600) transition_time 0xec-0xef.7 (4)
0x0f0|0a 05 78 f0                                    |..x.            |      [49]: "1975-04-30T23:00:00Z" (168130800) transition_time 0xf0-0xf3.7 (4)
0x0f0|            0a cf 3c 80                        |    ..<.        |      [50]: "1975-10-01T00:00:00Z" (181353600) transition_time 0xf4-0xf7.7 (4)
0x0f0|                        0b e7 fd f0            |        ....    |      [51]: "1976-04-30T23:00:00Z" (199753200) transition_time 0xf8-0xfb.7 (4)
0x0f0|                                    0c b1 c1 80|            ....|      [52]: "1976-10-01T00:00:00Z" (212976000) transition_time 0xfc-0xff.7 (4)
0x100|0d c9 31 70                                    |..1p            |      [53]: "1977-04-30T23:00:00Z" (231289200) transition_time 0x100-0x103.7 (4)
0x100|            0e 92 f5 00                        |    ....        |      [54]: "1977-10-01T00:00:00Z" (244512000) transition_time 0x104-0x107.7 (4)
0x100|                        0f aa 64 f0            |        ..d.    |      [55]: "1978-04-30T23:00:00Z" (262825200) transition_time 0x108-0x10b.7 (4)
0x100|                                    10 74 28 80|            .t(.|      [56]: "1978-10-01T00:00:00Z" (276048000) transition_time 0x10c-0x10f.7 (4)
0x110|11 8b 98 70                                    |...p            |      [57]: "1979-04-30T23:00:00Z" (294361200) transition_time 0x110-0x113.7 (4)
0x110|            12 55 5c 00                        |    .U\.        |      [58]: "1979-10-01T00:00:00Z" (307584000) transition_time 0x114-0x117.7 (4)
0x110|                        13 6e 1d 70            |        .n.p    |      [59]: "1980-04-30T23:00:00Z" (325983600) transition_time 0x118-0x11b.7 (4)
0x110|                                    14 37 e1 00|            .7..|      [60]: "1980-10-01T00:00:00Z" (339206400) transition_time 0x11c-0x11f.7 (4)
0x120|15 4f 50 f0                                    |.OP.            |      [61]: "1981-04-30T23:00:00Z" (357519600) transition_time 0x120-0x123.7 (4)
0x120|            16 19 14 80                        |    ....        |      [62]: "1981-10-01T00:00:00Z" (370742400) transition_time 0x124-0x127.7 (4)
0x120|                        17 a0 93 f0            |        ....    |      [63]: "1982-07-24T23:00:00Z" (396399600) transition_time 0x128-0x12b.7 (4)
0x120|                                    17 fa 48 00|            ..H.|      [64]: "1982-10-01T00:00:00Z" (402278400) transition_time 0x12c-0x12f.7 (4)
0x130|19 70 a3 f0                                    |.p..            |      [65]: "1983-07-11T23:00:00Z" (426812400) transition_time 0x130-0x133.7 (4)
0x130|            19 db 7b 80                        |    ..{.        |      [66]: "1983-10-01T00:00:00Z" (433814400) transition_time 0x134-0x137.7 (4)
0x130|                        1a f4 3c f0            |        ..<.    |      [67]: "1984-04-30T23:00:00Z" (452214000) transition_time 0x138-0x13b.7 (4)
0x130|                                    1b be 00 80|            ....|      [68]: "1984-10-01T00:00:00Z" (465436800) transition_time 0x13c-0x13f.7 (4)
0x140|1c d5 70 70                                    |..pp            |      [69]: "1985-04-30T23:00:00Z" (483750000) transition_time 0x140-0x143.7 (4)
0x140|            1d 9f 34 00                        |    ..4.        |      [70]: "1985-10-01T00:00:00Z" (496972800) transition_time 0x144-0x147.7 (4)
0x140|                        1e b6 a3 f0            |        ....    |      [71]: "1986-04-30T23:00:00Z" (515286000) transition_time 0x148-0x14b.7 (4)
0x140|                                    1f 80 67 80|            ..g.|      [72]: "1986-10-01T00:00:00Z" (528508800) transition_time 0x14c-0x14f.7 (4)
0x150|20 97 d7 70                                    | ..p            |      [73]: "1987-04-30T23:00:00Z" (546822000) transition_time 0x150-0x153.7 (4)
0x150|            21 61 9b 00                        |    !a..        |      [74]: "1987-10-01T00:00:00Z" (560044800) transition_time 0x154-0x157.7 (4)
0x150|                        22 7a 5c 70            |        "z\p    |      [75]: "1988-04-30T23:00:00Z" (578444400) transition_time 0x158-0x15b.7 (4)
0x150|                                    23 44 20 00|            #D .|      [76]: "1988-10-01T00:00:00Z" (591667200) transition_time 0x15c-0x15f.7 (4)
0x160|24 62 27 70                                    |$b'p            |      [77]: "1989-05-05T23:00:00Z" (610412400) transition_time 0x160-0x163.7 (4)
0x160|            25 25 53 80                        |    %%S.        |      [78]: "1989-10-01T00:00:00Z" (623203200) transition_time 0x164-0x167.7 (4)
0x160|                        26 3c c3 70            |        &<.p    |      [79]: "1990-04-30T23:00:00Z" (641516400) transition_time 0x168-0x16b.7 (4)
0x160|                                    27 06 87 00|            '...|      [80]: "1990-10-01T00:00:00Z" (654739200) transition_time 0x16c-0x16f.7 (4)
0x170|28 1d f6 f0                                    |(...            |      [81]: "1991-04-30T23:00:00Z" (673052400) transition_time 0x170-0x173.7 (4)
0x170|            28 e7 ba 80                        |    (...        |      [82]: "1991-10-01T00:00:00Z" (686275200) transition_time 0x174-0x177.7 (4)
0x170|                        2a 00 7b f0            |        *.{.    |      [83]: "1992-04-30T23:00:00Z" (704674800) transition_time 0x178-0x17b.7 (4)
0x170|                                    2a ca 3f 80|            *.?.|      [84]: "1992-10-01T00:00:00Z" (717897600) transition_time 0x17c-0x17f.7 (4)
0x180|2b e1 af 70                                    |+..p            |      [85]: "1993-04-30T23:00:00Z" (736210800) transition_time 0x180-0x183.7 (4)
0x180|            2c ab 73 00                        |    ,.s.        |      [86]: "1993-10-01T00:00:00Z" (749433600) transition_time 0x184-0x187.7 (4)
0x180|                        2d c2 e2 f0            |        -...    |      [87]: "1994-04-30T23:00:00Z" (767746800) transition_time 0x188-0x18b.7 (4)
0x180|                                    2e 8c a6 80|            ....|      [88]: "1994-10-01T00:00:00Z" (780969600) transition_time 0x18c-0x18f.7 (4)
0x190|2f a0 13 e0                                    |/...            |      [89]: "1995-04-27T22:00:00Z" (799020000) transition_time 0x190-0x193.7 (4)
0x190|            30 6b 0c d0                        |    0k..        |      [90]: "1995-09-28T21:00:00Z" (812322000) transition_time 0x194-0x197.7 (4)
0x190|                        31 7f f5 e0            |        1...    |      [91]: "1996-04-25T22:00:00Z" (830469600) transition_time 0x198-0x19b.7 (4)
0x190|                                    32 4a ee d0|            2J..|      [92]: "1996-09-26T21:00:00Z" (843771600) transition_time 0x19c-0x19f.7 (4)
0x1a0|33 5f d7 e0                                    |3_..            |      [93]: "1997-04-24T22:00:00Z" (861919200) transition_time 0x1a0-0x1a3.7 (4)
0x1a0|            34 2a d0 d0                        |    4*..        |      [94]: "1997-09-25T21:00:00Z" (875221200) transition_time 0x1a4-0x1a7.7 (4)
0x1a0|                        35 3f b9 e0            |        5?..    |      [95]: "1998-04-23T22:00:00Z" (893368800) transition_time 0x1a8-0x1ab.7 (4)
0x1a0|                                    36 0a b2 d0|            6...|      [96]: "1998-09-24T21:00:00Z" (906670800) transition_time 0x1ac-0x1af.7 (4)
0x1b0|37 28 d6 60                                    |7(.`            |      [97]: "1999-04-29T22:00:00Z" (925423200) transition_time 0x1b0-0x1b3.7 (4)
0x1b0|            37 f3 cf 50                        |    7..P        |      [98]: "1999-09-30T21:00:00Z" (938725200) transition_time 0x1b4-0x1b7.7 (4)
0x1b0|                        39 08 b8 60            |        9..`    |      [99]: "2000-04-27T22:00:00Z" (956872800) transition_time 0x1b8-0x1bb.7 (4)
0x1b0|                                    39 d3 b1 50|            9..P|      [100]: "2000-09-28T21:00:00Z" (970174800) transition_time 0x1bc-0x1bf.7 (4)
0x1c0|3a e8 9a 60                                    |:..`            |      [101]: "2001-04-26T22:00:00Z" (988322400) transition_time 0x1c0-0x1c3.7 (4)
0x1c0|            3b b3 93 50                        |    ;..P        |      [102]: "2001-09-27T21:00:00Z" (1001624400) transition_time 0x1c4-0x1c7.7 (4)
0x1c0|                        3c c8 7c 60            |        <.|`    |      [103]: "2002-04-25T22:00:00Z" (1019772000) transition_time 0x1c8-0x1cb.7 (4)
0x1c0|                                    3d 93 75 50|            =.uP|      [104]: "2002-09-26T21:00:00Z" (1033074000) transition_time 0x1cc-0x1cf.7 (4)
0x1d0|3e a8 5e 60                                    |>.^`            |      [105]: "2003-04-24T22:00:00Z" (1051221600) transition_time 0x1d0-0x1d3.7 (4)
0x1d0|            3f 73 57 50                        |    ?sWP        |      [106]: "2003-09-25T21:00:00Z" (1064523600) transition_time 0x1d4-0x1d7.7 (4)
0x1d0|                        40 91 7a e0            |        @.z.    |      [107]: "2004-04-29T22:00:00Z" (1083276000) transition_time 0x1d8-0x1db.7 (4)
0x1d0|                                    41 5c 73 d0|            A\s.|      [108]: "2004-09-30T21:00:00Z" (1096578000) transition_time 0x1dc-0x1df.7 (4)
0x1e0|42 71 5c e0                                    |Bq\.            |      [109]: "2005-04-28T22:00:00Z" (1114725600) transition_time 0x1e0-0x1e3.7 (4)
0x1e0|            43 3c 55 d0                        |    C<U.        |      [110]: "2005-09-29T21:00:00Z" (1128027600) transition_time 0x1e4-0x1e7.7 (4)
0x1e0|                        44 51 3e e0            |        DQ>.    |      [111]: "2006-04-27T22:00:00Z" (1146175200) transition_time 0x1e8-0x1eb.7 (4)
0x1e0|                                    45 12 fd 50|            E..P|      [112]: "2006-09-21T21:00:00Z" (1158872400) transition_time 0x1ec-0x1ef.7 (4)
0x1f0|46 31 20 e0                                    |F1 .            |      [113]: "2007-04-26T22:00:00Z" (1177624800) transition_time 0x1f0-0x1f3.7 (4)
0x1f0|            46 e0 6a 50                        |    F.jP        |      [114]: "2007-09-06T21:00:00Z" (1189112400) transition_time 0x1f4-0x1f7.7 (4)
0x1f0|                        48 11 02 e0            |        H...    |      [115]: "2008-04-24T22:00:00Z" (1209074400) transition_time 0x1f8-0x1fb.7 (4)
0x1f0|                                    48 b7 11 d0|            H...|      [116]: "2008-08-28T21:00:00Z" (1219957200) transition_time 0x1fc-0x1ff.7 (4)
0x200|49 f0 e4 e0                                    |I...            |      [117]: "2009-04-23T22:00:00Z" (1240524000) transition_time 0x200-0x203.7 (4)
0x200|            4a 8d b9 50                        |    J..P        |      [118]: "2009-08-20T21:00:00Z" (1250802000) transition_time 0x204-0x207.7 (4)
0x200|                        4b da 01 60            |        K..`    |      [119]: "2010-04-29T22:00:00Z" (1272578400) transition_time 0x208-0x20b.7 (4)
0x200|                                    4c 61 bd d0|            La..|      [120]: "2010-08-10T21:00:00Z" (1281474000) transition_time 0x20c-0x20f.7 (4)
0x210|4c 89 58 e0                                    |L.X.            |      [121]: "2010-09-09T22:00:00Z" (1284069600) transition_time 0x210-0x213.7 (4)
0x210|            4c a4 fa 50                        |    L..P        |      [122]: "2010-09-30T21:00:00Z" (1285880400) transition_time 0x214-0x217.7 (4)
0x210|                        53 75 38 e0            |        Su8.    |      [123]: "2014-05-15T22:00:00Z" (1400191200) transition_time 0x218-0x21b.7 (4)
0x210|                                    53 ac 89 d0|            S...|      [124]: "2014-06-26T21:00:00Z" (1403816400) transition_time 0x21c-0x21f.7 (4)
0x220|53 da bc 60                                    |S..`            |      [125]: "2014-07-31T22:00:00Z" (1406844000) transition_time 0x220-0x223.7 (4)
0x220|            54 24 82 50                        |    T$.P        |      [126]: "2014-09-25T21:00:00Z" (1411678800) transition_time 0x224-0x227.7 (4)
     |                                               |                |    transition_types[0:127]: 0x228-0x2a6.7 (127)
0x220|                        02                     |        .       |      [0]: 2 transition_type 0x228-0x228.7 (1)
0x220|                           01                  |         .      |      [1]: 1 transition_type 0x229-0x229.7 (1)
0x220|                              02               |          .     |      [2]: 2 transition_type 0x22a-0x22a.7 (1)
0x220|                                 01            |           .    |      [3]: 1 transition_type 0x22b-0x22b.7 (1)
0x220|                                    02         |            .   |      [4]: 2 transition_type 0x22c-0x22c.7 (1)
0x220|                                       01      |             .  |      [5]: 1 transition_type 0x22d-0x22d.7 (1)
0x220|                                          02   |              . |      [6]: 2 transition_type 0x22e-0x22e.7 (1)
0x220|                                             01|               .|      [7]: 1 transition_type 0x22f-0x22f.7 (1)
0x230|02                                             |.               |      [8]: 2 transition_type 0x230-0x230.7 (1)
0x230|   01                                          | .              |      [9]: 1 transition_type 0x231-0x231.7 (1)
0x230|      02                                       |  .             |      [10]: 2 transition_type 0x232-0x232.7 (1)
0x230|         01                                    |   .            |      [11]: 1 transition_type 0x233-0x233.7 (1)
0x230|            02                                 |    .           |      [12]: 2 transition_type 0x234-0x234.7 (1)
0x230|               01                              |     .          |      [13]: 1 transition_type 0x235-0x235.7 (1)
0x230|                  02                           |      .         |      [14]: 2 transition_type 0x236-0x236.7 (1)
0x230|                     01                        |       .        |      [15]: 1 transition_type 0x237-0x237.7 (1)
0x230|                        02                     |        .       |      [16]: 2 transition_type 0x238-0x238.7 (1)
0x230|                           01                  |         .      |      [17]: 1 transition_type 0x239-0x239.7 (1)
0x230|                              02               |          .     |      [18]: 2 transition_type 0x23a-0x23a.7 (1)
0x230|                                 01            |           .    |      [19]: 1 transition_type 0x23b-0x23b.7 (1)
0x230|                                    02         |            .   |      [20]: 2 transition_type 0x23c-0x23c.7 (1)
0x230|                                       01      |             .  |      [21]: 1 transition_type 0x23d-0x23d.7 (1)
0x230|                                          02   |              . |      [22]: 2 transition_type 0x23e-0x23e.7 (1)
0x230|                                             01|               .|      [23]: 1 transition_type 0x23f-0x23f.7 (1)
0x240|02                                             |.               |      [24]: 2 transition_type 0x240-0x240.7 (1)
0x240|   01                                          | .              |      [25]: 1 transition_type 0x241-0x241.7 (1)
0x240|      02                                       |  .             |      [26]: 2 transition_type 0x242-0x242.7 (1)
0x240|         01                                    |   .            |      [27]: 1 transition_type 0x243-0x243.7 (1)
0x240|            02                                 |    .           |      [28]: 2 transition_type 0x244-0x244.7 (1)
0x240|               01                              |     .          |      [29]: 1 transition_type 0x245-0x245.7 (1)
0x240|                  02                           |      .         |      [30]: 2 transition_type 0x246-0x246.7 (1)
0x240|                     01                        |       .        |      [31]: 1 transition_type 0x247-0x247.7 (1)
0x240|                        02                     |        .       |      [32]: 2 transition_type 0x248-0x248.7 (1)
0x240|                           01                  |         .      |      [33]: 1 transition_type 0x249-0x249.7 (1)
0x240|                              02               |          .     |      [34]: 2 transition_type 0x24a-0x24a.7 (1)
0x240|                                 01            |           .    |      [35]: 1 transition_type 0x24b-0x24b.7 (1)
0x240|                                    02         |            .   |      [36]: 2 transition_type 0x24c-0x24c.7 (1)
0x240|                                       01      |             .  |      [37]: 1 transition_type 0x24d-0x24d.7 (1)
0x240|                                          02   |              . |      [38]: 2 transition_type 0x24e-0x24e.7 (1)
0x240|                                             01|               .|      [39]: 1 transition_type 0x24f-0x24f.7 (1)
0x250|02                                             |.               |      [40]: 2 transition_type 0x250-0x250.7 (1)
0x250|   01                                          | .              |      [41]: 1 transition_type 0x251-0x251.7 (1)
0x250|      02                                       |  .             |      [42]: 2 transition_type 0x252-0x252.7 (1)
0x250|         01                                    |   .            |      [43]: 1 transition_type 0x253-0x253.7 (1)
0x250|            02                                 |    .           |      [44]: 2 transition_type 0x254-0x254.7 (1)
0x250|               01                              |     .          |      [45]: 1 transition_type 0x255-0x255.7 (1)
0x250|                  02                           |      .         |      [46]: 2 transition_type 0x256-0x256.7 (1)
0x250|                     01                        |       .        |      [47]: 1 transition_type 0x257-0x257.7 (1)
0x250|                        02                     |        .       |      [48]: 2 transition_type 0x258-0x258.7 (1)
0x250|                           01                  |         .      |      [49]: 1 transition_type 0x259-0x259.7 (1)
0x250|                              02               |          .     |      [50]: 2 transition_type 0x25a-0x25a.7 (1)
0x250|                                 01            |           .    |      [51]: 1 transition_type 0x25b-0x25b.7 (1)
0x250|                                    02         |            .   |      [52]: 2 transition_type 0x25c-0x25c.7 (1)
0x250|                                       01      |             .  |      [53]: 1 transition_type 0x25d-0x25d.7 (1)
0x250|                                          02   |              . |      [54]: 2 transition_type 0x25e-0x25e.7 (1)
0x250|                                             01|               .|      [55]: 1 transition_type 0x25f-0x25f.7 (1)
0x260|02                                             |.               |      [56]: 2 transition_type 0x260-0x260.7 (1)
0x260|   01                                          | .              |      [57]: 1 transition_type 0x261-0x261.7 (1)
0x260|      02                                       |  .             |      [58]: 2 transition_type 0x262-0x262.7 (1)
0x260|         01                                    |   .            |      [59]: 1 transition_type 0x263-0x263.7 (1)
0x260|            02                                 |    .           |      [60]: 2 transition_type 0x264-0x264.7 (1)
0x260|               01                              |     .          |      [61]: 1 transition_type 0x265-0x265.7 (1)
0x260|                  02                           |      .         |      [62]: 2 transition_type 0x266-0x266.7 (1)
0x260|                     01                        |       .        |      [63]: 1 transition_type 0x267-0x267.7 (1)
0x260|                        02                     |        .       |      [64]: 2 transition_type 0x268-0x268.7 (1)
0x260|                           01                  |         .      |      [65]: 1 transition_type 0x269-0x269.7 (1)
0x260|                              02               |          .     |      [66]: 2 transition_type 0x26a-0x26a.7 (1)
0x260|                                 01            |           .    |      [67]: 1 transition_type 0x26b-0x26b.7 (1)
0x260|                                    02         |            .   |      [68]: 2 transition_type 0x26c-0x26c.7 (1)
0x260|                                       01      |             .  |      [69]: 1 transition_type 0x26d-0x26d.7 (1)
0x260|                                          02   |              . |      [70]: 2 transition_type 0x26e-0x26e.7 (1)
0x260|                                             01|               .|      [71]: 1 transition_type 0x26f-0x26f.7 (1)
0x270|02                                             |.               |      [72]: 2 transition_type 0x270-0x270.7 (1)
0x270|   01                                          | .              |      [73]: 1 transition_type 0x271-0x271.7 (1)
0x270|      02                                       |  .             |      [74]: 2 transition_type 0x272-0x272.7 (1)
0x270|         01                                    |   .            |      [75]: 1 transition_type 0x273-0x273.7 (1)
0x270|            02                                 |    .           |      [76]: 2 transition_type 0x274-0x274.7 (1)
0x270|               01                              |     .          |      [77]: 1 transition_type 0x275-0x275.7 (1)
0x270|                  02                           |      .         |      [78]: 2 transition_type 0x276-0x276.7 (1)
0x270|                     01                        |       .        |      [79]: 1 transition_type 0x277-0x277.7 (1)
0x270|                        02                     |        .       |      [80]: 2 transition_type 0x278-0x278.7 (1)
0x270|                           01                  |         .      |      [81]: 1 transition_type 0x279-0x279.7 (1)
0x270|                              02               |          .     |      [82]: 2 transition_type 0x27a-0x27a.7 (1)
0x270|                                 01            |           .    |      [83]: 1 transition_type 0x27b-0x27b.7 (1)
0x270|                                    02         |            .   |      [84]: 2 transition_type 0x27c-0x27c.7 (1)
0x270|                                       01      |             .  |      [85]: 1 transition_type 0x27d-0x27d.7 (1)
0x270|                                          02   |              . |      [86]: 2 transition_type 0x27e-0x27e.7 (1)
0x270|                                             01|               .|      [87]: 1 transition_type 0x27f-0x27f.7 (1)
0x280|02                                             |.               |      [88]: 2 transition_type 0x280-0x280.7 (1)
0x280|   03                                          | .              |      [89]: 3 transition_type 0x281-0x281.7 (1)
0x280|      02                                       |  .             |      [90]: 2 transition_type 0x282-0x282.7 (1)
0x280|         03                                    |   .            |      [91]: 3 transition_type 0x283-0x283.7 (1)
0x280|            02                                 |    .           |      [92]: 2 transition_type 0x284-0x284.7 (1)
0x280|               03                              |     .          |      [93]: 3 transition_type 0x285-0x285.7 (1)
0x280|                  02                           |      .         |      [94]: 2 transition_type 0x286-0x286.7 (1)
0x280|                     03                        |       .        |      [95]: 3 transition_type 0x287-0x287.7 (1)
0x280|                        02                     |        .       |      [96]: 2 transition_type 0x288-0x288.7 (1)
0x280|                           03                  |         .      |      [97]: 3 transition_type 0x289-0x289.7 (1)
0x280|                              02               |          .     |      [98]: 2 transition_type 0x28a-0x28a.7 (1)
0x280|                                 03            |           .    |      [99]: 3 transition_type 0x28b-0x28b.7 (1)
0x280|                                    02         |            .   |      [100]: 2 transition_type 0x28c-0x28c.7 (1)
0x280|                                       03      |             .  |      [101]: 3 transition_type 0x28d-0x28d.7 (1)
0x280|                                          02   |              . |      [102]: 2 transition_type 0x28e-0x28e.7 (1)
0x280|                                             03|               .|      [103]: 3 transition_type 0x28f-0x28f.7 (1)
0x290|02                                             |.               |      [104]: 2 transition_type 0x290-0x290.7 (1)
0x290|   03                                          | .              |      [105]: 3 transition_type 0x291-0x291.7 (1)
0x290|      02                                       |  .             |      [106]: 2 transition_type 0x292-0x292.7 (1)
0x290|         03                                    |   .            |      [107]: 3 transition_type 0x293-0x293.7 (1)
0x290|            02                                 |    .           |      [108]: 2 transition_type 0x294-0x294.7 (1)
0x290|               03                              |     .          |      [109]: 3 transition_type 0x295-0x295.7 (1)
0x290|                  02                           |      .         |      [110]: 2 transition_type 0x296-0x296.7 (1)
0x290|                     03                        |       .        |      [111]: 3 transition_type 0x297-0x297.7 (1)
0x290|                        02                     |        .       |      [112]: 2 transition_type 0x298-0x298.7 (1)
0x290|                           03                  |         .      |      [113]: 3 transition_type 0x299-0x299.7 (1)
0x290|                              02               |          .     |      [114]: 2 transition_type 0x29a-0x29a.7 (1)
0x290|                                 03            |           .    |      [115]: 3 transition_type 0x29b-0x29b.7 (1)
0x290|                                    02         |            .   |      [116]: 2 transition_type 0x29c-0x29c.7 (1)
0x290|                                       03      |             .  |      [117]: 3 transition_type 0x29d-0x29d.7 (1)
0x290|                                          02   |              . |      [118]: 2 transition_type 0x29e-0x29e.7 (1)
0x290|                                             03|               .|      [119]: 3 transition_type 0x29f-0x29f.7 (1)
0x2a0|02                                             |.               |      [120]: 2 transition_type 0x2a0-0x2a0.7 (1)
0x2a0|   01                                          | .              |      [121]: 1 transition_type 0x2a1-0x2a1.7 (1)
0x2a0|      02                                       |  .             |      [122]: 2 transition_type 0x2a2-0x2a2.7 (1)
0x2a0|         01                                    |   .            |      [123]: 1 transition_type 0x2a3-0x2a3.7 (1)
0x2a0|            02                                 |    .           |      [124]: 2 transition_type 0x2a4-0x2a4.7 (1)
0x2a0|               01                              |     .          |      [125]: 1 transition_type 0x2a5-0x2a5.7 (1)
0x2a0|                  02                           |      .         |      [126]: 2 transition_type 0x2a6-0x2a6.7 (1)
     |                                               |                |    local_time_type_records[0:4]: 0x2a7-0x2be.7 (24)
     |                                               |                |      [0]{}: local_time_type 0x2a7-0x2ac.7 (6)
0x2a0|                     00 00 1d 55               |       ...U     |        utoff: 7509 (valid) 0x2a7-0x2aa.7 (4)
0x2a0|                                 00            |           .    |        dst: 0 (valid) 0x2ab-0x2ab.7 (1)
0x2a0|                                    00         |            .   |        idx: 0 (valid) 0x2ac-0x2ac.7 (1)
     |                                               |                |      [1]{}: local_time_type 0x2ad-0x2b2.7 (6)
0x2a0|                                       00 00 2a|             ..*|        utoff: 10800 (valid) 0x2ad-0x2b0.7 (4)
0x2b0|30                                             |0               |
0x2b0|   01                                          | .              |        dst: 1 (valid) 0x2b1-0x2b1.7 (1)
0x2b0|      04                                       |  .             |        idx: 4 (valid) 0x2b2-0x2b2.7 (1)
     |                                               |                |      [2]{}: local_time_type 0x2b3-0x2b8.7 (6)
0x2b0|         00 00 1c 20                           |   ...          |        utoff: 7200 (valid) 0x2b3-0x2b6.7 (4)
0x2b0|                     00                        |       .        |        dst: 0 (valid) 0x2b7-0x2b7.7 (1)
0x2b0|                        09                     |        .       |        idx: 9 (valid) 0x2b8-0x2b8.7 (1)
     |                                               |                |      [3]{}: local_time_type 0x2b9-0x2be.7 (6)
0x2b0|                           00 00 2a 30         |         ..*0   |        utoff: 10800 (valid) 0x2b9-0x2bc.7 (4)
0x2b0|                                       01      |             .  |        dst: 1 (valid) 0x2bd-0x2bd.7 (1)
0x2b0|                                          04   |              . |        idx: 4 (valid) 0x2be-0x2be.7 (1)
     |                                               |                |    time_zone_designations[0:3]: 0x2bf-0x2cb.7 (13)
0x2b0|                                             4c|               L|      [0]: "LMT" time_zone_designation 0x2bf-0x2c2.7 (4)
0x2c0|4d 54 00                                       |MT.             |
0x2c0|         45 45 53 54 00                        |   EEST.        |      [1]: "EEST" time_zone_designation 0x2c3-0x2c7.7 (5)
0x2c0|                        45 45 54 00            |        EET.    |      [2]: "EET" time_zone_designation 0x2c8-0x2cb.7 (4)
     |                                               |                |    leap_second_records[0:0]: 0x2cc-NA (0)
     |                                               |                |    standard_wall_indicators[0:4]: 0x2cc-0x2cf.7 (4)
0x2c0|                                    00         |            .   |      [0]: 0 standard_wall_indicator (valid) 0x2cc-0x2cc.7 (1)
0x2c0|                                       00      |             .  |      [1]: 0 standard_wall_indicator (valid) 0x2cd-0x2cd.7 (1)
0x2c0|                                          00   |              . |      [2]: 0 standard_wall_indicator (valid) 0x2ce-0x2ce.7 (1)
0x2c0|                                             01|               .|      [3]: 1 standard_wall_indicator (valid) 0x2cf-0x2cf.7 (1)
     |                                               |                |    ut_local_indicators[0:0]: 0x2d0-NA (0)
     |                                               |                |  v2plusheader{}: 0x2d0-0x2fb.7 (44)
0x2d0|54 5a 69 66                                    |TZif            |    magic: 0x545a6966 (valid) 0x2d0-0x2d3.7 (4)
0x2d0|            32                                 |    2           |    ver: "2" (0x32) (valid) 0x2d4-0x2d4.7 (1)
0x2d0|               00 00 00 00 00 00 00 00 00 00 00|     ...........|    reserved: raw bits 0x2d5-0x2e3.7 (15)
0x2e0|00 00 00 00                                    |....            |
0x2e0|            00 00 00 00                        |    ....        |    isutcnt: 0 0x2e4-0x2e7.7 (4)
0x2e0|                        00 00 00 04            |        ....    |    isstdcnt: 4 0x2e8-0x2eb.7 (4)
0x2e0|                                    00 00 00 00|            ....|    leapcnt: 0 0x2ec-0x2ef.7 (4)
0x2f0|00 00 00 7f                                    |....            |    timecnt: 127 0x2f0-0x2f3.7 (4)
0x2f0|            00 00 00 04                        |    ....        |    typecnt: 4 0x2f4-0x2f7.7 (4)
0x2f0|                        00 00 00 0d            |        ....    |    charcnt: 13 0x2f8-0x2fb.7 (4)
     |                                               |                |  v2plusdatablock{}: 0x2fc-0x79b.7 (1184)
     |                                               |                |    transition_times[0:127]: 0x2fc-0x6f3.7 (1016)
0x2f0|                                    ff ff ff ff|            ....|      [0]: "1900-09-30T21:54:51Z" (-2185409109) transition_time 0x2fc-0x303.7 (8)
0x300|7d bd 4d ab                                    |}.M.            |
0x300|            ff ff ff ff c8 93 b4 e0            |    ........    |      [1]: "1940-07-14T22:00:00Z" (-929844000) transition_time 0x304-0x30b.7 (8)
0x300|                                    ff ff ff ff|            ....|      [2]: "1940-09-30T21:00:00Z" (-923108400) transition_time 0x30c-0x313.7 (8)
0x310|c8 fa 7b d0                                    |..{.            |
0x310|            ff ff ff ff c9 fc ef e0            |    ........    |      [3]: "1941-04-14T22:00:00Z" (-906170400) transition_time 0x314-0x31b.7 (8)
0x310|                                    ff ff ff ff|            ....|      [4]: "1941-09-15T21:00:00Z" (-892868400) transition_time 0x31c-0x323.7 (8)
0x320|ca c7 e8 d0                                    |....            |
0x320|            ff ff ff ff cb cb ae 60            |    .......`    |      [5]: "1942-03-31T22:00:00Z" (-875844000) transition_time 0x324-0x32b.7 (8)
0x320|                                    ff ff ff ff|            ....|      [6]: "1942-10-26T21:00:00Z" (-857790000) transition_time 0x32c-0x333.7 (8)
0x330|cc df 29 d0                                    |..).            |
0x330|            ff ff ff ff cd ac e1 e0            |    ........    |      [7]: "1943-03-31T22:00:00Z" (-844308000) transition_time 0x334-0x33b.7 (8)
0x330|                                    ff ff ff ff|            ....|      [8]: "1943-10-31T21:00:00Z" (-825822000) transition_time 0x33c-0x343.7 (8)
0x340|ce c6 f4 d0                                    |....            |
0x340|            ff ff ff ff cf 8f 66 e0            |    ......f.    |      [9]: "1944-03-31T22:00:00Z" (-812685600) transition_time 0x344-0x34b.7 (8)
0x340|                                    ff ff ff ff|            ....|      [10]: "1944-10-31T21:00:00Z" (-794199600) transition_time 0x34c-0x353.7 (8)
0x350|d0 a9 79 d0                                    |..y.            |
0x350|            ff ff ff ff d1 84 60 e0            |    ......`.    |      [11]: "1945-04-15T22:00:00Z" (-779853600) transition_time 0x354-0x35b.7 (8)
0x350|                                    ff ff ff ff|            ....|      [12]: "1945-10-31T21:00:00Z" (-762663600) transition_time 0x35c-0x363.7 (8)
0x360|d2 8a ad 50                                    |...P            |
0x360|            ff ff ff ff e8 36 63 60            |    .....6c`    |      [13]: "1957-05-09T22:00:00Z" (-399088800) transition_time 0x364-0x36b.7 (8)
0x360|                                    ff ff ff ff|            ....|      [14]: "1957-09-30T21:00:00Z" (-386650800) transition_time 0x36c-0x373.7 (8)
0x370|e8 f4 2d 50                                    |..-P            |
0x370|            ff ff ff ff ea 0b b9 60            |    .......`    |      [15]: "1958-04-30T22:00:00Z" (-368330400) transition_time 0x374-0x37b.7 (8)
0x370|                                    ff ff ff ff|            ....|      [16]: "1958-09-30T21:00:00Z" (-355114800) transition_time 0x37c-0x383.7 (8)
0x380|ea d5 60 d0                                    |..`.            |
0x380|            ff ff ff ff eb ec fa f0            |    ........    |      [17]: "1959-04-30T23:00:00Z" (-336790800) transition_time 0x384-0x38b.7 (8)
0x380|                                    ff ff ff ff|            ....|      [18]: "1959-09-30T00:00:00Z" (-323654400) transition_time 0x38c-0x393.7 (8)
0x390|ec b5 6d 00                                    |..m.            |
0x390|            ff ff ff ff ed cf 7f f0            |    ........    |      [19]: "1960-04-30T23:00:00Z" (-305168400) transition_time 0x394-0x39b.7 (8)
0x390|                                    ff ff ff ff|            ....|      [20]: "1960-09-30T00:00:00Z" (-292032000) transition_time 0x39c-0x3a3.7 (8)
0x3a0|ee 97 f2 00                                    |....            |
0x3a0|            ff ff ff ff ef b0 b3 70            |    .......p    |      [21]: "1961-04-30T23:00:00Z" (-273632400) transition_time 0x3a4-0x3ab.7 (8)
0x3a0|                                    ff ff ff ff|            ....|      [22]: "1961-09-30T00:00:00Z" (-260496000) transition_time 0x3ac-0x3b3.7 (8)
0x3b0|f0 79 25 80                                    |.y%.            |
0x3b0|            ff ff ff ff f1 91 e6 f0            |    ........    |      [23]: "1962-04-30T23:00:00Z" (-242096400) transition_time 0x3b4-0x3bb.7 (8)
0x3b0|                                    ff ff ff ff|            ....|      [24]: "1962-09-30T00:00:00Z" (-228960000) transition_time 0x3bc-0x3c3.7 (8)
0x3c0|f2 5a 59 00                                    |.ZY.            |
0x3c0|            ff ff ff ff f3 73 1a 70            |    .....s.p    |      [25]: "1963-04-30T23:00:00Z" (-210560400) transition_time 0x3c4-0x3cb.7 (8)
0x3c0|                                    ff ff ff ff|            ....|      [26]: "1963-09-30T00:00:00Z" (-197424000) transition_time 0x3cc-0x3d3.7 (8)
0x3d0|f4 3b 8c 80                                    |.;..            |
0x3d0|            ff ff ff ff f5 55 9f 70            |    .....U.p    |      [27]: "1964-04-30T23:00:00Z" (-178938000) transition_time 0x3d4-0x3db.7 (8)
0x3d0|                                    ff ff ff ff|            ....|      [28]: "1964-09-30T00:00:00Z" (-165801600) transition_time 0x3dc-0x3e3.7 (8)
0x3e0|f6 1e 11 80                                    |....            |
0x3e0|            ff ff ff ff f7 36 d2 f0            |    .....6..    |      [29]: "1965-04-30T23:00:00Z" (-147402000) transition_time 0x3e4-0x3eb.7 (8)
0x3e0|                                    ff ff ff ff|            ....|      [30]: "1965-09-30T00:00:00Z" (-134265600) transition_time 0x3ec-0x3f3.7 (8)
0x3f0|f7 ff 45 00                                    |..E.            |
0x3f0|            ff ff ff ff f9 18 06 70            |    .......p    |      [31]: "1966-04-30T23:00:00Z" (-115866000) transition_time 0x3f4-0x3fb.7 (8)
0x3f0|                                    ff ff ff ff|            ....|      [32]: "1966-10-01T00:00:00Z" (-102643200) transition_time 0x3fc-0x403.7 (8)
0x400|f9 e1 ca 00                                    |....            |
0x400|            ff ff ff ff fa f9 39 f0            |    ......9.    |      [33]: "1967-04-30T23:00:00Z" (-84330000) transition_time 0x404-0x40b.7 (8)
0x400|                                    ff ff ff ff|            ....|      [34]: "1967-10-01T00:00:00Z" (-71107200) transition_time 0x40c-0x413.7 (8)
0x410|fb c2 fd 80                                    |....            |
0x410|            ff ff ff ff fc db be f0            |    ........    |      [35]: "1968-04-30T23:00:00Z" (-52707600) transition_time 0x414-0x41b.7 (8)
0x410|                                    ff ff ff ff|            ....|      [36]: "1968-10-01T00:00:00Z" (-39484800) transition_time 0x41c-0x423.7 (8)
0x420|fd a5 82 80                                    |....            |
0x420|            ff ff ff ff fe bc f2 70            |    .......p    |      [37]: "1969-04-30T23:00:00Z" (-21171600) transition_time 0x424-0x42b.7 (8)
0x420|                                    ff ff ff ff|            ....|      [38]: "1969-10-01T00:00:00Z" (-7948800) transition_time 0x42c-0x433.7 (8)
0x430|ff 86 b6 00                                    |....            |
0x430|            00 00 00 00 00 9e 25 f0            |    ......%.    |      [39]: "1970-04-30T23:00:00Z" (10364400) transition_time 0x434-0x43b.7 (8)
0x430|                                    00 00 00 00|            ....|      [40]: "1970-10-01T00:00:00Z" (23587200) transition_time 0x43c-0x443.7 (8)
0x440|01 67 e9 80                                    |.g..            |
0x440|            00 00 00 00 02 7f 59 70            |    ......Yp    |      [41]: "1971-04-30T23:00:00Z" (41900400) transition_time 0x444-0x44b.7 (8)
0x440|                                    00 00 00 00|            ....|      [42]: "1971-10-01T00:00:00Z" (55123200) transition_time 0x44c-0x453.7 (8)
0x450|03 49 1d 00                                    |.I..            |
0x450|            00 00 00 00 04 61 de 70            |    .....a.p    |      [43]: "1972-04-30T23:00:00Z" (73522800) transition_time 0x454-0x45b.7 (8)
0x450|                                    00 00 00 00|            ....|      [44]: "1972-10-01T00:00:00Z" (86745600) transition_time 0x45c-0x463.7 (8)
0x460|05 2b a2 00                                    |.+..            |
0x460|            00 00 00 00 06 43 11 f0            |    .....C..    |      [45]: "1973-04-30T23:00:00Z" (105058800) transition_time 0x464-0x46b.7 (8)
0x460|                                    00 00 00 00|            ....|      [46]: "1973-10-01T00:00:00Z" (118281600) transition_time 0x46c-0x473.7 (8)
0x470|07 0c d5 80                                    |....            |
0x470|            00 00 00 00 08 24 45 70            |    .....$Ep    |      [47]: "1974-04-30T23:00:00Z" (136594800) transition_time 0x474-0x47b.7 (8)
0x470|                                    00 00 00 00|            ....|      [48]: "1974-10-01T00:00:00Z" (149817600) transition_time 0x47c-0x483.7 (8)
0x480|08 ee 09 00                                    |....            |
0x480|            00 00 00 00 0a 05 78 f0            |    ......x.    |      [49]: "1975-04-30T23:00:00Z" (168130800) transition_time 0x484-0x48b.7 (8)
0x480|                                    00 00 00 00|            ....|      [50]: "1975-10-01T00:00:00Z" (181353600) transition_time 0x48c-0x493.7 (8)
0x490|0a cf 3c 80                                    |..<.            |
0x490|            00 00 00 00 0b e7 fd f0            |    ........    |      [51]: "1976-04-30T23:00:00Z" (199753200) transition_time 0x494-0x49b.7 (8)
0x490|                                    00 00 00 00|            ....|      [52]: "1976-10-01T00:00:00Z" (212976000) transition_time 0x49c-0x4a3.7 (8)
0x4a0|0c b1 c1 80                                    |....            |
0x4a0|            00 00 00 00 0d c9 31 70            |    ......1p    |      [53]: "1977-04-30T23:00:00Z" (231289200) transition_time 0x4a4-0x4ab.7 (8)
0x4a0|                                    00 00 00 00|            ....|      [54]: "1977-10-01T00:00:00Z" (244512000) transition_time 0x4ac-0x4b3.7 (8)
0x4b0|0e 92 f5 00                                    |....            |
0x4b0|            00 00 00 00 0f aa 64 f0            |    ......d.    |      [55]: "1978-04-30T23:00:00Z" (262825200) transition_time 0x4b4-0x4bb.7 (8)
0x4b0|                                    00 00 00 00|            ....|      [56]: "1978-10-01T00:00:00Z" (276048000) transition_time 0x4bc-0x4c3.7 (8)
0x4c0|10 74 28 80                                    |.t(.            |
0x4c0|            00 00 00 00 11 8b 98 70            |    .......p    |      [57]: "1979-04-30T23:00:00Z" (294361200) transition_time 0x4c4-0x4cb.7 (8)
0x4c0|                                    00 00 00 00|            ....|      [58]: "1979-10-01T00:00:00Z" (307584000) transition_time 0x4cc-0x4d3.7 (8)
0x4d0|12 55 5c 00                                    |.U\.            |
0x4d0|            00 00 00 00 13 6e 1d 70            |    .....n.p    |      [59]: "1980-04-30T23:00:00Z" (325983600) transition_time 0x4d4-0x4db.7 (8)
0x4d0|                                    00 00 00 00|            ....|      [60]: "1980-10-01T00:00:00Z" (339206400) transition_time 0x4dc-0x4e3.7 (8)
0x4e0|14 37 e1 00                                    |.7..            |
0x4e0|            00 00 00 00 15 4f 50 f0            |    .....OP.    |      [61]: "1981-04-30T23:00:00Z" (357519600) transition_time 0x4e4-0x4eb.7 (8)
0x4e0|                                    00 00 00 00|            ....|      [62]: "1981-10-01T00:00:00Z" (370742400) transition_time 0x4ec-0x4f3.7 (8)
0x4f0|16 19 14 80                                    |....            |
0x4f0|            00 00 00 00 17 a0 93 f0            |    ........    |      [63]: "1982-07-24T23:00:00Z" (396399600) transition_time 0x4f4-0x4fb.7 (8)
0x4f0|                                    00 00 00 00|            ....|      [64]: "1982-10-01T00:00:00Z" (402278400) transition_time 0x4fc-0x503.7 (8)
0x500|17 fa 48 00                                    |..H.            |
0x500|            00 00 00 00 19 70 a3 f0            |    .....p..    |      [65]: "1983-07-11T23:00:00Z" (426812400) transition_time 0x504-0x50b.7 (8)
0x500|                                    00 00 00 00|            ....|      [66]: "1983-10-01T00:00:00Z" (433814400) transition_time 0x50c-0x513.7 (8)
0x510|19 db 7b 80                                    |..{.            |
0x510|            00 00 00 00 1a f4 3c f0            |    ......<.    |      [67]: "1984-04-30T23:00:00Z" (452214000) transition_time 0x514-0x51b.7 (8)
0x510|                                    00 00 00 00|            ....|      [68]: "1984-10-01T00:00:00Z" (465436800) transition_time 0x51c-0x523.7 (8)
0x520|1b be 00 80                                    |....            |
0x520|            00 00 00 00 1c d5 70 70            |    ......pp    |      [69]: "1985-04-30T23:00:00Z" (483750000) transition_time 0x524-0x52b.7 (8)
0x520|                                    00 00 00 00|            ....|      [70]: "1985-10-01T00:00:00Z" (496972800) transition_time 0x52c-0x533.7 (8)
0x530|1d 9f 34 00                                    |..4.            |
0x530|            00 00 00 00 1e b6 a3 f0            |    ........    |      [71]: "1986-04-30T23:00:00Z" (515286000) transition_time 0x534-0x53b.7 (8)
0x530|                                    00 00 00 00|            ....|      [72]: "1986-10-01T00:00:00Z" (528508800) transition_time 0x53c-0x543.7 (8)
0x540|1f 80 67 80                                    |..g.            |
0x540|            00 00 00 00 20 97 d7 70            |    .... ..p    |      [73]: "1987-04-30T23:00:00Z" (546822000) transition_time 0x544-0x54b.7 (8)
0x540|                                    00 00 00 00|            ....|      [74]: "1987-10-01T00:00:00Z" (560044800) transition_time 0x54c-0x553.7 (8)
0x550|21 61 9b 00                                    |!a..            |
0x550|            00 00 00 00 22 7a 5c 70            |    ...."z\p    |      [75]: "1988-04-30T23:00:00Z" (578444400) transition_time 0x554-0x55b.7 (8)
0x550|                                    00 00 00 00|            ....|      [76]: "1988-10-01T00:00:00Z" (591667200) transition_time 0x55c-0x563.7 (8)
0x560|23 44 20 00                                    |#D .            |
0x560|            00 00 00 00 24 62 27 70            |    ....$b'p    |      [77]: "1989-05-05T23:00:00Z" (610412400) transition_time 0x564-0x56b.7 (8)
0x560|                                    00 00 00 00|            ....|      [78]: "1989-10-01T00:00:00Z" (623203200) transition_time 0x56c-0x573.7 (8)
0x570|25 25 53 80                                    |%%S.            |
0x570|            00 00 00 00 26 3c c3 70            |    ....&<.p    |      [79]: "1990-04-30T23:00:00Z" (641516400) transition_time 0x574-0x57b.7 (8)
0x570|                                    00 00 00 00|            ....|      [80]: "1990-10-01T00:00:00Z" (654739200) transition_time 0x57c-0x583.7 (8)
0x580|27 06 87 00                                    |'...            |
0x580|            00 00 00 00 28 1d f6 f0            |    ....(...    |      [81]: "1991-04-30T23:00:00Z" (673052400) transition_time 0x584-0x58b.7 (8)
0x580|                                    00 00 00 00|            ....|      [82]: "1991-10-01T00:00:00Z" (686275200) transition_time 0x58c-0x593.7 (8)
0x590|28 e7 ba 80                                    |(...            |
0x590|            00 00 00 00 2a 00 7b f0            |    ....*.{.    |      [83]: "1992-04-30T23:00:00Z" (704674800) transition_time 0x594-0x59b.7 (8)
0x590|                                    00 00 00 00|            ....|      [84]: "1992-10-01T00:00:00Z" (717897600) transition_time 0x59c-0x5a3.7 (8)
0x5a0|2a ca 3f 80                                    |*.?.            |
0x5a0|            00 00 00 00 2b e1 af 70            |    ....+..p    |      [85]: "1993-04-30T23:00:00Z" (736210800) transition_time 0x5a4-0x5ab.7 (8)
0x5a0|                                    00 00 00 00|            ....|      [86]: "1993-10-01T00:00:00Z" (749433600) transition_time 0x5ac-0x5b3.7 (8)
0x5b0|2c ab 73 00                                    |,.s.            |
0x5b0|            00 00 00 00 2d c2 e2 f0            |    ....-...    |      [87]: "1994-04-30T23:00:00Z" (767746800) transition_time 0x5b4-0x5bb.7 (8)
0x5b0|                                    00 00 00 00|            ....|      [88]: "1994-10-01T00:00:00Z" (780969600) transition_time 0x5bc-0x5c3.7 (8)
0x5c0|2e 8c a6 80                                    |....            |
0x5c0|            00 00 00 00 2f a0 13 e0            |    ..../...    |      [89]: "1995-04-27T22:00:00Z" (799020000) transition_time 0x5c4-0x5cb.7 (8)
0x5c0|                                    00 00 00 00|            ....|      [90]: "1995-09-28T21:00:00Z" (812322000) transition_time 0x5cc-0x5d3.7 (8)
0x5d0|30 6b 0c d0                                    |0k..            |
0x5d0|            00 00 00 00 31 7f f5 e0            |    ....1...    |      [91]: "1996-04-25T22:00:00Z" (830469600) transition_time 0x5d4-0x5db.7 (8)
0x5d0|                                    00 00 00 00|            ....|      [92]: "1996-09-26T21:00:00Z" (843771600) transition_time 0x5dc-0x5e3.7 (8)
0x5e0|32 4a ee d0                                    |2J..            |
0x5e0|            00 00 00 00 33 5f d7 e0            |    ....3_..    |      [93]: "1997-04-24T22:00:00Z" (861919200) transition_time 0x5e4-0x5eb.7 (8)
0x5e0|                                    00 00 00 00|            ....|      [94]: "1997-09-25T21:00:00Z" (875221200) transition_time 0x5ec-0x5f3.7 (8)
0x5f0|34 2a d0 d0                                    |4*..            |
0x5f0|            00 00 00 00 35 3f b9 e0            |    ....5?..    |      [95]: "1998-04-23T22:00:00Z" (893368800) transition_time 0x5f4-0x5fb.7 (8)
0x5f0|                                    00 00 00 00|            ....|      [96]: "1998-09-24T21:00:00Z" (906670800) transition_time 0x5fc-0x603.7 (8)
0x600|36 0a b2 d0                                    |6...            |
0x600|            00 00 00 00 37 28 d6 60            |    ....7(.`    |      [97]: "1999-04-29T22:00:00Z" (925423200) transition_time 0x604-0x60b.7 (8)
0x600|                                    00 00 00 00|            ....|      [98]: "1999-09-30T21:00:00Z" (938725200) transition_time 0x60c-0x613.7 (8)
0x610|37 f3 cf 50                                    |7..P            |
0x610|            00 00 00 00 39 08 b8 60            |    ....9..`    |      [99]: "2000-04-27T22:00:00Z" (956872800) transition_time 0x614-0x61b.7 (8)
0x610|                                    00 00 00 00|            ....|      [100]: "2000-09-28T21:00:00Z" (970174800) transition_time 0x61c-0x623.7 (8)
0x620|39 d3 b1 50                                    |9..P            |
0x620|            00 00 00 00 3a e8 9a 60            |    ....:..`    |      [101]: "2001-04-26T22:00:00Z" (988322400) transition_time 0x624-0x62b.7 (8)
0x620|                                    00 00 00 00|            ....|      [102]: "2001-09-27T21:00:00Z" (1001624400) transition_time 0x62c-0x633.7 (8)
0x630|3b b3 93 50                                    |;..P            |
0x630|            00 00 00 00 3c c8 7c 60            |    ....<.|`    |      [103]: "2002-04-25T22:00:00Z" (1019772000) transition_time 0x634-0x63b.7 (8)
0x630|                                    00 00 00 00|            ....|      [104]: "2002-09-26T21:00:00Z" (1033074000) transition_time 0x63c-0x643.7 (8)
0x640|3d 93 75 50                                    |=.uP            |
0x640|            00 00 00 00 3e a8 5e 60            |    ....>.^`    |      [105]: "2003-04-24T22:00:00Z" (1051221600) transition_time 0x644-0x64b.7 (8)
0x640|                                    00 00 00 00|            ....|      [106]: "2003-09-25T21:00:00Z" (1064523600) transition_time 0x64c-0x653.7 (8)
0x650|3f 73 57 50                                    |?sWP            |
0x650|            00 00 00 00 40 91 7a e0            |    ....@.z.    |      [107]: "2004-04-29T22:00:00Z" (1083276000) transition_time 0x654-0x65b.7 (8)
0x650|                                    00 00 00 00|            ....|      [108]: "2004-09-30T21:00:00Z" (1096578000) transition_time 0x65c-0x663.7 (8)
0x660|41 5c 73 d0                                    |A\s.            |
0x660|            00 00 00 00 42 71 5c e0            |    ....Bq\.    |      [109]: "2005-04-28T22:00:00Z" (1114725600) transition_time 0x664-0x66b.7 (8)
0x660|                                    00 00 00 00|            ....|      [110]: "2005-09-29T21:00:00Z" (1128027600) transition_time 0x66c-0x673.7 (8)
0x670|43 3c 55 d0                                    |C<U.            |
0x670|            00 00 00 00 44 51 3e e0            |    ....DQ>.    |      [111]: "2006-04-27T22:00:00Z" (1146175200) transition_time 0x674-0x67b.7 (8)
0x670|                                    00 00 00 00|            ....|      [112]: "2006-09-21T21:00:00Z" (1158872400) transition_time 0x67c-0x683.7 (8)
0x680|45 12 fd 50                                    |E..P            |
0x680|            00 00 00 00 46 31 20 e0            |    ....F1 .    |      [113]: "2007-04-26T22:00:00Z" (1177624800) transition_time 0x684-0x68b.7 (8)
0x680|                                    00 00 00 00|            ....|      [114]: "2007-09-06T21:00:00Z" (1189112400) transition_time 0x68c-0x693.7 (8)
0x690|46 e0 6a 50                                    |F.jP            |
0x690|            00 00 00 00 48 11 02 e0            |    ....H...    |      [115]: "2008-04-24T22:00:00Z" (1209074400) transition_time 0x694-0x69b.7 (8)
0x690|                                    00 00 00 00|            ....|      [116]: "2008-08-28T21:00:00Z" (1219957200) transition_time 0x69c-0x6a3.7 (8)
0x6a0|48 b7 11 d0                                    |H...            |
0x6a0|            00 00 00 00 49 f0 e4 e0            |    ....I...    |      [117]: "2009-04-23T22:00:00Z" (1240524000) transition_time 0x6a4-0x6ab.7 (8)
0x6a0|                                    00 00 00 00|            ....|      [118]: "2009-08-20T21:00:00Z" (1250802000) transition_time 0x6ac-0x6b3.7 (8)
0x6b0|4a 8d b9 50                                    |J..P            |
0x6b0|            00 00 00 00 4b da 01 60            |    ....K..`    |      [119]: "2010-04-29T22:00:00Z" (1272578400) transition_time 0x6b4-0x6bb.7 (8)
0x6b0|                                    00 00 00 00|            ....|      [120]: "2010-08-10T21:00:00Z" (1281474000) transition_time 0x6bc-0x6c3.7 (8)
0x6c0|4c 61 bd d0                                    |La..            |
0x6c0|            00 00 00 00 4c 89 58 e0            |    ....L.X.    |      [121]: "2010-09-09T22:00:00Z" (1284069600) transition_time 0x6c4-0x6cb.7 (8)
0x6c0|                                    00 00 00 00|            ....|      [122]: "2010-09-30T21:00:00Z" (1285880400) transition_time 0x6cc-0x6d3.7 (8)
0x6d0|4c a4 fa 50                                    |L..P            |
0x6d0|            00 00 00 00 53 75 38 e0            |    ....Su8.    |      [123]: "2014-05-15T22:00:00Z" (1400191200) transition_time 0x6d4-0x6db.7 (8)
0x6d0|                                    00 00 00 00|            ....|      [124]: "2014-06-26T21:00:00Z" (1403816400) transition_time 0x6dc-0x6e3.7 (8)
0x6e0|53 ac 89 d0                                    |S...            |
0x6e0|            00 00 00 00 53 da bc 60            |    ....S..`    |      [125]: "2014-07-31T22:00:00Z" (1406844000) transition_time 0x6e4-0x6eb.7 (8)
0x6e0|                                    00 00 00 00|            ....|      [126]: "2014-09-25T21:00:00Z" (1411678800) transition_time 0x6ec-0x6f3.7 (8)
0x6f0|54 24 82 50                                    |T$.P            |
     |                                               |                |    transition_types[0:127]: 0x6f4-0x772.7 (127)
0x6f0|            02                                 |    .           |      [0]: 2 transition_type 0x6f4-0x6f4.7 (1)
0x6f0|               01                              |     .          |      [1]: 1 transition_type 0x6f5-0x6f5.7 (1)
0x6f0|                  02                           |      .         |      [2]: 2 transition_type 0x6f6-0x6f6.7 (1)
0x6f0|                     01                        |       .        |      [3]: 1 transition_type 0x6f7-0x6f7.7 (1)
0x6f0|                        02                     |        .       |      [4]: 2 transition_type 0x6f8-0x6f8.7 (1)
0x6f0|                           01                  |         .      |      [5]: 1 transition_type 0x6f9-0x6f9.7 (1)
0x6f0|                              02               |          .     |      [6]: 2 transition_type 0x6fa-0x6fa.7 (1)
0x6f0|                                 01            |           .    |      [7]: 1 transition_type 0x6fb-0x6fb.7 (1)
0x6f0|                                    02         |            .   |      [8]: 2 transition_type 0x6fc-0x6fc.7 (1)
0x6f0|                                       01      |             .  |      [9]: 1 transition_type 0x6fd-0x6fd.7 (1)
0x6f0|                                          02   |              . |      [10]: 2 transition_type 0x6fe-0x6fe.7 (1)
0x6f0|                                             01|               .|      [11]: 1 transition_type 0x6ff-0x6ff.7 (1)
0x700|02                                             |.               |      [12]: 2 transition_type 0x700-0x700.7 (1)
0x700|   01                                          | .              |      [13]: 1 transition_type 0x701-0x701.7 (1)
0x700|      02                                       |  .             |      [14]: 2 transition_type 0x702-0x702.7 (1)
0x700|         01                                    |   .            |      [15]: 1 transition_type 0x703-0x703.7 (1)
0x700|            02                                 |    .           |      [16]: 2 transition_type 0x704-0x704.7 (1)
0x700|               01                              |     .          |      [17]: 1 transition_type 0x705-0x705.7 (1)
0x700|                  02                           |      .         |      [18]: 2 transition_type 0x706-0x706.7 (1)
0x700|                     01                        |       .        |      [19]: 1 transition_type 0x707-0x707.7 (1)
0x700|                        02                     |        .       |      [20]: 2 transition_type 0x708-0x708.7 (1)
0x700|                           01                  |         .      |      [21]: 1 transition_type 0x709-0x709.7 (1)
0x700|                              02               |          .     |      [22]: 2 transition_type 0x70a-0x70a.7 (1)
0x700|                                 01            |           .    |      [23]: 1 transition_type 0x70b-0x70b.7 (1)
0x700|                                    02         |            .   |      [24]: 2 transition_type 0x70c-0x70c.7 (1)
0x700|                                       01      |             .  |      [25]: 1 transition_type 0x70d-0x70d.7 (1)
0x700|                                          02   |              . |      [26]: 2 transition_type 0x70e-0x70e.7 (1)
0x700|                                             01|               .|      [27]: 1 transition_type 0x70f-0x70f.7 (1)
0x710|02                                             |.               |      [28]: 2 transition_type 0x710-0x710.7 (1)
0x710|   01                                          | .              |      [29]: 1 transition_type 0x711-0x711.7 (1)
0x710|      02                                       |  .             |      [30]: 2 transition_type 0x712-0x712.7 (1)
0x710|         01                                    |   .            |      [31]: 1 transition_type 0x713-0x713.7 (1)
0x710|            02                                 |    .           |      [32]: 2 transition_type 0x714-0x714.7 (1)
0x710|               01                              |     .          |      [33]: 1 transition_type 0x715-0x715.7 (1)
0x710|                  02                           |      .         |      [34]: 2 transition_type 0x716-0x716.7 (1)
0x710|                     01                        |       .        |      [35]: 1 transition_type 0x717-0x717.7 (1)
0x710|                        02                     |        .       |      [36]: 2 transition_type 0x718-0x718.7 (1)
0x710|                           01                  |         .      |      [37]: 1 transition_type 0x719-0x719.7 (1)
0x710|                              02               |          .     |      [38]: 2 transition_type 0x71a-0x71a.7 (1)
0x710|                                 01            |           .    |      [39]: 1 transition_type 0x71b-0x71b.7 (1)
0x710|                                    02         |            .   |      [40]: 2 transition_type 0x71c-0x71c.7 (1)
0x710|                                       01      |             .  |      [41]: 1 transition_type 0x71d-0x71d.7 (1)
0x710|                                          02   |              . |      [42]: 2 transition_type 0x71e-0x71e.7 (1)
0x710|                                             01|               .|      [43]: 1 transition_type 0x71f-0x71f.7 (1)
0x720|02                                             |.               |      [44]: 2 transition_type 0x720-0x720.7 (1)
0x720|   01                                          | .              |      [45]: 1 transition_type 0x721-0x721.7 (1)
0x720|      02                                       |  .             |      [46]: 2 transition_type 0x722-0x722.7 (1)
0x720|         01                                    |   .            |      [47]: 1 transition_type 0x723-0x723.7 (1)
0x720|            02                                 |    .           |      [48]: 2 transition_type 0x724-0x724.7 (1)
0x720|               01                              |     .          |      [49]: 1 transition_type 0x725-0x725.7 (1)
0x720|                  02                           |      .         |      [50]: 2 transition_type 0x726-0x726.7 (1)
0x720|                     01                        |       .        |      [51]: 1 transition_type 0x727-0x727.7 (1)
0x720|                        02                     |        .       |      [52]: 2 transition_type 0x728-0x728.7 (1)
0x720|                           01                  |         .      |      [53]: 1 transition_type 0x729-0x729.7 (1)
0x720|                              02               |          .     |      [54]: 2 transition_type 0x72a-0x72a.7 (1)
0x720|                                 01            |           .    |      [55]: 1 transition_type 0x72b-0x72b.7 (1)
0x720|                                    02         |            .   |      [56]: 2 transition_type 0x72c-0x72c.7 (1)
0x720|                                       01      |             .  |      [57]: 1 transition_type 0x72d-0x72d.7 (1)
0x720|                                          02   |              . |      [58]: 2 transition_type 0x72e-0x72e.7 (1)
0x720|                                             01|               .|      [59]: 1 transition_type 0x72f-0x72f.7 (1)
0x730|02                                             |.               |      [60]: 2 transition_type 0x730-0x730.7 (1)
0x730|   01                                          | .              |      [61]: 1 transition_type 0x731-0x731.7 (1)
0x730|      02                                       |  .             |      [62]: 2 transition_type 0x732-0x732.7 (1)
0x730|         01                                    |   .            |      [63]: 1 transition_type 0x733-0x733.7 (1)
0x730|            02                                 |    .           |      [64]: 2 transition_type 0x734-0x734.7 (1)
0x730|               01                              |     .          |      [65]: 1 transition_type 0x735-0x735.7 (1)
0x730|                  02                           |      .         |      [66]: 2 transition_type 0x736-0x736.7 (1)
0x730|                     01                        |       .        |      [67]: 1 transition_type 0x737-0x737.7 (1)
0x730|                        02                     |        .       |      [68]: 2 transition_type 0x738-0x738.7 (1)
0x730|                           01                  |         .      |      [69]: 1 transition_type 0x739-0x739.7 (1)
0x730|                              02               |          .     |      [70]: 2 transition_type 0x73a-0x73a.7 (1)
0x730|                                 01            |           .    |      [71]: 1 transition_type 0x73b-0x73b.7 (1)
0x730|                                    02         |            .   |      [72]: 2 transition_type 0x73c-0x73c.7 (1)
0x730|                                       01      |             .  |      [73]: 1 transition_type 0x73d-0x73d.7 (1)
0x730|                                          02   |              . |      [74]: 2 transition_type 0x73e-0x73e.7 (1)
0x730|                                             01|               .|      [75]: 1 transition_type 0x73f-0x73f.7 (1)
0x740|02                                             |.               |      [76]: 2 transition_type 0x740-0x740.7 (1)
0x740|   01                                          | .              |      [77]: 1 transition_type 0x741-0x741.7 (1)
0x740|      02                                       |  .             |      [78]: 2 transition_type 0x742-0x742.7 (1)
0x740|         01                                    |   .            |      [79]: 1 transition_type 0x743-0x743.7 (1)
0x740|            02                                 |    .           |      [80]: 2 transition_type 0x744-0x744.7 (1)
0x740|               01                              |     .          |      [81]: 1 transition_type 0x745-0x745.7 (1)
0x740|                  02                           |      .         |      [82]: 2 transition_type 0x746-0x746.7 (1)
0x740|                     01                        |       .        |      [83]: 1 transition_type 0x747-0x747.7 (1)
0x740|                        02                     |        .       |      [84]: 2 transition_type 0x748-0x748.7 (1)
0x740|                           01                  |         .      |      [85]: 1 transition_type 0x749-0x749.7 (1)
0x740|                              02               |          .     |      [86]: 2 transition_type 0x74a-0x74a.7 (1)
0x740|                                 01            |           .    |      [87]: 1 transition_type 0x74b-0x74b.7 (1)
0x740|                                    02         |            .   |      [88]: 2 transition_type 0x74c-0x74c.7 (1)
0x740|                                       03      |             .  |      [89]: 3 transition_type 0x74d-0x74d.7 (1)
0x740|                                          02   |              . |      [90]: 2 transition_type 0x74e-0x74e.7 (1)
0x740|                                             03|               .|      [91]: 3 transition_type 0x74f-0x74f.7 (1)
0x750|02                                             |.               |      [92]: 2 transition_type 0x750-0x750.7 (1)
0x750|   03                                          | .              |      [93]: 3 transition_type 0x751-0x751.7 (1)
0x750|      02                                       |  .             |      [94]: 2 transition_type 0x752-0x752.7 (1)
0x750|         03                                    |   .            |      [95]: 3 transition_type 0x753-0x753.7 (1)
0x750|            02                                 |    .           |      [96]: 2 transition_type 0x754-0x754.7 (1)
0x750|               03                              |     .          |      [97]: 3 transition_type 0x755-0x755.7 (1)
0x750|                  02                           |      .         |      [98]: 2 transition_type 0x756-0x756.7 (1)
0x750|                     03                        |       .        |      [99]: 3 transition_type 0x757-0x757.7 (1)
0x750|                        02                     |        .       |      [100]: 2 transition_type 0x758-0x758.7 (1)
0x750|                           03                  |         .      |      [101]: 3 transition_type 0x759-0x759.7 (1)
0x750|                              02               |          .     |      [102]: 2 transition_type 0x75a-0x75a.7 (1)
0x750|                                 03            |           .    |      [103]: 3 transition_type 0x75b-0x75b.7 (1)
0x750|                                    02         |            .   |      [104]: 2 transition_type 0x75c-0x75c.7 (1)
0x750|                                       03      |             .  |      [105]: 3 transition_type 0x75d-0x75d.7 (1)
0x750|                                          02   |              . |      [106]: 2 transition_type 0x75e-0x75e.7 (1)
0x750|                                             03|               .|      [107]: 3 transition_type 0x75f-0x75f.7 (1)
0x760|02                                             |.               |      [108]: 2 transition_type 0x760-0x760.7 (1)
0x760|   03                                          | .              |      [109]: 3 transition_type 0x761-0x761.7 (1)
0x760|      02                                       |  .             |      [110]: 2 transition_type 0x762-0x762.7 (1)
0x760|         03                                    |   .            |      [111]: 3 transition_type 0x763-0x763.7 (1)
0x760|            02                                 |    .           |      [112]: 2 transition_type 0x764-0x764.7 (1)
0x760|               03                              |     .          |      [113]: 3 transition_type 0x765-0x765.7 (1)
0x760|                  02                           |      .         |      [114]: 2 transition_type 0x766-0x766.7 (1)
0x760|                     03                        |       .        |      [115]: 3 transition_type 0x767-0x767.7 (1)
0x760|                        02                     |        .       |      [116]: 2 transition_type 0x768-0x768.7 (1)
0x760|                           03                  |         .      |      [117]: 3 transition_type 0x769-0x769.7 (1)
0x760|                              02               |          .     |      [118]: 2 transition_type 0x76a-0x76a.7 (1)
0x760|                                 03            |           .    |      [119]: 3 transition_type 0x76b-0x76b.7 (1)
0x760|                                    02         |            .   |      [120]: 2 transition_type 0x76c-0x76c.7 (1)
0x760|                                       01      |             .  |      [121]: 1 transition_type 0x76d-0x76d.7 (1)
0x760|                                          02   |              . |      [122]: 2 transition_type 0x76e-0x76e.7 (1)
0x760|                                             01|               .|      [123]: 1 transition_type 0x76f-0x76f.7 (1)
0x770|02                                             |.               |      [124]: 2 transition_type 0x770-0x770.7 (1)
0x770|   01                                          | .              |      [125]: 1 transition_type 0x771-0x771.7 (1)
0x770|      02                                       |  .             |      [126]: 2 transition_type 0x772-0x772.7 (1)
     |                                               |                |    local_time_type_records[0:4]: 0x773-0x78a.7 (24)
     |                                               |                |      [0]{}: local_time_type 0x773-0x778.7 (6)
0x770|         00 00 1d 55                           |   ...U         |        utoff: 7509 (valid) 0x773-0x776.7 (4)
0x770|                     00                        |       .        |        dst: 0 (valid) 0x777-0x777.7 (1)
0x770|                        00                     |        .       |        idx: 0 (valid) 0x778-0x778.7 (1)
     |                                               |                |      [1]{}: local_time_type 0x779-0x77e.7 (6)
0x770|                           00 00 2a 30         |         ..*0   |        utoff: 10800 (valid) 0x779-0x77c.7 (4)
0x770|                                       01      |             .  |        dst: 1 (valid) 0x77d-0x77d.7 (1)
0x770|                                          04   |              . |        idx: 4 (valid) 0x77e-0x77e.7 (1)
     |                                               |                |      [2]{}: local_time_type 0x77f-0x784.7 (6)
0x770|                                             00|               .|        utoff: 7200 (valid) 0x77f-0x782.7 (4)
0x780|00 1c 20                                       |..              |
0x780|         00                                    |   .            |        dst: 0 (valid) 0x783-0x783.7 (1)
0x780|            09                                 |    .           |        idx: 9 (valid) 0x784-0x784.7 (1)
     |                                               |                |      [3]{}: local_time_type 0x785-0x78a.7 (6)
0x780|               00 00 2a 30                     |     ..*0       |        utoff: 10800 (valid) 0x785-0x788.7 (4)
0x780|                           01                  |         .      |        dst: 1 (valid) 0x789-0x789.7 (1)
0x780|                              04               |          .     |        idx: 4 (valid) 0x78a-0x78a.7 (1)
     |                                               |                |    time_zone_designations[0:3]: 0x78b-0x797.7 (13)
0x780|                                 4c 4d 54 00   |           LMT. |      [0]: "LMT" time_zone_designation 0x78b-0x78e.7 (4)
0x780|                                             45|               E|      [1]: "EEST" time_zone_designation 0x78f-0x793.7 (5)
0x790|45 53 54 00                                    |EST.            |
0x790|            45 45 54 00                        |    EET.        |      [2]: "EET" time_zone_designation 0x794-0x797.7 (4)
     |                                               |                |    leap_second_records[0:0]: 0x798-NA (0)
     |                                               |                |    standard_wall_indicators[0:4]: 0x798-0x79b.7 (4)
0x790|                        00                     |        .       |      [0]: 0 standard_wall_indicator (valid) 0x798-0x798.7 (1)
0x790|                           00                  |         .      |      [1]: 0 standard_wall_indicator (valid) 0x799-0x799.7 (1)
0x790|                              00               |          .     |      [2]: 0 standard_wall_indicator (valid) 0x79a-0x79a.7 (1)
0x790|                                 01            |           .    |      [3]: 1 standard_wall_indicator (valid) 0x79b-0x79b.7 (1)
     |                                               |                |    ut_local_indicators[0:0]: 0x79c-NA (0)
     |                                               |                |  footer{}: 0x79c-0x7a2.7 (7)
0x790|                                    0a         |            .   |    nl1: 10 (valid) 0x79c-0x79c.7 (1)
0x790|                                       45 45 54|             EET|    tz_string: "EET-2" 0x79d-0x7a1.7 (5)
0x7a0|2d 32                                          |-2              |
0x7a0|      0a|                                      |  .|            |    nl2: 10 (valid) 0x7a2-0x7a2.7 (1)
