$ fq -d tzif dv Cambridge_Bay
     |00 01 02 03 04 05 06 07 08 09 0a 0b 0c 0d 0e 0f|0123456789abcdef|.{}: Cambridge_Bay (tzif) 0x0-0x8a1.7 (2210)
     |                                               |                |  v1header{}: 0x0-0x2b.7 (44)
0x000|54 5a 69 66                                    |TZif            |    magic: 0x545a6966 (valid) 0x0-0x3.7 (4)
0x000|            32                                 |    2           |    ver: "2" (0x32) (valid) 0x4-0x4.7 (1)
0x000|               00 00 00 00 00 00 00 00 00 00 00|     ...........|    reserved: raw bits 0x5-0x13.7 (15)
0x010|00 00 00 00                                    |....            |
0x010|            00 00 00 0b                        |    ....        |    isutcnt: 11 0x14-0x17.7 (4)
0x010|                        00 00 00 0b            |        ....    |    isstdcnt: 11 0x18-0x1b.7 (4)
0x010|                                    00 00 00 1b|            ....|    leapcnt: 27 0x1c-0x1f.7 (4)
0x020|00 00 00 5f                                    |..._            |    timecnt: 95 0x20-0x23.7 (4)
0x020|            00 00 00 0b                        |    ....        |    typecnt: 11 0x24-0x27.7 (4)
0x020|                        00 00 00 25            |        ...%    |    charcnt: 37 0x28-0x2b.7 (4)
     |                                               |                |  v1datablock{}: 0x2c-0x35b.7 (816)
     |                                               |                |    transition_times[0:95]: 0x2c-0x1a7.7 (380)
0x020|                                    a1 f2 cd 80|            ....|      [0]: "1920-01-01T00:00:00Z" (-1577923200) transition_time 0x2c-0x2f.7 (4)
0x030|cb 89 0c 90                                    |....            |      [1]: "1942-02-09T09:00:00Z" (-880210800) transition_time 0x30-0x33.7 (4)
0x030|            d2 23 f4 70                        |    .#.p        |      [2]: "1945-08-14T23:00:00Z" (-769395600) transition_time 0x34-0x37.7 (4)
0x030|                        d2 61 18 00            |        .a..    |      [3]: "1945-09-30T08:00:00Z" (-765388800) transition_time 0x38-0x3b.7 (4)
0x030|                                    f7 2f 5a 70|            ./Zp|      [4]: "1965-04-25T07:00:00Z" (-147891600) transition_time 0x3c-0x3f.7 (4)
0x040|f8 28 85 f0                                    |.(..            |      [5]: "1965-10-31T07:00:00Z" (-131562000) transition_time 0x40-0x43.7 (4)
0x040|            13 69 64 19                        |    .id.        |      [6]: "1980-04-27T09:00:09Z" (325674009) transition_time 0x44-0x47.7 (4)
0x040|                        14 59 47 09            |        .YG.    |      [7]: "1980-10-26T08:00:09Z" (341395209) transition_time 0x48-0x4b.7 (4)
0x040|                                    15 49 46 19|            .IF.|      [8]: "1981-04-26T09:00:09Z" (357123609) transition_time 0x4c-0x4f.7 (4)
0x050|16 39 29 0a                                    |.9).            |      [9]: "1981-10-25T08:00:10Z" (372844810) transition_time 0x50-0x53.7 (4)
0x050|            17 29 28 1a                        |    .)(.        |      [10]: "1982-04-25T09:00:10Z" (388573210) transition_time 0x54-0x57.7 (4)
0x050|                        18 22 45 8b            |        ."E.    |      [11]: "1982-10-31T08:00:11Z" (404899211) transition_time 0x58-0x5b.7 (4)
0x050|                                    19 09 0a 1b|            ....|      [12]: "1983-04-24T09:00:11Z" (420022811) transition_time 0x5c-0x5f.7 (4)
0x060|1a 02 27 8c                                    |..'.            |      [13]: "1983-10-30T08:00:12Z" (436348812) transition_time 0x60-0x63.7 (4)
0x060|            1a f2 26 9c                        |    ..&.        |      [14]: "1984-04-29T09:00:12Z" (452077212) transition_time 0x64-0x67.7 (4)
0x060|                        1b e2 09 8c            |        ....    |      [15]: "1984-10-28T08:00:12Z" (467798412) transition_time 0x68-0x6b.7 (4)
0x060|                                    1c d2 08 9c|            ....|      [16]: "1985-04-28T09:00:12Z" (483526812) transition_time 0x6c-0x6f.7 (4)
0x070|1d c1 eb 8d                                    |....            |      [17]: "1985-10-27T08:00:13Z" (499248013) transition_time 0x70-0x73.7 (4)
0x070|            1e b1 ea 9d                        |    ....        |      [18]: "1986-04-27T09:00:13Z" (514976413) transition_time 0x74-0x77.7 (4)
0x070|                        1f a1 cd 8d            |        ....    |      [19]: "1986-10-26T08:00:13Z" (530697613) transition_time 0x78-0x7b.7 (4)
0x070|                                    20 76 1d 1d|             v..|      [20]: "1987-04-05T09:00:13Z" (544611613) transition_time 0x7c-0x7f.7 (4)
0x080|21 81 af 8d                                    |!...            |      [21]: "1987-10-25T08:00:13Z" (562147213) transition_time 0x80-0x83.7 (4)
0x080|            22 55 ff 1e                        |    "U..        |      [22]: "1988-04-03T09:00:14Z" (576061214) transition_time 0x84-0x87.7 (4)
0x080|                        23 6a cc 0e            |        #j..    |      [23]: "1988-10-30T08:00:14Z" (594201614) transition_time 0x88-0x8b.7 (4)
0x080|                                    24 35 e1 1e|            $5..|      [24]: "1989-04-02T09:00:14Z" (607510814) transition_time 0x8c-0x8f.7 (4)
0x090|25 4a ae 0e                                    |%J..            |      [25]: "1989-10-29T08:00:14Z" (625651214) transition_time 0x90-0x93.7 (4)
0x090|            26 15 c3 1f                        |    &...        |      [26]: "1990-04-01T09:00:15Z" (638960415) transition_time 0x94-0x97.7 (4)
0x090|                        27 2a 90 0f            |        '*..    |      [27]: "1990-10-28T08:00:15Z" (657100815) transition_time 0x98-0x9b.7 (4)
0x090|                                    27 fe df a0|            '...|      [28]: "1991-04-07T09:00:16Z" (671014816) transition_time 0x9c-0x9f.7 (4)
0x0a0|29 0a 72 10                                    |).r.            |      [29]: "1991-10-27T08:00:16Z" (688550416) transition_time 0xa0-0xa3.7 (4)
0x0a0|            29 de c1 a0                        |    )...        |      [30]: "1992-04-05T09:00:16Z" (702464416) transition_time 0xa4-0xa7.7 (4)
0x0a0|                        2a ea 54 11            |        *.T.    |      [31]: "1992-10-25T08:00:17Z" (720000017) transition_time 0xa8-0xab.7 (4)
0x0a0|                                    2b be a3 a1|            +...|      [32]: "1993-04-04T09:00:17Z" (733914017) transition_time 0xac-0xaf.7 (4)
0x0b0|2c d3 70 92                                    |,.p.            |      [33]: "1993-10-31T08:00:18Z" (752054418) transition_time 0xb0-0xb3.7 (4)
0x0b0|            2d 9e 85 a2                        |    -...        |      [34]: "1994-04-03T09:00:18Z" (765363618) transition_time 0xb4-0xb7.7 (4)
0x0b0|                        2e b3 52 93            |        ..R.    |      [35]: "1994-10-30T08:00:19Z" (783504019) transition_time 0xb8-0xbb.7 (4)
0x0b0|                                    2f 7e 67 a3|            /~g.|      [36]: "1995-04-02T09:00:19Z" (796813219) transition_time 0xbc-0xbf.7 (4)
0x0c0|30 93 34 93                                    |0.4.            |      [37]: "1995-10-29T08:00:19Z" (814953619) transition_time 0xc0-0xc3.7 (4)
0x0c0|            31 67 84 24                        |    1g.$        |      [38]: "1996-04-07T09:00:20Z" (828867620) transition_time 0xc4-0xc7.7 (4)
0x0c0|                        32 73 16 94            |        2s..    |      [39]: "1996-10-27T08:00:20Z" (846403220) transition_time 0xc8-0xcb.7 (4)
0x0c0|                                    33 47 66 24|            3Gf$|      [40]: "1997-04-06T09:00:20Z" (860317220) transition_time 0xcc-0xcf.7 (4)
0x0d0|34 52 f8 95                                    |4R..            |      [41]: "1997-10-26T08:00:21Z" (877852821) transition_time 0xd0-0xd3.7 (4)
0x0d0|            35 27 48 25                        |    5'H%        |      [42]: "1998-04-05T09:00:21Z" (891766821) transition_time 0xd4-0xd7.7 (4)
0x0d0|                        36 32 da 95            |        62..    |      [43]: "1998-10-25T08:00:21Z" (909302421) transition_time 0xd8-0xdb.7 (4)
0x0d0|                                    37 07 2a 26|            7.*&|      [44]: "1999-04-04T09:00:22Z" (923216422) transition_time 0xdc-0xdf.7 (4)
0x0e0|38 1b f7 16                                    |8...            |      [45]: "1999-10-31T08:00:22Z" (941356822) transition_time 0xe0-0xe3.7 (4)
0x0e0|            38 e6 fe 16                        |    8...        |      [46]: "2000-04-02T08:00:22Z" (954662422) transition_time 0xe4-0xe7.7 (4)
0x0e0|                        39 fb cb 06            |        9...    |      [47]: "2000-10-29T07:00:22Z" (972802822) transition_time 0xe8-0xeb.7 (4)
0x0e0|                                    3a 04 e9 66|            :..f|      [48]: "2000-11-05T05:00:22Z" (973400422) transition_time 0xec-0xef.7 (4)
0x0f0|3a c6 ee 26                                    |:..&            |      [49]: "2001-04-01T09:00:22Z" (986115622) transition_time 0xf0-0xf3.7 (4)
0x0f0|            3b db bb 16                        |    ;...        |      [50]: "2001-10-28T08:00:22Z" (1004256022) transition_time 0xf4-0xf7.7 (4)
0x0f0|                        3c b0 0a a6            |        <...    |      [51]: "2002-04-07T09:00:22Z" (1018170022) transition_time 0xf8-0xfb.7 (4)
0x0f0|                                    3d bb 9d 16|            =...|      [52]: "2002-10-27T08:00:22Z" (1035705622) transition_time 0xfc-0xff.7 (4)
0x100|3e 8f ec a6                                    |>...            |      [53]: "2003-04-06T09:00:22Z" (1049619622) transition_time 0x100-0x103.7 (4)
0x100|            3f 9b 7f 16                        |    ?...        |      [54]: "2003-10-26T08:00:22Z" (1067155222) transition_time 0x104-0x107.7 (4)
0x100|                        40 6f ce a6            |        @o..    |      [55]: "2004-04-04T09:00:22Z" (1081069222) transition_time 0x108-0x10b.7 (4)
0x100|                                    41 84 9b 96|            A...|      [56]: "2004-10-31T08:00:22Z" (1099209622) transition_time 0x10c-0x10f.7 (4)
0x110|42 4f b0 a6                                    |BO..            |      [57]: "2005-04-03T09:00:22Z" (1112518822) transition_time 0x110-0x113.7 (4)
0x110|            43 64 7d 96                        |    Cd}.        |      [58]: "2005-10-30T08:00:22Z" (1130659222) transition_time 0x114-0x117.7 (4)
0x110|                        44 2f 92 a7            |        D/..    |      [59]: "2006-04-02T09:00:23Z" (1143968423) transition_time 0x118-0x11b.7 (4)
0x110|                                    45 44 5f 97|            ED_.|      [60]: "2006-10-29T08:00:23Z" (1162108823) transition_time 0x11c-0x11f.7 (4)
0x120|45 f3 c5 27                                    |E..'            |      [61]: "2007-03-11T09:00:23Z" (1173603623) transition_time 0x120-0x123.7 (4)
0x120|            47 2d 7c 17                        |    G-|.        |      [62]: "2007-11-04T08:00:23Z" (1194163223) transition_time 0x124-0x127.7 (4)
0x120|                        47 d3 a7 27            |        G..'    |      [63]: "2008-03-09T09:00:23Z" (1205053223) transition_time 0x128-0x12b.7 (4)
0x120|                                    49 0d 5e 17|            I.^.|      [64]: "2008-11-02T08:00:23Z" (1225612823) transition_time 0x12c-0x12f.7 (4)
0x130|49 b3 89 28                                    |I..(            |      [65]: "2009-03-08T09:00:24Z" (1236502824) transition_time 0x130-0x133.7 (4)
0x130|            4a ed 40 18                        |    J.@.        |      [66]: "2009-11-01T08:00:24Z" (1257062424) transition_time 0x134-0x137.7 (4)
0x130|                        4b 9c a5 a8            |        K...    |      [67]: "2010-03-14T09:00:24Z" (1268557224) transition_time 0x138-0x13b.7 (4)
0x130|                                    4c d6 5c 98|            L.\.|      [68]: "2010-11-07T08:00:24Z" (1289116824) transition_time 0x13c-0x13f.7 (4)
0x140|4d 7c 87 a8                                    |M|..            |      [69]: "2011-03-13T09:00:24Z" (1300006824) transition_time 0x140-0x143.7 (4)
0x140|            4e b6 3e 98                        |    N.>.        |      [70]: "2011-11-06T08:00:24Z" (1320566424) transition_time 0x144-0x147.7 (4)
0x140|                        4f 5c 69 a8            |        O\i.    |      [71]: "2012-03-11T09:00:24Z" (1331456424) transition_time 0x148-0x14b.7 (4)
0x140|                                    50 96 20 99|            P. .|      [72]: "2012-11-04T08:00:25Z" (1352016025) transition_time 0x14c-0x14f.7 (4)
0x150|51 3c 4b a9                                    |Q<K.            |      [73]: "2013-03-10T09:00:25Z" (1362906025) transition_time 0x150-0x153.7 (4)
0x150|            52 76 02 99                        |    Rv..        |      [74]: "2013-11-03T08:00:25Z" (1383465625) transition_time 0x154-0x157.7 (4)
0x150|                        53 1c 2d a9            |        S.-.    |      [75]: "2014-03-09T09:00:25Z" (1394355625) transition_time 0x158-0x15b.7 (4)
0x150|                                    54 55 e4 99|            TU..|      [76]: "2014-11-02T08:00:25Z" (1414915225) transition_time 0x15c-0x15f.7 (4)
0x160|54 fc 0f a9                                    |T...            |      [77]: "2015-03-08T09:00:25Z" (1425805225) transition_time 0x160-0x163.7 (4)
0x160|            56 35 c6 9a                        |    V5..        |      [78]: "2015-11-01T08:00:26Z" (1446364826) transition_time 0x164-0x167.7 (4)
0x160|                        56 e5 2c 2a            |        V.,*    |      [79]: "2016-03-13T09:00:26Z" (1457859626) transition_time 0x168-0x16b.7 (4)
0x160|                                    58 1e e3 1a|            X...|      [80]: "2016-11-06T08:00:26Z" (1478419226) transition_time 0x16c-0x16f.7 (4)
0x170|58 c5 0e 2b                                    |X..+            |      [81]: "2017-03-12T09:00:27Z" (1489309227) transition_time 0x170-0x173.7 (4)
0x170|            59 fe c5 1b                        |    Y...        |      [82]: "2017-11-05T08:00:27Z" (1509868827) transition_time 0x174-0x177.7 (4)
0x170|                        5a a4 f0 2b            |        Z..+    |      [83]: "2018-03-11T09:00:27Z" (1520758827) transition_time 0x178-0x17b.7 (4)
0x170|                                    5b de a7 1b|            [...|      [84]: "2018-11-04T08:00:27Z" (1541318427) transition_time 0x17c-0x17f.7 (4)
0x180|5c 84 d2 2b                                    |\..+            |      [85]: "2019-03-10T09:00:27Z" (1552208427) transition_time 0x180-0x183.7 (4)
0x180|            5d be 89 1b                        |    ]...        |      [86]: "2019-11-03T08:00:27Z" (1572768027) transition_time 0x184-0x187.7 (4)
0x180|                        5e 64 b4 2b            |        ^d.+    |      [87]: "2020-03-08T09:00:27Z" (1583658027) transition_time 0x188-0x18b.7 (4)
0x180|                                    5f 9e 6b 1b|            _.k.|      [88]: "2020-11-01T08:00:27Z" (1604217627) transition_time 0x18c-0x18f.7 (4)
0x190|60 4d d0 ab                                    |`M..            |      [89]: "2021-03-14T09:00:27Z" (1615712427) transition_time 0x190-0x193.7 (4)
0x190|            61 87 87 9b                        |    a...        |      [90]: "2021-11-07T08:00:27Z" (1636272027) transition_time 0x194-0x197.7 (4)
0x190|                        62 2d b2 ab            |        b-..    |      [91]: "2022-03-13T09:00:27Z" (1647162027) transition_time 0x198-0x19b.7 (4)
0x190|                                    63 67 69 9b|            cgi.|      [92]: "2022-11-06T08:00:27Z" (1667721627) transition_time 0x19c-0x19f.7 (4)
0x1a0|64 0d 94 ab                                    |d...            |      [93]: "2023-03-12T09:00:27Z" (1678611627) transition_time 0x1a0-0x1a3.7 (4)
0x1a0|            64 9b 78 1b                        |    d.x.        |      [94]: "2023-06-28T00:00:27Z" (1687910427) transition_time 0x1a4-0x1a7.7 (4)
     |                                               |                |    transition_types[0:95]: 0x1a8-0x206.7 (95)
0x1a0|                        03                     |        .       |      [0]: 3 transition_type 0x1a8-0x1a8.7 (1)
0x1a0|                           01                  |         .      |      [1]: 1 transition_type 0x1a9-0x1a9.7 (1)
0x1a0|                              02               |          .     |      [2]: 2 transition_type 0x1aa-0x1aa.7 (1)
0x1a0|                                 03            |           .    |      [3]: 3 transition_type 0x1ab-0x1ab.7 (1)
0x1a0|                                    04         |            .   |      [4]: 4 transition_type 0x1ac-0x1ac.7 (1)
0x1a0|                                       03      |             .  |      [5]: 3 transition_type 0x1ad-0x1ad.7 (1)
0x1a0|                                          05   |              . |      [6]: 5 transition_type 0x1ae-0x1ae.7 (1)
0x1a0|                                             03|               .|      [7]: 3 transition_type 0x1af-0x1af.7 (1)
0x1b0|05                                             |.               |      [8]: 5 transition_type 0x1b0-0x1b0.7 (1)
0x1b0|   03                                          | .              |      [9]: 3 transition_type 0x1b1-0x1b1.7 (1)
0x1b0|      05                                       |  .             |      [10]: 5 transition_type 0x1b2-0x1b2.7 (1)
0x1b0|         03                                    |   .            |      [11]: 3 transition_type 0x1b3-0x1b3.7 (1)
0x1b0|            05                                 |    .           |      [12]: 5 transition_type 0x1b4-0x1b4.7 (1)
0x1b0|               03                              |     .          |      [13]: 3 transition_type 0x1b5-0x1b5.7 (1)
0x1b0|                  05                           |      .         |      [14]: 5 transition_type 0x1b6-0x1b6.7 (1)
0x1b0|                     03                        |       .        |      [15]: 3 transition_type 0x1b7-0x1b7.7 (1)
0x1b0|                        05                     |        .       |      [16]: 5 transition_type 0x1b8-0x1b8.7 (1)
0x1b0|                           03                  |         .      |      [17]: 3 transition_type 0x1b9-0x1b9.7 (1)
0x1b0|                              05               |          .     |      [18]: 5 transition_type 0x1ba-0x1ba.7 (1)
0x1b0|                                 03            |           .    |      [19]: 3 transition_type 0x1bb-0x1bb.7 (1)
0x1b0|                                    05         |            .   |      [20]: 5 transition_type 0x1bc-0x1bc.7 (1)
0x1b0|                                       03      |             .  |      [21]: 3 transition_type 0x1bd-0x1bd.7 (1)
0x1b0|                                          05   |              . |      [22]: 5 transition_type 0x1be-0x1be.7 (1)
0x1b0|                                             03|               .|      [23]: 3 transition_type 0x1bf-0x1bf.7 (1)
0x1c0|05                                             |.               |      [24]: 5 transition_type 0x1c0-0x1c0.7 (1)
0x1c0|   03                                          | .              |      [25]: 3 transition_type 0x1c1-0x1c1.7 (1)
0x1c0|      05                                       |  .             |      [26]: 5 transition_type 0x1c2-0x1c2.7 (1)
0x1c0|         03                                    |   .            |      [27]: 3 transition_type 0x1c3-0x1c3.7 (1)
0x1c0|            05                                 |    .           |      [28]: 5 transition_type 0x1c4-0x1c4.7 (1)
0x1c0|               03                              |     .          |      [29]: 3 transition_type 0x1c5-0x1c5.7 (1)
0x1c0|                  05                           |      .         |      [30]: 5 transition_type 0x1c6-0x1c6.7 (1)
0x1c0|                     03                        |       .        |      [31]: 3 transition_type 0x1c7-0x1c7.7 (1)
0x1c0|                        05                     |        .       |      [32]: 5 transition_type 0x1c8-0x1c8.7 (1)
0x1c0|                           03                  |         .      |      [33]: 3 transition_type 0x1c9-0x1c9.7 (1)
0x1c0|                              05               |          .     |      [34]: 5 transition_type 0x1ca-0x1ca.7 (1)
0x1c0|                                 03            |           .    |      [35]: 3 transition_type 0x1cb-0x1cb.7 (1)
0x1c0|                                    05         |            .   |      [36]: 5 transition_type 0x1cc-0x1cc.7 (1)
0x1c0|                                       03      |             .  |      [37]: 3 transition_type 0x1cd-0x1cd.7 (1)
0x1c0|                                          05   |              . |      [38]: 5 transition_type 0x1ce-0x1ce.7 (1)
0x1c0|                                             03|               .|      [39]: 3 transition_type 0x1cf-0x1cf.7 (1)
0x1d0|05                                             |.               |      [40]: 5 transition_type 0x1d0-0x1d0.7 (1)
0x1d0|   03                                          | .              |      [41]: 3 transition_type 0x1d1-0x1d1.7 (1)
0x1d0|      05                                       |  .             |      [42]: 5 transition_type 0x1d2-0x1d2.7 (1)
0x1d0|         03                                    |   .            |      [43]: 3 transition_type 0x1d3-0x1d3.7 (1)
0x1d0|            05                                 |    .           |      [44]: 5 transition_type 0x1d4-0x1d4.7 (1)
0x1d0|               07                              |     .          |      [45]: 7 transition_type 0x1d5-0x1d5.7 (1)
0x1d0|                  06                           |      .         |      [46]: 6 transition_type 0x1d6-0x1d6.7 (1)
0x1d0|                     08                        |       .        |      [47]: 8 transition_type 0x1d7-0x1d7.7 (1)
0x1d0|                        07                     |        .       |      [48]: 7 transition_type 0x1d8-0x1d8.7 (1)
0x1d0|                           05                  |         .      |      [49]: 5 transition_type 0x1d9-0x1d9.7 (1)
0x1d0|                              03               |          .     |      [50]: 3 transition_type 0x1da-0x1da.7 (1)
0x1d0|                                 05            |           .    |      [51]: 5 transition_type 0x1db-0x1db.7 (1)
0x1d0|                                    03         |            .   |      [52]: 3 transition_type 0x1dc-0x1dc.7 (1)
0x1d0|                                       05      |             .  |      [53]: 5 transition_type 0x1dd-0x1dd.7 (1)
0x1d0|                                          03   |              . |      [54]: 3 transition_type 0x1de-0x1de.7 (1)
0x1d0|                                             05|               .|      [55]: 5 transition_type 0x1df-0x1df.7 (1)
0x1e0|03                                             |.               |      [56]: 3 transition_type 0x1e0-0x1e0.7 (1)
0x1e0|   05                                          | .              |      [57]: 5 transition_type 0x1e1-0x1e1.7 (1)
0x1e0|      03                                       |  .             |      [58]: 3 transition_type 0x1e2-0x1e2.7 (1)
0x1e0|         05                                    |   .            |      [59]: 5 transition_type 0x1e3-0x1e3.7 (1)
0x1e0|            03                                 |    .           |      [60]: 3 transition_type 0x1e4-0x1e4.7 (1)
0x1e0|               05                              |     .          |      [61]: 5 transition_type 0x1e5-0x1e5.7 (1)
0x1e0|                  03                           |      .         |      [62]: 3 transition_type 0x1e6-0x1e6.7 (1)
0x1e0|                     05                        |       .        |      [63]: 5 transition_type 0x1e7-0x1e7.7 (1)
0x1e0|                        03                     |        .       |      [64]: 3 transition_type 0x1e8-0x1e8.7 (1)
0x1e0|                           05                  |         .      |      [65]: 5 transition_type 0x1e9-0x1e9.7 (1)
0x1e0|                              03               |          .     |      [66]: 3 transition_type 0x1ea-0x1ea.7 (1)
0x1e0|                                 05            |           .    |      [67]: 5 transition_type 0x1eb-0x1eb.7 (1)
0x1e0|                                    03         |            .   |      [68]: 3 transition_type 0x1ec-0x1ec.7 (1)
0x1e0|                                       05      |             .  |      [69]: 5 transition_type 0x1ed-0x1ed.7 (1)
0x1e0|                                          03   |              . |      [70]: 3 transition_type 0x1ee-0x1ee.7 (1)
0x1e0|                                             05|               .|      [71]: 5 transition_type 0x1ef-0x1ef.7 (1)
0x1f0|03                                             |.               |      [72]: 3 transition_type 0x1f0-0x1f0.7 (1)
0x1f0|   05                                          | .              |      [73]: 5 transition_type 0x1f1-0x1f1.7 (1)
0x1f0|      03                                       |  .             |      [74]: 3 transition_type 0x1f2-0x1f2.7 (1)
0x1f0|         05                                    |   .            |      [75]: 5 transition_type 0x1f3-0x1f3.7 (1)
0x1f0|            03                                 |    .           |      [76]: 3 transition_type 0x1f4-0x1f4.7 (1)
0x1f0|               05                              |     .          |      [77]: 5 transition_type 0x1f5-0x1f5.7 (1)
0x1f0|                  03                           |      .         |      [78]: 3 transition_type 0x1f6-0x1f6.7 (1)
0x1f0|                     05                        |       .        |      [79]: 5 transition_type 0x1f7-0x1f7.7 (1)
0x1f0|                        03                     |        .       |      [80]: 3 transition_type 0x1f8-0x1f8.7 (1)
0x1f0|                           05                  |         .      |      [81]: 5 transition_type 0x1f9-0x1f9.7 (1)
0x1f0|                              03               |          .     |      [82]: 3 transition_type 0x1fa-0x1fa.7 (1)
0x1f0|                                 05            |           .    |      [83]: 5 transition_type 0x1fb-0x1fb.7 (1)
0x1f0|                                    03         |            .   |      [84]: 3 transition_type 0x1fc-0x1fc.7 (1)
0x1f0|                                       05      |             .  |      [85]: 5 transition_type 0x1fd-0x1fd.7 (1)
0x1f0|                                          03   |              . |      [86]: 3 transition_type 0x1fe-0x1fe.7 (1)
0x1f0|                                             05|               .|      [87]: 5 transition_type 0x1ff-0x1ff.7 (1)
0x200|03                                             |.               |      [88]: 3 transition_type 0x200-0x200.7 (1)
0x200|   05                                          | .              |      [89]: 5 transition_type 0x201-0x201.7 (1)
0x200|      03                                       |  .             |      [90]: 3 transition_type 0x202-0x202.7 (1)
0x200|         05                                    |   .            |      [91]: 5 transition_type 0x203-0x203.7 (1)
0x200|            03                                 |    .           |      [92]: 3 transition_type 0x204-0x204.7 (1)
0x200|               05                              |     .          |      [93]: 5 transition_type 0x205-0x205.7 (1)
0x200|                  05                           |      .         |      [94]: 5 transition_type 0x206-0x206.7 (1)
     |                                               |                |    local_time_type_records[0:11]: 0x207-0x248.7 (66)
     |                                               |                |      [0]{}: local_time_type 0x207-0x20c.7 (6)
0x200|                     00 00 00 00               |       ....     |        utoff: 0 (valid) 0x207-0x20a.7 (4)
0x200|                                 00            |           .    |        dst: 0 (valid) 0x20b-0x20b.7 (1)
0x200|                                    00         |            .   |        idx: 0 (valid) 0x20c-0x20c.7 (1)
     |                                               |                |      [1]{}: local_time_type 0x20d-0x212.7 (6)
0x200|                                       ff ff ab|             ...|        utoff: -21600 (valid) 0x20d-0x210.7 (4)
0x210|a0                                             |.               |
0x210|   01                                          | .              |        dst: 1 (valid) 0x211-0x211.7 (1)
0x210|      04                                       |  .             |        idx: 4 (valid) 0x212-0x212.7 (1)
     |                                               |                |      [2]{}: local_time_type 0x213-0x218.7 (6)
0x210|         ff ff ab a0                           |   ....         |        utoff: -21600 (valid) 0x213-0x216.7 (4)
0x210|                     01                        |       .        |        dst: 1 (valid) 0x217-0x217.7 (1)
0x210|                        08                     |        .       |        idx: 8 (valid) 0x218-0x218.7 (1)
     |                                               |                |      [3]{}: local_time_type 0x219-0x21e.7 (6)
0x210|                           ff ff 9d 90         |         ....   |        utoff: -25200 (valid) 0x219-0x21c.7 (4)
0x210|                                       00      |             .  |        dst: 0 (valid) 0x21d-0x21d.7 (1)
0x210|                                          0c   |              . |        idx: 12 (valid) 0x21e-0x21e.7 (1)
     |                                               |                |      [4]{}: local_time_type 0x21f-0x224.7 (6)
0x210|                                             ff|               .|        utoff: -18000 (valid) 0x21f-0x222.7 (4)
0x220|ff b9 b0                                       |...             |
0x220|         01                                    |   .            |        dst: 1 (valid) 0x223-0x223.7 (1)
0x220|            10                                 |    .           |        idx: 16 (valid) 0x224-0x224.7 (1)
     |                                               |                |      [5]{}: local_time_type 0x225-0x22a.7 (6)
0x220|               ff ff ab a0                     |     ....       |        utoff: -21600 (valid) 0x225-0x228.7 (4)
0x220|                           01                  |         .      |        dst: 1 (valid) 0x229-0x229.7 (1)
0x220|                              15               |          .     |        idx: 21 (valid) 0x22a-0x22a.7 (1)
     |                                               |                |      [6]{}: local_time_type 0x22b-0x230.7 (6)
0x220|                                 ff ff b9 b0   |           .... |        utoff: -18000 (valid) 0x22b-0x22e.7 (4)
0x220|                                             01|               .|        dst: 1 (valid) 0x22f-0x22f.7 (1)
0x230|19                                             |.               |        idx: 25 (valid) 0x230-0x230.7 (1)
     |                                               |                |      [7]{}: local_time_type 0x231-0x236.7 (6)
0x230|   ff ff ab a0                                 | ....           |        utoff: -21600 (valid) 0x231-0x234.7 (4)
0x230|               00                              |     .          |        dst: 0 (valid) 0x235-0x235.7 (1)
0x230|                  1d                           |      .         |        idx: 29 (valid) 0x236-0x236.7 (1)
     |                                               |                |      [8]{}: local_time_type 0x237-0x23c.7 (6)
0x230|                     ff ff b9 b0               |       ....     |        utoff: -18000 (valid) 0x237-0x23a.7 (4)
0x230|                                 00            |           .    |        dst: 0 (valid) 0x23b-0x23b.7 (1)
0x230|                                    21         |            !   |        idx: 33 (valid) 0x23c-0x23c.7 (1)
     |                                               |                |      [9]{}: local_time_type 0x23d-0x242.7 (6)
0x230|                                       ff ff ab|             ...|        utoff: -21600 (valid) 0x23d-0x240.7 (4)
0x240|a0                                             |.               |
0x240|   01                                          | .              |        dst: 1 (valid) 0x241-0x241.7 (1)
0x240|      15                                       |  .             |        idx: 21 (valid) 0x242-0x242.7 (1)
     |                                               |                |      [10]{}: local_time_type 0x243-0x248.7 (6)
0x240|         ff ff 9d 90                           |   ....         |        utoff: -25200 (valid) 0x243-0x246.7 (4)
0x240|                     00                        |       .        |        dst: 0 (valid) 0x247-0x247.7 (1)
0x240|                        0c                     |        .       |        idx: 12 (valid) 0x248-0x248.7 (1)
     |                                               |                |    time_zone_designations[0:9]: 0x249-0x26d.7 (37)
0x240|                           2d 30 30 00         |         -00.   |      [0]: "-00" time_zone_designation 0x249-0x24c.7 (4)
0x240|                                       4d 57 54|             MWT|      [1]: "MWT" time_zone_designation 0x24d-0x250.7 (4)
0x250|00                                             |.               |
0x250|   4d 50 54 00                                 | MPT.           |      [2]: "MPT" time_zone_designation 0x251-0x254.7 (4)
0x250|               4d 53 54 00                     |     MST.       |      [3]: "MST" time_zone_designation 0x255-0x258.7 (4)
0x250|                           4d 44 44 54 00      |         MDDT.  |      [4]: "MDDT" time_zone_designation 0x259-0x25d.7 (5)
0x250|                                          4d 44|              MD|      [5]: "MDT" time_zone_designation 0x25e-0x261.7 (4)
0x260|54 00                                          |T.              |
0x260|      43 44 54 00                              |  CDT.          |      [6]: "CDT" time_zone_designation 0x262-0x265.7 (4)
0x260|                  43 53 54 00                  |      CST.      |      [7]: "CST" time_zone_designation 0x266-0x269.7 (4)
0x260|                              45 53 54 00      |          EST.  |      [8]: "EST" time_zone_designation 0x26a-0x26d.7 (4)
     |                                               |                |    leap_second_records[0:27]: 0x26e-0x345.7 (216)
     |                                               |                |      [0]{}: leap_second_record 0x26e-0x275.7 (8)
0x260|                                          04 b2|              ..|        occur: "1972-07-01T00:00:00Z" (78796800) 0x26e-0x271.7 (4)
0x270|58 00                                          |X.              |
0x270|      00 00 00 01                              |  ....          |        corr: 1 0x272-0x275.7 (4)
     |                                               |                |      [1]{}: leap_second_record 0x276-0x27d.7 (8)
0x270|                  05 a4 ec 01                  |      ....      |        occur: "1973-01-01T00:00:01Z" (94694401) 0x276-0x279.7 (4)
0x270|                              00 00 00 02      |          ....  |        corr: 2 0x27a-0x27d.7 (4)
     |                                               |                |      [2]{}: leap_second_record 0x27e-0x285.7 (8)
0x270|                                          07 86|              ..|        occur: "1974-01-01T00:00:02Z" (126230402) 0x27e-0x281.7 (4)
0x280|1f 82                                          |..              |
0x280|      00 00 00 03                              |  ....          |        corr: 3 0x282-0x285.7 (4)
     |                                               |                |      [3]{}: leap_second_record 0x286-0x28d.7 (8)
0x280|                  09 67 53 03                  |      .gS.      |        occur: "1975-01-01T00:00:03Z" (157766403) 0x286-0x289.7 (4)
0x280|                              00 00 00 04      |          ....  |        corr: 4 0x28a-0x28d.7 (4)
     |                                               |                |      [4]{}: leap_second_record 0x28e-0x295.7 (8)
0x280|                                          0b 48|              .H|        occur: "1976-01-01T00:00:04Z" (189302404) 0x28e-0x291.7 (4)
0x290|86 84                                          |..              |
0x290|      00 00 00 05                              |  ....          |        corr: 5 0x292-0x295.7 (4)
     |                                               |                |      [5]{}: leap_second_record 0x296-0x29d.7 (8)
0x290|                  0d 2b 0b 85                  |      .+..      |        occur: "1977-01-01T00:00:05Z" (220924805) 0x296-0x299.7 (4)
0x290|                              00 00 00 06      |          ....  |        corr: 6 0x29a-0x29d.7 (4)
     |                                               |                |      [6]{}: leap_second_record 0x29e-0x2a5.7 (8)
0x290|                                          0f 0c|              ..|        occur: "1978-01-01T00:00:06Z" (252460806) 0x29e-0x2a1.7 (4)
0x2a0|3f 06                                          |?.              |
0x2a0|      00 00 00 07                              |  ....          |        corr: 7 0x2a2-0x2a5.7 (4)
     |                                               |                |      [7]{}: leap_second_record 0x2a6-0x2ad.7 (8)
0x2a0|                  10 ed 72 87                  |      ..r.      |        occur: "1979-01-01T00:00:07Z" (283996807) 0x2a6-0x2a9.7 (4)
0x2a0|                              00 00 00 08      |          ....  |        corr: 8 0x2aa-0x2ad.7 (4)
     |                                               |                |      [8]{}: leap_second_record 0x2ae-0x2b5.7 (8)
0x2a0|                                          12 ce|              ..|        occur: "1980-01-01T00:00:08Z" (315532808) 0x2ae-0x2b1.7 (4)
0x2b0|a6 08                                          |..              |
0x2b0|      00 00 00 09                              |  ....          |        corr: 9 0x2b2-0x2b5.7 (4)
     |                                               |                |      [9]{}: leap_second_record 0x2b6-0x2bd.7 (8)
0x2b0|                  15 9f ca 89                  |      ....      |        occur: "1981-07-01T00:00:09Z" (362793609) 0x2b6-0x2b9.7 (4)
0x2b0|                              00 00 00 0a      |          ....  |        corr: 10 0x2ba-0x2bd.7 (4)
     |                                               |                |      [10]{}: leap_second_record 0x2be-0x2c5.7 (8)
0x2b0|                                          17 80|              ..|        occur: "1982-07-01T00:00:10Z" (394329610) 0x2be-0x2c1.7 (4)
0x2c0|fe 0a                                          |..              |
0x2c0|      00 00 00 0b                              |  ....          |        corr: 11 0x2c2-0x2c5.7 (4)
     |                                               |                |      [11]{}: leap_second_record 0x2c6-0x2cd.7 (8)
0x2c0|                  19 62 31 8b                  |      .b1.      |        occur: "1983-07-01T00:00:11Z" (425865611) 0x2c6-0x2c9.7 (4)
0x2c0|                              00 00 00 0c      |          ....  |        corr: 12 0x2ca-0x2cd.7 (4)
     |                                               |                |      [12]{}: leap_second_record 0x2ce-0x2d5.7 (8)
0x2c0|                                          1d 25|              .%|        occur: "1985-07-01T00:00:12Z" (489024012) 0x2ce-0x2d1.7 (4)
0x2d0|ea 0c                                          |..              |
0x2d0|      00 00 00 0d                              |  ....          |        corr: 13 0x2d2-0x2d5.7 (4)
     |                                               |                |      [13]{}: leap_second_record 0x2d6-0x2dd.7 (8)
0x2d0|                  21 da e5 0d                  |      !...      |        occur: "1988-01-01T00:00:13Z" (567993613) 0x2d6-0x2d9.7 (4)
0x2d0|                              00 00 00 0e      |          ....  |        corr: 14 0x2da-0x2dd.7 (4)
     |                                               |                |      [14]{}: leap_second_record 0x2de-0x2e5.7 (8)
0x2d0|                                          25 9e|              %.|        occur: "1990-01-01T00:00:14Z" (631152014) 0x2de-0x2e1.7 (4)
0x2e0|9d 8e                                          |..              |
0x2e0|      00 00 00 0f                              |  ....          |        corr: 15 0x2e2-0x2e5.7 (4)
     |                                               |                |      [15]{}: leap_second_record 0x2e6-0x2ed.7 (8)
0x2e0|                  27 7f d1 0f                  |      '...      |        occur: "1991-01-01T00:00:15Z" (662688015) 0x2e6-0x2e9.7 (4)
0x2e0|                              00 00 00 10      |          ....  |        corr: 16 0x2ea-0x2ed.7 (4)
     |                                               |                |      [16]{}: leap_second_record 0x2ee-0x2f5.7 (8)
0x2e0|                                          2a 50|              *P|        occur: "1992-07-01T00:00:16Z" (709948816) 0x2ee-0x2f1.7 (4)
0x2f0|f5 90                                          |..              |
0x2f0|      00 00 00 11                              |  ....          |        corr: 17 0x2f2-0x2f5.7 (4)
     |                                               |                |      [17]{}: leap_second_record 0x2f6-0x2fd.7 (8)
0x2f0|                  2c 32 29 11                  |      ,2).      |        occur: "1993-07-01T00:00:17Z" (741484817) 0x2f6-0x2f9.7 (4)
0x2f0|                              00 00 00 12      |          ....  |        corr: 18 0x2fa-0x2fd.7 (4)
     |                                               |                |      [18]{}: leap_second_record 0x2fe-0x305.7 (8)
0x2f0|                                          2e 13|              ..|        occur: "1994-07-01T00:00:18Z" (773020818) 0x2fe-0x301.7 (4)
0x300|5c 92                                          |\.              |
0x300|      00 00 00 13                              |  ....          |        corr: 19 0x302-0x305.7 (4)
     |                                               |                |      [19]{}: leap_second_record 0x306-0x30d.7 (8)
0x300|                  30 e7 24 13                  |      0.$.      |        occur: "1996-01-01T00:00:19Z" (820454419) 0x306-0x309.7 (4)
0x300|                              00 00 00 14      |          ....  |        corr: 20 0x30a-0x30d.7 (4)
     |                                               |                |      [20]{}: leap_second_record 0x30e-0x315.7 (8)
0x300|                                          33 b8|              3.|        occur: "1997-07-01T00:00:20Z" (867715220) 0x30e-0x311.7 (4)
0x310|48 94                                          |H.              |
0x310|      00 00 00 15                              |  ....          |        corr: 21 0x312-0x315.7 (4)
     |                                               |                |      [21]{}: leap_second_record 0x316-0x31d.7 (8)
0x310|                  36 8c 10 15                  |      6...      |        occur: "1999-01-01T00:00:21Z" (915148821) 0x316-0x319.7 (4)
0x310|                              00 00 00 16      |          ....  |        corr: 22 0x31a-0x31d.7 (4)
     |                                               |                |      [22]{}: leap_second_record 0x31e-0x325.7 (8)
0x310|                                          43 b7|              C.|        occur: "2006-01-01T00:00:22Z" (1136073622) 0x31e-0x321.7 (4)
0x320|1b 96                                          |..              |
0x320|      00 00 00 17                              |  ....          |        corr: 23 0x322-0x325.7 (4)
     |                                               |                |      [23]{}: leap_second_record 0x326-0x32d.7 (8)
0x320|                  49 5c 07 97                  |      I\..      |        occur: "2009-01-01T00:00:23Z" (1230768023) 0x326-0x329.7 (4)
0x320|                              00 00 00 18      |          ....  |        corr: 24 0x32a-0x32d.7 (4)
     |                                               |                |      [24]{}: leap_second_record 0x32e-0x335.7 (8)
0x320|                                          4f ef|              O.|        occur: "2012-07-01T00:00:24Z" (1341100824) 0x32e-0x331.7 (4)
0x330|93 18                                          |..              |
0x330|      00 00 00 19                              |  ....          |        corr: 25 0x332-0x335.7 (4)
     |                                               |                |      [25]{}: leap_second_record 0x336-0x33d.7 (8)
0x330|                  55 93 2d 99                  |      U.-.      |        occur: "2015-07-01T00:00:25Z" (1435708825) 0x336-0x339.7 (4)
0x330|                              00 00 00 1a      |          ....  |        corr: 26 0x33a-0x33d.7 (4)
     |                                               |                |      [26]{}: leap_second_record 0x33e-0x345.7 (8)
0x330|                                          58 68|              Xh|        occur: "2017-01-01T00:00:26Z" (1483228826) 0x33e-0x341.7 (4)
0x340|46 9a                                          |F.              |
0x340|      00 00 00 1b                              |  ....          |        corr: 27 0x342-0x345.7 (4)
     |                                               |                |    standard_wall_indicators[0:11]: 0x346-0x350.7 (11)
0x340|                  00                           |      .         |      [0]: 0 standard_wall_indicator (valid) 0x346-0x346.7 (1)
0x340|                     00                        |       .        |      [1]: 0 standard_wall_indicator (valid) 0x347-0x347.7 (1)
0x340|                        01                     |        .       |      [2]: 1 standard_wall_indicator (valid) 0x348-0x348.7 (1)
0x340|                           00                  |         .      |      [3]: 0 standard_wall_indicator (valid) 0x349-0x349.7 (1)
0x340|                              00               |          .     |      [4]: 0 standard_wall_indicator (valid) 0x34a-0x34a.7 (1)
0x340|                                 00            |           .    |      [5]: 0 standard_wall_indicator (valid) 0x34b-0x34b.7 (1)
0x340|                                    00         |            .   |      [6]: 0 standard_wall_indicator (valid) 0x34c-0x34c.7 (1)
0x340|                                       00      |             .  |      [7]: 0 standard_wall_indicator (valid) 0x34d-0x34d.7 (1)
0x340|                                          00   |              . |      [8]: 0 standard_wall_indicator (valid) 0x34e-0x34e.7 (1)
0x340|                                             00|               .|      [9]: 0 standard_wall_indicator (valid) 0x34f-0x34f.7 (1)
0x350|00                                             |.               |      [10]: 0 standard_wall_indicator (valid) 0x350-0x350.7 (1)
     |                                               |                |    ut_local_indicators[0:11]: 0x351-0x35b.7 (11)
0x350|   00                                          | .              |      [0]: 0 ut_local_indicator (valid) 0x351-0x351.7 (1)
0x350|      00                                       |  .             |      [1]: 0 ut_local_indicator (valid) 0x352-0x352.7 (1)
0x350|         01                                    |   .            |      [2]: 1 ut_local_indicator (valid) 0x353-0x353.7 (1)
0x350|            00                                 |    .           |      [3]: 0 ut_local_indicator (valid) 0x354-0x354.7 (1)
0x350|               00                              |     .          |      [4]: 0 ut_local_indicator (valid) 0x355-0x355.7 (1)
0x350|                  00                           |      .         |      [5]: 0 ut_local_indicator (valid) 0x356-0x356.7 (1)
0x350|                     00                        |       .        |      [6]: 0 ut_local_indicator (valid) 0x357-0x357.7 (1)
0x350|                        00                     |        .       |      [7]: 0 ut_local_indicator (valid) 0x358-0x358.7 (1)
0x350|                           00                  |         .      |      [8]: 0 ut_local_indicator (valid) 0x359-0x359.7 (1)
0x350|                              00               |          .     |      [9]: 0 ut_local_indicator (valid) 0x35a-0x35a.7 (1)
0x350|                                 00            |           .    |      [10]: 0 ut_local_indicator (valid) 0x35b-0x35b.7 (1)
     |                                               |                |  v2plusheader{}: 0x35c-0x387.7 (44)
0x350|                                    54 5a 69 66|            TZif|    magic: 0x545a6966 (valid) 0x35c-0x35f.7 (4)
0x360|32                                             |2               |    ver: "2" (0x32) (valid) 0x360-0x360.7 (1)
0x360|   00 00 00 00 00 00 00 00 00 00 00 00 00 00 00| ...............|    reserved: raw bits 0x361-0x36f.7 (15)
0x370|00 00 00 0b                                    |....            |    isutcnt: 11 0x370-0x373.7 (4)
0x370|            00 00 00 0b                        |    ....        |    isstdcnt: 11 0x374-0x377.7 (4)
0x370|                        00 00 00 1b            |        ....    |    leapcnt: 27 0x378-0x37b.7 (4)
0x370|                                    00 00 00 5f|            ..._|    timecnt: 95 0x37c-0x37f.7 (4)
0x380|00 00 00 0b                                    |....            |    typecnt: 11 0x380-0x383.7 (4)
0x380|            00 00 00 25                        |    ...%        |    charcnt: 37 0x384-0x387.7 (4)
     |                                               |                |  v2plusdatablock{}: 0x388-0x89f.7 (1304)
     |                                               |                |    transition_times[0:95]: 0x388-0x67f.7 (760)
0x380|                        ff ff ff ff a1 f2 cd 80|        ........|      [0]: "1920-01-01T00:00:00Z" (-1577923200) transition_time 0x388-0x38f.7 (8)
0x390|ff ff ff ff cb 89 0c 90                        |........        |      [1]: "1942-02-09T09:00:00Z" (-880210800) transition_time 0x390-0x397.7 (8)
0x390|                        ff ff ff ff d2 23 f4 70|        .....#.p|      [2]: "1945-08-14T23:00:00Z" (-769395600) transition_time 0x398-0x39f.7 (8)
0x3a0|ff ff ff ff d2 61 18 00                        |.....a..        |      [3]: "1945-09-30T08:00:00Z" (-765388800) transition_time 0x3a0-0x3a7.7 (8)
0x3a0|                        ff ff ff ff f7 2f 5a 70|        ...../Zp|      [4]: "1965-04-25T07:00:00Z" (-147891600) transition_time 0x3a8-0x3af.7 (8)
0x3b0|ff ff ff ff f8 28 85 f0                        |.....(..        |      [5]: "1965-10-31T07:00:00Z" (-131562000) transition_time 0x3b0-0x3b7.7 (8)
0x3b0|                        00 00 00 00 13 69 64 19|        .....id.|      [6]: "1980-04-27T09:00:09Z" (325674009) transition_time 0x3b8-0x3bf.7 (8)
0x3c0|00 00 00 00 14 59 47 09                        |.....YG.        |      [7]: "1980-10-26T08:00:09Z" (341395209) transition_time 0x3c0-0x3c7.7 (8)
0x3c0|                        00 00 00 00 15 49 46 19|        .....IF.|      [8]: "1981-04-26T09:00:09Z" (357123609) transition_time 0x3c8-0x3cf.7 (8)
0x3d0|00 00 00 00 16 39 29 0a                        |.....9).        |      [9]: "1981-10-25T08:00:10Z" (372844810) transition_time 0x3d0-0x3d7.7 (8)
0x3d0|                        00 00 00 00 17 29 28 1a|        .....)(.|      [10]: "1982-04-25T09:00:10Z" (388573210) transition_time 0x3d8-0x3df.7 (8)
0x3e0|00 00 00 00 18 22 45 8b                        |....."E.        |      [11]: "1982-10-31T08:00:11Z" (404899211) transition_time 0x3e0-0x3e7.7 (8)
0x3e0|                        00 00 00 00 19 09 0a 1b|        ........|      [12]: "1983-04-24T09:00:11Z" (420022811) transition_time 0x3e8-0x3ef.7 (8)
0x3f0|00 00 00 00 1a 02 27 8c                        |......'.        |      [13]: "1983-10-30T08:00:12Z" (436348812) transition_time 0x3f0-0x3f7.7 (8)
0x3f0|                        00 00 00 00 1a f2 26 9c|        ......&.|      [14]: "1984-04-29T09:00:12Z" (452077212) transition_time 0x3f8-0x3ff.7 (8)
0x400|00 00 00 00 1b e2 09 8c                        |........        |      [15]: "1984-10-28T08:00:12Z" (467798412) transition_time 0x400-0x407.7 (8)
0x400|                        00 00 00 00 1c d2 08 9c|        ........|      [16]: "1985-04-28T09:00:12Z" (483526812) transition_time 0x408-0x40f.7 (8)
0x410|00 00 00 00 1d c1 eb 8d                        |........        |      [17]: "1985-10-27T08:00:13Z" (499248013) transition_time 0x410-0x417.7 (8)
0x410|                        00 00 00 00 1e b1 ea 9d|        ........|      [18]: "1986-04-27T09:00:13Z" (514976413) transition_time 0x418-0x41f.7 (8)
0x420|00 00 00 00 1f a1 cd 8d                        |........        |      [19]: "1986-10-26T08:00:13Z" (530697613) transition_time 0x420-0x427.7 (8)
0x420|                        00 00 00 00 20 76 1d 1d|        .... v..|      [20]: "1987-04-05T09:00:13Z" (544611613) transition_time 0x428-0x42f.7 (8)
0x430|00 00 00 00 21 81 af 8d                        |....!...        |      [21]: "1987-10-25T08:00:13Z" (562147213) transition_time 0x430-0x437.7 (8)
0x430|                        00 00 00 00 22 55 ff 1e|        ...."U..|      [22]: "1988-04-03T09:00:14Z" (576061214) transition_time 0x438-0x43f.7 (8)
0x440|00 00 00 00 23 6a cc 0e                        |....#j..        |      [23]: "1988-10-30T08:00:14Z" (594201614) transition_time 0x440-0x447.7 (8)
0x440|                        00 00 00 00 24 35 e1 1e|        ....$5..|      [24]: "1989-04-02T09:00:14Z" (607510814) transition_time 0x448-0x44f.7 (8)
0x450|00 00 00 00 25 4a ae 0e                        |....%J..        |      [25]: "1989-10-29T08:00:14Z" (625651214) transition_time 0x450-0x457.7 (8)
0x450|                        00 00 00 00 26 15 c3 1f|        ....&...|      [26]: "1990-04-01T09:00:15Z" (638960415) transition_time 0x458-0x45f.7 (8)
0x460|00 00 00 00 27 2a 90 0f                        |....'*..        |      [27]: "1990-10-28T08:00:15Z" (657100815) transition_time 0x460-0x467.7 (8)
0x460|                        00 00 00 00 27 fe df a0|        ....'...|      [28]: "1991-04-07T09:00:16Z" (671014816) transition_time 0x468-0x46f.7 (8)
0x470|00 00 00 00 29 0a 72 10                        |....).r.        |      [29]: "1991-10-27T08:00:16Z" (688550416) transition_time 0x470-0x477.7 (8)
0x470|                        00 00 00 00 29 de c1 a0|        ....)...|      [30]: "1992-04-05T09:00:16Z" (702464416) transition_time 0x478-0x47f.7 (8)
0x480|00 00 00 00 2a ea 54 11                        |....*.T.        |      [31]: "1992-10-25T08:00:17Z" (720000017) transition_time 0x480-0x487.7 (8)
0x480|                        00 00 00 00 2b be a3 a1|        ....+...|      [32]: "1993-04-04T09:00:17Z" (733914017) transition_time 0x488-0x48f.7 (8)
0x490|00 00 00 00 2c d3 70 92                        |....,.p.        |      [33]: "1993-10-31T08:00:18Z" (752054418) transition_time 0x490-0x497.7 (8)
0x490|                        00 00 00 00 2d 9e 85 a2|        ....-...|      [34]: "1994-04-03T09:00:18Z" (765363618) transition_time 0x498-0x49f.7 (8)
0x4a0|00 00 00 00 2e b3 52 93                        |......R.        |      [35]: "1994-10-30T08:00:19Z" (783504019) transition_time 0x4a0-0x4a7.7 (8)
0x4a0|                        00 00 00 00 2f 7e 67 a3|        ..../~g.|      [36]: "1995-04-02T09:00:19Z" (796813219) transition_time 0x4a8-0x4af.7 (8)
0x4b0|00 00 00 00 30 93 34 93                        |....0.4.        |      [37]: "1995-10-29T08:00:19Z" (814953619) transition_time 0x4b0-0x4b7.7 (8)
0x4b0|                        00 00 00 00 31 67 84 24|        ....1g.$|      [38]: "1996-04-07T09:00:20Z" (828867620) transition_time 0x4b8-0x4bf.7 (8)
0x4c0|00 00 00 00 32 73 16 94                        |....2s..        |      [39]: "1996-10-27T08:00:20Z" (846403220) transition_time 0x4c0-0x4c7.7 (8)
0x4c0|                        00 00 00 00 33 47 66 24|        ....3Gf$|      [40]: "1997-04-06T09:00:20Z" (860317220) transition_time 0x4c8-0x4cf.7 (8)
0x4d0|00 00 00 00 34 52 f8 95                        |....4R..        |      [41]: "1997-10-26T08:00:21Z" (877852821) transition_time 0x4d0-0x4d7.7 (8)
0x4d0|                        00 00 00 00 35 27 48 25|        ....5'H%|      [42]: "1998-04-05T09:00:21Z" (891766821) transition_time 0x4d8-0x4df.7 (8)
0x4e0|00 00 00 00 36 32 da 95                        |....62..        |      [43]: "1998-10-25T08:00:21Z" (909302421) transition_time 0x4e0-0x4e7.7 (8)
0x4e0|                        00 00 00 00 37 07 2a 26|        ....7.*&|      [44]: "1999-04-04T09:00:22Z" (923216422) transition_time 0x4e8-0x4ef.7 (8)
0x4f0|00 00 00 00 38 1b f7 16                        |....8...        |      [45]: "1999-10-31T08:00:22Z" (941356822) transition_time 0x4f0-0x4f7.7 (8)
0x4f0|                        00 00 00 00 38 e6 fe 16|        ....8...|      [46]: "2000-04-02T08:00:22Z" (954662422) transition_time 0x4f8-0x4ff.7 (8)
0x500|00 00 00 00 39 fb cb 06                        |....9...        |      [47]: "2000-10-29T07:00:22Z" (972802822) transition_time 0x500-0x507.7 (8)
0x500|                        00 00 00 00 3a 04 e9 66|        ....:..f|      [48]: "2000-11-05T05:00:22Z" (973400422) transition_time 0x508-0x50f.7 (8)
0x510|00 00 00 00 3a c6 ee 26                        |....:..&        |      [49]: "2001-04-01T09:00:22Z" (986115622) transition_time 0x510-0x517.7 (8)
0x510|                        00 00 00 00 3b db bb 16|        ....;...|      [50]: "2001-10-28T08:00:22Z" (1004256022) transition_time 0x518-0x51f.7 (8)
0x520|00 00 00 00 3c b0 0a a6                        |....<...        |      [51]: "2002-04-07T09:00:22Z" (1018170022) transition_time 0x520-0x527.7 (8)
0x520|                        00 00 00 00 3d bb 9d 16|        ....=...|      [52]: "2002-10-27T08:00:22Z" (1035705622) transition_time 0x528-0x52f.7 (8)
0x530|00 00 00 00 3e 8f ec a6                        |....>...        |      [53]: "2003-04-06T09:00:22Z" (1049619622) transition_time 0x530-0x537.7 (8)
0x530|                        00 00 00 00 3f 9b 7f 16|        ....?...|      [54]: "2003-10-26T08:00:22Z" (1067155222) transition_time 0x538-0x53f.7 (8)
0x540|00 00 00 00 40 6f ce a6                        |....@o..        |      [55]: "2004-04-04T09:00:22Z" (1081069222) transition_time 0x540-0x547.7 (8)
0x540|                        00 00 00 00 41 84 9b 96|        ....A...|      [56]: "2004-10-31T08:00:22Z" (1099209622) transition_time 0x548-0x54f.7 (8)
0x550|00 00 00 00 42 4f b0 a6                        |....BO..        |      [57]: "2005-04-03T09:00:22Z" (1112518822) transition_time 0x550-0x557.7 (8)
0x550|                        00 00 00 00 43 64 7d 96|        ....Cd}.|      [58]: "2005-10-30T08:00:22Z" (1130659222) transition_time 0x558-0x55f.7 (8)
0x560|00 00 00 00 44 2f 92 a7                        |....D/..        |      [59]: "2006-04-02T09:00:23Z" (1143968423) transition_time 0x560-0x567.7 (8)
0x560|                        00 00 00 00 45 44 5f 97|        ....ED_.|      [60]: "2006-10-29T08:00:23Z" (1162108823) transition_time 0x568-0x56f.7 (8)
0x570|00 00 00 00 45 f3 c5 27                        |....E..'        |      [61]: "2007-03-11T09:00:23Z" (1173603623) transition_time 0x570-0x577.7 (8)
0x570|                        00 00 00 00 47 2d 7c 17|        ....G-|.|      [62]: "2007-11-04T08:00:23Z" (1194163223) transition_time 0x578-0x57f.7 (8)
0x580|00 00 00 00 47 d3 a7 27                        |....G..'        |      [63]: "2008-03-09T09:00:23Z" (1205053223) transition_time 0x580-0x587.7 (8)
0x580|                        00 00 00 00 49 0d 5e 17|        ....I.^.|      [64]: "2008-11-02T08:00:23Z" (1225612823) transition_time 0x588-0x58f.7 (8)
0x590|00 00 00 00 49 b3 89 28                        |....I..(        |      [65]: "2009-03-08T09:00:24Z" (1236502824) transition_time 0x590-0x597.7 (8)
0x590|                        00 00 00 00 4a ed 40 18|        ....J.@.|      [66]: "2009-11-01T08:00:24Z" (1257062424) transition_time 0x598-0x59f.7 (8)
0x5a0|00 00 00 00 4b 9c a5 a8                        |....K...        |      [67]: "2010-03-14T09:00:24Z" (1268557224) transition_time 0x5a0-0x5a7.7 (8)
0x5a0|                        00 00 00 00 4c d6 5c 98|        ....L.\.|      [68]: "2010-11-07T08:00:24Z" (1289116824) transition_time 0x5a8-0x5af.7 (8)
0x5b0|00 00 00 00 4d 7c 87 a8                        |....M|..        |      [69]: "2011-03-13T09:00:24Z" (1300006824) transition_time 0x5b0-0x5b7.7 (8)
0x5b0|                        00 00 00 00 4e b6 3e 98|        ....N.>.|      [70]: "2011-11-06T08:00:24Z" (1320566424) transition_time 0x5b8-0x5bf.7 (8)
0x5c0|00 00 00 00 4f 5c 69 a8                        |....O\i.        |      [71]: "2012-03-11T09:00:24Z" (1331456424) transition_time 0x5c0-0x5c7.7 (8)
0x5c0|                        00 00 00 00 50 96 20 99|        ....P. .|      [72]: "2012-11-04T08:00:25Z" (1352016025) transition_time 0x5c8-0x5cf.7 (8)
0x5d0|00 00 00 00 51 3c 4b a9                        |....Q<K.        |      [73]: "2013-03-10T09:00:25Z" (1362906025) transition_time 0x5d0-0x5d7.7 (8)
0x5d0|                        00 00 00 00 52 76 02 99|        ....Rv..|      [74]: "2013-11-03T08:00:25Z" (1383465625) transition_time 0x5d8-0x5df.7 (8)
0x5e0|00 00 00 00 53 1c 2d a9                        |....S.-.        |      [75]: "2014-03-09T09:00:25Z" (1394355625) transition_time 0x5e0-0x5e7.7 (8)
0x5e0|                        00 00 00 00 54 55 e4 99|        ....TU..|      [76]: "2014-11-02T08:00:25Z" (1414915225) transition_time 0x5e8-0x5ef.7 (8)
0x5f0|00 00 00 00 54 fc 0f a9                        |....T...        |      [77]: "2015-03-08T09:00:25Z" (1425805225) transition_time 0x5f0-0x5f7.7 (8)
0x5f0|                        00 00 00 00 56 35 c6 9a|        ....V5..|      [78]: "2015-11-01T08:00:26Z" (1446364826) transition_time 0x5f8-0x5ff.7 (8)
0x600|00 00 00 00 56 e5 2c 2a                        |....V.,*        |      [79]: "2016-03-13T09:00:26Z" (1457859626) transition_time 0x600-0x607.7 (8)
0x600|                        00 00 00 00 58 1e e3 1a|        ....X...|      [80]: "2016-11-06T08:00:26Z" (1478419226) transition_time 0x608-0x60f.7 (8)
0x610|00 00 00 00 58 c5 0e 2b                        |....X..+        |      [81]: "2017-03-12T09:00:27Z" (1489309227) transition_time 0x610-0x617.7 (8)
0x610|                        00 00 00 00 59 fe c5 1b|        ....Y...|      [82]: "2017-11-05T08:00:27Z" (1509868827) transition_time 0x618-0x61f.7 (8)
0x620|00 00 00 00 5a a4 f0 2b                        |....Z..+        |      [83]: "2018-03-11T09:00:27Z" (1520758827) transition_time 0x620-0x627.7 (8)
0x620|                        00 00 00 00 5b de a7 1b|        ....[...|      [84]: "2018-11-04T08:00:27Z" (1541318427) transition_time 0x628-0x62f.7 (8)
0x630|00 00 00 00 5c 84 d2 2b                        |....\..+        |      [85]: "2019-03-10T09:00:27Z" (1552208427) transition_time 0x630-0x637.7 (8)
0x630|                        00 00 00 00 5d be 89 1b|        ....]...|      [86]: "2019-11-03T08:00:27Z" (1572768027) transition_time 0x638-0x63f.7 (8)
0x640|00 00 00 00 5e 64 b4 2b                        |....^d.+        |      [87]: "2020-03-08T09:00:27Z" (1583658027) transition_time 0x640-0x647.7 (8)
0x640|                        00 00 00 00 5f 9e 6b 1b|        ...._.k.|      [88]: "2020-11-01T08:00:27Z" (1604217627) transition_time 0x648-0x64f.7 (8)
0x650|00 00 00 00 60 4d d0 ab                        |....`M..        |      [89]: "2021-03-14T09:00:27Z" (1615712427) transition_time 0x650-0x657.7 (8)
0x650|                        00 00 00 00 61 87 87 9b|        ....a...|      [90]: "2021-11-07T08:00:27Z" (1636272027) transition_time 0x658-0x65f.7 (8)
0x660|00 00 00 00 62 2d b2 ab                        |....b-..        |      [91]: "2022-03-13T09:00:27Z" (1647162027) transition_time 0x660-0x667.7 (8)
0x660|                        00 00 00 00 63 67 69 9b|        ....cgi.|      [92]: "2022-11-06T08:00:27Z" (1667721627) transition_time 0x668-0x66f.7 (8)
0x670|00 00 00 00 64 0d 94 ab                        |....d...        |      [93]: "2023-03-12T09:00:27Z" (1678611627) transition_time 0x670-0x677.7 (8)
0x670|                        00 00 00 00 64 9b 78 1b|        ....d.x.|      [94]: "2023-06-28T00:00:27Z" (1687910427) transition_time 0x678-0x67f.7 (8)
     |                                               |                |    transition_types[0:95]: 0x680-0x6de.7 (95)
0x680|03                                             |.               |      [0]: 3 transition_type 0x680-0x680.7 (1)
0x680|   01                                          | .              |      [1]: 1 transition_type 0x681-0x681.7 (1)
0x680|      02                                       |  .             |      [2]: 2 transition_type 0x682-0x682.7 (1)
0x680|         03                                    |   .            |      [3]: 3 transition_type 0x683-0x683.7 (1)
0x680|            04                                 |    .           |      [4]: 4 transition_type 0x684-0x684.7 (1)
0x680|               03                              |     .          |      [5]: 3 transition_type 0x685-0x685.7 (1)
0x680|                  05                           |      .         |      [6]: 5 transition_type 0x686-0x686.7 (1)
0x680|                     03                        |       .        |      [7]: 3 transition_type 0x687-0x687.7 (1)
0x680|                        05                     |        .       |      [8]: 5 transition_type 0x688-0x688.7 (1)
0x680|                           03                  |         .      |      [9]: 3 transition_type 0x689-0x689.7 (1)
0x680|                              05               |          .     |      [10]: 5 transition_type 0x68a-0x68a.7 (1)
0x680|                                 03            |           .    |      [11]: 3 transition_type 0x68b-0x68b.7 (1)
0x680|                                    05         |            .   |      [12]: 5 transition_type 0x68c-0x68c.7 (1)
0x680|                                       03      |             .  |      [13]: 3 transition_type 0x68d-0x68d.7 (1)
0x680|                                          05   |              . |      [14]: 5 transition_type 0x68e-0x68e.7 (1)
0x680|                                             03|               .|      [15]: 3 transition_type 0x68f-0x68f.7 (1)
0x690|05                                             |.               |      [16]: 5 transition_type 0x690-0x690.7 (1)
0x690|   03                                          | .              |      [17]: 3 transition_type 0x691-0x691.7 (1)
0x690|      05                                       |  .             |      [18]: 5 transition_type 0x692-0x692.7 (1)
0x690|         03                                    |   .            |      [19]: 3 transition_type 0x693-0x693.7 (1)
0x690|            05                                 |    .           |      [20]: 5 transition_type 0x694-0x694.7 (1)
0x690|               03                              |     .          |      [21]: 3 transition_type 0x695-0x695.7 (1)
0x690|                  05                           |      .         |      [22]: 5 transition_type 0x696-0x696.7 (1)
0x690|                     03                        |       .        |      [23]: 3 transition_type 0x697-0x697.7 (1)
0x690|                        05                     |        .       |      [24]: 5 transition_type 0x698-0x698.7 (1)
0x690|                           03                  |         .      |      [25]: 3 transition_type 0x699-0x699.7 (1)
0x690|                              05               |          .     |      [26]: 5 transition_type 0x69a-0x69a.7 (1)
0x690|                                 03            |           .    |      [27]: 3 transition_type 0x69b-0x69b.7 (1)
0x690|                                    05         |            .   |      [28]: 5 transition_type 0x69c-0x69c.7 (1)
0x690|                                       03      |             .  |      [29]: 3 transition_type 0x69d-0x69d.7 (1)
0x690|                                          05   |              . |      [30]: 5 transition_type 0x69e-0x69e.7 (1)
0x690|                                             03|               .|      [31]: 3 transition_type 0x69f-0x69f.7 (1)
0x6a0|05                                             |.               |      [32]: 5 transition_type 0x6a0-0x6a0.7 (1)
0x6a0|   03                                          | .              |      [33]: 3 transition_type 0x6a1-0x6a1.7 (1)
0x6a0|      05                                       |  .             |      [34]: 5 transition_type 0x6a2-0x6a2.7 (1)
0x6a0|         03                                    |   .            |      [35]: 3 transition_type 0x6a3-0x6a3.7 (1)
0x6a0|            05                                 |    .           |      [36]: 5 transition_type 0x6a4-0x6a4.7 (1)
0x6a0|               03                              |     .          |      [37]: 3 transition_type 0x6a5-0x6a5.7 (1)
0x6a0|                  05                           |      .         |      [38]: 5 transition_type 0x6a6-0x6a6.7 (1)
0x6a0|                     03                        |       .        |      [39]: 3 transition_type 0x6a7-0x6a7.7 (1)
0x6a0|                        05                     |        .       |      [40]: 5 transition_type 0x6a8-0x6a8.7 (1)
0x6a0|                           03                  |         .      |      [41]: 3 transition_type 0x6a9-0x6a9.7 (1)
0x6a0|                              05               |          .     |      [42]: 5 transition_type 0x6aa-0x6aa.7 (1)
0x6a0|                                 03            |           .    |      [43]: 3 transition_type 0x6ab-0x6ab.7 (1)
0x6a0|                                    05         |            .   |      [44]: 5 transition_type 0x6ac-0x6ac.7 (1)
0x6a0|                                       07      |             .  |      [45]: 7 transition_type 0x6ad-0x6ad.7 (1)
0x6a0|                                          06   |              . |      [46]: 6 transition_type 0x6ae-0x6ae.7 (1)
0x6a0|                                             08|               .|      [47]: 8 transition_type 0x6af-0x6af.7 (1)
0x6b0|07                                             |.               |      [48]: 7 transition_type 0x6b0-0x6b0.7 (1)
0x6b0|   05                                          | .              |      [49]: 5 transition_type 0x6b1-0x6b1.7 (1)
0x6b0|      03                                       |  .             |      [50]: 3 transition_type 0x6b2-0x6b2.7 (1)
0x6b0|         05                                    |   .            |      [51]: 5 transition_type 0x6b3-0x6b3.7 (1)
0x6b0|            03                                 |    .           |      [52]: 3 transition_type 0x6b4-0x6b4.7 (1)
0x6b0|               05                              |     .          |      [53]: 5 transition_type 0x6b5-0x6b5.7 (1)
0x6b0|                  03                           |      .         |      [54]: 3 transition_type 0x6b6-0x6b6.7 (1)
0x6b0|                     05                        |       .        |      [55]: 5 transition_type 0x6b7-0x6b7.7 (1)
0x6b0|                        03                     |        .       |      [56]: 3 transition_type 0x6b8-0x6b8.7 (1)
0x6b0|                           05                  |         .      |      [57]: 5 transition_type 0x6b9-0x6b9.7 (1)
0x6b0|                              03               |          .     |      [58]: 3 transition_type 0x6ba-0x6ba.7 (1)
0x6b0|                                 05            |           .    |      [59]: 5 transition_type 0x6bb-0x6bb.7 (1)
0x6b0|                                    03         |            .   |      [60]: 3 transition_type 0x6bc-0x6bc.7 (1)
0x6b0|                                       05      |             .  |      [61]: 5 transition_type 0x6bd-0x6bd.7 (1)
0x6b0|                                          03   |              . |      [62]: 3 transition_type 0x6be-0x6be.7 (1)
0x6b0|                                             05|               .|      [63]: 5 transition_type 0x6bf-0x6bf.7 (1)
0x6c0|03                                             |.               |      [64]: 3 transition_type 0x6c0-0x6c0.7 (1)
0x6c0|   05                                          | .              |      [65]: 5 transition_type 0x6c1-0x6c1.7 (1)
0x6c0|      03                                       |  .             |      [66]: 3 transition_type 0x6c2-0x6c2.7 (1)
0x6c0|         05                                    |   .            |      [67]: 5 transition_type 0x6c3-0x6c3.7 (1)
0x6c0|            03                                 |    .           |      [68]: 3 transition_type 0x6c4-0x6c4.7 (1)
0x6c0|               05                              |     .          |      [69]: 5 transition_type 0x6c5-0x6c5.7 (1)
0x6c0|                  03                           |      .         |      [70]: 3 transition_type 0x6c6-0x6c6.7 (1)
0x6c0|                     05                        |       .        |      [71]: 5 transition_type 0x6c7-0x6c7.7 (1)
0x6c0|                        03                     |        .       |      [72]: 3 transition_type 0x6c8-0x6c8.7 (1)
0x6c0|                           05                  |         .      |      [73]: 5 transition_type 0x6c9-0x6c9.7 (1)
0x6c0|                              03               |          .     |      [74]: 3 transition_type 0x6ca-0x6ca.7 (1)
0x6c0|                                 05            |           .    |      [75]: 5 transition_type 0x6cb-0x6cb.7 (1)
0x6c0|                                    03         |            .   |      [76]: 3 transition_type 0x6cc-0x6cc.7 (1)
0x6c0|                                       05      |             .  |      [77]: 5 transition_type 0x6cd-0x6cd.7 (1)
0x6c0|                                          03   |              . |      [78]: 3 transition_type 0x6ce-0x6ce.7 (1)
0x6c0|                                             05|               .|      [79]: 5 transition_type 0x6cf-0x6cf.7 (1)
0x6d0|03                                             |.               |      [80]: 3 transition_type 0x6d0-0x6d0.7 (1)
0x6d0|   05                                          | .              |      [81]: 5 transition_type 0x6d1-0x6d1.7 (1)
0x6d0|      03                                       |  .             |      [82]: 3 transition_type 0x6d2-0x6d2.7 (1)
0x6d0|         05                                    |   .            |      [83]: 5 transition_type 0x6d3-0x6d3.7 (1)
0x6d0|            03                                 |    .           |      [84]: 3 transition_type 0x6d4-0x6d4.7 (1)
0x6d0|               05                              |     .          |      [85]: 5 transition_type 0x6d5-0x6d5.7 (1)
0x6d0|                  03                           |      .         |      [86]: 3 transition_type 0x6d6-0x6d6.7 (1)
0x6d0|                     05                        |       .        |      [87]: 5 transition_type 0x6d7-0x6d7.7 (1)
0x6d0|                        03                     |        .       |      [88]: 3 transition_type 0x6d8-0x6d8.7 (1)
0x6d0|                           05                  |         .      |      [89]: 5 transition_type 0x6d9-0x6d9.7 (1)
0x6d0|                              03               |          .     |      [90]: 3 transition_type 0x6da-0x6da.7 (1)
0x6d0|                                 05            |           .    |      [91]: 5 transition_type 0x6db-0x6db.7 (1)
0x6d0|                                    03         |            .   |      [92]: 3 transition_type 0x6dc-0x6dc.7 (1)
0x6d0|                                       05      |             .  |      [93]: 5 transition_type 0x6dd-0x6dd.7 (1)
0x6d0|                                          05   |              . |      [94]: 5 transition_type 0x6de-0x6de.7 (1)
     |                                               |                |    local_time_type_records[0:11]: 0x6df-0x720.7 (66)
     |                                               |                |      [0]{}: local_time_type 0x6df-0x6e4.7 (6)
0x6d0|                                             00|               .|        utoff: 0 (valid) 0x6df-0x6e2.7 (4)
0x6e0|00 00 00                                       |...             |
0x6e0|         00                                    |   .            |        dst: 0 (valid) 0x6e3-0x6e3.7 (1)
0x6e0|            00                                 |    .           |        idx: 0 (valid) 0x6e4-0x6e4.7 (1)
     |                                               |                |      [1]{}: local_time_type 0x6e5-0x6ea.7 (6)
0x6e0|               ff ff ab a0                     |     ....       |        utoff: -21600 (valid) 0x6e5-0x6e8.7 (4)
0x6e0|                           01                  |         .      |        dst: 1 (valid) 0x6e9-0x6e9.7 (1)
0x6e0|                              04               |          .     |        idx: 4 (valid) 0x6ea-0x6ea.7 (1)
     |                                               |                |      [2]{}: local_time_type 0x6eb-0x6f0.7 (6)
0x6e0|                                 ff ff ab a0   |           .... |        utoff: -21600 (valid) 0x6eb-0x6ee.7 (4)
0x6e0|                                             01|               .|        dst: 1 (valid) 0x6ef-0x6ef.7 (1)
0x6f0|08                                             |.               |        idx: 8 (valid) 0x6f0-0x6f0.7 (1)
     |                                               |                |      [3]{}: local_time_type 0x6f1-0x6f6.7 (6)
0x6f0|   ff ff 9d 90                                 | ....           |        utoff: -25200 (valid) 0x6f1-0x6f4.7 (4)
0x6f0|               00                              |     .          |        dst: 0 (valid) 0x6f5-0x6f5.7 (1)
0x6f0|                  0c                           |      .         |        idx: 12 (valid) 0x6f6-0x6f6.7 (1)
     |                                               |                |      [4]{}: local_time_type 0x6f7-0x6fc.7 (6)
0x6f0|                     ff ff b9 b0               |       ....     |        utoff: -18000 (valid) 0x6f7-0x6fa.7 (4)
0x6f0|                                 01            |           .    |        dst: 1 (valid) 0x6fb-0x6fb.7 (1)
0x6f0|                                    10         |            .   |        idx: 16 (valid) 0x6fc-0x6fc.7 (1)
     |                                               |                |      [5]{}: local_time_type 0x6fd-0x702.7 (6)
0x6f0|                                       ff ff ab|             ...|        utoff: -21600 (valid) 0x6fd-0x700.7 (4)
0x700|a0                                             |.               |
0x700|   01                                          | .              |        dst: 1 (valid) 0x701-0x701.7 (1)
0x700|      15                                       |  .             |        idx: 21 (valid) 0x702-0x702.7 (1)
     |                                               |                |      [6]{}: local_time_type 0x703-0x708.7 (6)
0x700|         ff ff b9 b0                           |   ....         |        utoff: -18000 (valid) 0x703-0x706.7 (4)
0x700|                     01                        |       .        |        dst: 1 (valid) 0x707-0x707.7 (1)
0x700|                        19                     |        .       |        idx: 25 (valid) 0x708-0x708.7 (1)
     |                                               |                |      [7]{}: local_time_type 0x709-0x70e.7 (6)
0x700|                           ff ff ab a0         |         ....   |        utoff: -21600 (valid) 0x709-0x70c.7 (4)
0x700|                                       00      |             .  |        dst: 0 (valid) 0x70d-0x70d.7 (1)
0x700|                                          1d   |              . |        idx: 29 (valid) 0x70e-0x70e.7 (1)
     |                                               |                |      [8]{}: local_time_type 0x70f-0x714.7 (6)
0x700|                                             ff|               .|        utoff: -18000 (valid) 0x70f-0x712.7 (4)
0x710|ff b9 b0                                       |...             |
0x710|         00                                    |   .            |        dst: 0 (valid) 0x713-0x713.7 (1)
0x710|            21                                 |    !           |        idx: 33 (valid) 0x714-0x714.7 (1)
     |                                               |                |      [9]{}: local_time_type 0x715-0x71a.7 (6)
0x710|               ff ff ab a0                     |     ....       |        utoff: -21600 (valid) 0x715-0x718.7 (4)
0x710|                           01                  |         .      |        dst: 1 (valid) 0x719-0x719.7 (1)
0x710|                              15               |          .     |        idx: 21 (valid) 0x71a-0x71a.7 (1)
     |                                               |                |      [10]{}: local_time_type 0x71b-0x720.7 (6)
0x710|                                 ff ff 9d 90   |           .... |        utoff: -25200 (valid) 0x71b-0x71e.7 (4)
0x710|                                             00|               .|        dst: 0 (valid) 0x71f-0x71f.7 (1)
0x720|0c                                             |.               |        idx: 12 (valid) 0x720-0x720.7 (1)
     |                                               |                |    time_zone_designations[0:9]: 0x721-0x745.7 (37)
0x720|   2d 30 30 00                                 | -00.           |      [0]: "-00" time_zone_designation 0x721-0x724.7 (4)
0x720|               4d 57 54 00                     |     MWT.       |      [1]: "MWT" time_zone_designation 0x725-0x728.7 (4)
0x720|                           4d 50 54 00         |         MPT.   |      [2]: "MPT" time_zone_designation 0x729-0x72c.7 (4)
0x720|                                       4d 53 54|             MST|      [3]: "MST" time_zone_designation 0x72d-0x730.7 (4)
0x730|00                                             |.               |
0x730|   4d 44 44 54 00                              | MDDT.          |      [4]: "MDDT" time_zone_designation 0x731-0x735.7 (5)
0x730|                  4d 44 54 00                  |      MDT.      |      [5]: "MDT" time_zone_designation 0x736-0x739.7 (4)
0x730|                              43 44 54 00      |          CDT.  |      [6]: "CDT" time_zone_designation 0x73a-0x73d.7 (4)
0x730|                                          43 53|              CS|      [7]: "CST" time_zone_designation 0x73e-0x741.7 (4)
0x740|54 00                                          |T.              |
0x740|      45 53 54 00                              |  EST.          |      [8]: "EST" time_zone_designation 0x742-0x745.7 (4)
     |                                               |                |    leap_second_records[0:27]: 0x746-0x889.7 (324)
     |                                               |                |      [0]{}: leap_second_record 0x746-0x751.7 (12)
0x740|                  00 00 00 00 04 b2 58 00      |      ......X.  |        occur: "1972-07-01T00:00:00Z" (78796800) 0x746-0x74d.7 (8)
0x740|                                          00 00|              ..|        corr: 1 0x74e-0x751.7 (4)
0x750|00 01                                          |..              |
     |                                               |                |      [1]{}: leap_second_record 0x752-0x75d.7 (12)
0x750|      00 00 00 00 05 a4 ec 01                  |  ........      |        occur: "1973-01-01T00:00:01Z" (94694401) 0x752-0x759.7 (8)
0x750|                              00 00 00 02      |          ....  |        corr: 2 0x75a-0x75d.7 (4)
     |                                               |                |      [2]{}: leap_second_record 0x75e-0x769.7 (12)
0x750|                                          00 00|              ..|        occur: "1974-01-01T00:00:02Z" (126230402) 0x75e-0x765.7 (8)
0x760|00 00 07 86 1f 82                              |......          |
0x760|                  00 00 00 03                  |      ....      |        corr: 3 0x766-0x769.7 (4)
     |                                               |                |      [3]{}: leap_second_record 0x76a-0x775.7 (12)
0x760|                              00 00 00 00 09 67|          .....g|        occur: "1975-01-01T00:00:03Z" (157766403) 0x76a-0x771.7 (8)
0x770|53 03                                          |S.              |
0x770|      00 00 00 04                              |  ....          |        corr: 4 0x772-0x775.7 (4)
     |                                               |                |      [4]{}: leap_second_record 0x776-0x781.7 (12)
0x770|                  00 00 00 00 0b 48 86 84      |      .....H..  |        occur: "1976-01-01T00:00:04Z" (189302404) 0x776-0x77d.7 (8)
0x770|                                          00 00|              ..|        corr: 5 0x77e-0x781.7 (4)
0x780|00 05                                          |..              |
     |                                               |                |      [5]{}: leap_second_record 0x782-0x78d.7 (12)
0x780|      00 00 00 00 0d 2b 0b 85                  |  .....+..      |        occur: "1977-01-01T00:00:05Z" (220924805) 0x782-0x789.7 (8)
0x780|                              00 00 00 06      |          ....  |        corr: 6 0x78a-0x78d.7 (4)
     |                                               |                |      [6]{}: leap_second_record 0x78e-0x799.7 (12)
0x780|                                          00 00|              ..|        occur: "1978-01-01T00:00:06Z" (252460806) 0x78e-0x795.7 (8)
0x790|00 00 0f 0c 3f 06                              |....?.          |
0x790|                  00 00 00 07                  |      ....      |        corr: 7 0x796-0x799.7 (4)
     |                                               |                |      [7]{}: leap_second_record 0x79a-0x7a5.7 (12)
0x790|                              00 00 00 00 10 ed|          ......|        occur: "1979-01-01T00:00:07Z" (283996807) 0x79a-0x7a1.7 (8)
0x7a0|72 87                                          |r.              |
0x7a0|      00 00 00 08                              |  ....          |        corr: 8 0x7a2-0x7a5.7 (4)
     |                                               |                |      [8]{}: leap_second_record 0x7a6-0x7b1.7 (12)
0x7a0|                  00 00 00 00 12 ce a6 08      |      ........  |        occur: "1980-01-01T00:00:08Z" (315532808) 0x7a6-0x7ad.7 (8)
0x7a0|                                          00 00|              ..|        corr: 9 0x7ae-0x7b1.7 (4)
0x7b0|00 09                                          |..              |
     |                                               |                |      [9]{}: leap_second_record 0x7b2-0x7bd.7 (12)
0x7b0|      00 00 00 00 15 9f ca 89                  |  ........      |        occur: "1981-07-01T00:00:09Z" (362793609) 0x7b2-0x7b9.7 (8)
0x7b0|                              00 00 00 0a      |          ....  |        corr: 10 0x7ba-0x7bd.7 (4)
     |                                               |                |      [10]{}: leap_second_record 0x7be-0x7c9.7 (12)
0x7b0|                                          00 00|              ..|        occur: "1982-07-01T00:00:10Z" (394329610) 0x7be-0x7c5.7 (8)
0x7c0|00 00 17 80 fe 0a                              |......          |
0x7c0|                  00 00 00 0b                  |      ....      |        corr: 11 0x7c6-0x7c9.7 (4)
     |                                               |                |      [11]{}: leap_second_record 0x7ca-0x7d5.7 (12)
0x7c0|                              00 00 00 00 19 62|          .....b|        occur: "1983-07-01T00:00:11Z" (425865611) 0x7ca-0x7d1.7 (8)
0x7d0|31 8b                                          |1.              |
0x7d0|      00 00 00 0c                              |  ....          |        corr: 12 0x7d2-0x7d5.7 (4)
     |                                               |                |      [12]{}: leap_second_record 0x7d6-0x7e1.7 (12)
0x7d0|                  00 00 00 00 1d 25 ea 0c      |      .....%..  |        occur: "1985-07-01T00:00:12Z" (489024012) 0x7d6-0x7dd.7 (8)
0x7d0|                                          00 00|              ..|        corr: 13 0x7de-0x7e1.7 (4)
0x7e0|00 0d                                          |..              |
     |                                               |                |      [13]{}: leap_second_record 0x7e2-0x7ed.7 (12)
0x7e0|      00 00 00 00 21 da e5 0d                  |  ....!...      |        occur: "1988-01-01T00:00:13Z" (567993613) 0x7e2-0x7e9.7 (8)
0x7e0|                              00 00 00 0e      |          ....  |        corr: 14 0x7ea-0x7ed.7 (4)
     |                                               |                |      [14]{}: leap_second_record 0x7ee-0x7f9.7 (12)
0x7e0|                                          00 00|              ..|        occur: "1990-01-01T00:00:14Z" (631152014) 0x7ee-0x7f5.7 (8)
0x7f0|00 00 25 9e 9d 8e                              |..%...          |
0x7f0|                  00 00 00 0f                  |      ....      |        corr: 15 0x7f6-0x7f9.7 (4)
     |                                               |                |      [15]{}: leap_second_record 0x7fa-0x805.7 (12)
0x7f0|                              00 00 00 00 27 7f|          ....'.|        occur: "1991-01-01T00:00:15Z" (662688015) 0x7fa-0x801.7 (8)
0x800|d1 0f                                          |..              |
0x800|      00 00 00 10                              |  ....          |        corr: 16 0x802-0x805.7 (4)
     |                                               |                |      [16]{}: leap_second_record 0x806-0x811.7 (12)
0x800|                  00 00 00 00 2a 50 f5 90      |      ....*P..  |        occur: "1992-07-01T00:00:16Z" (709948816) 0x806-0x80d.7 (8)
0x800|                                          00 00|              ..|        corr: 17 0x80e-0x811.7 (4)
0x810|00 11                                          |..              |
     |                                               |                |      [17]{}: leap_second_record 0x812-0x81d.7 (12)
0x810|      00 00 00 00 2c 32 29 11                  |  ....,2).      |        occur: "1993-07-01T00:00:17Z" (741484817) 0x812-0x819.7 (8)
0x810|                              00 00 00 12      |          ....  |        corr: 18 0x81a-0x81d.7 (4)
     |                                               |                |      [18]{}: leap_second_record 0x81e-0x829.7 (12)
0x810|                                          00 00|              ..|        occur: "1994-07-01T00:00:18Z" (773020818) 0x81e-0x825.7 (8)
0x820|00 00 2e 13 5c 92                              |....\.          |
0x820|                  00 00 00 13                  |      ....      |        corr: 19 0x826-0x829.7 (4)
     |                                               |                |      [19]{}: leap_second_record 0x82a-0x835.7 (12)
0x820|                              00 00 00 00 30 e7|          ....0.|        occur: "1996-01-01T00:00:19Z" (820454419) 0x82a-0x831.7 (8)
0x830|24 13                                          |$.              |
0x830|      00 00 00 14                              |  ....          |        corr: 20 0x832-0x835.7 (4)
     |                                               |                |      [20]{}: leap_second_record 0x836-0x841.7 (12)
0x830|                  00 00 00 00 33 b8 48 94      |      ....3.H.  |        occur: "1997-07-01T00:00:20Z" (867715220) 0x836-0x83d.7 (8)
0x830|                                          00 00|              ..|        corr: 21 0x83e-0x841.7 (4)
0x840|00 15                                          |..              |
     |                                               |                |      [21]{}: leap_second_record 0x842-0x84d.7 (12)
0x840|      00 00 00 00 36 8c 10 15                  |  ....6...      |        occur: "1999-01-01T00:00:21Z" (915148821) 0x842-0x849.7 (8)
0x840|                              00 00 00 16      |          ....  |        corr: 22 0x84a-0x84d.7 (4)
     |                                               |                |      [22]{}: leap_second_record 0x84e-0x859.7 (12)
0x840|                                          00 00|              ..|        occur: "2006-01-01T00:00:22Z" (1136073622) 0x84e-0x855.7 (8)
0x850|00 00 43 b7 1b 96                              |..C...          |
0x850|                  00 00 00 17                  |      ....      |        corr: 23 0x856-0x859.7 (4)
     |                                               |                |      [23]{}: leap_second_record 0x85a-0x865.7 (12)
0x850|                              00 00 00 00 49 5c|          ....I\|        occur: "2009-01-01T00:00:23Z" (1230768023) 0x85a-0x861.7 (8)
0x860|07 97                                          |..              |
0x860|      00 00 00 18                              |  ....          |        corr: 24 0x862-0x865.7 (4)
     |                                               |                |      [24]{}: leap_second_record 0x866-0x871.7 (12)
0x860|                  00 00 00 00 4f ef 93 18      |      ....O...  |        occur: "2012-07-01T00:00:24Z" (1341100824) 0x866-0x86d.7 (8)
0x860|                                          00 00|              ..|        corr: 25 0x86e-0x871.7 (4)
0x870|00 19                                          |..              |
     |                                               |                |      [25]{}: leap_second_record 0x872-0x87d.7 (12)
0x870|      00 00 00 00 55 93 2d 99                  |  ....U.-.      |        occur: "2015-07-01T00:00:25Z" (1435708825) 0x872-0x879.7 (8)
0x870|                              00 00 00 1a      |          ....  |        corr: 26 0x87a-0x87d.7 (4)
     |                                               |                |      [26]{}: leap_second_record 0x87e-0x889.7 (12)
0x870|                                          00 00|              ..|        occur: "2017-01-01T00:00:26Z" (1483228826) 0x87e-0x885.7 (8)
0x880|00 00 58 68 46 9a                              |..XhF.          |
0x880|                  00 00 00 1b                  |      ....      |        corr: 27 0x886-0x889.7 (4)
     |                                               |                |    standard_wall_indicators[0:11]: 0x88a-0x894.7 (11)
0x880|                              00               |          .     |      [0]: 0 standard_wall_indicator (valid) 0x88a-0x88a.7 (1)
0x880|                                 00            |           .    |      [1]: 0 standard_wall_indicator (valid) 0x88b-0x88b.7 (1)
0x880|                                    01         |            .   |      [2]: 1 standard_wall_indicator (valid) 0x88c-0x88c.7 (1)
0x880|                                       00      |             .  |      [3]: 0 standard_wall_indicator (valid) 0x88d-0x88d.7 (1)
0x880|                                          00   |              . |      [4]: 0 standard_wall_indicator (valid) 0x88e-0x88e.7 (1)
0x880|                                             00|               .|      [5]: 0 standard_wall_indicator (valid) 0x88f-0x88f.7 (1)
0x890|00                                             |.               |      [6]: 0 standard_wall_indicator (valid) 0x890-0x890.7 (1)
0x890|   00                                          | .              |      [7]: 0 standard_wall_indicator (valid) 0x891-0x891.7 (1)
0x890|      00                                       |  .             |      [8]: 0 standard_wall_indicator (valid) 0x892-0x892.7 (1)
0x890|         00                                    |   .            |      [9]: 0 standard_wall_indicator (valid) 0x893-0x893.7 (1)
0x890|            00                                 |    .           |      [10]: 0 standard_wall_indicator (valid) 0x894-0x894.7 (1)
     |                                               |                |    ut_local_indicators[0:11]: 0x895-0x89f.7 (11)
0x890|               00                              |     .          |      [0]: 0 ut_local_indicator (valid) 0x895-0x895.7 (1)
0x890|                  00                           |      .         |      [1]: 0 ut_local_indicator (valid) 0x896-0x896.7 (1)
0x890|                     01                        |       .        |      [2]: 1 ut_local_indicator (valid) 0x897-0x897.7 (1)
0x890|                        00                     |        .       |      [3]: 0 ut_local_indicator (valid) 0x898-0x898.7 (1)
0x890|                           00                  |         .      |      [4]: 0 ut_local_indicator (valid) 0x899-0x899.7 (1)
0x890|                              00               |          .     |      [5]: 0 ut_local_indicator (valid) 0x89a-0x89a.7 (1)
0x890|                                 00            |           .    |      [6]: 0 ut_local_indicator (valid) 0x89b-0x89b.7 (1)
0x890|                                    00         |            .   |      [7]: 0 ut_local_indicator (valid) 0x89c-0x89c.7 (1)
0x890|                                       00      |             .  |      [8]: 0 ut_local_indicator (valid) 0x89d-0x89d.7 (1)
0x890|                                          00   |              . |      [9]: 0 ut_local_indicator (valid) 0x89e-0x89e.7 (1)
0x890|                                             00|               .|      [10]: 0 ut_local_indicator (valid) 0x89f-0x89f.7 (1)
     |                                               |                |  footer{}: 0x8a0-0x8a1.7 (2)
0x8a0|0a                                             |.               |    nl1: 10 (valid) 0x8a0-0x8a0.7 (1)
     |                                               |                |    tz_string: "" 0x8a1-NA (0)
0x8a0|   0a|                                         | .|             |    nl2: 10 (valid) 0x8a1-0x8a1.7 (1)
