$ fq -d tzif dv Campo_Grande
     |00 01 02 03 04 05 06 07 08 09 0a 0b 0c 0d 0e 0f|0123456789abcdef|.{}: Campo_Grande (tzif) 0x0-0x7b9.7 (1978)
     |                                               |                |  v1header{}: 0x0-0x2b.7 (44)
0x000|54 5a 69 66                                    |TZif            |    magic: 0x545a6966 (valid) 0x0-0x3.7 (4)
0x000|            32                                 |    2           |    ver: "2" (0x32) (valid) 0x4-0x4.7 (1)
0x000|               00 00 00 00 00 00 00 00 00 00 00|     ...........|    reserved: raw bits 0x5-0x13.7 (15)
0x010|00 00 00 00                                    |....            |
0x010|            00 00 00 00                        |    ....        |    isutcnt: 0 0x14-0x17.7 (4)
0x010|                        00 00 00 00            |        ....    |    isstdcnt: 0 0x18-0x1b.7 (4)
0x010|                                    00 00 00 1b|            ....|    leapcnt: 27 0x1c-0x1f.7 (4)
0x020|00 00 00 5c                                    |...\            |    timecnt: 92 0x20-0x23.7 (4)
0x020|            00 00 00 03                        |    ....        |    typecnt: 3 0x24-0x27.7 (4)
0x020|                        00 00 00 0c            |        ....    |    charcnt: 12 0x28-0x2b.7 (4)
     |                                               |                |  v1datablock{}: 0x2c-0x2ed.7 (706)
     |                                               |                |    transition_times[0:92]: 0x2c-0x19b.7 (368)
0x020|                                    96 aa 7a 34|            ..z4|      [0]: "1914-01-01T03:38:28Z" (-1767212492) transition_time 0x2c-0x2f.7 (4)
0x030|b8 0f 57 f0                                    |..W.            |      [1]: "1931-10-03T15:00:00Z" (-1206954000) transition_time 0x30-0x33.7 (4)
0x030|            b8 fd 4e b0                        |    ..N.        |      [2]: "1932-04-01T03:00:00Z" (-1191358800) transition_time 0x34-0x37.7 (4)
0x030|                        b9 f1 42 40            |        ..B@    |      [3]: "1932-10-03T04:00:00Z" (-1175371200) transition_time 0x38-0x3b.7 (4)
0x030|                                    ba de 82 30|            ...0|      [4]: "1933-04-01T03:00:00Z" (-1159822800) transition_time 0x3c-0x3f.7 (4)
0x040|da 38 bc 40                                    |.8.@            |      [5]: "1949-12-01T04:00:00Z" (-633816000) transition_time 0x40-0x43.7 (4)
0x040|            da ec 08 40                        |    ...@        |      [6]: "1950-04-16T04:00:00Z" (-622065600) transition_time 0x44-0x47.7 (4)
0x040|                        dc 19 ef c0            |        ....    |      [7]: "1950-12-01T04:00:00Z" (-602280000) transition_time 0x48-0x4b.7 (4)
0x040|                                    dc b9 67 30|            ..g0|      [8]: "1951-04-01T03:00:00Z" (-591829200) transition_time 0x4c-0x4f.7 (4)
0x050|dd fb 23 40                                    |..#@            |      [9]: "1951-12-01T04:00:00Z" (-570744000) transition_time 0x50-0x53.7 (4)
0x050|            de 9b ec 30                        |    ...0        |      [10]: "1952-04-01T03:00:00Z" (-560206800) transition_time 0x54-0x57.7 (4)
0x050|                        df dd a8 40            |        ...@    |      [11]: "1952-12-01T04:00:00Z" (-539121600) transition_time 0x58-0x5b.7 (4)
0x050|                                    e0 54 41 30|            .TA0|      [12]: "1953-03-01T03:00:00Z" (-531349200) transition_time 0x5c-0x5f.7 (4)
0x060|f4 98 0d c0                                    |....            |      [13]: "1963-12-09T04:00:00Z" (-191361600) transition_time 0x60-0x63.7 (4)
0x060|            f5 05 6c 30                        |    ..l0        |      [14]: "1964-03-01T03:00:00Z" (-184194000) transition_time 0x64-0x67.7 (4)
0x060|                        f6 c0 72 40            |        ..r@    |      [15]: "1965-01-31T04:00:00Z" (-155160000) transition_time 0x68-0x6b.7 (4)
0x060|                                    f7 0e 2c b0|            ..,.|      [16]: "1965-03-31T03:00:00Z" (-150066000) transition_time 0x6c-0x6f.7 (4)
0x070|f8 51 3a 40                                    |.Q:@            |      [17]: "1965-12-01T04:00:00Z" (-128894400) transition_time 0x70-0x73.7 (4)
0x070|            f8 c7 d3 30                        |    ...0        |      [18]: "1966-03-01T03:00:00Z" (-121122000) transition_time 0x74-0x77.7 (4)
0x070|                        fa 0a e0 c0            |        ....    |      [19]: "1966-11-01T04:00:00Z" (-99950400) transition_time 0x78-0x7b.7 (4)
0x070|                                    fa a9 06 b0|            ....|      [20]: "1967-03-01T03:00:00Z" (-89586000) transition_time 0x7c-0x7f.7 (4)
0x080|fb ec 14 40                                    |...@            |      [21]: "1967-11-01T04:00:00Z" (-68414400) transition_time 0x80-0x83.7 (4)
0x080|            fc 8b 8b b0                        |    ....        |      [22]: "1968-03-01T03:00:00Z" (-57963600) transition_time 0x84-0x87.7 (4)
0x080|                        1d c9 9c 4d            |        ...M    |      [23]: "1985-11-02T04:00:13Z" (499752013) transition_time 0x88-0x8b.7 (4)
0x080|                                    1e 78 e5 bd|            .x..|      [24]: "1986-03-15T03:00:13Z" (511239613) transition_time 0x8c-0x8f.7 (4)
0x090|1f a0 43 cd                                    |..C.            |      [25]: "1986-10-25T04:00:13Z" (530596813) transition_time 0x90-0x93.7 (4)
0x090|            20 33 dd bd                        |     3..        |      [26]: "1987-02-14T03:00:13Z" (540270013) transition_time 0x94-0x97.7 (4)
0x090|                        21 81 77 4d            |        !.wM    |      [27]: "1987-10-25T04:00:13Z" (562132813) transition_time 0x98-0x9b.7 (4)
0x090|                                    22 0b d6 be|            "...|      [28]: "1988-02-07T03:00:14Z" (571201214) transition_time 0x9c-0x9f.7 (4)
0x0a0|23 58 1e ce                                    |#X..            |      [29]: "1988-10-16T04:00:14Z" (592977614) transition_time 0xa0-0xa3.7 (4)
0x0a0|            23 e2 7e 3e                        |    #.~>        |      [30]: "1989-01-29T03:00:14Z" (602046014) transition_time 0xa4-0xa7.7 (4)
0x0a0|                        25 38 00 ce            |        %8..    |      [31]: "1989-10-15T04:00:14Z" (624427214) transition_time 0xa8-0xab.7 (4)
0x0a0|                                    25 d4 d5 3f|            %..?|      [32]: "1990-02-11T03:00:15Z" (634705215) transition_time 0xac-0xaf.7 (4)
0x0b0|27 21 1d 4f                                    |'!.O            |      [33]: "1990-10-21T04:00:15Z" (656481615) transition_time 0xb0-0xb3.7 (4)
0x0b0|            27 bd f1 c0                        |    '...        |      [34]: "1991-02-17T03:00:16Z" (666759616) transition_time 0xb4-0xb7.7 (4)
0x0b0|                        29 00 ff 50            |        )..P    |      [35]: "1991-10-20T04:00:16Z" (687931216) transition_time 0xb8-0xbb.7 (4)
0x0b0|                                    29 94 99 40|            )..@|      [36]: "1992-02-09T03:00:16Z" (697604416) transition_time 0xbc-0xbf.7 (4)
0x0c0|2a ea 1b d1                                    |*...            |      [37]: "1992-10-25T04:00:17Z" (719985617) transition_time 0xc0-0xc3.7 (4)
0x0c0|            2b 6b 40 c1                        |    +k@.        |      [38]: "1993-01-31T03:00:17Z" (728449217) transition_time 0xc4-0xc7.7 (4)
0x0c0|                        2c c0 c3 52            |        ,..R    |      [39]: "1993-10-17T04:00:18Z" (750830418) transition_time 0xc8-0xcb.7 (4)
0x0c0|                                    2d 66 d2 42|            -f.B|      [40]: "1994-02-20T03:00:18Z" (761713218) transition_time 0xcc-0xcf.7 (4)
0x0d0|2e a0 a5 53                                    |...S            |      [41]: "1994-10-16T04:00:19Z" (782280019) transition_time 0xd0-0xd3.7 (4)
0x0d0|            2f 46 b4 43                        |    /F.C        |      [42]: "1995-02-19T03:00:19Z" (793162819) transition_time 0xd4-0xd7.7 (4)
0x0d0|                        30 80 87 53            |        0..S    |      [43]: "1995-10-15T04:00:19Z" (813729619) transition_time 0xd8-0xdb.7 (4)
0x0d0|                                    31 1d 5b c4|            1.[.|      [44]: "1996-02-11T03:00:20Z" (824007620) transition_time 0xdc-0xdf.7 (4)
0x0e0|32 57 2e d4                                    |2W..            |      [45]: "1996-10-06T04:00:20Z" (844574420) transition_time 0xe0-0xe3.7 (4)
0x0e0|            33 06 78 44                        |    3.xD        |      [46]: "1997-02-16T03:00:20Z" (856062020) transition_time 0xe4-0xe7.7 (4)
0x0e0|                        34 38 62 55            |        48bU    |      [47]: "1997-10-06T04:00:21Z" (876110421) transition_time 0xe8-0xeb.7 (4)
0x0e0|                                    34 f8 cf 45|            4..E|      [48]: "1998-03-01T03:00:21Z" (888721221) transition_time 0xec-0xef.7 (4)
0x0f0|36 20 2d 55                                    |6 -U            |      [49]: "1998-10-11T04:00:21Z" (908078421) transition_time 0xf0-0xf3.7 (4)
0x0f0|            36 cf 76 c6                        |    6.v.        |      [50]: "1999-02-21T03:00:22Z" (919566022) transition_time 0xf4-0xf7.7 (4)
0x0f0|                        37 f6 d4 d6            |        7...    |      [51]: "1999-10-03T04:00:22Z" (938923222) transition_time 0xf8-0xfb.7 (4)
0x0f0|                                    38 b8 93 46|            8..F|      [52]: "2000-02-27T03:00:22Z" (951620422) transition_time 0xfc-0xff.7 (4)
0x100|39 df f1 56                                    |9..V            |      [53]: "2000-10-08T04:00:22Z" (970977622) transition_time 0x100-0x103.7 (4)
0x100|            3a 8f 3a c6                        |    :.:.        |      [54]: "2001-02-18T03:00:22Z" (982465222) transition_time 0x104-0x107.7 (4)
0x100|                        3b c9 0d d6            |        ;...    |      [55]: "2001-10-14T04:00:22Z" (1003032022) transition_time 0x108-0x10b.7 (4)
0x100|                                    3c 6f 1c c6|            <o..|      [56]: "2002-02-17T03:00:22Z" (1013914822) transition_time 0x10c-0x10f.7 (4)
0x110|3d c4 9f 56                                    |=..V            |      [57]: "2002-11-03T04:00:22Z" (1036296022) transition_time 0x110-0x113.7 (4)
0x110|            3e 4e fe c6                        |    >N..        |      [58]: "2003-02-16T03:00:22Z" (1045364422) transition_time 0x114-0x117.7 (4)
0x110|                        3f 92 0c 56            |        ?..V    |      [59]: "2003-10-19T04:00:22Z" (1066536022) transition_time 0x118-0x11b.7 (4)
0x110|                                    40 2e e0 c6|            @...|      [60]: "2004-02-15T03:00:22Z" (1076814022) transition_time 0x11c-0x11f.7 (4)
0x120|41 87 06 56                                    |A..V            |      [61]: "2004-11-02T04:00:22Z" (1099368022) transition_time 0x120-0x123.7 (4)
0x120|            42 17 fd 46                        |    B..F        |      [62]: "2005-02-20T03:00:22Z" (1108868422) transition_time 0x124-0x127.7 (4)
0x120|                        43 51 d0 56            |        CQ.V    |      [63]: "2005-10-16T04:00:22Z" (1129435222) transition_time 0x128-0x12b.7 (4)
0x120|                                    43 f7 df 47|            C..G|      [64]: "2006-02-19T03:00:23Z" (1140318023) transition_time 0x12c-0x12f.7 (4)
0x130|45 4d 61 d7                                    |EMa.            |      [65]: "2006-11-05T04:00:23Z" (1162699223) transition_time 0x130-0x133.7 (4)
0x130|            45 e0 fb c7                        |    E...        |      [66]: "2007-02-25T03:00:23Z" (1172372423) transition_time 0x134-0x137.7 (4)
0x130|                        47 11 94 57            |        G..W    |      [67]: "2007-10-14T04:00:23Z" (1192334423) transition_time 0x138-0x13b.7 (4)
0x130|                                    47 b7 a3 47|            G..G|      [68]: "2008-02-17T03:00:23Z" (1203217223) transition_time 0x13c-0x13f.7 (4)
0x140|48 fa b0 d7                                    |H...            |      [69]: "2008-10-19T04:00:23Z" (1224388823) transition_time 0x140-0x143.7 (4)
0x140|            49 97 85 48                        |    I..H        |      [70]: "2009-02-15T03:00:24Z" (1234666824) transition_time 0x144-0x147.7 (4)
0x140|                        4a da 92 d8            |        J...    |      [71]: "2009-10-18T04:00:24Z" (1255838424) transition_time 0x148-0x14b.7 (4)
0x140|                                    4b 80 a1 c8|            K...|      [72]: "2010-02-21T03:00:24Z" (1266721224) transition_time 0x14c-0x14f.7 (4)
0x150|4c ba 74 d8                                    |L.t.            |      [73]: "2010-10-17T04:00:24Z" (1287288024) transition_time 0x150-0x153.7 (4)
0x150|            4d 60 83 c8                        |    M`..        |      [74]: "2011-02-20T03:00:24Z" (1298170824) transition_time 0x154-0x157.7 (4)
0x150|                        4e 9a 56 d8            |        N.V.    |      [75]: "2011-10-16T04:00:24Z" (1318737624) transition_time 0x158-0x15b.7 (4)
0x150|                                    4f 49 a0 48|            OI.H|      [76]: "2012-02-26T03:00:24Z" (1330225224) transition_time 0x15c-0x15f.7 (4)
0x160|50 83 73 59                                    |P.sY            |      [77]: "2012-10-21T04:00:25Z" (1350792025) transition_time 0x160-0x163.7 (4)
0x160|            51 20 47 c9                        |    Q G.        |      [78]: "2013-02-17T03:00:25Z" (1361070025) transition_time 0x164-0x167.7 (4)
0x160|                        52 63 55 59            |        RcUY    |      [79]: "2013-10-20T04:00:25Z" (1382241625) transition_time 0x168-0x16b.7 (4)
0x160|                                    53 00 29 c9|            S.).|      [80]: "2014-02-16T03:00:25Z" (1392519625) transition_time 0x16c-0x16f.7 (4)
0x170|54 43 37 59                                    |TC7Y            |      [81]: "2014-10-19T04:00:25Z" (1413691225) transition_time 0x170-0x173.7 (4)
0x170|            54 e9 46 49                        |    T.FI        |      [82]: "2015-02-22T03:00:25Z" (1424574025) transition_time 0x174-0x177.7 (4)
0x170|                        56 23 19 5a            |        V#.Z    |      [83]: "2015-10-18T04:00:26Z" (1445140826) transition_time 0x178-0x17b.7 (4)
0x170|                                    56 c9 28 4a|            V.(J|      [84]: "2016-02-21T03:00:26Z" (1456023626) transition_time 0x17c-0x17f.7 (4)
0x180|58 02 fb 5a                                    |X..Z            |      [85]: "2016-10-16T04:00:26Z" (1476590426) transition_time 0x180-0x183.7 (4)
0x180|            58 a9 0a 4b                        |    X..K        |      [86]: "2017-02-19T03:00:27Z" (1487473227) transition_time 0x184-0x187.7 (4)
0x180|                        59 e2 dd 5b            |        Y..[    |      [87]: "2017-10-15T04:00:27Z" (1508040027) transition_time 0x188-0x18b.7 (4)
0x180|                                    5a 88 ec 4b|            Z..K|      [88]: "2018-02-18T03:00:27Z" (1518922827) transition_time 0x18c-0x18f.7 (4)
0x190|5b de 6e db                                    |[.n.            |      [89]: "2018-11-04T04:00:27Z" (1541304027) transition_time 0x190-0x193.7 (4)
0x190|            5c 68 ce 4b                        |    \h.K        |      [90]: "2019-02-17T03:00:27Z" (1550372427) transition_time 0x194-0x197.7 (4)
0x190|                        64 9b 78 1b            |        d.x.    |      [91]: "2023-06-28T00:00:27Z" (1687910427) transition_time 0x198-0x19b.7 (4)
     |                                               |                |    transition_types[0:92]: 0x19c-0x1f7.7 (92)
0x190|                                    02         |            .   |      [0]: 2 transition_type 0x19c-0x19c.7 (1)
0x190|                                       01      |             .  |      [1]: 1 transition_type 0x19d-0x19d.7 (1)
0x190|                                          02   |              . |      [2]: 2 transition_type 0x19e-0x19e.7 (1)
0x190|                                             01|               .|      [3]: 1 transition_type 0x19f-0x19f.7 (1)
0x1a0|02                                             |.               |      [4]: 2 transition_type 0x1a0-0x1a0.7 (1)
0x1a0|   01                                          | .              |      [5]: 1 transition_type 0x1a1-0x1a1.7 (1)
0x1a0|      02                                       |  .             |      [6]: 2 transition_type 0x1a2-0x1a2.7 (1)
0x1a0|         01                                    |   .            |      [7]: 1 transition_type 0x1a3-0x1a3.7 (1)
0x1a0|            02                                 |    .           |      [8]: 2 transition_type 0x1a4-0x1a4.7 (1)
0x1a0|               01                              |     .          |      [9]: 1 transition_type 0x1a5-0x1a5.7 (1)
0x1a0|                  02                           |      .         |      [10]: 2 transition_type 0x1a6-0x1a6.7 (1)
0x1a0|                     01                        |       .        |      [11]: 1 transition_type 0x1a7-0x1a7.7 (1)
0x1a0|                        02                     |        .       |      [12]: 2 transition_type 0x1a8-0x1a8.7 (1)
0x1a0|                           01                  |         .      |      [13]: 1 transition_type 0x1a9-0x1a9.7 (1)
0x1a0|                              02               |          .     |      [14]: 2 transition_type 0x1aa-0x1aa.7 (1)
0x1a0|                                 01            |           .    |      [15]: 1 transition_type 0x1ab-0x1ab.7 (1)
0x1a0|                                    02         |            .   |      [16]: 2 transition_type 0x1ac-0x1ac.7 (1)
0x1a0|                                       01      |             .  |      [17]: 1 transition_type 0x1ad-0x1ad.7 (1)
0x1a0|                                          02   |              . |      [18]: 2 transition_type 0x1ae-0x1ae.7 (1)
0x1a0|                                             01|               .|      [19]: 1 transition_type 0x1af-0x1af.7 (1)
0x1b0|02                                             |.               |      [20]: 2 transition_type 0x1b0-0x1b0.7 (1)
0x1b0|   01                                          | .              |      [21]: 1 transition_type 0x1b1-0x1b1.7 (1)
0x1b0|      02                                       |  .             |      [22]: 2 transition_type 0x1b2-0x1b2.7 (1)
0x1b0|         01                                    |   .            |      [23]: 1 transition_type 0x1b3-0x1b3.7 (1)
0x1b0|            02                                 |    .           |      [24]: 2 transition_type 0x1b4-0x1b4.7 (1)
0x1b0|               01                              |     .          |      [25]: 1 transition_type 0x1b5-0x1b5.7 (1)
0x1b0|                  02                           |      .         |      [26]: 2 transition_type 0x1b6-0x1b6.7 (1)
0x1b0|                     01                        |       .        |      [27]: 1 transition_type 0x1b7-0x1b7.7 (1)
0x1b0|                        02                     |        .       |      [28]: 2 transition_type 0x1b8-0x1b8.7 (1)
0x1b0|                           01                  |         .      |      [29]: 1 transition_type 0x1b9-0x1b9.7 (1)
0x1b0|                              02               |          .     |      [30]: 2 transition_type 0x1ba-0x1ba.7 (1)
0x1b0|                                 01            |           .    |      [31]: 1 transition_type 0x1bb-0x1bb.7 (1)
0x1b0|                                    02         |            .   |      [32]: 2 transition_type 0x1bc-0x1bc.7 (1)
0x1b0|                                       01      |             .  |      [33]: 1 transition_type 0x1bd-0x1bd.7 (1)
0x1b0|                                          02   |              . |      [34]: 2 transition_type 0x1be-0x1be.7 (1)
0x1b0|                                             01|               .|      [35]: 1 transition_type 0x1bf-0x1bf.7 (1)
0x1c0|02                                             |.               |      [36]: 2 transition_type 0x1c0-0x1c0.7 (1)
0x1c0|   01                                          | .              |      [37]: 1 transition_type 0x1c1-0x1c1.7 (1)
0x1c0|      02                                       |  .             |      [38]: 2 transition_type 0x1c2-0x1c2.7 (1)
0x1c0|         01                                    |   .            |      [39]: 1 transition_type 0x1c3-0x1c3.7 (1)
0x1c0|            02                                 |    .           |      [40]: 2 transition_type 0x1c4-0x1c4.7 (1)
0x1c0|               01                              |     .          |      [41]: 1 transition_type 0x1c5-0x1c5.7 (1)
0x1c0|                  02                           |      .         |      [42]: 2 transition_type 0x1c6-0x1c6.7 (1)
0x1c0|                     01                        |       .        |      [43]: 1 transition_type 0x1c7-0x1c7.7 (1)
0x1c0|                        02                     |        .       |      [44]: 2 transition_type 0x1c8-0x1c8.7 (1)
0x1c0|                           01                  |         .      |      [45]: 1 transition_type 0x1c9-0x1c9.7 (1)
0x1c0|                              02               |          .     |      [46]: 2 transition_type 0x1ca-0x1ca.7 (1)
0x1c0|                                 01            |           .    |      [47]: 1 transition_type 0x1cb-0x1cb.7 (1)
0x1c0|                                    02         |            .   |      [48]: 2 transition_type 0x1cc-0x1cc.7 (1)
0x1c0|                                       01      |             .  |      [49]: 1 transition_type 0x1cd-0x1cd.7 (1)
0x1c0|                                          02   |              . |      [50]: 2 transition_type 0x1ce-0x1ce.7 (1)
0x1c0|                                             01|               .|      [51]: 1 transition_type 0x1cf-0x1cf.7 (1)
0x1d0|02                                             |.               |      [52]: 2 transition_type 0x1d0-0x1d0.7 (1)
0x1d0|   01                                          | .              |      [53]: 1 transition_type 0x1d1-0x1d1.7 (1)
0x1d0|      02                                       |  .             |      [54]: 2 transition_type 0x1d2-0x1d2.7 (1)
0x1d0|         01                                    |   .            |      [55]: 1 transition_type 0x1d3-0x1d3.7 (1)
0x1d0|            02                                 |    .           |      [56]: 2 transition_type 0x1d4-0x1d4.7 (1)
0x1d0|               01                              |     .          |      [57]: 1 transition_type 0x1d5-0x1d5.7 (1)
0x1d0|                  02                           |      .         |      [58]: 2 transition_type 0x1d6-0x1d6.7 (1)
0x1d0|                     01                        |       .        |      [59]: 1 transition_type 0x1d7-0x1d7.7 (1)
0x1d0|                        02                     |        .       |      [60]: 2 transition_type 0x1d8-0x1d8.7 (1)
0x1d0|                           01                  |         .      |      [61]: 1 transition_type 0x1d9-0x1d9.7 (1)
0x1d0|                              02               |          .     |      [62]: 2 transition_type 0x1da-0x1da.7 (1)
0x1d0|                                 01            |           .    |      [63]: 1 transition_type 0x1db-0x1db.7 (1)
0x1d0|                                    02         |            .   |      [64]: 2 transition_type 0x1dc-0x1dc.7 (1)
0x1d0|                                       01      |             .  |      [65]: 1 transition_type 0x1dd-0x1dd.7 (1)
0x1d0|                                          02   |              . |      [66]: 2 transition_type 0x1de-0x1de.7 (1)
0x1d0|                                             01|               .|      [67]: 1 transition_type 0x1df-0x1df.7 (1)
0x1e0|02                                             |.               |      [68]: 2 transition_type 0x1e0-0x1e0.7 (1)
0x1e0|   01                                          | .              |      [69]: 1 transition_type 0x1e1-0x1e1.7 (1)
0x1e0|      02                                       |  .             |      [70]: 2 transition_type 0x1e2-0x1e2.7 (1)
0x1e0|         01                                    |   .            |      [71]: 1 transition_type 0x1e3-0x1e3.7 (1)
0x1e0|            02                                 |    .           |      [72]: 2 transition_type 0x1e4-0x1e4.7 (1)
0x1e0|               01                              |     .          |      [73]: 1 transition_type 0x1e5-0x1e5.7 (1)
0x1e0|                  02                           |      .         |      [74]: 2 transition_type 0x1e6-0x1e6.7 (1)
0x1e0|                     01                        |       .        |      [75]: 1 transition_type 0x1e7-0x1e7.7 (1)
0x1e0|                        02                     |        .       |      [76]: 2 transition_type 0x1e8-0x1e8.7 (1)
0x1e0|                           01                  |         .      |      [77]: 1 transition_type 0x1e9-0x1e9.7 (1)
0x1e0|                              02               |          .     |      [78]: 2 transition_type 0x1ea-0x1ea.7 (1)
0x1e0|                                 01            |           .    |      [79]: 1 transition_type 0x1eb-0x1eb.7 (1)
0x1e0|                                    02         |            .   |      [80]: 2 transition_type 0x1ec-0x1ec.7 (1)
0x1e0|                                       01      |             .  |      [81]: 1 transition_type 0x1ed-0x1ed.7 (1)
0x1e0|                                          02   |              . |      [82]: 2 transition_type 0x1ee-0x1ee.7 (1)
0x1e0|                                             01|               .|      [83]: 1 transition_type 0x1ef-0x1ef.7 (1)
0x1f0|02                                             |.               |      [84]: 2 transition_type 0x1f0-0x1f0.7 (1)
0x1f0|   01                                          | .              |      [85]: 1 transition_type 0x1f1-0x1f1.7 (1)
0x1f0|      02                                       |  .             |      [86]: 2 transition_type 0x1f2-0x1f2.7 (1)
0x1f0|         01                                    |   .            |      [87]: 1 transition_type 0x1f3-0x1f3.7 (1)
0x1f0|            02                                 |    .           |      [88]: 2 transition_type 0x1f4-0x1f4.7 (1)
0x1f0|               01                              |     .          |      [89]: 1 transition_type 0x1f5-0x1f5.7 (1)
0x1f0|                  02                           |      .         |      [90]: 2 transition_type 0x1f6-0x1f6.7 (1)
0x1f0|                     02                        |       .        |      [91]: 2 transition_type 0x1f7-0x1f7.7 (1)
     |                                               |                |    local_time_type_records[0:3]: 0x1f8-0x209.7 (18)
     |                                               |                |      [0]{}: local_time_type 0x1f8-0x1fd.7 (6)
0x1f0|                        ff ff cc cc            |        ....    |        utoff: -13108 (valid) 0x1f8-0x1fb.7 (4)
0x1f0|                                    00         |            .   |        dst: 0 (valid) 0x1fc-0x1fc.7 (1)
0x1f0|                                       00      |             .  |        idx: 0 (valid) 0x1fd-0x1fd.7 (1)
     |                                               |                |      [1]{}: local_time_type 0x1fe-0x203.7 (6)
0x1f0|                                          ff ff|              ..|        utoff: -10800 (valid) 0x1fe-0x201.7 (4)
0x200|d5 d0                                          |..              |
0x200|      01                                       |  .             |        dst: 1 (valid) 0x202-0x202.7 (1)
0x200|         04                                    |   .            |        idx: 4 (valid) 0x203-0x203.7 (1)
     |                                               |                |      [2]{}: local_time_type 0x204-0x209.7 (6)
0x200|            ff ff c7 c0                        |    ....        |        utoff: -14400 (valid) 0x204-0x207.7 (4)
0x200|                        00                     |        .       |        dst: 0 (valid) 0x208-0x208.7 (1)
0x200|                           08                  |         .      |        idx: 8 (valid) 0x209-0x209.7 (1)
     |                                               |                |    time_zone_designations[0:3]: 0x20a-0x215.7 (12)
0x200|                              4c 4d 54 00      |          LMT.  |      [0]: "LMT" time_zone_designation 0x20a-0x20d.7 (4)
0x200|                                          2d 30|              -0|      [1]: "-03" time_zone_designation 0x20e-0x211.7 (4)
0x210|33 00                                          |3.              |
0x210|      2d 30 34 00                              |  -04.          |      [2]: "-04" time_zone_designation 0x212-0x215.7 (4)
     |                                               |                |    leap_second_records[0:27]: 0x216-0x2ed.7 (216)
     |                                               |                |      [0]{}: leap_second_record 0x216-0x21d.7 (8)
0x210|                  04 b2 58 00                  |      ..X.      |        occur: "1972-07-01T00:00:00Z" (78796800) 0x216-0x219.7 (4)
0x210|                              00 00 00 01      |          ....  |        corr: 1 0x21a-0x21d.7 (4)
     |                                               |                |      [1]{}: leap_second_record 0x21e-0x225.7 (8)
0x210|                                          05 a4|              ..|        occur: "1973-01-01T00:00:01Z" (94694401) 0x21e-0x221.7 (4)
0x220|ec 01                                          |..              |
0x220|      00 00 00 02                              |  ....          |        corr: 2 0x222-0x225.7 (4)
     |                                               |                |      [2]{}: leap_second_record 0x226-0x22d.7 (8)
0x220|                  07 86 1f 82                  |      ....      |        occur: "1974-01-01T00:00:02Z" (126230402) 0x226-0x229.7 (4)
0x220|                              00 00 00 03      |          ....  |        corr: 3 0x22a-0x22d.7 (4)
     |                                               |                |      [3]{}: leap_second_record 0x22e-0x235.7 (8)
0x220|                                          09 67|              .g|        occur: "1975-01-01T00:00:03Z" (157766403) 0x22e-0x231.7 (4)
0x230|53 03                                          |S.              |
0x230|      00 00 00 04                              |  ....          |        corr: 4 0x232-0x235.7 (4)
     |                                               |                |      [4]{}: leap_second_record 0x236-0x23d.7 (8)
0x230|                  0b 48 86 84                  |      .H..      |        occur: "1976-01-01T00:00:04Z" (189302404) 0x236-0x239.7 (4)
0x230|                              00 00 00 05      |          ....  |        corr: 5 0x23a-0x23d.7 (4)
     |                                               |                |      [5]{}: leap_second_record 0x23e-0x245.7 (8)
0x230|                                          0d 2b|              .+|        occur: "1977-01-01T00:00:05Z" (220924805) 0x23e-0x241.7 (4)
0x240|0b 85                                          |..              |
0x240|      00 00 00 06                              |  ....          |        corr: 6 0x242-0x245.7 (4)
     |                                               |                |      [6]{}: leap_second_record 0x246-0x24d.7 (8)
0x240|                  0f 0c 3f 06                  |      ..?.      |        occur: "1978-01-01T00:00:06Z" (252460806) 0x246-0x249.7 (4)
0x240|                              00 00 00 07      |          ....  |        corr: 7 0x24a-0x24d.7 (4)
     |                                               |                |      [7]{}: leap_second_record 0x24e-0x255.7 (8)
0x240|                                          10 ed|              ..|        occur: "1979-01-01T00:00:07Z" (283996807) 0x24e-0x251.7 (4)
0x250|72 87                                          |r.              |
0x250|      00 00 00 08                              |  ....          |        corr: 8 0x252-0x255.7 (4)
     |                                               |                |      [8]{}: leap_second_record 0x256-0x25d.7 (8)
0x250|                  12 ce a6 08                  |      ....      |        occur: "1980-01-01T00:00:08Z" (315532808) 0x256-0x259.7 (4)
0x250|                              00 00 00 09      |          ....  |        corr: 9 0x25a-0x25d.7 (4)
     |                                               |                |      [9]{}: leap_second_record 0x25e-0x265.7 (8)
0x250|                                          15 9f|              ..|        occur: "1981-07-01T00:00:09Z" (362793609) 0x25e-0x261.7 (4)
0x260|ca 89                                          |..              |
0x260|      00 00 00 0a                              |  ....          |        corr: 10 0x262-0x265.7 (4)
     |                                               |                |      [10]{}: leap_second_record 0x266-0x26d.7 (8)
0x260|                  17 80 fe 0a                  |      ....      |        occur: "1982-07-01T00:00:10Z" (394329610) 0x266-0x269.7 (4)
0x260|                              00 00 00 0b      |          ....  |        corr: 11 0x26a-0x26d.7 (4)
     |                                               |                |      [11]{}: leap_second_record 0x26e-0x275.7 (8)
0x260|                                          19 62|              .b|        occur: "1983-07-01T00:00:11Z" (425865611) 0x26e-0x271.7 (4)
0x270|31 8b                                          |1.              |
0x270|      00 00 00 0c                              |  ....          |        corr: 12 0x272-0x275.7 (4)
     |                                               |                |      [12]{}: leap_second_record 0x276-0x27d.7 (8)
0x270|                  1d 25 ea 0c                  |      .%..      |        occur: "1985-07-01T00:00:12Z" (489024012) 0x276-0x279.7 (4)
0x270|                              00 00 00 0d      |          ....  |        corr: 13 0x27a-0x27d.7 (4)
     |                                               |                |      [13]{}: leap_second_record 0x27e-0x285.7 (8)
0x270|                                          21 da|              !.|        occur: "1988-01-01T00:00:13Z" (567993613) 0x27e-0x281.7 (4)
0x280|e5 0d                                          |..              |
0x280|      00 00 00 0e                              |  ....          |        corr: 14 0x282-0x285.7 (4)
     |                                               |                |      [14]{}: leap_second_record 0x286-0x28d.7 (8)
0x280|                  25 9e 9d 8e                  |      %...      |        occur: "1990-01-01T00:00:14Z" (631152014) 0x286-0x289.7 (4)
0x280|                              00 00 00 0f      |          ....  |        corr: 15 0x28a-0x28d.7 (4)
     |                                               |                |      [15]{}: leap_second_record 0x28e-0x295.7 (8)
0x280|                                          27 7f|              '.|        occur: "1991-01-01T00:00:15Z" (662688015) 0x28e-0x291.7 (4)
0x290|d1 0f                                          |..              |
0x290|      00 00 00 10                              |  ....          |        corr: 16 0x292-0x295.7 (4)
     |                                               |                |      [16]{}: leap_second_record 0x296-0x29d.7 (8)
0x290|                  2a 50 f5 90                  |      *P..      |        occur: "1992-07-01T00:00:16Z" (709948816) 0x296-0x299.7 (4)
0x290|                              00 00 00 11      |          ....  |        corr: 17 0x29a-0x29d.7 (4)
     |                                               |                |      [17]{}: leap_second_record 0x29e-0x2a5.7 (8)
0x290|                                          2c 32|              ,2|        occur: "1993-07-01T00:00:17Z" (741484817) 0x29e-0x2a1.7 (4)
0x2a0|29 11                                          |).              |
0x2a0|      00 00 00 12                              |  ....          |        corr: 18 0x2a2-0x2a5.7 (4)
     |                                               |                |      [18]{}: leap_second_record 0x2a6-0x2ad.7 (8)
0x2a0|                  2e 13 5c 92                  |      ..\.      |        occur: "1994-07-01T00:00:18Z" (773020818) 0x2a6-0x2a9.7 (4)
0x2a0|                              00 00 00 13      |          ....  |        corr: 19 0x2aa-0x2ad.7 (4)
     |                                               |                |      [19]{}: leap_second_record 0x2ae-0x2b5.7 (8)
0x2a0|                                          30 e7|              0.|        occur: "1996-01-01T00:00:19Z" (820454419) 0x2ae-0x2b1.7 (4)
0x2b0|24 13                                          |$.              |
0x2b0|      00 00 00 14                              |  ....          |        corr: 20 0x2b2-0x2b5.7 (4)
     |                                               |                |      [20]{}: leap_second_record 0x2b6-0x2bd.7 (8)
0x2b0|                  33 b8 48 94                  |      3.H.      |        occur: "1997-07-01T00:00:20Z" (867715220) 0x2b6-0x2b9.7 (4)
0x2b0|                              00 00 00 15      |          ....  |        corr: 21 0x2ba-0x2bd.7 (4)
     |                                               |                |      [21]{}: leap_second_record 0x2be-0x2c5.7 (8)
0x2b0|                                          36 8c|              6.|        occur: "1999-01-01T00:00:21Z" (915148821) 0x2be-0x2c1.7 (4)
0x2c0|10 15                                          |..              |
0x2c0|      00 00 00 16                              |  ....          |        corr: 22 0x2c2-0x2c5.7 (4)
     |                                               |                |      [22]{}: leap_second_record 0x2c6-0x2cd.7 (8)
0x2c0|                  43 b7 1b 96                  |      C...      |        occur: "2006-01-01T00:00:22Z" (1136073622) 0x2c6-0x2c9.7 (4)
0x2c0|                              00 00 00 17      |          ....  |        corr: 23 0x2ca-0x2cd.7 (4)
     |                                               |                |      [23]{}: leap_second_record 0x2ce-0x2d5.7 (8)
0x2c0|                                          49 5c|              I\|        occur: "2009-01-01T00:00:23Z" (1230768023) 0x2ce-0x2d1.7 (4)
0x2d0|07 97                                          |..              |
0x2d0|      00 00 00 18                              |  ....          |        corr: 24 0x2d2-0x2d5.7 (4)
     |                                               |                |      [24]{}: leap_second_record 0x2d6-0x2dd.7 (8)
0x2d0|                  4f ef 93 18                  |      O...      |        occur: "2012-07-01T00:00:24Z" (1341100824) 0x2d6-0x2d9.7 (4)
0x2d0|                              00 00 00 19      |          ....  |        corr: 25 0x2da-0x2dd.7 (4)
     |                                               |                |      [25]{}: leap_second_record 0x2de-0x2e5.7 (8)
0x2d0|                                          55 93|              U.|        occur: "2015-07-01T00:00:25Z" (1435708825) 0x2de-0x2e1.7 (4)
0x2e0|2d 99                                          |-.              |
0x2e0|      00 00 00 1a                              |  ....          |        corr: 26 0x2e2-0x2e5.7 (4)
     |                                               |                |      [26]{}: leap_second_record 0x2e6-0x2ed.7 (8)
0x2e0|                  58 68 46 9a                  |      XhF.      |        occur: "2017-01-01T00:00:26Z" (1483228826) 0x2e6-0x2e9.7 (4)
0x2e0|                              00 00 00 1b      |          ....  |        corr: 27 0x2ea-0x2ed.7 (4)
     |                                               |                |    standard_wall_indicators[0:0]: 0x2ee-NA (0)
     |                                               |                |    ut_local_indicators[0:0]: 0x2ee-NA (0)
     |                                               |                |  v2plusheader{}: 0x2ee-0x319.7 (44)
0x2e0|                                          54 5a|              TZ|    magic: 0x545a6966 (valid) 0x2ee-0x2f1.7 (4)
0x2f0|69 66                                          |if              |
0x2f0|      32                                       |  2             |    ver: "2" (0x32) (valid) 0x2f2-0x2f2.7 (1)
0x2f0|         00 00 00 00 00 00 00 00 00 00 00 00 00|   .............|    reserved: raw bits 0x2f3-0x301.7 (15)
0x300|00 00                                          |..              |
0x300|      00 00 00 00                              |  ....          |    isutcnt: 0 0x302-0x305.7 (4)
0x300|                  00 00 00 00                  |      ....      |    isstdcnt: 0 0x306-0x309.7 (4)
0x300|                              00 00 00 1b      |          ....  |    leapcnt: 27 0x30a-0x30d.7 (4)
0x300|                                          00 00|              ..|    timecnt: 92 0x30e-0x311.7 (4)
0x310|00 5c                                          |.\              |
0x310|      00 00 00 03                              |  ....          |    typecnt: 3 0x312-0x315.7 (4)
0x310|                  00 00 00 0c                  |      ....      |    charcnt: 12 0x316-0x319.7 (4)
     |                                               |                |  v2plusdatablock{}: 0x31a-0x7b7.7 (1182)
     |                                               |                |    transition_times[0:92]: 0x31a-0x5f9.7 (736)
0x310|                              ff ff ff ff 96 aa|          ......|      [0]: "1914-01-01T03:38:28Z" (-1767212492) transition_time 0x31a-0x321.7 (8)
0x320|7a 34                                          |z4              |
0x320|      ff ff ff ff b8 0f 57 f0                  |  ......W.      |      [1]: "1931-10-03T15:00:00Z" (-1206954000) transition_time 0x322-0x329.7 (8)
0x320|                              ff ff ff ff b8 fd|          ......|      [2]: "1932-04-01T03:00:00Z" (-1191358800) transition_time 0x32a-0x331.7 (8)
0x330|4e b0                                          |N.              |
0x330|      ff ff ff ff b9 f1 42 40                  |  ......B@      |      [3]: "1932-10-03T04:00:00Z" (-1175371200) transition_time 0x332-0x339.7 (8)
0x330|                              ff ff ff ff ba de|          ......|      [4]: "1933-04-01T03:00:00Z" (-1159822800) transition_time 0x33a-0x341.7 (8)
0x340|82 30                                          |.0              |
0x340|      ff ff ff ff da 38 bc 40                  |  .....8.@      |      [5]: "1949-12-01T04:00:00Z" (-633816000) transition_time 0x342-0x349.7 (8)
0x340|                              ff ff ff ff da ec|          ......|      [6]: "1950-04-16T04:00:00Z" (-622065600) transition_time 0x34a-0x351.7 (8)
0x350|08 40                                          |.@              |
0x350|      ff ff ff ff dc 19 ef c0                  |  ........      |      [7]: "1950-12-01T04:00:00Z" (-602280000) transition_time 0x352-0x359.7 (8)
0x350|                              ff ff ff ff dc b9|          ......|      [8]: "1951-04-01T03:00:00Z" (-591829200) transition_time 0x35a-0x361.7 (8)
0x360|67 30                                          |g0              |
0x360|      ff ff ff ff dd fb 23 40                  |  ......#@      |      [9]: "1951-12-01T04:00:00Z" (-570744000) transition_time 0x362-0x369.7 (8)
0x360|                              ff ff ff ff de 9b|          ......|      [10]: "1952-04-01T03:00:00Z" (-560206800) transition_time 0x36a-0x371.7 (8)
0x370|ec 30                                          |.0              |
0x370|      ff ff ff ff df dd a8 40                  |  .......@      |      [11]: "1952-12-01T04:00:00Z" (-539121600) transition_time 0x372-0x379.7 (8)
0x370|                              ff ff ff ff e0 54|          .....T|      [12]: "1953-03-01T03:00:00Z" (-531349200) transition_time 0x37a-0x381.7 (8)
0x380|41 30                                          |A0              |
0x380|      ff ff ff ff f4 98 0d c0                  |  ........      |      [13]: "1963-12-09T04:00:00Z" (-191361600) transition_time 0x382-0x389.7 (8)
0x380|                              ff ff ff ff f5 05|          ......|      [14]: "1964-03-01T03:00:00Z" (-184194000) transition_time 0x38a-0x391.7 (8)
0x390|6c 30                                          |l0              |
0x390|      ff ff ff ff f6 c0 72 40                  |  ......r@      |      [15]: "1965-01-31T04:00:00Z" (-155160000) transition_time 0x392-0x399.7 (8)
0x390|                              ff ff ff ff f7 0e|          ......|      [16]: "1965-03-31T03:00:00Z" (-150066000) transition_time 0x39a-0x3a1.7 (8)
0x3a0|2c b0                                          |,.              |
0x3a0|      ff ff ff ff f8 51 3a 40                  |  .....Q:@      |      [17]: "1965-12-01T04:00:00Z" (-128894400) transition_time 0x3a2-0x3a9.7 (8)
0x3a0|                              ff ff ff ff f8 c7|          ......|      [18]: "1966-03-01T03:00:00Z" (-121122000) transition_time 0x3aa-0x3b1.7 (8)
0x3b0|d3 30                                          |.0              |
0x3b0|      ff ff ff ff fa 0a e0 c0                  |  ........      |      [19]: "1966-11-01T04:00:00Z" (-99950400) transition_time 0x3b2-0x3b9.7 (8)
0x3b0|                              ff ff ff ff fa a9|          ......|      [20]: "1967-03-01T03:00:00Z" (-89586000) transition_time 0x3ba-0x3c1.7 (8)
0x3c0|06 b0                                          |..              |
0x3c0|      ff ff ff ff fb ec 14 40                  |  .......@      |      [21]: "1967-11-01T04:00:00Z" (-68414400) transition_time 0x3c2-0x3c9.7 (8)
0x3c0|                              ff ff ff ff fc 8b|          ......|      [22]: "1968-03-01T03:00:00Z" (-57963600) transition_time 0x3ca-0x3d1.7 (8)
0x3d0|8b b0                                          |..              |
0x3d0|      00 00 00 00 1d c9 9c 4d                  |  .......M      |      [23]: "1985-11-02T04:00:13Z" (499752013) transition_time 0x3d2-0x3d9.7 (8)
0x3d0|                              00 00 00 00 1e 78|          .....x|      [24]: "1986-03-15T03:00:13Z" (511239613) transition_time 0x3da-0x3e1.7 (8)
0x3e0|e5 bd                                          |..              |
0x3e0|      00 00 00 00 1f a0 43 cd                  |  ......C.      |      [25]: "1986-10-25T04:00:13Z" (530596813) transition_time 0x3e2-0x3e9.7 (8)
0x3e0|                              00 00 00 00 20 33|          .... 3|      [26]: "1987-02-14T03:00:13Z" (540270013) transition_time 0x3ea-0x3f1.7 (8)
0x3f0|dd bd                                          |..              |
0x3f0|      00 00 00 00 21 81 77 4d                  |  ....!.wM      |      [27]: "1987-10-25T04:00:13Z" (562132813) transition_time 0x3f2-0x3f9.7 (8)
0x3f0|                              00 00 00 00 22 0b|          ....".|      [28]: "1988-02-07T03:00:14Z" (571201214) transition_time 0x3fa-0x401.7 (8)
0x400|d6 be                                          |..              |
0x400|      00 00 00 00 23 58 1e ce                  |  ....#X..      |      [29]: "1988-10-16T04:00:14Z" (592977614) transition_time 0x402-0x409.7 (8)
0x400|                              00 00 00 00 23 e2|          ....#.|      [30]: "1989-01-29T03:00:14Z" (602046014) transition_time 0x40a-0x411.7 (8)
0x410|7e 3e                                          |~>              |
0x410|      00 00 00 00 25 38 00 ce                  |  ....%8..      |      [31]: "1989-10-15T04:00:14Z" (624427214) transition_time 0x412-0x419.7 (8)
0x410|                              00 00 00 00 25 d4|          ....%.|      [32]: "1990-02-11T03:00:15Z" (634705215) transition_time 0x41a-0x421.7 (8)
0x420|d5 3f                                          |.?              |
0x420|      00 00 00 00 27 21 1d 4f                  |  ....'!.O      |      [33]: "1990-10-21T04:00:15Z" (656481615) transition_time 0x422-0x429.7 (8)
0x420|                              00 00 00 00 27 bd|          ....'.|      [34]: "1991-02-17T03:00:16Z" (666759616) transition_time 0x42a-0x431.7 (8)
0x430|f1 c0                                          |..              |
0x430|      00 00 00 00 29 00 ff 50                  |  ....)..P      |      [35]: "1991-10-20T04:00:16Z" (687931216) transition_time 0x432-0x439.7 (8)
0x430|                              00 00 00 00 29 94|          ....).|      [36]: "1992-02-09T03:00:16Z" (697604416) transition_time 0x43a-0x441.7 (8)
0x440|99 40                                          |.@              |
0x440|      00 00 00 00 2a ea 1b d1                  |  ....*...      |      [37]: "1992-10-25T04:00:17Z" (719985617) transition_time 0x442-0x449.7 (8)
0x440|                              00 00 00 00 2b 6b|          ....+k|      [38]: "1993-01-31T03:00:17Z" (728449217) transition_time 0x44a-0x451.7 (8)
0x450|40 c1                                          |@.              |
0x450|      00 00 00 00 2c c0 c3 52                  |  ....,..R      |      [39]: "1993-10-17T04:00:18Z" (750830418) transition_time 0x452-0x459.7 (8)
0x450|                              00 00 00 00 2d 66|          ....-f|      [40]: "1994-02-20T03:00:18Z" (761713218) transition_time 0x45a-0x461.7 (8)
0x460|d2 42                                          |.B              |
0x460|      00 00 00 00 2e a0 a5 53                  |  .......S      |      [41]: "1994-10-16T04:00:19Z" (782280019) transition_time 0x462-0x469.7 (8)
0x460|                              00 00 00 00 2f 46|          ..../F|      [42]: "1995-02-19T03:00:19Z" (793162819) transition_time 0x46a-0x471.7 (8)
0x470|b4 43                                          |.C              |
0x470|      00 00 00 00 30 80 87 53                  |  ....0..S      |      [43]: "1995-10-15T04:00:19Z" (813729619) transition_time 0x472-0x479.7 (8)
0x470|                              00 00 00 00 31 1d|          ....1.|      [44]: "1996-02-11T03:00:20Z" (824007620) transition_time 0x47a-0x481.7 (8)
0x480|5b c4                                          |[.              |
0x480|      00 00 00 00 32 57 2e d4                  |  ....2W..      |      [45]: "1996-10-06T04:00:20Z" (844574420) transition_time 0x482-0x489.7 (8)
0x480|                              00 00 00 00 33 06|          ....3.|      [46]: "1997-02-16T03:00:20Z" (856062020) transition_time 0x48a-0x491.7 (8)
0x490|78 44                                          |xD              |
0x490|      00 00 00 00 34 38 62 55                  |  ....48bU      |      [47]: "1997-10-06T04:00:21Z" (876110421) transition_time 0x492-0x499.7 (8)
0x490|                              00 00 00 00 34 f8|          ....4.|      [48]: "1998-03-01T03:00:21Z" (888721221) transition_time 0x49a-0x4a1.7 (8)
0x4a0|cf 45                                          |.E              |
0x4a0|      00 00 00 00 36 20 2d 55                  |  ....6 -U      |      [49]: "1998-10-11T04:00:21Z" (908078421) transition_time 0x4a2-0x4a9.7 (8)
0x4a0|                              00 00 00 00 36 cf|          ....6.|      [50]: "1999-02-21T03:00:22Z" (919566022) transition_time 0x4aa-0x4b1.7 (8)
0x4b0|76 c6                                          |v.              |
0x4b0|      00 00 00 00 37 f6 d4 d6                  |  ....7...      |      [51]: "1999-10-03T04:00:22Z" (938923222) transition_time 0x4b2-0x4b9.7 (8)
0x4b0|                              00 00 00 00 38 b8|          ....8.|      [52]: "2000-02-27T03:00:22Z" (951620422) transition_time 0x4ba-0x4c1.7 (8)
0x4c0|93 46                                          |.F              |
0x4c0|      00 00 00 00 39 df f1 56                  |  ....9..V      |      [53]: "2000-10-08T04:00:22Z" (970977622) transition_time 0x4c2-0x4c9.7 (8)
0x4c0|                              00 00 00 00 3a 8f|          ....:.|      [54]: "2001-02-18T03:00:22Z" (982465222) transition_time 0x4ca-0x4d1.7 (8)
0x4d0|3a c6                                          |:.              |
0x4d0|      00 00 00 00 3b c9 0d d6                  |  ....;...      |      [55]: "2001-10-14T04:00:22Z" (1003032022) transition_time 0x4d2-0x4d9.7 (8)
0x4d0|                              00 00 00 00 3c 6f|          ....<o|      [56]: "2002-02-17T03:00:22Z" (1013914822) transition_time 0x4da-0x4e1.7 (8)
0x4e0|1c c6                                          |..              |
0x4e0|      00 00 00 00 3d c4 9f 56                  |  ....=..V      |      [57]: "2002-11-03T04:00:22Z" (1036296022) transition_time 0x4e2-0x4e9.7 (8)
0x4e0|                              00 00 00 00 3e 4e|          ....>N|      [58]: "2003-02-16T03:00:22Z" (1045364422) transition_time 0x4ea-0x4f1.7 (8)
0x4f0|fe c6                                          |..              |
0x4f0|      00 00 00 00 3f 92 0c 56                  |  ....?..V      |      [59]: "2003-10-19T04:00:22Z" (1066536022) transition_time 0x4f2-0x4f9.7 (8)
0x4f0|                              00 00 00 00 40 2e|          ....@.|      [60]: "2004-02-15T03:00:22Z" (1076814022) transition_time 0x4fa-0x501.7 (8)
0x500|e0 c6                                          |..              |
0x500|      00 00 00 00 41 87 06 56                  |  ....A..V      |      [61]: "2004-11-02T04:00:22Z" (1099368022) transition_time 0x502-0x509.7 (8)
0x500|                              00 00 00 00 42 17|          ....B.|      [62]: "2005-02-20T03:00:22Z" (1108868422) transition_time 0x50a-0x511.7 (8)
0x510|fd 46                                          |.F              |
0x510|      00 00 00 00 43 51 d0 56                  |  ....CQ.V      |      [63]: "2005-10-16T04:00:22Z" (1129435222) transition_time 0x512-0x519.7 (8)
0x510|                              00 00 00 00 43 f7|          ....C.|      [64]: "2006-02-19T03:00:23Z" (1140318023) transition_time 0x51a-0x521.7 (8)
0x520|df 47                                          |.G              |
0x520|      00 00 00 00 45 4d 61 d7                  |  ....EMa.      |      [65]: "2006-11-05T04:00:23Z" (1162699223) transition_time 0x522-0x529.7 (8)
0x520|                              00 00 00 00 45 e0|          ....E.|      [66]: "2007-02-25T03:00:23Z" (1172372423) transition_time 0x52a-0x531.7 (8)
0x530|fb c7                                          |..              |
0x530|      00 00 00 00 47 11 94 57                  |  ....G..W      |      [67]: "2007-10-14T04:00:23Z" (1192334423) transition_time 0x532-0x539.7 (8)
0x530|                              00 00 00 00 47 b7|          ....G.|      [68]: "2008-02-17T03:00:23Z" (1203217223) transition_time 0x53a-0x541.7 (8)
0x540|a3 47                                          |.G              |
0x540|      00 00 00 00 48 fa b0 d7                  |  ....H...      |      [69]: "2008-10-19T04:00:23Z" (1224388823) transition_time 0x542-0x549.7 (8)
0x540|                              00 00 00 00 49 97|          ....I.|      [70]: "2009-02-15T03:00:24Z" (1234666824) transition_time 0x54a-0x551.7 (8)
0x550|85 48                                          |.H              |
0x550|      00 00 00 00 4a da 92 d8                  |  ....J...      |      [71]: "2009-10-18T04:00:24Z" (1255838424) transition_time 0x552-0x559.7 (8)
0x550|                              00 00 00 00 4b 80|          ....K.|      [72]: "2010-02-21T03:00:24Z" (1266721224) transition_time 0x55a-0x561.7 (8)
0x560|a1 c8                                          |..              |
0x560|      00 00 00 00 4c ba 74 d8                  |  ....L.t.      |      [73]: "2010-10-17T04:00:24Z" (1287288024) transition_time 0x562-0x569.7 (8)
0x560|                              00 00 00 00 4d 60|          ....M`|      [74]: "2011-02-20T03:00:24Z" (1298170824) transition_time 0x56a-0x571.7 (8)
0x570|83 c8                                          |..              |
0x570|      00 00 00 00 4e 9a 56 d8                  |  ....N.V.      |      [75]: "2011-10-16T04:00:24Z" (1318737624) transition_time 0x572-0x579.7 (8)
0x570|                              00 00 00 00 4f 49|          ....OI|      [76]: "2012-02-26T03:00:24Z" (1330225224) transition_time 0x57a-0x581.7 (8)
0x580|a0 48                                          |.H              |
0x580|      00 00 00 00 50 83 73 59                  |  ....P.sY      |      [77]: "2012-10-21T04:00:25Z" (1350792025) transition_time 0x582-0x589.7 (8)
0x580|                              00 00 00 00 51 20|          ....Q |      [78]: "2013-02-17T03:00:25Z" (1361070025) transition_time 0x58a-0x591.7 (8)
0x590|47 c9                                          |G.              |
0x590|      00 00 00 00 52 63 55 59                  |  ....RcUY      |      [79]: "2013-10-20T04:00:25Z" (1382241625) transition_time 0x592-0x599.7 (8)
0x590|                              00 00 00 00 53 00|          ....S.|      [80]: "2014-02-16T03:00:25Z" (1392519625) transition_time 0x59a-0x5a1.7 (8)
0x5a0|29 c9                                          |).              |
0x5a0|      00 00 00 00 54 43 37 59                  |  ....TC7Y      |      [81]: "2014-10-19T04:00:25Z" (1413691225) transition_time 0x5a2-0x5a9.7 (8)
0x5a0|                              00 00 00 00 54 e9|          ....T.|      [82]: "2015-02-22T03:00:25Z" (1424574025) transition_time 0x5aa-0x5b1.7 (8)
0x5b0|46 49                                          |FI              |
0x5b0|      00 00 00 00 56 23 19 5a                  |  ....V#.Z      |      [83]: "2015-10-18T04:00:26Z" (1445140826) transition_time 0x5b2-0x5b9.7 (8)
0x5b0|                              00 00 00 00 56 c9|          ....V.|      [84]: "2016-02-21T03:00:26Z" (1456023626) transition_time 0x5ba-0x5c1.7 (8)
0x5c0|28 4a                                          |(J              |
0x5c0|      00 00 00 00 58 02 fb 5a                  |  ....X..Z      |      [85]: "2016-10-16T04:00:26Z" (1476590426) transition_time 0x5c2-0x5c9.7 (8)
0x5c0|                              00 00 00 00 58 a9|          ....X.|      [86]: "2017-02-19T03:00:27Z" (1487473227) transition_time 0x5ca-0x5d1.7 (8)
0x5d0|0a 4b                                          |.K              |
0x5d0|      00 00 00 00 59 e2 dd 5b                  |  ....Y..[      |      [87]: "2017-10-15T04:00:27Z" (1508040027) transition_time 0x5d2-0x5d9.7 (8)
0x5d0|                              00 00 00 00 5a 88|          ....Z.|      [88]: "2018-02-18T03:00:27Z" (1518922827) transition_time 0x5da-0x5e1.7 (8)
0x5e0|ec 4b                                          |.K              |
0x5e0|      00 00 00 00 5b de 6e db                  |  ....[.n.      |      [89]: "2018-11-04T04:00:27Z" (1541304027) transition_time 0x5e2-0x5e9.7 (8)
0x5e0|                              00 00 00 00 5c 68|          ....\h|      [90]: "2019-02-17T03:00:27Z" (1550372427) transition_time 0x5ea-0x5f1.7 (8)
0x5f0|ce 4b                                          |.K              |
0x5f0|      00 00 00 00 64 9b 78 1b                  |  ....d.x.      |      [91]: "2023-06-28T00:00:27Z" (1687910427) transition_time 0x5f2-0x5f9.7 (8)
     |                                               |                |    transition_types[0:92]: 0x5fa-0x655.7 (92)
0x5f0|                              02               |          .     |      [0]: 2 transition_type 0x5fa-0x5fa.7 (1)
0x5f0|                                 01            |           .    |      [1]: 1 transition_type 0x5fb-0x5fb.7 (1)
0x5f0|                                    02         |            .   |      [2]: 2 transition_type 0x5fc-0x5fc.7 (1)
0x5f0|                                       01      |             .  |      [3]: 1 transition_type 0x5fd-0x5fd.7 (1)
0x5f0|                                          02   |              . |      [4]: 2 transition_type 0x5fe-0x5fe.7 (1)
0x5f0|                                             01|               .|      [5]: 1 transition_type 0x5ff-0x5ff.7 (1)
0x600|02                                             |.               |      [6]: 2 transition_type 0x600-0x600.7 (1)
0x600|   01                                          | .              |      [7]: 1 transition_type 0x601-0x601.7 (1)
0x600|      02                                       |  .             |      [8]: 2 transition_type 0x602-0x602.7 (1)
0x600|         01                                    |   .            |      [9]: 1 transition_type 0x603-0x603.7 (1)
0x600|            02                                 |    .           |      [10]: 2 transition_type 0x604-0x604.7 (1)
0x600|               01                              |     .          |      [11]: 1 transition_type 0x605-0x605.7 (1)
0x600|                  02                           |      .         |      [12]: 2 transition_type 0x606-0x606.7 (1)
0x600|                     01                        |       .        |      [13]: 1 transition_type 0x607-0x607.7 (1)
0x600|                        02                     |        .       |      [14]: 2 transition_type 0x608-0x608.7 (1)
0x600|                           01                  |         .      |      [15]: 1 transition_type 0x609-0x609.7 (1)
0x600|                              02               |          .     |      [16]: 2 transition_type 0x60a-0x60a.7 (1)
0x600|                                 01            |           .    |      [17]: 1 transition_type 0x60b-0x60b.7 (1)
0x600|                                    02         |            .   |      [18]: 2 transition_type 0x60c-0x60c.7 (1)
0x600|                                       01      |             .  |      [19]: 1 transition_type 0x60d-0x60d.7 (1)
0x600|                                          02   |              . |      [20]: 2 transition_type 0x60e-0x60e.7 (1)
0x600|                                             01|               .|      [21]: 1 transition_type 0x60f-0x60f.7 (1)
0x610|02                                             |.               |      [22]: 2 transition_type 0x610-0x610.7 (1)
0x610|   01                                          | .              |      [23]: 1 transition_type 0x611-0x611.7 (1)
0x610|      02                                       |  .             |      [24]: 2 transition_type 0x612-0x612.7 (1)
0x610|         01                                    |   .            |      [25]: 1 transition_type 0x613-0x613.7 (1)
0x610|            02                                 |    .           |      [26]: 2 transition_type 0x614-0x614.7 (1)
0x610|               01                              |     .          |      [27]: 1 transition_type 0x615-0x615.7 (1)
0x610|                  02                           |      .         |      [28]: 2 transition_type 0x616-0x616.7 (1)
0x610|                     01                        |       .        |      [29]: 1 transition_type 0x617-0x617.7 (1)
0x610|                        02                     |        .       |      [30]: 2 transition_type 0x618-0x618.7 (1)
0x610|                           01                  |         .      |      [31]: 1 transition_type 0x619-0x619.7 (1)
0x610|                              02               |          .     |      [32]: 2 transition_type 0x61a-0x61a.7 (1)
0x610|                                 01            |           .    |      [33]: 1 transition_type 0x61b-0x61b.7 (1)
0x610|                                    02         |            .   |      [34]: 2 transition_type 0x61c-0x61c.7 (1)
0x610|                                       01      |             .  |      [35]: 1 transition_type 0x61d-0x61d.7 (1)
0x610|                                          02   |              . |      [36]: 2 transition_type 0x61e-0x61e.7 (1)
0x610|                                             01|               .|      [37]: 1 transition_type 0x61f-0x61f.7 (1)
0x620|02                                             |.               |      [38]: 2 transition_type 0x620-0x620.7 (1)
0x620|   01                                          | .              |      [39]: 1 transition_type 0x621-0x621.7 (1)
0x620|      02                                       |  .             |      [40]: 2 transition_type 0x622-0x622.7 (1)
0x620|         01                                    |   .            |      [41]: 1 transition_type 0x623-0x623.7 (1)
0x620|            02                                 |    .           |      [42]: 2 transition_type 0x624-0x624.7 (1)
0x620|               01                              |     .          |      [43]: 1 transition_type 0x625-0x625.7 (1)
0x620|                  02                           |      .         |      [44]: 2 transition_type 0x626-0x626.7 (1)
0x620|                     01                        |       .        |      [45]: 1 transition_type 0x627-0x627.7 (1)
0x620|                        02                     |        .       |      [46]: 2 transition_type 0x628-0x628.7 (1)
0x620|                           01                  |         .      |      [47]: 1 transition_type 0x629-0x629.7 (1)
0x620|                              02               |          .     |      [48]: 2 transition_type 0x62a-0x62a.7 (1)
0x620|                                 01            |           .    |      [49]: 1 transition_type 0x62b-0x62b.7 (1)
0x620|                                    02         |            .   |      [50]: 2 transition_type 0x62c-0x62c.7 (1)
0x620|                                       01      |             .  |      [51]: 1 transition_type 0x62d-0x62d.7 (1)
0x620|                                          02   |              . |      [52]: 2 transition_type 0x62e-0x62e.7 (1)
0x620|                                             01|               .|      [53]: 1 transition_type 0x62f-0x62f.7 (1)
0x630|02                                             |.               |      [54]: 2 transition_type 0x630-0x630.7 (1)
0x630|   01                                          | .              |      [55]: 1 transition_type 0x631-0x631.7 (1)
0x630|      02                                       |  .             |      [56]: 2 transition_type 0x632-0x632.7 (1)
0x630|         01                                    |   .            |      [57]: 1 transition_type 0x633-0x633.7 (1)
0x630|            02                                 |    .           |      [58]: 2 transition_type 0x634-0x634.7 (1)
0x630|               01                              |     .          |      [59]: 1 transition_type 0x635-0x635.7 (1)
0x630|                  02                           |      .         |      [60]: 2 transition_type 0x636-0x636.7 (1)
0x630|                     01                        |       .        |      [61]: 1 transition_type 0x637-0x637.7 (1)
0x630|                        02                     |        .       |      [62]: 2 transition_type 0x638-0x638.7 (1)
0x630|                           01                  |         .      |      [63]: 1 transition_type 0x639-0x639.7 (1)
0x630|                              02               |          .     |      [64]: 2 transition_type 0x63a-0x63a.7 (1)
0x630|                                 01            |           .    |      [65]: 1 transition_type 0x63b-0x63b.7 (1)
0x630|                                    02         |            .   |      [66]: 2 transition_type 0x63c-0x63c.7 (1)
0x630|                                       01      |             .  |      [67]: 1 transition_type 0x63d-0x63d.7 (1)
0x630|                                          02   |              . |      [68]: 2 transition_type 0x63e-0x63e.7 (1)
0x630|                                             01|               .|      [69]: 1 transition_type 0x63f-0x63f.7 (1)
0x640|02                                             |.               |      [70]: 2 transition_type 0x640-0x640.7 (1)
0x640|   01                                          | .              |      [71]: 1 transition_type 0x641-0x641.7 (1)
0x640|      02                                       |  .             |      [72]: 2 transition_type 0x642-0x642.7 (1)
0x640|         01                                    |   .            |      [73]: 1 transition_type 0x643-0x643.7 (1)
0x640|            02                                 |    .           |      [74]: 2 transition_type 0x644-0x644.7 (1)
0x640|               01                              |     .          |      [75]: 1 transition_type 0x645-0x645.7 (1)
0x640|                  02                           |      .         |      [76]: 2 transition_type 0x646-0x646.7 (1)
0x640|                     01                        |       .        |      [77]: 1 transition_type 0x647-0x647.7 (1)
0x640|                        02                     |        .       |      [78]: 2 transition_type 0x648-0x648.7 (1)
0x640|                           01                  |         .      |      [79]: 1 transition_type 0x649-0x649.7 (1)
0x640|                              02               |          .     |      [80]: 2 transition_type 0x64a-0x64a.7 (1)
0x640|                                 01            |           .    |      [81]: 1 transition_type 0x64b-0x64b.7 (1)
0x640|                                    02         |            .   |      [82]: 2 transition_type 0x64c-0x64c.7 (1)
0x640|                                       01      |             .  |      [83]: 1 transition_type 0x64d-0x64d.7 (1)
0x640|                                          02   |              . |      [84]: 2 transition_type 0x64e-0x64e.7 (1)
0x640|                                             01|               .|      [85]: 1 transition_type 0x64f-0x64f.7 (1)
0x650|02                                             |.               |      [86]: 2 transition_type 0x650-0x650.7 (1)
0x650|   01                                          | .              |      [87]: 1 transition_type 0x651-0x651.7 (1)
0x650|      02                                       |  .             |      [88]: 2 transition_type 0x652-0x652.7 (1)
0x650|         01                                    |   .            |      [89]: 1 transition_type 0x653-0x653.7 (1)
0x650|            02                                 |    .           |      [90]: 2 transition_type 0x654-0x654.7 (1)
0x650|               02                              |     .          |      [91]: 2 transition_type 0x655-0x655.7 (1)
     |                                               |                |    local_time_type_records[0:3]: 0x656-0x667.7 (18)
     |                                               |                |      [0]{}: local_time_type 0x656-0x65b.7 (6)
0x650|                  ff ff cc cc                  |      ....      |        utoff: -13108 (valid) 0x656-0x659.7 (4)
0x650|                              00               |          .     |        dst: 0 (valid) 0x65a-0x65a.7 (1)
0x650|                                 00            |           .    |        idx: 0 (valid) 0x65b-0x65b.7 (1)
     |                                               |                |      [1]{}: local_time_type 0x65c-0x661.7 (6)
0x650|                                    ff ff d5 d0|            ....|        utoff: -10800 (valid) 0x65c-0x65f.7 (4)
0x660|01                                             |.               |        dst: 1 (valid) 0x660-0x660.7 (1)
0x660|   04                                          | .              |        idx: 4 (valid) 0x661-0x661.7 (1)
     |                                               |                |      [2]{}: local_time_type 0x662-0x667.7 (6)
0x660|      ff ff c7 c0                              |  ....          |        utoff: -14400 (valid) 0x662-0x665.7 (4)
0x660|                  00                           |      .         |        dst: 0 (valid) 0x666-0x666.7 (1)
0x660|                     08                        |       .        |        idx: 8 (valid) 0x667-0x667.7 (1)
     |                                               |                |    time_zone_designations[0:3]: 0x668-0x673.7 (12)
0x660|                        4c 4d 54 00            |        LMT.    |      [0]: "LMT" time_zone_designation 0x668-0x66b.7 (4)
0x660|                                    2d 30 33 00|            -03.|      [1]: "-03" time_zone_designation 0x66c-0x66f.7 (4)
0x670|2d 30 34 00                                    |-04.            |      [2]: "-04" time_zone_designation 0x670-0x673.7 (4)
     |                                               |                |    leap_second_records[0:27]: 0x674-0x7b7.7 (324)
     |                                               |                |      [0]{}: leap_second_record 0x674-0x67f.7 (12)
0x670|            00 00 00 00 04 b2 58 00            |    ......X.    |        occur: "1972-07-01T00:00:00Z" (78796800) 0x674-0x67b.7 (8)
0x670|                                    00 00 00 01|            ....|        corr: 1 0x67c-0x67f.7 (4)
     |                                               |                |      [1]{}: leap_second_record 0x680-0x68b.7 (12)
0x680|00 00 00 00 05 a4 ec 01                        |........        |        occur: "1973-01-01T00:00:01Z" (94694401) 0x680-0x687.7 (8)
0x680|                        00 00 00 02            |        ....    |        corr: 2 0x688-0x68b.7 (4)
     |                                               |                |      [2]{}: leap_second_record 0x68c-0x697.7 (12)
0x680|                                    00 00 00 00|            ....|        occur: "1974-01-01T00:00:02Z" (126230402) 0x68c-0x693.7 (8)
0x690|07 86 1f 82                                    |....            |
0x690|            00 00 00 03                        |    ....        |        corr: 3 0x694-0x697.7 (4)
     |                                               |                |      [3]{}: leap_second_record 0x698-0x6a3.7 (12)
0x690|                        00 00 00 00 09 67 53 03|        .....gS.|        occur: "1975-01-01T00:00:03Z" (157766403) 0x698-0x69f.7 (8)
0x6a0|00 00 00 04                                    |....            |        corr: 4 0x6a0-0x6a3.7 (4)
     |                                               |                |      [4]{}: leap_second_record 0x6a4-0x6af.7 (12)
0x6a0|            00 00 00 00 0b 48 86 84            |    .....H..    |        occur: "1976-01-01T00:00:04Z" (189302404) 0x6a4-0x6ab.7 (8)
0x6a0|                                    00 00 00 05|            ....|        corr: 5 0x6ac-0x6af.7 (4)
     |                                               |                |      [5]{}: leap_second_record 0x6b0-0x6bb.7 (12)
0x6b0|00 00 00 00 0d 2b 0b 85                        |.....+..        |        occur: "1977-01-01T00:00:05Z" (220924805) 0x6b0-0x6b7.7 (8)
0x6b0|                        00 00 00 06            |        ....    |        corr: 6 0x6b8-0x6bb.7 (4)
     |                                               |                |      [6]{}: leap_second_record 0x6bc-0x6c7.7 (12)
0x6b0|                                    00 00 00 00|            ....|        occur: "1978-01-01T00:00:06Z" (252460806) 0x6bc-0x6c3.7 (8)
0x6c0|0f 0c 3f 06                                    |..?.            |
0x6c0|            00 00 00 07                        |    ....        |        corr: 7 0x6c4-0x6c7.7 (4)
     |                                               |                |      [7]{}: leap_second_record 0x6c8-0x6d3.7 (12)
0x6c0|                        00 00 00 00 10 ed 72 87|        ......r.|        occur: "1979-01-01T00:00:07Z" (283996807) 0x6c8-0x6cf.7 (8)
0x6d0|00 00 00 08                                    |....            |        corr: 8 0x6d0-0x6d3.7 (4)
     |                                               |                |      [8]{}: leap_second_record 0x6d4-0x6df.7 (12)
0x6d0|            00 00 00 00 12 ce a6 08            |    ........    |        occur: "1980-01-01T00:00:08Z" (315532808) 0x6d4-0x6db.7 (8)
0x6d0|                                    00 00 00 09|            ....|        corr: 9 0x6dc-0x6df.7 (4)
     |                                               |                |      [9]{}: leap_second_record 0x6e0-0x6eb.7 (12)
0x6e0|00 00 00 00 15 9f ca 89                        |........        |        occur: "1981-07-01T00:00:09Z" (362793609) 0x6e0-0x6e7.7 (8)
0x6e0|                        00 00 00 0a            |        ....    |        corr: 10 0x6e8-0x6eb.7 (4)
     |                                               |                |      [10]{}: leap_second_record 0x6ec-0x6f7.7 (12)
0x6e0|                                    00 00 00 00|            ....|        occur: "1982-07-01T00:00:10Z" (394329610) 0x6ec-0x6f3.7 (8)
0x6f0|17 80 fe 0a                                    |....            |
0x6f0|            00 00 00 0b                        |    ....        |        corr: 11 0x6f4-0x6f7.7 (4)
     |                                               |                |      [11]{}: leap_second_record 0x6f8-0x703.7 (12)
0x6f0|                        00 00 00 00 19 62 31 8b|        .....b1.|        occur: "1983-07-01T00:00:11Z" (425865611) 0x6f8-0x6ff.7 (8)
0x700|00 00 00 0c                                    |....            |        corr: 12 0x700-0x703.7 (4)
     |                                               |                |      [12]{}: leap_second_record 0x704-0x70f.7 (12)
0x700|            00 00 00 00 1d 25 ea 0c            |    .....%..    |        occur: "1985-07-01T00:00:12Z" (489024012) 0x704-0x70b.7 (8)
0x700|                                    00 00 00 0d|            ....|        corr: 13 0x70c-0x70f.7 (4)
     |                                               |                |      [13]{}: leap_second_record 0x710-0x71b.7 (12)
0x710|00 00 00 00 21 da e5 0d                        |....!...        |        occur: "1988-01-01T00:00:13Z" (567993613) 0x710-0x717.7 (8)
0x710|                        00 00 00 0e            |        ....    |        corr: 14 0x718-0x71b.7 (4)
     |                                               |                |      [14]{}: leap_second_record 0x71c-0x727.7 (12)
0x710|                                    00 00 00 00|            ....|        occur: "1990-01-01T00:00:14Z" (631152014) 0x71c-0x723.7 (8)
0x720|25 9e 9d 8e                                    |%...            |
0x720|            00 00 00 0f                        |    ....        |        corr: 15 0x724-0x727.7 (4)
     |                                               |                |      [15]{}: leap_second_record 0x728-0x733.7 (12)
0x720|                        00 00 00 00 27 7f d1 0f|        ....'...|        occur: "1991-01-01T00:00:15Z" (662688015) 0x728-0x72f.7 (8)
0x730|00 00 00 10                                    |....            |        corr: 16 0x730-0x733.7 (4)
     |                                               |                |      [16]{}: leap_second_record 0x734-0x73f.7 (12)
0x730|            00 00 00 00 2a 50 f5 90            |    ....*P..    |        occur: "1992-07-01T00:00:16Z" (709948816) 0x734-0x73b.7 (8)
0x730|                                    00 00 00 11|            ....|        corr: 17 0x73c-0x73f.7 (4)
     |                                               |                |      [17]{}: leap_second_record 0x740-0x74b.7 (12)
0x740|00 00 00 00 2c 32 29 11                        |....,2).        |        occur: "1993-07-01T00:00:17Z" (741484817) 0x740-0x747.7 (8)
0x740|                        00 00 00 12            |        ....    |        corr: 18 0x748-0x74b.7 (4)
     |                                               |                |      [18]{}: leap_second_record 0x74c-0x757.7 (12)
0x740|                                    00 00 00 00|            ....|        occur: "1994-07-01T00:00:18Z" (773020818) 0x74c-0x753.7 (8)
0x750|2e 13 5c 92                                    |..\.            |
0x750|            00 00 00 13                        |    ....        |        corr: 19 0x754-0x757.7 (4)
     |                                               |                |      [19]{}: leap_second_record 0x758-0x763.7 (12)
0x750|                        00 00 00 00 30 e7 24 13|        ....0.$.|        occur: "1996-01-01T00:00:19Z" (820454419) 0x758-0x75f.7 (8)
0x760|00 00 00 14                                    |....            |        corr: 20 0x760-0x763.7 (4)
     |                                               |                |      [20]{}: leap_second_record 0x764-0x76f.7 (12)
0x760|            00 00 00 00 33 b8 48 94            |    ....3.H.    |        occur: "1997-07-01T00:00:20Z" (867715220) 0x764-0x76b.7 (8)
0x760|                                    00 00 00 15|            ....|        corr: 21 0x76c-0x76f.7 (4)
     |                                               |                |      [21]{}: leap_second_record 0x770-0x77b.7 (12)
0x770|00 00 00 00 36 8c 10 15                        |....6...        |        occur: "1999-01-01T00:00:21Z" (915148821) 0x770-0x777.7 (8)
0x770|                        00 00 00 16            |        ....    |        corr: 22 0x778-0x77b.7 (4)
     |                                               |                |      [22]{}: leap_second_record 0x77c-0x787.7 (12)
0x770|                                    00 00 00 00|            ....|        occur: "2006-01-01T00:00:22Z" (1136073622) 0x77c-0x783.7 (8)
0x780|43 b7 1b 96                                    |C...            |
0x780|            00 00 00 17                        |    ....        |        corr: 23 0x784-0x787.7 (4)
     |                                               |                |      [23]{}: leap_second_record 0x788-0x793.7 (12)
0x780|                        00 00 00 00 49 5c 07 97|        ....I\..|        occur: "2009-01-01T00:00:23Z" (1230768023) 0x788-0x78f.7 (8)
0x790|00 00 00 18                                    |....            |        corr: 24 0x790-0x793.7 (4)
     |                                               |                |      [24]{}: leap_second_record 0x794-0x79f.7 (12)
0x790|            00 00 00 00 4f ef 93 18            |    ....O...    |        occur: "2012-07-01T00:00:24Z" (1341100824) 0x794-0x79b.7 (8)
0x790|                                    00 00 00 19|            ....|        corr: 25 0x79c-0x79f.7 (4)
     |                                               |                |      [25]{}: leap_second_record 0x7a0-0x7ab.7 (12)
0x7a0|00 00 00 00 55 93 2d 99                        |....U.-.        |        occur: "2015-07-01T00:00:25Z" (1435708825) 0x7a0-0x7a7.7 (8)
0x7a0|                        00 00 00 1a            |        ....    |        corr: 26 0x7a8-0x7ab.7 (4)
     |                                               |                |      [26]{}: leap_second_record 0x7ac-0x7b7.7 (12)
0x7a0|                                    00 00 00 00|            ....|        occur: "2017-01-01T00:00:26Z" (1483228826) 0x7ac-0x7b3.7 (8)
0x7b0|58 68 46 9a                                    |XhF.            |
0x7b0|            00 00 00 1b                        |    ....        |        corr: 27 0x7b4-0x7b7.7 (4)
     |                                               |                |    standard_wall_indicators[0:0]: 0x7b8-NA (0)
     |                                               |                |    ut_local_indicators[0:0]: 0x7b8-NA (0)
     |                                               |                |  footer{}: 0x7b8-0x7b9.7 (2)
0x7b0|                        0a                     |        .       |    nl1: 10 (valid) 0x7b8-0x7b8.7 (1)
     |                                               |                |    tz_string: "" 0x7b9-NA (0)
0x7b0|                           0a|                 |         .|     |    nl2: 10 (valid) 0x7b9-0x7b9.7 (1)
