$ fq -d tzif dv Canary
     |00 01 02 03 04 05 06 07 08 09 0a 0b 0c 0d 0e 0f|0123456789abcdef|.{}: Canary (tzif) 0x0-0x7e3.7 (2020)
     |                                               |                |  v1header{}: 0x0-0x2b.7 (44)
0x000|54 5a 69 66                                    |TZif            |    magic: 0x545a6966 (valid) 0x0-0x3.7 (4)
0x000|            32                                 |    2           |    ver: "2" (0x32) (valid) 0x4-0x4.7 (1)
0x000|               00 00 00 00 00 00 00 00 00 00 00|     ...........|    reserved: raw bits 0x5-0x13.7 (15)
0x010|00 00 00 00                                    |....            |
0x010|            00 00 00 06                        |    ....        |    isutcnt: 6 0x14-0x17.7 (4)
0x010|                        00 00 00 06            |        ....    |    isstdcnt: 6 0x18-0x1b.7 (4)
0x010|                                    00 00 00 1b|            ....|    leapcnt: 27 0x1c-0x1f.7 (4)
0x020|00 00 00 5a                                    |...Z            |    timecnt: 90 0x20-0x23.7 (4)
0x020|            00 00 00 06                        |    ....        |    typecnt: 6 0x24-0x27.7 (4)
0x020|                        00 00 00 11            |        ....    |    charcnt: 17 0x28-0x2b.7 (4)
     |                                               |                |  v1datablock{}: 0x2c-0x306.7 (731)
     |                                               |                |    transition_times[0:90]: 0x2c-0x193.7 (360)
0x020|                                    a6 04 5c f0|            ..\.|      [0]: "1922-03-01T01:01:36Z" (-1509663504) transition_time 0x2c-0x2f.7 (4)
0x030|d4 41 f7 20                                    |.A.             |      [1]: "1946-09-30T02:00:00Z" (-733874400) transition_time 0x30-0x33.7 (4)
0x030|            13 4d 36 09                        |    .M6.        |      [2]: "1980-04-06T00:00:09Z" (323827209) transition_time 0x34-0x37.7 (4)
0x030|                        14 33 fa 99            |        .3..    |      [3]: "1980-09-28T01:00:09Z" (338950809) transition_time 0x38-0x3b.7 (4)
0x030|                                    15 23 eb 99|            .#..|      [4]: "1981-03-29T01:00:09Z" (354675609) transition_time 0x3c-0x3f.7 (4)
0x040|16 13 dc 9a                                    |....            |      [5]: "1981-09-27T01:00:10Z" (370400410) transition_time 0x40-0x43.7 (4)
0x040|            17 03 cd 9a                        |    ....        |      [6]: "1982-03-28T01:00:10Z" (386125210) transition_time 0x44-0x47.7 (4)
0x040|                        17 f3 be 9b            |        ....    |      [7]: "1982-09-26T01:00:11Z" (401850011) transition_time 0x48-0x4b.7 (4)
0x040|                                    18 e3 af 9b|            ....|      [8]: "1983-03-27T01:00:11Z" (417574811) transition_time 0x4c-0x4f.7 (4)
0x050|19 d3 a0 9c                                    |....            |      [9]: "1983-09-25T01:00:12Z" (433299612) transition_time 0x50-0x53.7 (4)
0x050|            1a c3 91 9c                        |    ....        |      [10]: "1984-03-25T01:00:12Z" (449024412) transition_time 0x54-0x57.7 (4)
0x050|                        1b bc bd 1c            |        ....    |      [11]: "1984-09-30T01:00:12Z" (465354012) transition_time 0x58-0x5b.7 (4)
0x050|                                    1c ac ae 1c|            ....|      [12]: "1985-03-31T01:00:12Z" (481078812) transition_time 0x5c-0x5f.7 (4)
0x060|1d 9c 9f 1d                                    |....            |      [13]: "1985-09-29T01:00:13Z" (496803613) transition_time 0x60-0x63.7 (4)
0x060|            1e 8c 90 1d                        |    ....        |      [14]: "1986-03-30T01:00:13Z" (512528413) transition_time 0x64-0x67.7 (4)
0x060|                        1f 7c 81 1d            |        .|..    |      [15]: "1986-09-28T01:00:13Z" (528253213) transition_time 0x68-0x6b.7 (4)
0x060|                                    20 6c 72 1d|             lr.|      [16]: "1987-03-29T01:00:13Z" (543978013) transition_time 0x6c-0x6f.7 (4)
0x070|21 5c 63 1d                                    |!\c.            |      [17]: "1987-09-27T01:00:13Z" (559702813) transition_time 0x70-0x73.7 (4)
0x070|            22 4c 54 1e                        |    "LT.        |      [18]: "1988-03-27T01:00:14Z" (575427614) transition_time 0x74-0x77.7 (4)
0x070|                        23 3c 45 1e            |        #<E.    |      [19]: "1988-09-25T01:00:14Z" (591152414) transition_time 0x78-0x7b.7 (4)
0x070|                                    24 2c 36 1e|            $,6.|      [20]: "1989-03-26T01:00:14Z" (606877214) transition_time 0x7c-0x7f.7 (4)
0x080|25 1c 27 1e                                    |%.'.            |      [21]: "1989-09-24T01:00:14Z" (622602014) transition_time 0x80-0x83.7 (4)
0x080|            26 0c 18 1f                        |    &...        |      [22]: "1990-03-25T01:00:15Z" (638326815) transition_time 0x84-0x87.7 (4)
0x080|                        27 05 43 9f            |        '.C.    |      [23]: "1990-09-30T01:00:15Z" (654656415) transition_time 0x88-0x8b.7 (4)
0x080|                                    27 f5 34 a0|            '.4.|      [24]: "1991-03-31T01:00:16Z" (670381216) transition_time 0x8c-0x8f.7 (4)
0x090|28 e5 25 a0                                    |(.%.            |      [25]: "1991-09-29T01:00:16Z" (686106016) transition_time 0x90-0x93.7 (4)
0x090|            29 d5 16 a0                        |    )...        |      [26]: "1992-03-29T01:00:16Z" (701830816) transition_time 0x94-0x97.7 (4)
0x090|                        2a c5 07 a1            |        *...    |      [27]: "1992-09-27T01:00:17Z" (717555617) transition_time 0x98-0x9b.7 (4)
0x090|                                    2b b4 f8 a1|            +...|      [28]: "1993-03-28T01:00:17Z" (733280417) transition_time 0x9c-0x9f.7 (4)
0x0a0|2c a4 e9 a2                                    |,...            |      [29]: "1993-09-26T01:00:18Z" (749005218) transition_time 0xa0-0xa3.7 (4)
0x0a0|            2d 94 da a2                        |    -...        |      [30]: "1994-03-27T01:00:18Z" (764730018) transition_time 0xa4-0xa7.7 (4)
0x0a0|                        2e 84 cb a3            |        ....    |      [31]: "1994-09-25T01:00:19Z" (780454819) transition_time 0xa8-0xab.7 (4)
0x0a0|                                    2f 74 bc a3|            /t..|      [32]: "1995-03-26T01:00:19Z" (796179619) transition_time 0xac-0xaf.7 (4)
0x0b0|30 64 ad a3                                    |0d..            |      [33]: "1995-09-24T01:00:19Z" (811904419) transition_time 0xb0-0xb3.7 (4)
0x0b0|            31 5d d9 24                        |    1].$        |      [34]: "1996-03-31T01:00:20Z" (828234020) transition_time 0xb4-0xb7.7 (4)
0x0b0|                        32 72 b4 24            |        2r.$    |      [35]: "1996-10-27T01:00:20Z" (846378020) transition_time 0xb8-0xbb.7 (4)
0x0b0|                                    33 3d bb 24|            3=.$|      [36]: "1997-03-30T01:00:20Z" (859683620) transition_time 0xbc-0xbf.7 (4)
0x0c0|34 52 96 25                                    |4R.%            |      [37]: "1997-10-26T01:00:21Z" (877827621) transition_time 0xc0-0xc3.7 (4)
0x0c0|            35 1d 9d 25                        |    5..%        |      [38]: "1998-03-29T01:00:21Z" (891133221) transition_time 0xc4-0xc7.7 (4)
0x0c0|                        36 32 78 25            |        62x%    |      [39]: "1998-10-25T01:00:21Z" (909277221) transition_time 0xc8-0xcb.7 (4)
0x0c0|                                    36 fd 7f 26|            6..&|      [40]: "1999-03-28T01:00:22Z" (922582822) transition_time 0xcc-0xcf.7 (4)
0x0d0|38 1b 94 a6                                    |8...            |      [41]: "1999-10-31T01:00:22Z" (941331622) transition_time 0xd0-0xd3.7 (4)
0x0d0|            38 dd 61 26                        |    8.a&        |      [42]: "2000-03-26T01:00:22Z" (954032422) transition_time 0xd4-0xd7.7 (4)
0x0d0|                        39 fb 76 a6            |        9.v.    |      [43]: "2000-10-29T01:00:22Z" (972781222) transition_time 0xd8-0xdb.7 (4)
0x0d0|                                    3a bd 43 26|            :.C&|      [44]: "2001-03-25T01:00:22Z" (985482022) transition_time 0xdc-0xdf.7 (4)
0x0e0|3b db 58 a6                                    |;.X.            |      [45]: "2001-10-28T01:00:22Z" (1004230822) transition_time 0xe0-0xe3.7 (4)
0x0e0|            3c a6 5f a6                        |    <._.        |      [46]: "2002-03-31T01:00:22Z" (1017536422) transition_time 0xe4-0xe7.7 (4)
0x0e0|                        3d bb 3a a6            |        =.:.    |      [47]: "2002-10-27T01:00:22Z" (1035680422) transition_time 0xe8-0xeb.7 (4)
0x0e0|                                    3e 86 41 a6|            >.A.|      [48]: "2003-03-30T01:00:22Z" (1048986022) transition_time 0xec-0xef.7 (4)
0x0f0|3f 9b 1c a6                                    |?...            |      [49]: "2003-10-26T01:00:22Z" (1067130022) transition_time 0xf0-0xf3.7 (4)
0x0f0|            40 66 23 a6                        |    @f#.        |      [50]: "2004-03-28T01:00:22Z" (1080435622) transition_time 0xf4-0xf7.7 (4)
0x0f0|                        41 84 39 26            |        A.9&    |      [51]: "2004-10-31T01:00:22Z" (1099184422) transition_time 0xf8-0xfb.7 (4)
0x0f0|                                    42 46 05 a6|            BF..|      [52]: "2005-03-27T01:00:22Z" (1111885222) transition_time 0xfc-0xff.7 (4)
0x100|43 64 1b 26                                    |Cd.&            |      [53]: "2005-10-30T01:00:22Z" (1130634022) transition_time 0x100-0x103.7 (4)
0x100|            44 25 e7 a7                        |    D%..        |      [54]: "2006-03-26T01:00:23Z" (1143334823) transition_time 0x104-0x107.7 (4)
0x100|                        45 43 fd 27            |        EC.'    |      [55]: "2006-10-29T01:00:23Z" (1162083623) transition_time 0x108-0x10b.7 (4)
0x100|                                    46 05 c9 a7|            F...|      [56]: "2007-03-25T01:00:23Z" (1174784423) transition_time 0x10c-0x10f.7 (4)
0x110|47 23 df 27                                    |G#.'            |      [57]: "2007-10-28T01:00:23Z" (1193533223) transition_time 0x110-0x113.7 (4)
0x110|            47 ee e6 27                        |    G..'        |      [58]: "2008-03-30T01:00:23Z" (1206838823) transition_time 0x114-0x117.7 (4)
0x110|                        49 03 c1 27            |        I..'    |      [59]: "2008-10-26T01:00:23Z" (1224982823) transition_time 0x118-0x11b.7 (4)
0x110|                                    49 ce c8 28|            I..(|      [60]: "2009-03-29T01:00:24Z" (1238288424) transition_time 0x11c-0x11f.7 (4)
0x120|4a e3 a3 28                                    |J..(            |      [61]: "2009-10-25T01:00:24Z" (1256432424) transition_time 0x120-0x123.7 (4)
0x120|            4b ae aa 28                        |    K..(        |      [62]: "2010-03-28T01:00:24Z" (1269738024) transition_time 0x124-0x127.7 (4)
0x120|                        4c cc bf a8            |        L...    |      [63]: "2010-10-31T01:00:24Z" (1288486824) transition_time 0x128-0x12b.7 (4)
0x120|                                    4d 8e 8c 28|            M..(|      [64]: "2011-03-27T01:00:24Z" (1301187624) transition_time 0x12c-0x12f.7 (4)
0x130|4e ac a1 a8                                    |N...            |      [65]: "2011-10-30T01:00:24Z" (1319936424) transition_time 0x130-0x133.7 (4)
0x130|            4f 6e 6e 28                        |    Onn(        |      [66]: "2012-03-25T01:00:24Z" (1332637224) transition_time 0x134-0x137.7 (4)
0x130|                        50 8c 83 a9            |        P...    |      [67]: "2012-10-28T01:00:25Z" (1351386025) transition_time 0x138-0x13b.7 (4)
0x130|                                    51 57 8a a9|            QW..|      [68]: "2013-03-31T01:00:25Z" (1364691625) transition_time 0x13c-0x13f.7 (4)
0x140|52 6c 65 a9                                    |Rle.            |      [69]: "2013-10-27T01:00:25Z" (1382835625) transition_time 0x140-0x143.7 (4)
0x140|            53 37 6c a9                        |    S7l.        |      [70]: "2014-03-30T01:00:25Z" (1396141225) transition_time 0x144-0x147.7 (4)
0x140|                        54 4c 47 a9            |        TLG.    |      [71]: "2014-10-26T01:00:25Z" (1414285225) transition_time 0x148-0x14b.7 (4)
0x140|                                    55 17 4e a9|            U.N.|      [72]: "2015-03-29T01:00:25Z" (1427590825) transition_time 0x14c-0x14f.7 (4)
0x150|56 2c 29 aa                                    |V,).            |      [73]: "2015-10-25T01:00:26Z" (1445734826) transition_time 0x150-0x153.7 (4)
0x150|            56 f7 30 aa                        |    V.0.        |      [74]: "2016-03-27T01:00:26Z" (1459040426) transition_time 0x154-0x157.7 (4)
0x150|                        58 15 46 2a            |        X.F*    |      [75]: "2016-10-30T01:00:26Z" (1477789226) transition_time 0x158-0x15b.7 (4)
0x150|                                    58 d7 12 ab|            X...|      [76]: "2017-03-26T01:00:27Z" (1490490027) transition_time 0x15c-0x15f.7 (4)
0x160|59 f5 28 2b                                    |Y.(+            |      [77]: "2017-10-29T01:00:27Z" (1509238827) transition_time 0x160-0x163.7 (4)
0x160|            5a b6 f4 ab                        |    Z...        |      [78]: "2018-03-25T01:00:27Z" (1521939627) transition_time 0x164-0x167.7 (4)
0x160|                        5b d5 0a 2b            |        [..+    |      [79]: "2018-10-28T01:00:27Z" (1540688427) transition_time 0x168-0x16b.7 (4)
0x160|                                    5c a0 11 2b|            \..+|      [80]: "2019-03-31T01:00:27Z" (1553994027) transition_time 0x16c-0x16f.7 (4)
0x170|5d b4 ec 2b                                    |]..+            |      [81]: "2019-10-27T01:00:27Z" (1572138027) transition_time 0x170-0x173.7 (4)
0x170|            5e 7f f3 2b                        |    ^..+        |      [82]: "2020-03-29T01:00:27Z" (1585443627) transition_time 0x174-0x177.7 (4)
0x170|                        5f 94 ce 2b            |        _..+    |      [83]: "2020-10-25T01:00:27Z" (1603587627) transition_time 0x178-0x17b.7 (4)
0x170|                                    60 5f d5 2b|            `_.+|      [84]: "2021-03-28T01:00:27Z" (1616893227) transition_time 0x17c-0x17f.7 (4)
0x180|61 7d ea ab                                    |a}..            |      [85]: "2021-10-31T01:00:27Z" (1635642027) transition_time 0x180-0x183.7 (4)
0x180|            62 3f b7 2b                        |    b?.+        |      [86]: "2022-03-27T01:00:27Z" (1648342827) transition_time 0x184-0x187.7 (4)
0x180|                        63 5d cc ab            |        c]..    |      [87]: "2022-10-30T01:00:27Z" (1667091627) transition_time 0x188-0x18b.7 (4)
0x180|                                    64 1f 99 2b|            d..+|      [88]: "2023-03-26T01:00:27Z" (1679792427) transition_time 0x18c-0x18f.7 (4)
0x190|64 9b 78 1b                                    |d.x.            |      [89]: "2023-06-28T00:00:27Z" (1687910427) transition_time 0x190-0x193.7 (4)
     |                                               |                |    transition_types[0:90]: 0x194-0x1ed.7 (90)
0x190|            01                                 |    .           |      [0]: 1 transition_type 0x194-0x194.7 (1)
0x190|               02                              |     .          |      [1]: 2 transition_type 0x195-0x195.7 (1)
0x190|                  03                           |      .         |      [2]: 3 transition_type 0x196-0x196.7 (1)
0x190|                     04                        |       .        |      [3]: 4 transition_type 0x197-0x197.7 (1)
0x190|                        05                     |        .       |      [4]: 5 transition_type 0x198-0x198.7 (1)
0x190|                           04                  |         .      |      [5]: 4 transition_type 0x199-0x199.7 (1)
0x190|                              05               |          .     |      [6]: 5 transition_type 0x19a-0x19a.7 (1)
0x190|                                 04            |           .    |      [7]: 4 transition_type 0x19b-0x19b.7 (1)
0x190|                                    05         |            .   |      [8]: 5 transition_type 0x19c-0x19c.7 (1)
0x190|                                       04      |             .  |      [9]: 4 transition_type 0x19d-0x19d.7 (1)
0x190|                                          05   |              . |      [10]: 5 transition_type 0x19e-0x19e.7 (1)
0x190|                                             04|               .|      [11]: 4 transition_type 0x19f-0x19f.7 (1)
0x1a0|05                                             |.               |      [12]: 5 transition_type 0x1a0-0x1a0.7 (1)
0x1a0|   04                                          | .              |      [13]: 4 transition_type 0x1a1-0x1a1.7 (1)
0x1a0|      05                                       |  .             |      [14]: 5 transition_type 0x1a2-0x1a2.7 (1)
0x1a0|         04                                    |   .            |      [15]: 4 transition_type 0x1a3-0x1a3.7 (1)
0x1a0|            05                                 |    .           |      [16]: 5 transition_type 0x1a4-0x1a4.7 (1)
0x1a0|               04                              |     .          |      [17]: 4 transition_type 0x1a5-0x1a5.7 (1)
0x1a0|                  05                           |      .         |      [18]: 5 transition_type 0x1a6-0x1a6.7 (1)
0x1a0|                     04                        |       .        |      [19]: 4 transition_type 0x1a7-0x1a7.7 (1)
0x1a0|                        05                     |        .       |      [20]: 5 transition_type 0x1a8-0x1a8.7 (1)
0x1a0|                           04                  |         .      |      [21]: 4 transition_type 0x1a9-0x1a9.7 (1)
0x1a0|                              05               |          .     |      [22]: 5 transition_type 0x1aa-0x1aa.7 (1)
0x1a0|                                 04            |           .    |      [23]: 4 transition_type 0x1ab-0x1ab.7 (1)
0x1a0|                                    05         |            .   |      [24]: 5 transition_type 0x1ac-0x1ac.7 (1)
0x1a0|                                       04      |             .  |      [25]: 4 transition_type 0x1ad-0x1ad.7 (1)
0x1a0|                                          05   |              . |      [26]: 5 transition_type 0x1ae-0x1ae.7 (1)
0x1a0|                                             04|               .|      [27]: 4 transition_type 0x1af-0x1af.7 (1)
0x1b0|05                                             |.               |      [28]: 5 transition_type 0x1b0-0x1b0.7 (1)
0x1b0|   04                                          | .              |      [29]: 4 transition_type 0x1b1-0x1b1.7 (1)
0x1b0|      05                                       |  .             |      [30]: 5 transition_type 0x1b2-0x1b2.7 (1)
0x1b0|         04                                    |   .            |      [31]: 4 transition_type 0x1b3-0x1b3.7 (1)
0x1b0|            05                                 |    .           |      [32]: 5 transition_type 0x1b4-0x1b4.7 (1)
0x1b0|               04                              |     .          |      [33]: 4 transition_type 0x1b5-0x1b5.7 (1)
0x1b0|                  05                           |      .         |      [34]: 5 transition_type 0x1b6-0x1b6.7 (1)
0x1b0|                     04                        |       .        |      [35]: 4 transition_type 0x1b7-0x1b7.7 (1)
0x1b0|                        05                     |        .       |      [36]: 5 transition_type 0x1b8-0x1b8.7 (1)
0x1b0|                           04                  |         .      |      [37]: 4 transition_type 0x1b9-0x1b9.7 (1)
0x1b0|                              05               |          .     |      [38]: 5 transition_type 0x1ba-0x1ba.7 (1)
0x1b0|                                 04            |           .    |      [39]: 4 transition_type 0x1bb-0x1bb.7 (1)
0x1b0|                                    05         |            .   |      [40]: 5 transition_type 0x1bc-0x1bc.7 (1)
0x1b0|                                       04      |             .  |      [41]: 4 transition_type 0x1bd-0x1bd.7 (1)
0x1b0|                                          05   |              . |      [42]: 5 transition_type 0x1be-0x1be.7 (1)
0x1b0|                                             04|               .|      [43]: 4 transition_type 0x1bf-0x1bf.7 (1)
0x1c0|05                                             |.               |      [44]: 5 transition_type 0x1c0-0x1c0.7 (1)
0x1c0|   04                                          | .              |      [45]: 4 transition_type 0x1c1-0x1c1.7 (1)
0x1c0|      05                                       |  .             |      [46]: 5 transition_type 0x1c2-0x1c2.7 (1)
0x1c0|         04                                    |   .            |      [47]: 4 transition_type 0x1c3-0x1c3.7 (1)
0x1c0|            05                                 |    .           |      [48]: 5 transition_type 0x1c4-0x1c4.7 (1)
0x1c0|               04                              |     .          |      [49]: 4 transition_type 0x1c5-0x1c5.7 (1)
0x1c0|                  05                           |      .         |      [50]: 5 transition_type 0x1c6-0x1c6.7 (1)
0x1c0|                     04                        |       .        |      [51]: 4 transition_type 0x1c7-0x1c7.7 (1)
0x1c0|                        05                     |        .       |      [52]: 5 transition_type 0x1c8-0x1c8.7 (1)
0x1c0|                           04                  |         .      |      [53]: 4 transition_type 0x1c9-0x1c9.7 (1)
0x1c0|                              05               |          .     |      [54]: 5 transition_type 0x1ca-0x1ca.7 (1)
0x1c0|                                 04            |           .    |      [55]: 4 transition_type 0x1cb-0x1cb.7 (1)
0x1c0|                                    05         |            .   |      [56]: 5 transition_type 0x1cc-0x1cc.7 (1)
0x1c0|                                       04      |             .  |      [57]: 4 transition_type 0x1cd-0x1cd.7 (1)
0x1c0|                                          05   |              . |      [58]: 5 transition_type 0x1ce-0x1ce.7 (1)
0x1c0|                                             04|               .|      [59]: 4 transition_type 0x1cf-0x1cf.7 (1)
0x1d0|05                                             |.               |      [60]: 5 transition_type 0x1d0-0x1d0.7 (1)
0x1d0|   04                                          | .              |      [61]: 4 transition_type 0x1d1-0x1d1.7 (1)
0x1d0|      05                                       |  .             |      [62]: 5 transition_type 0x1d2-0x1d2.7 (1)
0x1d0|         04                                    |   .            |      [63]: 4 transition_type 0x1d3-0x1d3.7 (1)
0x1d0|            05                                 |    .           |      [64]: 5 transition_type 0x1d4-0x1d4.7 (1)
0x1d0|               04                              |     .          |      [65]: 4 transition_type 0x1d5-0x1d5.7 (1)
0x1d0|                  05                           |      .         |      [66]: 5 transition_type 0x1d6-0x1d6.7 (1)
0x1d0|                     04                        |       .        |      [67]: 4 transition_type 0x1d7-0x1d7.7 (1)
0x1d0|                        05                     |        .       |      [68]: 5 transition_type 0x1d8-0x1d8.7 (1)
0x1d0|                           04                  |         .      |      [69]: 4 transition_type 0x1d9-0x1d9.7 (1)
0x1d0|                              05               |          .     |      [70]: 5 transition_type 0x1da-0x1da.7 (1)
0x1d0|                                 04            |           .    |      [71]: 4 transition_type 0x1db-0x1db.7 (1)
0x1d0|                                    05         |            .   |      [72]: 5 transition_type 0x1dc-0x1dc.7 (1)
0x1d0|                                       04      |             .  |      [73]: 4 transition_type 0x1dd-0x1dd.7 (1)
0x1d0|                                          05   |              . |      [74]: 5 transition_type 0x1de-0x1de.7 (1)
0x1d0|                                             04|               .|      [75]: 4 transition_type 0x1df-0x1df.7 (1)
0x1e0|05                                             |.               |      [76]: 5 transition_type 0x1e0-0x1e0.7 (1)
0x1e0|   04                                          | .              |      [77]: 4 transition_type 0x1e1-0x1e1.7 (1)
0x1e0|      05                                       |  .             |      [78]: 5 transition_type 0x1e2-0x1e2.7 (1)
0x1e0|         04                                    |   .            |      [79]: 4 transition_type 0x1e3-0x1e3.7 (1)
0x1e0|            05                                 |    .           |      [80]: 5 transition_type 0x1e4-0x1e4.7 (1)
0x1e0|               04                              |     .          |      [81]: 4 transition_type 0x1e5-0x1e5.7 (1)
0x1e0|                  05                           |      .         |      [82]: 5 transition_type 0x1e6-0x1e6.7 (1)
0x1e0|                     04                        |       .        |      [83]: 4 transition_type 0x1e7-0x1e7.7 (1)
0x1e0|                        05                     |        .       |      [84]: 5 transition_type 0x1e8-0x1e8.7 (1)
0x1e0|                           04                  |         .      |      [85]: 4 transition_type 0x1e9-0x1e9.7 (1)
0x1e0|                              05               |          .     |      [86]: 5 transition_type 0x1ea-0x1ea.7 (1)
0x1e0|                                 04            |           .    |      [87]: 4 transition_type 0x1eb-0x1eb.7 (1)
0x1e0|                                    05         |            .   |      [88]: 5 transition_type 0x1ec-0x1ec.7 (1)
0x1e0|                                       05      |             .  |      [89]: 5 transition_type 0x1ed-0x1ed.7 (1)
     |                                               |                |    local_time_type_records[0:6]: 0x1ee-0x211.7 (36)
     |                                               |                |      [0]{}: local_time_type 0x1ee-0x1f3.7 (6)
0x1e0|                                          ff ff|              ..|        utoff: -3696 (valid) 0x1ee-0x1f1.7 (4)
0x1f0|f1 90                                          |..              |
0x1f0|      00                                       |  .             |        dst: 0 (valid) 0x1f2-0x1f2.7 (1)
0x1f0|         00                                    |   .            |        idx: 0 (valid) 0x1f3-0x1f3.7 (1)
     |                                               |                |      [1]{}: local_time_type 0x1f4-0x1f9.7 (6)
0x1f0|            ff ff f1 f0                        |    ....        |        utoff: -3600 (valid) 0x1f4-0x1f7.7 (4)
0x1f0|                        00                     |        .       |        dst: 0 (valid) 0x1f8-0x1f8.7 (1)
0x1f0|                           04                  |         .      |        idx: 4 (valid) 0x1f9-0x1f9.7 (1)
     |                                               |                |      [2]{}: local_time_type 0x1fa-0x1ff.7 (6)
0x1f0|                              00 00 00 00      |          ....  |        utoff: 0 (valid) 0x1fa-0x1fd.7 (4)
0x1f0|                                          00   |              . |        dst: 0 (valid) 0x1fe-0x1fe.7 (1)
0x1f0|                                             08|               .|        idx: 8 (valid) 0x1ff-0x1ff.7 (1)
     |                                               |                |      [3]{}: local_time_type 0x200-0x205.7 (6)
0x200|00 00 0e 10                                    |....            |        utoff: 3600 (valid) 0x200-0x203.7 (4)
0x200|            01                                 |    .           |        dst: 1 (valid) 0x204-0x204.7 (1)
0x200|               0c                              |     .          |        idx: 12 (valid) 0x205-0x205.7 (1)
     |                                               |                |      [4]{}: local_time_type 0x206-0x20b.7 (6)
0x200|                  00 00 00 00                  |      ....      |        utoff: 0 (valid) 0x206-0x209.7 (4)
0x200|                              00               |          .     |        dst: 0 (valid) 0x20a-0x20a.7 (1)
0x200|                                 08            |           .    |        idx: 8 (valid) 0x20b-0x20b.7 (1)
     |                                               |                |      [5]{}: local_time_type 0x20c-0x211.7 (6)
0x200|                                    00 00 0e 10|            ....|        utoff: 3600 (valid) 0x20c-0x20f.7 (4)
0x210|01                                             |.               |        dst: 1 (valid) 0x210-0x210.7 (1)
0x210|   0c                                          | .              |        idx: 12 (valid) 0x211-0x211.7 (1)
     |                                               |                |    time_zone_designations[0:4]: 0x212-0x222.7 (17)
0x210|      4c 4d 54 00                              |  LMT.          |      [0]: "LMT" time_zone_designation 0x212-0x215.7 (4)
0x210|                  2d 30 31 00                  |      -01.      |      [1]: "-01" time_zone_designation 0x216-0x219.7 (4)
0x210|                              57 45 54 00      |          WET.  |      [2]: "WET" time_zone_designation 0x21a-0x21d.7 (4)
0x210|                                          57 45|              WE|      [3]: "WEST" time_zone_designation 0x21e-0x222.7 (5)
0x220|53 54 00                                       |ST.             |
     |                                               |                |    leap_second_records[0:27]: 0x223-0x2fa.7 (216)
     |                                               |                |      [0]{}: leap_second_record 0x223-0x22a.7 (8)
0x220|         04 b2 58 00                           |   ..X.         |        occur: "1972-07-01T00:00:00Z" (78796800) 0x223-0x226.7 (4)
0x220|                     00 00 00 01               |       ....     |        corr: 1 0x227-0x22a.7 (4)
     |                                               |                |      [1]{}: leap_second_record 0x22b-0x232.7 (8)
0x220|                                 05 a4 ec 01   |           .... |        occur: "1973-01-01T00:00:01Z" (94694401) 0x22b-0x22e.7 (4)
0x220|                                             00|               .|        corr: 2 0x22f-0x232.7 (4)
0x230|00 00 02                                       |...             |
     |                                               |                |      [2]{}: leap_second_record 0x233-0x23a.7 (8)
0x230|         07 86 1f 82                           |   ....         |        occur: "1974-01-01T00:00:02Z" (126230402) 0x233-0x236.7 (4)
0x230|                     00 00 00 03               |       ....     |        corr: 3 0x237-0x23a.7 (4)
     |                                               |                |      [3]{}: leap_second_record 0x23b-0x242.7 (8)
0x230|                                 09 67 53 03   |           .gS. |        occur: "1975-01-01T00:00:03Z" (157766403) 0x23b-0x23e.7 (4)
0x230|                                             00|               .|        corr: 4 0x23f-0x242.7 (4)
0x240|00 00 04                                       |...             |
     |                                               |                |      [4]{}: leap_second_record 0x243-0x24a.7 (8)
0x240|         0b 48 86 84                           |   .H..         |        occur: "1976-01-01T00:00:04Z" (189302404) 0x243-0x246.7 (4)
0x240|                     00 00 00 05               |       ....     |        corr: 5 0x247-0x24a.7 (4)
     |                                               |                |      [5]{}: leap_second_record 0x24b-0x252.7 (8)
0x240|                                 0d 2b 0b 85   |           .+.. |        occur: "1977-01-01T00:00:05Z" (220924805) 0x24b-0x24e.7 (4)
0x240|                                             00|               .|        corr: 6 0x24f-0x252.7 (4)
0x250|00 00 06                                       |...             |
     |                                               |                |      [6]{}: leap_second_record 0x253-0x25a.7 (8)
0x250|         0f 0c 3f 06                           |   ..?.         |        occur: "1978-01-01T00:00:06Z" (252460806) 0x253-0x256.7 (4)
0x250|                     00 00 00 07               |       ....     |        corr: 7 0x257-0x25a.7 (4)
     |                                               |                |      [7]{}: leap_second_record 0x25b-0x262.7 (8)
0x250|                                 10 ed 72 87   |           ..r. |        occur: "1979-01-01T00:00:07Z" (283996807) 0x25b-0x25e.7 (4)
0x250|                                             00|               .|        corr: 8 0x25f-0x262.7 (4)
0x260|00 00 08                                       |...             |
     |                                               |                |      [8]{}: leap_second_record 0x263-0x26a.7 (8)
0x260|         12 ce a6 08                           |   ....         |        occur: "1980-01-01T00:00:08Z" (315532808) 0x263-0x266.7 (4)
0x260|                     00 00 00 09               |       ....     |        corr: 9 0x267-0x26a.7 (4)
     |                                               |                |      [9]{}: leap_second_record 0x26b-0x272.7 (8)
0x260|                                 15 9f ca 89   |           .... |        occur: "1981-07-01T00:00:09Z" (362793609) 0x26b-0x26e.7 (4)
0x260|                                             00|               .|        corr: 10 0x26f-0x272.7 (4)
0x270|00 00 0a                                       |...             |
     |                                               |                |      [10]{}: leap_second_record 0x273-0x27a.7 (8)
0x270|         17 80 fe 0a                           |   ....         |        occur: "1982-07-01T00:00:10Z" (394329610) 0x273-0x276.7 (4)
0x270|                     00 00 00 0b               |       ....     |        corr: 11 0x277-0x27a.7 (4)
     |                                               |                |      [11]{}: leap_second_record 0x27b-0x282.7 (8)
0x270|                                 19 62 31 8b   |           .b1. |        occur: "1983-07-01T00:00:11Z" (425865611) 0x27b-0x27e.7 (4)
0x270|                                             00|               .|        corr: 12 0x27f-0x282.7 (4)
0x280|00 00 0c                                       |...             |
     |                                               |                |      [12]{}: leap_second_record 0x283-0x28a.7 (8)
0x280|         1d 25 ea 0c                           |   .%..         |        occur: "1985-07-01T00:00:12Z" (489024012) 0x283-0x286.7 (4)
0x280|                     00 00 00 0d               |       ....     |        corr: 13 0x287-0x28a.7 (4)
     |                                               |                |      [13]{}: leap_second_record 0x28b-0x292.7 (8)
0x280|                                 21 da e5 0d   |           !... |        occur: "1988-01-01T00:00:13Z" (567993613) 0x28b-0x28e.7 (4)
0x280|                                             00|               .|        corr: 14 0x28f-0x292.7 (4)
0x290|00 00 0e                                       |...             |
     |                                               |                |      [14]{}: leap_second_record 0x293-0x29a.7 (8)
0x290|         25 9e 9d 8e                           |   %...         |        occur: "1990-01-01T00:00:14Z" (631152014) 0x293-0x296.7 (4)
0x290|                     00 00 00 0f               |       ....     |        corr: 15 0x297-0x29a.7 (4)
     |                                               |                |      [15]{}: leap_second_record 0x29b-0x2a2.7 (8)
0x290|                                 27 7f d1 0f   |           '... |        occur: "1991-01-01T00:00:15Z" (662688015) 0x29b-0x29e.7 (4)
0x290|                                             00|               .|        corr: 16 0x29f-0x2a2.7 (4)
0x2a0|00 00 10                                       |...             |
     |                                               |                |      [16]{}: leap_second_record 0x2a3-0x2aa.7 (8)
0x2a0|         2a 50 f5 90                           |   *P..         |        occur: "1992-07-01T00:00:16Z" (709948816) 0x2a3-0x2a6.7 (4)
0x2a0|                     00 00 00 11               |       ....     |        corr: 17 0x2a7-0x2aa.7 (4)
     |                                               |                |      [17]{}: leap_second_record 0x2ab-0x2b2.7 (8)
0x2a0|                                 2c 32 29 11   |           ,2). |        occur: "1993-07-01T00:00:17Z" (741484817) 0x2ab-0x2ae.7 (4)
0x2a0|                                             00|               .|        corr: 18 0x2af-0x2b2.7 (4)
0x2b0|00 00 12                                       |...             |
     |                                               |                |      [18]{}: leap_second_record 0x2b3-0x2ba.7 (8)
0x2b0|         2e 13 5c 92                           |   ..\.         |        occur: "1994-07-01T00:00:18Z" (773020818) 0x2b3-0x2b6.7 (4)
0x2b0|                     00 00 00 13               |       ....     |        corr: 19 0x2b7-0x2ba.7 (4)
     |                                               |                |      [19]{}: leap_second_record 0x2bb-0x2c2.7 (8)
0x2b0|                                 30 e7 24 13   |           0.$. |        occur: "1996-01-01T00:00:19Z" (820454419) 0x2bb-0x2be.7 (4)
0x2b0|                                             00|               .|        corr: 20 0x2bf-0x2c2.7 (4)
0x2c0|00 00 14                                       |...             |
     |                                               |                |      [20]{}: leap_second_record 0x2c3-0x2ca.7 (8)
0x2c0|         33 b8 48 94                           |   3.H.         |        occur: "1997-07-01T00:00:20Z" (867715220) 0x2c3-0x2c6.7 (4)
0x2c0|                     00 00 00 15               |       ....     |        corr: 21 0x2c7-0x2ca.7 (4)
     |                                               |                |      [21]{}: leap_second_record 0x2cb-0x2d2.7 (8)
0x2c0|                                 36 8c 10 15   |           6... |        occur: "1999-01-01T00:00:21Z" (915148821) 0x2cb-0x2ce.7 (4)
0x2c0|                                             00|               .|        corr: 22 0x2cf-0x2d2.7 (4)
0x2d0|00 00 16                                       |...             |
     |                                               |                |      [22]{}: leap_second_record 0x2d3-0x2da.7 (8)
0x2d0|         43 b7 1b 96                           |   C...         |        occur: "2006-01-01T00:00:22Z" (1136073622) 0x2d3-0x2d6.7 (4)
0x2d0|                     00 00 00 17               |       ....     |        corr: 23 0x2d7-0x2da.7 (4)
     |                                               |                |      [23]{}: leap_second_record 0x2db-0x2e2.7 (8)
0x2d0|                                 49 5c 07 97   |           I\.. |        occur: "2009-01-01T00:00:23Z" (1230768023) 0x2db-0x2de.7 (4)
0x2d0|                                             00|               .|        corr: 24 0x2df-0x2e2.7 (4)
0x2e0|00 00 18                                       |...             |
     |                                               |                |      [24]{}: leap_second_record 0x2e3-0x2ea.7 (8)
0x2e0|         4f ef 93 18                           |   O...         |        occur: "2012-07-01T00:00:24Z" (1341100824) 0x2e3-0x2e6.7 (4)
0x2e0|                     00 00 00 19               |       ....     |        corr: 25 0x2e7-0x2ea.7 (4)
     |                                               |                |      [25]{}: leap_second_record 0x2eb-0x2f2.7 (8)
0x2e0|                                 55 93 2d 99   |           U.-. |        occur: "2015-07-01T00:00:25Z" (1435708825) 0x2eb-0x2ee.7 (4)
0x2e0|                                             00|               .|        corr: 26 0x2ef-0x2f2.7 (4)
0x2f0|00 00 1a                                       |...             |
     |                                               |                |      [26]{}: leap_second_record 0x2f3-0x2fa.7 (8)
0x2f0|         58 68 46 9a                           |   XhF.         |        occur: "2017-01-01T00:00:26Z" (1483228826) 0x2f3-0x2f6.7 (4)
0x2f0|                     00 00 00 1b               |       ....     |        corr: 27 0x2f7-0x2fa.7 (4)
     |                                               |                |    standard_wall_indicators[0:6]: 0x2fb-0x300.7 (6)
0x2f0|                                 00            |           .    |      [0]: 0 standard_wall_indicator (valid) 0x2fb-0x2fb.7 (1)
0x2f0|                                    00         |            .   |      [1]: 0 standard_wall_indicator (valid) 0x2fc-0x2fc.7 (1)
0x2f0|                                       00      |             .  |      [2]: 0 standard_wall_indicator (valid) 0x2fd-0x2fd.7 (1)
0x2f0|                                          01   |              . |      [3]: 1 standard_wall_indicator (valid) 0x2fe-0x2fe.7 (1)
0x2f0|                                             01|               .|      [4]: 1 standard_wall_indicator (valid) 0x2ff-0x2ff.7 (1)
0x300|01                                             |.               |      [5]: 1 standard_wall_indicator (valid) 0x300-0x300.7 (1)
     |                                               |                |    ut_local_indicators[0:6]: 0x301-0x306.7 (6)
0x300|   00                                          | .              |      [0]: 0 ut_local_indicator (valid) 0x301-0x301.7 (1)
0x300|      00                                       |  .             |      [1]: 0 ut_local_indicator (valid) 0x302-0x302.7 (1)
0x300|         00                                    |   .            |      [2]: 0 ut_local_indicator (valid) 0x303-0x303.7 (1)
0x300|            00                                 |    .           |      [3]: 0 ut_local_indicator (valid) 0x304-0x304.7 (1)
0x300|               01                              |     .          |      [4]: 1 ut_local_indicator (valid) 0x305-0x305.7 (1)
0x300|                  01                           |      .         |      [5]: 1 ut_local_indicator (valid) 0x306-0x306.7 (1)
     |                                               |                |  v2plusheader{}: 0x307-0x332.7 (44)
0x300|                     54 5a 69 66               |       TZif     |    magic: 0x545a6966 (valid) 0x307-0x30a.7 (4)
0x300|                                 32            |           2    |    ver: "2" (0x32) (valid) 0x30b-0x30b.7 (1)
0x300|                                    00 00 00 00|            ....|    reserved: raw bits 0x30c-0x31a.7 (15)
0x310|00 00 00 00 00 00 00 00 00 00 00               |...........     |
0x310|                                 00 00 00 06   |           .... |    isutcnt: 6 0x31b-0x31e.7 (4)
0x310|                                             00|               .|    isstdcnt: 6 0x31f-0x322.7 (4)
0x320|00 00 06                                       |...             |
0x320|         00 00 00 1b                           |   ....         |    leapcnt: 27 0x323-0x326.7 (4)
0x320|                     00 00 00 5a               |       ...Z     |    timecnt: 90 0x327-0x32a.7 (4)
0x320|                                 00 00 00 06   |           .... |    typecnt: 6 0x32b-0x32e.7 (4)
0x320|                                             00|               .|    charcnt: 17 0x32f-0x332.7 (4)
0x330|00 00 11                                       |...             |
     |                                               |                |  v2plusdatablock{}: 0x333-0x7e1.7 (1199)
     |                                               |                |    transition_times[0:90]: 0x333-0x602.7 (720)
0x330|         ff ff ff ff a6 04 5c f0               |   ......\.     |      [0]: "1922-03-01T01:01:36Z" (-1509663504) transition_time 0x333-0x33a.7 (8)
0x330|                                 ff ff ff ff d4|           .....|      [1]: "1946-09-30T02:00:00Z" (-733874400) transition_time 0x33b-0x342.7 (8)
0x340|41 f7 20                                       |A.              |
0x340|         00 00 00 00 13 4d 36 09               |   .....M6.     |      [2]: "1980-04-06T00:00:09Z" (323827209) transition_time 0x343-0x34a.7 (8)
0x340|                                 00 00 00 00 14|           .....|      [3]: "1980-09-28T01:00:09Z" (338950809) transition_time 0x34b-0x352.7 (8)
0x350|33 fa 99                                       |3..             |
0x350|         00 00 00 00 15 23 eb 99               |   .....#..     |      [4]: "1981-03-29T01:00:09Z" (354675609) transition_time 0x353-0x35a.7 (8)
0x350|                                 00 00 00 00 16|           .....|      [5]: "1981-09-27T01:00:10Z" (370400410) transition_time 0x35b-0x362.7 (8)
0x360|13 dc 9a                                       |...             |
0x360|         00 00 00 00 17 03 cd 9a               |   ........     |      [6]: "1982-03-28T01:00:10Z" (386125210) transition_time 0x363-0x36a.7 (8)
0x360|                                 00 00 00 00 17|           .....|      [7]: "1982-09-26T01:00:11Z" (401850011) transition_time 0x36b-0x372.7 (8)
0x370|f3 be 9b                                       |...             |
0x370|         00 00 00 00 18 e3 af 9b               |   ........     |      [8]: "1983-03-27T01:00:11Z" (417574811) transition_time 0x373-0x37a.7 (8)
0x370|                                 00 00 00 00 19|           .....|      [9]: "1983-09-25T01:00:12Z" (433299612) transition_time 0x37b-0x382.7 (8)
0x380|d3 a0 9c                                       |...             |
0x380|         00 00 00 00 1a c3 91 9c               |   ........     |      [10]: "1984-03-25T01:00:12Z" (449024412) transition_time 0x383-0x38a.7 (8)
0x380|                                 00 00 00 00 1b|           .....|      [11]: "1984-09-30T01:00:12Z" (465354012) transition_time 0x38b-0x392.7 (8)
0x390|bc bd 1c                                       |...             |
0x390|         00 00 00 00 1c ac ae 1c               |   ........     |      [12]: "1985-03-31T01:00:12Z" (481078812) transition_time 0x393-0x39a.7 (8)
0x390|                                 00 00 00 00 1d|           .....|      [13]: "1985-09-29T01:00:13Z" (496803613) transition_time 0x39b-0x3a2.7 (8)
0x3a0|9c 9f 1d                                       |...             |
0x3a0|         00 00 00 00 1e 8c 90 1d               |   ........     |      [14]: "1986-03-30T01:00:13Z" (512528413) transition_time 0x3a3-0x3aa.7 (8)
0x3a0|                                 00 00 00 00 1f|           .....|      [15]: "1986-09-28T01:00:13Z" (528253213) transition_time 0x3ab-0x3b2.7 (8)
0x3b0|7c 81 1d                                       ||..             |
0x3b0|         00 00 00 00 20 6c 72 1d               |   .... lr.     |      [16]: "1987-03-29T01:00:13Z" (543978013) transition_time 0x3b3-0x3ba.7 (8)
0x3b0|                                 00 00 00 00 21|           ....!|      [17]: "1987-09-27T01:00:13Z" (559702813) transition_time 0x3bb-0x3c2.7 (8)
0x3c0|5c 63 1d                                       |\c.             |
0x3c0|         00 00 00 00 22 4c 54 1e               |   ...."LT.     |      [18]: "1988-03-27T01:00:14Z" (575427614) transition_time 0x3c3-0x3ca.7 (8)
0x3c0|                                 00 00 00 00 23|           ....#|      [19]: "1988-09-25T01:00:14Z" (591152414) transition_time 0x3cb-0x3d2.7 (8)
0x3d0|3c 45 1e                                       |<E.             |
0x3d0|         00 00 00 00 24 2c 36 1e               |   ....$,6.     |      [20]: "1989-03-26T01:00:14Z" (606877214) transition_time 0x3d3-0x3da.7 (8)
0x3d0|                                 00 00 00 00 25|           ....%|      [21]: "1989-09-24T01:00:14Z" (622602014) transition_time 0x3db-0x3e2.7 (8)
0x3e0|1c 27 1e                                       |.'.             |
0x3e0|         00 00 00 00 26 0c 18 1f               |   ....&...     |      [22]: "1990-03-25T01:00:15Z" (638326815) transition_time 0x3e3-0x3ea.7 (8)
0x3e0|                                 00 00 00 00 27|           ....'|      [23]: "1990-09-30T01:00:15Z" (654656415) transition_time 0x3eb-0x3f2.7 (8)
0x3f0|05 43 9f                                       |.C.             |
0x3f0|         00 00 00 00 27 f5 34 a0               |   ....'.4.     |      [24]: "1991-03-31T01:00:16Z" (670381216) transition_time 0x3f3-0x3fa.7 (8)
0x3f0|                                 00 00 00 00 28|           ....(|      [25]: "1991-09-29T01:00:16Z" (686106016) transition_time 0x3fb-0x402.7 (8)
0x400|e5 25 a0                                       |.%.             |
0x400|         00 00 00 00 29 d5 16 a0               |   ....)...     |      [26]: "1992-03-29T01:00:16Z" (701830816) transition_time 0x403-0x40a.7 (8)
0x400|                                 00 00 00 00 2a|           ....*|      [27]: "1992-09-27T01:00:17Z" (717555617) transition_time 0x40b-0x412.7 (8)
0x410|c5 07 a1                                       |...             |
0x410|         00 00 00 00 2b b4 f8 a1               |   ....+...     |      [28]: "1993-03-28T01:00:17Z" (733280417) transition_time 0x413-0x41a.7 (8)
0x410|                                 00 00 00 00 2c|           ....,|      [29]: "1993-09-26T01:00:18Z" (749005218) transition_time 0x41b-0x422.7 (8)
0x420|a4 e9 a2                                       |...             |
0x420|         00 00 00 00 2d 94 da a2               |   ....-...     |      [30]: "1994-03-27T01:00:18Z" (764730018) transition_time 0x423-0x42a.7 (8)
0x420|                                 00 00 00 00 2e|           .....|      [31]: "1994-09-25T01:00:19Z" (780454819) transition_time 0x42b-0x432.7 (8)
0x430|84 cb a3                                       |...             |
0x430|         00 00 00 00 2f 74 bc a3               |   ..../t..     |      [32]: "1995-03-26T01:00:19Z" (796179619) transition_time 0x433-0x43a.7 (8)
0x430|                                 00 00 00 00 30|           ....0|      [33]: "1995-09-24T01:00:19Z" (811904419) transition_time 0x43b-0x442.7 (8)
0x440|64 ad a3                                       |d..             |
0x440|         00 00 00 00 31 5d d9 24               |   ....1].$     |      [34]: "1996-03-31T01:00:20Z" (828234020) transition_time 0x443-0x44a.7 (8)
0x440|                                 00 00 00 00 32|           ....2|      [35]: "1996-10-27T01:00:20Z" (846378020) transition_time 0x44b-0x452.7 (8)
0x450|72 b4 24                                       |r.$             |
0x450|         00 00 00 00 33 3d bb 24               |   ....3=.$     |      [36]: "1997-03-30T01:00:20Z" (859683620) transition_time 0x453-0x45a.7 (8)
0x450|                                 00 00 00 00 34|           ....4|      [37]: "1997-10-26T01:00:21Z" (877827621) transition_time 0x45b-0x462.7 (8)
0x460|52 96 25                                       |R.%             |
0x460|         00 00 00 00 35 1d 9d 25               |   ....5..%     |      [38]: "1998-03-29T01:00:21Z" (891133221) transition_time 0x463-0x46a.7 (8)
0x460|                                 00 00 00 00 36|           ....6|      [39]: "1998-10-25T01:00:21Z" (909277221) transition_time 0x46b-0x472.7 (8)
0x470|32 78 25                                       |2x%             |
0x470|         00 00 00 00 36 fd 7f 26               |   ....6..&     |      [40]: "1999-03-28T01:00:22Z" (922582822) transition_time 0x473-0x47a.7 (8)
0x470|                                 00 00 00 00 38|           ....8|      [41]: "1999-10-31T01:00:22Z" (941331622) transition_time 0x47b-0x482.7 (8)
0x480|1b 94 a6                                       |...             |
0x480|         00 00 00 00 38 dd 61 26               |   ....8.a&     |      [42]: "2000-03-26T01:00:22Z" (954032422) transition_time 0x483-0x48a.7 (8)
0x480|                                 00 00 00 00 39|           ....9|      [43]: "2000-10-29T01:00:22Z" (972781222) transition_time 0x48b-0x492.7 (8)
0x490|fb 76 a6                                       |.v.             |
0x490|         00 00 00 00 3a bd 43 26               |   ....:.C&     |      [44]: "2001-03-25T01:00:22Z" (985482022) transition_time 0x493-0x49a.7 (8)
0x490|                                 00 00 00 00 3b|           ....;|      [45]: "2001-10-28T01:00:22Z" (1004230822) transition_time 0x49b-0x4a2.7 (8)
0x4a0|db 58 a6                                       |.X.             |
0x4a0|         00 00 00 00 3c a6 5f a6               |   ....<._.     |      [46]: "2002-03-31T01:00:22Z" (1017536422) transition_time 0x4a3-0x4aa.7 (8)
0x4a0|                                 00 00 00 00 3d|           ....=|      [47]: "2002-10-27T01:00:22Z" (1035680422) transition_time 0x4ab-0x4b2.7 (8)
0x4b0|bb 3a a6                                       |.:.             |
0x4b0|         00 00 00 00 3e 86 41 a6               |   ....>.A.     |      [48]: "2003-03-30T01:00:22Z" (1048986022) transition_time 0x4b3-0x4ba.7 (8)
0x4b0|                                 00 00 00 00 3f|           ....?|      [49]: "2003-10-26T01:00:22Z" (1067130022) transition_time 0x4bb-0x4c2.7 (8)
0x4c0|9b 1c a6                                       |...             |
0x4c0|         00 00 00 00 40 66 23 a6               |   ....@f#.     |      [50]: "2004-03-28T01:00:22Z" (1080435622) transition_time 0x4c3-0x4ca.7 (8)
0x4c0|                                 00 00 00 00 41|           ....A|      [51]: "2004-10-31T01:00:22Z" (1099184422) transition_time 0x4cb-0x4d2.7 (8)
0x4d0|84 39 26                                       |.9&             |
0x4d0|         00 00 00 00 42 46 05 a6               |   ....BF..     |      [52]: "2005-03-27T01:00:22Z" (1111885222) transition_time 0x4d3-0x4da.7 (8)
0x4d0|                                 00 00 00 00 43|           ....C|      [53]: "2005-10-30T01:00:22Z" (1130634022) transition_time 0x4db-0x4e2.7 (8)
0x4e0|64 1b 26                                       |d.&             |
0x4e0|         00 00 00 00 44 25 e7 a7               |   ....D%..     |      [54]: "2006-03-26T01:00:23Z" (1143334823) transition_time 0x4e3-0x4ea.7 (8)
0x4e0|                                 00 00 00 00 45|           ....E|      [55]: "2006-10-29T01:00:23Z" (1162083623) transition_time 0x4eb-0x4f2.7 (8)
0x4f0|43 fd 27                                       |C.'             |
0x4f0|         00 00 00 00 46 05 c9 a7               |   ....F...     |      [56]: "2007-03-25T01:00:23Z" (1174784423) transition_time 0x4f3-0x4fa.7 (8)
0x4f0|                                 00 00 00 00 47|           ....G|      [57]: "2007-10-28T01:00:23Z" (1193533223) transition_time 0x4fb-0x502.7 (8)
0x500|23 df 27                                       |#.'             |
0x500|         00 00 00 00 47 ee e6 27               |   ....G..'     |      [58]: "2008-03-30T01:00:23Z" (1206838823) transition_time 0x503-0x50a.7 (8)
0x500|                                 00 00 00 00 49|           ....I|      [59]: "2008-10-26T01:00:23Z" (1224982823) transition_time 0x50b-0x512.7 (8)
0x510|03 c1 27                                       |..'             |
0x510|         00 00 00 00 49 ce c8 28               |   ....I..(     |      [60]: "2009-03-29T01:00:24Z" (1238288424) transition_time 0x513-0x51a.7 (8)
0x510|                                 00 00 00 00 4a|           ....J|      [61]: "2009-10-25T01:00:24Z" (1256432424) transition_time 0x51b-0x522.7 (8)
0x520|e3 a3 28                                       |..(             |
0x520|         00 00 00 00 4b ae aa 28               |   ....K..(     |      [62]: "2010-03-28T01:00:24Z" (1269738024) transition_time 0x523-0x52a.7 (8)
0x520|                                 00 00 00 00 4c|           ....L|      [63]: "2010-10-31T01:00:24Z" (1288486824) transition_time 0x52b-0x532.7 (8)
0x530|cc bf a8                                       |...             |
0x530|         00 00 00 00 4d 8e 8c 28               |   ....M..(     |      [64]: "2011-03-27T01:00:24Z" (1301187624) transition_time 0x533-0x53a.7 (8)
0x530|                                 00 00 00 00 4e|           ....N|      [65]: "2011-10-30T01:00:24Z" (1319936424) transition_time 0x53b-0x542.7 (8)
0x540|ac a1 a8                                       |...             |
0x540|         00 00 00 00 4f 6e 6e 28               |   ....Onn(     |      [66]: "2012-03-25T01:00:24Z" (1332637224) transition_time 0x543-0x54a.7 (8)
0x540|                                 00 00 00 00 50|           ....P|      [67]: "2012-10-28T01:00:25Z" (1351386025) transition_time 0x54b-0x552.7 (8)
0x550|8c 83 a9                                       |...             |
0x550|         00 00 00 00 51 57 8a a9               |   ....QW..     |      [68]: "2013-03-31T01:00:25Z" (1364691625) transition_time 0x553-0x55a.7 (8)
0x550|                                 00 00 00 00 52|           ....R|      [69]: "2013-10-27T01:00:25Z" (1382835625) transition_time 0x55b-0x562.7 (8)
0x560|6c 65 a9                                       |le.             |
0x560|         00 00 00 00 53 37 6c a9               |   ....S7l.     |      [70]: "2014-03-30T01:00:25Z" (1396141225) transition_time 0x563-0x56a.7 (8)
0x560|                                 00 00 00 00 54|           ....T|      [71]: "2014-10-26T01:00:25Z" (1414285225) transition_time 0x56b-0x572.7 (8)
0x570|4c 47 a9                                       |LG.             |
0x570|         00 00 00 00 55 17 4e a9               |   ....U.N.     |      [72]: "2015-03-29T01:00:25Z" (1427590825) transition_time 0x573-0x57a.7 (8)
0x570|                                 00 00 00 00 56|           ....V|      [73]: "2015-10-25T01:00:26Z" (1445734826) transition_time 0x57b-0x582.7 (8)
0x580|2c 29 aa                                       |,).             |
0x580|         00 00 00 00 56 f7 30 aa               |   ....V.0.     |      [74]: "2016-03-27T01:00:26Z" (1459040426) transition_time 0x583-0x58a.7 (8)
0x580|                                 00 00 00 00 58|           ....X|      [75]: "2016-10-30T01:00:26Z" (1477789226) transition_time 0x58b-0x592.7 (8)
0x590|15 46 2a                                       |.F*             |
0x590|         00 00 00 00 58 d7 12 ab               |   ....X...     |      [76]: "2017-03-26T01:00:27Z" (1490490027) transition_time 0x593-0x59a.7 (8)
0x590|                                 00 00 00 00 59|           ....Y|      [77]: "2017-10-29T01:00:27Z" (1509238827) transition_time 0x59b-0x5a2.7 (8)
0x5a0|f5 28 2b                                       |.(+             |
0x5a0|         00 00 00 00 5a b6 f4 ab               |   ....Z...     |      [78]: "2018-03-25T01:00:27Z" (1521939627) transition_time 0x5a3-0x5aa.7 (8)
0x5a0|                                 00 00 00 00 5b|           ....[|      [79]: "2018-10-28T01:00:27Z" (1540688427) transition_time 0x5ab-0x5b2.7 (8)
0x5b0|d5 0a 2b                                       |..+             |
0x5b0|         00 00 00 00 5c a0 11 2b               |   ....\..+     |      [80]: "2019-03-31T01:00:27Z" (1553994027) transition_time 0x5b3-0x5ba.7 (8)
0x5b0|                                 00 00 00 00 5d|           ....]|      [81]: "2019-10-27T01:00:27Z" (1572138027) transition_time 0x5bb-0x5c2.7 (8)
0x5c0|b4 ec 2b                                       |..+             |
0x5c0|         00 00 00 00 5e 7f f3 2b               |   ....^..+     |      [82]: "2020-03-29T01:00:27Z" (1585443627) transition_time 0x5c3-0x5ca.7 (8)
0x5c0|                                 00 00 00 00 5f|           ...._|      [83]: "2020-10-25T01:00:27Z" (1603587627) transition_time 0x5cb-0x5d2.7 (8)
0x5d0|94 ce 2b                                       |..+             |
0x5d0|         00 00 00 00 60 5f d5 2b               |   ....`_.+     |      [84]: "2021-03-28T01:00:27Z" (1616893227) transition_time 0x5d3-0x5da.7 (8)
0x5d0|                                 00 00 00 00 61|           ....a|      [85]: "2021-10-31T01:00:27Z" (1635642027) transition_time 0x5db-0x5e2.7 (8)
0x5e0|7d ea ab                                       |}..             |
0x5e0|         00 00 00 00 62 3f b7 2b               |   ....b?.+     |      [86]: "2022-03-27T01:00:27Z" (1648342827) transition_time 0x5e3-0x5ea.7 (8)
0x5e0|                                 00 00 00 00 63|           ....c|      [87]: "2022-10-30T01:00:27Z" (1667091627) transition_time 0x5eb-0x5f2.7 (8)
0x5f0|5d cc ab                                       |]..             |
0x5f0|         00 00 00 00 64 1f 99 2b               |   ....d..+     |      [88]: "2023-03-26T01:00:27Z" (1679792427) transition_time 0x5f3-0x5fa.7 (8)
0x5f0|                                 00 00 00 00 64|           ....d|      [89]: "2023-06-28T00:00:27Z" (1687910427) transition_time 0x5fb-0x602.7 (8)
0x600|9b 78 1b                                       |.x.             |
     |                                               |                |    transition_types[0:90]: 0x603-0x65c.7 (90)
0x600|         01                                    |   .            |      [0]: 1 transition_type 0x603-0x603.7 (1)
0x600|            02                                 |    .           |      [1]: 2 transition_type 0x604-0x604.7 (1)
0x600|               03                              |     .          |      [2]: 3 transition_type 0x605-0x605.7 (1)
0x600|                  04                           |      .         |      [3]: 4 transition_type 0x606-0x606.7 (1)
0x600|                     05                        |       .        |      [4]: 5 transition_type 0x607-0x607.7 (1)
0x600|                        04                     |        .       |      [5]: 4 transition_type 0x608-0x608.7 (1)
0x600|                           05                  |         .      |      [6]: 5 transition_type 0x609-0x609.7 (1)
0x600|                              04               |          .     |      [7]: 4 transition_type 0x60a-0x60a.7 (1)
0x600|                                 05            |           .    |      [8]: 5 transition_type 0x60b-0x60b.7 (1)
0x600|                                    04         |            .   |      [9]: 4 transition_type 0x60c-0x60c.7 (1)
0x600|                                       05      |             .  |      [10]: 5 transition_type 0x60d-0x60d.7 (1)
0x600|                                          04   |              . |      [11]: 4 transition_type 0x60e-0x60e.7 (1)
0x600|                                             05|               .|      [12]: 5 transition_type 0x60f-0x60f.7 (1)
0x610|04                                             |.               |      [13]: 4 transition_type 0x610-0x610.7 (1)
0x610|   05                                          | .              |      [14]: 5 transition_type 0x611-0x611.7 (1)
0x610|      04                                       |  .             |      [15]: 4 transition_type 0x612-0x612.7 (1)
0x610|         05                                    |   .            |      [16]: 5 transition_type 0x613-0x613.7 (1)
0x610|            04                                 |    .           |      [17]: 4 transition_type 0x614-0x614.7 (1)
0x610|               05                              |     .          |      [18]: 5 transition_type 0x615-0x615.7 (1)
0x610|                  04                           |      .         |      [19]: 4 transition_type 0x616-0x616.7 (1)
0x610|                     05                        |       .        |      [20]: 5 transition_type 0x617-0x617.7 (1)
0x610|                        04                     |        .       |      [21]: 4 transition_type 0x618-0x618.7 (1)
0x610|                           05                  |         .      |      [22]: 5 transition_type 0x619-0x619.7 (1)
0x610|                              04               |          .     |      [23]: 4 transition_type 0x61a-0x61a.7 (1)
0x610|                                 05            |           .    |      [24]: 5 transition_type 0x61b-0x61b.7 (1)
0x610|                                    04         |            .   |      [25]: 4 transition_type 0x61c-0x61c.7 (1)
0x610|                                       05      |             .  |      [26]: 5 transition_type 0x61d-0x61d.7 (1)
0x610|                                          04   |              . |      [27]: 4 transition_type 0x61e-0x61e.7 (1)
0x610|                                             05|               .|      [28]: 5 transition_type 0x61f-0x61f.7 (1)
0x620|04                                             |.               |      [29]: 4 transition_type 0x620-0x620.7 (1)
0x620|   05                                          | .              |      [30]: 5 transition_type 0x621-0x621.7 (1)
0x620|      04                                       |  .             |      [31]: 4 transition_type 0x622-0x622.7 (1)
0x620|         05                                    |   .            |      [32]: 5 transition_type 0x623-0x623.7 (1)
0x620|            04                                 |    .           |      [33]: 4 transition_type 0x624-0x624.7 (1)
0x620|               05                              |     .          |      [34]: 5 transition_type 0x625-0x625.7 (1)
0x620|                  04                           |      .         |      [35]: 4 transition_type 0x626-0x626.7 (1)
0x620|                     05                        |       .        |      [36]: 5 transition_type 0x627-0x627.7 (1)
0x620|                        04                     |        .       |      [37]: 4 transition_type 0x628-0x628.7 (1)
0x620|                           05                  |         .      |      [38]: 5 transition_type 0x629-0x629.7 (1)
0x620|                              04               |          .     |      [39]: 4 transition_type 0x62a-0x62a.7 (1)
0x620|                                 05            |           .    |      [40]: 5 transition_type 0x62b-0x62b.7 (1)
0x620|                                    04         |            .   |      [41]: 4 transition_type 0x62c-0x62c.7 (1)
0x620|                                       05      |             .  |      [42]: 5 transition_type 0x62d-0x62d.7 (1)
0x620|                                          04   |              . |      [43]: 4 transition_type 0x62e-0x62e.7 (1)
0x620|                                             05|               .|      [44]: 5 transition_type 0x62f-0x62f.7 (1)
0x630|04                                             |.               |      [45]: 4 transition_type 0x630-0x630.7 (1)
0x630|   05                                          | .              |      [46]: 5 transition_type 0x631-0x631.7 (1)
0x630|      04                                       |  .             |      [47]: 4 transition_type 0x632-0x632.7 (1)
0x630|         05                                    |   .            |      [48]: 5 transition_type 0x633-0x633.7 (1)
0x630|            04                                 |    .           |      [49]: 4 transition_type 0x634-0x634.7 (1)
0x630|               05                              |     .          |      [50]: 5 transition_type 0x635-0x635.7 (1)
0x630|                  04                           |      .         |      [51]: 4 transition_type 0x636-0x636.7 (1)
0x630|                     05                        |       .        |      [52]: 5 transition_type 0x637-0x637.7 (1)
0x630|                        04                     |        .       |      [53]: 4 transition_type 0x638-0x638.7 (1)
0x630|                           05                  |         .      |      [54]: 5 transition_type 0x639-0x639.7 (1)
0x630|                              04               |          .     |      [55]: 4 transition_type 0x63a-0x63a.7 (1)
0x630|                                 05            |           .    |      [56]: 5 transition_type 0x63b-0x63b.7 (1)
0x630|                                    04         |            .   |      [57]: 4 transition_type 0x63c-0x63c.7 (1)
0x630|                                       05      |             .  |      [58]: 5 transition_type 0x63d-0x63d.7 (1)
0x630|                                          04   |              . |      [59]: 4 transition_type 0x63e-0x63e.7 (1)
0x630|                                             05|               .|      [60]: 5 transition_type 0x63f-0x63f.7 (1)
0x640|04                                             |.               |      [61]: 4 transition_type 0x640-0x640.7 (1)
0x640|   05                                          | .              |      [62]: 5 transition_type 0x641-0x641.7 (1)
0x640|      04                                       |  .             |      [63]: 4 transition_type 0x642-0x642.7 (1)
0x640|         05                                    |   .            |      [64]: 5 transition_type 0x643-0x643.7 (1)
0x640|            04                                 |    .           |      [65]: 4 transition_type 0x644-0x644.7 (1)
0x640|               05                              |     .          |      [66]: 5 transition_type 0x645-0x645.7 (1)
0x640|                  04                           |      .         |      [67]: 4 transition_type 0x646-0x646.7 (1)
0x640|                     05                        |       .        |      [68]: 5 transition_type 0x647-0x647.7 (1)
0x640|                        04                     |        .       |      [69]: 4 transition_type 0x648-0x648.7 (1)
0x640|                           05                  |         .      |      [70]: 5 transition_type 0x649-0x649.7 (1)
0x640|                              04               |          .     |      [71]: 4 transition_type 0x64a-0x64a.7 (1)
0x640|                                 05            |           .    |      [72]: 5 transition_type 0x64b-0x64b.7 (1)
0x640|                                    04         |            .   |      [73]: 4 transition_type 0x64c-0x64c.7 (1)
0x640|                                       05      |             .  |      [74]: 5 transition_type 0x64d-0x64d.7 (1)
0x640|                                          04   |              . |      [75]: 4 transition_type 0x64e-0x64e.7 (1)
0x640|                                             05|               .|      [76]: 5 transition_type 0x64f-0x64f.7 (1)
0x650|04                                             |.               |      [77]: 4 transition_type 0x650-0x650.7 (1)
0x650|   05                                          | .              |      [78]: 5 transition_type 0x651-0x651.7 (1)
0x650|      04                                       |  .             |      [79]: 4 transition_type 0x652-0x652.7 (1)
0x650|         05                                    |   .            |      [80]: 5 transition_type 0x653-0x653.7 (1)
0x650|            04                                 |    .           |      [81]: 4 transition_type 0x654-0x654.7 (1)
0x650|               05                              |     .          |      [82]: 5 transition_type 0x655-0x655.7 (1)
0x650|                  04                           |      .         |      [83]: 4 transition_type 0x656-0x656.7 (1)
0x650|                     05                        |       .        |      [84]: 5 transition_type 0x657-0x657.7 (1)
0x650|                        04                     |        .       |      [85]: 4 transition_type 0x658-0x658.7 (1)
0x650|                           05                  |         .      |      [86]: 5 transition_type 0x659-0x659.7 (1)
0x650|                              04               |          .     |      [87]: 4 transition_type 0x65a-0x65a.7 (1)
0x650|                                 05            |           .    |      [88]: 5 transition_type 0x65b-0x65b.7 (1)
0x650|                                    05         |            .   |      [89]: 5 transition_type 0x65c-0x65c.7 (1)
     |                                               |                |    local_time_type_records[0:6]: 0x65d-0x680.7 (36)
     |                                               |                |      [0]{}: local_time_type 0x65d-0x662.7 (6)
0x650|                                       ff ff f1|             ...|        utoff: -3696 (valid) 0x65d-0x660.7 (4)
0x660|90                                             |.               |
0x660|   00                                          | .              |        dst: 0 (valid) 0x661-0x661.7 (1)
0x660|      00                                       |  .             |        idx: 0 (valid) 0x662-0x662.7 (1)
     |                                               |                |      [1]{}: local_time_type 0x663-0x668.7 (6)
0x660|         ff ff f1 f0                           |   ....         |        utoff: -3600 (valid) 0x663-0x666.7 (4)
0x660|                     00                        |       .        |        dst: 0 (valid) 0x667-0x667.7 (1)
0x660|                        04                     |        .       |        idx: 4 (valid) 0x668-0x668.7 (1)
     |                                               |                |      [2]{}: local_time_type 0x669-0x66e.7 (6)
0x660|                           00 00 00 00         |         ....   |        utoff: 0 (valid) 0x669-0x66c.7 (4)
0x660|                                       00      |             .  |        dst: 0 (valid) 0x66d-0x66d.7 (1)
0x660|                                          08   |              . |        idx: 8 (valid) 0x66e-0x66e.7 (1)
     |                                               |                |      [3]{}: local_time_type 0x66f-0x674.7 (6)
0x660|                                             00|               .|        utoff: 3600 (valid) 0x66f-0x672.7 (4)
0x670|00 0e 10                                       |...             |
0x670|         01                                    |   .            |        dst: 1 (valid) 0x673-0x673.7 (1)
0x670|            0c                                 |    .           |        idx: 12 (valid) 0x674-0x674.7 (1)
     |                                               |                |      [4]{}: local_time_type 0x675-0x67a.7 (6)
0x670|               00 00 00 00                     |     ....       |        utoff: 0 (valid) 0x675-0x678.7 (4)
0x670|                           00                  |         .      |        dst: 0 (valid) 0x679-0x679.7 (1)
0x670|                              08               |          .     |        idx: 8 (valid) 0x67a-0x67a.7 (1)
     |                                               |                |      [5]{}: local_time_type 0x67b-0x680.7 (6)
0x670|                                 00 00 0e 10   |           .... |        utoff: 3600 (valid) 0x67b-0x67e.7 (4)
0x670|                                             01|               .|        dst: 1 (valid) 0x67f-0x67f.7 (1)
0x680|0c                                             |.               |        idx: 12 (valid) 0x680-0x680.7 (1)
     |                                               |                |    time_zone_designations[0:4]: 0x681-0x691.7 (17)
0x680|   4c 4d 54 00                                 | LMT.           |      [0]: "LMT" time_zone_designation 0x681-0x684.7 (4)
0x680|               2d 30 31 00                     |     -01.       |      [1]: "-01" time_zone_designation 0x685-0x688.7 (4)
0x680|                           57 45 54 00         |         WET.   |      [2]: "WET" time_zone_designation 0x689-0x68c.7 (4)
0x680|                                       57 45 53|             WES|      [3]: "WEST" time_zone_designation 0x68d-0x691.7 (5)
0x690|54 00                                          |T.              |
     |                                               |                |    leap_second_records[0:27]: 0x692-0x7d5.7 (324)
     |                                               |                |      [0]{}: leap_second_record 0x692-0x69d.7 (12)
0x690|      00 00 00 00 04 b2 58 00                  |  ......X.      |        occur: "1972-07-01T00:00:00Z" (78796800) 0x692-0x699.7 (8)
0x690|                              00 00 00 01      |          ....  |        corr: 1 0x69a-0x69d.7 (4)
     |                                               |                |      [1]{}: leap_second_record 0x69e-0x6a9.7 (12)
0x690|                                          00 00|              ..|        occur: "1973-01-01T00:00:01Z" (94694401) 0x69e-0x6a5.7 (8)
0x6a0|00 00 05 a4 ec 01                              |......          |
0x6a0|                  00 00 00 02                  |      ....      |        corr: 2 0x6a6-0x6a9.7 (4)
     |                                               |                |      [2]{}: leap_second_record 0x6aa-0x6b5.7 (12)
0x6a0|                              00 00 00 00 07 86|          ......|        occur: "1974-01-01T00:00:02Z" (126230402) 0x6aa-0x6b1.7 (8)
0x6b0|1f 82                                          |..              |
0x6b0|      00 00 00 03                              |  ....          |        corr: 3 0x6b2-0x6b5.7 (4)
     |                                               |                |      [3]{}: leap_second_record 0x6b6-0x6c1.7 (12)
0x6b0|                  00 00 00 00 09 67 53 03      |      .....gS.  |        occur: "1975-01-01T00:00:03Z" (157766403) 0x6b6-0x6bd.7 (8)
0x6b0|                                          00 00|              ..|        corr: 4 0x6be-0x6c1.7 (4)
0x6c0|00 04                                          |..              |
     |                                               |                |      [4]{}: leap_second_record 0x6c2-0x6cd.7 (12)
0x6c0|      00 00 00 00 0b 48 86 84                  |  .....H..      |        occur: "1976-01-01T00:00:04Z" (189302404) 0x6c2-0x6c9.7 (8)
0x6c0|                              00 00 00 05      |          ....  |        corr: 5 0x6ca-0x6cd.7 (4)
     |                                               |                |      [5]{}: leap_second_record 0x6ce-0x6d9.7 (12)
0x6c0|                                          00 00|              ..|        occur: "1977-01-01T00:00:05Z" (220924805) 0x6ce-0x6d5.7 (8)
0x6d0|00 00 0d 2b 0b 85                              |...+..          |
0x6d0|                  00 00 00 06                  |      ....      |        corr: 6 0x6d6-0x6d9.7 (4)
     |                                               |                |      [6]{}: leap_second_record 0x6da-0x6e5.7 (12)
0x6d0|                              00 00 00 00 0f 0c|          ......|        occur: "1978-01-01T00:00:06Z" (252460806) 0x6da-0x6e1.7 (8)
0x6e0|3f 06                                          |?.              |
0x6e0|      00 00 00 07                              |  ....          |        corr: 7 0x6e2-0x6e5.7 (4)
     |                                               |                |      [7]{}: leap_second_record 0x6e6-0x6f1.7 (12)
0x6e0|                  00 00 00 00 10 ed 72 87      |      ......r.  |        occur: "1979-01-01T00:00:07Z" (283996807) 0x6e6-0x6ed.7 (8)
0x6e0|                                          00 00|              ..|        corr: 8 0x6ee-0x6f1.7 (4)
0x6f0|00 08                                          |..              |
     |                                               |                |      [8]{}: leap_second_record 0x6f2-0x6fd.7 (12)
0x6f0|      00 00 00 00 12 ce a6 08                  |  ........      |        occur: "1980-01-01T00:00:08Z" (315532808) 0x6f2-0x6f9.7 (8)
0x6f0|                              00 00 00 09      |          ....  |        corr: 9 0x6fa-0x6fd.7 (4)
     |                                               |                |      [9]{}: leap_second_record 0x6fe-0x709.7 (12)
0x6f0|                                          00 00|              ..|        occur: "1981-07-01T00:00:09Z" (362793609) 0x6fe-0x705.7 (8)
0x700|00 00 15 9f ca 89                              |......          |
0x700|                  00 00 00 0a                  |      ....      |        corr: 10 0x706-0x709.7 (4)
     |                                               |                |      [10]{}: leap_second_record 0x70a-0x715.7 (12)
0x700|                              00 00 00 00 17 80|          ......|        occur: "1982-07-01T00:00:10Z" (394329610) 0x70a-0x711.7 (8)
0x710|fe 0a                                          |..              |
0x710|      00 00 00 0b                              |  ....          |        corr: 11 0x712-0x715.7 (4)
     |                                               |                |      [11]{}: leap_second_record 0x716-0x721.7 (12)
0x710|                  00 00 00 00 19 62 31 8b      |      .....b1.  |        occur: "1983-07-01T00:00:11Z" (425865611) 0x716-0x71d.7 (8)
0x710|                                          00 00|              ..|        corr: 12 0x71e-0x721.7 (4)
0x720|00 0c                                          |..              |
     |                                               |                |      [12]{}: leap_second_record 0x722-0x72d.7 (12)
0x720|      00 00 00 00 1d 25 ea 0c                  |  .....%..      |        occur: "1985-07-01T00:00:12Z" (489024012) 0x722-0x729.7 (8)
0x720|                              00 00 00 0d      |          ....  |        corr: 13 0x72a-0x72d.7 (4)
     |                                               |                |      [13]{}: leap_second_record 0x72e-0x739.7 (12)
0x720|                                          00 00|              ..|        occur: "1988-01-01T00:00:13Z" (567993613) 0x72e-0x735.7 (8)
0x730|00 00 21 da e5 0d                              |..!...          |
0x730|                  00 00 00 0e                  |      ....      |        corr: 14 0x736-0x739.7 (4)
     |                                               |                |      [14]{}: leap_second_record 0x73a-0x745.7 (12)
0x730|                              00 00 00 00 25 9e|          ....%.|        occur: "1990-01-01T00:00:14Z" (631152014) 0x73a-0x741.7 (8)
0x740|9d 8e                                          |..              |
0x740|      00 00 00 0f                              |  ....          |        corr: 15 0x742-0x745.7 (4)
     |                                               |                |      [15]{}: leap_second_record 0x746-0x751.7 (12)
0x740|                  00 00 00 00 27 7f d1 0f      |      ....'...  |        occur: "1991-01-01T00:00:15Z" (662688015) 0x746-0x74d.7 (8)
0x740|                                          00 00|              ..|        corr: 16 0x74e-0x751.7 (4)
0x750|00 10                                          |..              |
     |                                               |                |      [16]{}: leap_second_record 0x752-0x75d.7 (12)
0x750|      00 00 00 00 2a 50 f5 90                  |  ....*P..      |        occur: "1992-07-01T00:00:16Z" (709948816) 0x752-0x759.7 (8)
0x750|                              00 00 00 11      |          ....  |        corr: 17 0x75a-0x75d.7 (4)
     |                                               |                |      [17]{}: leap_second_record 0x75e-0x769.7 (12)
0x750|                                          00 00|              ..|        occur: "1993-07-01T00:00:17Z" (741484817) 0x75e-0x765.7 (8)
0x760|00 00 2c 32 29 11                              |..,2).          |
0x760|                  00 00 00 12                  |      ....      |        corr: 18 0x766-0x769.7 (4)
     |                                               |                |      [18]{}: leap_second_record 0x76a-0x775.7 (12)
0x760|                              00 00 00 00 2e 13|          ......|        occur: "1994-07-01T00:00:18Z" (773020818) 0x76a-0x771.7 (8)
0x770|5c 92                                          |\.              |
0x770|      00 00 00 13                              |  ....          |        corr: 19 0x772-0x775.7 (4)
     |                                               |                |      [19]{}: leap_second_record 0x776-0x781.7 (12)
0x770|                  00 00 00 00 30 e7 24 13      |      ....0.$.  |        occur: "1996-01-01T00:00:19Z" (820454419) 0x776-0x77d.7 (8)
0x770|                                          00 00|              ..|        corr: 20 0x77e-0x781.7 (4)
0x780|00 14                                          |..              |
     |                                               |                |      [20]{}: leap_second_record 0x782-0x78d.7 (12)
0x780|      00 00 00 00 33 b8 48 94                  |  ....3.H.      |        occur: "1997-07-01T00:00:20Z" (867715220) 0x782-0x789.7 (8)
0x780|                              00 00 00 15      |          ....  |        corr: 21 0x78a-0x78d.7 (4)
     |                                               |                |      [21]{}: leap_second_record 0x78e-0x799.7 (12)
0x780|                                          00 00|              ..|        occur: "1999-01-01T00:00:21Z" (915148821) 0x78e-0x795.7 (8)
0x790|00 00 36 8c 10 15                              |..6...          |
0x790|                  00 00 00 16                  |      ....      |        corr: 22 0x796-0x799.7 (4)
     |                                               |                |      [22]{}: leap_second_record 0x79a-0x7a5.7 (12)
0x790|                              00 00 00 00 43 b7|          ....C.|        occur: "2006-01-01T00:00:22Z" (1136073622) 0x79a-0x7a1.7 (8)
0x7a0|1b 96                                          |..              |
0x7a0|      00 00 00 17                              |  ....          |        corr: 23 0x7a2-0x7a5.7 (4)
     |                                               |                |      [23]{}: leap_second_record 0x7a6-0x7b1.7 (12)
0x7a0|                  00 00 00 00 49 5c 07 97      |      ....I\..  |        occur: "2009-01-01T00:00:23Z" (1230768023) 0x7a6-0x7ad.7 (8)
0x7a0|                                          00 00|              ..|        corr: 24 0x7ae-0x7b1.7 (4)
0x7b0|00 18                                          |..              |
     |                                               |                |      [24]{}: leap_second_record 0x7b2-0x7bd.7 (12)
0x7b0|      00 00 00 00 4f ef 93 18                  |  ....O...      |        occur: "2012-07-01T00:00:24Z" (1341100824) 0x7b2-0x7b9.7 (8)
0x7b0|                              00 00 00 19      |          ....  |        corr: 25 0x7ba-0x7bd.7 (4)
     |                                               |                |      [25]{}: leap_second_record 0x7be-0x7c9.7 (12)
0x7b0|                                          00 00|              ..|        occur: "2015-07-01T00:00:25Z" (1435708825) 0x7be-0x7c5.7 (8)
0x7c0|00 00 55 93 2d 99                              |..U.-.          |
0x7c0|                  00 00 00 1a                  |      ....      |        corr: 26 0x7c6-0x7c9.7 (4)
     |                                               |                |      [26]{}: leap_second_record 0x7ca-0x7d5.7 (12)
0x7c0|                              00 00 00 00 58 68|          ....Xh|        occur: "2017-01-01T00:00:26Z" (1483228826) 0x7ca-0x7d1.7 (8)
0x7d0|46 9a                                          |F.              |
0x7d0|      00 00 00 1b                              |  ....          |        corr: 27 0x7d2-0x7d5.7 (4)
     |                                               |                |    standard_wall_indicators[0:6]: 0x7d6-0x7db.7 (6)
0x7d0|                  00                           |      .         |      [0]: 0 standard_wall_indicator (valid) 0x7d6-0x7d6.7 (1)
0x7d0|                     00                        |       .        |      [1]: 0 standard_wall_indicator (valid) 0x7d7-0x7d7.7 (1)
0x7d0|                        00                     |        .       |      [2]: 0 standard_wall_indicator (valid) 0x7d8-0x7d8.7 (1)
0x7d0|                           01                  |         .      |      [3]: 1 standard_wall_indicator (valid) 0x7d9-0x7d9.7 (1)
0x7d0|                              01               |          .     |      [4]: 1 standard_wall_indicator (valid) 0x7da-0x7da.7 (1)
0x7d0|                                 01            |           .    |      [5]: 1 standard_wall_indicator (valid) 0x7db-0x7db.7 (1)
     |                                               |                |    ut_local_indicators[0:6]: 0x7dc-0x7e1.7 (6)
0x7d0|                                    00         |            .   |      [0]: 0 ut_local_indicator (valid) 0x7dc-0x7dc.7 (1)
0x7d0|                                       00      |             .  |      [1]: 0 ut_local_indicator (valid) 0x7dd-0x7dd.7 (1)
0x7d0|                                          00   |              . |      [2]: 0 ut_local_indicator (valid) 0x7de-0x7de.7 (1)
0x7d0|                                             00|               .|      [3]: 0 ut_local_indicator (valid) 0x7df-0x7df.7 (1)
0x7e0|01                                             |.               |      [4]: 1 ut_local_indicator (valid) 0x7e0-0x7e0.7 (1)
0x7e0|   01                                          | .              |      [5]: 1 ut_local_indicator (valid) 0x7e1-0x7e1.7 (1)
     |                                               |                |  footer{}: 0x7e2-0x7e3.7 (2)
0x7e0|      0a                                       |  .             |    nl1: 10 (valid) 0x7e2-0x7e2.7 (1)
     |                                               |                |    tz_string: "" 0x7e3-NA (0)
0x7e0|         0a|                                   |   .|           |    nl2: 10 (valid) 0x7e3-0x7e3.7 (1)
