$ fq -d tzif dv Cape_Verde
     |00 01 02 03 04 05 06 07 08 09 0a 0b 0c 0d 0e 0f|0123456789abcdef|.{}: Cape_Verde (tzif) 0x0-0x324 (804)
     |                                               |                |  v1header{}: 0x0-0x2c (44)
0x000|54 5a 69 66                                    |TZif            |    magic: 0x545a6966 (valid) 0x0-0x4 (4)
0x000|            32                                 |    2           |    ver: "2" (0x32) (valid) 0x4-0x5 (1)
0x000|               00 00 00 00 00 00 00 00 00 00 00|     ...........|    reserved: raw bits 0x5-0x14 (15)
0x010|00 00 00 00                                    |....            |
0x010|            00 00 00 05                        |    ....        |    isutcnt: 5 0x14-0x18 (4)
0x010|                        00 00 00 05            |        ....    |    isstdcnt: 5 0x18-0x1c (4)
0x010|                                    00 00 00 1b|            ....|    leapcnt: 27 0x1c-0x20 (4)
0x020|00 00 00 05                                    |....            |    timecnt: 5 0x20-0x24 (4)
0x020|            00 00 00 05                        |    ....        |    typecnt: 5 0x24-0x28 (4)
0x020|                        00 00 00 0c            |        ....    |    charcnt: 12 0x28-0x2c (4)
     |                                               |                |  v1datablock{}: 0x2c-0x151 (293)
     |                                               |                |    transition_times[0:5]: 0x2c-0x40 (20)
0x020|                                    92 e6 aa a0|            ....|      [0]: "1912-01-01T02:00:00Z" (-1830376800) transition_time 0x2c-0x30 (4)
0x030|cc 95 9c 20                                    |...             |      [1]: "1942-09-01T02:00:00Z" (-862610400) transition_time 0x30-0x34 (4)
0x030|            d2 74 7c 10                        |    .t|.        |      [2]: "1945-10-15T01:00:00Z" (-764118000) transition_time 0x34-0x38 (4)
0x030|                        0b 17 f7 44            |        ...D    |      [3]: "1975-11-25T04:00:04Z" (186120004) transition_time 0x38-0x3c (4)
0x030|                                    64 9b 78 1b|            d.x.|      [4]: "2023-06-28T00:00:27Z" (1687910427) transition_time 0x3c-0x40 (4)
     |                                               |                |    transition_types[0:5]: 0x40-0x45 (5)
0x040|01                                             |.               |      [0]: 1 transition_type 0x40-0x41 (1)
0x040|   02                                          | .              |      [1]: 2 transition_type 0x41-0x42 (1)
0x040|      03                                       |  .             |      [2]: 3 transition_type 0x42-0x43 (1)
0x040|         04                                    |   .            |      [3]: 4 transition_type 0x43-0x44 (1)
0x040|            04                                 |    .           |      [4]: 4 transition_type 0x44-0x45 (1)
     |                                               |                |    local_time_type_records[0:5]: 0x45-0x63 (30)
     |                                               |                |      [0]{}: local_time_type 0x45-0x4b (6)
0x040|               ff ff e9 f4                     |     ....       |        utoff: -5644 (valid) 0x45-0x49 (4)
0x040|                           00                  |         .      |        dst: 0 (valid) 0x49-0x4a (1)
0x040|                              00               |          .     |        idx: 0 (valid) 0x4a-0x4b (1)
     |                                               |                |      [1]{}: local_time_type 0x4b-0x51 (6)
0x040|                                 ff ff e3 e0   |           .... |        utoff: -7200 (valid) 0x4b-0x4f (4)
0x040|                                             00|               .|        dst: 0 (valid) 0x4f-0x50 (1)
0x050|04                                             |.               |        idx: 4 (valid) 0x50-0x51 (1)
     |                                               |                |      [2]{}: local_time_type 0x51-0x57 (6)
0x050|   ff ff f1 f0                                 | ....           |        utoff: -3600 (valid) 0x51-0x55 (4)
0x050|               01                              |     .          |        dst: 1 (valid) 0x55-0x56 (1)
0x050|                  08                           |      .         |        idx: 8 (valid) 0x56-0x57 (1)
     |                                               |                |      [3]{}: local_time_type 0x57-0x5d (6)
0x050|                     ff ff e3 e0               |       ....     |        utoff: -7200 (valid) 0x57-0x5b (4)
0x050|                                 00            |           .    |        dst: 0 (valid) 0x5b-0x5c (1)
0x050|                                    04         |            .   |        idx: 4 (valid) 0x5c-0x5d (1)
     |                                               |                |      [4]{}: local_time_type 0x5d-0x63 (6)
0x050|                                       ff ff f1|             ...|        utoff: -3600 (valid) 0x5d-0x61 (4)
0x060|f0                                             |.               |
0x060|   00                                          | .              |        dst: 0 (valid) 0x61-0x62 (1)
0x060|      08                                       |  .             |        idx: 8 (valid) 0x62-0x63 (1)
     |                                               |                |    time_zone_designations[0:3]: 0x63-0x6f (12)
0x060|         4c 4d 54 00                           |   LMT.         |      [0]: "LMT" time_zone_designation 0x63-0x67 (4)
0x060|                     2d 30 32 00               |       -02.     |      [1]: "-02" time_zone_designation 0x67-0x6b (4)
0x060|                                 2d 30 31 00   |           -01. |      [2]: "-01" time_zone_designation 0x6b-0x6f (4)
     |                                               |                |    leap_second_records[0:27]: 0x6f-0x147 (216)
     |                                               |                |      [0]{}: leap_second_record 0x6f-0x77 (8)
0x060|                                             04|               .|        occur: "1972-07-01T00:00:00Z" (78796800) 0x6f-0x73 (4)
0x070|b2 58 00                                       |.X.             |
0x070|         00 00 00 01                           |   ....         |        corr: 1 0x73-0x77 (4)
     |                                               |                |      [1]{}: leap_second_record 0x77-0x7f (8)
0x070|                     05 a4 ec 01               |       ....     |        occur: "1973-01-01T00:00:01Z" (94694401) 0x77-0x7b (4)
0x070|                                 00 00 00 02   |           .... |        corr: 2 0x7b-0x7f (4)
     |                                               |                |      [2]{}: leap_second_record 0x7f-0x87 (8)
0x070|                                             07|               .|        occur: "1974-01-01T00:00:02Z" (126230402) 0x7f-0x83 (4)
0x080|86 1f 82                                       |...             |
0x080|         00 00 00 03                           |   ....         |        corr: 3 0x83-0x87 (4)
     |                                               |                |      [3]{}: leap_second_record 0x87-0x8f (8)
0x080|                     09 67 53 03               |       .gS.     |        occur: "1975-01-01T00:00:03Z" (157766403) 0x87-0x8b (4)
0x080|                                 00 00 00 04   |           .... |        corr: 4 0x8b-0x8f (4)
     |                                               |                |      [4]{}: leap_second_record 0x8f-0x97 (8)
0x080|                                             0b|               .|        occur: "1976-01-01T00:00:04Z" (189302404) 0x8f-0x93 (4)
0x090|48 86 84                                       |H..             |
0x090|         00 00 00 05                           |   ....         |        corr: 5 0x93-0x97 (4)
     |                                               |                |      [5]{}: leap_second_record 0x97-0x9f (8)
0x090|                     0d 2b 0b 85               |       .+..     |        occur: "1977-01-01T00:00:05Z" (220924805) 0x97-0x9b (4)
0x090|                                 00 00 00 06   |           .... |        corr: 6 0x9b-0x9f (4)
     |                                               |                |      [6]{}: leap_second_record 0x9f-0xa7 (8)
0x090|                                             0f|               .|        occur: "1978-01-01T00:00:06Z" (252460806) 0x9f-0xa3 (4)
0x0a0|0c 3f 06                                       |.?.             |
0x0a0|         00 00 00 07                           |   ....         |        corr: 7 0xa3-0xa7 (4)
     |                                               |                |      [7]{}: leap_second_record 0xa7-0xaf (8)
0x0a0|                     10 ed 72 87               |       ..r.     |        occur: "1979-01-01T00:00:07Z" (283996807) 0xa7-0xab (4)
0x0a0|                                 00 00 00 08   |           .... |        corr: 8 0xab-0xaf (4)
     |                                               |                |      [8]{}: leap_second_record 0xaf-0xb7 (8)
0x0a0|                                             12|               .|        occur: "1980-01-01T00:00:08Z" (315532808) 0xaf-0xb3 (4)
0x0b0|ce a6 08                                       |...             |
0x0b0|         00 00 00 09                           |   ....         |        corr: 9 0xb3-0xb7 (4)
     |                                               |                |      [9]{}: leap_second_record 0xb7-0xbf (8)
0x0b0|                     15 9f ca 89               |       ....     |        occur: "1981-07-01T00:00:09Z" (362793609) 0xb7-0xbb (4)
0x0b0|                                 00 00 00 0a   |           .... |        corr: 10 0xbb-0xbf (4)
     |                                               |                |      [10]{}: leap_second_record 0xbf-0xc7 (8)
0x0b0|                                             17|               .|        occur: "1982-07-01T00:00:10Z" (394329610) 0xbf-0xc3 (4)
0x0c0|80 fe 0a                                       |...             |
0x0c0|         00 00 00 0b                           |   ....         |        corr: 11 0xc3-0xc7 (4)
     |                                               |                |      [11]{}: leap_second_record 0xc7-0xcf (8)
0x0c0|                     19 62 31 8b               |       .b1.     |        occur: "1983-07-01T00:00:11Z" (425865611) 0xc7-0xcb (4)
0x0c0|                                 00 00 00 0c   |           .... |        corr: 12 0xcb-0xcf (4)
     |                                               |                |      [12]{}: leap_second_record 0xcf-0xd7 (8)
0x0c0|                                             1d|               .|        occur: "1985-07-01T00:00:12Z" (489024012) 0xcf-0xd3 (4)
0x0d0|25 ea 0c                                       |%..             |
0x0d0|         00 00 00 0d                           |   ....         |        corr: 13 0xd3-0xd7 (4)
     |                                               |                |      [13]{}: leap_second_record 0xd7-0xdf (8)
0x0d0|                     21 da e5 0d               |       !...     |        occur: "1988-01-01T00:00:13Z" (567993613) 0xd7-0xdb (4)
0x0d0|                                 00 00 00 0e   |           .... |        corr: 14 0xdb-0xdf (4)
     |                                               |                |      [14]{}: leap_second_record 0xdf-0xe7 (8)
0x0d0|                                             25|               %|        occur: "1990-01-01T00:00:14Z" (631152014) 0xdf-0xe3 (4)
0x0e0|9e 9d 8e                                       |...             |
0x0e0|         00 00 00 0f                           |   ....         |        corr: 15 0xe3-0xe7 (4)
     |                                               |                |      [15]{}: leap_second_record 0xe7-0xef (8)
0x0e0|                     27 7f d1 0f               |       '...     |        occur: "1991-01-01T00:00:15Z" (662688015) 0xe7-0xeb (4)
0x0e0|                                 00 00 00 10   |           .... |        corr: 16 0xeb-0xef (4)
     |                                               |                |      [16]{}: leap_second_record 0xef-0xf7 (8)
0x0e0|                                             2a|               *|        occur: "1992-07-01T00:00:16Z" (709948816) 0xef-0xf3 (4)
0x0f0|50 f5 90                                       |P..             |
0x0f0|         00 00 00 11                           |   ....         |        corr: 17 0xf3-0xf7 (4)
     |                                               |                |      [17]{}: leap_second_record 0xf7-0xff (8)
0x0f0|                     2c 32 29 11               |       ,2).     |        occur: "1993-07-01T00:00:17Z" (741484817) 0xf7-0xfb (4)
0x0f0|                                 00 00 00 12   |           .... |        corr: 18 0xfb-0xff (4)
     |                                               |                |      [18]{}: leap_second_record 0xff-0x107 (8)
0x0f0|                                             2e|               .|        occur: "1994-07-01T00:00:18Z" (773020818) 0xff-0x103 (4)
0x100|13 5c 92                                       |.\.             |
0x100|         00 00 00 13                           |   ....         |        corr: 19 0x103-0x107 (4)
     |                                               |                |      [19]{}: leap_second_record 0x107-0x10f (8)
0x100|                     30 e7 24 13               |       0.$.     |        occur: "1996-01-01T00:00:19Z" (820454419) 0x107-0x10b (4)
0x100|                                 00 00 00 14   |           .... |        corr: 20 0x10b-0x10f (4)
     |                                               |                |      [20]{}: leap_second_record 0x10f-0x117 (8)
0x100|                                             33|               3|        occur: "1997-07-01T00:00:20Z" (867715220) 0x10f-0x113 (4)
0x110|b8 48 94                                       |.H.             |
0x110|         00 00 00 15                           |   ....         |        corr: 21 0x113-0x117 (4)
     |                                               |                |      [21]{}: leap_second_record 0x117-0x11f (8)
0x110|                     36 8c 10 15               |       6...     |        occur: "1999-01-01T00:00:21Z" (915148821) 0x117-0x11b (4)
0x110|                                 00 00 00 16   |           .... |        corr: 22 0x11b-0x11f (4)
     |                                               |                |      [22]{}: leap_second_record 0x11f-0x127 (8)
0x110|                                             43|               C|        occur: "2006-01-01T00:00:22Z" (1136073622) 0x11f-0x123 (4)
0x120|b7 1b 96                                       |...             |
0x120|         00 00 00 17                           |   ....         |        corr: 23 0x123-0x127 (4)
     |                                               |                |      [23]{}: leap_second_record 0x127-0x12f (8)
0x120|                     49 5c 07 97               |       I\..     |        occur: "2009-01-01T00:00:23Z" (1230768023) 0x127-0x12b (4)
0x120|                                 00 00 00 18   |           .... |        corr: 24 0x12b-0x12f (4)
     |                                               |                |      [24]{}: leap_second_record 0x12f-0x137 (8)
0x120|                                             4f|               O|        occur: "2012-07-01T00:00:24Z" (1341100824) 0x12f-0x133 (4)
0x130|ef 93 18                                       |...             |
0x130|         00 00 00 19                           |   ....         |        corr: 25 0x133-0x137 (4)
     |                                               |                |      [25]{}: leap_second_record 0x137-0x13f (8)
0x130|                     55 93 2d 99               |       U.-.     |        occur: "2015-07-01T00:00:25Z" (1435708825) 0x137-0x13b (4)
0x130|                                 00 00 00 1a   |           .... |        corr: 26 0x13b-0x13f (4)
     |                                               |                |      [26]{}: leap_second_record 0x13f-0x147 (8)
0x130|                                             58|               X|        occur: "2017-01-01T00:00:26Z" (1483228826) 0x13f-0x143 (4)
0x140|68 46 9a                                       |hF.             |
0x140|         00 00 00 1b                           |   ....         |        corr: 27 0x143-0x147 (4)
     |                                               |                |    standard_wall_indicators[0:5]: 0x147-0x14c (5)
0x140|                     00                        |       .        |      [0]: 0 standard_wall_indicator (valid) 0x147-0x148 (1)
0x140|                        01                     |        .       |      [1]: 1 standard_wall_indicator (valid) 0x148-0x149 (1)
0x140|                           00                  |         .      |      [2]: 0 standard_wall_indicator (valid) 0x149-0x14a (1)
0x140|                              00               |          .     |      [3]: 0 standard_wall_indicator (valid) 0x14a-0x14b (1)
0x140|                                 00            |           .    |      [4]: 0 standard_wall_indicator (valid) 0x14b-0x14c (1)
     |                                               |                |    ut_local_indicators[0:5]: 0x14c-0x151 (5)
0x140|                                    00         |            .   |      [0]: 0 ut_local_indicator (valid) 0x14c-0x14d (1)
0x140|                                       01      |             .  |      [1]: 1 ut_local_indicator (valid) 0x14d-0x14e (1)
0x140|                                          00   |              . |      [2]: 0 ut_local_indicator (valid) 0x14e-0x14f (1)
0x140|                                             00|               .|      [3]: 0 ut_local_indicator (valid) 0x14f-0x150 (1)
0x150|00                                             |.               |      [4]: 0 ut_local_indicator (valid) 0x150-0x151 (1)
     |                                               |                |  v2plusheader{}: 0x151-0x17d (44)
0x150|   54 5a 69 66                                 | TZif           |    magic: 0x545a6966 (valid) 0x151-0x155 (4)
0x150|               32                              |     2          |    ver: "2" (0x32) (valid) 0x155-0x156 (1)
0x150|                  00 00 00 00 00 00 00 00 00 00|      ..........|    reserved: raw bits 0x156-0x165 (15)
0x160|00 00 00 00 00                                 |.....           |
0x160|               00 00 00 05                     |     ....       |    isutcnt: 5 0x165-0x169 (4)
0x160|                           00 00 00 05         |         ....   |    isstdcnt: 5 0x169-0x16d (4)
0x160|                                       00 00 00|             ...|    leapcnt: 27 0x16d-0x171 (4)
0x170|1b                                             |.               |
0x170|   00 00 00 05                                 | ....           |    timecnt: 5 0x171-0x175 (4)
0x170|               00 00 00 05                     |     ....       |    typecnt: 5 0x175-0x179 (4)
0x170|                           00 00 00 0c         |         ....   |    charcnt: 12 0x179-0x17d (4)
     |                                               |                |  v2plusdatablock{}: 0x17d-0x322 (421)
     |                                               |                |    transition_times[0:5]: 0x17d-0x1a5 (40)
0x170|                                       ff ff ff|             ...|      [0]: "1912-01-01T02:00:00Z" (-1830376800) transition_time 0x17d-0x185 (8)
0x180|ff 92 e6 aa a0                                 |.....           |
0x180|               ff ff ff ff cc 95 9c 20         |     .......    |      [1]: "1942-09-01T02:00:00Z" (-862610400) transition_time 0x185-0x18d (8)
0x180|                                       ff ff ff|             ...|      [2]: "1945-10-15T01:00:00Z" (-764118000) transition_time 0x18d-0x195 (8)
0x190|ff d2 74 7c 10                                 |..t|.           |
0x190|               00 00 00 00 0b 17 f7 44         |     .......D   |      [3]: "1975-11-25T04:00:04Z" (186120004) transition_time 0x195-0x19d (8)
0x190|                                       00 00 00|             ...|      [4]: "2023-06-28T00:00:27Z" (1687910427) transition_time 0x19d-0x1a5 (8)
0x1a0|00 64 9b 78 1b                                 |.d.x.           |
     |                                               |                |    transition_types[0:5]: 0x1a5-0x1aa (5)
0x1a0|               01                              |     .          |      [0]: 1 transition_type 0x1a5-0x1a6 (1)
0x1a0|                  02                           |      .         |      [1]: 2 transition_type 0x1a6-0x1a7 (1)
0x1a0|                     03                        |       .        |      [2]: 3 transition_type 0x1a7-0x1a8 (1)
0x1a0|                        04                     |        .       |      [3]: 4 transition_type 0x1a8-0x1a9 (1)
0x1a0|                           04                  |         .      |      [4]: 4 transition_type 0x1a9-0x1aa (1)
     |                                               |                |    local_time_type_records[0:5]: 0x1aa-0x1c8 (30)
     |                                               |                |      [0]{}: local_time_type 0x1aa-0x1b0 (6)
0x1a0|                              ff ff e9 f4      |          ....  |        utoff: -5644 (valid) 0x1aa-0x1ae (4)
0x1a0|                                          00   |              . |        dst: 0 (valid) 0x1ae-0x1af (1)
0x1a0|                                             00|               .|        idx: 0 (valid) 0x1af-0x1b0 (1)
     |                                               |                |      [1]{}: local_time_type 0x1b0-0x1b6 (6)
0x1b0|ff ff e3 e0                                    |....            |        utoff: -7200 (valid) 0x1b0-0x1b4 (4)
0x1b0|            00                                 |    .           |        dst: 0 (valid) 0x1b4-0x1b5 (1)
0x1b0|               04                              |     .          |        idx: 4 (valid) 0x1b5-0x1b6 (1)
     |                                               |                |      [2]{}: local_time_type 0x1b6-0x1bc (6)
0x1b0|                  ff ff f1 f0                  |      ....      |        utoff: -3600 (valid) 0x1b6-0x1ba (4)
0x1b0|                              01               |          .     |        dst: 1 (valid) 0x1ba-0x1bb (1)
0x1b0|                                 08            |           .    |        idx: 8 (valid) 0x1bb-0x1bc (1)
     |                                               |                |      [3]{}: local_time_type 0x1bc-0x1c2 (6)
0x1b0|                                    ff ff e3 e0|            ....|        utoff: -7200 (valid) 0x1bc-0x1c0 (4)
0x1c0|00                                             |.               |        dst: 0 (valid) 0x1c0-0x1c1 (1)
0x1c0|   04                                          | .              |        idx: 4 (valid) 0x1c1-0x1c2 (1)
     |                                               |                |      [4]{}: local_time_type 0x1c2-0x1c8 (6)
0x1c0|      ff ff f1 f0                              |  ....          |        utoff: -3600 (valid) 0x1c2-0x1c6 (4)
0x1c0|                  00                           |      .         |        dst: 0 (valid) 0x1c6-0x1c7 (1)
0x1c0|                     08                        |       .        |        idx: 8 (valid) 0x1c7-0x1c8 (1)
     |                                               |                |    time_zone_designations[0:3]: 0x1c8-0x1d4 (12)
0x1c0|                        4c 4d 54 00            |        LMT.    |      [0]: "LMT" time_zone_designation 0x1c8-0x1cc (4)
0x1c0|                                    2d 30 32 00|            -02.|      [1]: "-02" time_zone_designation 0x1cc-0x1d0 (4)
0x1d0|2d 30 31 00                                    |-01.            |      [2]: "-01" time_zone_designation 0x1d0-0x1d4 (4)
     |                                               |                |    leap_second_records[0:27]: 0x1d4-0x318 (324)
     |                                               |                |      [0]{}: leap_second_record 0x1d4-0x1e0 (12)
0x1d0|            00 00 00 00 04 b2 58 00            |    ......X.    |        occur: "1972-07-01T00:00:00Z" (78796800) 0x1d4-0x1dc (8)
0x1d0|                                    00 00 00 01|            ....|        corr: 1 0x1dc-0x1e0 (4)
     |                                               |                |      [1]{}: leap_second_record 0x1e0-0x1ec (12)
0x1e0|00 00 00 00 05 a4 ec 01                        |........        |        occur: "1973-01-01T00:00:01Z" (94694401) 0x1e0-0x1e8 (8)
0x1e0|                        00 00 00 02            |        ....    |        corr: 2 0x1e8-0x1ec (4)
     |                                               |                |      [2]{}: leap_second_record 0x1ec-0x1f8 (12)
0x1e0|                                    00 00 00 00|            ....|        occur: "1974-01-01T00:00:02Z" (126230402) 0x1ec-0x1f4 (8)
0x1f0|07 86 1f 82                                    |....            |
0x1f0|            00 00 00 03                        |    ....        |        corr: 3 0x1f4-0x1f8 (4)
     |                                               |                |      [3]{}: leap_second_record 0x1f8-0x204 (12)
0x1f0|                        00 00 00 00 09 67 53 03|        .....gS.|        occur: "1975-01-01T00:00:03Z" (157766403) 0x1f8-0x200 (8)
0x200|00 00 00 04                                    |....            |        corr: 4 0x200-0x204 (4)
     |                                               |                |      [4]{}: leap_second_record 0x204-0x210 (12)
0x200|            00 00 00 00 0b 48 86 84            |    .....H..    |        occur: "1976-01-01T00:00:04Z" (189302404) 0x204-0x20c (8)
0x200|                                    00 00 00 05|            ....|        corr: 5 0x20c-0x210 (4)
     |                                               |                |      [5]{}: leap_second_record 0x210-0x21c (12)
0x210|00 00 00 00 0d 2b 0b 85                        |.....+..        |        occur: "1977-01-01T00:00:05Z" (220924805) 0x210-0x218 (8)
0x210|                        00 00 00 06            |        ....    |        corr: 6 0x218-0x21c (4)
     |                                               |                |      [6]{}: leap_second_record 0x21c-0x228 (12)
0x210|                                    00 00 00 00|            ....|        occur: "1978-01-01T00:00:06Z" (252460806) 0x21c-0x224 (8)
0x220|0f 0c 3f 06                                    |..?.            |
0x220|            00 00 00 07                        |    ....        |        corr: 7 0x224-0x228 (4)
     |                                               |                |      [7]{}: leap_second_record 0x228-0x234 (12)
0x220|                        00 00 00 00 10 ed 72 87|        ......r.|        occur: "1979-01-01T00:00:07Z" (283996807) 0x228-0x230 (8)
0x230|00 00 00 08                                    |....            |        corr: 8 0x230-0x234 (4)
     |                                               |                |      [8]{}: leap_second_record 0x234-0x240 (12)
0x230|            00 00 00 00 12 ce a6 08            |    ........    |        occur: "1980-01-01T00:00:08Z" (315532808) 0x234-0x23c (8)
0x230|                                    00 00 00 09|            ....|        corr: 9 0x23c-0x240 (4)
     |                                               |                |      [9]{}: leap_second_record 0x240-0x24c (12)
0x240|00 00 00 00 15 9f ca 89                        |........        |        occur: "1981-07-01T00:00:09Z" (362793609) 0x240-0x248 (8)
0x240|                        00 00 00 0a            |        ....    |        corr: 10 0x248-0x24c (4)
     |                                               |                |      [10]{}: leap_second_record 0x24c-0x258 (12)
0x240|                                    00 00 00 00|            ....|        occur: "1982-07-01T00:00:10Z" (394329610) 0x24c-0x254 (8)
0x250|17 80 fe 0a                                    |....            |
0x250|            00 00 00 0b                        |    ....        |        corr: 11 0x254-0x258 (4)
     |                                               |                |      [11]{}: leap_second_record 0x258-0x264 (12)
0x250|                        00 00 00 00 19 62 31 8b|        .....b1.|        occur: "1983-07-01T00:00:11Z" (425865611) 0x258-0x260 (8)
0x260|00 00 00 0c                                    |....            |        corr: 12 0x260-0x264 (4)
     |                                               |                |      [12]{}: leap_second_record 0x264-0x270 (12)
0x260|            00 00 00 00 1d 25 ea 0c            |    .....%..    |        occur: "1985-07-01T00:00:12Z" (489024012) 0x264-0x26c (8)
0x260|                                    00 00 00 0d|            ....|        corr: 13 0x26c-0x270 (4)
     |                                               |                |      [13]{}: leap_second_record 0x270-0x27c (12)
0x270|00 00 00 00 21 da e5 0d                        |....!...        |        occur: "1988-01-01T00:00:13Z" (567993613) 0x270-0x278 (8)
0x270|                        00 00 00 0e            |        ....    |        corr: 14 0x278-0x27c (4)
     |                                               |                |      [14]{}: leap_second_record 0x27c-0x288 (12)
0x270|                                    00 00 00 00|            ....|        occur: "1990-01-01T00:00:14Z" (631152014) 0x27c-0x284 (8)
0x280|25 9e 9d 8e                                    |%...            |
0x280|            00 00 00 0f                        |    ....        |        corr: 15 0x284-0x288 (4)
     |                                               |                |      [15]{}: leap_second_record 0x288-0x294 (12)
0x280|                        00 00 00 00 27 7f d1 0f|        ....'...|        occur: "1991-01-01T00:00:15Z" (662688015) 0x288-0x290 (8)
0x290|00 00 00 10                                    |....            |        corr: 16 0x290-0x294 (4)
     |                                               |                |      [16]{}: leap_second_record 0x294-0x2a0 (12)
0x290|            00 00 00 00 2a 50 f5 90            |    ....*P..    |        occur: "1992-07-01T00:00:16Z" (709948816) 0x294-0x29c (8)
0x290|                                    00 00 00 11|            ....|        corr: 17 0x29c-0x2a0 (4)
     |                                               |                |      [17]{}: leap_second_record 0x2a0-0x2ac (12)
0x2a0|00 00 00 00 2c 32 29 11                        |....,2).        |        occur: "1993-07-01T00:00:17Z" (741484817) 0x2a0-0x2a8 (8)
0x2a0|                        00 00 00 12            |        ....    |        corr: 18 0x2a8-0x2ac (4)
     |                                               |                |      [18]{}: leap_second_record 0x2ac-0x2b8 (12)
0x2a0|                                    00 00 00 00|            ....|        occur: "1994-07-01T00:00:18Z" (773020818) 0x2ac-0x2b4 (8)
0x2b0|2e 13 5c 92                                    |..\.            |
0x2b0|            00 00 00 13                        |    ....        |        corr: 19 0x2b4-0x2b8 (4)
     |                                               |                |      [19]{}: leap_second_record 0x2b8-0x2c4 (12)
0x2b0|                        00 00 00 00 30 e7 24 13|        ....0.$.|        occur: "1996-01-01T00:00:19Z" (820454419) 0x2b8-0x2c0 (8)
0x2c0|00 00 00 14                                    |....            |        corr: 20 0x2c0-0x2c4 (4)
     |                                               |                |      [20]{}: leap_second_record 0x2c4-0x2d0 (12)
0x2c0|            00 00 00 00 33 b8 48 94            |    ....3.H.    |        occur: "1997-07-01T00:00:20Z" (867715220) 0x2c4-0x2cc (8)
0x2c0|                                    00 00 00 15|            ....|        corr: 21 0x2cc-0x2d0 (4)
     |                                               |                |      [21]{}: leap_second_record 0x2d0-0x2dc (12)
0x2d0|00 00 00 00 36 8c 10 15                        |....6...        |        occur: "1999-01-01T00:00:21Z" (915148821) 0x2d0-0x2d8 (8)
0x2d0|                        00 00 00 16            |        ....    |        corr: 22 0x2d8-0x2dc (4)
     |                                               |                |      [22]{}: leap_second_record 0x2dc-0x2e8 (12)
0x2d0|                                    00 00 00 00|            ....|        occur: "2006-01-01T00:00:22Z" (1136073622) 0x2dc-0x2e4 (8)
0x2e0|43 b7 1b 96                                    |C...            |
0x2e0|            00 00 00 17                        |    ....        |        corr: 23 0x2e4-0x2e8 (4)
     |                                               |                |      [23]{}: leap_second_record 0x2e8-0x2f4 (12)
0x2e0|                        00 00 00 00 49 5c 07 97|        ....I\..|        occur: "2009-01-01T00:00:23Z" (1230768023) 0x2e8-0x2f0 (8)
0x2f0|00 00 00 18                                    |....            |        corr: 24 0x2f0-0x2f4 (4)
     |                                               |                |      [24]{}: leap_second_record 0x2f4-0x300 (12)
0x2f0|            00 00 00 00 4f ef 93 18            |    ....O...    |        occur: "2012-07-01T00:00:24Z" (1341100824) 0x2f4-0x2fc (8)
0x2f0|                                    00 00 00 19|            ....|        corr: 25 0x2fc-0x300 (4)
     |                                               |                |      [25]{}: leap_second_record 0x300-0x30c (12)
0x300|00 00 00 00 55 93 2d 99                        |....U.-.        |        occur: "2015-07-01T00:00:25Z" (1435708825) 0x300-0x308 (8)
0x300|                        00 00 00 1a            |        ....    |        corr: 26 0x308-0x30c (4)
     |                                               |                |      [26]{}: leap_second_record 0x30c-0x318 (12)
0x300|                                    00 00 00 00|            ....|        occur: "2017-01-01T00:00:26Z" (1483228826) 0x30c-0x314 (8)
0x310|58 68 46 9a                                    |XhF.            |
0x310|            00 00 00 1b                        |    ....        |        corr: 27 0x314-0x318 (4)
     |                                               |                |    standard_wall_indicators[0:5]: 0x318-0x31d (5)
0x310|                        00                     |        .       |      [0]: 0 standard_wall_indicator (valid) 0x318-0x319 (1)
0x310|                           01                  |         .      |      [1]: 1 standard_wall_indicator (valid) 0x319-0x31a (1)
0x310|                              00               |          .     |      [2]: 0 standard_wall_indicator (valid) 0x31a-0x31b (1)
0x310|                                 00            |           .    |      [3]: 0 standard_wall_indicator (valid) 0x31b-0x31c (1)
0x310|                                    00         |            .   |      [4]: 0 standard_wall_indicator (valid) 0x31c-0x31d (1)
     |                                               |                |    ut_local_indicators[0:5]: 0x31d-0x322 (5)
0x310|                                       00      |             .  |      [0]: 0 ut_local_indicator (valid) 0x31d-0x31e (1)
0x310|                                          01   |              . |      [1]: 1 ut_local_indicator (valid) 0x31e-0x31f (1)
0x310|                                             00|               .|      [2]: 0 ut_local_indicator (valid) 0x31f-0x320 (1)
0x320|00                                             |.               |      [3]: 0 ut_local_indicator (valid) 0x320-0x321 (1)
0x320|   00                                          | .              |      [4]: 0 ut_local_indicator (valid) 0x321-0x322 (1)
     |                                               |                |  footer{}: 0x322-0x324 (2)
0x320|      0a                                       |  .             |    nl1: 10 (valid) 0x322-0x323 (1)
     |                                               |                |    tz_string: "" 0x323-0x323 (0)
0x320|         0a|                                   |   .|           |    nl2: 10 (valid) 0x323-0x324 (1)
