$ fq -d tzif dv Casablanca
     |00 01 02 03 04 05 06 07 08 09 0a 0b 0c 0d 0e 0f|0123456789abcdef|.{}: Casablanca (tzif) 0x0-0x97c.7 (2429)
     |                                               |                |  v1header{}: 0x0-0x2b.7 (44)
0x000|54 5a 69 66                                    |TZif            |    magic: 0x545a6966 (valid) 0x0-0x3.7 (4)
0x000|            32                                 |    2           |    ver: "2" (0x32) (valid) 0x4-0x4.7 (1)
0x000|               00 00 00 00 00 00 00 00 00 00 00|     ...........|    reserved: raw bits 0x5-0x13.7 (15)
0x010|00 00 00 00                                    |....            |
0x010|            00 00 00 00                        |    ....        |    isutcnt: 0 0x14-0x17.7 (4)
0x010|                        00 00 00 00            |        ....    |    isstdcnt: 0 0x18-0x1b.7 (4)
0x010|                                    00 00 00 00|            ....|    leapcnt: 0 0x1c-0x1f.7 (4)
0x020|00 00 00 5f                                    |..._            |    timecnt: 95 0x20-0x23.7 (4)
0x020|            00 00 00 05                        |    ....        |    typecnt: 5 0x24-0x27.7 (4)
0x020|                        00 00 00 0c            |        ....    |    charcnt: 12 0x28-0x2b.7 (4)
     |                                               |                |  v1datablock{}: 0x2c-0x230.7 (517)
     |                                               |                |    transition_times[0:95]: 0x2c-0x1a7.7 (380)
0x020|                                    96 51 f9 9c|            .Q..|      [0]: "1913-10-26T00:30:20Z" (-1773012580) transition_time 0x2c-0x2f.7 (4)
0x030|c6 ff 14 80                                    |....            |      [1]: "1939-09-12T00:00:00Z" (-956361600) transition_time 0x30-0x33.7 (4)
0x030|            c7 58 ac 70                        |    .X.p        |      [2]: "1939-11-18T23:00:00Z" (-950490000) transition_time 0x34-0x37.7 (4)
0x030|                        c7 d9 ed 80            |        ....    |      [3]: "1940-02-25T00:00:00Z" (-942019200) transition_time 0x38-0x3b.7 (4)
0x030|                                    d2 a1 32 f0|            ..2.|      [4]: "1945-11-17T23:00:00Z" (-761187600) transition_time 0x3c-0x3f.7 (4)
0x040|db 35 a4 00                                    |.5..            |      [5]: "1950-06-11T00:00:00Z" (-617241600) transition_time 0x40-0x43.7 (4)
0x040|            db ee 27 f0                        |    ..'.        |      [6]: "1950-10-28T23:00:00Z" (-605149200) transition_time 0x44-0x47.7 (4)
0x040|                        fb 25 72 40            |        .%r@    |      [7]: "1967-06-03T12:00:00Z" (-81432000) transition_time 0x48-0x4b.7 (4)
0x040|                                    fb c2 ef 70|            ...p|      [8]: "1967-09-30T23:00:00Z" (-71110800) transition_time 0x4c-0x4f.7 (4)
0x050|08 6b 84 80                                    |.k..            |      [9]: "1974-06-24T00:00:00Z" (141264000) transition_time 0x50-0x53.7 (4)
0x050|            08 c6 6d f0                        |    ..m.        |      [10]: "1974-08-31T23:00:00Z" (147222000) transition_time 0x54-0x57.7 (4)
0x050|                        0b e8 0c 00            |        ....    |      [11]: "1976-05-01T00:00:00Z" (199756800) transition_time 0x58-0x5b.7 (4)
0x050|                                    0c 61 47 f0|            .aG.|      [12]: "1976-07-31T23:00:00Z" (207702000) transition_time 0x5c-0x5f.7 (4)
0x060|0d c9 3f 80                                    |..?.            |      [13]: "1977-05-01T00:00:00Z" (231292800) transition_time 0x60-0x63.7 (4)
0x060|            0e 8e f2 70                        |    ...p        |      [14]: "1977-09-27T23:00:00Z" (244249200) transition_time 0x64-0x67.7 (4)
0x060|                        0f d3 51 80            |        ..Q.    |      [15]: "1978-06-01T00:00:00Z" (265507200) transition_time 0x68-0x6b.7 (4)
0x060|                                    10 27 a3 70|            .'.p|      [16]: "1978-08-03T23:00:00Z" (271033200) transition_time 0x6c-0x6f.7 (4)
0x070|1a b7 a6 00                                    |....            |      [17]: "1984-03-16T00:00:00Z" (448243200) transition_time 0x70-0x73.7 (4)
0x070|            1e 18 6f f0                        |    ..o.        |      [18]: "1985-12-31T23:00:00Z" (504918000) transition_time 0x74-0x77.7 (4)
0x070|                        48 41 e6 80            |        HA..    |      [19]: "2008-06-01T00:00:00Z" (1212278400) transition_time 0x78-0x7b.7 (4)
0x070|                                    48 bb 22 70|            H."p|      [20]: "2008-08-31T23:00:00Z" (1220223600) transition_time 0x7c-0x7f.7 (4)
0x080|4a 23 1a 00                                    |J#..            |      [21]: "2009-06-01T00:00:00Z" (1243814400) transition_time 0x80-0x83.7 (4)
0x080|            4a 8d d5 70                        |    J..p        |      [22]: "2009-08-20T23:00:00Z" (1250809200) transition_time 0x84-0x87.7 (4)
0x080|                        4b dc c0 80            |        K...    |      [23]: "2010-05-02T00:00:00Z" (1272758400) transition_time 0x88-0x8b.7 (4)
0x080|                                    4c 5d e5 70|            L].p|      [24]: "2010-08-07T23:00:00Z" (1281222000) transition_time 0x8c-0x8f.7 (4)
0x090|4d 97 b8 80                                    |M...            |      [25]: "2011-04-03T00:00:00Z" (1301788800) transition_time 0x90-0x93.7 (4)
0x090|            4e 34 8c f0                        |    N4..        |      [26]: "2011-07-30T23:00:00Z" (1312066800) transition_time 0x94-0x97.7 (4)
0x090|                        4f 9c a0 a0            |        O...    |      [27]: "2012-04-29T02:00:00Z" (1335664800) transition_time 0x98-0x9b.7 (4)
0x090|                                    50 08 bb a0|            P...|      [28]: "2012-07-20T02:00:00Z" (1342749600) transition_time 0x9c-0x9f.7 (4)
0x0a0|50 31 9a 20                                    |P1.             |      [29]: "2012-08-20T02:00:00Z" (1345428000) transition_time 0xa0-0xa3.7 (4)
0x0a0|            50 67 a7 a0                        |    Pg..        |      [30]: "2012-09-30T02:00:00Z" (1348970400) transition_time 0xa4-0xa7.7 (4)
0x0a0|                        51 7c 82 a0            |        Q|..    |      [31]: "2013-04-28T02:00:00Z" (1367114400) transition_time 0xa8-0xab.7 (4)
0x0a0|                                    51 d8 cb a0|            Q...|      [32]: "2013-07-07T02:00:00Z" (1373162400) transition_time 0xac-0xaf.7 (4)
0x0b0|52 05 9e a0                                    |R...            |      [33]: "2013-08-10T02:00:00Z" (1376100000) transition_time 0xb0-0xb3.7 (4)
0x0b0|            52 6c 73 a0                        |    Rls.        |      [34]: "2013-10-27T02:00:00Z" (1382839200) transition_time 0xb4-0xb7.7 (4)
0x0b0|                        53 37 7a a0            |        S7z.    |      [35]: "2014-03-30T02:00:00Z" (1396144800) transition_time 0xb8-0xbb.7 (4)
0x0b0|                                    53 ae 21 a0|            S.!.|      [36]: "2014-06-28T02:00:00Z" (1403920800) transition_time 0xbc-0xbf.7 (4)
0x0c0|53 dc 46 20                                    |S.F             |      [37]: "2014-08-02T02:00:00Z" (1406944800) transition_time 0xc0-0xc3.7 (4)
0x0c0|            54 4c 55 a0                        |    TLU.        |      [38]: "2014-10-26T02:00:00Z" (1414288800) transition_time 0xc4-0xc7.7 (4)
0x0c0|                        55 17 5c a0            |        U.\.    |      [39]: "2015-03-29T02:00:00Z" (1427594400) transition_time 0xc8-0xcb.7 (4)
0x0c0|                                    55 7c e0 20|            U|. |      [40]: "2015-06-14T02:00:00Z" (1434247200) transition_time 0xcc-0xcf.7 (4)
0x0d0|55 ab 04 a0                                    |U...            |      [41]: "2015-07-19T02:00:00Z" (1437271200) transition_time 0xd0-0xd3.7 (4)
0x0d0|            56 2c 37 a0                        |    V,7.        |      [42]: "2015-10-25T02:00:00Z" (1445738400) transition_time 0xd4-0xd7.7 (4)
0x0d0|                        56 f7 3e a0            |        V.>.    |      [43]: "2016-03-27T02:00:00Z" (1459044000) transition_time 0xd8-0xdb.7 (4)
0x0d0|                                    57 53 87 a0|            WS..|      [44]: "2016-06-05T02:00:00Z" (1465092000) transition_time 0xdc-0xdf.7 (4)
0x0e0|57 81 ac 20                                    |W..             |      [45]: "2016-07-10T02:00:00Z" (1468116000) transition_time 0xe0-0xe3.7 (4)
0x0e0|            58 15 54 20                        |    X.T         |      [46]: "2016-10-30T02:00:00Z" (1477792800) transition_time 0xe4-0xe7.7 (4)
0x0e0|                        58 d7 20 a0            |        X. .    |      [47]: "2017-03-26T02:00:00Z" (1490493600) transition_time 0xe8-0xeb.7 (4)
0x0e0|                                    59 20 f4 a0|            Y ..|      [48]: "2017-05-21T02:00:00Z" (1495332000) transition_time 0xec-0xef.7 (4)
0x0f0|59 58 53 a0                                    |YXS.            |      [49]: "2017-07-02T02:00:00Z" (1498960800) transition_time 0xf0-0xf3.7 (4)
0x0f0|            59 f5 36 20                        |    Y.6         |      [50]: "2017-10-29T02:00:00Z" (1509242400) transition_time 0xf4-0xf7.7 (4)
0x0f0|                        5a b7 02 a0            |        Z...    |      [51]: "2018-03-25T02:00:00Z" (1521943200) transition_time 0xf8-0xfb.7 (4)
0x0f0|                                    5a f7 9c 20|            Z.. |      [52]: "2018-05-13T02:00:00Z" (1526176800) transition_time 0xfc-0xff.7 (4)
0x100|5b 25 c0 a0                                    |[%..            |      [53]: "2018-06-17T02:00:00Z" (1529200800) transition_time 0x100-0x103.7 (4)
0x100|            5b d5 18 20                        |    [..         |      [54]: "2018-10-28T02:00:00Z" (1540692000) transition_time 0x104-0x107.7 (4)
0x100|                        5c ce 43 a0            |        \.C.    |      [55]: "2019-05-05T02:00:00Z" (1557021600) transition_time 0x108-0x10b.7 (4)
0x100|                                    5c fc 68 20|            \.h |      [56]: "2019-06-09T02:00:00Z" (1560045600) transition_time 0x10c-0x10f.7 (4)
0x110|5e 9b b0 a0                                    |^...            |      [57]: "2020-04-19T02:00:00Z" (1587261600) transition_time 0x110-0x113.7 (4)
0x110|            5e d3 0f a0                        |    ^...        |      [58]: "2020-05-31T02:00:00Z" (1590890400) transition_time 0x114-0x117.7 (4)
0x110|                        60 72 58 20            |        `rX     |      [59]: "2021-04-11T02:00:00Z" (1618106400) transition_time 0x118-0x11b.7 (4)
0x110|                                    60 a0 7c a0|            `.|.|      [60]: "2021-05-16T02:00:00Z" (1621130400) transition_time 0x11c-0x11f.7 (4)
0x120|62 3f c5 20                                    |b?.             |      [61]: "2022-03-27T02:00:00Z" (1648346400) transition_time 0x120-0x123.7 (4)
0x120|            62 77 24 20                        |    bw$         |      [62]: "2022-05-08T02:00:00Z" (1651975200) transition_time 0x124-0x127.7 (4)
0x120|                        64 16 6c a0            |        d.l.    |      [63]: "2023-03-19T02:00:00Z" (1679191200) transition_time 0x128-0x12b.7 (4)
0x120|                                    64 4d cb a0|            dM..|      [64]: "2023-04-30T02:00:00Z" (1682820000) transition_time 0x12c-0x12f.7 (4)
0x130|65 ed 14 20                                    |e..             |      [65]: "2024-03-10T02:00:00Z" (1710036000) transition_time 0x130-0x133.7 (4)
0x130|            66 1b 38 a0                        |    f.8.        |      [66]: "2024-04-14T02:00:00Z" (1713060000) transition_time 0x134-0x137.7 (4)
0x130|                        67 ba 81 20            |        g..     |      [67]: "2025-02-23T02:00:00Z" (1740276000) transition_time 0x138-0x13b.7 (4)
0x130|                                    67 f1 e0 20|            g.. |      [68]: "2025-04-06T02:00:00Z" (1743904800) transition_time 0x13c-0x13f.7 (4)
0x140|69 91 28 a0                                    |i.(.            |      [69]: "2026-02-15T02:00:00Z" (1771120800) transition_time 0x140-0x143.7 (4)
0x140|            69 bf 4d 20                        |    i.M         |      [70]: "2026-03-22T02:00:00Z" (1774144800) transition_time 0x144-0x147.7 (4)
0x140|                        6b 67 d0 20            |        kg.     |      [71]: "2027-02-07T02:00:00Z" (1801965600) transition_time 0x148-0x14b.7 (4)
0x140|                                    6b 95 f4 a0|            k...|      [72]: "2027-03-14T02:00:00Z" (1804989600) transition_time 0x14c-0x14f.7 (4)
0x150|6d 35 3d 20                                    |m5=             |      [73]: "2028-01-23T02:00:00Z" (1832205600) transition_time 0x150-0x153.7 (4)
0x150|            6d 6c 9c 20                        |    ml.         |      [74]: "2028-03-05T02:00:00Z" (1835834400) transition_time 0x154-0x157.7 (4)
0x150|                        6f 0b e4 a0            |        o...    |      [75]: "2029-01-14T02:00:00Z" (1863050400) transition_time 0x158-0x15b.7 (4)
0x150|                                    6f 3a 09 20|            o:. |      [76]: "2029-02-18T02:00:00Z" (1866074400) transition_time 0x15c-0x15f.7 (4)
0x160|70 d9 51 a0                                    |p.Q.            |      [77]: "2029-12-30T02:00:00Z" (1893290400) transition_time 0x160-0x163.7 (4)
0x160|            71 10 b0 a0                        |    q...        |      [78]: "2030-02-10T02:00:00Z" (1896919200) transition_time 0x164-0x167.7 (4)
0x160|                        72 af f9 20            |        r..     |      [79]: "2030-12-22T02:00:00Z" (1924135200) transition_time 0x168-0x16b.7 (4)
0x160|                                    72 e7 58 20|            r.X |      [80]: "2031-02-02T02:00:00Z" (1927764000) transition_time 0x16c-0x16f.7 (4)
0x170|74 86 a0 a0                                    |t...            |      [81]: "2031-12-14T02:00:00Z" (1954980000) transition_time 0x170-0x173.7 (4)
0x170|            74 b4 c5 20                        |    t..         |      [82]: "2032-01-18T02:00:00Z" (1958004000) transition_time 0x174-0x177.7 (4)
0x170|                        76 54 0d a0            |        vT..    |      [83]: "2032-11-28T02:00:00Z" (1985220000) transition_time 0x178-0x17b.7 (4)
0x170|                                    76 8b 6c a0|            v.l.|      [84]: "2033-01-09T02:00:00Z" (1988848800) transition_time 0x17c-0x17f.7 (4)
0x180|78 2a b5 20                                    |x*.             |      [85]: "2033-11-20T02:00:00Z" (2016064800) transition_time 0x180-0x183.7 (4)
0x180|            78 58 d9 a0                        |    xX..        |      [86]: "2033-12-25T02:00:00Z" (2019088800) transition_time 0x184-0x187.7 (4)
0x180|                        79 f8 22 20            |        y."     |      [87]: "2034-11-05T02:00:00Z" (2046304800) transition_time 0x188-0x18b.7 (4)
0x180|                                    7a 2f 81 20|            z/. |      [88]: "2034-12-17T02:00:00Z" (2049933600) transition_time 0x18c-0x18f.7 (4)
0x190|7b ce c9 a0                                    |{...            |      [89]: "2035-10-28T02:00:00Z" (2077149600) transition_time 0x190-0x193.7 (4)
0x190|            7c 06 28 a0                        |    |.(.        |      [90]: "2035-12-09T02:00:00Z" (2080778400) transition_time 0x194-0x197.7 (4)
0x190|                        7d a5 71 20            |        }.q     |      [91]: "2036-10-19T02:00:00Z" (2107994400) transition_time 0x198-0x19b.7 (4)
0x190|                                    7d d3 95 a0|            }...|      [92]: "2036-11-23T02:00:00Z" (2111018400) transition_time 0x19c-0x19f.7 (4)
0x1a0|7f 72 de 20                                    |.r.             |      [93]: "2037-10-04T02:00:00Z" (2138234400) transition_time 0x1a0-0x1a3.7 (4)
0x1a0|            7f aa 3d 20                        |    ..=         |      [94]: "2037-11-15T02:00:00Z" (2141863200) transition_time 0x1a4-0x1a7.7 (4)
     |                                               |                |    transition_types[0:95]: 0x1a8-0x206.7 (95)
0x1a0|                        02                     |        .       |      [0]: 2 transition_type 0x1a8-0x1a8.7 (1)
0x1a0|                           01                  |         .      |      [1]: 1 transition_type 0x1a9-0x1a9.7 (1)
0x1a0|                              02               |          .     |      [2]: 2 transition_type 0x1aa-0x1aa.7 (1)
0x1a0|                                 01            |           .    |      [3]: 1 transition_type 0x1ab-0x1ab.7 (1)
0x1a0|                                    02         |            .   |      [4]: 2 transition_type 0x1ac-0x1ac.7 (1)
0x1a0|                                       01      |             .  |      [5]: 1 transition_type 0x1ad-0x1ad.7 (1)
0x1a0|                                          02   |              . |      [6]: 2 transition_type 0x1ae-0x1ae.7 (1)
0x1a0|                                             01|               .|      [7]: 1 transition_type 0x1af-0x1af.7 (1)
0x1b0|02                                             |.               |      [8]: 2 transition_type 0x1b0-0x1b0.7 (1)
0x1b0|   01                                          | .              |      [9]: 1 transition_type 0x1b1-0x1b1.7 (1)
0x1b0|      02                                       |  .             |      [10]: 2 transition_type 0x1b2-0x1b2.7 (1)
0x1b0|         01                                    |   .            |      [11]: 1 transition_type 0x1b3-0x1b3.7 (1)
0x1b0|            02                                 |    .           |      [12]: 2 transition_type 0x1b4-0x1b4.7 (1)
0x1b0|               01                              |     .          |      [13]: 1 transition_type 0x1b5-0x1b5.7 (1)
0x1b0|                  02                           |      .         |      [14]: 2 transition_type 0x1b6-0x1b6.7 (1)
0x1b0|                     01                        |       .        |      [15]: 1 transition_type 0x1b7-0x1b7.7 (1)
0x1b0|                        02                     |        .       |      [16]: 2 transition_type 0x1b8-0x1b8.7 (1)
0x1b0|                           03                  |         .      |      [17]: 3 transition_type 0x1b9-0x1b9.7 (1)
0x1b0|                              02               |          .     |      [18]: 2 transition_type 0x1ba-0x1ba.7 (1)
0x1b0|                                 01            |           .    |      [19]: 1 transition_type 0x1bb-0x1bb.7 (1)
0x1b0|                                    02         |            .   |      [20]: 2 transition_type 0x1bc-0x1bc.7 (1)
0x1b0|                                       01      |             .  |      [21]: 1 transition_type 0x1bd-0x1bd.7 (1)
0x1b0|                                          02   |              . |      [22]: 2 transition_type 0x1be-0x1be.7 (1)
0x1b0|                                             01|               .|      [23]: 1 transition_type 0x1bf-0x1bf.7 (1)
0x1c0|02                                             |.               |      [24]: 2 transition_type 0x1c0-0x1c0.7 (1)
0x1c0|   01                                          | .              |      [25]: 1 transition_type 0x1c1-0x1c1.7 (1)
0x1c0|      02                                       |  .             |      [26]: 2 transition_type 0x1c2-0x1c2.7 (1)
0x1c0|         01                                    |   .            |      [27]: 1 transition_type 0x1c3-0x1c3.7 (1)
0x1c0|            02                                 |    .           |      [28]: 2 transition_type 0x1c4-0x1c4.7 (1)
0x1c0|               01                              |     .          |      [29]: 1 transition_type 0x1c5-0x1c5.7 (1)
0x1c0|                  02                           |      .         |      [30]: 2 transition_type 0x1c6-0x1c6.7 (1)
0x1c0|                     01                        |       .        |      [31]: 1 transition_type 0x1c7-0x1c7.7 (1)
0x1c0|                        02                     |        .       |      [32]: 2 transition_type 0x1c8-0x1c8.7 (1)
0x1c0|                           01                  |         .      |      [33]: 1 transition_type 0x1c9-0x1c9.7 (1)
0x1c0|                              02               |          .     |      [34]: 2 transition_type 0x1ca-0x1ca.7 (1)
0x1c0|                                 01            |           .    |      [35]: 1 transition_type 0x1cb-0x1cb.7 (1)
0x1c0|                                    02         |            .   |      [36]: 2 transition_type 0x1cc-0x1cc.7 (1)
0x1c0|                                       01      |             .  |      [37]: 1 transition_type 0x1cd-0x1cd.7 (1)
0x1c0|                                          02   |              . |      [38]: 2 transition_type 0x1ce-0x1ce.7 (1)
0x1c0|                                             01|               .|      [39]: 1 transition_type 0x1cf-0x1cf.7 (1)
0x1d0|02                                             |.               |      [40]: 2 transition_type 0x1d0-0x1d0.7 (1)
0x1d0|   01                                          | .              |      [41]: 1 transition_type 0x1d1-0x1d1.7 (1)
0x1d0|      02                                       |  .             |      [42]: 2 transition_type 0x1d2-0x1d2.7 (1)
0x1d0|         01                                    |   .            |      [43]: 1 transition_type 0x1d3-0x1d3.7 (1)
0x1d0|            02                                 |    .           |      [44]: 2 transition_type 0x1d4-0x1d4.7 (1)
0x1d0|               01                              |     .          |      [45]: 1 transition_type 0x1d5-0x1d5.7 (1)
0x1d0|                  02                           |      .         |      [46]: 2 transition_type 0x1d6-0x1d6.7 (1)
0x1d0|                     01                        |       .        |      [47]: 1 transition_type 0x1d7-0x1d7.7 (1)
0x1d0|                        02                     |        .       |      [48]: 2 transition_type 0x1d8-0x1d8.7 (1)
0x1d0|                           01                  |         .      |      [49]: 1 transition_type 0x1d9-0x1d9.7 (1)
0x1d0|                              02               |          .     |      [50]: 2 transition_type 0x1da-0x1da.7 (1)
0x1d0|                                 01            |           .    |      [51]: 1 transition_type 0x1db-0x1db.7 (1)
0x1d0|                                    02         |            .   |      [52]: 2 transition_type 0x1dc-0x1dc.7 (1)
0x1d0|                                       01      |             .  |      [53]: 1 transition_type 0x1dd-0x1dd.7 (1)
0x1d0|                                          03   |              . |      [54]: 3 transition_type 0x1de-0x1de.7 (1)
0x1d0|                                             04|               .|      [55]: 4 transition_type 0x1df-0x1df.7 (1)
0x1e0|03                                             |.               |      [56]: 3 transition_type 0x1e0-0x1e0.7 (1)
0x1e0|   04                                          | .              |      [57]: 4 transition_type 0x1e1-0x1e1.7 (1)
0x1e0|      03                                       |  .             |      [58]: 3 transition_type 0x1e2-0x1e2.7 (1)
0x1e0|         04                                    |   .            |      [59]: 4 transition_type 0x1e3-0x1e3.7 (1)
0x1e0|            03                                 |    .           |      [60]: 3 transition_type 0x1e4-0x1e4.7 (1)
0x1e0|               04                              |     .          |      [61]: 4 transition_type 0x1e5-0x1e5.7 (1)
0x1e0|                  03                           |      .         |      [62]: 3 transition_type 0x1e6-0x1e6.7 (1)
0x1e0|                     04                        |       .        |      [63]: 4 transition_type 0x1e7-0x1e7.7 (1)
0x1e0|                        03                     |        .       |      [64]: 3 transition_type 0x1e8-0x1e8.7 (1)
0x1e0|                           04                  |         .      |      [65]: 4 transition_type 0x1e9-0x1e9.7 (1)
0x1e0|                              03               |          .     |      [66]: 3 transition_type 0x1ea-0x1ea.7 (1)
0x1e0|                                 04            |           .    |      [67]: 4 transition_type 0x1eb-0x1eb.7 (1)
0x1e0|                                    03         |            .   |      [68]: 3 transition_type 0x1ec-0x1ec.7 (1)
0x1e0|                                       04      |             .  |      [69]: 4 transition_type 0x1ed-0x1ed.7 (1)
0x1e0|                                          03   |              . |      [70]: 3 transition_type 0x1ee-0x1ee.7 (1)
0x1e0|                                             04|               .|      [71]: 4 transition_type 0x1ef-0x1ef.7 (1)
0x1f0|03                                             |.               |      [72]: 3 transition_type 0x1f0-0x1f0.7 (1)
0x1f0|   04                                          | .              |      [73]: 4 transition_type 0x1f1-0x1f1.7 (1)
0x1f0|      03                                       |  .             |      [74]: 3 transition_type 0x1f2-0x1f2.7 (1)
0x1f0|         04                                    |   .            |      [75]: 4 transition_type 0x1f3-0x1f3.7 (1)
0x1f0|            03                                 |    .           |      [76]: 3 transition_type 0x1f4-0x1f4.7 (1)
0x1f0|               04                              |     .          |      [77]: 4 transition_type 0x1f5-0x1f5.7 (1)
0x1f0|                  03                           |      .         |      [78]: 3 transition_type 0x1f6-0x1f6.7 (1)
0x1f0|                     04                        |       .        |      [79]: 4 transition_type 0x1f7-0x1f7.7 (1)
0x1f0|                        03                     |        .       |      [80]: 3 transition_type 0x1f8-0x1f8.7 (1)
0x1f0|                           04                  |         .      |      [81]: 4 transition_type 0x1f9-0x1f9.7 (1)
0x1f0|                              03               |          .     |      [82]: 3 transition_type 0x1fa-0x1fa.7 (1)
0x1f0|                                 04            |           .    |      [83]: 4 transition_type 0x1fb-0x1fb.7 (1)
0x1f0|                                    03         |            .   |      [84]: 3 transition_type 0x1fc-0x1fc.7 (1)
0x1f0|                                       04      |             .  |      [85]: 4 transition_type 0x1fd-0x1fd.7 (1)
0x1f0|                                          03   |              . |      [86]: 3 transition_type 0x1fe-0x1fe.7 (1)
0x1f0|                                             04|               .|      [87]: 4 transition_type 0x1ff-0x1ff.7 (1)
0x200|03                                             |.               |      [88]: 3 transition_type 0x200-0x200.7 (1)
0x200|   04                                          | .              |      [89]: 4 transition_type 0x201-0x201.7 (1)
0x200|      03                                       |  .             |      [90]: 3 transition_type 0x202-0x202.7 (1)
0x200|         04                                    |   .            |      [91]: 4 transition_type 0x203-0x203.7 (1)
0x200|            03                                 |    .           |      [92]: 3 transition_type 0x204-0x204.7 (1)
0x200|               04                              |     .          |      [93]: 4 transition_type 0x205-0x205.7 (1)
0x200|                  03                           |      .         |      [94]: 3 transition_type 0x206-0x206.7 (1)
     |                                               |                |    local_time_type_records[0:5]: 0x207-0x224.7 (30)
     |                                               |                |      [0]{}: local_time_type 0x207-0x20c.7 (6)
0x200|                     ff ff f8 e4               |       ....     |        utoff: -1820 (valid) 0x207-0x20a.7 (4)
0x200|                                 00            |           .    |        dst: 0 (valid) 0x20b-0x20b.7 (1)
0x200|                                    00         |            .   |        idx: 0 (valid) 0x20c-0x20c.7 (1)
     |                                               |                |      [1]{}: local_time_type 0x20d-0x212.7 (6)
0x200|                                       00 00 0e|             ...|        utoff: 3600 (valid) 0x20d-0x210.7 (4)
0x210|10                                             |.               |
0x210|   01                                          | .              |        dst: 1 (valid) 0x211-0x211.7 (1)
0x210|      04                                       |  .             |        idx: 4 (valid) 0x212-0x212.7 (1)
     |                                               |                |      [2]{}: local_time_type 0x213-0x218.7 (6)
0x210|         00 00 00 00                           |   ....         |        utoff: 0 (valid) 0x213-0x216.7 (4)
0x210|                     00                        |       .        |        dst: 0 (valid) 0x217-0x217.7 (1)
0x210|                        08                     |        .       |        idx: 8 (valid) 0x218-0x218.7 (1)
     |                                               |                |      [3]{}: local_time_type 0x219-0x21e.7 (6)
0x210|                           00 00 0e 10         |         ....   |        utoff: 3600 (valid) 0x219-0x21c.7 (4)
0x210|                                       00      |             .  |        dst: 0 (valid) 0x21d-0x21d.7 (1)
0x210|                                          04   |              . |        idx: 4 (valid) 0x21e-0x21e.7 (1)
     |                                               |                |      [4]{}: local_time_type 0x21f-0x224.7 (6)
0x210|                                             00|               .|        utoff: 0 (valid) 0x21f-0x222.7 (4)
0x220|00 00 00                                       |...             |
0x220|         01                                    |   .            |        dst: 1 (valid) 0x223-0x223.7 (1)
0x220|            08                                 |    .           |        idx: 8 (valid) 0x224-0x224.7 (1)
     |                                               |                |    time_zone_designations[0:3]: 0x225-0x230.7 (12)
0x220|               4c 4d 54 00                     |     LMT.       |      [0]: "LMT" time_zone_designation 0x225-0x228.7 (4)
0x220|                           2b 30 31 00         |         +01.   |      [1]: "+01" time_zone_designation 0x229-0x22c.7 (4)
0x220|                                       2b 30 30|             +00|      [2]: "+00" time_zone_designation 0x22d-0x230.7 (4)
0x230|00                                             |.               |
     |                                               |                |    leap_second_records[0:0]: 0x231-NA (0)
     |                                               |                |    standard_wall_indicators[0:0]: 0x231-NA (0)
     |                                               |                |    ut_local_indicators[0:0]: 0x231-NA (0)
     |                                               |                |  v2plusheader{}: 0x231-0x25c.7 (44)
0x230|   54 5a 69 66                                 | TZif           |    magic: 0x545a6966 (valid) 0x231-0x234.7 (4)
0x230|               32                              |     2          |    ver: "2" (0x32) (valid) 0x235-0x235.7 (1)
0x230|                  00 00 00 00 00 00 00 00 00 00|      ..........|    reserved: raw bits 0x236-0x244.7 (15)
0x240|00 00 00 00 00                                 |.....           |
0x240|               00 00 00 00                     |     ....       |    isutcnt: 0 0x245-0x248.7 (4)
0x240|                           00 00 00 00         |         ....   |    isstdcnt: 0 0x249-0x24c.7 (4)
0x240|                                       00 00 00|             ...|    leapcnt: 0 0x24d-0x250.7 (4)
0x250|00                                             |.               |
0x250|   00 00 00 c5                                 | ....           |    timecnt: 197 0x251-0x254.7 (4)
0x250|               00 00 00 05                     |     ....       |    typecnt: 5 0x255-0x258.7 (4)
0x250|                           00 00 00 0c         |         ....   |    charcnt: 12 0x259-0x25c.7 (4)
     |                                               |                |  v2plusdatablock{}: 0x25d-0x973.7 (1815)
     |                                               |                |    transition_times[0:197]: 0x25d-0x884.7 (1576)
0x250|                                       ff ff ff|             ...|      [0]: "1913-10-26T00:30:20Z" (-1773012580) transition_time 0x25d-0x264.7 (8)
0x260|ff 96 51 f9 9c                                 |..Q..           |
0x260|               ff ff ff ff c6 ff 14 80         |     ........   |      [1]: "1939-09-12T00:00:00Z" (-956361600) transition_time 0x265-0x26c.7 (8)
0x260|                                       ff ff ff|             ...|      [2]: "1939-11-18T23:00:00Z" (-950490000) transition_time 0x26d-0x274.7 (8)
0x270|ff c7 58 ac 70                                 |..X.p           |
0x270|               ff ff ff ff c7 d9 ed 80         |     ........   |      [3]: "1940-02-25T00:00:00Z" (-942019200) transition_time 0x275-0x27c.7 (8)
0x270|                                       ff ff ff|             ...|      [4]: "1945-11-17T23:00:00Z" (-761187600) transition_time 0x27d-0x284.7 (8)
0x280|ff d2 a1 32 f0                                 |...2.           |
0x280|               ff ff ff ff db 35 a4 00         |     .....5..   |      [5]: "1950-06-11T00:00:00Z" (-617241600) transition_time 0x285-0x28c.7 (8)
0x280|                                       ff ff ff|             ...|      [6]: "1950-10-28T23:00:00Z" (-605149200) transition_time 0x28d-0x294.7 (8)
0x290|ff db ee 27 f0                                 |...'.           |
0x290|               ff ff ff ff fb 25 72 40         |     .....%r@   |      [7]: "1967-06-03T12:00:00Z" (-81432000) transition_time 0x295-0x29c.7 (8)
0x290|                                       ff ff ff|             ...|      [8]: "1967-09-30T23:00:00Z" (-71110800) transition_time 0x29d-0x2a4.7 (8)
0x2a0|ff fb c2 ef 70                                 |....p           |
0x2a0|               00 00 00 00 08 6b 84 80         |     .....k..   |      [9]: "1974-06-24T00:00:00Z" (141264000) transition_time 0x2a5-0x2ac.7 (8)
0x2a0|                                       00 00 00|             ...|      [10]: "1974-08-31T23:00:00Z" (147222000) transition_time 0x2ad-0x2b4.7 (8)
0x2b0|00 08 c6 6d f0                                 |...m.           |
0x2b0|               00 00 00 00 0b e8 0c 00         |     ........   |      [11]: "1976-05-01T00:00:00Z" (199756800) transition_time 0x2b5-0x2bc.7 (8)
0x2b0|                                       00 00 00|             ...|      [12]: "1976-07-31T23:00:00Z" (207702000) transition_time 0x2bd-0x2c4.7 (8)
0x2c0|00 0c 61 47 f0                                 |..aG.           |
0x2c0|               00 00 00 00 0d c9 3f 80         |     ......?.   |      [13]: "1977-05-01T00:00:00Z" (231292800) transition_time 0x2c5-0x2cc.7 (8)
0x2c0|                                       00 00 00|             ...|      [14]: "1977-09-27T23:00:00Z" (244249200) transition_time 0x2cd-0x2d4.7 (8)
0x2d0|00 0e 8e f2 70                                 |....p           |
0x2d0|               00 00 00 00 0f d3 51 80         |     ......Q.   |      [15]: "1978-06-01T00:00:00Z" (265507200) transition_time 0x2d5-0x2dc.7 (8)
0x2d0|                                       00 00 00|             ...|      [16]: "1978-08-03T23:00:00Z" (271033200) transition_time 0x2dd-0x2e4.7 (8)
0x2e0|00 10 27 a3 70                                 |..'.p           |
0x2e0|               00 00 00 00 1a b7 a6 00         |     ........   |      [17]: "1984-03-16T00:00:00Z" (448243200) transition_time 0x2e5-0x2ec.7 (8)
0x2e0|                                       00 00 00|             ...|      [18]: "1985-12-31T23:00:00Z" (504918000) transition_time 0x2ed-0x2f4.7 (8)
0x2f0|00 1e 18 6f f0                                 |...o.           |
0x2f0|               00 00 00 00 48 41 e6 80         |     ....HA..   |      [19]: "2008-06-01T00:00:00Z" (1212278400) transition_time 0x2f5-0x2fc.7 (8)
0x2f0|                                       00 00 00|             ...|      [20]: "2008-08-31T23:00:00Z" (1220223600) transition_time 0x2fd-0x304.7 (8)
0x300|00 48 bb 22 70                                 |.H."p           |
0x300|               00 00 00 00 4a 23 1a 00         |     ....J#..   |      [21]: "2009-06-01T00:00:00Z" (1243814400) transition_time 0x305-0x30c.7 (8)
0x300|                                       00 00 00|             ...|      [22]: "2009-08-20T23:00:00Z" (1250809200) transition_time 0x30d-0x314.7 (8)
0x310|00 4a 8d d5 70                                 |.J..p           |
0x310|               00 00 00 00 4b dc c0 80         |     ....K...   |      [23]: "2010-05-02T00:00:00Z" (1272758400) transition_time 0x315-0x31c.7 (8)
0x310|                                       00 00 00|             ...|      [24]: "2010-08-07T23:00:00Z" (1281222000) transition_time 0x31d-0x324.7 (8)
0x320|00 4c 5d e5 70                                 |.L].p           |
0x320|               00 00 00 00 4d 97 b8 80         |     ....M...   |      [25]: "2011-04-03T00:00:00Z" (1301788800) transition_time 0x325-0x32c.7 (8)
0x320|                                       00 00 00|             ...|      [26]: "2011-07-30T23:00:00Z" (1312066800) transition_time 0x32d-0x334.7 (8)
0x330|00 4e 34 8c f0                                 |.N4..           |
0x330|               00 00 00 00 4f 9c a0 a0         |     ....O...   |      [27]: "2012-04-29T02:00:00Z" (1335664800) transition_time 0x335-0x33c.7 (8)
0x330|                                       00 00 00|             ...|      [28]: "2012-07-20T02:00:00Z" (1342749600) transition_time 0x33d-0x344.7 (8)
0x340|00 50 08 bb a0                                 |.P...           |
0x340|               00 00 00 00 50 31 9a 20         |     ....P1.    |      [29]: "2012-08-20T02:00:00Z" (1345428000) transition_time 0x345-0x34c.7 (8)
0x340|                                       00 00 00|             ...|      [30]: "2012-09-30T02:00:00Z" (1348970400) transition_time 0x34d-0x354.7 (8)
0x350|00 50 67 a7 a0                                 |.Pg..           |
0x350|               00 00 00 00 51 7c 82 a0         |     ....Q|..   |      [31]: "2013-04-28T02:00:00Z" (1367114400) transition_time 0x355-0x35c.7 (8)
0x350|                                       00 00 00|             ...|      [32]: "2013-07-07T02:00:00Z" (1373162400) transition_time 0x35d-0x364.7 (8)
0x360|00 51 d8 cb a0                                 |.Q...           |
0x360|               00 00 00 00 52 05 9e a0         |     ....R...   |      [33]: "2013-08-10T02:00:00Z" (1376100000) transition_time 0x365-0x36c.7 (8)
0x360|                                       00 00 00|             ...|      [34]: "2013-10-27T02:00:00Z" (1382839200) transition_time 0x36d-0x374.7 (8)
0x370|00 52 6c 73 a0                                 |.Rls.           |
0x370|               00 00 00 00 53 37 7a a0         |     ....S7z.   |      [35]: "2014-03-30T02:00:00Z" (1396144800) transition_time 0x375-0x37c.7 (8)
0x370|                                       00 00 00|             ...|      [36]: "2014-06-28T02:00:00Z" (1403920800) transition_time 0x37d-0x384.7 (8)
0x380|00 53 ae 21 a0                                 |.S.!.           |
0x380|               00 00 00 00 53 dc 46 20         |     ....S.F    |      [37]: "2014-08-02T02:00:00Z" (1406944800) transition_time 0x385-0x38c.7 (8)
0x380|                                       00 00 00|             ...|      [38]: "2014-10-26T02:00:00Z" (1414288800) transition_time 0x38d-0x394.7 (8)
0x390|00 54 4c 55 a0                                 |.TLU.           |
0x390|               00 00 00 00 55 17 5c a0         |     ....U.\.   |      [39]: "2015-03-29T02:00:00Z" (1427594400) transition_time 0x395-0x39c.7 (8)
0x390|                                       00 00 00|             ...|      [40]: "2015-06-14T02:00:00Z" (1434247200) transition_time 0x39d-0x3a4.7 (8)
0x3a0|00 55 7c e0 20                                 |.U|.            |
0x3a0|               00 00 00 00 55 ab 04 a0         |     ....U...   |      [41]: "2015-07-19T02:00:00Z" (1437271200) transition_time 0x3a5-0x3ac.7 (8)
0x3a0|                                       00 00 00|             ...|      [42]: "2015-10-25T02:00:00Z" (1445738400) transition_time 0x3ad-0x3b4.7 (8)
0x3b0|00 56 2c 37 a0                                 |.V,7.           |
0x3b0|               00 00 00 00 56 f7 3e a0         |     ....V.>.   |      [43]: "2016-03-27T02:00:00Z" (1459044000) transition_time 0x3b5-0x3bc.7 (8)
0x3b0|                                       00 00 00|             ...|      [44]: "2016-06-05T02:00:00Z" (1465092000) transition_time 0x3bd-0x3c4.7 (8)
0x3c0|00 57 53 87 a0                                 |.WS..           |
0x3c0|               00 00 00 00 57 81 ac 20         |     ....W..    |      [45]: "2016-07-10T02:00:00Z" (1468116000) transition_time 0x3c5-0x3cc.7 (8)
0x3c0|                                       00 00 00|             ...|      [46]: "2016-10-30T02:00:00Z" (1477792800) transition_time 0x3cd-0x3d4.7 (8)
0x3d0|00 58 15 54 20                                 |.X.T            |
0x3d0|               00 00 00 00 58 d7 20 a0         |     ....X. .   |      [47]: "2017-03-26T02:00:00Z" (1490493600) transition_time 0x3d5-0x3dc.7 (8)
0x3d0|                                       00 00 00|             ...|      [48]: "2017-05-21T02:00:00Z" (1495332000) transition_time 0x3dd-0x3e4.7 (8)
0x3e0|00 59 20 f4 a0                                 |.Y ..           |
0x3e0|               00 00 00 00 59 58 53 a0         |     ....YXS.   |      [49]: "2017-07-02T02:00:00Z" (1498960800) transition_time 0x3e5-0x3ec.7 (8)
0x3e0|                                       00 00 00|             ...|      [50]: "2017-10-29T02:00:00Z" (1509242400) transition_time 0x3ed-0x3f4.7 (8)
0x3f0|00 59 f5 36 20                                 |.Y.6            |
0x3f0|               00 00 00 00 5a b7 02 a0         |     ....Z...   |      [51]: "2018-03-25T02:00:00Z" (1521943200) transition_time 0x3f5-0x3fc.7 (8)
0x3f0|                                       00 00 00|             ...|      [52]: "2018-05-13T02:00:00Z" (1526176800) transition_time 0x3fd-0x404.7 (8)
0x400|00 5a f7 9c 20                                 |.Z..            |
0x400|               00 00 00 00 5b 25 c0 a0         |     ....[%..   |      [53]: "2018-06-17T02:00:00Z" (1529200800) transition_time 0x405-0x40c.7 (8)
0x400|                                       00 00 00|             ...|      [54]: "2018-10-28T02:00:00Z" (1540692000) transition_time 0x40d-0x414.7 (8)
0x410|00 5b d5 18 20                                 |.[..            |
0x410|               00 00 00 00 5c ce 43 a0         |     ....\.C.   |      [55]: "2019-05-05T02:00:00Z" (1557021600) transition_time 0x415-0x41c.7 (8)
0x410|                                       00 00 00|             ...|      [56]: "2019-06-09T02:00:00Z" (1560045600) transition_time 0x41d-0x424.7 (8)
0x420|00 5c fc 68 20                                 |.\.h            |
0x420|               00 00 00 00 5e 9b b0 a0         |     ....^...   |      [57]: "2020-04-19T02:00:00Z" (1587261600) transition_time 0x425-0x42c.7 (8)
0x420|                                       00 00 00|             ...|      [58]: "2020-05-31T02:00:00Z" (1590890400) transition_time 0x42d-0x434.7 (8)
0x430|00 5e d3 0f a0                                 |.^...           |
0x430|               00 00 00 00 60 72 58 20         |     ....`rX    |      [59]: "2021-04-11T02:00:00Z" (1618106400) transition_time 0x435-0x43c.7 (8)
0x430|                                       00 00 00|             ...|      [60]: "2021-05-16T02:00:00Z" (1621130400) transition_time 0x43d-0x444.7 (8)
0x440|00 60 a0 7c a0                                 |.`.|.           |
0x440|               00 00 00 00 62 3f c5 20         |     ....b?.    |      [61]: "2022-03-27T02:00:00Z" (1648346400) transition_time 0x445-0x44c.7 (8)
0x440|                                       00 00 00|             ...|      [62]: "2022-05-08T02:00:00Z" (1651975200) transition_time 0x44d-0x454.7 (8)
0x450|00 62 77 24 20                                 |.bw$            |
0x450|               00 00 00 00 64 16 6c a0         |     ....d.l.   |      [63]: "2023-03-19T02:00:00Z" (1679191200) transition_time 0x455-0x45c.7 (8)
0x450|                                       00 00 00|             ...|      [64]: "2023-04-30T02:00:00Z" (1682820000) transition_time 0x45d-0x464.7 (8)
0x460|00 64 4d cb a0                                 |.dM..           |
0x460|               00 00 00 00 65 ed 14 20         |     ....e..    |      [65]: "2024-03-10T02:00:00Z" (1710036000) transition_time 0x465-0x46c.7 (8)
0x460|                                       00 00 00|             ...|      [66]: "2024-04-14T02:00:00Z" (1713060000) transition_time 0x46d-0x474.7 (8)
0x470|00 66 1b 38 a0                                 |.f.8.           |
0x470|               00 00 00 00 67 ba 81 20         |     ....g..    |      [67]: "2025-02-23T02:00:00Z" (1740276000) transition_time 0x475-0x47c.7 (8)
0x470|                                       00 00 00|             ...|      [68]: "2025-04-06T02:00:00Z" (1743904800) transition_time 0x47d-0x484.7 (8)
0x480|00 67 f1 e0 20                                 |.g..            |
0x480|               00 00 00 00 69 91 28 a0         |     ....i.(.   |      [69]: "2026-02-15T02:00:00Z" (1771120800) transition_time 0x485-0x48c.7 (8)
0x480|                                       00 00 00|             ...|      [70]: "2026-03-22T02:00:00Z" (1774144800) transition_time 0x48d-0x494.7 (8)
0x490|00 69 bf 4d 20                                 |.i.M            |
0x490|               00 00 00 00 6b 67 d0 20         |     ....kg.    |      [71]: "2027-02-07T02:00:00Z" (1801965600) transition_time 0x495-0x49c.7 (8)
0x490|                                       00 00 00|             ...|      [72]: "2027-03-14T02:00:00Z" (1804989600) transition_time 0x49d-0x4a4.7 (8)
0x4a0|00 6b 95 f4 a0                                 |.k...           |
0x4a0|               00 00 00 00 6d 35 3d 20         |     ....m5=    |      [73]: "2028-01-23T02:00:00Z" (1832205600) transition_time 0x4a5-0x4ac.7 (8)
0x4a0|                                       00 00 00|             ...|      [74]: "2028-03-05T02:00:00Z" (1835834400) transition_time 0x4ad-0x4b4.7 (8)
0x4b0|00 6d 6c 9c 20                                 |.ml.            |
0x4b0|               00 00 00 00 6f 0b e4 a0         |     ....o...   |      [75]: "2029-01-14T02:00:00Z" (1863050400) transition_time 0x4b5-0x4bc.7 (8)
0x4b0|                                       00 00 00|             ...|      [76]: "2029-02-18T02:00:00Z" (1866074400) transition_time 0x4bd-0x4c4.7 (8)
0x4c0|00 6f 3a 09 20                                 |.o:.            |
0x4c0|               00 00 00 00 70 d9 51 a0         |     ....p.Q.   |      [77]: "2029-12-30T02:00:00Z" (1893290400) transition_time 0x4c5-0x4cc.7 (8)
0x4c0|                                       00 00 00|             ...|      [78]: "2030-02-10T02:00:00Z" (1896919200) transition_time 0x4cd-0x4d4.7 (8)
0x4d0|00 71 10 b0 a0                                 |.q...           |
0x4d0|               00 00 00 00 72 af f9 20         |     ....r..    |      [79]: "2030-12-22T02:00:00Z" (1924135200) transition_time 0x4d5-0x4dc.7 (8)
0x4d0|                                       00 00 00|             ...|      [80]: "2031-02-02T02:00:00Z" (1927764000) transition_time 0x4dd-0x4e4.7 (8)
0x4e0|00 72 e7 58 20                                 |.r.X            |
0x4e0|               00 00 00 00 74 86 a0 a0         |     ....t...   |      [81]: "2031-12-14T02:00:00Z" (1954980000) transition_time 0x4e5-0x4ec.7 (8)
0x4e0|                                       00 00 00|             ...|      [82]: "2032-01-18T02:00:00Z" (1958004000) transition_time 0x4ed-0x4f4.7 (8)
0x4f0|00 74 b4 c5 20                                 |.t..            |
0x4f0|               00 00 00 00 76 54 0d a0         |     ....vT..   |      [83]: "2032-11-28T02:00:00Z" (1985220000) transition_time 0x4f5-0x4fc.7 (8)
0x4f0|                                       00 00 00|             ...|      [84]: "2033-01-09T02:00:00Z" (1988848800) transition_time 0x4fd-0x504.7 (8)
0x500|00 76 8b 6c a0                                 |.v.l.           |
0x500|               00 00 00 00 78 2a b5 20         |     ....x*.    |      [85]: "2033-11-20T02:00:00Z" (2016064800) transition_time 0x505-0x50c.7 (8)
0x500|                                       00 00 00|             ...|      [86]: "2033-12-25T02:00:00Z" (2019088800) transition_time 0x50d-0x514.7 (8)
0x510|00 78 58 d9 a0                                 |.xX..           |
0x510|               00 00 00 00 79 f8 22 20         |     ....y."    |      [87]: "2034-11-05T02:00:00Z" (2046304800) transition_time 0x515-0x51c.7 (8)
0x510|                                       00 00 00|             ...|      [88]: "2034-12-17T02:00:00Z" (2049933600) transition_time 0x51d-0x524.7 (8)
0x520|00 7a 2f 81 20                                 |.z/.            |
0x520|               00 00 00 00 7b ce c9 a0         |     ....{...   |      [89]: "2035-10-28T02:00:00Z" (2077149600) transition_time 0x525-0x52c.7 (8)
0x520|                                       00 00 00|             ...|      [90]: "2035-12-09T02:00:00Z" (2080778400) transition_time 0x52d-0x534.7 (8)
0x530|00 7c 06 28 a0                                 |.|.(.           |
0x530|               00 00 00 00 7d a5 71 20         |     ....}.q    |      [91]: "2036-10-19T02:00:00Z" (2107994400) transition_time 0x535-0x53c.7 (8)
0x530|                                       00 00 00|             ...|      [92]: "2036-11-23T02:00:00Z" (2111018400) transition_time 0x53d-0x544.7 (8)
0x540|00 7d d3 95 a0                                 |.}...           |
0x540|               00 00 00 00 7f 72 de 20         |     .....r.    |      [93]: "2037-10-04T02:00:00Z" (2138234400) transition_time 0x545-0x54c.7 (8)
0x540|                                       00 00 00|             ...|      [94]: "2037-11-15T02:00:00Z" (2141863200) transition_time 0x54d-0x554.7 (8)
0x550|00 7f aa 3d 20                                 |...=            |
0x550|               00 00 00 00 81 49 85 a0         |     .....I..   |      [95]: "2038-09-26T02:00:00Z" (2169079200) transition_time 0x555-0x55c.7 (8)
0x550|                                       00 00 00|             ...|      [96]: "2038-11-07T02:00:00Z" (2172708000) transition_time 0x55d-0x564.7 (8)
0x560|00 81 80 e4 a0                                 |.....           |
0x560|               00 00 00 00 83 20 2d 20         |     ..... -    |      [97]: "2039-09-18T02:00:00Z" (2199924000) transition_time 0x565-0x56c.7 (8)
0x560|                                       00 00 00|             ...|      [98]: "2039-10-23T02:00:00Z" (2202948000) transition_time 0x56d-0x574.7 (8)
0x570|00 83 4e 51 a0                                 |..NQ.           |
0x570|               00 00 00 00 84 ed 9a 20         |     .......    |      [99]: "2040-09-02T02:00:00Z" (2230164000) transition_time 0x575-0x57c.7 (8)
0x570|                                       00 00 00|             ...|      [100]: "2040-10-14T02:00:00Z" (2233792800) transition_time 0x57d-0x584.7 (8)
0x580|00 85 24 f9 20                                 |..$.            |
0x580|               00 00 00 00 86 c4 41 a0         |     ......A.   |      [101]: "2041-08-25T02:00:00Z" (2261008800) transition_time 0x585-0x58c.7 (8)
0x580|                                       00 00 00|             ...|      [102]: "2041-09-29T02:00:00Z" (2264032800) transition_time 0x58d-0x594.7 (8)
0x590|00 86 f2 66 20                                 |...f            |
0x590|               00 00 00 00 88 91 ae a0         |     ........   |      [103]: "2042-08-10T02:00:00Z" (2291248800) transition_time 0x595-0x59c.7 (8)
0x590|                                       00 00 00|             ...|      [104]: "2042-09-21T02:00:00Z" (2294877600) transition_time 0x59d-0x5a4.7 (8)
0x5a0|00 88 c9 0d a0                                 |.....           |
0x5a0|               00 00 00 00 8a 68 56 20         |     .....hV    |      [105]: "2043-08-02T02:00:00Z" (2322093600) transition_time 0x5a5-0x5ac.7 (8)
0x5a0|                                       00 00 00|             ...|      [106]: "2043-09-13T02:00:00Z" (2325722400) transition_time 0x5ad-0x5b4.7 (8)
0x5b0|00 8a 9f b5 20                                 |....            |
0x5b0|               00 00 00 00 8c 3e fd a0         |     .....>..   |      [107]: "2044-07-24T02:00:00Z" (2352938400) transition_time 0x5b5-0x5bc.7 (8)
0x5b0|                                       00 00 00|             ...|      [108]: "2044-08-28T02:00:00Z" (2355962400) transition_time 0x5bd-0x5c4.7 (8)
0x5c0|00 8c 6d 22 20                                 |..m"            |
0x5c0|               00 00 00 00 8e 0c 6a a0         |     ......j.   |      [109]: "2045-07-09T02:00:00Z" (2383178400) transition_time 0x5c5-0x5cc.7 (8)
0x5c0|                                       00 00 00|             ...|      [110]: "2045-08-20T02:00:00Z" (2386807200) transition_time 0x5cd-0x5d4.7 (8)
0x5d0|00 8e 43 c9 a0                                 |..C..           |
0x5d0|               00 00 00 00 8f e3 12 20         |     .......    |      [111]: "2046-07-01T02:00:00Z" (2414023200) transition_time 0x5d5-0x5dc.7 (8)
0x5d0|                                       00 00 00|             ...|      [112]: "2046-08-12T02:00:00Z" (2417652000) transition_time 0x5dd-0x5e4.7 (8)
0x5e0|00 90 1a 71 20                                 |...q            |
0x5e0|               00 00 00 00 91 b9 b9 a0         |     ........   |      [113]: "2047-06-23T02:00:00Z" (2444868000) transition_time 0x5e5-0x5ec.7 (8)
0x5e0|                                       00 00 00|             ...|      [114]: "2047-07-28T02:00:00Z" (2447892000) transition_time 0x5ed-0x5f4.7 (8)
0x5f0|00 91 e7 de 20                                 |....            |
0x5f0|               00 00 00 00 93 87 26 a0         |     ......&.   |      [115]: "2048-06-07T02:00:00Z" (2475108000) transition_time 0x5f5-0x5fc.7 (8)
0x5f0|                                       00 00 00|             ...|      [116]: "2048-07-19T02:00:00Z" (2478736800) transition_time 0x5fd-0x604.7 (8)
0x600|00 93 be 85 a0                                 |.....           |
0x600|               00 00 00 00 95 5d ce 20         |     .....].    |      [117]: "2049-05-30T02:00:00Z" (2505952800) transition_time 0x605-0x60c.7 (8)
0x600|                                       00 00 00|             ...|      [118]: "2049-07-04T02:00:00Z" (2508976800) transition_time 0x60d-0x614.7 (8)
0x610|00 95 8b f2 a0                                 |.....           |
0x610|               00 00 00 00 97 2b 3b 20         |     .....+;    |      [119]: "2050-05-15T02:00:00Z" (2536192800) transition_time 0x615-0x61c.7 (8)
0x610|                                       00 00 00|             ...|      [120]: "2050-06-26T02:00:00Z" (2539821600) transition_time 0x61d-0x624.7 (8)
0x620|00 97 62 9a 20                                 |..b.            |
0x620|               00 00 00 00 99 01 e2 a0         |     ........   |      [121]: "2051-05-07T02:00:00Z" (2567037600) transition_time 0x625-0x62c.7 (8)
0x620|                                       00 00 00|             ...|      [122]: "2051-06-18T02:00:00Z" (2570666400) transition_time 0x62d-0x634.7 (8)
0x630|00 99 39 41 a0                                 |..9A.           |
0x630|               00 00 00 00 9a d8 8a 20         |     .......    |      [123]: "2052-04-28T02:00:00Z" (2597882400) transition_time 0x635-0x63c.7 (8)
0x630|                                       00 00 00|             ...|      [124]: "2052-06-02T02:00:00Z" (2600906400) transition_time 0x63d-0x644.7 (8)
0x640|00 9b 06 ae a0                                 |.....           |
0x640|               00 00 00 00 9c a5 f7 20         |     .......    |      [125]: "2053-04-13T02:00:00Z" (2628122400) transition_time 0x645-0x64c.7 (8)
0x640|                                       00 00 00|             ...|      [126]: "2053-05-25T02:00:00Z" (2631751200) transition_time 0x64d-0x654.7 (8)
0x650|00 9c dd 56 20                                 |...V            |
0x650|               00 00 00 00 9e 7c 9e a0         |     .....|..   |      [127]: "2054-04-05T02:00:00Z" (2658967200) transition_time 0x655-0x65c.7 (8)
0x650|                                       00 00 00|             ...|      [128]: "2054-05-17T02:00:00Z" (2662596000) transition_time 0x65d-0x664.7 (8)
0x660|00 9e b3 fd a0                                 |.....           |
0x660|               00 00 00 00 a0 53 46 20         |     .....SF    |      [129]: "2055-03-28T02:00:00Z" (2689812000) transition_time 0x665-0x66c.7 (8)
0x660|                                       00 00 00|             ...|      [130]: "2055-05-02T02:00:00Z" (2692836000) transition_time 0x66d-0x674.7 (8)
0x670|00 a0 81 6a a0                                 |...j.           |
0x670|               00 00 00 00 a2 20 b3 20         |     ..... .    |      [131]: "2056-03-12T02:00:00Z" (2720052000) transition_time 0x675-0x67c.7 (8)
0x670|                                       00 00 00|             ...|      [132]: "2056-04-23T02:00:00Z" (2723680800) transition_time 0x67d-0x684.7 (8)
0x680|00 a2 58 12 20                                 |..X.            |
0x680|               00 00 00 00 a3 f7 5a a0         |     ......Z.   |      [133]: "2057-03-04T02:00:00Z" (2750896800) transition_time 0x685-0x68c.7 (8)
0x680|                                       00 00 00|             ...|      [134]: "2057-04-08T02:00:00Z" (2753920800) transition_time 0x68d-0x694.7 (8)
0x690|00 a4 25 7f 20                                 |..%.            |
0x690|               00 00 00 00 a5 c4 c7 a0         |     ........   |      [135]: "2058-02-17T02:00:00Z" (2781136800) transition_time 0x695-0x69c.7 (8)
0x690|                                       00 00 00|             ...|      [136]: "2058-03-31T02:00:00Z" (2784765600) transition_time 0x69d-0x6a4.7 (8)
0x6a0|00 a5 fc 26 a0                                 |...&.           |
0x6a0|               00 00 00 00 a7 9b 6f 20         |     ......o    |      [137]: "2059-02-09T02:00:00Z" (2811981600) transition_time 0x6a5-0x6ac.7 (8)
0x6a0|                                       00 00 00|             ...|      [138]: "2059-03-23T02:00:00Z" (2815610400) transition_time 0x6ad-0x6b4.7 (8)
0x6b0|00 a7 d2 ce 20                                 |....            |
0x6b0|               00 00 00 00 a9 72 16 a0         |     .....r..   |      [139]: "2060-02-01T02:00:00Z" (2842826400) transition_time 0x6b5-0x6bc.7 (8)
0x6b0|                                       00 00 00|             ...|      [140]: "2060-03-07T02:00:00Z" (2845850400) transition_time 0x6bd-0x6c4.7 (8)
0x6c0|00 a9 a0 3b 20                                 |...;            |
0x6c0|               00 00 00 00 ab 3f 83 a0         |     .....?..   |      [141]: "2061-01-16T02:00:00Z" (2873066400) transition_time 0x6c5-0x6cc.7 (8)
0x6c0|                                       00 00 00|             ...|      [142]: "2061-02-27T02:00:00Z" (2876695200) transition_time 0x6cd-0x6d4.7 (8)
0x6d0|00 ab 76 e2 a0                                 |..v..           |
0x6d0|               00 00 00 00 ad 16 2b 20         |     ......+    |      [143]: "2062-01-08T02:00:00Z" (2903911200) transition_time 0x6d5-0x6dc.7 (8)
0x6d0|                                       00 00 00|             ...|      [144]: "2062-02-19T02:00:00Z" (2907540000) transition_time 0x6dd-0x6e4.7 (8)
0x6e0|00 ad 4d 8a 20                                 |..M.            |
0x6e0|               00 00 00 00 ae ec d2 a0         |     ........   |      [145]: "2062-12-31T02:00:00Z" (2934756000) transition_time 0x6e5-0x6ec.7 (8)
0x6e0|                                       00 00 00|             ...|      [146]: "2063-02-04T02:00:00Z" (2937780000) transition_time 0x6ed-0x6f4.7 (8)
0x6f0|00 af 1a f7 20                                 |....            |
0x6f0|               00 00 00 00 b0 ba 3f a0         |     ......?.   |      [147]: "2063-12-16T02:00:00Z" (2964996000) transition_time 0x6f5-0x6fc.7 (8)
0x6f0|                                       00 00 00|             ...|      [148]: "2064-01-27T02:00:00Z" (2968624800) transition_time 0x6fd-0x704.7 (8)
0x700|00 b0 f1 9e a0                                 |.....           |
0x700|               00 00 00 00 b2 90 e7 20         |     .......    |      [149]: "2064-12-07T02:00:00Z" (2995840800) transition_time 0x705-0x70c.7 (8)
0x700|                                       00 00 00|             ...|      [150]: "2065-01-11T02:00:00Z" (2998864800) transition_time 0x70d-0x714.7 (8)
0x710|00 b2 bf 0b a0                                 |.....           |
0x710|               00 00 00 00 b4 5e 54 20         |     .....^T    |      [151]: "2065-11-22T02:00:00Z" (3026080800) transition_time 0x715-0x71c.7 (8)
0x710|                                       00 00 00|             ...|      [152]: "2066-01-03T02:00:00Z" (3029709600) transition_time 0x71d-0x724.7 (8)
0x720|00 b4 95 b3 20                                 |....            |
0x720|               00 00 00 00 b6 34 fb a0         |     .....4..   |      [153]: "2066-11-14T02:00:00Z" (3056925600) transition_time 0x725-0x72c.7 (8)
0x720|                                       00 00 00|             ...|      [154]: "2066-12-26T02:00:00Z" (3060554400) transition_time 0x72d-0x734.7 (8)
0x730|00 b6 6c 5a a0                                 |..lZ.           |
0x730|               00 00 00 00 b8 0b a3 20         |     .......    |      [155]: "2067-11-06T02:00:00Z" (3087770400) transition_time 0x735-0x73c.7 (8)
0x730|                                       00 00 00|             ...|      [156]: "2067-12-11T02:00:00Z" (3090794400) transition_time 0x73d-0x744.7 (8)
0x740|00 b8 39 c7 a0                                 |..9..           |
0x740|               00 00 00 00 b9 d9 10 20         |     .......    |      [157]: "2068-10-21T02:00:00Z" (3118010400) transition_time 0x745-0x74c.7 (8)
0x740|                                       00 00 00|             ...|      [158]: "2068-12-02T02:00:00Z" (3121639200) transition_time 0x74d-0x754.7 (8)
0x750|00 ba 10 6f 20                                 |...o            |
0x750|               00 00 00 00 bb af b7 a0         |     ........   |      [159]: "2069-10-13T02:00:00Z" (3148855200) transition_time 0x755-0x75c.7 (8)
0x750|                                       00 00 00|             ...|      [160]: "2069-11-24T02:00:00Z" (3152484000) transition_time 0x75d-0x764.7 (8)
0x760|00 bb e7 16 a0                                 |.....           |
0x760|               00 00 00 00 bd 86 5f 20         |     ......_    |      [161]: "2070-10-05T02:00:00Z" (3179700000) transition_time 0x765-0x76c.7 (8)
0x760|                                       00 00 00|             ...|      [162]: "2070-11-09T02:00:00Z" (3182724000) transition_time 0x76d-0x774.7 (8)
0x770|00 bd b4 83 a0                                 |.....           |
0x770|               00 00 00 00 bf 53 cc 20         |     .....S.    |      [163]: "2071-09-20T02:00:00Z" (3209940000) transition_time 0x775-0x77c.7 (8)
0x770|                                       00 00 00|             ...|      [164]: "2071-11-01T02:00:00Z" (3213568800) transition_time 0x77d-0x784.7 (8)
0x780|00 bf 8b 2b 20                                 |...+            |
0x780|               00 00 00 00 c1 2a 73 a0         |     .....*s.   |      [165]: "2072-09-11T02:00:00Z" (3240784800) transition_time 0x785-0x78c.7 (8)
0x780|                                       00 00 00|             ...|      [166]: "2072-10-16T02:00:00Z" (3243808800) transition_time 0x78d-0x794.7 (8)
0x790|00 c1 58 98 20                                 |..X.            |
0x790|               00 00 00 00 c2 f7 e0 a0         |     ........   |      [167]: "2073-08-27T02:00:00Z" (3271024800) transition_time 0x795-0x79c.7 (8)
0x790|                                       00 00 00|             ...|      [168]: "2073-10-08T02:00:00Z" (3274653600) transition_time 0x79d-0x7a4.7 (8)
0x7a0|00 c3 2f 3f a0                                 |../?.           |
0x7a0|               00 00 00 00 c4 ce 88 20         |     .......    |      [169]: "2074-08-19T02:00:00Z" (3301869600) transition_time 0x7a5-0x7ac.7 (8)
0x7a0|                                       00 00 00|             ...|      [170]: "2074-09-30T02:00:00Z" (3305498400) transition_time 0x7ad-0x7b4.7 (8)
0x7b0|00 c5 05 e7 20                                 |....            |
0x7b0|               00 00 00 00 c6 a5 2f a0         |     ....../.   |      [171]: "2075-08-11T02:00:00Z" (3332714400) transition_time 0x7b5-0x7bc.7 (8)
0x7b0|                                       00 00 00|             ...|      [172]: "2075-09-15T02:00:00Z" (3335738400) transition_time 0x7bd-0x7c4.7 (8)
0x7c0|00 c6 d3 54 20                                 |...T            |
0x7c0|               00 00 00 00 c8 72 9c a0         |     .....r..   |      [173]: "2076-07-26T02:00:00Z" (3362954400) transition_time 0x7c5-0x7cc.7 (8)
0x7c0|                                       00 00 00|             ...|      [174]: "2076-09-06T02:00:00Z" (3366583200) transition_time 0x7cd-0x7d4.7 (8)
0x7d0|00 c8 a9 fb a0                                 |.....           |
0x7d0|               00 00 00 00 ca 49 44 20         |     .....ID    |      [175]: "2077-07-18T02:00:00Z" (3393799200) transition_time 0x7d5-0x7dc.7 (8)
0x7d0|                                       00 00 00|             ...|      [176]: "2077-08-29T02:00:00Z" (3397428000) transition_time 0x7dd-0x7e4.7 (8)
0x7e0|00 ca 80 a3 20                                 |....            |
0x7e0|               00 00 00 00 cc 1f eb a0         |     ........   |      [177]: "2078-07-10T02:00:00Z" (3424644000) transition_time 0x7e5-0x7ec.7 (8)
0x7e0|                                       00 00 00|             ...|      [178]: "2078-08-14T02:00:00Z" (3427668000) transition_time 0x7ed-0x7f4.7 (8)
0x7f0|00 cc 4e 10 20                                 |..N.            |
0x7f0|               00 00 00 00 cd ed 58 a0         |     ......X.   |      [179]: "2079-06-25T02:00:00Z" (3454884000) transition_time 0x7f5-0x7fc.7 (8)
0x7f0|                                       00 00 00|             ...|      [180]: "2079-08-06T02:00:00Z" (3458512800) transition_time 0x7fd-0x804.7 (8)
0x800|00 ce 24 b7 a0                                 |..$..           |
0x800|               00 00 00 00 cf c4 00 20         |     .......    |      [181]: "2080-06-16T02:00:00Z" (3485728800) transition_time 0x805-0x80c.7 (8)
0x800|                                       00 00 00|             ...|      [182]: "2080-07-21T02:00:00Z" (3488752800) transition_time 0x80d-0x814.7 (8)
0x810|00 cf f2 24 a0                                 |...$.           |
0x810|               00 00 00 00 d1 91 6d 20         |     ......m    |      [183]: "2081-06-01T02:00:00Z" (3515968800) transition_time 0x815-0x81c.7 (8)
0x810|                                       00 00 00|             ...|      [184]: "2081-07-13T02:00:00Z" (3519597600) transition_time 0x81d-0x824.7 (8)
0x820|00 d1 c8 cc 20                                 |....            |
0x820|               00 00 00 00 d3 68 14 a0         |     .....h..   |      [185]: "2082-05-24T02:00:00Z" (3546813600) transition_time 0x825-0x82c.7 (8)
0x820|                                       00 00 00|             ...|      [186]: "2082-07-05T02:00:00Z" (3550442400) transition_time 0x82d-0x834.7 (8)
0x830|00 d3 9f 73 a0                                 |...s.           |
0x830|               00 00 00 00 d5 3e bc 20         |     .....>.    |      [187]: "2083-05-16T02:00:00Z" (3577658400) transition_time 0x835-0x83c.7 (8)
0x830|                                       00 00 00|             ...|      [188]: "2083-06-20T02:00:00Z" (3580682400) transition_time 0x83d-0x844.7 (8)
0x840|00 d5 6c e0 a0                                 |..l..           |
0x840|               00 00 00 00 d7 0c 29 20         |     ......)    |      [189]: "2084-04-30T02:00:00Z" (3607898400) transition_time 0x845-0x84c.7 (8)
0x840|                                       00 00 00|             ...|      [190]: "2084-06-11T02:00:00Z" (3611527200) transition_time 0x84d-0x854.7 (8)
0x850|00 d7 43 88 20                                 |..C.            |
0x850|               00 00 00 00 d8 e2 d0 a0         |     ........   |      [191]: "2085-04-22T02:00:00Z" (3638743200) transition_time 0x855-0x85c.7 (8)
0x850|                                       00 00 00|             ...|      [192]: "2085-06-03T02:00:00Z" (3642372000) transition_time 0x85d-0x864.7 (8)
0x860|00 d9 1a 2f a0                                 |.../.           |
0x860|               00 00 00 00 da b9 78 20         |     ......x    |      [193]: "2086-04-14T02:00:00Z" (3669588000) transition_time 0x865-0x86c.7 (8)
0x860|                                       00 00 00|             ...|      [194]: "2086-05-19T02:00:00Z" (3672612000) transition_time 0x86d-0x874.7 (8)
0x870|00 da e7 9c a0                                 |.....           |
0x870|               00 00 00 00 dc 86 e5 20         |     .......    |      [195]: "2087-03-30T02:00:00Z" (3699828000) transition_time 0x875-0x87c.7 (8)
0x870|                                       00 00 00|             ...|      [196]: "2087-05-11T02:00:00Z" (3703456800) transition_time 0x87d-0x884.7 (8)
0x880|00 dc be 44 20                                 |...D            |
     |                                               |                |    transition_types[0:197]: 0x885-0x949.7 (197)
0x880|               02                              |     .          |      [0]: 2 transition_type 0x885-0x885.7 (1)
0x880|                  01                           |      .         |      [1]: 1 transition_type 0x886-0x886.7 (1)
0x880|                     02                        |       .        |      [2]: 2 transition_type 0x887-0x887.7 (1)
0x880|                        01                     |        .       |      [3]: 1 transition_type 0x888-0x888.7 (1)
0x880|                           02                  |         .      |      [4]: 2 transition_type 0x889-0x889.7 (1)
0x880|                              01               |          .     |      [5]: 1 transition_type 0x88a-0x88a.7 (1)
0x880|                                 02            |           .    |      [6]: 2 transition_type 0x88b-0x88b.7 (1)
0x880|                                    01         |            .   |      [7]: 1 transition_type 0x88c-0x88c.7 (1)
0x880|                                       02      |             .  |      [8]: 2 transition_type 0x88d-0x88d.7 (1)
0x880|                                          01   |              . |      [9]: 1 transition_type 0x88e-0x88e.7 (1)
0x880|                                             02|               .|      [10]: 2 transition_type 0x88f-0x88f.7 (1)
0x890|01                                             |.               |      [11]: 1 transition_type 0x890-0x890.7 (1)
0x890|   02                                          | .              |      [12]: 2 transition_type 0x891-0x891.7 (1)
0x890|      01                                       |  .             |      [13]: 1 transition_type 0x892-0x892.7 (1)
0x890|         02                                    |   .            |      [14]: 2 transition_type 0x893-0x893.7 (1)
0x890|            01                                 |    .           |      [15]: 1 transition_type 0x894-0x894.7 (1)
0x890|               02                              |     .          |      [16]: 2 transition_type 0x895-0x895.7 (1)
0x890|                  03                           |      .         |      [17]: 3 transition_type 0x896-0x896.7 (1)
0x890|                     02                        |       .        |      [18]: 2 transition_type 0x897-0x897.7 (1)
0x890|                        01                     |        .       |      [19]: 1 transition_type 0x898-0x898.7 (1)
0x890|                           02                  |         .      |      [20]: 2 transition_type 0x899-0x899.7 (1)
0x890|                              01               |          .     |      [21]: 1 transition_type 0x89a-0x89a.7 (1)
0x890|                                 02            |           .    |      [22]: 2 transition_type 0x89b-0x89b.7 (1)
0x890|                                    01         |            .   |      [23]: 1 transition_type 0x89c-0x89c.7 (1)
0x890|                                       02      |             .  |      [24]: 2 transition_type 0x89d-0x89d.7 (1)
0x890|                                          01   |              . |      [25]: 1 transition_type 0x89e-0x89e.7 (1)
0x890|                                             02|               .|      [26]: 2 transition_type 0x89f-0x89f.7 (1)
0x8a0|01                                             |.               |      [27]: 1 transition_type 0x8a0-0x8a0.7 (1)
0x8a0|   02                                          | .              |      [28]: 2 transition_type 0x8a1-0x8a1.7 (1)
0x8a0|      01                                       |  .             |      [29]: 1 transition_type 0x8a2-0x8a2.7 (1)
0x8a0|         02                                    |   .            |      [30]: 2 transition_type 0x8a3-0x8a3.7 (1)
0x8a0|            01                                 |    .           |      [31]: 1 transition_type 0x8a4-0x8a4.7 (1)
0x8a0|               02                              |     .          |      [32]: 2 transition_type 0x8a5-0x8a5.7 (1)
0x8a0|                  01                           |      .         |      [33]: 1 transition_type 0x8a6-0x8a6.7 (1)
0x8a0|                     02                        |       .        |      [34]: 2 transition_type 0x8a7-0x8a7.7 (1)
0x8a0|                        01                     |        .       |      [35]: 1 transition_type 0x8a8-0x8a8.7 (1)
0x8a0|                           02                  |         .      |      [36]: 2 transition_type 0x8a9-0x8a9.7 (1)
0x8a0|                              01               |          .     |      [37]: 1 transition_type 0x8aa-0x8aa.7 (1)
0x8a0|                                 02            |           .    |      [38]: 2 transition_type 0x8ab-0x8ab.7 (1)
0x8a0|                                    01         |            .   |      [39]: 1 transition_type 0x8ac-0x8ac.7 (1)
0x8a0|                                       02      |             .  |      [40]: 2 transition_type 0x8ad-0x8ad.7 (1)
0x8a0|                                          01   |              . |      [41]: 1 transition_type 0x8ae-0x8ae.7 (1)
0x8a0|                                             02|               .|      [42]: 2 transition_type 0x8af-0x8af.7 (1)
0x8b0|01                                             |.               |      [43]: 1 transition_type 0x8b0-0x8b0.7 (1)
0x8b0|   02                                          | .              |      [44]: 2 transition_type 0x8b1-0x8b1.7 (1)
0x8b0|      01                                       |  .             |      [45]: 1 transition_type 0x8b2-0x8b2.7 (1)
0x8b0|         02                                    |   .            |      [46]: 2 transition_type 0x8b3-0x8b3.7 (1)
0x8b0|            01                                 |    .           |      [47]: 1 transition_type 0x8b4-0x8b4.7 (1)
0x8b0|               02                              |     .          |      [48]: 2 transition_type 0x8b5-0x8b5.7 (1)
0x8b0|                  01                           |      .         |      [49]: 1 transition_type 0x8b6-0x8b6.7 (1)
0x8b0|                     02                        |       .        |      [50]: 2 transition_type 0x8b7-0x8b7.7 (1)
0x8b0|                        01                     |        .       |      [51]: 1 transition_type 0x8b8-0x8b8.7 (1)
0x8b0|                           02                  |         .      |      [52]: 2 transition_type 0x8b9-0x8b9.7 (1)
0x8b0|                              01               |          .     |      [53]: 1 transition_type 0x8ba-0x8ba.7 (1)
0x8b0|                                 03            |           .    |      [54]: 3 transition_type 0x8bb-0x8bb.7 (1)
0x8b0|                                    04         |            .   |      [55]: 4 transition_type 0x8bc-0x8bc.7 (1)
0x8b0|                                       03      |             .  |      [56]: 3 transition_type 0x8bd-0x8bd.7 (1)
0x8b0|                                          04   |              . |      [57]: 4 transition_type 0x8be-0x8be.7 (1)
0x8b0|                                             03|               .|      [58]: 3 transition_type 0x8bf-0x8bf.7 (1)
0x8c0|04                                             |.               |      [59]: 4 transition_type 0x8c0-0x8c0.7 (1)
0x8c0|   03                                          | .              |      [60]: 3 transition_type 0x8c1-0x8c1.7 (1)
0x8c0|      04                                       |  .             |      [61]: 4 transition_type 0x8c2-0x8c2.7 (1)
0x8c0|         03                                    |   .            |      [62]: 3 transition_type 0x8c3-0x8c3.7 (1)
0x8c0|            04                                 |    .           |      [63]: 4 transition_type 0x8c4-0x8c4.7 (1)
0x8c0|               03                              |     .          |      [64]: 3 transition_type 0x8c5-0x8c5.7 (1)
0x8c0|                  04                           |      .         |      [65]: 4 transition_type 0x8c6-0x8c6.7 (1)
0x8c0|                     03                        |       .        |      [66]: 3 transition_type 0x8c7-0x8c7.7 (1)
0x8c0|                        04                     |        .       |      [67]: 4 transition_type 0x8c8-0x8c8.7 (1)
0x8c0|                           03                  |         .      |      [68]: 3 transition_type 0x8c9-0x8c9.7 (1)
0x8c0|                              04               |          .     |      [69]: 4 transition_type 0x8ca-0x8ca.7 (1)
0x8c0|                                 03            |           .    |      [70]: 3 transition_type 0x8cb-0x8cb.7 (1)
0x8c0|                                    04         |            .   |      [71]: 4 transition_type 0x8cc-0x8cc.7 (1)
0x8c0|                                       03      |             .  |      [72]: 3 transition_type 0x8cd-0x8cd.7 (1)
0x8c0|                                          04   |              . |      [73]: 4 transition_type 0x8ce-0x8ce.7 (1)
0x8c0|                                             03|               .|      [74]: 3 transition_type 0x8cf-0x8cf.7 (1)
0x8d0|04                                             |.               |      [75]: 4 transition_type 0x8d0-0x8d0.7 (1)
0x8d0|   03                                          | .              |      [76]: 3 transition_type 0x8d1-0x8d1.7 (1)
0x8d0|      04                                       |  .             |      [77]: 4 transition_type 0x8d2-0x8d2.7 (1)
0x8d0|         03                                    |   .            |      [78]: 3 transition_type 0x8d3-0x8d3.7 (1)
0x8d0|            04                                 |    .           |      [79]: 4 transition_type 0x8d4-0x8d4.7 (1)
0x8d0|               03                              |     .          |      [80]: 3 transition_type 0x8d5-0x8d5.7 (1)
0x8d0|                  04                           |      .         |      [81]: 4 transition_type 0x8d6-0x8d6.7 (1)
0x8d0|                     03                        |       .        |      [82]: 3 transition_type 0x8d7-0x8d7.7 (1)
0x8d0|                        04                     |        .       |      [83]: 4 transition_type 0x8d8-0x8d8.7 (1)
0x8d0|                           03                  |         .      |      [84]: 3 transition_type 0x8d9-0x8d9.7 (1)
0x8d0|                              04               |          .     |      [85]: 4 transition_type 0x8da-0x8da.7 (1)
0x8d0|                                 03            |           .    |      [86]: 3 transition_type 0x8db-0x8db.7 (1)
0x8d0|                                    04         |            .   |      [87]: 4 transition_type 0x8dc-0x8dc.7 (1)
0x8d0|                                       03      |             .  |      [88]: 3 transition_type 0x8dd-0x8dd.7 (1)
0x8d0|                                          04   |              . |      [89]: 4 transition_type 0x8de-0x8de.7 (1)
0x8d0|                                             03|               .|      [90]: 3 transition_type 0x8df-0x8df.7 (1)
0x8e0|04                                             |.               |      [91]: 4 transition_type 0x8e0-0x8e0.7 (1)
0x8e0|   03                                          | .              |      [92]: 3 transition_type 0x8e1-0x8e1.7 (1)
0x8e0|      04                                       |  .             |      [93]: 4 transition_type 0x8e2-0x8e2.7 (1)
0x8e0|         03                                    |   .            |      [94]: 3 transition_type 0x8e3-0x8e3.7 (1)
0x8e0|            04                                 |    .           |      [95]: 4 transition_type 0x8e4-0x8e4.7 (1)
0x8e0|               03                              |     .          |      [96]: 3 transition_type 0x8e5-0x8e5.7 (1)
0x8e0|                  04                           |      .         |      [97]: 4 transition_type 0x8e6-0x8e6.7 (1)
0x8e0|                     03                        |       .        |      [98]: 3 transition_type 0x8e7-0x8e7.7 (1)
0x8e0|                        04                     |        .       |      [99]: 4 transition_type 0x8e8-0x8e8.7 (1)
0x8e0|                           03                  |         .      |      [100]: 3 transition_type 0x8e9-0x8e9.7 (1)
0x8e0|                              04               |          .     |      [101]: 4 transition_type 0x8ea-0x8ea.7 (1)
0x8e0|                                 03            |           .    |      [102]: 3 transition_type 0x8eb-0x8eb.7 (1)
0x8e0|                                    04         |            .   |      [103]: 4 transition_type 0x8ec-0x8ec.7 (1)
0x8e0|                                       03      |             .  |      [104]: 3 transition_type 0x8ed-0x8ed.7 (1)
0x8e0|                                          04   |              . |      [105]: 4 transition_type 0x8ee-0x8ee.7 (1)
0x8e0|                                             03|               .|      [106]: 3 transition_type 0x8ef-0x8ef.7 (1)
0x8f0|04                                             |.               |      [107]: 4 transition_type 0x8f0-0x8f0.7 (1)
0x8f0|   03                                          | .              |      [108]: 3 transition_type 0x8f1-0x8f1.7 (1)
0x8f0|      04                                       |  .             |      [109]: 4 transition_type 0x8f2-0x8f2.7 (1)
0x8f0|         03                                    |   .            |      [110]: 3 transition_type 0x8f3-0x8f3.7 (1)
0x8f0|            04                                 |    .           |      [111]: 4 transition_type 0x8f4-0x8f4.7 (1)
0x8f0|               03                              |     .          |      [112]: 3 transition_type 0x8f5-0x8f5.7 (1)
0x8f0|                  04                           |      .         |      [113]: 4 transition_type 0x8f6-0x8f6.7 (1)
0x8f0|                     03                        |       .        |      [114]: 3 transition_type 0x8f7-0x8f7.7 (1)
0x8f0|                        04                     |        .       |      [115]: 4 transition_type 0x8f8-0x8f8.7 (1)
0x8f0|                           03                  |         .      |      [116]: 3 transition_type 0x8f9-0x8f9.7 (1)
0x8f0|                              04               |          .     |      [117]: 4 transition_type 0x8fa-0x8fa.7 (1)
0x8f0|                                 03            |           .    |      [118]: 3 transition_type 0x8fb-0x8fb.7 (1)
0x8f0|                                    04         |            .   |      [119]: 4 transition_type 0x8fc-0x8fc.7 (1)
0x8f0|                                       03      |             .  |      [120]: 3 transition_type 0x8fd-0x8fd.7 (1)
0x8f0|                                          04   |              . |      [121]: 4 transition_type 0x8fe-0x8fe.7 (1)
0x8f0|                                             03|               .|      [122]: 3 transition_type 0x8ff-0x8ff.7 (1)
0x900|04                                             |.               |      [123]: 4 transition_type 0x900-0x900.7 (1)
0x900|   03                                          | .              |      [124]: 3 transition_type 0x901-0x901.7 (1)
0x900|      04                                       |  .             |      [125]: 4 transition_type 0x902-0x902.7 (1)
0x900|         03                                    |   .            |      [126]: 3 transition_type 0x903-0x903.7 (1)
0x900|            04                                 |    .           |      [127]: 4 transition_type 0x904-0x904.7 (1)
0x900|               03                              |     .          |      [128]: 3 transition_type 0x905-0x905.7 (1)
0x900|                  04                           |      .         |      [129]: 4 transition_type 0x906-0x906.7 (1)
0x900|                     03                        |       .        |      [130]: 3 transition_type 0x907-0x907.7 (1)
0x900|                        04                     |        .       |      [131]: 4 transition_type 0x908-0x908.7 (1)
0x900|                           03                  |         .      |      [132]: 3 transition_type 0x909-0x909.7 (1)
0x900|                              04               |          .     |      [133]: 4 transition_type 0x90a-0x90a.7 (1)
0x900|                                 03            |           .    |      [134]: 3 transition_type 0x90b-0x90b.7 (1)
0x900|                                    04         |            .   |      [135]: 4 transition_type 0x90c-0x90c.7 (1)
0x900|                                       03      |             .  |      [136]: 3 transition_type 0x90d-0x90d.7 (1)
0x900|                                          04   |              . |      [137]: 4 transition_type 0x90e-0x90e.7 (1)
0x900|                                             03|               .|      [138]: 3 transition_type 0x90f-0x90f.7 (1)
0x910|04                                             |.               |      [139]: 4 transition_type 0x910-0x910.7 (1)
0x910|   03                                          | .              |      [140]: 3 transition_type 0x911-0x911.7 (1)
0x910|      04                                       |  .             |      [141]: 4 transition_type 0x912-0x912.7 (1)
0x910|         03                                    |   .            |      [142]: 3 transition_type 0x913-0x913.7 (1)
0x910|            04                                 |    .           |      [143]: 4 transition_type 0x914-0x914.7 (1)
0x910|               03                              |     .          |      [144]: 3 transition_type 0x915-0x915.7 (1)
0x910|                  04                           |      .         |      [145]: 4 transition_type 0x916-0x916.7 (1)
0x910|                     03                        |       .        |      [146]: 3 transition_type 0x917-0x917.7 (1)
0x910|                        04                     |        .       |      [147]: 4 transition_type 0x918-0x918.7 (1)
0x910|                           03                  |         .      |      [148]: 3 transition_type 0x919-0x919.7 (1)
0x910|                              04               |          .     |      [149]: 4 transition_type 0x91a-0x91a.7 (1)
0x910|                                 03            |           .    |      [150]: 3 transition_type 0x91b-0x91b.7 (1)
0x910|                                    04         |            .   |      [151]: 4 transition_type 0x91c-0x91c.7 (1)
0x910|                                       03      |             .  |      [152]: 3 transition_type 0x91d-0x91d.7 (1)
0x910|                                          04   |              . |      [153]: 4 transition_type 0x91e-0x91e.7 (1)
0x910|                                             03|               .|      [154]: 3 transition_type 0x91f-0x91f.7 (1)
0x920|04                                             |.               |      [155]: 4 transition_type 0x920-0x920.7 (1)
0x920|   03                                          | .              |      [156]: 3 transition_type 0x921-0x921.7 (1)
0x920|      04                                       |  .             |      [157]: 4 transition_type 0x922-0x922.7 (1)
0x920|         03                                    |   .            |      [158]: 3 transition_type 0x923-0x923.7 (1)
0x920|            04                                 |    .           |      [159]: 4 transition_type 0x924-0x924.7 (1)
0x920|               03                              |     .          |      [160]: 3 transition_type 0x925-0x925.7 (1)
0x920|                  04                           |      .         |      [161]: 4 transition_type 0x926-0x926.7 (1)
0x920|                     03                        |       .        |      [162]: 3 transition_type 0x927-0x927.7 (1)
0x920|                        04                     |        .       |      [163]: 4 transition_type 0x928-0x928.7 (1)
0x920|                           03                  |         .      |      [164]: 3 transition_type 0x929-0x929.7 (1)
0x920|                              04               |          .     |      [165]: 4 transition_type 0x92a-0x92a.7 (1)
0x920|                                 03            |           .    |      [166]: 3 transition_type 0x92b-0x92b.7 (1)
0x920|                                    04         |            .   |      [167]: 4 transition_type 0x92c-0x92c.7 (1)
0x920|                                       03      |             .  |      [168]: 3 transition_type 0x92d-0x92d.7 (1)
0x920|                                          04   |              . |      [169]: 4 transition_type 0x92e-0x92e.7 (1)
0x920|                                             03|               .|      [170]: 3 transition_type 0x92f-0x92f.7 (1)
0x930|04                                             |.               |      [171]: 4 transition_type 0x930-0x930.7 (1)
0x930|   03                                          | .              |      [172]: 3 transition_type 0x931-0x931.7 (1)
0x930|      04                                       |  .             |      [173]: 4 transition_type 0x932-0x932.7 (1)
0x930|         03                                    |   .            |      [174]: 3 transition_type 0x933-0x933.7 (1)
0x930|            04                                 |    .           |      [175]: 4 transition_type 0x934-0x934.7 (1)
0x930|               03                              |     .          |      [176]: 3 transition_type 0x935-0x935.7 (1)
0x930|                  04                           |      .         |      [177]: 4 transition_type 0x936-0x936.7 (1)
0x930|                     03                        |       .        |      [178]: 3 transition_type 0x937-0x937.7 (1)
0x930|                        04                     |        .       |      [179]: 4 transition_type 0x938-0x938.7 (1)
0x930|                           03                  |         .      |      [180]: 3 transition_type 0x939-0x939.7 (1)
0x930|                              04               |          .     |      [181]: 4 transition_type 0x93a-0x93a.7 (1)
0x930|                                 03            |           .    |      [182]: 3 transition_type 0x93b-0x93b.7 (1)
0x930|                                    04         |            .   |      [183]: 4 transition_type 0x93c-0x93c.7 (1)
0x930|                                       03      |             .  |      [184]: 3 transition_type 0x93d-0x93d.7 (1)
0x930|                                          04   |              . |      [185]: 4 transition_type 0x93e-0x93e.7 (1)
0x930|                                             03|               .|      [186]: 3 transition_type 0x93f-0x93f.7 (1)
0x940|04                                             |.               |      [187]: 4 transition_type 0x940-0x940.7 (1)
0x940|   03                                          | .              |      [188]: 3 transition_type 0x941-0x941.7 (1)
0x940|      04                                       |  .             |      [189]: 4 transition_type 0x942-0x942.7 (1)
0x940|         03                                    |   .            |      [190]: 3 transition_type 0x943-0x943.7 (1)
0x940|            04                                 |    .           |      [191]: 4 transition_type 0x944-0x944.7 (1)
0x940|               03                              |     .          |      [192]: 3 transition_type 0x945-0x945.7 (1)
0x940|                  04                           |      .         |      [193]: 4 transition_type 0x946-0x946.7 (1)
0x940|                     03                        |       .        |      [194]: 3 transition_type 0x947-0x947.7 (1)
0x940|                        04                     |        .       |      [195]: 4 transition_type 0x948-0x948.7 (1)
0x940|                           03                  |         .      |      [196]: 3 transition_type 0x949-0x949.7 (1)
     |                                               |                |    local_time_type_records[0:5]: 0x94a-0x967.7 (30)
     |                                               |                |      [0]{}: local_time_type 0x94a-0x94f.7 (6)
0x940|                              ff ff f8 e4      |          ....  |        utoff: -1820 (valid) 0x94a-0x94d.7 (4)
0x940|                                          00   |              . |        dst: 0 (valid) 0x94e-0x94e.7 (1)
0x940|                                             00|               .|        idx: 0 (valid) 0x94f-0x94f.7 (1)
     |                                               |                |      [1]{}: local_time_type 0x950-0x955.7 (6)
0x950|00 00 0e 10                                    |....            |        utoff: 3600 (valid) 0x950-0x953.7 (4)
0x950|            01                                 |    .           |        dst: 1 (valid) 0x954-0x954.7 (1)
0x950|               04                              |     .          |        idx: 4 (valid) 0x955-0x955.7 (1)
     |                                               |                |      [2]{}: local_time_type 0x956-0x95b.7 (6)
0x950|                  00 00 00 00                  |      ....      |        utoff: 0 (valid) 0x956-0x959.7 (4)
0x950|                              00               |          .     |        dst: 0 (valid) 0x95a-0x95a.7 (1)
0x950|                                 08            |           .    |        idx: 8 (valid) 0x95b-0x95b.7 (1)
     |                                               |                |      [3]{}: local_time_type 0x95c-0x961.7 (6)
0x950|                                    00 00 0e 10|            ....|        utoff: 3600 (valid) 0x95c-0x95f.7 (4)
0x960|00                                             |.               |        dst: 0 (valid) 0x960-0x960.7 (1)
0x960|   04                                          | .              |        idx: 4 (valid) 0x961-0x961.7 (1)
     |                                               |                |      [4]{}: local_time_type 0x962-0x967.7 (6)
0x960|      00 00 00 00                              |  ....          |        utoff: 0 (valid) 0x962-0x965.7 (4)
0x960|                  01                           |      .         |        dst: 1 (valid) 0x966-0x966.7 (1)
0x960|                     08                        |       .        |        idx: 8 (valid) 0x967-0x967.7 (1)
     |                                               |                |    time_zone_designations[0:3]: 0x968-0x973.7 (12)
0x960|                        4c 4d 54 00            |        LMT.    |      [0]: "LMT" time_zone_designation 0x968-0x96b.7 (4)
0x960|                                    2b 30 31 00|            +01.|      [1]: "+01" time_zone_designation 0x96c-0x96f.7 (4)
0x970|2b 30 30 00                                    |+00.            |      [2]: "+00" time_zone_designation 0x970-0x973.7 (4)
     |                                               |                |    leap_second_records[0:0]: 0x974-NA (0)
     |                                               |                |    standard_wall_indicators[0:0]: 0x974-NA (0)
     |                                               |                |    ut_local_indicators[0:0]: 0x974-NA (0)
     |                                               |                |  footer{}: 0x974-0x97c.7 (9)
0x970|            0a                                 |    .           |    nl1: 10 (valid) 0x974-0x974.7 (1)
0x970|               3c 2b 30 31 3e 2d 31            |     <+01>-1    |    tz_string: "<+01>-1" 0x975-0x97b.7 (7)
0x970|                                    0a|        |            .|  |    nl2: 10 (valid) 0x97c-0x97c.7 (1)
