$ fq -d tzif dv Casey
     |00 01 02 03 04 05 06 07 08 09 0a 0b 0c 0d 0e 0f|0123456789abcdef|.{}: Casey (tzif) 0x0-0x394 (916)
     |                                               |                |  v1header{}: 0x0-0x2c (44)
0x000|54 5a 69 66                                    |TZif            |    magic: 0x545a6966 (valid) 0x0-0x4 (4)
0x000|            32                                 |    2           |    ver: "2" (0x32) (valid) 0x4-0x5 (1)
0x000|               00 00 00 00 00 00 00 00 00 00 00|     ...........|    reserved: raw bits 0x5-0x14 (15)
0x010|00 00 00 00                                    |....            |
0x010|            00 00 00 05                        |    ....        |    isutcnt: 5 0x14-0x18 (4)
0x010|                        00 00 00 05            |        ....    |    isstdcnt: 5 0x18-0x1c (4)
0x010|                                    00 00 00 1b|            ....|    leapcnt: 27 0x1c-0x20 (4)
0x020|00 00 00 0d                                    |....            |    timecnt: 13 0x20-0x24 (4)
0x020|            00 00 00 05                        |    ....        |    typecnt: 5 0x24-0x28 (4)
0x020|                        00 00 00 0c            |        ....    |    charcnt: 12 0x28-0x2c (4)
     |                                               |                |  v1datablock{}: 0x2c-0x179 (333)
     |                                               |                |    transition_times[0:13]: 0x2c-0x60 (52)
0x020|                                    fe 1e cc 80|            ....|      [0]: "1969-01-01T00:00:00Z" (-31536000) transition_time 0x2c-0x30 (4)
0x030|4a da 06 38                                    |J..8            |      [1]: "2009-10-17T18:00:24Z" (1255802424) transition_time 0x30-0x34 (4)
0x030|            4b 8f cb 08                        |    K...        |      [2]: "2010-03-04T15:00:24Z" (1267714824) transition_time 0x34-0x38 (4)
0x030|                        4e a9 9c 38            |        N..8    |      [3]: "2011-10-27T18:00:24Z" (1319738424) transition_time 0x38-0x3c (4)
0x030|                                    4f 43 cd a8|            OC..|      [4]: "2012-02-21T17:00:24Z" (1329843624) transition_time 0x3c-0x40 (4)
0x040|58 0a 3b 9a                                    |X.;.            |      [5]: "2016-10-21T16:00:26Z" (1477065626) transition_time 0x40-0x44 (4)
0x040|            5a a4 0f 2b                        |    Z..+        |      [6]: "2018-03-10T17:00:27Z" (1520701227) transition_time 0x44-0x48 (4)
0x040|                        5b b9 14 5b            |        [..[    |      [7]: "2018-10-06T20:00:27Z" (1538856027) transition_time 0x48-0x4c (4)
0x040|                                    5c 8d 1d 9b|            \...|      [8]: "2019-03-16T16:00:27Z" (1552752027) transition_time 0x4c-0x50 (4)
0x050|5d 96 45 4b                                    |].EK            |      [9]: "2019-10-03T19:00:27Z" (1570129227) transition_time 0x50-0x54 (4)
0x050|            5e 63 c5 1b                        |    ^c..        |      [10]: "2020-03-07T16:00:27Z" (1583596827) transition_time 0x54-0x58 (4)
0x050|                        5f 78 a0 57            |        _x.W    |      [11]: "2020-10-03T16:01:27Z" (1601740887) transition_time 0x58-0x5c (4)
0x050|                                    64 9b 78 1b|            d.x.|      [12]: "2023-06-28T00:00:27Z" (1687910427) transition_time 0x5c-0x60 (4)
     |                                               |                |    transition_types[0:13]: 0x60-0x6d (13)
0x060|01                                             |.               |      [0]: 1 transition_type 0x60-0x61 (1)
0x060|   02                                          | .              |      [1]: 2 transition_type 0x61-0x62 (1)
0x060|      01                                       |  .             |      [2]: 1 transition_type 0x62-0x63 (1)
0x060|         02                                    |   .            |      [3]: 2 transition_type 0x63-0x64 (1)
0x060|            03                                 |    .           |      [4]: 3 transition_type 0x64-0x65 (1)
0x060|               02                              |     .          |      [5]: 2 transition_type 0x65-0x66 (1)
0x060|                  01                           |      .         |      [6]: 1 transition_type 0x66-0x67 (1)
0x060|                     02                        |       .        |      [7]: 2 transition_type 0x67-0x68 (1)
0x060|                        01                     |        .       |      [8]: 1 transition_type 0x68-0x69 (1)
0x060|                           02                  |         .      |      [9]: 2 transition_type 0x69-0x6a (1)
0x060|                              01               |          .     |      [10]: 1 transition_type 0x6a-0x6b (1)
0x060|                                 02            |           .    |      [11]: 2 transition_type 0x6b-0x6c (1)
0x060|                                    02         |            .   |      [12]: 2 transition_type 0x6c-0x6d (1)
     |                                               |                |    local_time_type_records[0:5]: 0x6d-0x8b (30)
     |                                               |                |      [0]{}: local_time_type 0x6d-0x73 (6)
0x060|                                       00 00 00|             ...|        utoff: 0 (valid) 0x6d-0x71 (4)
0x070|00                                             |.               |
0x070|   00                                          | .              |        dst: 0 (valid) 0x71-0x72 (1)
0x070|      00                                       |  .             |        idx: 0 (valid) 0x72-0x73 (1)
     |                                               |                |      [1]{}: local_time_type 0x73-0x79 (6)
0x070|         00 00 70 80                           |   ..p.         |        utoff: 28800 (valid) 0x73-0x77 (4)
0x070|                     00                        |       .        |        dst: 0 (valid) 0x77-0x78 (1)
0x070|                        04                     |        .       |        idx: 4 (valid) 0x78-0x79 (1)
     |                                               |                |      [2]{}: local_time_type 0x79-0x7f (6)
0x070|                           00 00 9a b0         |         ....   |        utoff: 39600 (valid) 0x79-0x7d (4)
0x070|                                       00      |             .  |        dst: 0 (valid) 0x7d-0x7e (1)
0x070|                                          08   |              . |        idx: 8 (valid) 0x7e-0x7f (1)
     |                                               |                |      [3]{}: local_time_type 0x7f-0x85 (6)
0x070|                                             00|               .|        utoff: 28800 (valid) 0x7f-0x83 (4)
0x080|00 70 80                                       |.p.             |
0x080|         00                                    |   .            |        dst: 0 (valid) 0x83-0x84 (1)
0x080|            04                                 |    .           |        idx: 4 (valid) 0x84-0x85 (1)
     |                                               |                |      [4]{}: local_time_type 0x85-0x8b (6)
0x080|               00 00 9a b0                     |     ....       |        utoff: 39600 (valid) 0x85-0x89 (4)
0x080|                           00                  |         .      |        dst: 0 (valid) 0x89-0x8a (1)
0x080|                              08               |          .     |        idx: 8 (valid) 0x8a-0x8b (1)
     |                                               |                |    time_zone_designations[0:3]: 0x8b-0x97 (12)
0x080|                                 2d 30 30 00   |           -00. |      [0]: "-00" time_zone_designation 0x8b-0x8f (4)
0x080|                                             2b|               +|      [1]: "+08" time_zone_designation 0x8f-0x93 (4)
0x090|30 38 00                                       |08.             |
0x090|         2b 31 31 00                           |   +11.         |      [2]: "+11" time_zone_designation 0x93-0x97 (4)
     |                                               |                |    leap_second_records[0:27]: 0x97-0x16f (216)
     |                                               |                |      [0]{}: leap_second_record 0x97-0x9f (8)
0x090|                     04 b2 58 00               |       ..X.     |        occur: "1972-07-01T00:00:00Z" (78796800) 0x97-0x9b (4)
0x090|                                 00 00 00 01   |           .... |        corr: 1 0x9b-0x9f (4)
     |                                               |                |      [1]{}: leap_second_record 0x9f-0xa7 (8)
0x090|                                             05|               .|        occur: "1973-01-01T00:00:01Z" (94694401) 0x9f-0xa3 (4)
0x0a0|a4 ec 01                                       |...             |
0x0a0|         00 00 00 02                           |   ....         |        corr: 2 0xa3-0xa7 (4)
     |                                               |                |      [2]{}: leap_second_record 0xa7-0xaf (8)
0x0a0|                     07 86 1f 82               |       ....     |        occur: "1974-01-01T00:00:02Z" (126230402) 0xa7-0xab (4)
0x0a0|                                 00 00 00 03   |           .... |        corr: 3 0xab-0xaf (4)
     |                                               |                |      [3]{}: leap_second_record 0xaf-0xb7 (8)
0x0a0|                                             09|               .|        occur: "1975-01-01T00:00:03Z" (157766403) 0xaf-0xb3 (4)
0x0b0|67 53 03                                       |gS.             |
0x0b0|         00 00 00 04                           |   ....         |        corr: 4 0xb3-0xb7 (4)
     |                                               |                |      [4]{}: leap_second_record 0xb7-0xbf (8)
0x0b0|                     0b 48 86 84               |       .H..     |        occur: "1976-01-01T00:00:04Z" (189302404) 0xb7-0xbb (4)
0x0b0|                                 00 00 00 05   |           .... |        corr: 5 0xbb-0xbf (4)
     |                                               |                |      [5]{}: leap_second_record 0xbf-0xc7 (8)
0x0b0|                                             0d|               .|        occur: "1977-01-01T00:00:05Z" (220924805) 0xbf-0xc3 (4)
0x0c0|2b 0b 85                                       |+..             |
0x0c0|         00 00 00 06                           |   ....         |        corr: 6 0xc3-0xc7 (4)
     |                                               |                |      [6]{}: leap_second_record 0xc7-0xcf (8)
0x0c0|                     0f 0c 3f 06               |       ..?.     |        occur: "1978-01-01T00:00:06Z" (252460806) 0xc7-0xcb (4)
0x0c0|                                 00 00 00 07   |           .... |        corr: 7 0xcb-0xcf (4)
     |                                               |                |      [7]{}: leap_second_record 0xcf-0xd7 (8)
0x0c0|                                             10|               .|        occur: "1979-01-01T00:00:07Z" (283996807) 0xcf-0xd3 (4)
0x0d0|ed 72 87                                       |.r.             |
0x0d0|         00 00 00 08                           |   ....         |        corr: 8 0xd3-0xd7 (4)
     |                                               |                |      [8]{}: leap_second_record 0xd7-0xdf (8)
0x0d0|                     12 ce a6 08               |       ....     |        occur: "1980-01-01T00:00:08Z" (315532808) 0xd7-0xdb (4)
0x0d0|                                 00 00 00 09   |           .... |        corr: 9 0xdb-0xdf (4)
     |                                               |                |      [9]{}: leap_second_record 0xdf-0xe7 (8)
0x0d0|                                             15|               .|        occur: "1981-07-01T00:00:09Z" (362793609) 0xdf-0xe3 (4)
0x0e0|9f ca 89                                       |...             |
0x0e0|         00 00 00 0a                           |   ....         |        corr: 10 0xe3-0xe7 (4)
     |                                               |                |      [10]{}: leap_second_record 0xe7-0xef (8)
0x0e0|                     17 80 fe 0a               |       ....     |        occur: "1982-07-01T00:00:10Z" (394329610) 0xe7-0xeb (4)
0x0e0|                                 00 00 00 0b   |           .... |        corr: 11 0xeb-0xef (4)
     |                                               |                |      [11]{}: leap_second_record 0xef-0xf7 (8)
0x0e0|                                             19|               .|        occur: "1983-07-01T00:00:11Z" (425865611) 0xef-0xf3 (4)
0x0f0|62 31 8b                                       |b1.             |
0x0f0|         00 00 00 0c                           |   ....         |        corr: 12 0xf3-0xf7 (4)
     |                                               |                |      [12]{}: leap_second_record 0xf7-0xff (8)
0x0f0|                     1d 25 ea 0c               |       .%..     |        occur: "1985-07-01T00:00:12Z" (489024012) 0xf7-0xfb (4)
0x0f0|                                 00 00 00 0d   |           .... |        corr: 13 0xfb-0xff (4)
     |                                               |                |      [13]{}: leap_second_record 0xff-0x107 (8)
0x0f0|                                             21|               !|        occur: "1988-01-01T00:00:13Z" (567993613) 0xff-0x103 (4)
0x100|da e5 0d                                       |...             |
0x100|         00 00 00 0e                           |   ....         |        corr: 14 0x103-0x107 (4)
     |                                               |                |      [14]{}: leap_second_record 0x107-0x10f (8)
0x100|                     25 9e 9d 8e               |       %...     |        occur: "1990-01-01T00:00:14Z" (631152014) 0x107-0x10b (4)
0x100|                                 00 00 00 0f   |           .... |        corr: 15 0x10b-0x10f (4)
     |                                               |                |      [15]{}: leap_second_record 0x10f-0x117 (8)
0x100|                                             27|               '|        occur: "1991-01-01T00:00:15Z" (662688015) 0x10f-0x113 (4)
0x110|7f d1 0f                                       |...             |
0x110|         00 00 00 10                           |   ....         |        corr: 16 0x113-0x117 (4)
     |                                               |                |      [16]{}: leap_second_record 0x117-0x11f (8)
0x110|                     2a 50 f5 90               |       *P..     |        occur: "1992-07-01T00:00:16Z" (709948816) 0x117-0x11b (4)
0x110|                                 00 00 00 11   |           .... |        corr: 17 0x11b-0x11f (4)
     |                                               |                |      [17]{}: leap_second_record 0x11f-0x127 (8)
0x110|                                             2c|               ,|        occur: "1993-07-01T00:00:17Z" (741484817) 0x11f-0x123 (4)
0x120|32 29 11                                       |2).             |
0x120|         00 00 00 12                           |   ....         |        corr: 18 0x123-0x127 (4)
     |                                               |                |      [18]{}: leap_second_record 0x127-0x12f (8)
0x120|                     2e 13 5c 92               |       ..\.     |        occur: "1994-07-01T00:00:18Z" (773020818) 0x127-0x12b (4)
0x120|                                 00 00 00 13   |           .... |        corr: 19 0x12b-0x12f (4)
     |                                               |                |      [19]{}: leap_second_record 0x12f-0x137 (8)
0x120|                                             30|               0|        occur: "1996-01-01T00:00:19Z" (820454419) 0x12f-0x133 (4)
0x130|e7 24 13                                       |.$.             |
0x130|         00 00 00 14                           |   ....         |        corr: 20 0x133-0x137 (4)
     |                                               |                |      [20]{}: leap_second_record 0x137-0x13f (8)
0x130|                     33 b8 48 94               |       3.H.     |        occur: "1997-07-01T00:00:20Z" (867715220) 0x137-0x13b (4)
0x130|                                 00 00 00 15   |           .... |        corr: 21 0x13b-0x13f (4)
     |                                               |                |      [21]{}: leap_second_record 0x13f-0x147 (8)
0x130|                                             36|               6|        occur: "1999-01-01T00:00:21Z" (915148821) 0x13f-0x143 (4)
0x140|8c 10 15                                       |...             |
0x140|         00 00 00 16                           |   ....         |        corr: 22 0x143-0x147 (4)
     |                                               |                |      [22]{}: leap_second_record 0x147-0x14f (8)
0x140|                     43 b7 1b 96               |       C...     |        occur: "2006-01-01T00:00:22Z" (1136073622) 0x147-0x14b (4)
0x140|                                 00 00 00 17   |           .... |        corr: 23 0x14b-0x14f (4)
     |                                               |                |      [23]{}: leap_second_record 0x14f-0x157 (8)
0x140|                                             49|               I|        occur: "2009-01-01T00:00:23Z" (1230768023) 0x14f-0x153 (4)
0x150|5c 07 97                                       |\..             |
0x150|         00 00 00 18                           |   ....         |        corr: 24 0x153-0x157 (4)
     |                                               |                |      [24]{}: leap_second_record 0x157-0x15f (8)
0x150|                     4f ef 93 18               |       O...     |        occur: "2012-07-01T00:00:24Z" (1341100824) 0x157-0x15b (4)
0x150|                                 00 00 00 19   |           .... |        corr: 25 0x15b-0x15f (4)
     |                                               |                |      [25]{}: leap_second_record 0x15f-0x167 (8)
0x150|                                             55|               U|        occur: "2015-07-01T00:00:25Z" (1435708825) 0x15f-0x163 (4)
0x160|93 2d 99                                       |.-.             |
0x160|         00 00 00 1a                           |   ....         |        corr: 26 0x163-0x167 (4)
     |                                               |                |      [26]{}: leap_second_record 0x167-0x16f (8)
0x160|                     58 68 46 9a               |       XhF.     |        occur: "2017-01-01T00:00:26Z" (1483228826) 0x167-0x16b (4)
0x160|                                 00 00 00 1b   |           .... |        corr: 27 0x16b-0x16f (4)
     |                                               |                |    standard_wall_indicators[0:5]: 0x16f-0x174 (5)
0x160|                                             00|               .|      [0]: 0 standard_wall_indicator (valid) 0x16f-0x170 (1)
0x170|00                                             |.               |      [1]: 0 standard_wall_indicator (valid) 0x170-0x171 (1)
0x170|   00                                          | .              |      [2]: 0 standard_wall_indicator (valid) 0x171-0x172 (1)
0x170|      01                                       |  .             |      [3]: 1 standard_wall_indicator (valid) 0x172-0x173 (1)
0x170|         00                                    |   .            |      [4]: 0 standard_wall_indicator (valid) 0x173-0x174 (1)
     |                                               |                |    ut_local_indicators[0:5]: 0x174-0x179 (5)
0x170|            00                                 |    .           |      [0]: 0 ut_local_indicator (valid) 0x174-0x175 (1)
0x170|               00                              |     .          |      [1]: 0 ut_local_indicator (valid) 0x175-0x176 (1)
0x170|                  00                           |      .         |      [2]: 0 ut_local_indicator (valid) 0x176-0x177 (1)
0x170|                     01                        |       .        |      [3]: 1 ut_local_indicator (valid) 0x177-0x178 (1)
0x170|                        00                     |        .       |      [4]: 0 ut_local_indicator (valid) 0x178-0x179 (1)
     |                                               |                |  v2plusheader{}: 0x179-0x1a5 (44)
0x170|                           54 5a 69 66         |         TZif   |    magic: 0x545a6966 (valid) 0x179-0x17d (4)
0x170|                                       32      |             2  |    ver: "2" (0x32) (valid) 0x17d-0x17e (1)
0x170|                                          00 00|              ..|    reserved: raw bits 0x17e-0x18d (15)
0x180|00 00 00 00 00 00 00 00 00 00 00 00 00         |.............   |
0x180|                                       00 00 00|             ...|    isutcnt: 5 0x18d-0x191 (4)
0x190|05                                             |.               |
0x190|   00 00 00 05                                 | ....           |    isstdcnt: 5 0x191-0x195 (4)
0x190|               00 00 00 1b                     |     ....       |    leapcnt: 27 0x195-0x199 (4)
0x190|                           00 00 00 0d         |         ....   |    timecnt: 13 0x199-0x19d (4)
0x190|                                       00 00 00|             ...|    typecnt: 5 0x19d-0x1a1 (4)
0x1a0|05                                             |.               |
0x1a0|   00 00 00 0c                                 | ....           |    charcnt: 12 0x1a1-0x1a5 (4)
     |                                               |                |  v2plusdatablock{}: 0x1a5-0x392 (493)
     |                                               |                |    transition_times[0:13]: 0x1a5-0x20d (104)
0x1a0|               ff ff ff ff fe 1e cc 80         |     ........   |      [0]: "1969-01-01T00:00:00Z" (-31536000) transition_time 0x1a5-0x1ad (8)
0x1a0|                                       00 00 00|             ...|      [1]: "2009-10-17T18:00:24Z" (1255802424) transition_time 0x1ad-0x1b5 (8)
0x1b0|00 4a da 06 38                                 |.J..8           |
0x1b0|               00 00 00 00 4b 8f cb 08         |     ....K...   |      [2]: "2010-03-04T15:00:24Z" (1267714824) transition_time 0x1b5-0x1bd (8)
0x1b0|                                       00 00 00|             ...|      [3]: "2011-10-27T18:00:24Z" (1319738424) transition_time 0x1bd-0x1c5 (8)
0x1c0|00 4e a9 9c 38                                 |.N..8           |
0x1c0|               00 00 00 00 4f 43 cd a8         |     ....OC..   |      [4]: "2012-02-21T17:00:24Z" (1329843624) transition_time 0x1c5-0x1cd (8)
0x1c0|                                       00 00 00|             ...|      [5]: "2016-10-21T16:00:26Z" (1477065626) transition_time 0x1cd-0x1d5 (8)
0x1d0|00 58 0a 3b 9a                                 |.X.;.           |
0x1d0|               00 00 00 00 5a a4 0f 2b         |     ....Z..+   |      [6]: "2018-03-10T17:00:27Z" (1520701227) transition_time 0x1d5-0x1dd (8)
0x1d0|                                       00 00 00|             ...|      [7]: "2018-10-06T20:00:27Z" (1538856027) transition_time 0x1dd-0x1e5 (8)
0x1e0|00 5b b9 14 5b                                 |.[..[           |
0x1e0|               00 00 00 00 5c 8d 1d 9b         |     ....\...   |      [8]: "2019-03-16T16:00:27Z" (1552752027) transition_time 0x1e5-0x1ed (8)
0x1e0|                                       00 00 00|             ...|      [9]: "2019-10-03T19:00:27Z" (1570129227) transition_time 0x1ed-0x1f5 (8)
0x1f0|00 5d 96 45 4b                                 |.].EK           |
0x1f0|               00 00 00 00 5e 63 c5 1b         |     ....^c..   |      [10]: "2020-03-07T16:00:27Z" (1583596827) transition_time 0x1f5-0x1fd (8)
0x1f0|                                       00 00 00|             ...|      [11]: "2020-10-03T16:01:27Z" (1601740887) transition_time 0x1fd-0x205 (8)
0x200|00 5f 78 a0 57                                 |._x.W           |
0x200|               00 00 00 00 64 9b 78 1b         |     ....d.x.   |      [12]: "2023-06-28T00:00:27Z" (1687910427) transition_time 0x205-0x20d (8)
     |                                               |                |    transition_types[0:13]: 0x20d-0x21a (13)
0x200|                                       01      |             .  |      [0]: 1 transition_type 0x20d-0x20e (1)
0x200|                                          02   |              . |      [1]: 2 transition_type 0x20e-0x20f (1)
0x200|                                             01|               .|      [2]: 1 transition_type 0x20f-0x210 (1)
0x210|02                                             |.               |      [3]: 2 transition_type 0x210-0x211 (1)
0x210|   03                                          | .              |      [4]: 3 transition_type 0x211-0x212 (1)
0x210|      02                                       |  .             |      [5]: 2 transition_type 0x212-0x213 (1)
0x210|         01                                    |   .            |      [6]: 1 transition_type 0x213-0x214 (1)
0x210|            02                                 |    .           |      [7]: 2 transition_type 0x214-0x215 (1)
0x210|               01                              |     .          |      [8]: 1 transition_type 0x215-0x216 (1)
0x210|                  02                           |      .         |      [9]: 2 transition_type 0x216-0x217 (1)
0x210|                     01                        |       .        |      [10]: 1 transition_type 0x217-0x218 (1)
0x210|                        02                     |        .       |      [11]: 2 transition_type 0x218-0x219 (1)
0x210|                           02                  |         .      |      [12]: 2 transition_type 0x219-0x21a (1)
     |                                               |                |    local_time_type_records[0:5]: 0x21a-0x238 (30)
     |                                               |                |      [0]{}: local_time_type 0x21a-0x220 (6)
0x210|                              00 00 00 00      |          ....  |        utoff: 0 (valid) 0x21a-0x21e (4)
0x210|                                          00   |              . |        dst: 0 (valid) 0x21e-0x21f (1)
0x210|                                             00|               .|        idx: 0 (valid) 0x21f-0x220 (1)
     |                                               |                |      [1]{}: local_time_type 0x220-0x226 (6)
0x220|00 00 70 80                                    |..p.            |        utoff: 28800 (valid) 0x220-0x224 (4)
0x220|            00                                 |    .           |        dst: 0 (valid) 0x224-0x225 (1)
0x220|               04                              |     .          |        idx: 4 (valid) 0x225-0x226 (1)
     |                                               |                |      [2]{}: local_time_type 0x226-0x22c (6)
0x220|                  00 00 9a b0                  |      ....      |        utoff: 39600 (valid) 0x226-0x22a (4)
0x220|                              00               |          .     |        dst: 0 (valid) 0x22a-0x22b (1)
0x220|                                 08            |           .    |        idx: 8 (valid) 0x22b-0x22c (1)
     |                                               |                |      [3]{}: local_time_type 0x22c-0x232 (6)
0x220|                                    00 00 70 80|            ..p.|        utoff: 28800 (valid) 0x22c-0x230 (4)
0x230|00                                             |.               |        dst: 0 (valid) 0x230-0x231 (1)
0x230|   04                                          | .              |        idx: 4 (valid) 0x231-0x232 (1)
     |                                               |                |      [4]{}: local_time_type 0x232-0x238 (6)
0x230|      00 00 9a b0                              |  ....          |        utoff: 39600 (valid) 0x232-0x236 (4)
0x230|                  00                           |      .         |        dst: 0 (valid) 0x236-0x237 (1)
0x230|                     08                        |       .        |        idx: 8 (valid) 0x237-0x238 (1)
     |                                               |                |    time_zone_designations[0:3]: 0x238-0x244 (12)
0x230|                        2d 30 30 00            |        -00.    |      [0]: "-00" time_zone_designation 0x238-0x23c (4)
0x230|                                    2b 30 38 00|            +08.|      [1]: "+08" time_zone_designation 0x23c-0x240 (4)
0x240|2b 31 31 00                                    |+11.            |      [2]: "+11" time_zone_designation 0x240-0x244 (4)
     |                                               |                |    leap_second_records[0:27]: 0x244-0x388 (324)
     |                                               |                |      [0]{}: leap_second_record 0x244-0x250 (12)
0x240|            00 00 00 00 04 b2 58 00            |    ......X.    |        occur: "1972-07-01T00:00:00Z" (78796800) 0x244-0x24c (8)
0x240|                                    00 00 00 01|            ....|        corr: 1 0x24c-0x250 (4)
     |                                               |                |      [1]{}: leap_second_record 0x250-0x25c (12)
0x250|00 00 00 00 05 a4 ec 01                        |........        |        occur: "1973-01-01T00:00:01Z" (94694401) 0x250-0x258 (8)
0x250|                        00 00 00 02            |        ....    |        corr: 2 0x258-0x25c (4)
     |                                               |                |      [2]{}: leap_second_record 0x25c-0x268 (12)
0x250|                                    00 00 00 00|            ....|        occur: "1974-01-01T00:00:02Z" (126230402) 0x25c-0x264 (8)
0x260|07 86 1f 82                                    |....            |
0x260|            00 00 00 03                        |    ....        |        corr: 3 0x264-0x268 (4)
     |                                               |                |      [3]{}: leap_second_record 0x268-0x274 (12)
0x260|                        00 00 00 00 09 67 53 03|        .....gS.|        occur: "1975-01-01T00:00:03Z" (157766403) 0x268-0x270 (8)
0x270|00 00 00 04                                    |....            |        corr: 4 0x270-0x274 (4)
     |                                               |                |      [4]{}: leap_second_record 0x274-0x280 (12)
0x270|            00 00 00 00 0b 48 86 84            |    .....H..    |        occur: "1976-01-01T00:00:04Z" (189302404) 0x274-0x27c (8)
0x270|                                    00 00 00 05|            ....|        corr: 5 0x27c-0x280 (4)
     |                                               |                |      [5]{}: leap_second_record 0x280-0x28c (12)
0x280|00 00 00 00 0d 2b 0b 85                        |.....+..        |        occur: "1977-01-01T00:00:05Z" (220924805) 0x280-0x288 (8)
0x280|                        00 00 00 06            |        ....    |        corr: 6 0x288-0x28c (4)
     |                                               |                |      [6]{}: leap_second_record 0x28c-0x298 (12)
0x280|                                    00 00 00 00|            ....|        occur: "1978-01-01T00:00:06Z" (252460806) 0x28c-0x294 (8)
0x290|0f 0c 3f 06                                    |..?.            |
0x290|            00 00 00 07                        |    ....        |        corr: 7 0x294-0x298 (4)
     |                                               |                |      [7]{}: leap_second_record 0x298-0x2a4 (12)
0x290|                        00 00 00 00 10 ed 72 87|        ......r.|        occur: "1979-01-01T00:00:07Z" (283996807) 0x298-0x2a0 (8)
0x2a0|00 00 00 08                                    |....            |        corr: 8 0x2a0-0x2a4 (4)
     |                                               |                |      [8]{}: leap_second_record 0x2a4-0x2b0 (12)
0x2a0|            00 00 00 00 12 ce a6 08            |    ........    |        occur: "1980-01-01T00:00:08Z" (315532808) 0x2a4-0x2ac (8)
0x2a0|                                    00 00 00 09|            ....|        corr: 9 0x2ac-0x2b0 (4)
     |                                               |                |      [9]{}: leap_second_record 0x2b0-0x2bc (12)
0x2b0|00 00 00 00 15 9f ca 89                        |........        |        occur: "1981-07-01T00:00:09Z" (362793609) 0x2b0-0x2b8 (8)
0x2b0|                        00 00 00 0a            |        ....    |        corr: 10 0x2b8-0x2bc (4)
     |                                               |                |      [10]{}: leap_second_record 0x2bc-0x2c8 (12)
0x2b0|                                    00 00 00 00|            ....|        occur: "1982-07-01T00:00:10Z" (394329610) 0x2bc-0x2c4 (8)
0x2c0|17 80 fe 0a                                    |....            |
0x2c0|            00 00 00 0b                        |    ....        |        corr: 11 0x2c4-0x2c8 (4)
     |                                               |                |      [11]{}: leap_second_record 0x2c8-0x2d4 (12)
0x2c0|                        00 00 00 00 19 62 31 8b|        .....b1.|        occur: "1983-07-01T00:00:11Z" (425865611) 0x2c8-0x2d0 (8)
0x2d0|00 00 00 0c                                    |....            |        corr: 12 0x2d0-0x2d4 (4)
     |                                               |                |      [12]{}: leap_second_record 0x2d4-0x2e0 (12)
0x2d0|            00 00 00 00 1d 25 ea 0c            |    .....%..    |        occur: "1985-07-01T00:00:12Z" (489024012) 0x2d4-0x2dc (8)
0x2d0|                                    00 00 00 0d|            ....|        corr: 13 0x2dc-0x2e0 (4)
     |                                               |                |      [13]{}: leap_second_record 0x2e0-0x2ec (12)
0x2e0|00 00 00 00 21 da e5 0d                        |....!...        |        occur: "1988-01-01T00:00:13Z" (567993613) 0x2e0-0x2e8 (8)
0x2e0|                        00 00 00 0e            |        ....    |        corr: 14 0x2e8-0x2ec (4)
     |                                               |                |      [14]{}: leap_second_record 0x2ec-0x2f8 (12)
0x2e0|                                    00 00 00 00|            ....|        occur: "1990-01-01T00:00:14Z" (631152014) 0x2ec-0x2f4 (8)
0x2f0|25 9e 9d 8e                                    |%...            |
0x2f0|            00 00 00 0f                        |    ....        |        corr: 15 0x2f4-0x2f8 (4)
     |                                               |                |      [15]{}: leap_second_record 0x2f8-0x304 (12)
0x2f0|                        00 00 00 00 27 7f d1 0f|        ....'...|        occur: "1991-01-01T00:00:15Z" (662688015) 0x2f8-0x300 (8)
0x300|00 00 00 10                                    |....            |        corr: 16 0x300-0x304 (4)
     |                                               |                |      [16]{}: leap_second_record 0x304-0x310 (12)
0x300|            00 00 00 00 2a 50 f5 90            |    ....*P..    |        occur: "1992-07-01T00:00:16Z" (709948816) 0x304-0x30c (8)
0x300|                                    00 00 00 11|            ....|        corr: 17 0x30c-0x310 (4)
     |                                               |                |      [17]{}: leap_second_record 0x310-0x31c (12)
0x310|00 00 00 00 2c 32 29 11                        |....,2).        |        occur: "1993-07-01T00:00:17Z" (741484817) 0x310-0x318 (8)
0x310|                        00 00 00 12            |        ....    |        corr: 18 0x318-0x31c (4)
     |                                               |                |      [18]{}: leap_second_record 0x31c-0x328 (12)
0x310|                                    00 00 00 00|            ....|        occur: "1994-07-01T00:00:18Z" (773020818) 0x31c-0x324 (8)
0x320|2e 13 5c 92                                    |..\.            |
0x320|            00 00 00 13                        |    ....        |        corr: 19 0x324-0x328 (4)
     |                                               |                |      [19]{}: leap_second_record 0x328-0x334 (12)
0x320|                        00 00 00 00 30 e7 24 13|        ....0.$.|        occur: "1996-01-01T00:00:19Z" (820454419) 0x328-0x330 (8)
0x330|00 00 00 14                                    |....            |        corr: 20 0x330-0x334 (4)
     |                                               |                |      [20]{}: leap_second_record 0x334-0x340 (12)
0x330|            00 00 00 00 33 b8 48 94            |    ....3.H.    |        occur: "1997-07-01T00:00:20Z" (867715220) 0x334-0x33c (8)
0x330|                                    00 00 00 15|            ....|        corr: 21 0x33c-0x340 (4)
     |                                               |                |      [21]{}: leap_second_record 0x340-0x34c (12)
0x340|00 00 00 00 36 8c 10 15                        |....6...        |        occur: "1999-01-01T00:00:21Z" (915148821) 0x340-0x348 (8)
0x340|                        00 00 00 16            |        ....    |        corr: 22 0x348-0x34c (4)
     |                                               |                |      [22]{}: leap_second_record 0x34c-0x358 (12)
0x340|                                    00 00 00 00|            ....|        occur: "2006-01-01T00:00:22Z" (1136073622) 0x34c-0x354 (8)
0x350|43 b7 1b 96                                    |C...            |
0x350|            00 00 00 17                        |    ....        |        corr: 23 0x354-0x358 (4)
     |                                               |                |      [23]{}: leap_second_record 0x358-0x364 (12)
0x350|                        00 00 00 00 49 5c 07 97|        ....I\..|        occur: "2009-01-01T00:00:23Z" (1230768023) 0x358-0x360 (8)
0x360|00 00 00 18                                    |....            |        corr: 24 0x360-0x364 (4)
     |                                               |                |      [24]{}: leap_second_record 0x364-0x370 (12)
0x360|            00 00 00 00 4f ef 93 18            |    ....O...    |        occur: "2012-07-01T00:00:24Z" (1341100824) 0x364-0x36c (8)
0x360|                                    00 00 00 19|            ....|        corr: 25 0x36c-0x370 (4)
     |                                               |                |      [25]{}: leap_second_record 0x370-0x37c (12)
0x370|00 00 00 00 55 93 2d 99                        |....U.-.        |        occur: "2015-07-01T00:00:25Z" (1435708825) 0x370-0x378 (8)
0x370|                        00 00 00 1a            |        ....    |        corr: 26 0x378-0x37c (4)
     |                                               |                |      [26]{}: leap_second_record 0x37c-0x388 (12)
0x370|                                    00 00 00 00|            ....|        occur: "2017-01-01T00:00:26Z" (1483228826) 0x37c-0x384 (8)
0x380|58 68 46 9a                                    |XhF.            |
0x380|            00 00 00 1b                        |    ....        |        corr: 27 0x384-0x388 (4)
     |                                               |                |    standard_wall_indicators[0:5]: 0x388-0x38d (5)
0x380|                        00                     |        .       |      [0]: 0 standard_wall_indicator (valid) 0x388-0x389 (1)
0x380|                           00                  |         .      |      [1]: 0 standard_wall_indicator (valid) 0x389-0x38a (1)
0x380|                              00               |          .     |      [2]: 0 standard_wall_indicator (valid) 0x38a-0x38b (1)
0x380|                                 01            |           .    |      [3]: 1 standard_wall_indicator (valid) 0x38b-0x38c (1)
0x380|                                    00         |            .   |      [4]: 0 standard_wall_indicator (valid) 0x38c-0x38d (1)
     |                                               |                |    ut_local_indicators[0:5]: 0x38d-0x392 (5)
0x380|                                       00      |             .  |      [0]: 0 ut_local_indicator (valid) 0x38d-0x38e (1)
0x380|                                          00   |              . |      [1]: 0 ut_local_indicator (valid) 0x38e-0x38f (1)
0x380|                                             00|               .|      [2]: 0 ut_local_indicator (valid) 0x38f-0x390 (1)
0x390|01                                             |.               |      [3]: 1 ut_local_indicator (valid) 0x390-0x391 (1)
0x390|   00                                          | .              |      [4]: 0 ut_local_indicator (valid) 0x391-0x392 (1)
     |                                               |                |  footer{}: 0x392-0x394 (2)
0x390|      0a                                       |  .             |    nl1: 10 (valid) 0x392-0x393 (1)
     |                                               |                |    tz_string: "" 0x393-0x393 (0)
0x390|         0a|                                   |   .|           |    nl2: 10 (valid) 0x393-0x394 (1)
