$ fq -d tzif dv Casey
     |00 01 02 03 04 05 06 07 08 09 0a 0b 0c 0d 0e 0f|0123456789abcdef|.{}: Casey (tzif) 0x0-0x393.7 (916)
     |                                               |                |  v1header{}: 0x0-0x2b.7 (44)
0x000|54 5a 69 66                                    |TZif            |    magic: 0x545a6966 (valid) 0x0-0x3.7 (4)
0x000|            32                                 |    2           |    ver: "2" (0x32) (valid) 0x4-0x4.7 (1)
0x000|               00 00 00 00 00 00 00 00 00 00 00|     ...........|    reserved: raw bits 0x5-0x13.7 (15)
0x010|00 00 00 00                                    |....            |
0x010|            00 00 00 05                        |    ....        |    isutcnt: 5 0x14-0x17.7 (4)
0x010|                        00 00 00 05            |        ....    |    isstdcnt: 5 0x18-0x1b.7 (4)
0x010|                                    00 00 00 1b|            ....|    leapcnt: 27 0x1c-0x1f.7 (4)
0x020|00 00 00 0d                                    |....            |    timecnt: 13 0x20-0x23.7 (4)
0x020|            00 00 00 05                        |    ....        |    typecnt: 5 0x24-0x27.7 (4)
0x020|                        00 00 00 0c            |        ....    |    charcnt: 12 0x28-0x2b.7 (4)
     |                                               |                |  v1datablock{}: 0x2c-0x178.7 (333)
     |                                               |                |    transition_times[0:13]: 0x2c-0x5f.7 (52)
0x020|                                    fe 1e cc 80|            ....|      [0]: "1969-01-01T00:00:00Z" (-31536000) transition_time 0x2c-0x2f.7 (4)
0x030|4a da 06 38                                    |J..8            |      [1]: "2009-10-17T18:00:24Z" (1255802424) transition_time 0x30-0x33.7 (4)
0x030|            4b 8f cb 08                        |    K...        |      [2]: "2010-03-04T15:00:24Z" (1267714824) transition_time 0x34-0x37.7 (4)
0x030|                        4e a9 9c 38            |        N..8    |      [3]: "2011-10-27T18:00:24Z" (1319738424) transition_time 0x38-0x3b.7 (4)
0x030|                                    4f 43 cd a8|            OC..|      [4]: "2012-02-21T17:00:24Z" (1329843624) transition_time 0x3c-0x3f.7 (4)
0x040|58 0a 3b 9a                                    |X.;.            |      [5]: "2016-10-21T16:00:26Z" (1477065626) transition_time 0x40-0x43.7 (4)
0x040|            5a a4 0f 2b                        |    Z..+        |      [6]: "2018-03-10T17:00:27Z" (1520701227) transition_time 0x44-0x47.7 (4)
0x040|                        5b b9 14 5b            |        [..[    |      [7]: "2018-10-06T20:00:27Z" (1538856027) transition_time 0x48-0x4b.7 (4)
0x040|                                    5c 8d 1d 9b|            \...|      [8]: "2019-03-16T16:00:27Z" (1552752027) transition_time 0x4c-0x4f.7 (4)
0x050|5d 96 45 4b                                    |].EK            |      [9]: "2019-10-03T19:00:27Z" (1570129227) transition_time 0x50-0x53.7 (4)
0x050|            5e 63 c5 1b                        |    ^c..        |      [10]: "2020-03-07T16:00:27Z" (1583596827) transition_time 0x54-0x57.7 (4)
0x050|                        5f 78 a0 57            |        _x.W    |      [11]: "2020-10-03T16:01:27Z" (1601740887) transition_time 0x58-0x5b.7 (4)
0x050|                                    64 9b 78 1b|            d.x.|      [12]: "2023-06-28T00:00:27Z" (1687910427) transition_time 0x5c-0x5f.7 (4)
     |                                               |                |    transition_types[0:13]: 0x60-0x6c.7 (13)
0x060|01                                             |.               |      [0]: 1 transition_type 0x60-0x60.7 (1)
0x060|   02                                          | .              |      [1]: 2 transition_type 0x61-0x61.7 (1)
0x060|      01                                       |  .             |      [2]: 1 transition_type 0x62-0x62.7 (1)
0x060|         02                                    |   .            |      [3]: 2 transition_type 0x63-0x63.7 (1)
0x060|            03                                 |    .           |      [4]: 3 transition_type 0x64-0x64.7 (1)
0x060|               02                              |     .          |      [5]: 2 transition_type 0x65-0x65.7 (1)
0x060|                  01                           |      .         |      [6]: 1 transition_type 0x66-0x66.7 (1)
0x060|                     02                        |       .        |      [7]: 2 transition_type 0x67-0x67.7 (1)
0x060|                        01                     |        .       |      [8]: 1 transition_type 0x68-0x68.7 (1)
0x060|                           02                  |         .      |      [9]: 2 transition_type 0x69-0x69.7 (1)
0x060|                              01               |          .     |      [10]: 1 transition_type 0x6a-0x6a.7 (1)
0x060|                                 02            |           .    |      [11]: 2 transition_type 0x6b-0x6b.7 (1)
0x060|                                    02         |            .   |      [12]: 2 transition_type 0x6c-0x6c.7 (1)
     |                                               |                |    local_time_type_records[0:5]: 0x6d-0x8a.7 (30)
     |                                               |                |      [0]{}: local_time_type 0x6d-0x72.7 (6)
0x060|                                       00 00 00|             ...|        utoff: 0 (valid) 0x6d-0x70.7 (4)
0x070|00                                             |.               |
0x070|   00                                          | .              |        dst: 0 (valid) 0x71-0x71.7 (1)
0x070|      00                                       |  .             |        idx: 0 (valid) 0x72-0x72.7 (1)
     |                                               |                |      [1]{}: local_time_type 0x73-0x78.7 (6)
0x070|         00 00 70 80                           |   ..p.         |        utoff: 28800 (valid) 0x73-0x76.7 (4)
0x070|                     00                        |       .        |        dst: 0 (valid) 0x77-0x77.7 (1)
0x070|                        04                     |        .       |        idx: 4 (valid) 0x78-0x78.7 (1)
     |                                               |                |      [2]{}: local_time_type 0x79-0x7e.7 (6)
0x070|                           00 00 9a b0         |         ....   |        utoff: 39600 (valid) 0x79-0x7c.7 (4)
0x070|                                       00      |             .  |        dst: 0 (valid) 0x7d-0x7d.7 (1)
0x070|                                          08   |              . |        idx: 8 (valid) 0x7e-0x7e.7 (1)
     |                                               |                |      [3]{}: local_time_type 0x7f-0x84.7 (6)
0x070|                                             00|               .|        utoff: 28800 (valid) 0x7f-0x82.7 (4)
0x080|00 70 80                                       |.p.             |
0x080|         00                                    |   .            |        dst: 0 (valid) 0x83-0x83.7 (1)
0x080|            04                                 |    .           |        idx: 4 (valid) 0x84-0x84.7 (1)
     |                                               |                |      [4]{}: local_time_type 0x85-0x8a.7 (6)
0x080|               00 00 9a b0                     |     ....       |        utoff: 39600 (valid) 0x85-0x88.7 (4)
0x080|                           00                  |         .      |        dst: 0 (valid) 0x89-0x89.7 (1)
0x080|                              08               |          .     |        idx: 8 (valid) 0x8a-0x8a.7 (1)
     |                                               |                |    time_zone_designations[0:3]: 0x8b-0x96.7 (12)
0x080|                                 2d 30 30 00   |           -00. |      [0]: "-00" time_zone_designation 0x8b-0x8e.7 (4)
0x080|                                             2b|               +|      [1]: "+08" time_zone_designation 0x8f-0x92.7 (4)
0x090|30 38 00                                       |08.             |
0x090|         2b 31 31 00                           |   +11.         |      [2]: "+11" time_zone_designation 0x93-0x96.7 (4)
     |                                               |                |    leap_second_records[0:27]: 0x97-0x16e.7 (216)
     |                                               |                |      [0]{}: leap_second_record 0x97-0x9e.7 (8)
0x090|                     04 b2 58 00               |       ..X.     |        occur: "1972-07-01T00:00:00Z" (78796800) 0x97-0x9a.7 (4)
0x090|                                 00 00 00 01   |           .... |        corr: 1 0x9b-0x9e.7 (4)
     |                                               |                |      [1]{}: leap_second_record 0x9f-0xa6.7 (8)
0x090|                                             05|               .|        occur: "1973-01-01T00:00:01Z" (94694401) 0x9f-0xa2.7 (4)
0x0a0|a4 ec 01                                       |...             |
0x0a0|         00 00 00 02                           |   ....         |        corr: 2 0xa3-0xa6.7 (4)
     |                                               |                |      [2]{}: leap_second_record 0xa7-0xae.7 (8)
0x0a0|                     07 86 1f 82               |       ....     |        occur: "1974-01-01T00:00:02Z" (126230402) 0xa7-0xaa.7 (4)
0x0a0|                                 00 00 00 03   |           .... |        corr: 3 0xab-0xae.7 (4)
     |                                               |                |      [3]{}: leap_second_record 0xaf-0xb6.7 (8)
0x0a0|                                             09|               .|        occur: "1975-01-01T00:00:03Z" (157766403) 0xaf-0xb2.7 (4)
0x0b0|67 53 03                                       |gS.             |
0x0b0|         00 00 00 04                           |   ....         |        corr: 4 0xb3-0xb6.7 (4)
     |                                               |                |      [4]{}: leap_second_record 0xb7-0xbe.7 (8)
0x0b0|                     0b 48 86 84               |       .H..     |        occur: "1976-01-01T00:00:04Z" (189302404) 0xb7-0xba.7 (4)
0x0b0|                                 00 00 00 05   |           .... |        corr: 5 0xbb-0xbe.7 (4)
     |                                               |                |      [5]{}: leap_second_record 0xbf-0xc6.7 (8)
0x0b0|                                             0d|               .|        occur: "1977-01-01T00:00:05Z" (220924805) 0xbf-0xc2.7 (4)
0x0c0|2b 0b 85                                       |+..             |
0x0c0|         00 00 00 06                           |   ....         |        corr: 6 0xc3-0xc6.7 (4)
     |                                               |                |      [6]{}: leap_second_record 0xc7-0xce.7 (8)
0x0c0|                     0f 0c 3f 06               |       ..?.     |        occur: "1978-01-01T00:00:06Z" (252460806) 0xc7-0xca.7 (4)
0x0c0|                                 00 00 00 07   |           .... |        corr: 7 0xcb-0xce.7 (4)
     |                                               |                |      [7]{}: leap_second_record 0xcf-0xd6.7 (8)
0x0c0|                                             10|               .|        occur: "1979-01-01T00:00:07Z" (283996807) 0xcf-0xd2.7 (4)
0x0d0|ed 72 87                                       |.r.             |
0x0d0|         00 00 00 08                           |   ....         |        corr: 8 0xd3-0xd6.7 (4)
     |                                               |                |      [8]{}: leap_second_record 0xd7-0xde.7 (8)
0x0d0|                     12 ce a6 08               |       ....     |        occur: "1980-01-01T00:00:08Z" (315532808) 0xd7-0xda.7 (4)
0x0d0|                                 00 00 00 09   |           .... |        corr: 9 0xdb-0xde.7 (4)
     |                                               |                |      [9]{}: leap_second_record 0xdf-0xe6.7 (8)
0x0d0|                                             15|               .|        occur: "1981-07-01T00:00:09Z" (362793609) 0xdf-0xe2.7 (4)
0x0e0|9f ca 89                                       |...             |
0x0e0|         00 00 00 0a                           |   ....         |        corr: 10 0xe3-0xe6.7 (4)
     |                                               |                |      [10]{}: leap_second_record 0xe7-0xee.7 (8)
0x0e0|                     17 80 fe 0a               |       ....     |        occur: "1982-07-01T00:00:10Z" (394329610) 0xe7-0xea.7 (4)
0x0e0|                                 00 00 00 0b   |           .... |        corr: 11 0xeb-0xee.7 (4)
     |                                               |                |      [11]{}: leap_second_record 0xef-0xf6.7 (8)
0x0e0|                                             19|               .|        occur: "1983-07-01T00:00:11Z" (425865611) 0xef-0xf2.7 (4)
0x0f0|62 31 8b                                       |b1.             |
0x0f0|         00 00 00 0c                           |   ....         |        corr: 12 0xf3-0xf6.7 (4)
     |                                               |                |      [12]{}: leap_second_record 0xf7-0xfe.7 (8)
0x0f0|                     1d 25 ea 0c               |       .%..     |        occur: "1985-07-01T00:00:12Z" (489024012) 0xf7-0xfa.7 (4)
0x0f0|                                 00 00 00 0d   |           .... |        corr: 13 0xfb-0xfe.7 (4)
     |                                               |                |      [13]{}: leap_second_record 0xff-0x106.7 (8)
0x0f0|                                             21|               !|        occur: "1988-01-01T00:00:13Z" (567993613) 0xff-0x102.7 (4)
0x100|da e5 0d                                       |...             |
0x100|         00 00 00 0e                           |   ....         |        corr: 14 0x103-0x106.7 (4)
     |                                               |                |      [14]{}: leap_second_record 0x107-0x10e.7 (8)
0x100|                     25 9e 9d 8e               |       %...     |        occur: "1990-01-01T00:00:14Z" (631152014) 0x107-0x10a.7 (4)
0x100|                                 00 00 00 0f   |           .... |        corr: 15 0x10b-0x10e.7 (4)
     |                                               |                |      [15]{}: leap_second_record 0x10f-0x116.7 (8)
0x100|                                             27|               '|        occur: "1991-01-01T00:00:15Z" (662688015) 0x10f-0x112.7 (4)
0x110|7f d1 0f                                       |...             |
0x110|         00 00 00 10                           |   ....         |        corr: 16 0x113-0x116.7 (4)
     |                                               |                |      [16]{}: leap_second_record 0x117-0x11e.7 (8)
0x110|                     2a 50 f5 90               |       *P..     |        occur: "1992-07-01T00:00:16Z" (709948816) 0x117-0x11a.7 (4)
0x110|                                 00 00 00 11   |           .... |        corr: 17 0x11b-0x11e.7 (4)
     |                                               |                |      [17]{}: leap_second_record 0x11f-0x126.7 (8)
0x110|                                             2c|               ,|        occur: "1993-07-01T00:00:17Z" (741484817) 0x11f-0x122.7 (4)
0x120|32 29 11                                       |2).             |
0x120|         00 00 00 12                           |   ....         |        corr: 18 0x123-0x126.7 (4)
     |                                               |                |      [18]{}: leap_second_record 0x127-0x12e.7 (8)
0x120|                     2e 13 5c 92               |       ..\.     |        occur: "1994-07-01T00:00:18Z" (773020818) 0x127-0x12a.7 (4)
0x120|                                 00 00 00 13   |           .... |        corr: 19 0x12b-0x12e.7 (4)
     |                                               |                |      [19]{}: leap_second_record 0x12f-0x136.7 (8)
0x120|                                             30|               0|        occur: "1996-01-01T00:00:19Z" (820454419) 0x12f-0x132.7 (4)
0x130|e7 24 13                                       |.$.             |
0x130|         00 00 00 14                           |   ....         |        corr: 20 0x133-0x136.7 (4)
     |                                               |                |      [20]{}: leap_second_record 0x137-0x13e.7 (8)
0x130|                     33 b8 48 94               |       3.H.     |        occur: "1997-07-01T00:00:20Z" (867715220) 0x137-0x13a.7 (4)
0x130|                                 00 00 00 15   |           .... |        corr: 21 0x13b-0x13e.7 (4)
     |                                               |                |      [21]{}: leap_second_record 0x13f-0x146.7 (8)
0x130|                                             36|               6|        occur: "1999-01-01T00:00:21Z" (915148821) 0x13f-0x142.7 (4)
0x140|8c 10 15                                       |...             |
0x140|         00 00 00 16                           |   ....         |        corr: 22 0x143-0x146.7 (4)
     |                                               |                |      [22]{}: leap_second_record 0x147-0x14e.7 (8)
0x140|                     43 b7 1b 96               |       C...     |        occur: "2006-01-01T00:00:22Z" (1136073622) 0x147-0x14a.7 (4)
0x140|                                 00 00 00 17   |           .... |        corr: 23 0x14b-0x14e.7 (4)
     |                                               |                |      [23]{}: leap_second_record 0x14f-0x156.7 (8)
0x140|                                             49|               I|        occur: "2009-01-01T00:00:23Z" (1230768023) 0x14f-0x152.7 (4)
0x150|5c 07 97                                       |\..             |
0x150|         00 00 00 18                           |   ....         |        corr: 24 0x153-0x156.7 (4)
     |                                               |                |      [24]{}: leap_second_record 0x157-0x15e.7 (8)
0x150|                     4f ef 93 18               |       O...     |        occur: "2012-07-01T00:00:24Z" (1341100824) 0x157-0x15a.7 (4)
0x150|                                 00 00 00 19   |           .... |        corr: 25 0x15b-0x15e.7 (4)
     |                                               |                |      [25]{}: leap_second_record 0x15f-0x166.7 (8)
0x150|                                             55|               U|        occur: "2015-07-01T00:00:25Z" (1435708825) 0x15f-0x162.7 (4)
0x160|93 2d 99                                       |.-.             |
0x160|         00 00 00 1a                           |   ....         |        corr: 26 0x163-0x166.7 (4)
     |                                               |                |      [26]{}: leap_second_record 0x167-0x16e.7 (8)
0x160|                     58 68 46 9a               |       XhF.     |        occur: "2017-01-01T00:00:26Z" (1483228826) 0x167-0x16a.7 (4)
0x160|                                 00 00 00 1b   |           .... |        corr: 27 0x16b-0x16e.7 (4)
     |                                               |                |    standard_wall_indicators[0:5]: 0x16f-0x173.7 (5)
0x160|                                             00|               .|      [0]: 0 standard_wall_indicator (valid) 0x16f-0x16f.7 (1)
0x170|00                                             |.               |      [1]: 0 standard_wall_indicator (valid) 0x170-0x170.7 (1)
0x170|   00                                          | .              |      [2]: 0 standard_wall_indicator (valid) 0x171-0x171.7 (1)
0x170|      01                                       |  .             |      [3]: 1 standard_wall_indicator (valid) 0x172-0x172.7 (1)
0x170|         00                                    |   .            |      [4]: 0 standard_wall_indicator (valid) 0x173-0x173.7 (1)
     |                                               |                |    ut_local_indicators[0:5]: 0x174-0x178.7 (5)
0x170|            00                                 |    .           |      [0]: 0 ut_local_indicator (valid) 0x174-0x174.7 (1)
0x170|               00                              |     .          |      [1]: 0 ut_local_indicator (valid) 0x175-0x175.7 (1)
0x170|                  00                           |      .         |      [2]: 0 ut_local_indicator (valid) 0x176-0x176.7 (1)
0x170|                     01                        |       .        |      [3]: 1 ut_local_indicator (valid) 0x177-0x177.7 (1)
0x170|                        00                     |        .       |      [4]: 0 ut_local_indicator (valid) 0x178-0x178.7 (1)
     |                                               |                |  v2plusheader{}: 0x179-0x1a4.7 (44)
0x170|                           54 5a 69 66         |         TZif   |    magic: 0x545a6966 (valid) 0x179-0x17c.7 (4)
0x170|                                       32      |             2  |    ver: "2" (0x32) (valid) 0x17d-0x17d.7 (1)
0x170|                                          00 00|              ..|    reserved: raw bits 0x17e-0x18c.7 (15)
0x180|00 00 00 00 00 00 00 00 00 00 00 00 00         |.............   |
0x180|                                       00 00 00|             ...|    isutcnt: 5 0x18d-0x190.7 (4)
0x190|05                                             |.               |
0x190|   00 00 00 05                                 | ....           |    isstdcnt: 5 0x191-0x194.7 (4)
0x190|               00 00 00 1b                     |     ....       |    leapcnt: 27 0x195-0x198.7 (4)
0x190|                           00 00 00 0d         |         ....   |    timecnt: 13 0x199-0x19c.7 (4)
0x190|                                       00 00 00|             ...|    typecnt: 5 0x19d-0x1a0.7 (4)
0x1a0|05                                             |.               |
0x1a0|   00 00 00 0c                                 | ....           |    charcnt: 12 0x1a1-0x1a4.7 (4)
     |                                               |                |  v2plusdatablock{}: 0x1a5-0x391.7 (493)
     |                                               |                |    transition_times[0:13]: 0x1a5-0x20c.7 (104)
0x1a0|               ff ff ff ff fe 1e cc 80         |     ........   |      [0]: "1969-01-01T00:00:00Z" (-31536000) transition_time 0x1a5-0x1ac.7 (8)
0x1a0|                                       00 00 00|             ...|      [1]: "2009-10-17T18:00:24Z" (1255802424) transition_time 0x1ad-0x1b4.7 (8)
0x1b0|00 4a da 06 38                                 |.J..8           |
0x1b0|               00 00 00 00 4b 8f cb 08         |     ....K...   |      [2]: "2010-03-04T15:00:24Z" (1267714824) transition_time 0x1b5-0x1bc.7 (8)
0x1b0|                                       00 00 00|             ...|      [3]: "2011-10-27T18:00:24Z" (1319738424) transition_time 0x1bd-0x1c4.7 (8)
0x1c0|00 4e a9 9c 38                                 |.N..8           |
0x1c0|               00 00 00 00 4f 43 cd a8         |     ....OC..   |      [4]: "2012-02-21T17:00:24Z" (1329843624) transition_time 0x1c5-0x1cc.7 (8)
0x1c0|                                       00 00 00|             ...|      [5]: "2016-10-21T16:00:26Z" (1477065626) transition_time 0x1cd-0x1d4.7 (8)
0x1d0|00 58 0a 3b 9a                                 |.X.;.           |
0x1d0|               00 00 00 00 5a a4 0f 2b         |     ....Z..+   |      [6]: "2018-03-10T17:00:27Z" (1520701227) transition_time 0x1d5-0x1dc.7 (8)
0x1d0|                                       00 00 00|             ...|      [7]: "2018-10-06T20:00:27Z" (1538856027) transition_time 0x1dd-0x1e4.7 (8)
0x1e0|00 5b b9 14 5b                                 |.[..[           |
0x1e0|               00 00 00 00 5c 8d 1d 9b         |     ....\...   |      [8]: "2019-03-16T16:00:27Z" (1552752027) transition_time 0x1e5-0x1ec.7 (8)
0x1e0|                                       00 00 00|             ...|      [9]: "2019-10-03T19:00:27Z" (1570129227) transition_time 0x1ed-0x1f4.7 (8)
0x1f0|00 5d 96 45 4b                                 |.].EK           |
0x1f0|               00 00 00 00 5e 63 c5 1b         |     ....^c..   |      [10]: "2020-03-07T16:00:27Z" (1583596827) transition_time 0x1f5-0x1fc.7 (8)
0x1f0|                                       00 00 00|             ...|      [11]: "2020-10-03T16:01:27Z" (1601740887) transition_time 0x1fd-0x204.7 (8)
0x200|00 5f 78 a0 57                                 |._x.W           |
0x200|               00 00 00 00 64 9b 78 1b         |     ....d.x.   |      [12]: "2023-06-28T00:00:27Z" (1687910427) transition_time 0x205-0x20c.7 (8)
     |                                               |                |    transition_types[0:13]: 0x20d-0x219.7 (13)
0x200|                                       01      |             .  |      [0]: 1 transition_type 0x20d-0x20d.7 (1)
0x200|                                          02   |              . |      [1]: 2 transition_type 0x20e-0x20e.7 (1)
0x200|                                             01|               .|      [2]: 1 transition_type 0x20f-0x20f.7 (1)
0x210|02                                             |.               |      [3]: 2 transition_type 0x210-0x210.7 (1)
0x210|   03                                          | .              |      [4]: 3 transition_type 0x211-0x211.7 (1)
0x210|      02                                       |  .             |      [5]: 2 transition_type 0x212-0x212.7 (1)
0x210|         01                                    |   .            |      [6]: 1 transition_type 0x213-0x213.7 (1)
0x210|            02                                 |    .           |      [7]: 2 transition_type 0x214-0x214.7 (1)
0x210|               01                              |     .          |      [8]: 1 transition_type 0x215-0x215.7 (1)
0x210|                  02                           |      .         |      [9]: 2 transition_type 0x216-0x216.7 (1)
0x210|                     01                        |       .        |      [10]: 1 transition_type 0x217-0x217.7 (1)
0x210|                        02                     |        .       |      [11]: 2 transition_type 0x218-0x218.7 (1)
0x210|                           02                  |         .      |      [12]: 2 transition_type 0x219-0x219.7 (1)
     |                                               |                |    local_time_type_records[0:5]: 0x21a-0x237.7 (30)
     |                                               |                |      [0]{}: local_time_type 0x21a-0x21f.7 (6)
0x210|                              00 00 00 00      |          ....  |        utoff: 0 (valid) 0x21a-0x21d.7 (4)
0x210|                                          00   |              . |        dst: 0 (valid) 0x21e-0x21e.7 (1)
0x210|                                             00|               .|        idx: 0 (valid) 0x21f-0x21f.7 (1)
     |                                               |                |      [1]{}: local_time_type 0x220-0x225.7 (6)
0x220|00 00 70 80                                    |..p.            |        utoff: 28800 (valid) 0x220-0x223.7 (4)
0x220|            00                                 |    .           |        dst: 0 (valid) 0x224-0x224.7 (1)
0x220|               04                              |     .          |        idx: 4 (valid) 0x225-0x225.7 (1)
     |                                               |                |      [2]{}: local_time_type 0x226-0x22b.7 (6)
0x220|                  00 00 9a b0                  |      ....      |        utoff: 39600 (valid) 0x226-0x229.7 (4)
0x220|                              00               |          .     |        dst: 0 (valid) 0x22a-0x22a.7 (1)
0x220|                                 08            |           .    |        idx: 8 (valid) 0x22b-0x22b.7 (1)
     |                                               |                |      [3]{}: local_time_type 0x22c-0x231.7 (6)
0x220|                                    00 00 70 80|            ..p.|        utoff: 28800 (valid) 0x22c-0x22f.7 (4)
0x230|00                                             |.               |        dst: 0 (valid) 0x230-0x230.7 (1)
0x230|   04                                          | .              |        idx: 4 (valid) 0x231-0x231.7 (1)
     |                                               |                |      [4]{}: local_time_type 0x232-0x237.7 (6)
0x230|      00 00 9a b0                              |  ....          |        utoff: 39600 (valid) 0x232-0x235.7 (4)
0x230|                  00                           |      .         |        dst: 0 (valid) 0x236-0x236.7 (1)
0x230|                     08                        |       .        |        idx: 8 (valid) 0x237-0x237.7 (1)
     |                                               |                |    time_zone_designations[0:3]: 0x238-0x243.7 (12)
0x230|                        2d 30 30 00            |        -00.    |      [0]: "-00" time_zone_designation 0x238-0x23b.7 (4)
0x230|                                    2b 30 38 00|            +08.|      [1]: "+08" time_zone_designation 0x23c-0x23f.7 (4)
0x240|2b 31 31 00                                    |+11.            |      [2]: "+11" time_zone_designation 0x240-0x243.7 (4)
     |                                               |                |    leap_second_records[0:27]: 0x244-0x387.7 (324)
     |                                               |                |      [0]{}: leap_second_record 0x244-0x24f.7 (12)
0x240|            00 00 00 00 04 b2 58 00            |    ......X.    |        occur: "1972-07-01T00:00:00Z" (78796800) 0x244-0x24b.7 (8)
0x240|                                    00 00 00 01|            ....|        corr: 1 0x24c-0x24f.7 (4)
     |                                               |                |      [1]{}: leap_second_record 0x250-0x25b.7 (12)
0x250|00 00 00 00 05 a4 ec 01                        |........        |        occur: "1973-01-01T00:00:01Z" (94694401) 0x250-0x257.7 (8)
0x250|                        00 00 00 02            |        ....    |        corr: 2 0x258-0x25b.7 (4)
     |                                               |                |      [2]{}: leap_second_record 0x25c-0x267.7 (12)
0x250|                                    00 00 00 00|            ....|        occur: "1974-01-01T00:00:02Z" (126230402) 0x25c-0x263.7 (8)
0x260|07 86 1f 82                                    |....            |
0x260|            00 00 00 03                        |    ....        |        corr: 3 0x264-0x267.7 (4)
     |                                               |                |      [3]{}: leap_second_record 0x268-0x273.7 (12)
0x260|                        00 00 00 00 09 67 53 03|        .....gS.|        occur: "1975-01-01T00:00:03Z" (157766403) 0x268-0x26f.7 (8)
0x270|00 00 00 04                                    |....            |        corr: 4 0x270-0x273.7 (4)
     |                                               |                |      [4]{}: leap_second_record 0x274-0x27f.7 (12)
0x270|            00 00 00 00 0b 48 86 84            |    .....H..    |        occur: "1976-01-01T00:00:04Z" (189302404) 0x274-0x27b.7 (8)
0x270|                                    00 00 00 05|            ....|        corr: 5 0x27c-0x27f.7 (4)
     |                                               |                |      [5]{}: leap_second_record 0x280-0x28b.7 (12)
0x280|00 00 00 00 0d 2b 0b 85                        |.....+..        |        occur: "1977-01-01T00:00:05Z" (220924805) 0x280-0x287.7 (8)
0x280|                        00 00 00 06            |        ....    |        corr: 6 0x288-0x28b.7 (4)
     |                                               |                |      [6]{}: leap_second_record 0x28c-0x297.7 (12)
0x280|                                    00 00 00 00|            ....|        occur: "1978-01-01T00:00:06Z" (252460806) 0x28c-0x293.7 (8)
0x290|0f 0c 3f 06                                    |..?.            |
0x290|            00 00 00 07                        |    ....        |        corr: 7 0x294-0x297.7 (4)
     |                                               |                |      [7]{}: leap_second_record 0x298-0x2a3.7 (12)
0x290|                        00 00 00 00 10 ed 72 87|        ......r.|        occur: "1979-01-01T00:00:07Z" (283996807) 0x298-0x29f.7 (8)
0x2a0|00 00 00 08                                    |....            |        corr: 8 0x2a0-0x2a3.7 (4)
     |                                               |                |      [8]{}: leap_second_record 0x2a4-0x2af.7 (12)
0x2a0|            00 00 00 00 12 ce a6 08            |    ........    |        occur: "1980-01-01T00:00:08Z" (315532808) 0x2a4-0x2ab.7 (8)
0x2a0|                                    00 00 00 09|            ....|        corr: 9 0x2ac-0x2af.7 (4)
     |                                               |                |      [9]{}: leap_second_record 0x2b0-0x2bb.7 (12)
0x2b0|00 00 00 00 15 9f ca 89                        |........        |        occur: "1981-07-01T00:00:09Z" (362793609) 0x2b0-0x2b7.7 (8)
0x2b0|                        00 00 00 0a            |        ....    |        corr: 10 0x2b8-0x2bb.7 (4)
     |                                               |                |      [10]{}: leap_second_record 0x2bc-0x2c7.7 (12)
0x2b0|                                    00 00 00 00|            ....|        occur: "1982-07-01T00:00:10Z" (394329610) 0x2bc-0x2c3.7 (8)
0x2c0|17 80 fe 0a                                    |....            |
0x2c0|            00 00 00 0b                        |    ....        |        corr: 11 0x2c4-0x2c7.7 (4)
     |                                               |                |      [11]{}: leap_second_record 0x2c8-0x2d3.7 (12)
0x2c0|                        00 00 00 00 19 62 31 8b|        .....b1.|        occur: "1983-07-01T00:00:11Z" (425865611) 0x2c8-0x2cf.7 (8)
0x2d0|00 00 00 0c                                    |....            |        corr: 12 0x2d0-0x2d3.7 (4)
     |                                               |                |      [12]{}: leap_second_record 0x2d4-0x2df.7 (12)
0x2d0|            00 00 00 00 1d 25 ea 0c            |    .....%..    |        occur: "1985-07-01T00:00:12Z" (489024012) 0x2d4-0x2db.7 (8)
0x2d0|                                    00 00 00 0d|            ....|        corr: 13 0x2dc-0x2df.7 (4)
     |                                               |                |      [13]{}: leap_second_record 0x2e0-0x2eb.7 (12)
0x2e0|00 00 00 00 21 da e5 0d                        |....!...        |        occur: "1988-01-01T00:00:13Z" (567993613) 0x2e0-0x2e7.7 (8)
0x2e0|                        00 00 00 0e            |        ....    |        corr: 14 0x2e8-0x2eb.7 (4)
     |                                               |                |      [14]{}: leap_second_record 0x2ec-0x2f7.7 (12)
0x2e0|                                    00 00 00 00|            ....|        occur: "1990-01-01T00:00:14Z" (631152014) 0x2ec-0x2f3.7 (8)
0x2f0|25 9e 9d 8e                                    |%...            |
0x2f0|            00 00 00 0f                        |    ....        |        corr: 15 0x2f4-0x2f7.7 (4)
     |                                               |                |      [15]{}: leap_second_record 0x2f8-0x303.7 (12)
0x2f0|                        00 00 00 00 27 7f d1 0f|        ....'...|        occur: "1991-01-01T00:00:15Z" (662688015) 0x2f8-0x2ff.7 (8)
0x300|00 00 00 10                                    |....            |        corr: 16 0x300-0x303.7 (4)
     |                                               |                |      [16]{}: leap_second_record 0x304-0x30f.7 (12)
0x300|            00 00 00 00 2a 50 f5 90            |    ....*P..    |        occur: "1992-07-01T00:00:16Z" (709948816) 0x304-0x30b.7 (8)
0x300|                                    00 00 00 11|            ....|        corr: 17 0x30c-0x30f.7 (4)
     |                                               |                |      [17]{}: leap_second_record 0x310-0x31b.7 (12)
0x310|00 00 00 00 2c 32 29 11                        |....,2).        |        occur: "1993-07-01T00:00:17Z" (741484817) 0x310-0x317.7 (8)
0x310|                        00 00 00 12            |        ....    |        corr: 18 0x318-0x31b.7 (4)
     |                                               |                |      [18]{}: leap_second_record 0x31c-0x327.7 (12)
0x310|                                    00 00 00 00|            ....|        occur: "1994-07-01T00:00:18Z" (773020818) 0x31c-0x323.7 (8)
0x320|2e 13 5c 92                                    |..\.            |
0x320|            00 00 00 13                        |    ....        |        corr: 19 0x324-0x327.7 (4)
     |                                               |                |      [19]{}: leap_second_record 0x328-0x333.7 (12)
0x320|                        00 00 00 00 30 e7 24 13|        ....0.$.|        occur: "1996-01-01T00:00:19Z" (820454419) 0x328-0x32f.7 (8)
0x330|00 00 00 14                                    |....            |        corr: 20 0x330-0x333.7 (4)
     |                                               |                |      [20]{}: leap_second_record 0x334-0x33f.7 (12)
0x330|            00 00 00 00 33 b8 48 94            |    ....3.H.    |        occur: "1997-07-01T00:00:20Z" (867715220) 0x334-0x33b.7 (8)
0x330|                                    00 00 00 15|            ....|        corr: 21 0x33c-0x33f.7 (4)
     |                                               |                |      [21]{}: leap_second_record 0x340-0x34b.7 (12)
0x340|00 00 00 00 36 8c 10 15                        |....6...        |        occur: "1999-01-01T00:00:21Z" (915148821) 0x340-0x347.7 (8)
0x340|                        00 00 00 16            |        ....    |        corr: 22 0x348-0x34b.7 (4)
     |                                               |                |      [22]{}: leap_second_record 0x34c-0x357.7 (12)
0x340|                                    00 00 00 00|            ....|        occur: "2006-01-01T00:00:22Z" (1136073622) 0x34c-0x353.7 (8)
0x350|43 b7 1b 96                                    |C...            |
0x350|            00 00 00 17                        |    ....        |        corr: 23 0x354-0x357.7 (4)
     |                                               |                |      [23]{}: leap_second_record 0x358-0x363.7 (12)
0x350|                        00 00 00 00 49 5c 07 97|        ....I\..|        occur: "2009-01-01T00:00:23Z" (1230768023) 0x358-0x35f.7 (8)
0x360|00 00 00 18                                    |....            |        corr: 24 0x360-0x363.7 (4)
     |                                               |                |      [24]{}: leap_second_record 0x364-0x36f.7 (12)
0x360|            00 00 00 00 4f ef 93 18            |    ....O...    |        occur: "2012-07-01T00:00:24Z" (1341100824) 0x364-0x36b.7 (8)
0x360|                                    00 00 00 19|            ....|        corr: 25 0x36c-0x36f.7 (4)
     |                                               |                |      [25]{}: leap_second_record 0x370-0x37b.7 (12)
0x370|00 00 00 00 55 93 2d 99                        |....U.-.        |        occur: "2015-07-01T00:00:25Z" (1435708825) 0x370-0x377.7 (8)
0x370|                        00 00 00 1a            |        ....    |        corr: 26 0x378-0x37b.7 (4)
     |                                               |                |      [26]{}: leap_second_record 0x37c-0x387.7 (12)
0x370|                                    00 00 00 00|            ....|        occur: "2017-01-01T00:00:26Z" (1483228826) 0x37c-0x383.7 (8)
0x380|58 68 46 9a                                    |XhF.            |
0x380|            00 00 00 1b                        |    ....        |        corr: 27 0x384-0x387.7 (4)
     |                                               |                |    standard_wall_indicators[0:5]: 0x388-0x38c.7 (5)
0x380|                        00                     |        .       |      [0]: 0 standard_wall_indicator (valid) 0x388-0x388.7 (1)
0x380|                           00                  |         .      |      [1]: 0 standard_wall_indicator (valid) 0x389-0x389.7 (1)
0x380|                              00               |          .     |      [2]: 0 standard_wall_indicator (valid) 0x38a-0x38a.7 (1)
0x380|                                 01            |           .    |      [3]: 1 standard_wall_indicator (valid) 0x38b-0x38b.7 (1)
0x380|                                    00         |            .   |      [4]: 0 standard_wall_indicator (valid) 0x38c-0x38c.7 (1)
     |                                               |                |    ut_local_indicators[0:5]: 0x38d-0x391.7 (5)
0x380|                                       00      |             .  |      [0]: 0 ut_local_indicator (valid) 0x38d-0x38d.7 (1)
0x380|                                          00   |              . |      [1]: 0 ut_local_indicator (valid) 0x38e-0x38e.7 (1)
0x380|                                             00|               .|      [2]: 0 ut_local_indicator (valid) 0x38f-0x38f.7 (1)
0x390|01                                             |.               |      [3]: 1 ut_local_indicator (valid) 0x390-0x390.7 (1)
0x390|   00                                          | .              |      [4]: 0 ut_local_indicator (valid) 0x391-0x391.7 (1)
     |                                               |                |  footer{}: 0x392-0x393.7 (2)
0x390|      0a                                       |  .             |    nl1: 10 (valid) 0x392-0x392.7 (1)
     |                                               |                |    tz_string: "" 0x393-NA (0)
0x390|         0a|                                   |   .|           |    nl2: 10 (valid) 0x393-0x393.7 (1)
