$ fq -d tzif dv Catamarca
     |00 01 02 03 04 05 06 07 08 09 0a 0b 0c 0d 0e 0f|0123456789abcdef|.{}: Catamarca (tzif) 0x0-0x649.7 (1610)
     |                                               |                |  v1header{}: 0x0-0x2b.7 (44)
0x000|54 5a 69 66                                    |TZif            |    magic: 0x545a6966 (valid) 0x0-0x3.7 (4)
0x000|            32                                 |    2           |    ver: "2" (0x32) (valid) 0x4-0x4.7 (1)
0x000|               00 00 00 00 00 00 00 00 00 00 00|     ...........|    reserved: raw bits 0x5-0x13.7 (15)
0x010|00 00 00 00                                    |....            |
0x010|            00 00 00 00                        |    ....        |    isutcnt: 0 0x14-0x17.7 (4)
0x010|                        00 00 00 00            |        ....    |    isstdcnt: 0 0x18-0x1b.7 (4)
0x010|                                    00 00 00 1b|            ....|    leapcnt: 27 0x1c-0x1f.7 (4)
0x020|00 00 00 3e                                    |...>            |    timecnt: 62 0x20-0x23.7 (4)
0x020|            00 00 00 06                        |    ....        |    typecnt: 6 0x24-0x27.7 (4)
0x020|                        00 00 00 14            |        ....    |    charcnt: 20 0x28-0x2b.7 (4)
     |                                               |                |  v1datablock{}: 0x2c-0x271.7 (582)
     |                                               |                |    transition_times[0:62]: 0x2c-0x123.7 (248)
0x020|                                    80 00 00 00|            ....|      [0]: "1901-12-13T20:45:52Z" (-2147483648) transition_time 0x2c-0x2f.7 (4)
0x030|a2 92 8f 30                                    |...0            |      [1]: "1920-05-01T04:16:48Z" (-1567453392) transition_time 0x30-0x33.7 (4)
0x030|            b6 7b 52 40                        |    .{R@        |      [2]: "1930-12-01T04:00:00Z" (-1233432000) transition_time 0x34-0x37.7 (4)
0x030|                        b7 1a c9 b0            |        ....    |      [3]: "1931-04-01T03:00:00Z" (-1222981200) transition_time 0x38-0x3b.7 (4)
0x030|                                    b8 1e 8f 40|            ...@|      [4]: "1931-10-15T04:00:00Z" (-1205956800) transition_time 0x3c-0x3f.7 (4)
0x040|b8 d4 70 30                                    |..p0            |      [5]: "1932-03-01T03:00:00Z" (-1194037200) transition_time 0x40-0x43.7 (4)
0x040|            ba 17 7d c0                        |    ..}.        |      [6]: "1932-11-01T04:00:00Z" (-1172865600) transition_time 0x44-0x47.7 (4)
0x040|                        ba b5 a3 b0            |        ....    |      [7]: "1933-03-01T03:00:00Z" (-1162501200) transition_time 0x48-0x4b.7 (4)
0x040|                                    bb f8 b1 40|            ...@|      [8]: "1933-11-01T04:00:00Z" (-1141329600) transition_time 0x4c-0x4f.7 (4)
0x050|bc 96 d7 30                                    |...0            |      [9]: "1934-03-01T03:00:00Z" (-1130965200) transition_time 0x50-0x53.7 (4)
0x050|            bd d9 e4 c0                        |    ....        |      [10]: "1934-11-01T04:00:00Z" (-1109793600) transition_time 0x54-0x57.7 (4)
0x050|                        be 78 0a b0            |        .x..    |      [11]: "1935-03-01T03:00:00Z" (-1099429200) transition_time 0x58-0x5b.7 (4)
0x050|                                    bf bb 18 40|            ...@|      [12]: "1935-11-01T04:00:00Z" (-1078257600) transition_time 0x5c-0x5f.7 (4)
0x060|c0 5a 8f b0                                    |.Z..            |      [13]: "1936-03-01T03:00:00Z" (-1067806800) transition_time 0x60-0x63.7 (4)
0x060|            c1 9d 9d 40                        |    ...@        |      [14]: "1936-11-01T04:00:00Z" (-1046635200) transition_time 0x64-0x67.7 (4)
0x060|                        c2 3b c3 30            |        .;.0    |      [15]: "1937-03-01T03:00:00Z" (-1036270800) transition_time 0x68-0x6b.7 (4)
0x060|                                    c3 7e d0 c0|            .~..|      [16]: "1937-11-01T04:00:00Z" (-1015099200) transition_time 0x6c-0x6f.7 (4)
0x070|c4 1c f6 b0                                    |....            |      [17]: "1938-03-01T03:00:00Z" (-1004734800) transition_time 0x70-0x73.7 (4)
0x070|            c5 60 04 40                        |    .`.@        |      [18]: "1938-11-01T04:00:00Z" (-983563200) transition_time 0x74-0x77.7 (4)
0x070|                        c5 fe 2a 30            |        ..*0    |      [19]: "1939-03-01T03:00:00Z" (-973198800) transition_time 0x78-0x7b.7 (4)
0x070|                                    c7 41 37 c0|            .A7.|      [20]: "1939-11-01T04:00:00Z" (-952027200) transition_time 0x7c-0x7f.7 (4)
0x080|c7 e0 af 30                                    |...0            |      [21]: "1940-03-01T03:00:00Z" (-941576400) transition_time 0x80-0x83.7 (4)
0x080|            c8 81 94 40                        |    ...@        |      [22]: "1940-07-01T04:00:00Z" (-931032000) transition_time 0x84-0x87.7 (4)
0x080|                        ca 4d a1 b0            |        .M..    |      [23]: "1941-06-15T03:00:00Z" (-900882000) transition_time 0x88-0x8b.7 (4)
0x080|                                    ca ee 86 c0|            ....|      [24]: "1941-10-15T04:00:00Z" (-890337600) transition_time 0x8c-0x8f.7 (4)
0x090|ce 4d ff 30                                    |.M.0            |      [25]: "1943-08-01T03:00:00Z" (-833749200) transition_time 0x90-0x93.7 (4)
0x090|            ce b0 ed c0                        |    ....        |      [26]: "1943-10-15T04:00:00Z" (-827265600) transition_time 0x94-0x97.7 (4)
0x090|                        d3 29 35 b0            |        .)5.    |      [27]: "1946-03-01T03:00:00Z" (-752274000) transition_time 0x98-0x9b.7 (4)
0x090|                                    d4 43 64 c0|            .Cd.|      [28]: "1946-10-01T04:00:00Z" (-733780800) transition_time 0x9c-0x9f.7 (4)
0x0a0|f4 3d 08 30                                    |.=.0            |      [29]: "1963-10-01T03:00:00Z" (-197326800) transition_time 0xa0-0xa3.7 (4)
0x0a0|            f4 9f f6 c0                        |    ....        |      [30]: "1963-12-15T04:00:00Z" (-190843200) transition_time 0xa4-0xa7.7 (4)
0x0a0|                        f5 05 6c 30            |        ..l0    |      [31]: "1964-03-01T03:00:00Z" (-184194000) transition_time 0xa8-0xab.7 (4)
0x0a0|                                    f6 32 10 40|            .2.@|      [32]: "1964-10-15T04:00:00Z" (-164491200) transition_time 0xac-0xaf.7 (4)
0x0b0|f6 e6 9f b0                                    |....            |      [33]: "1965-03-01T03:00:00Z" (-152658000) transition_time 0xb0-0xb3.7 (4)
0x0b0|            f8 13 43 c0                        |    ..C.        |      [34]: "1965-10-15T04:00:00Z" (-132955200) transition_time 0xb4-0xb7.7 (4)
0x0b0|                        f8 c7 d3 30            |        ...0    |      [35]: "1966-03-01T03:00:00Z" (-121122000) transition_time 0xb8-0xbb.7 (4)
0x0b0|                                    f9 f4 77 40|            ..w@|      [36]: "1966-10-15T04:00:00Z" (-101419200) transition_time 0xbc-0xbf.7 (4)
0x0c0|fa d3 36 b0                                    |..6.            |      [37]: "1967-04-02T03:00:00Z" (-86821200) transition_time 0xc0-0xc3.7 (4)
0x0c0|            fb c3 35 c0                        |    ..5.        |      [38]: "1967-10-01T04:00:00Z" (-71092800) transition_time 0xc4-0xc7.7 (4)
0x0c0|                        fc bc 53 30            |        ..S0    |      [39]: "1968-04-07T03:00:00Z" (-54766800) transition_time 0xc8-0xcb.7 (4)
0x0c0|                                    fd ac 52 40|            ..R@|      [40]: "1968-10-06T04:00:00Z" (-39038400) transition_time 0xcc-0xcf.7 (4)
0x0d0|fe 9c 35 30                                    |..50            |      [41]: "1969-04-06T03:00:00Z" (-23317200) transition_time 0xd0-0xd3.7 (4)
0x0d0|            ff 8c 34 40                        |    ..4@        |      [42]: "1969-10-05T04:00:00Z" (-7588800) transition_time 0xd4-0xd7.7 (4)
0x0d0|                        07 a3 4a b3            |        ..J.    |      [43]: "1974-01-23T03:00:03Z" (128142003) transition_time 0xd8-0xdb.7 (4)
0x0d0|                                    08 24 6f a3|            .$o.|      [44]: "1974-05-01T02:00:03Z" (136605603) transition_time 0xdc-0xdf.7 (4)
0x0e0|23 94 b5 be                                    |#...            |      [45]: "1988-12-01T03:00:14Z" (596948414) transition_time 0xe0-0xe3.7 (4)
0x0e0|            24 10 94 ae                        |    $...        |      [46]: "1989-03-05T02:00:14Z" (605066414) transition_time 0xe4-0xe7.7 (4)
0x0e0|                        25 37 f2 be            |        %7..    |      [47]: "1989-10-15T03:00:14Z" (624423614) transition_time 0xe8-0xeb.7 (4)
0x0e0|                                    25 f0 76 af|            %.v.|      [48]: "1990-03-04T02:00:15Z" (636516015) transition_time 0xec-0xef.7 (4)
0x0f0|27 21 0f 3f                                    |'!.?            |      [49]: "1990-10-21T03:00:15Z" (656478015) transition_time 0xf0-0xf3.7 (4)
0x0f0|            27 d0 58 b0                        |    '.X.        |      [50]: "1991-03-03T02:00:16Z" (667965616) transition_time 0xf4-0xf7.7 (4)
0x0f0|                        29 00 ff 50            |        )..P    |      [51]: "1991-10-20T04:00:16Z" (687931216) transition_time 0xf8-0xfb.7 (4)
0x0f0|                                    29 b0 3a b0|            ).:.|      [52]: "1992-03-01T02:00:16Z" (699415216) transition_time 0xfc-0xff.7 (4)
0x100|2a e0 d3 41                                    |*..A            |      [53]: "1992-10-18T03:00:17Z" (719377217) transition_time 0x100-0x103.7 (4)
0x100|            2b 99 57 31                        |    +.W1        |      [54]: "1993-03-07T02:00:17Z" (731469617) transition_time 0x104-0x107.7 (4)
0x100|                        37 f6 c6 c6            |        7...    |      [55]: "1999-10-03T03:00:22Z" (938919622) transition_time 0x108-0x10b.7 (4)
0x100|                                    38 bf 2a c6|            8.*.|      [56]: "2000-03-03T03:00:22Z" (952052422) transition_time 0x10c-0x10f.7 (4)
0x110|40 bb f1 46                                    |@..F            |      [57]: "2004-06-01T03:00:22Z" (1086058822) transition_time 0x110-0x113.7 (4)
0x110|            40 d5 0b d6                        |    @...        |      [58]: "2004-06-20T04:00:22Z" (1087704022) transition_time 0x114-0x117.7 (4)
0x110|                        47 77 09 c7            |        Gw..    |      [59]: "2007-12-30T03:00:23Z" (1198983623) transition_time 0x118-0x11b.7 (4)
0x110|                                    47 dc 7f 37|            G..7|      [60]: "2008-03-16T02:00:23Z" (1205632823) transition_time 0x11c-0x11f.7 (4)
0x120|64 9b 78 1b                                    |d.x.            |      [61]: "2023-06-28T00:00:27Z" (1687910427) transition_time 0x120-0x123.7 (4)
     |                                               |                |    transition_types[0:62]: 0x124-0x161.7 (62)
0x120|            01                                 |    .           |      [0]: 1 transition_type 0x124-0x124.7 (1)
0x120|               02                              |     .          |      [1]: 2 transition_type 0x125-0x125.7 (1)
0x120|                  03                           |      .         |      [2]: 3 transition_type 0x126-0x126.7 (1)
0x120|                     02                        |       .        |      [3]: 2 transition_type 0x127-0x127.7 (1)
0x120|                        03                     |        .       |      [4]: 3 transition_type 0x128-0x128.7 (1)
0x120|                           02                  |         .      |      [5]: 2 transition_type 0x129-0x129.7 (1)
0x120|                              03               |          .     |      [6]: 3 transition_type 0x12a-0x12a.7 (1)
0x120|                                 02            |           .    |      [7]: 2 transition_type 0x12b-0x12b.7 (1)
0x120|                                    03         |            .   |      [8]: 3 transition_type 0x12c-0x12c.7 (1)
0x120|                                       02      |             .  |      [9]: 2 transition_type 0x12d-0x12d.7 (1)
0x120|                                          03   |              . |      [10]: 3 transition_type 0x12e-0x12e.7 (1)
0x120|                                             02|               .|      [11]: 2 transition_type 0x12f-0x12f.7 (1)
0x130|03                                             |.               |      [12]: 3 transition_type 0x130-0x130.7 (1)
0x130|   02                                          | .              |      [13]: 2 transition_type 0x131-0x131.7 (1)
0x130|      03                                       |  .             |      [14]: 3 transition_type 0x132-0x132.7 (1)
0x130|         02                                    |   .            |      [15]: 2 transition_type 0x133-0x133.7 (1)
0x130|            03                                 |    .           |      [16]: 3 transition_type 0x134-0x134.7 (1)
0x130|               02                              |     .          |      [17]: 2 transition_type 0x135-0x135.7 (1)
0x130|                  03                           |      .         |      [18]: 3 transition_type 0x136-0x136.7 (1)
0x130|                     02                        |       .        |      [19]: 2 transition_type 0x137-0x137.7 (1)
0x130|                        03                     |        .       |      [20]: 3 transition_type 0x138-0x138.7 (1)
0x130|                           02                  |         .      |      [21]: 2 transition_type 0x139-0x139.7 (1)
0x130|                              03               |          .     |      [22]: 3 transition_type 0x13a-0x13a.7 (1)
0x130|                                 02            |           .    |      [23]: 2 transition_type 0x13b-0x13b.7 (1)
0x130|                                    03         |            .   |      [24]: 3 transition_type 0x13c-0x13c.7 (1)
0x130|                                       02      |             .  |      [25]: 2 transition_type 0x13d-0x13d.7 (1)
0x130|                                          03   |              . |      [26]: 3 transition_type 0x13e-0x13e.7 (1)
0x130|                                             02|               .|      [27]: 2 transition_type 0x13f-0x13f.7 (1)
0x140|03                                             |.               |      [28]: 3 transition_type 0x140-0x140.7 (1)
0x140|   02                                          | .              |      [29]: 2 transition_type 0x141-0x141.7 (1)
0x140|      03                                       |  .             |      [30]: 3 transition_type 0x142-0x142.7 (1)
0x140|         02                                    |   .            |      [31]: 2 transition_type 0x143-0x143.7 (1)
0x140|            03                                 |    .           |      [32]: 3 transition_type 0x144-0x144.7 (1)
0x140|               02                              |     .          |      [33]: 2 transition_type 0x145-0x145.7 (1)
0x140|                  03                           |      .         |      [34]: 3 transition_type 0x146-0x146.7 (1)
0x140|                     02                        |       .        |      [35]: 2 transition_type 0x147-0x147.7 (1)
0x140|                        03                     |        .       |      [36]: 3 transition_type 0x148-0x148.7 (1)
0x140|                           02                  |         .      |      [37]: 2 transition_type 0x149-0x149.7 (1)
0x140|                              03               |          .     |      [38]: 3 transition_type 0x14a-0x14a.7 (1)
0x140|                                 02            |           .    |      [39]: 2 transition_type 0x14b-0x14b.7 (1)
0x140|                                    03         |            .   |      [40]: 3 transition_type 0x14c-0x14c.7 (1)
0x140|                                       02      |             .  |      [41]: 2 transition_type 0x14d-0x14d.7 (1)
0x140|                                          05   |              . |      [42]: 5 transition_type 0x14e-0x14e.7 (1)
0x140|                                             04|               .|      [43]: 4 transition_type 0x14f-0x14f.7 (1)
0x150|05                                             |.               |      [44]: 5 transition_type 0x150-0x150.7 (1)
0x150|   04                                          | .              |      [45]: 4 transition_type 0x151-0x151.7 (1)
0x150|      05                                       |  .             |      [46]: 5 transition_type 0x152-0x152.7 (1)
0x150|         04                                    |   .            |      [47]: 4 transition_type 0x153-0x153.7 (1)
0x150|            05                                 |    .           |      [48]: 5 transition_type 0x154-0x154.7 (1)
0x150|               04                              |     .          |      [49]: 4 transition_type 0x155-0x155.7 (1)
0x150|                  02                           |      .         |      [50]: 2 transition_type 0x156-0x156.7 (1)
0x150|                     04                        |       .        |      [51]: 4 transition_type 0x157-0x157.7 (1)
0x150|                        05                     |        .       |      [52]: 5 transition_type 0x158-0x158.7 (1)
0x150|                           04                  |         .      |      [53]: 4 transition_type 0x159-0x159.7 (1)
0x150|                              05               |          .     |      [54]: 5 transition_type 0x15a-0x15a.7 (1)
0x150|                                 03            |           .    |      [55]: 3 transition_type 0x15b-0x15b.7 (1)
0x150|                                    05         |            .   |      [56]: 5 transition_type 0x15c-0x15c.7 (1)
0x150|                                       02      |             .  |      [57]: 2 transition_type 0x15d-0x15d.7 (1)
0x150|                                          05   |              . |      [58]: 5 transition_type 0x15e-0x15e.7 (1)
0x150|                                             04|               .|      [59]: 4 transition_type 0x15f-0x15f.7 (1)
0x160|05                                             |.               |      [60]: 5 transition_type 0x160-0x160.7 (1)
0x160|   05                                          | .              |      [61]: 5 transition_type 0x161-0x161.7 (1)
     |                                               |                |    local_time_type_records[0:6]: 0x162-0x185.7 (36)
     |                                               |                |      [0]{}: local_time_type 0x162-0x167.7 (6)
0x160|      ff ff c2 54                              |  ...T          |        utoff: -15788 (valid) 0x162-0x165.7 (4)
0x160|                  00                           |      .         |        dst: 0 (valid) 0x166-0x166.7 (1)
0x160|                     00                        |       .        |        idx: 0 (valid) 0x167-0x167.7 (1)
     |                                               |                |      [1]{}: local_time_type 0x168-0x16d.7 (6)
0x160|                        ff ff c3 d0            |        ....    |        utoff: -15408 (valid) 0x168-0x16b.7 (4)
0x160|                                    00         |            .   |        dst: 0 (valid) 0x16c-0x16c.7 (1)
0x160|                                       04      |             .  |        idx: 4 (valid) 0x16d-0x16d.7 (1)
     |                                               |                |      [2]{}: local_time_type 0x16e-0x173.7 (6)
0x160|                                          ff ff|              ..|        utoff: -14400 (valid) 0x16e-0x171.7 (4)
0x170|c7 c0                                          |..              |
0x170|      00                                       |  .             |        dst: 0 (valid) 0x172-0x172.7 (1)
0x170|         08                                    |   .            |        idx: 8 (valid) 0x173-0x173.7 (1)
     |                                               |                |      [3]{}: local_time_type 0x174-0x179.7 (6)
0x170|            ff ff d5 d0                        |    ....        |        utoff: -10800 (valid) 0x174-0x177.7 (4)
0x170|                        01                     |        .       |        dst: 1 (valid) 0x178-0x178.7 (1)
0x170|                           0c                  |         .      |        idx: 12 (valid) 0x179-0x179.7 (1)
     |                                               |                |      [4]{}: local_time_type 0x17a-0x17f.7 (6)
0x170|                              ff ff e3 e0      |          ....  |        utoff: -7200 (valid) 0x17a-0x17d.7 (4)
0x170|                                          01   |              . |        dst: 1 (valid) 0x17e-0x17e.7 (1)
0x170|                                             10|               .|        idx: 16 (valid) 0x17f-0x17f.7 (1)
     |                                               |                |      [5]{}: local_time_type 0x180-0x185.7 (6)
0x180|ff ff d5 d0                                    |....            |        utoff: -10800 (valid) 0x180-0x183.7 (4)
0x180|            00                                 |    .           |        dst: 0 (valid) 0x184-0x184.7 (1)
0x180|               0c                              |     .          |        idx: 12 (valid) 0x185-0x185.7 (1)
     |                                               |                |    time_zone_designations[0:5]: 0x186-0x199.7 (20)
0x180|                  4c 4d 54 00                  |      LMT.      |      [0]: "LMT" time_zone_designation 0x186-0x189.7 (4)
0x180|                              43 4d 54 00      |          CMT.  |      [1]: "CMT" time_zone_designation 0x18a-0x18d.7 (4)
0x180|                                          2d 30|              -0|      [2]: "-04" time_zone_designation 0x18e-0x191.7 (4)
0x190|34 00                                          |4.              |
0x190|      2d 30 33 00                              |  -03.          |      [3]: "-03" time_zone_designation 0x192-0x195.7 (4)
0x190|                  2d 30 32 00                  |      -02.      |      [4]: "-02" time_zone_designation 0x196-0x199.7 (4)
     |                                               |                |    leap_second_records[0:27]: 0x19a-0x271.7 (216)
     |                                               |                |      [0]{}: leap_second_record 0x19a-0x1a1.7 (8)
0x190|                              04 b2 58 00      |          ..X.  |        occur: "1972-07-01T00:00:00Z" (78796800) 0x19a-0x19d.7 (4)
0x190|                                          00 00|              ..|        corr: 1 0x19e-0x1a1.7 (4)
0x1a0|00 01                                          |..              |
     |                                               |                |      [1]{}: leap_second_record 0x1a2-0x1a9.7 (8)
0x1a0|      05 a4 ec 01                              |  ....          |        occur: "1973-01-01T00:00:01Z" (94694401) 0x1a2-0x1a5.7 (4)
0x1a0|                  00 00 00 02                  |      ....      |        corr: 2 0x1a6-0x1a9.7 (4)
     |                                               |                |      [2]{}: leap_second_record 0x1aa-0x1b1.7 (8)
0x1a0|                              07 86 1f 82      |          ....  |        occur: "1974-01-01T00:00:02Z" (126230402) 0x1aa-0x1ad.7 (4)
0x1a0|                                          00 00|              ..|        corr: 3 0x1ae-0x1b1.7 (4)
0x1b0|00 03                                          |..              |
     |                                               |                |      [3]{}: leap_second_record 0x1b2-0x1b9.7 (8)
0x1b0|      09 67 53 03                              |  .gS.          |        occur: "1975-01-01T00:00:03Z" (157766403) 0x1b2-0x1b5.7 (4)
0x1b0|                  00 00 00 04                  |      ....      |        corr: 4 0x1b6-0x1b9.7 (4)
     |                                               |                |      [4]{}: leap_second_record 0x1ba-0x1c1.7 (8)
0x1b0|                              0b 48 86 84      |          .H..  |        occur: "1976-01-01T00:00:04Z" (189302404) 0x1ba-0x1bd.7 (4)
0x1b0|                                          00 00|              ..|        corr: 5 0x1be-0x1c1.7 (4)
0x1c0|00 05                                          |..              |
     |                                               |                |      [5]{}: leap_second_record 0x1c2-0x1c9.7 (8)
0x1c0|      0d 2b 0b 85                              |  .+..          |        occur: "1977-01-01T00:00:05Z" (220924805) 0x1c2-0x1c5.7 (4)
0x1c0|                  00 00 00 06                  |      ....      |        corr: 6 0x1c6-0x1c9.7 (4)
     |                                               |                |      [6]{}: leap_second_record 0x1ca-0x1d1.7 (8)
0x1c0|                              0f 0c 3f 06      |          ..?.  |        occur: "1978-01-01T00:00:06Z" (252460806) 0x1ca-0x1cd.7 (4)
0x1c0|                                          00 00|              ..|        corr: 7 0x1ce-0x1d1.7 (4)
0x1d0|00 07                                          |..              |
     |                                               |                |      [7]{}: leap_second_record 0x1d2-0x1d9.7 (8)
0x1d0|      10 ed 72 87                              |  ..r.          |        occur: "1979-01-01T00:00:07Z" (283996807) 0x1d2-0x1d5.7 (4)
0x1d0|                  00 00 00 08                  |      ....      |        corr: 8 0x1d6-0x1d9.7 (4)
     |                                               |                |      [8]{}: leap_second_record 0x1da-0x1e1.7 (8)
0x1d0|                              12 ce a6 08      |          ....  |        occur: "1980-01-01T00:00:08Z" (315532808) 0x1da-0x1dd.7 (4)
0x1d0|                                          00 00|              ..|        corr: 9 0x1de-0x1e1.7 (4)
0x1e0|00 09                                          |..              |
     |                                               |                |      [9]{}: leap_second_record 0x1e2-0x1e9.7 (8)
0x1e0|      15 9f ca 89                              |  ....          |        occur: "1981-07-01T00:00:09Z" (362793609) 0x1e2-0x1e5.7 (4)
0x1e0|                  00 00 00 0a                  |      ....      |        corr: 10 0x1e6-0x1e9.7 (4)
     |                                               |                |      [10]{}: leap_second_record 0x1ea-0x1f1.7 (8)
0x1e0|                              17 80 fe 0a      |          ....  |        occur: "1982-07-01T00:00:10Z" (394329610) 0x1ea-0x1ed.7 (4)
0x1e0|                                          00 00|              ..|        corr: 11 0x1ee-0x1f1.7 (4)
0x1f0|00 0b                                          |..              |
     |                                               |                |      [11]{}: leap_second_record 0x1f2-0x1f9.7 (8)
0x1f0|      19 62 31 8b                              |  .b1.          |        occur: "1983-07-01T00:00:11Z" (425865611) 0x1f2-0x1f5.7 (4)
0x1f0|                  00 00 00 0c                  |      ....      |        corr: 12 0x1f6-0x1f9.7 (4)
     |                                               |                |      [12]{}: leap_second_record 0x1fa-0x201.7 (8)
0x1f0|                              1d 25 ea 0c      |          .%..  |        occur: "1985-07-01T00:00:12Z" (489024012) 0x1fa-0x1fd.7 (4)
0x1f0|                                          00 00|              ..|        corr: 13 0x1fe-0x201.7 (4)
0x200|00 0d                                          |..              |
     |                                               |                |      [13]{}: leap_second_record 0x202-0x209.7 (8)
0x200|      21 da e5 0d                              |  !...          |        occur: "1988-01-01T00:00:13Z" (567993613) 0x202-0x205.7 (4)
0x200|                  00 00 00 0e                  |      ....      |        corr: 14 0x206-0x209.7 (4)
     |                                               |                |      [14]{}: leap_second_record 0x20a-0x211.7 (8)
0x200|                              25 9e 9d 8e      |          %...  |        occur: "1990-01-01T00:00:14Z" (631152014) 0x20a-0x20d.7 (4)
0x200|                                          00 00|              ..|        corr: 15 0x20e-0x211.7 (4)
0x210|00 0f                                          |..              |
     |                                               |                |      [15]{}: leap_second_record 0x212-0x219.7 (8)
0x210|      27 7f d1 0f                              |  '...          |        occur: "1991-01-01T00:00:15Z" (662688015) 0x212-0x215.7 (4)
0x210|                  00 00 00 10                  |      ....      |        corr: 16 0x216-0x219.7 (4)
     |                                               |                |      [16]{}: leap_second_record 0x21a-0x221.7 (8)
0x210|                              2a 50 f5 90      |          *P..  |        occur: "1992-07-01T00:00:16Z" (709948816) 0x21a-0x21d.7 (4)
0x210|                                          00 00|              ..|        corr: 17 0x21e-0x221.7 (4)
0x220|00 11                                          |..              |
     |                                               |                |      [17]{}: leap_second_record 0x222-0x229.7 (8)
0x220|      2c 32 29 11                              |  ,2).          |        occur: "1993-07-01T00:00:17Z" (741484817) 0x222-0x225.7 (4)
0x220|                  00 00 00 12                  |      ....      |        corr: 18 0x226-0x229.7 (4)
     |                                               |                |      [18]{}: leap_second_record 0x22a-0x231.7 (8)
0x220|                              2e 13 5c 92      |          ..\.  |        occur: "1994-07-01T00:00:18Z" (773020818) 0x22a-0x22d.7 (4)
0x220|                                          00 00|              ..|        corr: 19 0x22e-0x231.7 (4)
0x230|00 13                                          |..              |
     |                                               |                |      [19]{}: leap_second_record 0x232-0x239.7 (8)
0x230|      30 e7 24 13                              |  0.$.          |        occur: "1996-01-01T00:00:19Z" (820454419) 0x232-0x235.7 (4)
0x230|                  00 00 00 14                  |      ....      |        corr: 20 0x236-0x239.7 (4)
     |                                               |                |      [20]{}: leap_second_record 0x23a-0x241.7 (8)
0x230|                              33 b8 48 94      |          3.H.  |        occur: "1997-07-01T00:00:20Z" (867715220) 0x23a-0x23d.7 (4)
0x230|                                          00 00|              ..|        corr: 21 0x23e-0x241.7 (4)
0x240|00 15                                          |..              |
     |                                               |                |      [21]{}: leap_second_record 0x242-0x249.7 (8)
0x240|      36 8c 10 15                              |  6...          |        occur: "1999-01-01T00:00:21Z" (915148821) 0x242-0x245.7 (4)
0x240|                  00 00 00 16                  |      ....      |        corr: 22 0x246-0x249.7 (4)
     |                                               |                |      [22]{}: leap_second_record 0x24a-0x251.7 (8)
0x240|                              43 b7 1b 96      |          C...  |        occur: "2006-01-01T00:00:22Z" (1136073622) 0x24a-0x24d.7 (4)
0x240|                                          00 00|              ..|        corr: 23 0x24e-0x251.7 (4)
0x250|00 17                                          |..              |
     |                                               |                |      [23]{}: leap_second_record 0x252-0x259.7 (8)
0x250|      49 5c 07 97                              |  I\..          |        occur: "2009-01-01T00:00:23Z" (1230768023) 0x252-0x255.7 (4)
0x250|                  00 00 00 18                  |      ....      |        corr: 24 0x256-0x259.7 (4)
     |                                               |                |      [24]{}: leap_second_record 0x25a-0x261.7 (8)
0x250|                              4f ef 93 18      |          O...  |        occur: "2012-07-01T00:00:24Z" (1341100824) 0x25a-0x25d.7 (4)
0x250|                                          00 00|              ..|        corr: 25 0x25e-0x261.7 (4)
0x260|00 19                                          |..              |
     |                                               |                |      [25]{}: leap_second_record 0x262-0x269.7 (8)
0x260|      55 93 2d 99                              |  U.-.          |        occur: "2015-07-01T00:00:25Z" (1435708825) 0x262-0x265.7 (4)
0x260|                  00 00 00 1a                  |      ....      |        corr: 26 0x266-0x269.7 (4)
     |                                               |                |      [26]{}: leap_second_record 0x26a-0x271.7 (8)
0x260|                              58 68 46 9a      |          XhF.  |        occur: "2017-01-01T00:00:26Z" (1483228826) 0x26a-0x26d.7 (4)
0x260|                                          00 00|              ..|        corr: 27 0x26e-0x271.7 (4)
0x270|00 1b                                          |..              |
     |                                               |                |    standard_wall_indicators[0:0]: 0x272-NA (0)
     |                                               |                |    ut_local_indicators[0:0]: 0x272-NA (0)
     |                                               |                |  v2plusheader{}: 0x272-0x29d.7 (44)
0x270|      54 5a 69 66                              |  TZif          |    magic: 0x545a6966 (valid) 0x272-0x275.7 (4)
0x270|                  32                           |      2         |    ver: "2" (0x32) (valid) 0x276-0x276.7 (1)
0x270|                     00 00 00 00 00 00 00 00 00|       .........|    reserved: raw bits 0x277-0x285.7 (15)
0x280|00 00 00 00 00 00                              |......          |
0x280|                  00 00 00 00                  |      ....      |    isutcnt: 0 0x286-0x289.7 (4)
0x280|                              00 00 00 00      |          ....  |    isstdcnt: 0 0x28a-0x28d.7 (4)
0x280|                                          00 00|              ..|    leapcnt: 27 0x28e-0x291.7 (4)
0x290|00 1b                                          |..              |
0x290|      00 00 00 3e                              |  ...>          |    timecnt: 62 0x292-0x295.7 (4)
0x290|                  00 00 00 06                  |      ....      |    typecnt: 6 0x296-0x299.7 (4)
0x290|                              00 00 00 14      |          ....  |    charcnt: 20 0x29a-0x29d.7 (4)
     |                                               |                |  v2plusdatablock{}: 0x29e-0x647.7 (938)
     |                                               |                |    transition_times[0:62]: 0x29e-0x48d.7 (496)
0x290|                                          ff ff|              ..|      [0]: "1894-10-31T04:23:08Z" (-2372096212) transition_time 0x29e-0x2a5.7 (8)
0x2a0|ff ff 72 9c af 2c                              |..r..,          |
0x2a0|                  ff ff ff ff a2 92 8f 30      |      .......0  |      [1]: "1920-05-01T04:16:48Z" (-1567453392) transition_time 0x2a6-0x2ad.7 (8)
0x2a0|                                          ff ff|              ..|      [2]: "1930-12-01T04:00:00Z" (-1233432000) transition_time 0x2ae-0x2b5.7 (8)
0x2b0|ff ff b6 7b 52 40                              |...{R@          |
0x2b0|                  ff ff ff ff b7 1a c9 b0      |      ........  |      [3]: "1931-04-01T03:00:00Z" (-1222981200) transition_time 0x2b6-0x2bd.7 (8)
0x2b0|                                          ff ff|              ..|      [4]: "1931-10-15T04:00:00Z" (-1205956800) transition_time 0x2be-0x2c5.7 (8)
0x2c0|ff ff b8 1e 8f 40                              |.....@          |
0x2c0|                  ff ff ff ff b8 d4 70 30      |      ......p0  |      [5]: "1932-03-01T03:00:00Z" (-1194037200) transition_time 0x2c6-0x2cd.7 (8)
0x2c0|                                          ff ff|              ..|      [6]: "1932-11-01T04:00:00Z" (-1172865600) transition_time 0x2ce-0x2d5.7 (8)
0x2d0|ff ff ba 17 7d c0                              |....}.          |
0x2d0|                  ff ff ff ff ba b5 a3 b0      |      ........  |      [7]: "1933-03-01T03:00:00Z" (-1162501200) transition_time 0x2d6-0x2dd.7 (8)
0x2d0|                                          ff ff|              ..|      [8]: "1933-11-01T04:00:00Z" (-1141329600) transition_time 0x2de-0x2e5.7 (8)
0x2e0|ff ff bb f8 b1 40                              |.....@          |
0x2e0|                  ff ff ff ff bc 96 d7 30      |      .......0  |      [9]: "1934-03-01T03:00:00Z" (-1130965200) transition_time 0x2e6-0x2ed.7 (8)
0x2e0|                                          ff ff|              ..|      [10]: "1934-11-01T04:00:00Z" (-1109793600) transition_time 0x2ee-0x2f5.7 (8)
0x2f0|ff ff bd d9 e4 c0                              |......          |
0x2f0|                  ff ff ff ff be 78 0a b0      |      .....x..  |      [11]: "1935-03-01T03:00:00Z" (-1099429200) transition_time 0x2f6-0x2fd.7 (8)
0x2f0|                                          ff ff|              ..|      [12]: "1935-11-01T04:00:00Z" (-1078257600) transition_time 0x2fe-0x305.7 (8)
0x300|ff ff bf bb 18 40                              |.....@          |
0x300|                  ff ff ff ff c0 5a 8f b0      |      .....Z..  |      [13]: "1936-03-01T03:00:00Z" (-1067806800) transition_time 0x306-0x30d.7 (8)
0x300|                                          ff ff|              ..|      [14]: "1936-11-01T04:00:00Z" (-1046635200) transition_time 0x30e-0x315.7 (8)
0x310|ff ff c1 9d 9d 40                              |.....@          |
0x310|                  ff ff ff ff c2 3b c3 30      |      .....;.0  |      [15]: "1937-03-01T03:00:00Z" (-1036270800) transition_time 0x316-0x31d.7 (8)
0x310|                                          ff ff|              ..|      [16]: "1937-11-01T04:00:00Z" (-1015099200) transition_time 0x31e-0x325.7 (8)
0x320|ff ff c3 7e d0 c0                              |...~..          |
0x320|                  ff ff ff ff c4 1c f6 b0      |      ........  |      [17]: "1938-03-01T03:00:00Z" (-1004734800) transition_time 0x326-0x32d.7 (8)
0x320|                                          ff ff|              ..|      [18]: "1938-11-01T04:00:00Z" (-983563200) transition_time 0x32e-0x335.7 (8)
0x330|ff ff c5 60 04 40                              |...`.@          |
0x330|                  ff ff ff ff c5 fe 2a 30      |      ......*0  |      [19]: "1939-03-01T03:00:00Z" (-973198800) transition_time 0x336-0x33d.7 (8)
0x330|                                          ff ff|              ..|      [20]: "1939-11-01T04:00:00Z" (-952027200) transition_time 0x33e-0x345.7 (8)
0x340|ff ff c7 41 37 c0                              |...A7.          |
0x340|                  ff ff ff ff c7 e0 af 30      |      .......0  |      [21]: "1940-03-01T03:00:00Z" (-941576400) transition_time 0x346-0x34d.7 (8)
0x340|                                          ff ff|              ..|      [22]: "1940-07-01T04:00:00Z" (-931032000) transition_time 0x34e-0x355.7 (8)
0x350|ff ff c8 81 94 40                              |.....@          |
0x350|                  ff ff ff ff ca 4d a1 b0      |      .....M..  |      [23]: "1941-06-15T03:00:00Z" (-900882000) transition_time 0x356-0x35d.7 (8)
0x350|                                          ff ff|              ..|      [24]: "1941-10-15T04:00:00Z" (-890337600) transition_time 0x35e-0x365.7 (8)
0x360|ff ff ca ee 86 c0                              |......          |
0x360|                  ff ff ff ff ce 4d ff 30      |      .....M.0  |      [25]: "1943-08-01T03:00:00Z" (-833749200) transition_time 0x366-0x36d.7 (8)
0x360|                                          ff ff|              ..|      [26]: "1943-10-15T04:00:00Z" (-827265600) transition_time 0x36e-0x375.7 (8)
0x370|ff ff ce b0 ed c0                              |......          |
0x370|                  ff ff ff ff d3 29 35 b0      |      .....)5.  |      [27]: "1946-03-01T03:00:00Z" (-752274000) transition_time 0x376-0x37d.7 (8)
0x370|                                          ff ff|              ..|      [28]: "1946-10-01T04:00:00Z" (-733780800) transition_time 0x37e-0x385.7 (8)
0x380|ff ff d4 43 64 c0                              |...Cd.          |
0x380|                  ff ff ff ff f4 3d 08 30      |      .....=.0  |      [29]: "1963-10-01T03:00:00Z" (-197326800) transition_time 0x386-0x38d.7 (8)
0x380|                                          ff ff|              ..|      [30]: "1963-12-15T04:00:00Z" (-190843200) transition_time 0x38e-0x395.7 (8)
0x390|ff ff f4 9f f6 c0                              |......          |
0x390|                  ff ff ff ff f5 05 6c 30      |      ......l0  |      [31]: "1964-03-01T03:00:00Z" (-184194000) transition_time 0x396-0x39d.7 (8)
0x390|                                          ff ff|              ..|      [32]: "1964-10-15T04:00:00Z" (-164491200) transition_time 0x39e-0x3a5.7 (8)
0x3a0|ff ff f6 32 10 40                              |...2.@          |
0x3a0|                  ff ff ff ff f6 e6 9f b0      |      ........  |      [33]: "1965-03-01T03:00:00Z" (-152658000) transition_time 0x3a6-0x3ad.7 (8)
0x3a0|                                          ff ff|              ..|      [34]: "1965-10-15T04:00:00Z" (-132955200) transition_time 0x3ae-0x3b5.7 (8)
0x3b0|ff ff f8 13 43 c0                              |....C.          |
0x3b0|                  ff ff ff ff f8 c7 d3 30      |      .......0  |      [35]: "1966-03-01T03:00:00Z" (-121122000) transition_time 0x3b6-0x3bd.7 (8)
0x3b0|                                          ff ff|              ..|      [36]: "1966-10-15T04:00:00Z" (-101419200) transition_time 0x3be-0x3c5.7 (8)
0x3c0|ff ff f9 f4 77 40                              |....w@          |
0x3c0|                  ff ff ff ff fa d3 36 b0      |      ......6.  |      [37]: "1967-04-02T03:00:00Z" (-86821200) transition_time 0x3c6-0x3cd.7 (8)
0x3c0|                                          ff ff|              ..|      [38]: "1967-10-01T04:00:00Z" (-71092800) transition_time 0x3ce-0x3d5.7 (8)
0x3d0|ff ff fb c3 35 c0                              |....5.          |
0x3d0|                  ff ff ff ff fc bc 53 30      |      ......S0  |      [39]: "1968-04-07T03:00:00Z" (-54766800) transition_time 0x3d6-0x3dd.7 (8)
0x3d0|                                          ff ff|              ..|      [40]: "1968-10-06T04:00:00Z" (-39038400) transition_time 0x3de-0x3e5.7 (8)
0x3e0|ff ff fd ac 52 40                              |....R@          |
0x3e0|                  ff ff ff ff fe 9c 35 30      |      ......50  |      [41]: "1969-04-06T03:00:00Z" (-23317200) transition_time 0x3e6-0x3ed.7 (8)
0x3e0|                                          ff ff|              ..|      [42]: "1969-10-05T04:00:00Z" (-7588800) transition_time 0x3ee-0x3f5.7 (8)
0x3f0|ff ff ff 8c 34 40                              |....4@          |
0x3f0|                  00 00 00 00 07 a3 4a b3      |      ......J.  |      [43]: "1974-01-23T03:00:03Z" (128142003) transition_time 0x3f6-0x3fd.7 (8)
0x3f0|                                          00 00|              ..|      [44]: "1974-05-01T02:00:03Z" (136605603) transition_time 0x3fe-0x405.7 (8)
0x400|00 00 08 24 6f a3                              |...$o.          |
0x400|                  00 00 00 00 23 94 b5 be      |      ....#...  |      [45]: "1988-12-01T03:00:14Z" (596948414) transition_time 0x406-0x40d.7 (8)
0x400|                                          00 00|              ..|      [46]: "1989-03-05T02:00:14Z" (605066414) transition_time 0x40e-0x415.7 (8)
0x410|00 00 24 10 94 ae                              |..$...          |
0x410|                  00 00 00 00 25 37 f2 be      |      ....%7..  |      [47]: "1989-10-15T03:00:14Z" (624423614) transition_time 0x416-0x41d.7 (8)
0x410|                                          00 00|              ..|      [48]: "1990-03-04T02:00:15Z" (636516015) transition_time 0x41e-0x425.7 (8)
0x420|00 00 25 f0 76 af                              |..%.v.          |
0x420|                  00 00 00 00 27 21 0f 3f      |      ....'!.?  |      [49]: "1990-10-21T03:00:15Z" (656478015) transition_time 0x426-0x42d.7 (8)
0x420|                                          00 00|              ..|      [50]: "1991-03-03T02:00:16Z" (667965616) transition_time 0x42e-0x435.7 (8)
0x430|00 00 27 d0 58 b0                              |..'.X.          |
0x430|                  00 00 00 00 29 00 ff 50      |      ....)..P  |      [51]: "1991-10-20T04:00:16Z" (687931216) transition_time 0x436-0x43d.7 (8)
0x430|                                          00 00|              ..|      [52]: "1992-03-01T02:00:16Z" (699415216) transition_time 0x43e-0x445.7 (8)
0x440|00 00 29 b0 3a b0                              |..).:.          |
0x440|                  00 00 00 00 2a e0 d3 41      |      ....*..A  |      [53]: "1992-10-18T03:00:17Z" (719377217) transition_time 0x446-0x44d.7 (8)
0x440|                                          00 00|              ..|      [54]: "1993-03-07T02:00:17Z" (731469617) transition_time 0x44e-0x455.7 (8)
0x450|00 00 2b 99 57 31                              |..+.W1          |
0x450|                  00 00 00 00 37 f6 c6 c6      |      ....7...  |      [55]: "1999-10-03T03:00:22Z" (938919622) transition_time 0x456-0x45d.7 (8)
0x450|                                          00 00|              ..|      [56]: "2000-03-03T03:00:22Z" (952052422) transition_time 0x45e-0x465.7 (8)
0x460|00 00 38 bf 2a c6                              |..8.*.          |
0x460|                  00 00 00 00 40 bb f1 46      |      ....@..F  |      [57]: "2004-06-01T03:00:22Z" (1086058822) transition_time 0x466-0x46d.7 (8)
0x460|                                          00 00|              ..|      [58]: "2004-06-20T04:00:22Z" (1087704022) transition_time 0x46e-0x475.7 (8)
0x470|00 00 40 d5 0b d6                              |..@...          |
0x470|                  00 00 00 00 47 77 09 c7      |      ....Gw..  |      [59]: "2007-12-30T03:00:23Z" (1198983623) transition_time 0x476-0x47d.7 (8)
0x470|                                          00 00|              ..|      [60]: "2008-03-16T02:00:23Z" (1205632823) transition_time 0x47e-0x485.7 (8)
0x480|00 00 47 dc 7f 37                              |..G..7          |
0x480|                  00 00 00 00 64 9b 78 1b      |      ....d.x.  |      [61]: "2023-06-28T00:00:27Z" (1687910427) transition_time 0x486-0x48d.7 (8)
     |                                               |                |    transition_types[0:62]: 0x48e-0x4cb.7 (62)
0x480|                                          01   |              . |      [0]: 1 transition_type 0x48e-0x48e.7 (1)
0x480|                                             02|               .|      [1]: 2 transition_type 0x48f-0x48f.7 (1)
0x490|03                                             |.               |      [2]: 3 transition_type 0x490-0x490.7 (1)
0x490|   02                                          | .              |      [3]: 2 transition_type 0x491-0x491.7 (1)
0x490|      03                                       |  .             |      [4]: 3 transition_type 0x492-0x492.7 (1)
0x490|         02                                    |   .            |      [5]: 2 transition_type 0x493-0x493.7 (1)
0x490|            03                                 |    .           |      [6]: 3 transition_type 0x494-0x494.7 (1)
0x490|               02                              |     .          |      [7]: 2 transition_type 0x495-0x495.7 (1)
0x490|                  03                           |      .         |      [8]: 3 transition_type 0x496-0x496.7 (1)
0x490|                     02                        |       .        |      [9]: 2 transition_type 0x497-0x497.7 (1)
0x490|                        03                     |        .       |      [10]: 3 transition_type 0x498-0x498.7 (1)
0x490|                           02                  |         .      |      [11]: 2 transition_type 0x499-0x499.7 (1)
0x490|                              03               |          .     |      [12]: 3 transition_type 0x49a-0x49a.7 (1)
0x490|                                 02            |           .    |      [13]: 2 transition_type 0x49b-0x49b.7 (1)
0x490|                                    03         |            .   |      [14]: 3 transition_type 0x49c-0x49c.7 (1)
0x490|                                       02      |             .  |      [15]: 2 transition_type 0x49d-0x49d.7 (1)
0x490|                                          03   |              . |      [16]: 3 transition_type 0x49e-0x49e.7 (1)
0x490|                                             02|               .|      [17]: 2 transition_type 0x49f-0x49f.7 (1)
0x4a0|03                                             |.               |      [18]: 3 transition_type 0x4a0-0x4a0.7 (1)
0x4a0|   02                                          | .              |      [19]: 2 transition_type 0x4a1-0x4a1.7 (1)
0x4a0|      03                                       |  .             |      [20]: 3 transition_type 0x4a2-0x4a2.7 (1)
0x4a0|         02                                    |   .            |      [21]: 2 transition_type 0x4a3-0x4a3.7 (1)
0x4a0|            03                                 |    .           |      [22]: 3 transition_type 0x4a4-0x4a4.7 (1)
0x4a0|               02                              |     .          |      [23]: 2 transition_type 0x4a5-0x4a5.7 (1)
0x4a0|                  03                           |      .         |      [24]: 3 transition_type 0x4a6-0x4a6.7 (1)
0x4a0|                     02                        |       .        |      [25]: 2 transition_type 0x4a7-0x4a7.7 (1)
0x4a0|                        03                     |        .       |      [26]: 3 transition_type 0x4a8-0x4a8.7 (1)
0x4a0|                           02                  |         .      |      [27]: 2 transition_type 0x4a9-0x4a9.7 (1)
0x4a0|                              03               |          .     |      [28]: 3 transition_type 0x4aa-0x4aa.7 (1)
0x4a0|                                 02            |           .    |      [29]: 2 transition_type 0x4ab-0x4ab.7 (1)
0x4a0|                                    03         |            .   |      [30]: 3 transition_type 0x4ac-0x4ac.7 (1)
0x4a0|                                       02      |             .  |      [31]: 2 transition_type 0x4ad-0x4ad.7 (1)
0x4a0|                                          03   |              . |      [32]: 3 transition_type 0x4ae-0x4ae.7 (1)
0x4a0|                                             02|               .|      [33]: 2 transition_type 0x4af-0x4af.7 (1)
0x4b0|03                                             |.               |      [34]: 3 transition_type 0x4b0-0x4b0.7 (1)
0x4b0|   02                                          | .              |      [35]: 2 transition_type 0x4b1-0x4b1.7 (1)
0x4b0|      03                                       |  .             |      [36]: 3 transition_type 0x4b2-0x4b2.7 (1)
0x4b0|         02                                    |   .            |      [37]: 2 transition_type 0x4b3-0x4b3.7 (1)
0x4b0|            03                                 |    .           |      [38]: 3 transition_type 0x4b4-0x4b4.7 (1)
0x4b0|               02                              |     .          |      [39]: 2 transition_type 0x4b5-0x4b5.7 (1)
0x4b0|                  03                           |      .         |      [40]: 3 transition_type 0x4b6-0x4b6.7 (1)
0x4b0|                     02                        |       .        |      [41]: 2 transition_type 0x4b7-0x4b7.7 (1)
0x4b0|                        05                     |        .       |      [42]: 5 transition_type 0x4b8-0x4b8.7 (1)
0x4b0|                           04                  |         .      |      [43]: 4 transition_type 0x4b9-0x4b9.7 (1)
0x4b0|                              05               |          .     |      [44]: 5 transition_type 0x4ba-0x4ba.7 (1)
0x4b0|                                 04            |           .    |      [45]: 4 transition_type 0x4bb-0x4bb.7 (1)
0x4b0|                                    05         |            .   |      [46]: 5 transition_type 0x4bc-0x4bc.7 (1)
0x4b0|                                       04      |             .  |      [47]: 4 transition_type 0x4bd-0x4bd.7 (1)
0x4b0|                                          05   |              . |      [48]: 5 transition_type 0x4be-0x4be.7 (1)
0x4b0|                                             04|               .|      [49]: 4 transition_type 0x4bf-0x4bf.7 (1)
0x4c0|02                                             |.               |      [50]: 2 transition_type 0x4c0-0x4c0.7 (1)
0x4c0|   04                                          | .              |      [51]: 4 transition_type 0x4c1-0x4c1.7 (1)
0x4c0|      05                                       |  .             |      [52]: 5 transition_type 0x4c2-0x4c2.7 (1)
0x4c0|         04                                    |   .            |      [53]: 4 transition_type 0x4c3-0x4c3.7 (1)
0x4c0|            05                                 |    .           |      [54]: 5 transition_type 0x4c4-0x4c4.7 (1)
0x4c0|               03                              |     .          |      [55]: 3 transition_type 0x4c5-0x4c5.7 (1)
0x4c0|                  05                           |      .         |      [56]: 5 transition_type 0x4c6-0x4c6.7 (1)
0x4c0|                     02                        |       .        |      [57]: 2 transition_type 0x4c7-0x4c7.7 (1)
0x4c0|                        05                     |        .       |      [58]: 5 transition_type 0x4c8-0x4c8.7 (1)
0x4c0|                           04                  |         .      |      [59]: 4 transition_type 0x4c9-0x4c9.7 (1)
0x4c0|                              05               |          .     |      [60]: 5 transition_type 0x4ca-0x4ca.7 (1)
0x4c0|                                 05            |           .    |      [61]: 5 transition_type 0x4cb-0x4cb.7 (1)
     |                                               |                |    local_time_type_records[0:6]: 0x4cc-0x4ef.7 (36)
     |                                               |                |      [0]{}: local_time_type 0x4cc-0x4d1.7 (6)
0x4c0|                                    ff ff c2 54|            ...T|        utoff: -15788 (valid) 0x4cc-0x4cf.7 (4)
0x4d0|00                                             |.               |        dst: 0 (valid) 0x4d0-0x4d0.7 (1)
0x4d0|   00                                          | .              |        idx: 0 (valid) 0x4d1-0x4d1.7 (1)
     |                                               |                |      [1]{}: local_time_type 0x4d2-0x4d7.7 (6)
0x4d0|      ff ff c3 d0                              |  ....          |        utoff: -15408 (valid) 0x4d2-0x4d5.7 (4)
0x4d0|                  00                           |      .         |        dst: 0 (valid) 0x4d6-0x4d6.7 (1)
0x4d0|                     04                        |       .        |        idx: 4 (valid) 0x4d7-0x4d7.7 (1)
     |                                               |                |      [2]{}: local_time_type 0x4d8-0x4dd.7 (6)
0x4d0|                        ff ff c7 c0            |        ....    |        utoff: -14400 (valid) 0x4d8-0x4db.7 (4)
0x4d0|                                    00         |            .   |        dst: 0 (valid) 0x4dc-0x4dc.7 (1)
0x4d0|                                       08      |             .  |        idx: 8 (valid) 0x4dd-0x4dd.7 (1)
     |                                               |                |      [3]{}: local_time_type 0x4de-0x4e3.7 (6)
0x4d0|                                          ff ff|              ..|        utoff: -10800 (valid) 0x4de-0x4e1.7 (4)
0x4e0|d5 d0                                          |..              |
0x4e0|      01                                       |  .             |        dst: 1 (valid) 0x4e2-0x4e2.7 (1)
0x4e0|         0c                                    |   .            |        idx: 12 (valid) 0x4e3-0x4e3.7 (1)
     |                                               |                |      [4]{}: local_time_type 0x4e4-0x4e9.7 (6)
0x4e0|            ff ff e3 e0                        |    ....        |        utoff: -7200 (valid) 0x4e4-0x4e7.7 (4)
0x4e0|                        01                     |        .       |        dst: 1 (valid) 0x4e8-0x4e8.7 (1)
0x4e0|                           10                  |         .      |        idx: 16 (valid) 0x4e9-0x4e9.7 (1)
     |                                               |                |      [5]{}: local_time_type 0x4ea-0x4ef.7 (6)
0x4e0|                              ff ff d5 d0      |          ....  |        utoff: -10800 (valid) 0x4ea-0x4ed.7 (4)
0x4e0|                                          00   |              . |        dst: 0 (valid) 0x4ee-0x4ee.7 (1)
0x4e0|                                             0c|               .|        idx: 12 (valid) 0x4ef-0x4ef.7 (1)
     |                                               |                |    time_zone_designations[0:5]: 0x4f0-0x503.7 (20)
0x4f0|4c 4d 54 00                                    |LMT.            |      [0]: "LMT" time_zone_designation 0x4f0-0x4f3.7 (4)
0x4f0|            43 4d 54 00                        |    CMT.        |      [1]: "CMT" time_zone_designation 0x4f4-0x4f7.7 (4)
0x4f0|                        2d 30 34 00            |        -04.    |      [2]: "-04" time_zone_designation 0x4f8-0x4fb.7 (4)
0x4f0|                                    2d 30 33 00|            -03.|      [3]: "-03" time_zone_designation 0x4fc-0x4ff.7 (4)
0x500|2d 30 32 00                                    |-02.            |      [4]: "-02" time_zone_designation 0x500-0x503.7 (4)
     |                                               |                |    leap_second_records[0:27]: 0x504-0x647.7 (324)
     |                                               |                |      [0]{}: leap_second_record 0x504-0x50f.7 (12)
0x500|            00 00 00 00 04 b2 58 00            |    ......X.    |        occur: "1972-07-01T00:00:00Z" (78796800) 0x504-0x50b.7 (8)
0x500|                                    00 00 00 01|            ....|        corr: 1 0x50c-0x50f.7 (4)
     |                                               |                |      [1]{}: leap_second_record 0x510-0x51b.7 (12)
0x510|00 00 00 00 05 a4 ec 01                        |........        |        occur: "1973-01-01T00:00:01Z" (94694401) 0x510-0x517.7 (8)
0x510|                        00 00 00 02            |        ....    |        corr: 2 0x518-0x51b.7 (4)
     |                                               |                |      [2]{}: leap_second_record 0x51c-0x527.7 (12)
0x510|                                    00 00 00 00|            ....|        occur: "1974-01-01T00:00:02Z" (126230402) 0x51c-0x523.7 (8)
0x520|07 86 1f 82                                    |....            |
0x520|            00 00 00 03                        |    ....        |        corr: 3 0x524-0x527.7 (4)
     |                                               |                |      [3]{}: leap_second_record 0x528-0x533.7 (12)
0x520|                        00 00 00 00 09 67 53 03|        .....gS.|        occur: "1975-01-01T00:00:03Z" (157766403) 0x528-0x52f.7 (8)
0x530|00 00 00 04                                    |....            |        corr: 4 0x530-0x533.7 (4)
     |                                               |                |      [4]{}: leap_second_record 0x534-0x53f.7 (12)
0x530|            00 00 00 00 0b 48 86 84            |    .....H..    |        occur: "1976-01-01T00:00:04Z" (189302404) 0x534-0x53b.7 (8)
0x530|                                    00 00 00 05|            ....|        corr: 5 0x53c-0x53f.7 (4)
     |                                               |                |      [5]{}: leap_second_record 0x540-0x54b.7 (12)
0x540|00 00 00 00 0d 2b 0b 85                        |.....+..        |        occur: "1977-01-01T00:00:05Z" (220924805) 0x540-0x547.7 (8)
0x540|                        00 00 00 06            |        ....    |        corr: 6 0x548-0x54b.7 (4)
     |                                               |                |      [6]{}: leap_second_record 0x54c-0x557.7 (12)
0x540|                                    00 00 00 00|            ....|        occur: "1978-01-01T00:00:06Z" (252460806) 0x54c-0x553.7 (8)
0x550|0f 0c 3f 06                                    |..?.            |
0x550|            00 00 00 07                        |    ....        |        corr: 7 0x554-0x557.7 (4)
     |                                               |                |      [7]{}: leap_second_record 0x558-0x563.7 (12)
0x550|                        00 00 00 00 10 ed 72 87|        ......r.|        occur: "1979-01-01T00:00:07Z" (283996807) 0x558-0x55f.7 (8)
0x560|00 00 00 08                                    |....            |        corr: 8 0x560-0x563.7 (4)
     |                                               |                |      [8]{}: leap_second_record 0x564-0x56f.7 (12)
0x560|            00 00 00 00 12 ce a6 08            |    ........    |        occur: "1980-01-01T00:00:08Z" (315532808) 0x564-0x56b.7 (8)
0x560|                                    00 00 00 09|            ....|        corr: 9 0x56c-0x56f.7 (4)
     |                                               |                |      [9]{}: leap_second_record 0x570-0x57b.7 (12)
0x570|00 00 00 00 15 9f ca 89                        |........        |        occur: "1981-07-01T00:00:09Z" (362793609) 0x570-0x577.7 (8)
0x570|                        00 00 00 0a            |        ....    |        corr: 10 0x578-0x57b.7 (4)
     |                                               |                |      [10]{}: leap_second_record 0x57c-0x587.7 (12)
0x570|                                    00 00 00 00|            ....|        occur: "1982-07-01T00:00:10Z" (394329610) 0x57c-0x583.7 (8)
0x580|17 80 fe 0a                                    |....            |
0x580|            00 00 00 0b                        |    ....        |        corr: 11 0x584-0x587.7 (4)
     |                                               |                |      [11]{}: leap_second_record 0x588-0x593.7 (12)
0x580|                        00 00 00 00 19 62 31 8b|        .....b1.|        occur: "1983-07-01T00:00:11Z" (425865611) 0x588-0x58f.7 (8)
0x590|00 00 00 0c                                    |....            |        corr: 12 0x590-0x593.7 (4)
     |                                               |                |      [12]{}: leap_second_record 0x594-0x59f.7 (12)
0x590|            00 00 00 00 1d 25 ea 0c            |    .....%..    |        occur: "1985-07-01T00:00:12Z" (489024012) 0x594-0x59b.7 (8)
0x590|                                    00 00 00 0d|            ....|        corr: 13 0x59c-0x59f.7 (4)
     |                                               |                |      [13]{}: leap_second_record 0x5a0-0x5ab.7 (12)
0x5a0|00 00 00 00 21 da e5 0d                        |....!...        |        occur: "1988-01-01T00:00:13Z" (567993613) 0x5a0-0x5a7.7 (8)
0x5a0|                        00 00 00 0e            |        ....    |        corr: 14 0x5a8-0x5ab.7 (4)
     |                                               |                |      [14]{}: leap_second_record 0x5ac-0x5b7.7 (12)
0x5a0|                                    00 00 00 00|            ....|        occur: "1990-01-01T00:00:14Z" (631152014) 0x5ac-0x5b3.7 (8)
0x5b0|25 9e 9d 8e                                    |%...            |
0x5b0|            00 00 00 0f                        |    ....        |        corr: 15 0x5b4-0x5b7.7 (4)
     |                                               |                |      [15]{}: leap_second_record 0x5b8-0x5c3.7 (12)
0x5b0|                        00 00 00 00 27 7f d1 0f|        ....'...|        occur: "1991-01-01T00:00:15Z" (662688015) 0x5b8-0x5bf.7 (8)
0x5c0|00 00 00 10                                    |....            |        corr: 16 0x5c0-0x5c3.7 (4)
     |                                               |                |      [16]{}: leap_second_record 0x5c4-0x5cf.7 (12)
0x5c0|            00 00 00 00 2a 50 f5 90            |    ....*P..    |        occur: "1992-07-01T00:00:16Z" (709948816) 0x5c4-0x5cb.7 (8)
0x5c0|                                    00 00 00 11|            ....|        corr: 17 0x5cc-0x5cf.7 (4)
     |                                               |                |      [17]{}: leap_second_record 0x5d0-0x5db.7 (12)
0x5d0|00 00 00 00 2c 32 29 11                        |....,2).        |        occur: "1993-07-01T00:00:17Z" (741484817) 0x5d0-0x5d7.7 (8)
0x5d0|                        00 00 00 12            |        ....    |        corr: 18 0x5d8-0x5db.7 (4)
     |                                               |                |      [18]{}: leap_second_record 0x5dc-0x5e7.7 (12)
0x5d0|                                    00 00 00 00|            ....|        occur: "1994-07-01T00:00:18Z" (773020818) 0x5dc-0x5e3.7 (8)
0x5e0|2e 13 5c 92                                    |..\.            |
0x5e0|            00 00 00 13                        |    ....        |        corr: 19 0x5e4-0x5e7.7 (4)
     |                                               |                |      [19]{}: leap_second_record 0x5e8-0x5f3.7 (12)
0x5e0|                        00 00 00 00 30 e7 24 13|        ....0.$.|        occur: "1996-01-01T00:00:19Z" (820454419) 0x5e8-0x5ef.7 (8)
0x5f0|00 00 00 14                                    |....            |        corr: 20 0x5f0-0x5f3.7 (4)
     |                                               |                |      [20]{}: leap_second_record 0x5f4-0x5ff.7 (12)
0x5f0|            00 00 00 00 33 b8 48 94            |    ....3.H.    |        occur: "1997-07-01T00:00:20Z" (867715220) 0x5f4-0x5fb.7 (8)
0x5f0|                                    00 00 00 15|            ....|        corr: 21 0x5fc-0x5ff.7 (4)
     |                                               |                |      [21]{}: leap_second_record 0x600-0x60b.7 (12)
0x600|00 00 00 00 36 8c 10 15                        |....6...        |        occur: "1999-01-01T00:00:21Z" (915148821) 0x600-0x607.7 (8)
0x600|                        00 00 00 16            |        ....    |        corr: 22 0x608-0x60b.7 (4)
     |                                               |                |      [22]{}: leap_second_record 0x60c-0x617.7 (12)
0x600|                                    00 00 00 00|            ....|        occur: "2006-01-01T00:00:22Z" (1136073622) 0x60c-0x613.7 (8)
0x610|43 b7 1b 96                                    |C...            |
0x610|            00 00 00 17                        |    ....        |        corr: 23 0x614-0x617.7 (4)
     |                                               |                |      [23]{}: leap_second_record 0x618-0x623.7 (12)
0x610|                        00 00 00 00 49 5c 07 97|        ....I\..|        occur: "2009-01-01T00:00:23Z" (1230768023) 0x618-0x61f.7 (8)
0x620|00 00 00 18                                    |....            |        corr: 24 0x620-0x623.7 (4)
     |                                               |                |      [24]{}: leap_second_record 0x624-0x62f.7 (12)
0x620|            00 00 00 00 4f ef 93 18            |    ....O...    |        occur: "2012-07-01T00:00:24Z" (1341100824) 0x624-0x62b.7 (8)
0x620|                                    00 00 00 19|            ....|        corr: 25 0x62c-0x62f.7 (4)
     |                                               |                |      [25]{}: leap_second_record 0x630-0x63b.7 (12)
0x630|00 00 00 00 55 93 2d 99                        |....U.-.        |        occur: "2015-07-01T00:00:25Z" (1435708825) 0x630-0x637.7 (8)
0x630|                        00 00 00 1a            |        ....    |        corr: 26 0x638-0x63b.7 (4)
     |                                               |                |      [26]{}: leap_second_record 0x63c-0x647.7 (12)
0x630|                                    00 00 00 00|            ....|        occur: "2017-01-01T00:00:26Z" (1483228826) 0x63c-0x643.7 (8)
0x640|58 68 46 9a                                    |XhF.            |
0x640|            00 00 00 1b                        |    ....        |        corr: 27 0x644-0x647.7 (4)
     |                                               |                |    standard_wall_indicators[0:0]: 0x648-NA (0)
     |                                               |                |    ut_local_indicators[0:0]: 0x648-NA (0)
     |                                               |                |  footer{}: 0x648-0x649.7 (2)
0x640|                        0a                     |        .       |    nl1: 10 (valid) 0x648-0x648.7 (1)
     |                                               |                |    tz_string: "" 0x649-NA (0)
0x640|                           0a|                 |         .|     |    nl2: 10 (valid) 0x649-0x649.7 (1)
