$ fq -d tzif dv Ceuta
     |00 01 02 03 04 05 06 07 08 09 0a 0b 0c 0d 0e 0f|0123456789abcdef|.{}: Ceuta (tzif) 0x0-0x803.7 (2052)
     |                                               |                |  v1header{}: 0x0-0x2b.7 (44)
0x000|54 5a 69 66                                    |TZif            |    magic: 0x545a6966 (valid) 0x0-0x3.7 (4)
0x000|            32                                 |    2           |    ver: "2" (0x32) (valid) 0x4-0x4.7 (1)
0x000|               00 00 00 00 00 00 00 00 00 00 00|     ...........|    reserved: raw bits 0x5-0x13.7 (15)
0x010|00 00 00 00                                    |....            |
0x010|            00 00 00 08                        |    ....        |    isutcnt: 8 0x14-0x17.7 (4)
0x010|                        00 00 00 08            |        ....    |    isstdcnt: 8 0x18-0x1b.7 (4)
0x010|                                    00 00 00 00|            ....|    leapcnt: 0 0x1c-0x1f.7 (4)
0x020|00 00 00 7e                                    |...~            |    timecnt: 126 0x20-0x23.7 (4)
0x020|            00 00 00 08                        |    ....        |    typecnt: 8 0x24-0x27.7 (4)
0x020|                        00 00 00 16            |        ....    |    charcnt: 22 0x28-0x2b.7 (4)
     |                                               |                |  v1datablock{}: 0x2c-0x2f7.7 (716)
     |                                               |                |    transition_times[0:126]: 0x2c-0x223.7 (504)
0x020|                                    80 00 00 00|            ....|      [0]: "1901-12-13T20:45:52Z" (-2147483648) transition_time 0x2c-0x2f.7 (4)
0x030|9e d6 75 70                                    |..up            |      [1]: "1918-05-06T23:00:00Z" (-1630112400) transition_time 0x30-0x33.7 (4)
0x030|            9f a1 6e 60                        |    ..n`        |      [2]: "1918-10-07T22:00:00Z" (-1616810400) transition_time 0x34-0x37.7 (4)
0x030|                        aa 05 ef 70            |        ...p    |      [3]: "1924-04-16T23:00:00Z" (-1442451600) transition_time 0x38-0x3b.7 (4)
0x030|                                    aa e7 6e 00|            ..n.|      [4]: "1924-10-05T00:00:00Z" (-1427673600) transition_time 0x3c-0x3f.7 (4)
0x040|ad c9 a7 f0                                    |....            |      [5]: "1926-04-17T23:00:00Z" (-1379293200) transition_time 0x40-0x43.7 (4)
0x040|            ae a7 32 00                        |    ..2.        |      [6]: "1926-10-03T00:00:00Z" (-1364774400) transition_time 0x44-0x47.7 (4)
0x040|                        af a0 4f 70            |        ..Op    |      [7]: "1927-04-09T23:00:00Z" (-1348448400) transition_time 0x48-0x4b.7 (4)
0x040|                                    b0 87 14 00|            ....|      [8]: "1927-10-02T00:00:00Z" (-1333324800) transition_time 0x4c-0x4f.7 (4)
0x050|b1 89 7a 00                                    |..z.            |      [9]: "1928-04-15T00:00:00Z" (-1316390400) transition_time 0x50-0x53.7 (4)
0x050|            b2 70 30 80                        |    .p0.        |      [10]: "1928-10-07T00:00:00Z" (-1301270400) transition_time 0x54-0x57.7 (4)
0x050|                        fb 25 72 40            |        .%r@    |      [11]: "1967-06-03T12:00:00Z" (-81432000) transition_time 0x58-0x5b.7 (4)
0x050|                                    fb c2 ef 70|            ...p|      [12]: "1967-09-30T23:00:00Z" (-71110800) transition_time 0x5c-0x5f.7 (4)
0x060|08 6b 84 80                                    |.k..            |      [13]: "1974-06-24T00:00:00Z" (141264000) transition_time 0x60-0x63.7 (4)
0x060|            08 c6 6d f0                        |    ..m.        |      [14]: "1974-08-31T23:00:00Z" (147222000) transition_time 0x64-0x67.7 (4)
0x060|                        0b e8 0c 00            |        ....    |      [15]: "1976-05-01T00:00:00Z" (199756800) transition_time 0x68-0x6b.7 (4)
0x060|                                    0c 61 47 f0|            .aG.|      [16]: "1976-07-31T23:00:00Z" (207702000) transition_time 0x6c-0x6f.7 (4)
0x070|0d c9 3f 80                                    |..?.            |      [17]: "1977-05-01T00:00:00Z" (231292800) transition_time 0x70-0x73.7 (4)
0x070|            0e 8e f2 70                        |    ...p        |      [18]: "1977-09-27T23:00:00Z" (244249200) transition_time 0x74-0x77.7 (4)
0x070|                        0f d3 51 80            |        ..Q.    |      [19]: "1978-06-01T00:00:00Z" (265507200) transition_time 0x78-0x7b.7 (4)
0x070|                                    10 27 a3 70|            .'.p|      [20]: "1978-08-03T23:00:00Z" (271033200) transition_time 0x7c-0x7f.7 (4)
0x080|1a b7 a6 00                                    |....            |      [21]: "1984-03-16T00:00:00Z" (448243200) transition_time 0x80-0x83.7 (4)
0x080|            1e 8c 90 10                        |    ....        |      [22]: "1986-03-30T01:00:00Z" (512528400) transition_time 0x84-0x87.7 (4)
0x080|                        1f 7c 81 10            |        .|..    |      [23]: "1986-09-28T01:00:00Z" (528253200) transition_time 0x88-0x8b.7 (4)
0x080|                                    20 6c 72 10|             lr.|      [24]: "1987-03-29T01:00:00Z" (543978000) transition_time 0x8c-0x8f.7 (4)
0x090|21 5c 63 10                                    |!\c.            |      [25]: "1987-09-27T01:00:00Z" (559702800) transition_time 0x90-0x93.7 (4)
0x090|            22 4c 54 10                        |    "LT.        |      [26]: "1988-03-27T01:00:00Z" (575427600) transition_time 0x94-0x97.7 (4)
0x090|                        23 3c 45 10            |        #<E.    |      [27]: "1988-09-25T01:00:00Z" (591152400) transition_time 0x98-0x9b.7 (4)
0x090|                                    24 2c 36 10|            $,6.|      [28]: "1989-03-26T01:00:00Z" (606877200) transition_time 0x9c-0x9f.7 (4)
0x0a0|25 1c 27 10                                    |%.'.            |      [29]: "1989-09-24T01:00:00Z" (622602000) transition_time 0xa0-0xa3.7 (4)
0x0a0|            26 0c 18 10                        |    &...        |      [30]: "1990-03-25T01:00:00Z" (638326800) transition_time 0xa4-0xa7.7 (4)
0x0a0|                        27 05 43 90            |        '.C.    |      [31]: "1990-09-30T01:00:00Z" (654656400) transition_time 0xa8-0xab.7 (4)
0x0a0|                                    27 f5 34 90|            '.4.|      [32]: "1991-03-31T01:00:00Z" (670381200) transition_time 0xac-0xaf.7 (4)
0x0b0|28 e5 25 90                                    |(.%.            |      [33]: "1991-09-29T01:00:00Z" (686106000) transition_time 0xb0-0xb3.7 (4)
0x0b0|            29 d5 16 90                        |    )...        |      [34]: "1992-03-29T01:00:00Z" (701830800) transition_time 0xb4-0xb7.7 (4)
0x0b0|                        2a c5 07 90            |        *...    |      [35]: "1992-09-27T01:00:00Z" (717555600) transition_time 0xb8-0xbb.7 (4)
0x0b0|                                    2b b4 f8 90|            +...|      [36]: "1993-03-28T01:00:00Z" (733280400) transition_time 0xbc-0xbf.7 (4)
0x0c0|2c a4 e9 90                                    |,...            |      [37]: "1993-09-26T01:00:00Z" (749005200) transition_time 0xc0-0xc3.7 (4)
0x0c0|            2d 94 da 90                        |    -...        |      [38]: "1994-03-27T01:00:00Z" (764730000) transition_time 0xc4-0xc7.7 (4)
0x0c0|                        2e 84 cb 90            |        ....    |      [39]: "1994-09-25T01:00:00Z" (780454800) transition_time 0xc8-0xcb.7 (4)
0x0c0|                                    2f 74 bc 90|            /t..|      [40]: "1995-03-26T01:00:00Z" (796179600) transition_time 0xcc-0xcf.7 (4)
0x0d0|30 64 ad 90                                    |0d..            |      [41]: "1995-09-24T01:00:00Z" (811904400) transition_time 0xd0-0xd3.7 (4)
0x0d0|            31 5d d9 10                        |    1]..        |      [42]: "1996-03-31T01:00:00Z" (828234000) transition_time 0xd4-0xd7.7 (4)
0x0d0|                        32 72 b4 10            |        2r..    |      [43]: "1996-10-27T01:00:00Z" (846378000) transition_time 0xd8-0xdb.7 (4)
0x0d0|                                    33 3d bb 10|            3=..|      [44]: "1997-03-30T01:00:00Z" (859683600) transition_time 0xdc-0xdf.7 (4)
0x0e0|34 52 96 10                                    |4R..            |      [45]: "1997-10-26T01:00:00Z" (877827600) transition_time 0xe0-0xe3.7 (4)
0x0e0|            35 1d 9d 10                        |    5...        |      [46]: "1998-03-29T01:00:00Z" (891133200) transition_time 0xe4-0xe7.7 (4)
0x0e0|                        36 32 78 10            |        62x.    |      [47]: "1998-10-25T01:00:00Z" (909277200) transition_time 0xe8-0xeb.7 (4)
0x0e0|                                    36 fd 7f 10|            6...|      [48]: "1999-03-28T01:00:00Z" (922582800) transition_time 0xec-0xef.7 (4)
0x0f0|38 1b 94 90                                    |8...            |      [49]: "1999-10-31T01:00:00Z" (941331600) transition_time 0xf0-0xf3.7 (4)
0x0f0|            38 dd 61 10                        |    8.a.        |      [50]: "2000-03-26T01:00:00Z" (954032400) transition_time 0xf4-0xf7.7 (4)
0x0f0|                        39 fb 76 90            |        9.v.    |      [51]: "2000-10-29T01:00:00Z" (972781200) transition_time 0xf8-0xfb.7 (4)
0x0f0|                                    3a bd 43 10|            :.C.|      [52]: "2001-03-25T01:00:00Z" (985482000) transition_time 0xfc-0xff.7 (4)
0x100|3b db 58 90                                    |;.X.            |      [53]: "2001-10-28T01:00:00Z" (1004230800) transition_time 0x100-0x103.7 (4)
0x100|            3c a6 5f 90                        |    <._.        |      [54]: "2002-03-31T01:00:00Z" (1017536400) transition_time 0x104-0x107.7 (4)
0x100|                        3d bb 3a 90            |        =.:.    |      [55]: "2002-10-27T01:00:00Z" (1035680400) transition_time 0x108-0x10b.7 (4)
0x100|                                    3e 86 41 90|            >.A.|      [56]: "2003-03-30T01:00:00Z" (1048986000) transition_time 0x10c-0x10f.7 (4)
0x110|3f 9b 1c 90                                    |?...            |      [57]: "2003-10-26T01:00:00Z" (1067130000) transition_time 0x110-0x113.7 (4)
0x110|            40 66 23 90                        |    @f#.        |      [58]: "2004-03-28T01:00:00Z" (1080435600) transition_time 0x114-0x117.7 (4)
0x110|                        41 84 39 10            |        A.9.    |      [59]: "2004-10-31T01:00:00Z" (1099184400) transition_time 0x118-0x11b.7 (4)
0x110|                                    42 46 05 90|            BF..|      [60]: "2005-03-27T01:00:00Z" (1111885200) transition_time 0x11c-0x11f.7 (4)
0x120|43 64 1b 10                                    |Cd..            |      [61]: "2005-10-30T01:00:00Z" (1130634000) transition_time 0x120-0x123.7 (4)
0x120|            44 25 e7 90                        |    D%..        |      [62]: "2006-03-26T01:00:00Z" (1143334800) transition_time 0x124-0x127.7 (4)
0x120|                        45 43 fd 10            |        EC..    |      [63]: "2006-10-29T01:00:00Z" (1162083600) transition_time 0x128-0x12b.7 (4)
0x120|                                    46 05 c9 90|            F...|      [64]: "2007-03-25T01:00:00Z" (1174784400) transition_time 0x12c-0x12f.7 (4)
0x130|47 23 df 10                                    |G#..            |      [65]: "2007-10-28T01:00:00Z" (1193533200) transition_time 0x130-0x133.7 (4)
0x130|            47 ee e6 10                        |    G...        |      [66]: "2008-03-30T01:00:00Z" (1206838800) transition_time 0x134-0x137.7 (4)
0x130|                        49 03 c1 10            |        I...    |      [67]: "2008-10-26T01:00:00Z" (1224982800) transition_time 0x138-0x13b.7 (4)
0x130|                                    49 ce c8 10|            I...|      [68]: "2009-03-29T01:00:00Z" (1238288400) transition_time 0x13c-0x13f.7 (4)
0x140|4a e3 a3 10                                    |J...            |      [69]: "2009-10-25T01:00:00Z" (1256432400) transition_time 0x140-0x143.7 (4)
0x140|            4b ae aa 10                        |    K...        |      [70]: "2010-03-28T01:00:00Z" (1269738000) transition_time 0x144-0x147.7 (4)
0x140|                        4c cc bf 90            |        L...    |      [71]: "2010-10-31T01:00:00Z" (1288486800) transition_time 0x148-0x14b.7 (4)
0x140|                                    4d 8e 8c 10|            M...|      [72]: "2011-03-27T01:00:00Z" (1301187600) transition_time 0x14c-0x14f.7 (4)
0x150|4e ac a1 90                                    |N...            |      [73]: "2011-10-30T01:00:00Z" (1319936400) transition_time 0x150-0x153.7 (4)
0x150|            4f 6e 6e 10                        |    Onn.        |      [74]: "2012-03-25T01:00:00Z" (1332637200) transition_time 0x154-0x157.7 (4)
0x150|                        50 8c 83 90            |        P...    |      [75]: "2012-10-28T01:00:00Z" (1351386000) transition_time 0x158-0x15b.7 (4)
0x150|                                    51 57 8a 90|            QW..|      [76]: "2013-03-31T01:00:00Z" (1364691600) transition_time 0x15c-0x15f.7 (4)
0x160|52 6c 65 90                                    |Rle.            |      [77]: "2013-10-27T01:00:00Z" (1382835600) transition_time 0x160-0x163.7 (4)
0x160|            53 37 6c 90                        |    S7l.        |      [78]: "2014-03-30T01:00:00Z" (1396141200) transition_time 0x164-0x167.7 (4)
0x160|                        54 4c 47 90            |        TLG.    |      [79]: "2014-10-26T01:00:00Z" (1414285200) transition_time 0x168-0x16b.7 (4)
0x160|                                    55 17 4e 90|            U.N.|      [80]: "2015-03-29T01:00:00Z" (1427590800) transition_time 0x16c-0x16f.7 (4)
0x170|56 2c 29 90                                    |V,).            |      [81]: "2015-10-25T01:00:00Z" (1445734800) transition_time 0x170-0x173.7 (4)
0x170|            56 f7 30 90                        |    V.0.        |      [82]: "2016-03-27T01:00:00Z" (1459040400) transition_time 0x174-0x177.7 (4)
0x170|                        58 15 46 10            |        X.F.    |      [83]: "2016-10-30T01:00:00Z" (1477789200) transition_time 0x178-0x17b.7 (4)
0x170|                                    58 d7 12 90|            X...|      [84]: "2017-03-26T01:00:00Z" (1490490000) transition_time 0x17c-0x17f.7 (4)
0x180|59 f5 28 10                                    |Y.(.            |      [85]: "2017-10-29T01:00:00Z" (1509238800) transition_time 0x180-0x183.7 (4)
0x180|            5a b6 f4 90                        |    Z...        |      [86]: "2018-03-25T01:00:00Z" (1521939600) transition_time 0x184-0x187.7 (4)
0x180|                        5b d5 0a 10            |        [...    |      [87]: "2018-10-28T01:00:00Z" (1540688400) transition_time 0x188-0x18b.7 (4)
0x180|                                    5c a0 11 10|            \...|      [88]: "2019-03-31T01:00:00Z" (1553994000) transition_time 0x18c-0x18f.7 (4)
0x190|5d b4 ec 10                                    |]...            |      [89]: "2019-10-27T01:00:00Z" (1572138000) transition_time 0x190-0x193.7 (4)
0x190|            5e 7f f3 10                        |    ^...        |      [90]: "2020-03-29T01:00:00Z" (1585443600) transition_time 0x194-0x197.7 (4)
0x190|                        5f 94 ce 10            |        _...    |      [91]: "2020-10-25T01:00:00Z" (1603587600) transition_time 0x198-0x19b.7 (4)
0x190|                                    60 5f d5 10|            `_..|      [92]: "2021-03-28T01:00:00Z" (1616893200) transition_time 0x19c-0x19f.7 (4)
0x1a0|61 7d ea 90                                    |a}..            |      [93]: "2021-10-31T01:00:00Z" (1635642000) transition_time 0x1a0-0x1a3.7 (4)
0x1a0|            62 3f b7 10                        |    b?..        |      [94]: "2022-03-27T01:00:00Z" (1648342800) transition_time 0x1a4-0x1a7.7 (4)
0x1a0|                        63 5d cc 90            |        c]..    |      [95]: "2022-10-30T01:00:00Z" (1667091600) transition_time 0x1a8-0x1ab.7 (4)
0x1a0|                                    64 1f 99 10|            d...|      [96]: "2023-03-26T01:00:00Z" (1679792400) transition_time 0x1ac-0x1af.7 (4)
0x1b0|65 3d ae 90                                    |e=..            |      [97]: "2023-10-29T01:00:00Z" (1698541200) transition_time 0x1b0-0x1b3.7 (4)
0x1b0|            66 08 b5 90                        |    f...        |      [98]: "2024-03-31T01:00:00Z" (1711846800) transition_time 0x1b4-0x1b7.7 (4)
0x1b0|                        67 1d 90 90            |        g...    |      [99]: "2024-10-27T01:00:00Z" (1729990800) transition_time 0x1b8-0x1bb.7 (4)
0x1b0|                                    67 e8 97 90|            g...|      [100]: "2025-03-30T01:00:00Z" (1743296400) transition_time 0x1bc-0x1bf.7 (4)
0x1c0|68 fd 72 90                                    |h.r.            |      [101]: "2025-10-26T01:00:00Z" (1761440400) transition_time 0x1c0-0x1c3.7 (4)
0x1c0|            69 c8 79 90                        |    i.y.        |      [102]: "2026-03-29T01:00:00Z" (1774746000) transition_time 0x1c4-0x1c7.7 (4)
0x1c0|                        6a dd 54 90            |        j.T.    |      [103]: "2026-10-25T01:00:00Z" (1792890000) transition_time 0x1c8-0x1cb.7 (4)
0x1c0|                                    6b a8 5b 90|            k.[.|      [104]: "2027-03-28T01:00:00Z" (1806195600) transition_time 0x1cc-0x1cf.7 (4)
0x1d0|6c c6 71 10                                    |l.q.            |      [105]: "2027-10-31T01:00:00Z" (1824944400) transition_time 0x1d0-0x1d3.7 (4)
0x1d0|            6d 88 3d 90                        |    m.=.        |      [106]: "2028-03-26T01:00:00Z" (1837645200) transition_time 0x1d4-0x1d7.7 (4)
0x1d0|                        6e a6 53 10            |        n.S.    |      [107]: "2028-10-29T01:00:00Z" (1856394000) transition_time 0x1d8-0x1db.7 (4)
0x1d0|                                    6f 68 1f 90|            oh..|      [108]: "2029-03-25T01:00:00Z" (1869094800) transition_time 0x1dc-0x1df.7 (4)
0x1e0|70 86 35 10                                    |p.5.            |      [109]: "2029-10-28T01:00:00Z" (1887843600) transition_time 0x1e0-0x1e3.7 (4)
0x1e0|            71 51 3c 10                        |    qQ<.        |      [110]: "2030-03-31T01:00:00Z" (1901149200) transition_time 0x1e4-0x1e7.7 (4)
0x1e0|                        72 66 17 10            |        rf..    |      [111]: "2030-10-27T01:00:00Z" (1919293200) transition_time 0x1e8-0x1eb.7 (4)
0x1e0|                                    73 31 1e 10|            s1..|      [112]: "2031-03-30T01:00:00Z" (1932598800) transition_time 0x1ec-0x1ef.7 (4)
0x1f0|74 45 f9 10                                    |tE..            |      [113]: "2031-10-26T01:00:00Z" (1950742800) transition_time 0x1f0-0x1f3.7 (4)
0x1f0|            75 11 00 10                        |    u...        |      [114]: "2032-03-28T01:00:00Z" (1964048400) transition_time 0x1f4-0x1f7.7 (4)
0x1f0|                        76 2f 15 90            |        v/..    |      [115]: "2032-10-31T01:00:00Z" (1982797200) transition_time 0x1f8-0x1fb.7 (4)
0x1f0|                                    76 f0 e2 10|            v...|      [116]: "2033-03-27T01:00:00Z" (1995498000) transition_time 0x1fc-0x1ff.7 (4)
0x200|78 0e f7 90                                    |x...            |      [117]: "2033-10-30T01:00:00Z" (2014246800) transition_time 0x200-0x203.7 (4)
0x200|            78 d0 c4 10                        |    x...        |      [118]: "2034-03-26T01:00:00Z" (2026947600) transition_time 0x204-0x207.7 (4)
0x200|                        79 ee d9 90            |        y...    |      [119]: "2034-10-29T01:00:00Z" (2045696400) transition_time 0x208-0x20b.7 (4)
0x200|                                    7a b0 a6 10|            z...|      [120]: "2035-03-25T01:00:00Z" (2058397200) transition_time 0x20c-0x20f.7 (4)
0x210|7b ce bb 90                                    |{...            |      [121]: "2035-10-28T01:00:00Z" (2077146000) transition_time 0x210-0x213.7 (4)
0x210|            7c 99 c2 90                        |    |...        |      [122]: "2036-03-30T01:00:00Z" (2090451600) transition_time 0x214-0x217.7 (4)
0x210|                        7d ae 9d 90            |        }...    |      [123]: "2036-10-26T01:00:00Z" (2108595600) transition_time 0x218-0x21b.7 (4)
0x210|                                    7e 79 a4 90|            ~y..|      [124]: "2037-03-29T01:00:00Z" (2121901200) transition_time 0x21c-0x21f.7 (4)
0x220|7f 8e 7f 90                                    |....            |      [125]: "2037-10-25T01:00:00Z" (2140045200) transition_time 0x220-0x223.7 (4)
     |                                               |                |    transition_types[0:126]: 0x224-0x2a1.7 (126)
0x220|            01                                 |    .           |      [0]: 1 transition_type 0x224-0x224.7 (1)
0x220|               02                              |     .          |      [1]: 2 transition_type 0x225-0x225.7 (1)
0x220|                  03                           |      .         |      [2]: 3 transition_type 0x226-0x226.7 (1)
0x220|                     02                        |       .        |      [3]: 2 transition_type 0x227-0x227.7 (1)
0x220|                        04                     |        .       |      [4]: 4 transition_type 0x228-0x228.7 (1)
0x220|                           02                  |         .      |      [5]: 2 transition_type 0x229-0x229.7 (1)
0x220|                              04               |          .     |      [6]: 4 transition_type 0x22a-0x22a.7 (1)
0x220|                                 02            |           .    |      [7]: 2 transition_type 0x22b-0x22b.7 (1)
0x220|                                    04         |            .   |      [8]: 4 transition_type 0x22c-0x22c.7 (1)
0x220|                                       02      |             .  |      [9]: 2 transition_type 0x22d-0x22d.7 (1)
0x220|                                          04   |              . |      [10]: 4 transition_type 0x22e-0x22e.7 (1)
0x220|                                             02|               .|      [11]: 2 transition_type 0x22f-0x22f.7 (1)
0x230|03                                             |.               |      [12]: 3 transition_type 0x230-0x230.7 (1)
0x230|   02                                          | .              |      [13]: 2 transition_type 0x231-0x231.7 (1)
0x230|      03                                       |  .             |      [14]: 3 transition_type 0x232-0x232.7 (1)
0x230|         02                                    |   .            |      [15]: 2 transition_type 0x233-0x233.7 (1)
0x230|            03                                 |    .           |      [16]: 3 transition_type 0x234-0x234.7 (1)
0x230|               02                              |     .          |      [17]: 2 transition_type 0x235-0x235.7 (1)
0x230|                  03                           |      .         |      [18]: 3 transition_type 0x236-0x236.7 (1)
0x230|                     02                        |       .        |      [19]: 2 transition_type 0x237-0x237.7 (1)
0x230|                        03                     |        .       |      [20]: 3 transition_type 0x238-0x238.7 (1)
0x230|                           05                  |         .      |      [21]: 5 transition_type 0x239-0x239.7 (1)
0x230|                              06               |          .     |      [22]: 6 transition_type 0x23a-0x23a.7 (1)
0x230|                                 07            |           .    |      [23]: 7 transition_type 0x23b-0x23b.7 (1)
0x230|                                    06         |            .   |      [24]: 6 transition_type 0x23c-0x23c.7 (1)
0x230|                                       07      |             .  |      [25]: 7 transition_type 0x23d-0x23d.7 (1)
0x230|                                          06   |              . |      [26]: 6 transition_type 0x23e-0x23e.7 (1)
0x230|                                             07|               .|      [27]: 7 transition_type 0x23f-0x23f.7 (1)
0x240|06                                             |.               |      [28]: 6 transition_type 0x240-0x240.7 (1)
0x240|   07                                          | .              |      [29]: 7 transition_type 0x241-0x241.7 (1)
0x240|      06                                       |  .             |      [30]: 6 transition_type 0x242-0x242.7 (1)
0x240|         07                                    |   .            |      [31]: 7 transition_type 0x243-0x243.7 (1)
0x240|            06                                 |    .           |      [32]: 6 transition_type 0x244-0x244.7 (1)
0x240|               07                              |     .          |      [33]: 7 transition_type 0x245-0x245.7 (1)
0x240|                  06                           |      .         |      [34]: 6 transition_type 0x246-0x246.7 (1)
0x240|                     07                        |       .        |      [35]: 7 transition_type 0x247-0x247.7 (1)
0x240|                        06                     |        .       |      [36]: 6 transition_type 0x248-0x248.7 (1)
0x240|                           07                  |         .      |      [37]: 7 transition_type 0x249-0x249.7 (1)
0x240|                              06               |          .     |      [38]: 6 transition_type 0x24a-0x24a.7 (1)
0x240|                                 07            |           .    |      [39]: 7 transition_type 0x24b-0x24b.7 (1)
0x240|                                    06         |            .   |      [40]: 6 transition_type 0x24c-0x24c.7 (1)
0x240|                                       07      |             .  |      [41]: 7 transition_type 0x24d-0x24d.7 (1)
0x240|                                          06   |              . |      [42]: 6 transition_type 0x24e-0x24e.7 (1)
0x240|                                             07|               .|      [43]: 7 transition_type 0x24f-0x24f.7 (1)
0x250|06                                             |.               |      [44]: 6 transition_type 0x250-0x250.7 (1)
0x250|   07                                          | .              |      [45]: 7 transition_type 0x251-0x251.7 (1)
0x250|      06                                       |  .             |      [46]: 6 transition_type 0x252-0x252.7 (1)
0x250|         07                                    |   .            |      [47]: 7 transition_type 0x253-0x253.7 (1)
0x250|            06                                 |    .           |      [48]: 6 transition_type 0x254-0x254.7 (1)
0x250|               07                              |     .          |      [49]: 7 transition_type 0x255-0x255.7 (1)
0x250|                  06                           |      .         |      [50]: 6 transition_type 0x256-0x256.7 (1)
0x250|                     07                        |       .        |      [51]: 7 transition_type 0x257-0x257.7 (1)
0x250|                        06                     |        .       |      [52]: 6 transition_type 0x258-0x258.7 (1)
0x250|                           07                  |         .      |      [53]: 7 transition_type 0x259-0x259.7 (1)
0x250|                              06               |          .     |      [54]: 6 transition_type 0x25a-0x25a.7 (1)
0x250|                                 07            |           .    |      [55]: 7 transition_type 0x25b-0x25b.7 (1)
0x250|                                    06         |            .   |      [56]: 6 transition_type 0x25c-0x25c.7 (1)
0x250|                                       07      |             .  |      [57]: 7 transition_type 0x25d-0x25d.7 (1)
0x250|                                          06   |              . |      [58]: 6 transition_type 0x25e-0x25e.7 (1)
0x250|                                             07|               .|      [59]: 7 transition_type 0x25f-0x25f.7 (1)
0x260|06                                             |.               |      [60]: 6 transition_type 0x260-0x260.7 (1)
0x260|   07                                          | .              |      [61]: 7 transition_type 0x261-0x261.7 (1)
0x260|      06                                       |  .             |      [62]: 6 transition_type 0x262-0x262.7 (1)
0x260|         07                                    |   .            |      [63]: 7 transition_type 0x263-0x263.7 (1)
0x260|            06                                 |    .           |      [64]: 6 transition_type 0x264-0x264.7 (1)
0x260|               07                              |     .          |      [65]: 7 transition_type 0x265-0x265.7 (1)
0x260|                  06                           |      .         |      [66]: 6 transition_type 0x266-0x266.7 (1)
0x260|                     07                        |       .        |      [67]: 7 transition_type 0x267-0x267.7 (1)
0x260|                        06                     |        .       |      [68]: 6 transition_type 0x268-0x268.7 (1)
0x260|                           07                  |         .      |      [69]: 7 transition_type 0x269-0x269.7 (1)
0x260|                              06               |          .     |      [70]: 6 transition_type 0x26a-0x26a.7 (1)
0x260|                                 07            |           .    |      [71]: 7 transition_type 0x26b-0x26b.7 (1)
0x260|                                    06         |            .   |      [72]: 6 transition_type 0x26c-0x26c.7 (1)
0x260|                                       07      |             .  |      [73]: 7 transition_type 0x26d-0x26d.7 (1)
0x260|                                          06   |              . |      [74]: 6 transition_type 0x26e-0x26e.7 (1)
0x260|                                             07|               .|      [75]: 7 transition_type 0x26f-0x26f.7 (1)
0x270|06                                             |.               |      [76]: 6 transition_type 0x270-0x270.7 (1)
0x270|   07                                          | .              |      [77]: 7 transition_type 0x271-0x271.7 (1)
0x270|      06                                       |  .             |      [78]: 6 transition_type 0x272-0x272.7 (1)
0x270|         07                                    |   .            |      [79]: 7 transition_type 0x273-0x273.7 (1)
0x270|            06                                 |    .           |      [80]: 6 transition_type 0x274-0x274.7 (1)
0x270|               07                              |     .          |      [81]: 7 transition_type 0x275-0x275.7 (1)
0x270|                  06                           |      .         |      [82]: 6 transition_type 0x276-0x276.7 (1)
0x270|                     07                        |       .        |      [83]: 7 transition_type 0x277-0x277.7 (1)
0x270|                        06                     |        .       |      [84]: 6 transition_type 0x278-0x278.7 (1)
0x270|                           07                  |         .      |      [85]: 7 transition_type 0x279-0x279.7 (1)
0x270|                              06               |          .     |      [86]: 6 transition_type 0x27a-0x27a.7 (1)
0x270|                                 07            |           .    |      [87]: 7 transition_type 0x27b-0x27b.7 (1)
0x270|                                    06         |            .   |      [88]: 6 transition_type 0x27c-0x27c.7 (1)
0x270|                                       07      |             .  |      [89]: 7 transition_type 0x27d-0x27d.7 (1)
0x270|                                          06   |              . |      [90]: 6 transition_type 0x27e-0x27e.7 (1)
0x270|                                             07|               .|      [91]: 7 transition_type 0x27f-0x27f.7 (1)
0x280|06                                             |.               |      [92]: 6 transition_type 0x280-0x280.7 (1)
0x280|   07                                          | .              |      [93]: 7 transition_type 0x281-0x281.7 (1)
0x280|      06                                       |  .             |      [94]: 6 transition_type 0x282-0x282.7 (1)
0x280|         07                                    |   .            |      [95]: 7 transition_type 0x283-0x283.7 (1)
0x280|            06                                 |    .           |      [96]: 6 transition_type 0x284-0x284.7 (1)
0x280|               07                              |     .          |      [97]: 7 transition_type 0x285-0x285.7 (1)
0x280|                  06                           |      .         |      [98]: 6 transition_type 0x286-0x286.7 (1)
0x280|                     07                        |       .        |      [99]: 7 transition_type 0x287-0x287.7 (1)
0x280|                        06                     |        .       |      [100]: 6 transition_type 0x288-0x288.7 (1)
0x280|                           07                  |         .      |      [101]: 7 transition_type 0x289-0x289.7 (1)
0x280|                              06               |          .     |      [102]: 6 transition_type 0x28a-0x28a.7 (1)
0x280|                                 07            |           .    |      [103]: 7 transition_type 0x28b-0x28b.7 (1)
0x280|                                    06         |            .   |      [104]: 6 transition_type 0x28c-0x28c.7 (1)
0x280|                                       07      |             .  |      [105]: 7 transition_type 0x28d-0x28d.7 (1)
0x280|                                          06   |              . |      [106]: 6 transition_type 0x28e-0x28e.7 (1)
0x280|                                             07|               .|      [107]: 7 transition_type 0x28f-0x28f.7 (1)
0x290|06                                             |.               |      [108]: 6 transition_type 0x290-0x290.7 (1)
0x290|   07                                          | .              |      [109]: 7 transition_type 0x291-0x291.7 (1)
0x290|      06                                       |  .             |      [110]: 6 transition_type 0x292-0x292.7 (1)
0x290|         07                                    |   .            |      [111]: 7 transition_type 0x293-0x293.7 (1)
0x290|            06                                 |    .           |      [112]: 6 transition_type 0x294-0x294.7 (1)
0x290|               07                              |     .          |      [113]: 7 transition_type 0x295-0x295.7 (1)
0x290|                  06                           |      .         |      [114]: 6 transition_type 0x296-0x296.7 (1)
0x290|                     07                        |       .        |      [115]: 7 transition_type 0x297-0x297.7 (1)
0x290|                        06                     |        .       |      [116]: 6 transition_type 0x298-0x298.7 (1)
0x290|                           07                  |         .      |      [117]: 7 transition_type 0x299-0x299.7 (1)
0x290|                              06               |          .     |      [118]: 6 transition_type 0x29a-0x29a.7 (1)
0x290|                                 07            |           .    |      [119]: 7 transition_type 0x29b-0x29b.7 (1)
0x290|                                    06         |            .   |      [120]: 6 transition_type 0x29c-0x29c.7 (1)
0x290|                                       07      |             .  |      [121]: 7 transition_type 0x29d-0x29d.7 (1)
0x290|                                          06   |              . |      [122]: 6 transition_type 0x29e-0x29e.7 (1)
0x290|                                             07|               .|      [123]: 7 transition_type 0x29f-0x29f.7 (1)
0x2a0|06                                             |.               |      [124]: 6 transition_type 0x2a0-0x2a0.7 (1)
0x2a0|   07                                          | .              |      [125]: 7 transition_type 0x2a1-0x2a1.7 (1)
     |                                               |                |    local_time_type_records[0:8]: 0x2a2-0x2d1.7 (48)
     |                                               |                |      [0]{}: local_time_type 0x2a2-0x2a7.7 (6)
0x2a0|      ff ff fb 04                              |  ....          |        utoff: -1276 (valid) 0x2a2-0x2a5.7 (4)
0x2a0|                  00                           |      .         |        dst: 0 (valid) 0x2a6-0x2a6.7 (1)
0x2a0|                     00                        |       .        |        idx: 0 (valid) 0x2a7-0x2a7.7 (1)
     |                                               |                |      [1]{}: local_time_type 0x2a8-0x2ad.7 (6)
0x2a0|                        00 00 00 00            |        ....    |        utoff: 0 (valid) 0x2a8-0x2ab.7 (4)
0x2a0|                                    00         |            .   |        dst: 0 (valid) 0x2ac-0x2ac.7 (1)
0x2a0|                                       04      |             .  |        idx: 4 (valid) 0x2ad-0x2ad.7 (1)
     |                                               |                |      [2]{}: local_time_type 0x2ae-0x2b3.7 (6)
0x2a0|                                          00 00|              ..|        utoff: 3600 (valid) 0x2ae-0x2b1.7 (4)
0x2b0|0e 10                                          |..              |
0x2b0|      01                                       |  .             |        dst: 1 (valid) 0x2b2-0x2b2.7 (1)
0x2b0|         08                                    |   .            |        idx: 8 (valid) 0x2b3-0x2b3.7 (1)
     |                                               |                |      [3]{}: local_time_type 0x2b4-0x2b9.7 (6)
0x2b0|            00 00 00 00                        |    ....        |        utoff: 0 (valid) 0x2b4-0x2b7.7 (4)
0x2b0|                        00                     |        .       |        dst: 0 (valid) 0x2b8-0x2b8.7 (1)
0x2b0|                           04                  |         .      |        idx: 4 (valid) 0x2b9-0x2b9.7 (1)
     |                                               |                |      [4]{}: local_time_type 0x2ba-0x2bf.7 (6)
0x2b0|                              00 00 00 00      |          ....  |        utoff: 0 (valid) 0x2ba-0x2bd.7 (4)
0x2b0|                                          00   |              . |        dst: 0 (valid) 0x2be-0x2be.7 (1)
0x2b0|                                             04|               .|        idx: 4 (valid) 0x2bf-0x2bf.7 (1)
     |                                               |                |      [5]{}: local_time_type 0x2c0-0x2c5.7 (6)
0x2c0|00 00 0e 10                                    |....            |        utoff: 3600 (valid) 0x2c0-0x2c3.7 (4)
0x2c0|            00                                 |    .           |        dst: 0 (valid) 0x2c4-0x2c4.7 (1)
0x2c0|               0d                              |     .          |        idx: 13 (valid) 0x2c5-0x2c5.7 (1)
     |                                               |                |      [6]{}: local_time_type 0x2c6-0x2cb.7 (6)
0x2c0|                  00 00 1c 20                  |      ...       |        utoff: 7200 (valid) 0x2c6-0x2c9.7 (4)
0x2c0|                              01               |          .     |        dst: 1 (valid) 0x2ca-0x2ca.7 (1)
0x2c0|                                 11            |           .    |        idx: 17 (valid) 0x2cb-0x2cb.7 (1)
     |                                               |                |      [7]{}: local_time_type 0x2cc-0x2d1.7 (6)
0x2c0|                                    00 00 0e 10|            ....|        utoff: 3600 (valid) 0x2cc-0x2cf.7 (4)
0x2d0|00                                             |.               |        dst: 0 (valid) 0x2d0-0x2d0.7 (1)
0x2d0|   0d                                          | .              |        idx: 13 (valid) 0x2d1-0x2d1.7 (1)
     |                                               |                |    time_zone_designations[0:5]: 0x2d2-0x2e7.7 (22)
0x2d0|      4c 4d 54 00                              |  LMT.          |      [0]: "LMT" time_zone_designation 0x2d2-0x2d5.7 (4)
0x2d0|                  57 45 54 00                  |      WET.      |      [1]: "WET" time_zone_designation 0x2d6-0x2d9.7 (4)
0x2d0|                              57 45 53 54 00   |          WEST. |      [2]: "WEST" time_zone_designation 0x2da-0x2de.7 (5)
0x2d0|                                             43|               C|      [3]: "CET" time_zone_designation 0x2df-0x2e2.7 (4)
0x2e0|45 54 00                                       |ET.             |
0x2e0|         43 45 53 54 00                        |   CEST.        |      [4]: "CEST" time_zone_designation 0x2e3-0x2e7.7 (5)
     |                                               |                |    leap_second_records[0:0]: 0x2e8-NA (0)
     |                                               |                |    standard_wall_indicators[0:8]: 0x2e8-0x2ef.7 (8)
0x2e0|                        00                     |        .       |      [0]: 0 standard_wall_indicator (valid) 0x2e8-0x2e8.7 (1)
0x2e0|                           01                  |         .      |      [1]: 1 standard_wall_indicator (valid) 0x2e9-0x2e9.7 (1)
0x2e0|                              00               |          .     |      [2]: 0 standard_wall_indicator (valid) 0x2ea-0x2ea.7 (1)
0x2e0|                                 00            |           .    |      [3]: 0 standard_wall_indicator (valid) 0x2eb-0x2eb.7 (1)
0x2e0|                                    01         |            .   |      [4]: 1 standard_wall_indicator (valid) 0x2ec-0x2ec.7 (1)
0x2e0|                                       00      |             .  |      [5]: 0 standard_wall_indicator (valid) 0x2ed-0x2ed.7 (1)
0x2e0|                                          01   |              . |      [6]: 1 standard_wall_indicator (valid) 0x2ee-0x2ee.7 (1)
0x2e0|                                             01|               .|      [7]: 1 standard_wall_indicator (valid) 0x2ef-0x2ef.7 (1)
     |                                               |                |    ut_local_indicators[0:8]: 0x2f0-0x2f7.7 (8)
0x2f0|00                                             |.               |      [0]: 0 ut_local_indicator (valid) 0x2f0-0x2f0.7 (1)
0x2f0|   01                                          | .              |      [1]: 1 ut_local_indicator (valid) 0x2f1-0x2f1.7 (1)
0x2f0|      00                                       |  .             |      [2]: 0 ut_local_indicator (valid) 0x2f2-0x2f2.7 (1)
0x2f0|         00                                    |   .            |      [3]: 0 ut_local_indicator (valid) 0x2f3-0x2f3.7 (1)
0x2f0|            00                                 |    .           |      [4]: 0 ut_local_indicator (valid) 0x2f4-0x2f4.7 (1)
0x2f0|               00                              |     .          |      [5]: 0 ut_local_indicator (valid) 0x2f5-0x2f5.7 (1)
0x2f0|                  01                           |      .         |      [6]: 1 ut_local_indicator (valid) 0x2f6-0x2f6.7 (1)
0x2f0|                     01                        |       .        |      [7]: 1 ut_local_indicator (valid) 0x2f7-0x2f7.7 (1)
     |                                               |                |  v2plusheader{}: 0x2f8-0x323.7 (44)
0x2f0|                        54 5a 69 66            |        TZif    |    magic: 0x545a6966 (valid) 0x2f8-0x2fb.7 (4)
0x2f0|                                    32         |            2   |    ver: "2" (0x32) (valid) 0x2fc-0x2fc.7 (1)
0x2f0|                                       00 00 00|             ...|    reserved: raw bits 0x2fd-0x30b.7 (15)
0x300|00 00 00 00 00 00 00 00 00 00 00 00            |............    |
0x300|                                    00 00 00 08|            ....|    isutcnt: 8 0x30c-0x30f.7 (4)
0x310|00 00 00 08                                    |....            |    isstdcnt: 8 0x310-0x313.7 (4)
0x310|            00 00 00 00                        |    ....        |    leapcnt: 0 0x314-0x317.7 (4)
0x310|                        00 00 00 7e            |        ...~    |    timecnt: 126 0x318-0x31b.7 (4)
0x310|                                    00 00 00 08|            ....|    typecnt: 8 0x31c-0x31f.7 (4)
0x320|00 00 00 16                                    |....            |    charcnt: 22 0x320-0x323.7 (4)
     |                                               |                |  v2plusdatablock{}: 0x324-0x7e7.7 (1220)
     |                                               |                |    transition_times[0:126]: 0x324-0x713.7 (1008)
0x320|            ff ff ff ff 7e 36 b5 00            |    ....~6..    |      [0]: "1901-01-01T00:00:00Z" (-2177452800) transition_time 0x324-0x32b.7 (8)
0x320|                                    ff ff ff ff|            ....|      [1]: "1918-05-06T23:00:00Z" (-1630112400) transition_time 0x32c-0x333.7 (8)
0x330|9e d6 75 70                                    |..up            |
0x330|            ff ff ff ff 9f a1 6e 60            |    ......n`    |      [2]: "1918-10-07T22:00:00Z" (-1616810400) transition_time 0x334-0x33b.7 (8)
0x330|                                    ff ff ff ff|            ....|      [3]: "1924-04-16T23:00:00Z" (-1442451600) transition_time 0x33c-0x343.7 (8)
0x340|aa 05 ef 70                                    |...p            |
0x340|            ff ff ff ff aa e7 6e 00            |    ......n.    |      [4]: "1924-10-05T00:00:00Z" (-1427673600) transition_time 0x344-0x34b.7 (8)
0x340|                                    ff ff ff ff|            ....|      [5]: "1926-04-17T23:00:00Z" (-1379293200) transition_time 0x34c-0x353.7 (8)
0x350|ad c9 a7 f0                                    |....            |
0x350|            ff ff ff ff ae a7 32 00            |    ......2.    |      [6]: "1926-10-03T00:00:00Z" (-1364774400) transition_time 0x354-0x35b.7 (8)
0x350|                                    ff ff ff ff|            ....|      [7]: "1927-04-09T23:00:00Z" (-1348448400) transition_time 0x35c-0x363.7 (8)
0x360|af a0 4f 70                                    |..Op            |
0x360|            ff ff ff ff b0 87 14 00            |    ........    |      [8]: "1927-10-02T00:00:00Z" (-1333324800) transition_time 0x364-0x36b.7 (8)
0x360|                                    ff ff ff ff|            ....|      [9]: "1928-04-15T00:00:00Z" (-1316390400) transition_time 0x36c-0x373.7 (8)
0x370|b1 89 7a 00                                    |..z.            |
0x370|            ff ff ff ff b2 70 30 80            |    .....p0.    |      [10]: "1928-10-07T00:00:00Z" (-1301270400) transition_time 0x374-0x37b.7 (8)
0x370|                                    ff ff ff ff|            ....|      [11]: "1967-06-03T12:00:00Z" (-81432000) transition_time 0x37c-0x383.7 (8)
0x380|fb 25 72 40                                    |.%r@            |
0x380|            ff ff ff ff fb c2 ef 70            |    .......p    |      [12]: "1967-09-30T23:00:00Z" (-71110800) transition_time 0x384-0x38b.7 (8)
0x380|                                    00 00 00 00|            ....|      [13]: "1974-06-24T00:00:00Z" (141264000) transition_time 0x38c-0x393.7 (8)
0x390|08 6b 84 80                                    |.k..            |
0x390|            00 00 00 00 08 c6 6d f0            |    ......m.    |      [14]: "1974-08-31T23:00:00Z" (147222000) transition_time 0x394-0x39b.7 (8)
0x390|                                    00 00 00 00|            ....|      [15]: "1976-05-01T00:00:00Z" (199756800) transition_time 0x39c-0x3a3.7 (8)
0x3a0|0b e8 0c 00                                    |....            |
0x3a0|            00 00 00 00 0c 61 47 f0            |    .....aG.    |      [16]: "1976-07-31T23:00:00Z" (207702000) transition_time 0x3a4-0x3ab.7 (8)
0x3a0|                                    00 00 00 00|            ....|      [17]: "1977-05-01T00:00:00Z" (231292800) transition_time 0x3ac-0x3b3.7 (8)
0x3b0|0d c9 3f 80                                    |..?.            |
0x3b0|            00 00 00 00 0e 8e f2 70            |    .......p    |      [18]: "1977-09-27T23:00:00Z" (244249200) transition_time 0x3b4-0x3bb.7 (8)
0x3b0|                                    00 00 00 00|            ....|      [19]: "1978-06-01T00:00:00Z" (265507200) transition_time 0x3bc-0x3c3.7 (8)
0x3c0|0f d3 51 80                                    |..Q.            |
0x3c0|            00 00 00 00 10 27 a3 70            |    .....'.p    |      [20]: "1978-08-03T23:00:00Z" (271033200) transition_time 0x3c4-0x3cb.7 (8)
0x3c0|                                    00 00 00 00|            ....|      [21]: "1984-03-16T00:00:00Z" (448243200) transition_time 0x3cc-0x3d3.7 (8)
0x3d0|1a b7 a6 00                                    |....            |
0x3d0|            00 00 00 00 1e 8c 90 10            |    ........    |      [22]: "1986-03-30T01:00:00Z" (512528400) transition_time 0x3d4-0x3db.7 (8)
0x3d0|                                    00 00 00 00|            ....|      [23]: "1986-09-28T01:00:00Z" (528253200) transition_time 0x3dc-0x3e3.7 (8)
0x3e0|1f 7c 81 10                                    |.|..            |
0x3e0|            00 00 00 00 20 6c 72 10            |    .... lr.    |      [24]: "1987-03-29T01:00:00Z" (543978000) transition_time 0x3e4-0x3eb.7 (8)
0x3e0|                                    00 00 00 00|            ....|      [25]: "1987-09-27T01:00:00Z" (559702800) transition_time 0x3ec-0x3f3.7 (8)
0x3f0|21 5c 63 10                                    |!\c.            |
0x3f0|            00 00 00 00 22 4c 54 10            |    ...."LT.    |      [26]: "1988-03-27T01:00:00Z" (575427600) transition_time 0x3f4-0x3fb.7 (8)
0x3f0|                                    00 00 00 00|            ....|      [27]: "1988-09-25T01:00:00Z" (591152400) transition_time 0x3fc-0x403.7 (8)
0x400|23 3c 45 10                                    |#<E.            |
0x400|            00 00 00 00 24 2c 36 10            |    ....$,6.    |      [28]: "1989-03-26T01:00:00Z" (606877200) transition_time 0x404-0x40b.7 (8)
0x400|                                    00 00 00 00|            ....|      [29]: "1989-09-24T01:00:00Z" (622602000) transition_time 0x40c-0x413.7 (8)
0x410|25 1c 27 10                                    |%.'.            |
0x410|            00 00 00 00 26 0c 18 10            |    ....&...    |      [30]: "1990-03-25T01:00:00Z" (638326800) transition_time 0x414-0x41b.7 (8)
0x410|                                    00 00 00 00|            ....|      [31]: "1990-09-30T01:00:00Z" (654656400) transition_time 0x41c-0x423.7 (8)
0x420|27 05 43 90                                    |'.C.            |
0x420|            00 00 00 00 27 f5 34 90            |    ....'.4.    |      [32]: "1991-03-31T01:00:00Z" (670381200) transition_time 0x424-0x42b.7 (8)
0x420|                                    00 00 00 00|            ....|      [33]: "1991-09-29T01:00:00Z" (686106000) transition_time 0x42c-0x433.7 (8)
0x430|28 e5 25 90                                    |(.%.            |
0x430|            00 00 00 00 29 d5 16 90            |    ....)...    |      [34]: "1992-03-29T01:00:00Z" (701830800) transition_time 0x434-0x43b.7 (8)
0x430|                                    00 00 00 00|            ....|      [35]: "1992-09-27T01:00:00Z" (717555600) transition_time 0x43c-0x443.7 (8)
0x440|2a c5 07 90                                    |*...            |
0x440|            00 00 00 00 2b b4 f8 90            |    ....+...    |      [36]: "1993-03-28T01:00:00Z" (733280400) transition_time 0x444-0x44b.7 (8)
0x440|                                    00 00 00 00|            ....|      [37]: "1993-09-26T01:00:00Z" (749005200) transition_time 0x44c-0x453.7 (8)
0x450|2c a4 e9 90                                    |,...            |
0x450|            00 00 00 00 2d 94 da 90            |    ....-...    |      [38]: "1994-03-27T01:00:00Z" (764730000) transition_time 0x454-0x45b.7 (8)
0x450|                                    00 00 00 00|            ....|      [39]: "1994-09-25T01:00:00Z" (780454800) transition_time 0x45c-0x463.7 (8)
0x460|2e 84 cb 90                                    |....            |
0x460|            00 00 00 00 2f 74 bc 90            |    ..../t..    |      [40]: "1995-03-26T01:00:00Z" (796179600) transition_time 0x464-0x46b.7 (8)
0x460|                                    00 00 00 00|            ....|      [41]: "1995-09-24T01:00:00Z" (811904400) transition_time 0x46c-0x473.7 (8)
0x470|30 64 ad 90                                    |0d..            |
0x470|            00 00 00 00 31 5d d9 10            |    ....1]..    |      [42]: "1996-03-31T01:00:00Z" (828234000) transition_time 0x474-0x47b.7 (8)
0x470|                                    00 00 00 00|            ....|      [43]: "1996-10-27T01:00:00Z" (846378000) transition_time 0x47c-0x483.7 (8)
0x480|32 72 b4 10                                    |2r..            |
0x480|            00 00 00 00 33 3d bb 10            |    ....3=..    |      [44]: "1997-03-30T01:00:00Z" (859683600) transition_time 0x484-0x48b.7 (8)
0x480|                                    00 00 00 00|            ....|      [45]: "1997-10-26T01:00:00Z" (877827600) transition_time 0x48c-0x493.7 (8)
0x490|34 52 96 10                                    |4R..            |
0x490|            00 00 00 00 35 1d 9d 10            |    ....5...    |      [46]: "1998-03-29T01:00:00Z" (891133200) transition_time 0x494-0x49b.7 (8)
0x490|                                    00 00 00 00|            ....|      [47]: "1998-10-25T01:00:00Z" (909277200) transition_time 0x49c-0x4a3.7 (8)
0x4a0|36 32 78 10                                    |62x.            |
0x4a0|            00 00 00 00 36 fd 7f 10            |    ....6...    |      [48]: "1999-03-28T01:00:00Z" (922582800) transition_time 0x4a4-0x4ab.7 (8)
0x4a0|                                    00 00 00 00|            ....|      [49]: "1999-10-31T01:00:00Z" (941331600) transition_time 0x4ac-0x4b3.7 (8)
0x4b0|38 1b 94 90                                    |8...            |
0x4b0|            00 00 00 00 38 dd 61 10            |    ....8.a.    |      [50]: "2000-03-26T01:00:00Z" (954032400) transition_time 0x4b4-0x4bb.7 (8)
0x4b0|                                    00 00 00 00|            ....|      [51]: "2000-10-29T01:00:00Z" (972781200) transition_time 0x4bc-0x4c3.7 (8)
0x4c0|39 fb 76 90                                    |9.v.            |
0x4c0|            00 00 00 00 3a bd 43 10            |    ....:.C.    |      [52]: "2001-03-25T01:00:00Z" (985482000) transition_time 0x4c4-0x4cb.7 (8)
0x4c0|                                    00 00 00 00|            ....|      [53]: "2001-10-28T01:00:00Z" (1004230800) transition_time 0x4cc-0x4d3.7 (8)
0x4d0|3b db 58 90                                    |;.X.            |
0x4d0|            00 00 00 00 3c a6 5f 90            |    ....<._.    |      [54]: "2002-03-31T01:00:00Z" (1017536400) transition_time 0x4d4-0x4db.7 (8)
0x4d0|                                    00 00 00 00|            ....|      [55]: "2002-10-27T01:00:00Z" (1035680400) transition_time 0x4dc-0x4e3.7 (8)
0x4e0|3d bb 3a 90                                    |=.:.            |
0x4e0|            00 00 00 00 3e 86 41 90            |    ....>.A.    |      [56]: "2003-03-30T01:00:00Z" (1048986000) transition_time 0x4e4-0x4eb.7 (8)
0x4e0|                                    00 00 00 00|            ....|      [57]: "2003-10-26T01:00:00Z" (1067130000) transition_time 0x4ec-0x4f3.7 (8)
0x4f0|3f 9b 1c 90                                    |?...            |
0x4f0|            00 00 00 00 40 66 23 90            |    ....@f#.    |      [58]: "2004-03-28T01:00:00Z" (1080435600) transition_time 0x4f4-0x4fb.7 (8)
0x4f0|                                    00 00 00 00|            ....|      [59]: "2004-10-31T01:00:00Z" (1099184400) transition_time 0x4fc-0x503.7 (8)
0x500|41 84 39 10                                    |A.9.            |
0x500|            00 00 00 00 42 46 05 90            |    ....BF..    |      [60]: "2005-03-27T01:00:00Z" (1111885200) transition_time 0x504-0x50b.7 (8)
0x500|                                    00 00 00 00|            ....|      [61]: "2005-10-30T01:00:00Z" (1130634000) transition_time 0x50c-0x513.7 (8)
0x510|43 64 1b 10                                    |Cd..            |
0x510|            00 00 00 00 44 25 e7 90            |    ....D%..    |      [62]: "2006-03-26T01:00:00Z" (1143334800) transition_time 0x514-0x51b.7 (8)
0x510|                                    00 00 00 00|            ....|      [63]: "2006-10-29T01:00:00Z" (1162083600) transition_time 0x51c-0x523.7 (8)
0x520|45 43 fd 10                                    |EC..            |
0x520|            00 00 00 00 46 05 c9 90            |    ....F...    |      [64]: "2007-03-25T01:00:00Z" (1174784400) transition_time 0x524-0x52b.7 (8)
0x520|                                    00 00 00 00|            ....|      [65]: "2007-10-28T01:00:00Z" (1193533200) transition_time 0x52c-0x533.7 (8)
0x530|47 23 df 10                                    |G#..            |
0x530|            00 00 00 00 47 ee e6 10            |    ....G...    |      [66]: "2008-03-30T01:00:00Z" (1206838800) transition_time 0x534-0x53b.7 (8)
0x530|                                    00 00 00 00|            ....|      [67]: "2008-10-26T01:00:00Z" (1224982800) transition_time 0x53c-0x543.7 (8)
0x540|49 03 c1 10                                    |I...            |
0x540|            00 00 00 00 49 ce c8 10            |    ....I...    |      [68]: "2009-03-29T01:00:00Z" (1238288400) transition_time 0x544-0x54b.7 (8)
0x540|                                    00 00 00 00|            ....|      [69]: "2009-10-25T01:00:00Z" (1256432400) transition_time 0x54c-0x553.7 (8)
0x550|4a e3 a3 10                                    |J...            |
0x550|            00 00 00 00 4b ae aa 10            |    ....K...    |      [70]: "2010-03-28T01:00:00Z" (1269738000) transition_time 0x554-0x55b.7 (8)
0x550|                                    00 00 00 00|            ....|      [71]: "2010-10-31T01:00:00Z" (1288486800) transition_time 0x55c-0x563.7 (8)
0x560|4c cc bf 90                                    |L...            |
0x560|            00 00 00 00 4d 8e 8c 10            |    ....M...    |      [72]: "2011-03-27T01:00:00Z" (1301187600) transition_time 0x564-0x56b.7 (8)
0x560|                                    00 00 00 00|            ....|      [73]: "2011-10-30T01:00:00Z" (1319936400) transition_time 0x56c-0x573.7 (8)
0x570|4e ac a1 90                                    |N...            |
0x570|            00 00 00 00 4f 6e 6e 10            |    ....Onn.    |      [74]: "2012-03-25T01:00:00Z" (1332637200) transition_time 0x574-0x57b.7 (8)
0x570|                                    00 00 00 00|            ....|      [75]: "2012-10-28T01:00:00Z" (1351386000) transition_time 0x57c-0x583.7 (8)
0x580|50 8c 83 90                                    |P...            |
0x580|            00 00 00 00 51 57 8a 90            |    ....QW..    |      [76]: "2013-03-31T01:00:00Z" (1364691600) transition_time 0x584-0x58b.7 (8)
0x580|                                    00 00 00 00|            ....|      [77]: "2013-10-27T01:00:00Z" (1382835600) transition_time 0x58c-0x593.7 (8)
0x590|52 6c 65 90                                    |Rle.            |
0x590|            00 00 00 00 53 37 6c 90            |    ....S7l.    |      [78]: "2014-03-30T01:00:00Z" (1396141200) transition_time 0x594-0x59b.7 (8)
0x590|                                    00 00 00 00|            ....|      [79]: "2014-10-26T01:00:00Z" (1414285200) transition_time 0x59c-0x5a3.7 (8)
0x5a0|54 4c 47 90                                    |TLG.            |
0x5a0|            00 00 00 00 55 17 4e 90            |    ....U.N.    |      [80]: "2015-03-29T01:00:00Z" (1427590800) transition_time 0x5a4-0x5ab.7 (8)
0x5a0|                                    00 00 00 00|            ....|      [81]: "2015-10-25T01:00:00Z" (1445734800) transition_time 0x5ac-0x5b3.7 (8)
0x5b0|56 2c 29 90                                    |V,).            |
0x5b0|            00 00 00 00 56 f7 30 90            |    ....V.0.    |      [82]: "2016-03-27T01:00:00Z" (1459040400) transition_time 0x5b4-0x5bb.7 (8)
0x5b0|                                    00 00 00 00|            ....|      [83]: "2016-10-30T01:00:00Z" (1477789200) transition_time 0x5bc-0x5c3.7 (8)
0x5c0|58 15 46 10                                    |X.F.            |
0x5c0|            00 00 00 00 58 d7 12 90            |    ....X...    |      [84]: "2017-03-26T01:00:00Z" (1490490000) transition_time 0x5c4-0x5cb.7 (8)
0x5c0|                                    00 00 00 00|            ....|      [85]: "2017-10-29T01:00:00Z" (1509238800) transition_time 0x5cc-0x5d3.7 (8)
0x5d0|59 f5 28 10                                    |Y.(.            |
0x5d0|            00 00 00 00 5a b6 f4 90            |    ....Z...    |      [86]: "2018-03-25T01:00:00Z" (1521939600) transition_time 0x5d4-0x5db.7 (8)
0x5d0|                                    00 00 00 00|            ....|      [87]: "2018-10-28T01:00:00Z" (1540688400) transition_time 0x5dc-0x5e3.7 (8)
0x5e0|5b d5 0a 10                                    |[...            |
0x5e0|            00 00 00 00 5c a0 11 10            |    ....\...    |      [88]: "2019-03-31T01:00:00Z" (1553994000) transition_time 0x5e4-0x5eb.7 (8)
0x5e0|                                    00 00 00 00|            ....|      [89]: "2019-10-27T01:00:00Z" (1572138000) transition_time 0x5ec-0x5f3.7 (8)
0x5f0|5d b4 ec 10                                    |]...            |
0x5f0|            00 00 00 00 5e 7f f3 10            |    ....^...    |      [90]: "2020-03-29T01:00:00Z" (1585443600) transition_time 0x5f4-0x5fb.7 (8)
0x5f0|                                    00 00 00 00|            ....|      [91]: "2020-10-25T01:00:00Z" (1603587600) transition_time 0x5fc-0x603.7 (8)
0x600|5f 94 ce 10                                    |_...            |
0x600|            00 00 00 00 60 5f d5 10            |    ....`_..    |      [92]: "2021-03-28T01:00:00Z" (1616893200) transition_time 0x604-0x60b.7 (8)
0x600|                                    00 00 00 00|            ....|      [93]: "2021-10-31T01:00:00Z" (1635642000) transition_time 0x60c-0x613.7 (8)
0x610|61 7d ea 90                                    |a}..            |
0x610|            00 00 00 00 62 3f b7 10            |    ....b?..    |      [94]: "2022-03-27T01:00:00Z" (1648342800) transition_time 0x614-0x61b.7 (8)
0x610|                                    00 00 00 00|            ....|      [95]: "2022-10-30T01:00:00Z" (1667091600) transition_time 0x61c-0x623.7 (8)
0x620|63 5d cc 90                                    |c]..            |
0x620|            00 00 00 00 64 1f 99 10            |    ....d...    |      [96]: "2023-03-26T01:00:00Z" (1679792400) transition_time 0x624-0x62b.7 (8)
0x620|                                    00 00 00 00|            ....|      [97]: "2023-10-29T01:00:00Z" (1698541200) transition_time 0x62c-0x633.7 (8)
0x630|65 3d ae 90                                    |e=..            |
0x630|            00 00 00 00 66 08 b5 90            |    ....f...    |      [98]: "2024-03-31T01:00:00Z" (1711846800) transition_time 0x634-0x63b.7 (8)
0x630|                                    00 00 00 00|            ....|      [99]: "2024-10-27T01:00:00Z" (1729990800) transition_time 0x63c-0x643.7 (8)
0x640|67 1d 90 90                                    |g...            |
0x640|            00 00 00 00 67 e8 97 90            |    ....g...    |      [100]: "2025-03-30T01:00:00Z" (1743296400) transition_time 0x644-0x64b.7 (8)
0x640|                                    00 00 00 00|            ....|      [101]: "2025-10-26T01:00:00Z" (1761440400) transition_time 0x64c-0x653.7 (8)
0x650|68 fd 72 90                                    |h.r.            |
0x650|            00 00 00 00 69 c8 79 90            |    ....i.y.    |      [102]: "2026-03-29T01:00:00Z" (1774746000) transition_time 0x654-0x65b.7 (8)
0x650|                                    00 00 00 00|            ....|      [103]: "2026-10-25T01:00:00Z" (1792890000) transition_time 0x65c-0x663.7 (8)
0x660|6a dd 54 90                                    |j.T.            |
0x660|            00 00 00 00 6b a8 5b 90            |    ....k.[.    |      [104]: "2027-03-28T01:00:00Z" (1806195600) transition_time 0x664-0x66b.7 (8)
0x660|                                    00 00 00 00|            ....|      [105]: "2027-10-31T01:00:00Z" (1824944400) transition_time 0x66c-0x673.7 (8)
0x670|6c c6 71 10                                    |l.q.            |
0x670|            00 00 00 00 6d 88 3d 90            |    ....m.=.    |      [106]: "2028-03-26T01:00:00Z" (1837645200) transition_time 0x674-0x67b.7 (8)
0x670|                                    00 00 00 00|            ....|      [107]: "2028-10-29T01:00:00Z" (1856394000) transition_time 0x67c-0x683.7 (8)
0x680|6e a6 53 10                                    |n.S.            |
0x680|            00 00 00 00 6f 68 1f 90            |    ....oh..    |      [108]: "2029-03-25T01:00:00Z" (1869094800) transition_time 0x684-0x68b.7 (8)
0x680|                                    00 00 00 00|            ....|      [109]: "2029-10-28T01:00:00Z" (1887843600) transition_time 0x68c-0x693.7 (8)
0x690|70 86 35 10                                    |p.5.            |
0x690|            00 00 00 00 71 51 3c 10            |    ....qQ<.    |      [110]: "2030-03-31T01:00:00Z" (1901149200) transition_time 0x694-0x69b.7 (8)
0x690|                                    00 00 00 00|            ....|      [111]: "2030-10-27T01:00:00Z" (1919293200) transition_time 0x69c-0x6a3.7 (8)
0x6a0|72 66 17 10                                    |rf..            |
0x6a0|            00 00 00 00 73 31 1e 10            |    ....s1..    |      [112]: "2031-03-30T01:00:00Z" (1932598800) transition_time 0x6a4-0x6ab.7 (8)
0x6a0|                                    00 00 00 00|            ....|      [113]: "2031-10-26T01:00:00Z" (1950742800) transition_time 0x6ac-0x6b3.7 (8)
0x6b0|74 45 f9 10                                    |tE..            |
0x6b0|            00 00 00 00 75 11 00 10            |    ....u...    |      [114]: "2032-03-28T01:00:00Z" (1964048400) transition_time 0x6b4-0x6bb.7 (8)
0x6b0|                                    00 00 00 00|            ....|      [115]: "2032-10-31T01:00:00Z" (1982797200) transition_time 0x6bc-0x6c3.7 (8)
0x6c0|76 2f 15 90                                    |v/..            |
0x6c0|            00 00 00 00 76 f0 e2 10            |    ....v...    |      [116]: "2033-03-27T01:00:00Z" (1995498000) transition_time 0x6c4-0x6cb.7 (8)
0x6c0|                                    00 00 00 00|            ....|      [117]: "2033-10-30T01:00:00Z" (2014246800) transition_time 0x6cc-0x6d3.7 (8)
0x6d0|78 0e f7 90                                    |x...            |
0x6d0|            00 00 00 00 78 d0 c4 10            |    ....x...    |      [118]: "2034-03-26T01:00:00Z" (2026947600) transition_time 0x6d4-0x6db.7 (8)
0x6d0|                                    00 00 00 00|            ....|      [119]: "2034-10-29T01:00:00Z" (2045696400) transition_time 0x6dc-0x6e3.7 (8)
0x6e0|79 ee d9 90                                    |y...            |
0x6e0|            00 00 00 00 7a b0 a6 10            |    ....z...    |      [120]: "2035-03-25T01:00:00Z" (2058397200) transition_time 0x6e4-0x6eb.7 (8)
0x6e0|                                    00 00 00 00|            ....|      [121]: "2035-10-28T01:00:00Z" (2077146000) transition_time 0x6ec-0x6f3.7 (8)
0x6f0|7b ce bb 90                                    |{...            |
0x6f0|            00 00 00 00 7c 99 c2 90            |    ....|...    |      [122]: "2036-03-30T01:00:00Z" (2090451600) transition_time 0x6f4-0x6fb.7 (8)
0x6f0|                                    00 00 00 00|            ....|      [123]: "2036-10-26T01:00:00Z" (2108595600) transition_time 0x6fc-0x703.7 (8)
0x700|7d ae 9d 90                                    |}...            |
0x700|            00 00 00 00 7e 79 a4 90            |    ....~y..    |      [124]: "2037-03-29T01:00:00Z" (2121901200) transition_time 0x704-0x70b.7 (8)
0x700|                                    00 00 00 00|            ....|      [125]: "2037-10-25T01:00:00Z" (2140045200) transition_time 0x70c-0x713.7 (8)
0x710|7f 8e 7f 90                                    |....            |
     |                                               |                |    transition_types[0:126]: 0x714-0x791.7 (126)
0x710|            01                                 |    .           |      [0]: 1 transition_type 0x714-0x714.7 (1)
0x710|               02                              |     .          |      [1]: 2 transition_type 0x715-0x715.7 (1)
0x710|                  03                           |      .         |      [2]: 3 transition_type 0x716-0x716.7 (1)
0x710|                     02                        |       .        |      [3]: 2 transition_type 0x717-0x717.7 (1)
0x710|                        04                     |        .       |      [4]: 4 transition_type 0x718-0x718.7 (1)
0x710|                           02                  |         .      |      [5]: 2 transition_type 0x719-0x719.7 (1)
0x710|                              04               |          .     |      [6]: 4 transition_type 0x71a-0x71a.7 (1)
0x710|                                 02            |           .    |      [7]: 2 transition_type 0x71b-0x71b.7 (1)
0x710|                                    04         |            .   |      [8]: 4 transition_type 0x71c-0x71c.7 (1)
0x710|                                       02      |             .  |      [9]: 2 transition_type 0x71d-0x71d.7 (1)
0x710|                                          04   |              . |      [10]: 4 transition_type 0x71e-0x71e.7 (1)
0x710|                                             02|               .|      [11]: 2 transition_type 0x71f-0x71f.7 (1)
0x720|03                                             |.               |      [12]: 3 transition_type 0x720-0x720.7 (1)
0x720|   02                                          | .              |      [13]: 2 transition_type 0x721-0x721.7 (1)
0x720|      03                                       |  .             |      [14]: 3 transition_type 0x722-0x722.7 (1)
0x720|         02                                    |   .            |      [15]: 2 transition_type 0x723-0x723.7 (1)
0x720|            03                                 |    .           |      [16]: 3 transition_type 0x724-0x724.7 (1)
0x720|               02                              |     .          |      [17]: 2 transition_type 0x725-0x725.7 (1)
0x720|                  03                           |      .         |      [18]: 3 transition_type 0x726-0x726.7 (1)
0x720|                     02                        |       .        |      [19]: 2 transition_type 0x727-0x727.7 (1)
0x720|                        03                     |        .       |      [20]: 3 transition_type 0x728-0x728.7 (1)
0x720|                           05                  |         .      |      [21]: 5 transition_type 0x729-0x729.7 (1)
0x720|                              06               |          .     |      [22]: 6 transition_type 0x72a-0x72a.7 (1)
0x720|                                 07            |           .    |      [23]: 7 transition_type 0x72b-0x72b.7 (1)
0x720|                                    06         |            .   |      [24]: 6 transition_type 0x72c-0x72c.7 (1)
0x720|                                       07      |             .  |      [25]: 7 transition_type 0x72d-0x72d.7 (1)
0x720|                                          06   |              . |      [26]: 6 transition_type 0x72e-0x72e.7 (1)
0x720|                                             07|               .|      [27]: 7 transition_type 0x72f-0x72f.7 (1)
0x730|06                                             |.               |      [28]: 6 transition_type 0x730-0x730.7 (1)
0x730|   07                                          | .              |      [29]: 7 transition_type 0x731-0x731.7 (1)
0x730|      06                                       |  .             |      [30]: 6 transition_type 0x732-0x732.7 (1)
0x730|         07                                    |   .            |      [31]: 7 transition_type 0x733-0x733.7 (1)
0x730|            06                                 |    .           |      [32]: 6 transition_type 0x734-0x734.7 (1)
0x730|               07                              |     .          |      [33]: 7 transition_type 0x735-0x735.7 (1)
0x730|                  06                           |      .         |      [34]: 6 transition_type 0x736-0x736.7 (1)
0x730|                     07                        |       .        |      [35]: 7 transition_type 0x737-0x737.7 (1)
0x730|                        06                     |        .       |      [36]: 6 transition_type 0x738-0x738.7 (1)
0x730|                           07                  |         .      |      [37]: 7 transition_type 0x739-0x739.7 (1)
0x730|                              06               |          .     |      [38]: 6 transition_type 0x73a-0x73a.7 (1)
0x730|                                 07            |           .    |      [39]: 7 transition_type 0x73b-0x73b.7 (1)
0x730|                                    06         |            .   |      [40]: 6 transition_type 0x73c-0x73c.7 (1)
0x730|                                       07      |             .  |      [41]: 7 transition_type 0x73d-0x73d.7 (1)
0x730|                                          06   |              . |      [42]: 6 transition_type 0x73e-0x73e.7 (1)
0x730|                                             07|               .|      [43]: 7 transition_type 0x73f-0x73f.7 (1)
0x740|06                                             |.               |      [44]: 6 transition_type 0x740-0x740.7 (1)
0x740|   07                                          | .              |      [45]: 7 transition_type 0x741-0x741.7 (1)
0x740|      06                                       |  .             |      [46]: 6 transition_type 0x742-0x742.7 (1)
0x740|         07                                    |   .            |      [47]: 7 transition_type 0x743-0x743.7 (1)
0x740|            06                                 |    .           |      [48]: 6 transition_type 0x744-0x744.7 (1)
0x740|               07                              |     .          |      [49]: 7 transition_type 0x745-0x745.7 (1)
0x740|                  06                           |      .         |      [50]: 6 transition_type 0x746-0x746.7 (1)
0x740|                     07                        |       .        |      [51]: 7 transition_type 0x747-0x747.7 (1)
0x740|                        06                     |        .       |      [52]: 6 transition_type 0x748-0x748.7 (1)
0x740|                           07                  |         .      |      [53]: 7 transition_type 0x749-0x749.7 (1)
0x740|                              06               |          .     |      [54]: 6 transition_type 0x74a-0x74a.7 (1)
0x740|                                 07            |           .    |      [55]: 7 transition_type 0x74b-0x74b.7 (1)
0x740|                                    06         |            .   |      [56]: 6 transition_type 0x74c-0x74c.7 (1)
0x740|                                       07      |             .  |      [57]: 7 transition_type 0x74d-0x74d.7 (1)
0x740|                                          06   |              . |      [58]: 6 transition_type 0x74e-0x74e.7 (1)
0x740|                                             07|               .|      [59]: 7 transition_type 0x74f-0x74f.7 (1)
0x750|06                                             |.               |      [60]: 6 transition_type 0x750-0x750.7 (1)
0x750|   07                                          | .              |      [61]: 7 transition_type 0x751-0x751.7 (1)
0x750|      06                                       |  .             |      [62]: 6 transition_type 0x752-0x752.7 (1)
0x750|         07                                    |   .            |      [63]: 7 transition_type 0x753-0x753.7 (1)
0x750|            06                                 |    .           |      [64]: 6 transition_type 0x754-0x754.7 (1)
0x750|               07                              |     .          |      [65]: 7 transition_type 0x755-0x755.7 (1)
0x750|                  06                           |      .         |      [66]: 6 transition_type 0x756-0x756.7 (1)
0x750|                     07                        |       .        |      [67]: 7 transition_type 0x757-0x757.7 (1)
0x750|                        06                     |        .       |      [68]: 6 transition_type 0x758-0x758.7 (1)
0x750|                           07                  |         .      |      [69]: 7 transition_type 0x759-0x759.7 (1)
0x750|                              06               |          .     |      [70]: 6 transition_type 0x75a-0x75a.7 (1)
0x750|                                 07            |           .    |      [71]: 7 transition_type 0x75b-0x75b.7 (1)
0x750|                                    06         |            .   |      [72]: 6 transition_type 0x75c-0x75c.7 (1)
0x750|                                       07      |             .  |      [73]: 7 transition_type 0x75d-0x75d.7 (1)
0x750|                                          06   |              . |      [74]: 6 transition_type 0x75e-0x75e.7 (1)
0x750|                                             07|               .|      [75]: 7 transition_type 0x75f-0x75f.7 (1)
0x760|06                                             |.               |      [76]: 6 transition_type 0x760-0x760.7 (1)
0x760|   07                                          | .              |      [77]: 7 transition_type 0x761-0x761.7 (1)
0x760|      06                                       |  .             |      [78]: 6 transition_type 0x762-0x762.7 (1)
0x760|         07                                    |   .            |      [79]: 7 transition_type 0x763-0x763.7 (1)
0x760|            06                                 |    .           |      [80]: 6 transition_type 0x764-0x764.7 (1)
0x760|               07                              |     .          |      [81]: 7 transition_type 0x765-0x765.7 (1)
0x760|                  06                           |      .         |      [82]: 6 transition_type 0x766-0x766.7 (1)
0x760|                     07                        |       .        |      [83]: 7 transition_type 0x767-0x767.7 (1)
0x760|                        06                     |        .       |      [84]: 6 transition_type 0x768-0x768.7 (1)
0x760|                           07                  |         .      |      [85]: 7 transition_type 0x769-0x769.7 (1)
0x760|                              06               |          .     |      [86]: 6 transition_type 0x76a-0x76a.7 (1)
0x760|                                 07            |           .    |      [87]: 7 transition_type 0x76b-0x76b.7 (1)
0x760|                                    06         |            .   |      [88]: 6 transition_type 0x76c-0x76c.7 (1)
0x760|                                       07      |             .  |      [89]: 7 transition_type 0x76d-0x76d.7 (1)
0x760|                                          06   |              . |      [90]: 6 transition_type 0x76e-0x76e.7 (1)
0x760|                                             07|               .|      [91]: 7 transition_type 0x76f-0x76f.7 (1)
0x770|06                                             |.               |      [92]: 6 transition_type 0x770-0x770.7 (1)
0x770|   07                                          | .              |      [93]: 7 transition_type 0x771-0x771.7 (1)
0x770|      06                                       |  .             |      [94]: 6 transition_type 0x772-0x772.7 (1)
0x770|         07                                    |   .            |      [95]: 7 transition_type 0x773-0x773.7 (1)
0x770|            06                                 |    .           |      [96]: 6 transition_type 0x774-0x774.7 (1)
0x770|               07                              |     .          |      [97]: 7 transition_type 0x775-0x775.7 (1)
0x770|                  06                           |      .         |      [98]: 6 transition_type 0x776-0x776.7 (1)
0x770|                     07                        |       .        |      [99]: 7 transition_type 0x777-0x777.7 (1)
0x770|                        06                     |        .       |      [100]: 6 transition_type 0x778-0x778.7 (1)
0x770|                           07                  |         .      |      [101]: 7 transition_type 0x779-0x779.7 (1)
0x770|                              06               |          .     |      [102]: 6 transition_type 0x77a-0x77a.7 (1)
0x770|                                 07            |           .    |      [103]: 7 transition_type 0x77b-0x77b.7 (1)
0x770|                                    06         |            .   |      [104]: 6 transition_type 0x77c-0x77c.7 (1)
0x770|                                       07      |             .  |      [105]: 7 transition_type 0x77d-0x77d.7 (1)
0x770|                                          06   |              . |      [106]: 6 transition_type 0x77e-0x77e.7 (1)
0x770|                                             07|               .|      [107]: 7 transition_type 0x77f-0x77f.7 (1)
0x780|06                                             |.               |      [108]: 6 transition_type 0x780-0x780.7 (1)
0x780|   07                                          | .              |      [109]: 7 transition_type 0x781-0x781.7 (1)
0x780|      06                                       |  .             |      [110]: 6 transition_type 0x782-0x782.7 (1)
0x780|         07                                    |   .            |      [111]: 7 transition_type 0x783-0x783.7 (1)
0x780|            06                                 |    .           |      [112]: 6 transition_type 0x784-0x784.7 (1)
0x780|               07                              |     .          |      [113]: 7 transition_type 0x785-0x785.7 (1)
0x780|                  06                           |      .         |      [114]: 6 transition_type 0x786-0x786.7 (1)
0x780|                     07                        |       .        |      [115]: 7 transition_type 0x787-0x787.7 (1)
0x780|                        06                     |        .       |      [116]: 6 transition_type 0x788-0x788.7 (1)
0x780|                           07                  |         .      |      [117]: 7 transition_type 0x789-0x789.7 (1)
0x780|                              06               |          .     |      [118]: 6 transition_type 0x78a-0x78a.7 (1)
0x780|                                 07            |           .    |      [119]: 7 transition_type 0x78b-0x78b.7 (1)
0x780|                                    06         |            .   |      [120]: 6 transition_type 0x78c-0x78c.7 (1)
0x780|                                       07      |             .  |      [121]: 7 transition_type 0x78d-0x78d.7 (1)
0x780|                                          06   |              . |      [122]: 6 transition_type 0x78e-0x78e.7 (1)
0x780|                                             07|               .|      [123]: 7 transition_type 0x78f-0x78f.7 (1)
0x790|06                                             |.               |      [124]: 6 transition_type 0x790-0x790.7 (1)
0x790|   07                                          | .              |      [125]: 7 transition_type 0x791-0x791.7 (1)
     |                                               |                |    local_time_type_records[0:8]: 0x792-0x7c1.7 (48)
     |                                               |                |      [0]{}: local_time_type 0x792-0x797.7 (6)
0x790|      ff ff fb 04                              |  ....          |        utoff: -1276 (valid) 0x792-0x795.7 (4)
0x790|                  00                           |      .         |        dst: 0 (valid) 0x796-0x796.7 (1)
0x790|                     00                        |       .        |        idx: 0 (valid) 0x797-0x797.7 (1)
     |                                               |                |      [1]{}: local_time_type 0x798-0x79d.7 (6)
0x790|                        00 00 00 00            |        ....    |        utoff: 0 (valid) 0x798-0x79b.7 (4)
0x790|                                    00         |            .   |        dst: 0 (valid) 0x79c-0x79c.7 (1)
0x790|                                       04      |             .  |        idx: 4 (valid) 0x79d-0x79d.7 (1)
     |                                               |                |      [2]{}: local_time_type 0x79e-0x7a3.7 (6)
0x790|                                          00 00|              ..|        utoff: 3600 (valid) 0x79e-0x7a1.7 (4)
0x7a0|0e 10                                          |..              |
0x7a0|      01                                       |  .             |        dst: 1 (valid) 0x7a2-0x7a2.7 (1)
0x7a0|         08                                    |   .            |        idx: 8 (valid) 0x7a3-0x7a3.7 (1)
     |                                               |                |      [3]{}: local_time_type 0x7a4-0x7a9.7 (6)
0x7a0|            00 00 00 00                        |    ....        |        utoff: 0 (valid) 0x7a4-0x7a7.7 (4)
0x7a0|                        00                     |        .       |        dst: 0 (valid) 0x7a8-0x7a8.7 (1)
0x7a0|                           04                  |         .      |        idx: 4 (valid) 0x7a9-0x7a9.7 (1)
     |                                               |                |      [4]{}: local_time_type 0x7aa-0x7af.7 (6)
0x7a0|                              00 00 00 00      |          ....  |        utoff: 0 (valid) 0x7aa-0x7ad.7 (4)
0x7a0|                                          00   |              . |        dst: 0 (valid) 0x7ae-0x7ae.7 (1)
0x7a0|                                             04|               .|        idx: 4 (valid) 0x7af-0x7af.7 (1)
     |                                               |                |      [5]{}: local_time_type 0x7b0-0x7b5.7 (6)
0x7b0|00 00 0e 10                                    |....            |        utoff: 3600 (valid) 0x7b0-0x7b3.7 (4)
0x7b0|            00                                 |    .           |        dst: 0 (valid) 0x7b4-0x7b4.7 (1)
0x7b0|               0d                              |     .          |        idx: 13 (valid) 0x7b5-0x7b5.7 (1)
     |                                               |                |      [6]{}: local_time_type 0x7b6-0x7bb.7 (6)
0x7b0|                  00 00 1c 20                  |      ...       |        utoff: 7200 (valid) 0x7b6-0x7b9.7 (4)
0x7b0|                              01               |          .     |        dst: 1 (valid) 0x7ba-0x7ba.7 (1)
0x7b0|                                 11            |           .    |        idx: 17 (valid) 0x7bb-0x7bb.7 (1)
     |                                               |                |      [7]{}: local_time_type 0x7bc-0x7c1.7 (6)
0x7b0|                                    00 00 0e 10|            ....|        utoff: 3600 (valid) 0x7bc-0x7bf.7 (4)
0x7c0|00                                             |.               |        dst: 0 (valid) 0x7c0-0x7c0.7 (1)
0x7c0|   0d                                          | .              |        idx: 13 (valid) 0x7c1-0x7c1.7 (1)
     |                                               |                |    time_zone_designations[0:5]: 0x7c2-0x7d7.7 (22)
0x7c0|      4c 4d 54 00                              |  LMT.          |      [0]: "LMT" time_zone_designation 0x7c2-0x7c5.7 (4)
0x7c0|                  57 45 54 00                  |      WET.      |      [1]: "WET" time_zone_designation 0x7c6-0x7c9.7 (4)
0x7c0|                              57 45 53 54 00   |          WEST. |      [2]: "WEST" time_zone_designation 0x7ca-0x7ce.7 (5)
0x7c0|                                             43|               C|      [3]: "CET" time_zone_designation 0x7cf-0x7d2.7 (4)
0x7d0|45 54 00                                       |ET.             |
0x7d0|         43 45 53 54 00                        |   CEST.        |      [4]: "CEST" time_zone_designation 0x7d3-0x7d7.7 (5)
     |                                               |                |    leap_second_records[0:0]: 0x7d8-NA (0)
     |                                               |                |    standard_wall_indicators[0:8]: 0x7d8-0x7df.7 (8)
0x7d0|                        00                     |        .       |      [0]: 0 standard_wall_indicator (valid) 0x7d8-0x7d8.7 (1)
0x7d0|                           01                  |         .      |      [1]: 1 standard_wall_indicator (valid) 0x7d9-0x7d9.7 (1)
0x7d0|                              00               |          .     |      [2]: 0 standard_wall_indicator (valid) 0x7da-0x7da.7 (1)
0x7d0|                                 00            |           .    |      [3]: 0 standard_wall_indicator (valid) 0x7db-0x7db.7 (1)
0x7d0|                                    01         |            .   |      [4]: 1 standard_wall_indicator (valid) 0x7dc-0x7dc.7 (1)
0x7d0|                                       00      |             .  |      [5]: 0 standard_wall_indicator (valid) 0x7dd-0x7dd.7 (1)
0x7d0|                                          01   |              . |      [6]: 1 standard_wall_indicator (valid) 0x7de-0x7de.7 (1)
0x7d0|                                             01|               .|      [7]: 1 standard_wall_indicator (valid) 0x7df-0x7df.7 (1)
     |                                               |                |    ut_local_indicators[0:8]: 0x7e0-0x7e7.7 (8)
0x7e0|00                                             |.               |      [0]: 0 ut_local_indicator (valid) 0x7e0-0x7e0.7 (1)
0x7e0|   01                                          | .              |      [1]: 1 ut_local_indicator (valid) 0x7e1-0x7e1.7 (1)
0x7e0|      00                                       |  .             |      [2]: 0 ut_local_indicator (valid) 0x7e2-0x7e2.7 (1)
0x7e0|         00                                    |   .            |      [3]: 0 ut_local_indicator (valid) 0x7e3-0x7e3.7 (1)
0x7e0|            00                                 |    .           |      [4]: 0 ut_local_indicator (valid) 0x7e4-0x7e4.7 (1)
0x7e0|               00                              |     .          |      [5]: 0 ut_local_indicator (valid) 0x7e5-0x7e5.7 (1)
0x7e0|                  01                           |      .         |      [6]: 1 ut_local_indicator (valid) 0x7e6-0x7e6.7 (1)
0x7e0|                     01                        |       .        |      [7]: 1 ut_local_indicator (valid) 0x7e7-0x7e7.7 (1)
     |                                               |                |  footer{}: 0x7e8-0x803.7 (28)
0x7e0|                        0a                     |        .       |    nl1: 10 (valid) 0x7e8-0x7e8.7 (1)
0x7e0|                           43 45 54 2d 31 43 45|         CET-1CE|    tz_string: "CET-1CEST,M3.5.0,M10.5.0/3" 0x7e9-0x802.7 (26)
0x7f0|53 54 2c 4d 33 2e 35 2e 30 2c 4d 31 30 2e 35 2e|ST,M3.5.0,M10.5.|
0x800|30 2f 33                                       |0/3             |
0x800|         0a|                                   |   .|           |    nl2: 10 (valid) 0x803-0x803.7 (1)
