$ fq -d tzif dv Chatham
     |00 01 02 03 04 05 06 07 08 09 0a 0b 0c 0d 0e 0f|0123456789abcdef|.{}: Chatham (tzif) 0x0-0x814 (2068)
     |                                               |                |  v1header{}: 0x0-0x2c (44)
0x000|54 5a 69 66                                    |TZif            |    magic: 0x545a6966 (valid) 0x0-0x4 (4)
0x000|            32                                 |    2           |    ver: "2" (0x32) (valid) 0x4-0x5 (1)
0x000|               00 00 00 00 00 00 00 00 00 00 00|     ...........|    reserved: raw bits 0x5-0x14 (15)
0x010|00 00 00 00                                    |....            |
0x010|            00 00 00 00                        |    ....        |    isutcnt: 0 0x14-0x18 (4)
0x010|                        00 00 00 05            |        ....    |    isstdcnt: 5 0x18-0x1c (4)
0x010|                                    00 00 00 00|            ....|    leapcnt: 0 0x1c-0x20 (4)
0x020|00 00 00 82                                    |....            |    timecnt: 130 0x20-0x24 (4)
0x020|            00 00 00 05                        |    ....        |    typecnt: 5 0x24-0x28 (4)
0x020|                        00 00 00 16            |        ....    |    charcnt: 22 0x28-0x2c (4)
     |                                               |                |  v1datablock{}: 0x2c-0x2ef (707)
     |                                               |                |    transition_times[0:130]: 0x2c-0x234 (520)
0x020|                                    80 00 00 00|            ....|      [0]: "1901-12-13T20:45:52Z" (-2147483648) transition_time 0x2c-0x30 (4)
0x030|d2 da 96 bc                                    |....            |      [1]: "1945-12-31T11:45:00Z" (-757426500) transition_time 0x30-0x34 (4)
0x030|            09 18 fd e0                        |    ....        |      [2]: "1974-11-02T14:00:00Z" (152632800) transition_time 0x34-0x38 (4)
0x030|                        09 ac a5 e0            |        ....    |      [3]: "1975-02-22T14:00:00Z" (162309600) transition_time 0x38-0x3c (4)
0x030|                                    0a ef a5 60|            ...`|      [4]: "1975-10-25T14:00:00Z" (183477600) transition_time 0x3c-0x40 (4)
0x040|0b 9e fc e0                                    |....            |      [5]: "1976-03-06T14:00:00Z" (194968800) transition_time 0x40-0x44 (4)
0x040|            0c d8 c1 e0                        |    ....        |      [6]: "1976-10-30T14:00:00Z" (215532000) transition_time 0x44-0x48 (4)
0x040|                        0d 7e de e0            |        .~..    |      [7]: "1977-03-05T14:00:00Z" (226418400) transition_time 0x48-0x4c (4)
0x040|                                    0e b8 a3 e0|            ....|      [8]: "1977-10-29T14:00:00Z" (246981600) transition_time 0x4c-0x50 (4)
0x050|0f 5e c0 e0                                    |.^..            |      [9]: "1978-03-04T14:00:00Z" (257868000) transition_time 0x50-0x54 (4)
0x050|            10 98 85 e0                        |    ....        |      [10]: "1978-10-28T14:00:00Z" (278431200) transition_time 0x54-0x58 (4)
0x050|                        11 3e a2 e0            |        .>..    |      [11]: "1979-03-03T14:00:00Z" (289317600) transition_time 0x58-0x5c (4)
0x050|                                    12 78 67 e0|            .xg.|      [12]: "1979-10-27T14:00:00Z" (309880800) transition_time 0x5c-0x60 (4)
0x060|13 1e 84 e0                                    |....            |      [13]: "1980-03-01T14:00:00Z" (320767200) transition_time 0x60-0x64 (4)
0x060|            14 58 49 e0                        |    .XI.        |      [14]: "1980-10-25T14:00:00Z" (341330400) transition_time 0x64-0x68 (4)
0x060|                        14 fe 66 e0            |        ..f.    |      [15]: "1981-02-28T14:00:00Z" (352216800) transition_time 0x68-0x6c (4)
0x060|                                    16 38 2b e0|            .8+.|      [16]: "1981-10-24T14:00:00Z" (372780000) transition_time 0x6c-0x70 (4)
0x070|16 e7 83 60                                    |...`            |      [17]: "1982-03-06T14:00:00Z" (384271200) transition_time 0x70-0x74 (4)
0x070|            18 21 48 60                        |    .!H`        |      [18]: "1982-10-30T14:00:00Z" (404834400) transition_time 0x74-0x78 (4)
0x070|                        18 c7 65 60            |        ..e`    |      [19]: "1983-03-05T14:00:00Z" (415720800) transition_time 0x78-0x7c (4)
0x070|                                    1a 01 2a 60|            ..*`|      [20]: "1983-10-29T14:00:00Z" (436284000) transition_time 0x7c-0x80 (4)
0x080|1a a7 47 60                                    |..G`            |      [21]: "1984-03-03T14:00:00Z" (447170400) transition_time 0x80-0x84 (4)
0x080|            1b e1 0c 60                        |    ...`        |      [22]: "1984-10-27T14:00:00Z" (467733600) transition_time 0x84-0x88 (4)
0x080|                        1c 87 29 60            |        ..)`    |      [23]: "1985-03-02T14:00:00Z" (478620000) transition_time 0x88-0x8c (4)
0x080|                                    1d c0 ee 60|            ...`|      [24]: "1985-10-26T14:00:00Z" (499183200) transition_time 0x8c-0x90 (4)
0x090|1e 67 0b 60                                    |.g.`            |      [25]: "1986-03-01T14:00:00Z" (510069600) transition_time 0x90-0x94 (4)
0x090|            1f a0 d0 60                        |    ...`        |      [26]: "1986-10-25T14:00:00Z" (530632800) transition_time 0x94-0x98 (4)
0x090|                        20 46 ed 60            |         F.`    |      [27]: "1987-02-28T14:00:00Z" (541519200) transition_time 0x98-0x9c (4)
0x090|                                    21 80 b2 60|            !..`|      [28]: "1987-10-24T14:00:00Z" (562082400) transition_time 0x9c-0xa0 (4)
0x0a0|22 30 09 e0                                    |"0..            |      [29]: "1988-03-05T14:00:00Z" (573573600) transition_time 0xa0-0xa4 (4)
0x0a0|            23 69 ce e0                        |    #i..        |      [30]: "1988-10-29T14:00:00Z" (594136800) transition_time 0xa4-0xa8 (4)
0x0a0|                        24 0f eb e0            |        $...    |      [31]: "1989-03-04T14:00:00Z" (605023200) transition_time 0xa8-0xac (4)
0x0a0|                                    25 2e 01 60|            %..`|      [32]: "1989-10-07T14:00:00Z" (623772000) transition_time 0xac-0xb0 (4)
0x0b0|26 02 42 e0                                    |&.B.            |      [33]: "1990-03-17T14:00:00Z" (637682400) transition_time 0xb0-0xb4 (4)
0x0b0|            27 0d e3 60                        |    '..`        |      [34]: "1990-10-06T14:00:00Z" (655221600) transition_time 0xb4-0xb8 (4)
0x0b0|                        27 e2 24 e0            |        '.$.    |      [35]: "1991-03-16T14:00:00Z" (669132000) transition_time 0xb8-0xbc (4)
0x0b0|                                    28 ed c5 60|            (..`|      [36]: "1991-10-05T14:00:00Z" (686671200) transition_time 0xbc-0xc0 (4)
0x0c0|29 c2 06 e0                                    |)...            |      [37]: "1992-03-14T14:00:00Z" (700581600) transition_time 0xc0-0xc4 (4)
0x0c0|            2a cd a7 60                        |    *..`        |      [38]: "1992-10-03T14:00:00Z" (718120800) transition_time 0xc4-0xc8 (4)
0x0c0|                        2b ab 23 60            |        +.#`    |      [39]: "1993-03-20T14:00:00Z" (732636000) transition_time 0xc8-0xcc (4)
0x0c0|                                    2c ad 89 60|            ,..`|      [40]: "1993-10-02T14:00:00Z" (749570400) transition_time 0xcc-0xd0 (4)
0x0d0|2d 8b 05 60                                    |-..`            |      [41]: "1994-03-19T14:00:00Z" (764085600) transition_time 0xd0-0xd4 (4)
0x0d0|            2e 8d 6b 60                        |    ..k`        |      [42]: "1994-10-01T14:00:00Z" (781020000) transition_time 0xd4-0xd8 (4)
0x0d0|                        2f 6a e7 60            |        /j.`    |      [43]: "1995-03-18T14:00:00Z" (795535200) transition_time 0xd8-0xdc (4)
0x0d0|                                    30 6d 4d 60|            0mM`|      [44]: "1995-09-30T14:00:00Z" (812469600) transition_time 0xdc-0xe0 (4)
0x0e0|31 4a c9 60                                    |1J.`            |      [45]: "1996-03-16T14:00:00Z" (826984800) transition_time 0xe0-0xe4 (4)
0x0e0|            32 56 69 e0                        |    2Vi.        |      [46]: "1996-10-05T14:00:00Z" (844524000) transition_time 0xe4-0xe8 (4)
0x0e0|                        33 2a ab 60            |        3*.`    |      [47]: "1997-03-15T14:00:00Z" (858434400) transition_time 0xe8-0xec (4)
0x0e0|                                    34 36 4b e0|            46K.|      [48]: "1997-10-04T14:00:00Z" (875973600) transition_time 0xec-0xf0 (4)
0x0f0|35 0a 8d 60                                    |5..`            |      [49]: "1998-03-14T14:00:00Z" (889884000) transition_time 0xf0-0xf4 (4)
0x0f0|            36 16 2d e0                        |    6.-.        |      [50]: "1998-10-03T14:00:00Z" (907423200) transition_time 0xf4-0xf8 (4)
0x0f0|                        36 f3 a9 e0            |        6...    |      [51]: "1999-03-20T14:00:00Z" (921938400) transition_time 0xf8-0xfc (4)
0x0f0|                                    37 f6 0f e0|            7...|      [52]: "1999-10-02T14:00:00Z" (938872800) transition_time 0xfc-0x100 (4)
0x100|38 d3 8b e0                                    |8...            |      [53]: "2000-03-18T14:00:00Z" (953388000) transition_time 0x100-0x104 (4)
0x100|            39 d5 f1 e0                        |    9...        |      [54]: "2000-09-30T14:00:00Z" (970322400) transition_time 0x104-0x108 (4)
0x100|                        3a b3 6d e0            |        :.m.    |      [55]: "2001-03-17T14:00:00Z" (984837600) transition_time 0x108-0x10c (4)
0x100|                                    3b bf 0e 60|            ;..`|      [56]: "2001-10-06T14:00:00Z" (1002376800) transition_time 0x10c-0x110 (4)
0x110|3c 93 4f e0                                    |<.O.            |      [57]: "2002-03-16T14:00:00Z" (1016287200) transition_time 0x110-0x114 (4)
0x110|            3d 9e f0 60                        |    =..`        |      [58]: "2002-10-05T14:00:00Z" (1033826400) transition_time 0x114-0x118 (4)
0x110|                        3e 73 31 e0            |        >s1.    |      [59]: "2003-03-15T14:00:00Z" (1047736800) transition_time 0x118-0x11c (4)
0x110|                                    3f 7e d2 60|            ?~.`|      [60]: "2003-10-04T14:00:00Z" (1065276000) transition_time 0x11c-0x120 (4)
0x120|40 5c 4e 60                                    |@\N`            |      [61]: "2004-03-20T14:00:00Z" (1079791200) transition_time 0x120-0x124 (4)
0x120|            41 5e b4 60                        |    A^.`        |      [62]: "2004-10-02T14:00:00Z" (1096725600) transition_time 0x124-0x128 (4)
0x120|                        42 3c 30 60            |        B<0`    |      [63]: "2005-03-19T14:00:00Z" (1111240800) transition_time 0x128-0x12c (4)
0x120|                                    43 3e 96 60|            C>.`|      [64]: "2005-10-01T14:00:00Z" (1128175200) transition_time 0x12c-0x130 (4)
0x130|44 1c 12 60                                    |D..`            |      [65]: "2006-03-18T14:00:00Z" (1142690400) transition_time 0x130-0x134 (4)
0x130|            45 1e 78 60                        |    E.x`        |      [66]: "2006-09-30T14:00:00Z" (1159624800) transition_time 0x134-0x138 (4)
0x130|                        45 fb f4 60            |        E..`    |      [67]: "2007-03-17T14:00:00Z" (1174140000) transition_time 0x138-0x13c (4)
0x130|                                    46 fe 5a 60|            F.Z`|      [68]: "2007-09-29T14:00:00Z" (1191074400) transition_time 0x13c-0x140 (4)
0x140|47 f7 85 e0                                    |G...            |      [69]: "2008-04-05T14:00:00Z" (1207404000) transition_time 0x140-0x144 (4)
0x140|            48 de 3c 60                        |    H.<`        |      [70]: "2008-09-27T14:00:00Z" (1222524000) transition_time 0x144-0x148 (4)
0x140|                        49 d7 67 e0            |        I.g.    |      [71]: "2009-04-04T14:00:00Z" (1238853600) transition_time 0x148-0x14c (4)
0x140|                                    4a be 1e 60|            J..`|      [72]: "2009-09-26T14:00:00Z" (1253973600) transition_time 0x14c-0x150 (4)
0x150|4b b7 49 e0                                    |K.I.            |      [73]: "2010-04-03T14:00:00Z" (1270303200) transition_time 0x150-0x154 (4)
0x150|            4c 9e 00 60                        |    L..`        |      [74]: "2010-09-25T14:00:00Z" (1285423200) transition_time 0x154-0x158 (4)
0x150|                        4d 97 2b e0            |        M.+.    |      [75]: "2011-04-02T14:00:00Z" (1301752800) transition_time 0x158-0x15c (4)
0x150|                                    4e 7d e2 60|            N}.`|      [76]: "2011-09-24T14:00:00Z" (1316872800) transition_time 0x15c-0x160 (4)
0x160|4f 77 0d e0                                    |Ow..            |      [77]: "2012-03-31T14:00:00Z" (1333202400) transition_time 0x160-0x164 (4)
0x160|            50 66 fe e0                        |    Pf..        |      [78]: "2012-09-29T14:00:00Z" (1348927200) transition_time 0x164-0x168 (4)
0x160|                        51 60 2a 60            |        Q`*`    |      [79]: "2013-04-06T14:00:00Z" (1365256800) transition_time 0x168-0x16c (4)
0x160|                                    52 46 e0 e0|            RF..|      [80]: "2013-09-28T14:00:00Z" (1380376800) transition_time 0x16c-0x170 (4)
0x170|53 40 0c 60                                    |S@.`            |      [81]: "2014-04-05T14:00:00Z" (1396706400) transition_time 0x170-0x174 (4)
0x170|            54 26 c2 e0                        |    T&..        |      [82]: "2014-09-27T14:00:00Z" (1411826400) transition_time 0x174-0x178 (4)
0x170|                        55 1f ee 60            |        U..`    |      [83]: "2015-04-04T14:00:00Z" (1428156000) transition_time 0x178-0x17c (4)
0x170|                                    56 06 a4 e0|            V...|      [84]: "2015-09-26T14:00:00Z" (1443276000) transition_time 0x17c-0x180 (4)
0x180|56 ff d0 60                                    |V..`            |      [85]: "2016-04-02T14:00:00Z" (1459605600) transition_time 0x180-0x184 (4)
0x180|            57 e6 86 e0                        |    W...        |      [86]: "2016-09-24T14:00:00Z" (1474725600) transition_time 0x184-0x188 (4)
0x180|                        58 df b2 60            |        X..`    |      [87]: "2017-04-01T14:00:00Z" (1491055200) transition_time 0x188-0x18c (4)
0x180|                                    59 c6 68 e0|            Y.h.|      [88]: "2017-09-23T14:00:00Z" (1506175200) transition_time 0x18c-0x190 (4)
0x190|5a bf 94 60                                    |Z..`            |      [89]: "2018-03-31T14:00:00Z" (1522504800) transition_time 0x190-0x194 (4)
0x190|            5b af 85 60                        |    [..`        |      [90]: "2018-09-29T14:00:00Z" (1538229600) transition_time 0x194-0x198 (4)
0x190|                        5c a8 b0 e0            |        \...    |      [91]: "2019-04-06T14:00:00Z" (1554559200) transition_time 0x198-0x19c (4)
0x190|                                    5d 8f 67 60|            ].g`|      [92]: "2019-09-28T14:00:00Z" (1569679200) transition_time 0x19c-0x1a0 (4)
0x1a0|5e 88 92 e0                                    |^...            |      [93]: "2020-04-04T14:00:00Z" (1586008800) transition_time 0x1a0-0x1a4 (4)
0x1a0|            5f 6f 49 60                        |    _oI`        |      [94]: "2020-09-26T14:00:00Z" (1601128800) transition_time 0x1a4-0x1a8 (4)
0x1a0|                        60 68 74 e0            |        `ht.    |      [95]: "2021-04-03T14:00:00Z" (1617458400) transition_time 0x1a8-0x1ac (4)
0x1a0|                                    61 4f 2b 60|            aO+`|      [96]: "2021-09-25T14:00:00Z" (1632578400) transition_time 0x1ac-0x1b0 (4)
0x1b0|62 48 56 e0                                    |bHV.            |      [97]: "2022-04-02T14:00:00Z" (1648908000) transition_time 0x1b0-0x1b4 (4)
0x1b0|            63 2f 0d 60                        |    c/.`        |      [98]: "2022-09-24T14:00:00Z" (1664028000) transition_time 0x1b4-0x1b8 (4)
0x1b0|                        64 28 38 e0            |        d(8.    |      [99]: "2023-04-01T14:00:00Z" (1680357600) transition_time 0x1b8-0x1bc (4)
0x1b0|                                    65 0e ef 60|            e..`|      [100]: "2023-09-23T14:00:00Z" (1695477600) transition_time 0x1bc-0x1c0 (4)
0x1c0|66 11 55 60                                    |f.U`            |      [101]: "2024-04-06T14:00:00Z" (1712412000) transition_time 0x1c0-0x1c4 (4)
0x1c0|            66 f8 0b e0                        |    f...        |      [102]: "2024-09-28T14:00:00Z" (1727532000) transition_time 0x1c4-0x1c8 (4)
0x1c0|                        67 f1 37 60            |        g.7`    |      [103]: "2025-04-05T14:00:00Z" (1743861600) transition_time 0x1c8-0x1cc (4)
0x1c0|                                    68 d7 ed e0|            h...|      [104]: "2025-09-27T14:00:00Z" (1758981600) transition_time 0x1cc-0x1d0 (4)
0x1d0|69 d1 19 60                                    |i..`            |      [105]: "2026-04-04T14:00:00Z" (1775311200) transition_time 0x1d0-0x1d4 (4)
0x1d0|            6a b7 cf e0                        |    j...        |      [106]: "2026-09-26T14:00:00Z" (1790431200) transition_time 0x1d4-0x1d8 (4)
0x1d0|                        6b b0 fb 60            |        k..`    |      [107]: "2027-04-03T14:00:00Z" (1806760800) transition_time 0x1d8-0x1dc (4)
0x1d0|                                    6c 97 b1 e0|            l...|      [108]: "2027-09-25T14:00:00Z" (1821880800) transition_time 0x1dc-0x1e0 (4)
0x1e0|6d 90 dd 60                                    |m..`            |      [109]: "2028-04-01T14:00:00Z" (1838210400) transition_time 0x1e0-0x1e4 (4)
0x1e0|            6e 77 93 e0                        |    nw..        |      [110]: "2028-09-23T14:00:00Z" (1853330400) transition_time 0x1e4-0x1e8 (4)
0x1e0|                        6f 70 bf 60            |        op.`    |      [111]: "2029-03-31T14:00:00Z" (1869660000) transition_time 0x1e8-0x1ec (4)
0x1e0|                                    70 60 b0 60|            p`.`|      [112]: "2029-09-29T14:00:00Z" (1885384800) transition_time 0x1ec-0x1f0 (4)
0x1f0|71 59 db e0                                    |qY..            |      [113]: "2030-04-06T14:00:00Z" (1901714400) transition_time 0x1f0-0x1f4 (4)
0x1f0|            72 40 92 60                        |    r@.`        |      [114]: "2030-09-28T14:00:00Z" (1916834400) transition_time 0x1f4-0x1f8 (4)
0x1f0|                        73 39 bd e0            |        s9..    |      [115]: "2031-04-05T14:00:00Z" (1933164000) transition_time 0x1f8-0x1fc (4)
0x1f0|                                    74 20 74 60|            t t`|      [116]: "2031-09-27T14:00:00Z" (1948284000) transition_time 0x1fc-0x200 (4)
0x200|75 19 9f e0                                    |u...            |      [117]: "2032-04-03T14:00:00Z" (1964613600) transition_time 0x200-0x204 (4)
0x200|            76 00 56 60                        |    v.V`        |      [118]: "2032-09-25T14:00:00Z" (1979733600) transition_time 0x204-0x208 (4)
0x200|                        76 f9 81 e0            |        v...    |      [119]: "2033-04-02T14:00:00Z" (1996063200) transition_time 0x208-0x20c (4)
0x200|                                    77 e0 38 60|            w.8`|      [120]: "2033-09-24T14:00:00Z" (2011183200) transition_time 0x20c-0x210 (4)
0x210|78 d9 63 e0                                    |x.c.            |      [121]: "2034-04-01T14:00:00Z" (2027512800) transition_time 0x210-0x214 (4)
0x210|            79 c0 1a 60                        |    y..`        |      [122]: "2034-09-23T14:00:00Z" (2042632800) transition_time 0x214-0x218 (4)
0x210|                        7a b9 45 e0            |        z.E.    |      [123]: "2035-03-31T14:00:00Z" (2058962400) transition_time 0x218-0x21c (4)
0x210|                                    7b a9 36 e0|            {.6.|      [124]: "2035-09-29T14:00:00Z" (2074687200) transition_time 0x21c-0x220 (4)
0x220|7c a2 62 60                                    ||.b`            |      [125]: "2036-04-05T14:00:00Z" (2091016800) transition_time 0x220-0x224 (4)
0x220|            7d 89 18 e0                        |    }...        |      [126]: "2036-09-27T14:00:00Z" (2106136800) transition_time 0x224-0x228 (4)
0x220|                        7e 82 44 60            |        ~.D`    |      [127]: "2037-04-04T14:00:00Z" (2122466400) transition_time 0x228-0x22c (4)
0x220|                                    7f 68 fa e0|            .h..|      [128]: "2037-09-26T14:00:00Z" (2137586400) transition_time 0x22c-0x230 (4)
0x230|7f ff ff ff                                    |....            |      [129]: "2038-01-19T03:14:07Z" (2147483647) transition_time 0x230-0x234 (4)
     |                                               |                |    transition_types[0:130]: 0x234-0x2b6 (130)
0x230|            01                                 |    .           |      [0]: 1 transition_type 0x234-0x235 (1)
0x230|               04                              |     .          |      [1]: 4 transition_type 0x235-0x236 (1)
0x230|                  02                           |      .         |      [2]: 2 transition_type 0x236-0x237 (1)
0x230|                     03                        |       .        |      [3]: 3 transition_type 0x237-0x238 (1)
0x230|                        02                     |        .       |      [4]: 2 transition_type 0x238-0x239 (1)
0x230|                           03                  |         .      |      [5]: 3 transition_type 0x239-0x23a (1)
0x230|                              02               |          .     |      [6]: 2 transition_type 0x23a-0x23b (1)
0x230|                                 03            |           .    |      [7]: 3 transition_type 0x23b-0x23c (1)
0x230|                                    02         |            .   |      [8]: 2 transition_type 0x23c-0x23d (1)
0x230|                                       03      |             .  |      [9]: 3 transition_type 0x23d-0x23e (1)
0x230|                                          02   |              . |      [10]: 2 transition_type 0x23e-0x23f (1)
0x230|                                             03|               .|      [11]: 3 transition_type 0x23f-0x240 (1)
0x240|02                                             |.               |      [12]: 2 transition_type 0x240-0x241 (1)
0x240|   03                                          | .              |      [13]: 3 transition_type 0x241-0x242 (1)
0x240|      02                                       |  .             |      [14]: 2 transition_type 0x242-0x243 (1)
0x240|         03                                    |   .            |      [15]: 3 transition_type 0x243-0x244 (1)
0x240|            02                                 |    .           |      [16]: 2 transition_type 0x244-0x245 (1)
0x240|               03                              |     .          |      [17]: 3 transition_type 0x245-0x246 (1)
0x240|                  02                           |      .         |      [18]: 2 transition_type 0x246-0x247 (1)
0x240|                     03                        |       .        |      [19]: 3 transition_type 0x247-0x248 (1)
0x240|                        02                     |        .       |      [20]: 2 transition_type 0x248-0x249 (1)
0x240|                           03                  |         .      |      [21]: 3 transition_type 0x249-0x24a (1)
0x240|                              02               |          .     |      [22]: 2 transition_type 0x24a-0x24b (1)
0x240|                                 03            |           .    |      [23]: 3 transition_type 0x24b-0x24c (1)
0x240|                                    02         |            .   |      [24]: 2 transition_type 0x24c-0x24d (1)
0x240|                                       03      |             .  |      [25]: 3 transition_type 0x24d-0x24e (1)
0x240|                                          02   |              . |      [26]: 2 transition_type 0x24e-0x24f (1)
0x240|                                             03|               .|      [27]: 3 transition_type 0x24f-0x250 (1)
0x250|02                                             |.               |      [28]: 2 transition_type 0x250-0x251 (1)
0x250|   03                                          | .              |      [29]: 3 transition_type 0x251-0x252 (1)
0x250|      02                                       |  .             |      [30]: 2 transition_type 0x252-0x253 (1)
0x250|         03                                    |   .            |      [31]: 3 transition_type 0x253-0x254 (1)
0x250|            02                                 |    .           |      [32]: 2 transition_type 0x254-0x255 (1)
0x250|               03                              |     .          |      [33]: 3 transition_type 0x255-0x256 (1)
0x250|                  02                           |      .         |      [34]: 2 transition_type 0x256-0x257 (1)
0x250|                     03                        |       .        |      [35]: 3 transition_type 0x257-0x258 (1)
0x250|                        02                     |        .       |      [36]: 2 transition_type 0x258-0x259 (1)
0x250|                           03                  |         .      |      [37]: 3 transition_type 0x259-0x25a (1)
0x250|                              02               |          .     |      [38]: 2 transition_type 0x25a-0x25b (1)
0x250|                                 03            |           .    |      [39]: 3 transition_type 0x25b-0x25c (1)
0x250|                                    02         |            .   |      [40]: 2 transition_type 0x25c-0x25d (1)
0x250|                                       03      |             .  |      [41]: 3 transition_type 0x25d-0x25e (1)
0x250|                                          02   |              . |      [42]: 2 transition_type 0x25e-0x25f (1)
0x250|                                             03|               .|      [43]: 3 transition_type 0x25f-0x260 (1)
0x260|02                                             |.               |      [44]: 2 transition_type 0x260-0x261 (1)
0x260|   03                                          | .              |      [45]: 3 transition_type 0x261-0x262 (1)
0x260|      02                                       |  .             |      [46]: 2 transition_type 0x262-0x263 (1)
0x260|         03                                    |   .            |      [47]: 3 transition_type 0x263-0x264 (1)
0x260|            02                                 |    .           |      [48]: 2 transition_type 0x264-0x265 (1)
0x260|               03                              |     .          |      [49]: 3 transition_type 0x265-0x266 (1)
0x260|                  02                           |      .         |      [50]: 2 transition_type 0x266-0x267 (1)
0x260|                     03                        |       .        |      [51]: 3 transition_type 0x267-0x268 (1)
0x260|                        02                     |        .       |      [52]: 2 transition_type 0x268-0x269 (1)
0x260|                           03                  |         .      |      [53]: 3 transition_type 0x269-0x26a (1)
0x260|                              02               |          .     |      [54]: 2 transition_type 0x26a-0x26b (1)
0x260|                                 03            |           .    |      [55]: 3 transition_type 0x26b-0x26c (1)
0x260|                                    02         |            .   |      [56]: 2 transition_type 0x26c-0x26d (1)
0x260|                                       03      |             .  |      [57]: 3 transition_type 0x26d-0x26e (1)
0x260|                                          02   |              . |      [58]: 2 transition_type 0x26e-0x26f (1)
0x260|                                             03|               .|      [59]: 3 transition_type 0x26f-0x270 (1)
0x270|02                                             |.               |      [60]: 2 transition_type 0x270-0x271 (1)
0x270|   03                                          | .              |      [61]: 3 transition_type 0x271-0x272 (1)
0x270|      02                                       |  .             |      [62]: 2 transition_type 0x272-0x273 (1)
0x270|         03                                    |   .            |      [63]: 3 transition_type 0x273-0x274 (1)
0x270|            02                                 |    .           |      [64]: 2 transition_type 0x274-0x275 (1)
0x270|               03                              |     .          |      [65]: 3 transition_type 0x275-0x276 (1)
0x270|                  02                           |      .         |      [66]: 2 transition_type 0x276-0x277 (1)
0x270|                     03                        |       .        |      [67]: 3 transition_type 0x277-0x278 (1)
0x270|                        02                     |        .       |      [68]: 2 transition_type 0x278-0x279 (1)
0x270|                           03                  |         .      |      [69]: 3 transition_type 0x279-0x27a (1)
0x270|                              02               |          .     |      [70]: 2 transition_type 0x27a-0x27b (1)
0x270|                                 03            |           .    |      [71]: 3 transition_type 0x27b-0x27c (1)
0x270|                                    02         |            .   |      [72]: 2 transition_type 0x27c-0x27d (1)
0x270|                                       03      |             .  |      [73]: 3 transition_type 0x27d-0x27e (1)
0x270|                                          02   |              . |      [74]: 2 transition_type 0x27e-0x27f (1)
0x270|                                             03|               .|      [75]: 3 transition_type 0x27f-0x280 (1)
0x280|02                                             |.               |      [76]: 2 transition_type 0x280-0x281 (1)
0x280|   03                                          | .              |      [77]: 3 transition_type 0x281-0x282 (1)
0x280|      02                                       |  .             |      [78]: 2 transition_type 0x282-0x283 (1)
0x280|         03                                    |   .            |      [79]: 3 transition_type 0x283-0x284 (1)
0x280|            02                                 |    .           |      [80]: 2 transition_type 0x284-0x285 (1)
0x280|               03                              |     .          |      [81]: 3 transition_type 0x285-0x286 (1)
0x280|                  02                           |      .         |      [82]: 2 transition_type 0x286-0x287 (1)
0x280|                     03                        |       .        |      [83]: 3 transition_type 0x287-0x288 (1)
0x280|                        02                     |        .       |      [84]: 2 transition_type 0x288-0x289 (1)
0x280|                           03                  |         .      |      [85]: 3 transition_type 0x289-0x28a (1)
0x280|                              02               |          .     |      [86]: 2 transition_type 0x28a-0x28b (1)
0x280|                                 03            |           .    |      [87]: 3 transition_type 0x28b-0x28c (1)
0x280|                                    02         |            .   |      [88]: 2 transition_type 0x28c-0x28d (1)
0x280|                                       03      |             .  |      [89]: 3 transition_type 0x28d-0x28e (1)
0x280|                                          02   |              . |      [90]: 2 transition_type 0x28e-0x28f (1)
0x280|                                             03|               .|      [91]: 3 transition_type 0x28f-0x290 (1)
0x290|02                                             |.               |      [92]: 2 transition_type 0x290-0x291 (1)
0x290|   03                                          | .              |      [93]: 3 transition_type 0x291-0x292 (1)
0x290|      02                                       |  .             |      [94]: 2 transition_type 0x292-0x293 (1)
0x290|         03                                    |   .            |      [95]: 3 transition_type 0x293-0x294 (1)
0x290|            02                                 |    .           |      [96]: 2 transition_type 0x294-0x295 (1)
0x290|               03                              |     .          |      [97]: 3 transition_type 0x295-0x296 (1)
0x290|                  02                           |      .         |      [98]: 2 transition_type 0x296-0x297 (1)
0x290|                     03                        |       .        |      [99]: 3 transition_type 0x297-0x298 (1)
0x290|                        02                     |        .       |      [100]: 2 transition_type 0x298-0x299 (1)
0x290|                           03                  |         .      |      [101]: 3 transition_type 0x299-0x29a (1)
0x290|                              02               |          .     |      [102]: 2 transition_type 0x29a-0x29b (1)
0x290|                                 03            |           .    |      [103]: 3 transition_type 0x29b-0x29c (1)
0x290|                                    02         |            .   |      [104]: 2 transition_type 0x29c-0x29d (1)
0x290|                                       03      |             .  |      [105]: 3 transition_type 0x29d-0x29e (1)
0x290|                                          02   |              . |      [106]: 2 transition_type 0x29e-0x29f (1)
0x290|                                             03|               .|      [107]: 3 transition_type 0x29f-0x2a0 (1)
0x2a0|02                                             |.               |      [108]: 2 transition_type 0x2a0-0x2a1 (1)
0x2a0|   03                                          | .              |      [109]: 3 transition_type 0x2a1-0x2a2 (1)
0x2a0|      02                                       |  .             |      [110]: 2 transition_type 0x2a2-0x2a3 (1)
0x2a0|         03                                    |   .            |      [111]: 3 transition_type 0x2a3-0x2a4 (1)
0x2a0|            02                                 |    .           |      [112]: 2 transition_type 0x2a4-0x2a5 (1)
0x2a0|               03                              |     .          |      [113]: 3 transition_type 0x2a5-0x2a6 (1)
0x2a0|                  02                           |      .         |      [114]: 2 transition_type 0x2a6-0x2a7 (1)
0x2a0|                     03                        |       .        |      [115]: 3 transition_type 0x2a7-0x2a8 (1)
0x2a0|                        02                     |        .       |      [116]: 2 transition_type 0x2a8-0x2a9 (1)
0x2a0|                           03                  |         .      |      [117]: 3 transition_type 0x2a9-0x2aa (1)
0x2a0|                              02               |          .     |      [118]: 2 transition_type 0x2aa-0x2ab (1)
0x2a0|                                 03            |           .    |      [119]: 3 transition_type 0x2ab-0x2ac (1)
0x2a0|                                    02         |            .   |      [120]: 2 transition_type 0x2ac-0x2ad (1)
0x2a0|                                       03      |             .  |      [121]: 3 transition_type 0x2ad-0x2ae (1)
0x2a0|                                          02   |              . |      [122]: 2 transition_type 0x2ae-0x2af (1)
0x2a0|                                             03|               .|      [123]: 3 transition_type 0x2af-0x2b0 (1)
0x2b0|02                                             |.               |      [124]: 2 transition_type 0x2b0-0x2b1 (1)
0x2b0|   03                                          | .              |      [125]: 3 transition_type 0x2b1-0x2b2 (1)
0x2b0|      02                                       |  .             |      [126]: 2 transition_type 0x2b2-0x2b3 (1)
0x2b0|         03                                    |   .            |      [127]: 3 transition_type 0x2b3-0x2b4 (1)
0x2b0|            02                                 |    .           |      [128]: 2 transition_type 0x2b4-0x2b5 (1)
0x2b0|               02                              |     .          |      [129]: 2 transition_type 0x2b5-0x2b6 (1)
     |                                               |                |    local_time_type_records[0:5]: 0x2b6-0x2d4 (30)
     |                                               |                |      [0]{}: local_time_type 0x2b6-0x2bc (6)
0x2b0|                  00 00 ab fc                  |      ....      |        utoff: 44028 (valid) 0x2b6-0x2ba (4)
0x2b0|                              00               |          .     |        dst: 0 (valid) 0x2ba-0x2bb (1)
0x2b0|                                 00            |           .    |        idx: 0 (valid) 0x2bb-0x2bc (1)
     |                                               |                |      [1]{}: local_time_type 0x2bc-0x2c2 (6)
0x2b0|                                    00 00 ac 44|            ...D|        utoff: 44100 (valid) 0x2bc-0x2c0 (4)
0x2c0|00                                             |.               |        dst: 0 (valid) 0x2c0-0x2c1 (1)
0x2c0|   04                                          | .              |        idx: 4 (valid) 0x2c1-0x2c2 (1)
     |                                               |                |      [2]{}: local_time_type 0x2c2-0x2c8 (6)
0x2c0|      00 00 c1 5c                              |  ...\          |        utoff: 49500 (valid) 0x2c2-0x2c6 (4)
0x2c0|                  01                           |      .         |        dst: 1 (valid) 0x2c6-0x2c7 (1)
0x2c0|                     0a                        |       .        |        idx: 10 (valid) 0x2c7-0x2c8 (1)
     |                                               |                |      [3]{}: local_time_type 0x2c8-0x2ce (6)
0x2c0|                        00 00 b3 4c            |        ...L    |        utoff: 45900 (valid) 0x2c8-0x2cc (4)
0x2c0|                                    00         |            .   |        dst: 0 (valid) 0x2cc-0x2cd (1)
0x2c0|                                       10      |             .  |        idx: 16 (valid) 0x2cd-0x2ce (1)
     |                                               |                |      [4]{}: local_time_type 0x2ce-0x2d4 (6)
0x2c0|                                          00 00|              ..|        utoff: 45900 (valid) 0x2ce-0x2d2 (4)
0x2d0|b3 4c                                          |.L              |
0x2d0|      00                                       |  .             |        dst: 0 (valid) 0x2d2-0x2d3 (1)
0x2d0|         10                                    |   .            |        idx: 16 (valid) 0x2d3-0x2d4 (1)
     |                                               |                |    time_zone_designations[0:4]: 0x2d4-0x2ea (22)
0x2d0|            4c 4d 54 00                        |    LMT.        |      [0]: "LMT" time_zone_designation 0x2d4-0x2d8 (4)
0x2d0|                        2b 31 32 31 35 00      |        +1215.  |      [1]: "+1215" time_zone_designation 0x2d8-0x2de (6)
0x2d0|                                          2b 31|              +1|      [2]: "+1345" time_zone_designation 0x2de-0x2e4 (6)
0x2e0|33 34 35 00                                    |345.            |
0x2e0|            2b 31 32 34 35 00                  |    +1245.      |      [3]: "+1245" time_zone_designation 0x2e4-0x2ea (6)
     |                                               |                |    leap_second_records[0:0]: 0x2ea-0x2ea (0)
     |                                               |                |    standard_wall_indicators[0:5]: 0x2ea-0x2ef (5)
0x2e0|                              00               |          .     |      [0]: 0 standard_wall_indicator (valid) 0x2ea-0x2eb (1)
0x2e0|                                 00            |           .    |      [1]: 0 standard_wall_indicator (valid) 0x2eb-0x2ec (1)
0x2e0|                                    01         |            .   |      [2]: 1 standard_wall_indicator (valid) 0x2ec-0x2ed (1)
0x2e0|                                       01      |             .  |      [3]: 1 standard_wall_indicator (valid) 0x2ed-0x2ee (1)
0x2e0|                                          00   |              . |      [4]: 0 standard_wall_indicator (valid) 0x2ee-0x2ef (1)
     |                                               |                |    ut_local_indicators[0:0]: 0x2ef-0x2ef (0)
     |                                               |                |  v2plusheader{}: 0x2ef-0x31b (44)
0x2e0|                                             54|               T|    magic: 0x545a6966 (valid) 0x2ef-0x2f3 (4)
0x2f0|5a 69 66                                       |Zif             |
0x2f0|         32                                    |   2            |    ver: "2" (0x32) (valid) 0x2f3-0x2f4 (1)
0x2f0|            00 00 00 00 00 00 00 00 00 00 00 00|    ............|    reserved: raw bits 0x2f4-0x303 (15)
0x300|00 00 00                                       |...             |
0x300|         00 00 00 00                           |   ....         |    isutcnt: 0 0x303-0x307 (4)
0x300|                     00 00 00 05               |       ....     |    isstdcnt: 5 0x307-0x30b (4)
0x300|                                 00 00 00 00   |           .... |    leapcnt: 0 0x30b-0x30f (4)
0x300|                                             00|               .|    timecnt: 130 0x30f-0x313 (4)
0x310|00 00 82                                       |...             |
0x310|         00 00 00 05                           |   ....         |    typecnt: 5 0x313-0x317 (4)
0x310|                     00 00 00 16               |       ....     |    charcnt: 22 0x317-0x31b (4)
     |                                               |                |  v2plusdatablock{}: 0x31b-0x7e6 (1227)
     |                                               |                |    transition_times[0:130]: 0x31b-0x72b (1040)
0x310|                                 ff ff ff ff 41|           ....A|      [0]: "1868-11-01T11:46:12Z" (-3192437628) transition_time 0x31b-0x323 (8)
0x320|b7 44 84                                       |.D.             |
0x320|         ff ff ff ff d2 da 96 bc               |   ........     |      [1]: "1945-12-31T11:45:00Z" (-757426500) transition_time 0x323-0x32b (8)
0x320|                                 00 00 00 00 09|           .....|      [2]: "1974-11-02T14:00:00Z" (152632800) transition_time 0x32b-0x333 (8)
0x330|18 fd e0                                       |...             |
0x330|         00 00 00 00 09 ac a5 e0               |   ........     |      [3]: "1975-02-22T14:00:00Z" (162309600) transition_time 0x333-0x33b (8)
0x330|                                 00 00 00 00 0a|           .....|      [4]: "1975-10-25T14:00:00Z" (183477600) transition_time 0x33b-0x343 (8)
0x340|ef a5 60                                       |..`             |
0x340|         00 00 00 00 0b 9e fc e0               |   ........     |      [5]: "1976-03-06T14:00:00Z" (194968800) transition_time 0x343-0x34b (8)
0x340|                                 00 00 00 00 0c|           .....|      [6]: "1976-10-30T14:00:00Z" (215532000) transition_time 0x34b-0x353 (8)
0x350|d8 c1 e0                                       |...             |
0x350|         00 00 00 00 0d 7e de e0               |   .....~..     |      [7]: "1977-03-05T14:00:00Z" (226418400) transition_time 0x353-0x35b (8)
0x350|                                 00 00 00 00 0e|           .....|      [8]: "1977-10-29T14:00:00Z" (246981600) transition_time 0x35b-0x363 (8)
0x360|b8 a3 e0                                       |...             |
0x360|         00 00 00 00 0f 5e c0 e0               |   .....^..     |      [9]: "1978-03-04T14:00:00Z" (257868000) transition_time 0x363-0x36b (8)
0x360|                                 00 00 00 00 10|           .....|      [10]: "1978-10-28T14:00:00Z" (278431200) transition_time 0x36b-0x373 (8)
0x370|98 85 e0                                       |...             |
0x370|         00 00 00 00 11 3e a2 e0               |   .....>..     |      [11]: "1979-03-03T14:00:00Z" (289317600) transition_time 0x373-0x37b (8)
0x370|                                 00 00 00 00 12|           .....|      [12]: "1979-10-27T14:00:00Z" (309880800) transition_time 0x37b-0x383 (8)
0x380|78 67 e0                                       |xg.             |
0x380|         00 00 00 00 13 1e 84 e0               |   ........     |      [13]: "1980-03-01T14:00:00Z" (320767200) transition_time 0x383-0x38b (8)
0x380|                                 00 00 00 00 14|           .....|      [14]: "1980-10-25T14:00:00Z" (341330400) transition_time 0x38b-0x393 (8)
0x390|58 49 e0                                       |XI.             |
0x390|         00 00 00 00 14 fe 66 e0               |   ......f.     |      [15]: "1981-02-28T14:00:00Z" (352216800) transition_time 0x393-0x39b (8)
0x390|                                 00 00 00 00 16|           .....|      [16]: "1981-10-24T14:00:00Z" (372780000) transition_time 0x39b-0x3a3 (8)
0x3a0|38 2b e0                                       |8+.             |
0x3a0|         00 00 00 00 16 e7 83 60               |   .......`     |      [17]: "1982-03-06T14:00:00Z" (384271200) transition_time 0x3a3-0x3ab (8)
0x3a0|                                 00 00 00 00 18|           .....|      [18]: "1982-10-30T14:00:00Z" (404834400) transition_time 0x3ab-0x3b3 (8)
0x3b0|21 48 60                                       |!H`             |
0x3b0|         00 00 00 00 18 c7 65 60               |   ......e`     |      [19]: "1983-03-05T14:00:00Z" (415720800) transition_time 0x3b3-0x3bb (8)
0x3b0|                                 00 00 00 00 1a|           .....|      [20]: "1983-10-29T14:00:00Z" (436284000) transition_time 0x3bb-0x3c3 (8)
0x3c0|01 2a 60                                       |.*`             |
0x3c0|         00 00 00 00 1a a7 47 60               |   ......G`     |      [21]: "1984-03-03T14:00:00Z" (447170400) transition_time 0x3c3-0x3cb (8)
0x3c0|                                 00 00 00 00 1b|           .....|      [22]: "1984-10-27T14:00:00Z" (467733600) transition_time 0x3cb-0x3d3 (8)
0x3d0|e1 0c 60                                       |..`             |
0x3d0|         00 00 00 00 1c 87 29 60               |   ......)`     |      [23]: "1985-03-02T14:00:00Z" (478620000) transition_time 0x3d3-0x3db (8)
0x3d0|                                 00 00 00 00 1d|           .....|      [24]: "1985-10-26T14:00:00Z" (499183200) transition_time 0x3db-0x3e3 (8)
0x3e0|c0 ee 60                                       |..`             |
0x3e0|         00 00 00 00 1e 67 0b 60               |   .....g.`     |      [25]: "1986-03-01T14:00:00Z" (510069600) transition_time 0x3e3-0x3eb (8)
0x3e0|                                 00 00 00 00 1f|           .....|      [26]: "1986-10-25T14:00:00Z" (530632800) transition_time 0x3eb-0x3f3 (8)
0x3f0|a0 d0 60                                       |..`             |
0x3f0|         00 00 00 00 20 46 ed 60               |   .... F.`     |      [27]: "1987-02-28T14:00:00Z" (541519200) transition_time 0x3f3-0x3fb (8)
0x3f0|                                 00 00 00 00 21|           ....!|      [28]: "1987-10-24T14:00:00Z" (562082400) transition_time 0x3fb-0x403 (8)
0x400|80 b2 60                                       |..`             |
0x400|         00 00 00 00 22 30 09 e0               |   ...."0..     |      [29]: "1988-03-05T14:00:00Z" (573573600) transition_time 0x403-0x40b (8)
0x400|                                 00 00 00 00 23|           ....#|      [30]: "1988-10-29T14:00:00Z" (594136800) transition_time 0x40b-0x413 (8)
0x410|69 ce e0                                       |i..             |
0x410|         00 00 00 00 24 0f eb e0               |   ....$...     |      [31]: "1989-03-04T14:00:00Z" (605023200) transition_time 0x413-0x41b (8)
0x410|                                 00 00 00 00 25|           ....%|      [32]: "1989-10-07T14:00:00Z" (623772000) transition_time 0x41b-0x423 (8)
0x420|2e 01 60                                       |..`             |
0x420|         00 00 00 00 26 02 42 e0               |   ....&.B.     |      [33]: "1990-03-17T14:00:00Z" (637682400) transition_time 0x423-0x42b (8)
0x420|                                 00 00 00 00 27|           ....'|      [34]: "1990-10-06T14:00:00Z" (655221600) transition_time 0x42b-0x433 (8)
0x430|0d e3 60                                       |..`             |
0x430|         00 00 00 00 27 e2 24 e0               |   ....'.$.     |      [35]: "1991-03-16T14:00:00Z" (669132000) transition_time 0x433-0x43b (8)
0x430|                                 00 00 00 00 28|           ....(|      [36]: "1991-10-05T14:00:00Z" (686671200) transition_time 0x43b-0x443 (8)
0x440|ed c5 60                                       |..`             |
0x440|         00 00 00 00 29 c2 06 e0               |   ....)...     |      [37]: "1992-03-14T14:00:00Z" (700581600) transition_time 0x443-0x44b (8)
0x440|                                 00 00 00 00 2a|           ....*|      [38]: "1992-10-03T14:00:00Z" (718120800) transition_time 0x44b-0x453 (8)
0x450|cd a7 60                                       |..`             |
0x450|         00 00 00 00 2b ab 23 60               |   ....+.#`     |      [39]: "1993-03-20T14:00:00Z" (732636000) transition_time 0x453-0x45b (8)
0x450|                                 00 00 00 00 2c|           ....,|      [40]: "1993-10-02T14:00:00Z" (749570400) transition_time 0x45b-0x463 (8)
0x460|ad 89 60                                       |..`             |
0x460|         00 00 00 00 2d 8b 05 60               |   ....-..`     |      [41]: "1994-03-19T14:00:00Z" (764085600) transition_time 0x463-0x46b (8)
0x460|                                 00 00 00 00 2e|           .....|      [42]: "1994-10-01T14:00:00Z" (781020000) transition_time 0x46b-0x473 (8)
0x470|8d 6b 60                                       |.k`             |
0x470|         00 00 00 00 2f 6a e7 60               |   ..../j.`     |      [43]: "1995-03-18T14:00:00Z" (795535200) transition_time 0x473-0x47b (8)
0x470|                                 00 00 00 00 30|           ....0|      [44]: "1995-09-30T14:00:00Z" (812469600) transition_time 0x47b-0x483 (8)
0x480|6d 4d 60                                       |mM`             |
0x480|         00 00 00 00 31 4a c9 60               |   ....1J.`     |      [45]: "1996-03-16T14:00:00Z" (826984800) transition_time 0x483-0x48b (8)
0x480|                                 00 00 00 00 32|           ....2|      [46]: "1996-10-05T14:00:00Z" (844524000) transition_time 0x48b-0x493 (8)
0x490|56 69 e0                                       |Vi.             |
0x490|         00 00 00 00 33 2a ab 60               |   ....3*.`     |      [47]: "1997-03-15T14:00:00Z" (858434400) transition_time 0x493-0x49b (8)
0x490|                                 00 00 00 00 34|           ....4|      [48]: "1997-10-04T14:00:00Z" (875973600) transition_time 0x49b-0x4a3 (8)
0x4a0|36 4b e0                                       |6K.             |
0x4a0|         00 00 00 00 35 0a 8d 60               |   ....5..`     |      [49]: "1998-03-14T14:00:00Z" (889884000) transition_time 0x4a3-0x4ab (8)
0x4a0|                                 00 00 00 00 36|           ....6|      [50]: "1998-10-03T14:00:00Z" (907423200) transition_time 0x4ab-0x4b3 (8)
0x4b0|16 2d e0                                       |.-.             |
0x4b0|         00 00 00 00 36 f3 a9 e0               |   ....6...     |      [51]: "1999-03-20T14:00:00Z" (921938400) transition_time 0x4b3-0x4bb (8)
0x4b0|                                 00 00 00 00 37|           ....7|      [52]: "1999-10-02T14:00:00Z" (938872800) transition_time 0x4bb-0x4c3 (8)
0x4c0|f6 0f e0                                       |...             |
0x4c0|         00 00 00 00 38 d3 8b e0               |   ....8...     |      [53]: "2000-03-18T14:00:00Z" (953388000) transition_time 0x4c3-0x4cb (8)
0x4c0|                                 00 00 00 00 39|           ....9|      [54]: "2000-09-30T14:00:00Z" (970322400) transition_time 0x4cb-0x4d3 (8)
0x4d0|d5 f1 e0                                       |...             |
0x4d0|         00 00 00 00 3a b3 6d e0               |   ....:.m.     |      [55]: "2001-03-17T14:00:00Z" (984837600) transition_time 0x4d3-0x4db (8)
0x4d0|                                 00 00 00 00 3b|           ....;|      [56]: "2001-10-06T14:00:00Z" (1002376800) transition_time 0x4db-0x4e3 (8)
0x4e0|bf 0e 60                                       |..`             |
0x4e0|         00 00 00 00 3c 93 4f e0               |   ....<.O.     |      [57]: "2002-03-16T14:00:00Z" (1016287200) transition_time 0x4e3-0x4eb (8)
0x4e0|                                 00 00 00 00 3d|           ....=|      [58]: "2002-10-05T14:00:00Z" (1033826400) transition_time 0x4eb-0x4f3 (8)
0x4f0|9e f0 60                                       |..`             |
0x4f0|         00 00 00 00 3e 73 31 e0               |   ....>s1.     |      [59]: "2003-03-15T14:00:00Z" (1047736800) transition_time 0x4f3-0x4fb (8)
0x4f0|                                 00 00 00 00 3f|           ....?|      [60]: "2003-10-04T14:00:00Z" (1065276000) transition_time 0x4fb-0x503 (8)
0x500|7e d2 60                                       |~.`             |
0x500|         00 00 00 00 40 5c 4e 60               |   ....@\N`     |      [61]: "2004-03-20T14:00:00Z" (1079791200) transition_time 0x503-0x50b (8)
0x500|                                 00 00 00 00 41|           ....A|      [62]: "2004-10-02T14:00:00Z" (1096725600) transition_time 0x50b-0x513 (8)
0x510|5e b4 60                                       |^.`             |
0x510|         00 00 00 00 42 3c 30 60               |   ....B<0`     |      [63]: "2005-03-19T14:00:00Z" (1111240800) transition_time 0x513-0x51b (8)
0x510|                                 00 00 00 00 43|           ....C|      [64]: "2005-10-01T14:00:00Z" (1128175200) transition_time 0x51b-0x523 (8)
0x520|3e 96 60                                       |>.`             |
0x520|         00 00 00 00 44 1c 12 60               |   ....D..`     |      [65]: "2006-03-18T14:00:00Z" (1142690400) transition_time 0x523-0x52b (8)
0x520|                                 00 00 00 00 45|           ....E|      [66]: "2006-09-30T14:00:00Z" (1159624800) transition_time 0x52b-0x533 (8)
0x530|1e 78 60                                       |.x`             |
0x530|         00 00 00 00 45 fb f4 60               |   ....E..`     |      [67]: "2007-03-17T14:00:00Z" (1174140000) transition_time 0x533-0x53b (8)
0x530|                                 00 00 00 00 46|           ....F|      [68]: "2007-09-29T14:00:00Z" (1191074400) transition_time 0x53b-0x543 (8)
0x540|fe 5a 60                                       |.Z`             |
0x540|         00 00 00 00 47 f7 85 e0               |   ....G...     |      [69]: "2008-04-05T14:00:00Z" (1207404000) transition_time 0x543-0x54b (8)
0x540|                                 00 00 00 00 48|           ....H|      [70]: "2008-09-27T14:00:00Z" (1222524000) transition_time 0x54b-0x553 (8)
0x550|de 3c 60                                       |.<`             |
0x550|         00 00 00 00 49 d7 67 e0               |   ....I.g.     |      [71]: "2009-04-04T14:00:00Z" (1238853600) transition_time 0x553-0x55b (8)
0x550|                                 00 00 00 00 4a|           ....J|      [72]: "2009-09-26T14:00:00Z" (1253973600) transition_time 0x55b-0x563 (8)
0x560|be 1e 60                                       |..`             |
0x560|         00 00 00 00 4b b7 49 e0               |   ....K.I.     |      [73]: "2010-04-03T14:00:00Z" (1270303200) transition_time 0x563-0x56b (8)
0x560|                                 00 00 00 00 4c|           ....L|      [74]: "2010-09-25T14:00:00Z" (1285423200) transition_time 0x56b-0x573 (8)
0x570|9e 00 60                                       |..`             |
0x570|         00 00 00 00 4d 97 2b e0               |   ....M.+.     |      [75]: "2011-04-02T14:00:00Z" (1301752800) transition_time 0x573-0x57b (8)
0x570|                                 00 00 00 00 4e|           ....N|      [76]: "2011-09-24T14:00:00Z" (1316872800) transition_time 0x57b-0x583 (8)
0x580|7d e2 60                                       |}.`             |
0x580|         00 00 00 00 4f 77 0d e0               |   ....Ow..     |      [77]: "2012-03-31T14:00:00Z" (1333202400) transition_time 0x583-0x58b (8)
0x580|                                 00 00 00 00 50|           ....P|      [78]: "2012-09-29T14:00:00Z" (1348927200) transition_time 0x58b-0x593 (8)
0x590|66 fe e0                                       |f..             |
0x590|         00 00 00 00 51 60 2a 60               |   ....Q`*`     |      [79]: "2013-04-06T14:00:00Z" (1365256800) transition_time 0x593-0x59b (8)
0x590|                                 00 00 00 00 52|           ....R|      [80]: "2013-09-28T14:00:00Z" (1380376800) transition_time 0x59b-0x5a3 (8)
0x5a0|46 e0 e0                                       |F..             |
0x5a0|         00 00 00 00 53 40 0c 60               |   ....S@.`     |      [81]: "2014-04-05T14:00:00Z" (1396706400) transition_time 0x5a3-0x5ab (8)
0x5a0|                                 00 00 00 00 54|           ....T|      [82]: "2014-09-27T14:00:00Z" (1411826400) transition_time 0x5ab-0x5b3 (8)
0x5b0|26 c2 e0                                       |&..             |
0x5b0|         00 00 00 00 55 1f ee 60               |   ....U..`     |      [83]: "2015-04-04T14:00:00Z" (1428156000) transition_time 0x5b3-0x5bb (8)
0x5b0|                                 00 00 00 00 56|           ....V|      [84]: "2015-09-26T14:00:00Z" (1443276000) transition_time 0x5bb-0x5c3 (8)
0x5c0|06 a4 e0                                       |...             |
0x5c0|         00 00 00 00 56 ff d0 60               |   ....V..`     |      [85]: "2016-04-02T14:00:00Z" (1459605600) transition_time 0x5c3-0x5cb (8)
0x5c0|                                 00 00 00 00 57|           ....W|      [86]: "2016-09-24T14:00:00Z" (1474725600) transition_time 0x5cb-0x5d3 (8)
0x5d0|e6 86 e0                                       |...             |
0x5d0|         00 00 00 00 58 df b2 60               |   ....X..`     |      [87]: "2017-04-01T14:00:00Z" (1491055200) transition_time 0x5d3-0x5db (8)
0x5d0|                                 00 00 00 00 59|           ....Y|      [88]: "2017-09-23T14:00:00Z" (1506175200) transition_time 0x5db-0x5e3 (8)
0x5e0|c6 68 e0                                       |.h.             |
0x5e0|         00 00 00 00 5a bf 94 60               |   ....Z..`     |      [89]: "2018-03-31T14:00:00Z" (1522504800) transition_time 0x5e3-0x5eb (8)
0x5e0|                                 00 00 00 00 5b|           ....[|      [90]: "2018-09-29T14:00:00Z" (1538229600) transition_time 0x5eb-0x5f3 (8)
0x5f0|af 85 60                                       |..`             |
0x5f0|         00 00 00 00 5c a8 b0 e0               |   ....\...     |      [91]: "2019-04-06T14:00:00Z" (1554559200) transition_time 0x5f3-0x5fb (8)
0x5f0|                                 00 00 00 00 5d|           ....]|      [92]: "2019-09-28T14:00:00Z" (1569679200) transition_time 0x5fb-0x603 (8)
0x600|8f 67 60                                       |.g`             |
0x600|         00 00 00 00 5e 88 92 e0               |   ....^...     |      [93]: "2020-04-04T14:00:00Z" (1586008800) transition_time 0x603-0x60b (8)
0x600|                                 00 00 00 00 5f|           ...._|      [94]: "2020-09-26T14:00:00Z" (1601128800) transition_time 0x60b-0x613 (8)
0x610|6f 49 60                                       |oI`             |
0x610|         00 00 00 00 60 68 74 e0               |   ....`ht.     |      [95]: "2021-04-03T14:00:00Z" (1617458400) transition_time 0x613-0x61b (8)
0x610|                                 00 00 00 00 61|           ....a|      [96]: "2021-09-25T14:00:00Z" (1632578400) transition_time 0x61b-0x623 (8)
0x620|4f 2b 60                                       |O+`             |
0x620|         00 00 00 00 62 48 56 e0               |   ....bHV.     |      [97]: "2022-04-02T14:00:00Z" (1648908000) transition_time 0x623-0x62b (8)
0x620|                                 00 00 00 00 63|           ....c|      [98]: "2022-09-24T14:00:00Z" (1664028000) transition_time 0x62b-0x633 (8)
0x630|2f 0d 60                                       |/.`             |
0x630|         00 00 00 00 64 28 38 e0               |   ....d(8.     |      [99]: "2023-04-01T14:00:00Z" (1680357600) transition_time 0x633-0x63b (8)
0x630|                                 00 00 00 00 65|           ....e|      [100]: "2023-09-23T14:00:00Z" (1695477600) transition_time 0x63b-0x643 (8)
0x640|0e ef 60                                       |..`             |
0x640|         00 00 00 00 66 11 55 60               |   ....f.U`     |      [101]: "2024-04-06T14:00:00Z" (1712412000) transition_time 0x643-0x64b (8)
0x640|                                 00 00 00 00 66|           ....f|      [102]: "2024-09-28T14:00:00Z" (1727532000) transition_time 0x64b-0x653 (8)
0x650|f8 0b e0                                       |...             |
0x650|         00 00 00 00 67 f1 37 60               |   ....g.7`     |      [103]: "2025-04-05T14:00:00Z" (1743861600) transition_time 0x653-0x65b (8)
0x650|                                 00 00 00 00 68|           ....h|      [104]: "2025-09-27T14:00:00Z" (1758981600) transition_time 0x65b-0x663 (8)
0x660|d7 ed e0                                       |...             |
0x660|         00 00 00 00 69 d1 19 60               |   ....i..`     |      [105]: "2026-04-04T14:00:00Z" (1775311200) transition_time 0x663-0x66b (8)
0x660|                                 00 00 00 00 6a|           ....j|      [106]: "2026-09-26T14:00:00Z" (1790431200) transition_time 0x66b-0x673 (8)
0x670|b7 cf e0                                       |...             |
0x670|         00 00 00 00 6b b0 fb 60               |   ....k..`     |      [107]: "2027-04-03T14:00:00Z" (1806760800) transition_time 0x673-0x67b (8)
0x670|                                 00 00 00 00 6c|           ....l|      [108]: "2027-09-25T14:00:00Z" (1821880800) transition_time 0x67b-0x683 (8)
0x680|97 b1 e0                                       |...             |
0x680|         00 00 00 00 6d 90 dd 60               |   ....m..`     |      [109]: "2028-04-01T14:00:00Z" (1838210400) transition_time 0x683-0x68b (8)
0x680|                                 00 00 00 00 6e|           ....n|      [110]: "2028-09-23T14:00:00Z" (1853330400) transition_time 0x68b-0x693 (8)
0x690|77 93 e0                                       |w..             |
0x690|         00 00 00 00 6f 70 bf 60               |   ....op.`     |      [111]: "2029-03-31T14:00:00Z" (1869660000) transition_time 0x693-0x69b (8)
0x690|                                 00 00 00 00 70|           ....p|      [112]: "2029-09-29T14:00:00Z" (1885384800) transition_time 0x69b-0x6a3 (8)
0x6a0|60 b0 60                                       |`.`             |
0x6a0|         00 00 00 00 71 59 db e0               |   ....qY..     |      [113]: "2030-04-06T14:00:00Z" (1901714400) transition_time 0x6a3-0x6ab (8)
0x6a0|                                 00 00 00 00 72|           ....r|      [114]: "2030-09-28T14:00:00Z" (1916834400) transition_time 0x6ab-0x6b3 (8)
0x6b0|40 92 60                                       |@.`             |
0x6b0|         00 00 00 00 73 39 bd e0               |   ....s9..     |      [115]: "2031-04-05T14:00:00Z" (1933164000) transition_time 0x6b3-0x6bb (8)
0x6b0|                                 00 00 00 00 74|           ....t|      [116]: "2031-09-27T14:00:00Z" (1948284000) transition_time 0x6bb-0x6c3 (8)
0x6c0|20 74 60                                       | t`             |
0x6c0|         00 00 00 00 75 19 9f e0               |   ....u...     |      [117]: "2032-04-03T14:00:00Z" (1964613600) transition_time 0x6c3-0x6cb (8)
0x6c0|                                 00 00 00 00 76|           ....v|      [118]: "2032-09-25T14:00:00Z" (1979733600) transition_time 0x6cb-0x6d3 (8)
0x6d0|00 56 60                                       |.V`             |
0x6d0|         00 00 00 00 76 f9 81 e0               |   ....v...     |      [119]: "2033-04-02T14:00:00Z" (1996063200) transition_time 0x6d3-0x6db (8)
0x6d0|                                 00 00 00 00 77|           ....w|      [120]: "2033-09-24T14:00:00Z" (2011183200) transition_time 0x6db-0x6e3 (8)
0x6e0|e0 38 60                                       |.8`             |
0x6e0|         00 00 00 00 78 d9 63 e0               |   ....x.c.     |      [121]: "2034-04-01T14:00:00Z" (2027512800) transition_time 0x6e3-0x6eb (8)
0x6e0|                                 00 00 00 00 79|           ....y|      [122]: "2034-09-23T14:00:00Z" (2042632800) transition_time 0x6eb-0x6f3 (8)
0x6f0|c0 1a 60                                       |..`             |
0x6f0|         00 00 00 00 7a b9 45 e0               |   ....z.E.     |      [123]: "2035-03-31T14:00:00Z" (2058962400) transition_time 0x6f3-0x6fb (8)
0x6f0|                                 00 00 00 00 7b|           ....{|      [124]: "2035-09-29T14:00:00Z" (2074687200) transition_time 0x6fb-0x703 (8)
0x700|a9 36 e0                                       |.6.             |
0x700|         00 00 00 00 7c a2 62 60               |   ....|.b`     |      [125]: "2036-04-05T14:00:00Z" (2091016800) transition_time 0x703-0x70b (8)
0x700|                                 00 00 00 00 7d|           ....}|      [126]: "2036-09-27T14:00:00Z" (2106136800) transition_time 0x70b-0x713 (8)
0x710|89 18 e0                                       |...             |
0x710|         00 00 00 00 7e 82 44 60               |   ....~.D`     |      [127]: "2037-04-04T14:00:00Z" (2122466400) transition_time 0x713-0x71b (8)
0x710|                                 00 00 00 00 7f|           .....|      [128]: "2037-09-26T14:00:00Z" (2137586400) transition_time 0x71b-0x723 (8)
0x720|68 fa e0                                       |h..             |
0x720|         00 00 00 00 7f ff ff ff               |   ........     |      [129]: "2038-01-19T03:14:07Z" (2147483647) transition_time 0x723-0x72b (8)
     |                                               |                |    transition_types[0:130]: 0x72b-0x7ad (130)
0x720|                                 01            |           .    |      [0]: 1 transition_type 0x72b-0x72c (1)
0x720|                                    04         |            .   |      [1]: 4 transition_type 0x72c-0x72d (1)
0x720|                                       02      |             .  |      [2]: 2 transition_type 0x72d-0x72e (1)
0x720|                                          03   |              . |      [3]: 3 transition_type 0x72e-0x72f (1)
0x720|                                             02|               .|      [4]: 2 transition_type 0x72f-0x730 (1)
0x730|03                                             |.               |      [5]: 3 transition_type 0x730-0x731 (1)
0x730|   02                                          | .              |      [6]: 2 transition_type 0x731-0x732 (1)
0x730|      03                                       |  .             |      [7]: 3 transition_type 0x732-0x733 (1)
0x730|         02                                    |   .            |      [8]: 2 transition_type 0x733-0x734 (1)
0x730|            03                                 |    .           |      [9]: 3 transition_type 0x734-0x735 (1)
0x730|               02                              |     .          |      [10]: 2 transition_type 0x735-0x736 (1)
0x730|                  03                           |      .         |      [11]: 3 transition_type 0x736-0x737 (1)
0x730|                     02                        |       .        |      [12]: 2 transition_type 0x737-0x738 (1)
0x730|                        03                     |        .       |      [13]: 3 transition_type 0x738-0x739 (1)
0x730|                           02                  |         .      |      [14]: 2 transition_type 0x739-0x73a (1)
0x730|                              03               |          .     |      [15]: 3 transition_type 0x73a-0x73b (1)
0x730|                                 02            |           .    |      [16]: 2 transition_type 0x73b-0x73c (1)
0x730|                                    03         |            .   |      [17]: 3 transition_type 0x73c-0x73d (1)
0x730|                                       02      |             .  |      [18]: 2 transition_type 0x73d-0x73e (1)
0x730|                                          03   |              . |      [19]: 3 transition_type 0x73e-0x73f (1)
0x730|                                             02|               .|      [20]: 2 transition_type 0x73f-0x740 (1)
0x740|03                                             |.               |      [21]: 3 transition_type 0x740-0x741 (1)
0x740|   02                                          | .              |      [22]: 2 transition_type 0x741-0x742 (1)
0x740|      03                                       |  .             |      [23]: 3 transition_type 0x742-0x743 (1)
0x740|         02                                    |   .            |      [24]: 2 transition_type 0x743-0x744 (1)
0x740|            03                                 |    .           |      [25]: 3 transition_type 0x744-0x745 (1)
0x740|               02                              |     .          |      [26]: 2 transition_type 0x745-0x746 (1)
0x740|                  03                           |      .         |      [27]: 3 transition_type 0x746-0x747 (1)
0x740|                     02                        |       .        |      [28]: 2 transition_type 0x747-0x748 (1)
0x740|                        03                     |        .       |      [29]: 3 transition_type 0x748-0x749 (1)
0x740|                           02                  |         .      |      [30]: 2 transition_type 0x749-0x74a (1)
0x740|                              03               |          .     |      [31]: 3 transition_type 0x74a-0x74b (1)
0x740|                                 02            |           .    |      [32]: 2 transition_type 0x74b-0x74c (1)
0x740|                                    03         |            .   |      [33]: 3 transition_type 0x74c-0x74d (1)
0x740|                                       02      |             .  |      [34]: 2 transition_type 0x74d-0x74e (1)
0x740|                                          03   |              . |      [35]: 3 transition_type 0x74e-0x74f (1)
0x740|                                             02|               .|      [36]: 2 transition_type 0x74f-0x750 (1)
0x750|03                                             |.               |      [37]: 3 transition_type 0x750-0x751 (1)
0x750|   02                                          | .              |      [38]: 2 transition_type 0x751-0x752 (1)
0x750|      03                                       |  .             |      [39]: 3 transition_type 0x752-0x753 (1)
0x750|         02                                    |   .            |      [40]: 2 transition_type 0x753-0x754 (1)
0x750|            03                                 |    .           |      [41]: 3 transition_type 0x754-0x755 (1)
0x750|               02                              |     .          |      [42]: 2 transition_type 0x755-0x756 (1)
0x750|                  03                           |      .         |      [43]: 3 transition_type 0x756-0x757 (1)
0x750|                     02                        |       .        |      [44]: 2 transition_type 0x757-0x758 (1)
0x750|                        03                     |        .       |      [45]: 3 transition_type 0x758-0x759 (1)
0x750|                           02                  |         .      |      [46]: 2 transition_type 0x759-0x75a (1)
0x750|                              03               |          .     |      [47]: 3 transition_type 0x75a-0x75b (1)
0x750|                                 02            |           .    |      [48]: 2 transition_type 0x75b-0x75c (1)
0x750|                                    03         |            .   |      [49]: 3 transition_type 0x75c-0x75d (1)
0x750|                                       02      |             .  |      [50]: 2 transition_type 0x75d-0x75e (1)
0x750|                                          03   |              . |      [51]: 3 transition_type 0x75e-0x75f (1)
0x750|                                             02|               .|      [52]: 2 transition_type 0x75f-0x760 (1)
0x760|03                                             |.               |      [53]: 3 transition_type 0x760-0x761 (1)
0x760|   02                                          | .              |      [54]: 2 transition_type 0x761-0x762 (1)
0x760|      03                                       |  .             |      [55]: 3 transition_type 0x762-0x763 (1)
0x760|         02                                    |   .            |      [56]: 2 transition_type 0x763-0x764 (1)
0x760|            03                                 |    .           |      [57]: 3 transition_type 0x764-0x765 (1)
0x760|               02                              |     .          |      [58]: 2 transition_type 0x765-0x766 (1)
0x760|                  03                           |      .         |      [59]: 3 transition_type 0x766-0x767 (1)
0x760|                     02                        |       .        |      [60]: 2 transition_type 0x767-0x768 (1)
0x760|                        03                     |        .       |      [61]: 3 transition_type 0x768-0x769 (1)
0x760|                           02                  |         .      |      [62]: 2 transition_type 0x769-0x76a (1)
0x760|                              03               |          .     |      [63]: 3 transition_type 0x76a-0x76b (1)
0x760|                                 02            |           .    |      [64]: 2 transition_type 0x76b-0x76c (1)
0x760|                                    03         |            .   |      [65]: 3 transition_type 0x76c-0x76d (1)
0x760|                                       02      |             .  |      [66]: 2 transition_type 0x76d-0x76e (1)
0x760|                                          03   |              . |      [67]: 3 transition_type 0x76e-0x76f (1)
0x760|                                             02|               .|      [68]: 2 transition_type 0x76f-0x770 (1)
0x770|03                                             |.               |      [69]: 3 transition_type 0x770-0x771 (1)
0x770|   02                                          | .              |      [70]: 2 transition_type 0x771-0x772 (1)
0x770|      03                                       |  .             |      [71]: 3 transition_type 0x772-0x773 (1)
0x770|         02                                    |   .            |      [72]: 2 transition_type 0x773-0x774 (1)
0x770|            03                                 |    .           |      [73]: 3 transition_type 0x774-0x775 (1)
0x770|               02                              |     .          |      [74]: 2 transition_type 0x775-0x776 (1)
0x770|                  03                           |      .         |      [75]: 3 transition_type 0x776-0x777 (1)
0x770|                     02                        |       .        |      [76]: 2 transition_type 0x777-0x778 (1)
0x770|                        03                     |        .       |      [77]: 3 transition_type 0x778-0x779 (1)
0x770|                           02                  |         .      |      [78]: 2 transition_type 0x779-0x77a (1)
0x770|                              03               |          .     |      [79]: 3 transition_type 0x77a-0x77b (1)
0x770|                                 02            |           .    |      [80]: 2 transition_type 0x77b-0x77c (1)
0x770|                                    03         |            .   |      [81]: 3 transition_type 0x77c-0x77d (1)
0x770|                                       02      |             .  |      [82]: 2 transition_type 0x77d-0x77e (1)
0x770|                                          03   |              . |      [83]: 3 transition_type 0x77e-0x77f (1)
0x770|                                             02|               .|      [84]: 2 transition_type 0x77f-0x780 (1)
0x780|03                                             |.               |      [85]: 3 transition_type 0x780-0x781 (1)
0x780|   02                                          | .              |      [86]: 2 transition_type 0x781-0x782 (1)
0x780|      03                                       |  .             |      [87]: 3 transition_type 0x782-0x783 (1)
0x780|         02                                    |   .            |      [88]: 2 transition_type 0x783-0x784 (1)
0x780|            03                                 |    .           |      [89]: 3 transition_type 0x784-0x785 (1)
0x780|               02                              |     .          |      [90]: 2 transition_type 0x785-0x786 (1)
0x780|                  03                           |      .         |      [91]: 3 transition_type 0x786-0x787 (1)
0x780|                     02                        |       .        |      [92]: 2 transition_type 0x787-0x788 (1)
0x780|                        03                     |        .       |      [93]: 3 transition_type 0x788-0x789 (1)
0x780|                           02                  |         .      |      [94]: 2 transition_type 0x789-0x78a (1)
0x780|                              03               |          .     |      [95]: 3 transition_type 0x78a-0x78b (1)
0x780|                                 02            |           .    |      [96]: 2 transition_type 0x78b-0x78c (1)
0x780|                                    03         |            .   |      [97]: 3 transition_type 0x78c-0x78d (1)
0x780|                                       02      |             .  |      [98]: 2 transition_type 0x78d-0x78e (1)
0x780|                                          03   |              . |      [99]: 3 transition_type 0x78e-0x78f (1)
0x780|                                             02|               .|      [100]: 2 transition_type 0x78f-0x790 (1)
0x790|03                                             |.               |      [101]: 3 transition_type 0x790-0x791 (1)
0x790|   02                                          | .              |      [102]: 2 transition_type 0x791-0x792 (1)
0x790|      03                                       |  .             |      [103]: 3 transition_type 0x792-0x793 (1)
0x790|         02                                    |   .            |      [104]: 2 transition_type 0x793-0x794 (1)
0x790|            03                                 |    .           |      [105]: 3 transition_type 0x794-0x795 (1)
0x790|               02                              |     .          |      [106]: 2 transition_type 0x795-0x796 (1)
0x790|                  03                           |      .         |      [107]: 3 transition_type 0x796-0x797 (1)
0x790|                     02                        |       .        |      [108]: 2 transition_type 0x797-0x798 (1)
0x790|                        03                     |        .       |      [109]: 3 transition_type 0x798-0x799 (1)
0x790|                           02                  |         .      |      [110]: 2 transition_type 0x799-0x79a (1)
0x790|                              03               |          .     |      [111]: 3 transition_type 0x79a-0x79b (1)
0x790|                                 02            |           .    |      [112]: 2 transition_type 0x79b-0x79c (1)
0x790|                                    03         |            .   |      [113]: 3 transition_type 0x79c-0x79d (1)
0x790|                                       02      |             .  |      [114]: 2 transition_type 0x79d-0x79e (1)
0x790|                                          03   |              . |      [115]: 3 transition_type 0x79e-0x79f (1)
0x790|                                             02|               .|      [116]: 2 transition_type 0x79f-0x7a0 (1)
0x7a0|03                                             |.               |      [117]: 3 transition_type 0x7a0-0x7a1 (1)
0x7a0|   02                                          | .              |      [118]: 2 transition_type 0x7a1-0x7a2 (1)
0x7a0|      03                                       |  .             |      [119]: 3 transition_type 0x7a2-0x7a3 (1)
0x7a0|         02                                    |   .            |      [120]: 2 transition_type 0x7a3-0x7a4 (1)
0x7a0|            03                                 |    .           |      [121]: 3 transition_type 0x7a4-0x7a5 (1)
0x7a0|               02                              |     .          |      [122]: 2 transition_type 0x7a5-0x7a6 (1)
0x7a0|                  03                           |      .         |      [123]: 3 transition_type 0x7a6-0x7a7 (1)
0x7a0|                     02                        |       .        |      [124]: 2 transition_type 0x7a7-0x7a8 (1)
0x7a0|                        03                     |        .       |      [125]: 3 transition_type 0x7a8-0x7a9 (1)
0x7a0|                           02                  |         .      |      [126]: 2 transition_type 0x7a9-0x7aa (1)
0x7a0|                              03               |          .     |      [127]: 3 transition_type 0x7aa-0x7ab (1)
0x7a0|                                 02            |           .    |      [128]: 2 transition_type 0x7ab-0x7ac (1)
0x7a0|                                    02         |            .   |      [129]: 2 transition_type 0x7ac-0x7ad (1)
     |                                               |                |    local_time_type_records[0:5]: 0x7ad-0x7cb (30)
     |                                               |                |      [0]{}: local_time_type 0x7ad-0x7b3 (6)
0x7a0|                                       00 00 ab|             ...|        utoff: 44028 (valid) 0x7ad-0x7b1 (4)
0x7b0|fc                                             |.               |
0x7b0|   00                                          | .              |        dst: 0 (valid) 0x7b1-0x7b2 (1)
0x7b0|      00                                       |  .             |        idx: 0 (valid) 0x7b2-0x7b3 (1)
     |                                               |                |      [1]{}: local_time_type 0x7b3-0x7b9 (6)
0x7b0|         00 00 ac 44                           |   ...D         |        utoff: 44100 (valid) 0x7b3-0x7b7 (4)
0x7b0|                     00                        |       .        |        dst: 0 (valid) 0x7b7-0x7b8 (1)
0x7b0|                        04                     |        .       |        idx: 4 (valid) 0x7b8-0x7b9 (1)
     |                                               |                |      [2]{}: local_time_type 0x7b9-0x7bf (6)
0x7b0|                           00 00 c1 5c         |         ...\   |        utoff: 49500 (valid) 0x7b9-0x7bd (4)
0x7b0|                                       01      |             .  |        dst: 1 (valid) 0x7bd-0x7be (1)
0x7b0|                                          0a   |              . |        idx: 10 (valid) 0x7be-0x7bf (1)
     |                                               |                |      [3]{}: local_time_type 0x7bf-0x7c5 (6)
0x7b0|                                             00|               .|        utoff: 45900 (valid) 0x7bf-0x7c3 (4)
0x7c0|00 b3 4c                                       |..L             |
0x7c0|         00                                    |   .            |        dst: 0 (valid) 0x7c3-0x7c4 (1)
0x7c0|            10                                 |    .           |        idx: 16 (valid) 0x7c4-0x7c5 (1)
     |                                               |                |      [4]{}: local_time_type 0x7c5-0x7cb (6)
0x7c0|               00 00 b3 4c                     |     ...L       |        utoff: 45900 (valid) 0x7c5-0x7c9 (4)
0x7c0|                           00                  |         .      |        dst: 0 (valid) 0x7c9-0x7ca (1)
0x7c0|                              10               |          .     |        idx: 16 (valid) 0x7ca-0x7cb (1)
     |                                               |                |    time_zone_designations[0:4]: 0x7cb-0x7e1 (22)
0x7c0|                                 4c 4d 54 00   |           LMT. |      [0]: "LMT" time_zone_designation 0x7cb-0x7cf (4)
0x7c0|                                             2b|               +|      [1]: "+1215" time_zone_designation 0x7cf-0x7d5 (6)
0x7d0|31 32 31 35 00                                 |1215.           |
0x7d0|               2b 31 33 34 35 00               |     +1345.     |      [2]: "+1345" time_zone_designation 0x7d5-0x7db (6)
0x7d0|                                 2b 31 32 34 35|           +1245|      [3]: "+1245" time_zone_designation 0x7db-0x7e1 (6)
0x7e0|00                                             |.               |
     |                                               |                |    leap_second_records[0:0]: 0x7e1-0x7e1 (0)
     |                                               |                |    standard_wall_indicators[0:5]: 0x7e1-0x7e6 (5)
0x7e0|   00                                          | .              |      [0]: 0 standard_wall_indicator (valid) 0x7e1-0x7e2 (1)
0x7e0|      00                                       |  .             |      [1]: 0 standard_wall_indicator (valid) 0x7e2-0x7e3 (1)
0x7e0|         01                                    |   .            |      [2]: 1 standard_wall_indicator (valid) 0x7e3-0x7e4 (1)
0x7e0|            01                                 |    .           |      [3]: 1 standard_wall_indicator (valid) 0x7e4-0x7e5 (1)
0x7e0|               00                              |     .          |      [4]: 0 standard_wall_indicator (valid) 0x7e5-0x7e6 (1)
     |                                               |                |    ut_local_indicators[0:0]: 0x7e6-0x7e6 (0)
     |                                               |                |  footer{}: 0x7e6-0x814 (46)
0x7e0|                  0a                           |      .         |    nl1: 10 (valid) 0x7e6-0x7e7 (1)
0x7e0|                     3c 2b 31 32 34 35 3e 2d 31|       <+1245>-1|    tz_string: "<+1245>-12:45<+1345>,M9.5.0/2:45,M4.1.0/3:45" 0x7e7-0x813 (44)
0x7f0|32 3a 34 35 3c 2b 31 33 34 35 3e 2c 4d 39 2e 35|2:45<+1345>,M9.5|
*    |until 0x812.7 (44)                             |                |
0x810|         0a|                                   |   .|           |    nl2: 10 (valid) 0x813-0x814 (1)
