$ fq -d tzif dv Chicago
     |00 01 02 03 04 05 06 07 08 09 0a 0b 0c 0d 0e 0f|0123456789abcdef|.{}: Chicago (tzif) 0x0-0xe85.7 (3718)
     |                                               |                |  v1header{}: 0x0-0x2b.7 (44)
0x000|54 5a 69 66                                    |TZif            |    magic: 0x545a6966 (valid) 0x0-0x3.7 (4)
0x000|            32                                 |    2           |    ver: "2" (0x32) (valid) 0x4-0x4.7 (1)
0x000|               00 00 00 00 00 00 00 00 00 00 00|     ...........|    reserved: raw bits 0x5-0x13.7 (15)
0x010|00 00 00 00                                    |....            |
0x010|            00 00 00 08                        |    ....        |    isutcnt: 8 0x14-0x17.7 (4)
0x010|                        00 00 00 08            |        ....    |    isstdcnt: 8 0x18-0x1b.7 (4)
0x010|                                    00 00 00 1b|            ....|    leapcnt: 27 0x1c-0x1f.7 (4)
0x020|00 00 00 d0                                    |....            |    timecnt: 208 0x20-0x23.7 (4)
0x020|            00 00 00 08                        |    ....        |    typecnt: 8 0x24-0x27.7 (4)
0x020|                        00 00 00 18            |        ....    |    charcnt: 24 0x28-0x2b.7 (4)
     |                                               |                |  v1datablock{}: 0x2c-0x56b.7 (1344)
     |                                               |                |    transition_times[0:208]: 0x2c-0x36b.7 (832)
0x020|                                    80 00 00 00|            ....|      [0]: "1901-12-13T20:45:52Z" (-2147483648) transition_time 0x2c-0x2f.7 (4)
0x030|9e a6 2c 80                                    |..,.            |      [1]: "1918-03-31T08:00:00Z" (-1633276800) transition_time 0x30-0x33.7 (4)
0x030|            9f ba f9 70                        |    ...p        |      [2]: "1918-10-27T07:00:00Z" (-1615136400) transition_time 0x34-0x37.7 (4)
0x030|                        a0 86 0e 80            |        ....    |      [3]: "1919-03-30T08:00:00Z" (-1601827200) transition_time 0x38-0x3b.7 (4)
0x030|                                    a1 9a db 70|            ...p|      [4]: "1919-10-26T07:00:00Z" (-1583686800) transition_time 0x3c-0x3f.7 (4)
0x040|a2 cb 74 00                                    |..t.            |      [5]: "1920-06-13T08:00:00Z" (-1563724800) transition_time 0x40-0x43.7 (4)
0x040|            a3 83 f7 f0                        |    ....        |      [6]: "1920-10-31T07:00:00Z" (-1551632400) transition_time 0x44-0x47.7 (4)
0x040|                        a4 45 d2 80            |        .E..    |      [7]: "1921-03-27T08:00:00Z" (-1538928000) transition_time 0x48-0x4b.7 (4)
0x040|                                    a5 63 d9 f0|            .c..|      [8]: "1921-10-30T07:00:00Z" (-1520182800) transition_time 0x4c-0x4f.7 (4)
0x050|a6 53 d9 00                                    |.S..            |      [9]: "1922-04-30T08:00:00Z" (-1504454400) transition_time 0x50-0x53.7 (4)
0x050|            a7 15 97 70                        |    ...p        |      [10]: "1922-09-24T07:00:00Z" (-1491757200) transition_time 0x54-0x57.7 (4)
0x050|                        a8 33 bb 00            |        .3..    |      [11]: "1923-04-29T08:00:00Z" (-1473004800) transition_time 0x58-0x5b.7 (4)
0x050|                                    a8 fe b3 f0|            ....|      [12]: "1923-09-30T07:00:00Z" (-1459702800) transition_time 0x5c-0x5f.7 (4)
0x060|aa 13 9d 00                                    |....            |      [13]: "1924-04-27T08:00:00Z" (-1441555200) transition_time 0x60-0x63.7 (4)
0x060|            aa de 95 f0                        |    ....        |      [14]: "1924-09-28T07:00:00Z" (-1428253200) transition_time 0x64-0x67.7 (4)
0x060|                        ab f3 7f 00            |        ....    |      [15]: "1925-04-26T08:00:00Z" (-1410105600) transition_time 0x68-0x6b.7 (4)
0x060|                                    ac be 77 f0|            ..w.|      [16]: "1925-09-27T07:00:00Z" (-1396803600) transition_time 0x6c-0x6f.7 (4)
0x070|ad d3 61 00                                    |..a.            |      [17]: "1926-04-25T08:00:00Z" (-1378656000) transition_time 0x70-0x73.7 (4)
0x070|            ae 9e 59 f0                        |    ..Y.        |      [18]: "1926-09-26T07:00:00Z" (-1365354000) transition_time 0x74-0x77.7 (4)
0x070|                        af b3 43 00            |        ..C.    |      [19]: "1927-04-24T08:00:00Z" (-1347206400) transition_time 0x78-0x7b.7 (4)
0x070|                                    b0 7e 3b f0|            .~;.|      [20]: "1927-09-25T07:00:00Z" (-1333904400) transition_time 0x7c-0x7f.7 (4)
0x080|b1 9c 5f 80                                    |.._.            |      [21]: "1928-04-29T08:00:00Z" (-1315152000) transition_time 0x80-0x83.7 (4)
0x080|            b2 67 58 70                        |    .gXp        |      [22]: "1928-09-30T07:00:00Z" (-1301850000) transition_time 0x84-0x87.7 (4)
0x080|                        b3 7c 41 80            |        .|A.    |      [23]: "1929-04-28T08:00:00Z" (-1283702400) transition_time 0x88-0x8b.7 (4)
0x080|                                    b4 47 3a 70|            .G:p|      [24]: "1929-09-29T07:00:00Z" (-1270400400) transition_time 0x8c-0x8f.7 (4)
0x090|b5 5c 23 80                                    |.\#.            |      [25]: "1930-04-27T08:00:00Z" (-1252252800) transition_time 0x90-0x93.7 (4)
0x090|            b6 27 1c 70                        |    .'.p        |      [26]: "1930-09-28T07:00:00Z" (-1238950800) transition_time 0x94-0x97.7 (4)
0x090|                        b7 3c 05 80            |        .<..    |      [27]: "1931-04-26T08:00:00Z" (-1220803200) transition_time 0x98-0x9b.7 (4)
0x090|                                    b8 06 fe 70|            ...p|      [28]: "1931-09-27T07:00:00Z" (-1207501200) transition_time 0x9c-0x9f.7 (4)
0x0a0|b9 1b e7 80                                    |....            |      [29]: "1932-04-24T08:00:00Z" (-1189353600) transition_time 0xa0-0xa3.7 (4)
0x0a0|            b9 e6 e0 70                        |    ...p        |      [30]: "1932-09-25T07:00:00Z" (-1176051600) transition_time 0xa4-0xa7.7 (4)
0x0a0|                        bb 05 04 00            |        ....    |      [31]: "1933-04-30T08:00:00Z" (-1157299200) transition_time 0xa8-0xab.7 (4)
0x0a0|                                    bb c6 c2 70|            ...p|      [32]: "1933-09-24T07:00:00Z" (-1144602000) transition_time 0xac-0xaf.7 (4)
0x0b0|bc e4 e6 00                                    |....            |      [33]: "1934-04-29T08:00:00Z" (-1125849600) transition_time 0xb0-0xb3.7 (4)
0x0b0|            bd af de f0                        |    ....        |      [34]: "1934-09-30T07:00:00Z" (-1112547600) transition_time 0xb4-0xb7.7 (4)
0x0b0|                        be c4 c8 00            |        ....    |      [35]: "1935-04-28T08:00:00Z" (-1094400000) transition_time 0xb8-0xbb.7 (4)
0x0b0|                                    bf 8f c0 f0|            ....|      [36]: "1935-09-29T07:00:00Z" (-1081098000) transition_time 0xbc-0xbf.7 (4)
0x0c0|c0 5a d6 00                                    |.Z..            |      [37]: "1936-03-01T08:00:00Z" (-1067788800) transition_time 0xc0-0xc3.7 (4)
0x0c0|            c1 b0 3c 70                        |    ..<p        |      [38]: "1936-11-15T07:00:00Z" (-1045414800) transition_time 0xc4-0xc7.7 (4)
0x0c0|                        c2 84 8c 00            |        ....    |      [39]: "1937-04-25T08:00:00Z" (-1031500800) transition_time 0xc8-0xcb.7 (4)
0x0c0|                                    c3 4f 84 f0|            .O..|      [40]: "1937-09-26T07:00:00Z" (-1018198800) transition_time 0xcc-0xcf.7 (4)
0x0d0|c4 64 6e 00                                    |.dn.            |      [41]: "1938-04-24T08:00:00Z" (-1000051200) transition_time 0xd0-0xd3.7 (4)
0x0d0|            c5 2f 66 f0                        |    ./f.        |      [42]: "1938-09-25T07:00:00Z" (-986749200) transition_time 0xd4-0xd7.7 (4)
0x0d0|                        c6 4d 8a 80            |        .M..    |      [43]: "1939-04-30T08:00:00Z" (-967996800) transition_time 0xd8-0xdb.7 (4)
0x0d0|                                    c7 0f 48 f0|            ..H.|      [44]: "1939-09-24T07:00:00Z" (-955299600) transition_time 0xdc-0xdf.7 (4)
0x0e0|c8 2d 6c 80                                    |.-l.            |      [45]: "1940-04-28T08:00:00Z" (-936547200) transition_time 0xe0-0xe3.7 (4)
0x0e0|            c8 f8 65 70                        |    ..ep        |      [46]: "1940-09-29T07:00:00Z" (-923245200) transition_time 0xe4-0xe7.7 (4)
0x0e0|                        ca 0d 4e 80            |        ..N.    |      [47]: "1941-04-27T08:00:00Z" (-905097600) transition_time 0xe8-0xeb.7 (4)
0x0e0|                                    ca d8 47 70|            ..Gp|      [48]: "1941-09-28T07:00:00Z" (-891795600) transition_time 0xec-0xef.7 (4)
0x0f0|cb 88 fe 80                                    |....            |      [49]: "1942-02-09T08:00:00Z" (-880214400) transition_time 0xf0-0xf3.7 (4)
0x0f0|            d2 23 f4 70                        |    .#.p        |      [50]: "1945-08-14T23:00:00Z" (-769395600) transition_time 0xf4-0xf7.7 (4)
0x0f0|                        d2 61 09 f0            |        .a..    |      [51]: "1945-09-30T07:00:00Z" (-765392400) transition_time 0xf8-0xfb.7 (4)
0x0f0|                                    d3 75 f3 00|            .u..|      [52]: "1946-04-28T08:00:00Z" (-747244800) transition_time 0xfc-0xff.7 (4)
0x100|d4 40 eb f0                                    |.@..            |      [53]: "1946-09-29T07:00:00Z" (-733942800) transition_time 0x100-0x103.7 (4)
0x100|            d5 55 d5 00                        |    .U..        |      [54]: "1947-04-27T08:00:00Z" (-715795200) transition_time 0x104-0x107.7 (4)
0x100|                        d6 20 cd f0            |        . ..    |      [55]: "1947-09-28T07:00:00Z" (-702493200) transition_time 0x108-0x10b.7 (4)
0x100|                                    d7 35 b7 00|            .5..|      [56]: "1948-04-25T08:00:00Z" (-684345600) transition_time 0x10c-0x10f.7 (4)
0x110|d8 00 af f0                                    |....            |      [57]: "1948-09-26T07:00:00Z" (-671043600) transition_time 0x110-0x113.7 (4)
0x110|            d9 15 99 00                        |    ....        |      [58]: "1949-04-24T08:00:00Z" (-652896000) transition_time 0x114-0x117.7 (4)
0x110|                        d9 e0 91 f0            |        ....    |      [59]: "1949-09-25T07:00:00Z" (-639594000) transition_time 0x118-0x11b.7 (4)
0x110|                                    da fe b5 80|            ....|      [60]: "1950-04-30T08:00:00Z" (-620841600) transition_time 0x11c-0x11f.7 (4)
0x120|db c0 73 f0                                    |..s.            |      [61]: "1950-09-24T07:00:00Z" (-608144400) transition_time 0x120-0x123.7 (4)
0x120|            dc de 97 80                        |    ....        |      [62]: "1951-04-29T08:00:00Z" (-589392000) transition_time 0x124-0x127.7 (4)
0x120|                        dd a9 90 70            |        ...p    |      [63]: "1951-09-30T07:00:00Z" (-576090000) transition_time 0x128-0x12b.7 (4)
0x120|                                    de be 79 80|            ..y.|      [64]: "1952-04-27T08:00:00Z" (-557942400) transition_time 0x12c-0x12f.7 (4)
0x130|df 89 72 70                                    |..rp            |      [65]: "1952-09-28T07:00:00Z" (-544640400) transition_time 0x130-0x133.7 (4)
0x130|            e0 9e 5b 80                        |    ..[.        |      [66]: "1953-04-26T08:00:00Z" (-526492800) transition_time 0x134-0x137.7 (4)
0x130|                        e1 69 54 70            |        .iTp    |      [67]: "1953-09-27T07:00:00Z" (-513190800) transition_time 0x138-0x13b.7 (4)
0x130|                                    e2 7e 3d 80|            .~=.|      [68]: "1954-04-25T08:00:00Z" (-495043200) transition_time 0x13c-0x13f.7 (4)
0x140|e3 49 36 70                                    |.I6p            |      [69]: "1954-09-26T07:00:00Z" (-481741200) transition_time 0x140-0x143.7 (4)
0x140|            e4 5e 1f 80                        |    .^..        |      [70]: "1955-04-24T08:00:00Z" (-463593600) transition_time 0x144-0x147.7 (4)
0x140|                        e5 57 3c f0            |        .W<.    |      [71]: "1955-10-30T07:00:00Z" (-447267600) transition_time 0x148-0x14b.7 (4)
0x140|                                    e6 47 3c 00|            .G<.|      [72]: "1956-04-29T08:00:00Z" (-431539200) transition_time 0x14c-0x14f.7 (4)
0x150|e7 37 1e f0                                    |.7..            |      [73]: "1956-10-28T07:00:00Z" (-415818000) transition_time 0x150-0x153.7 (4)
0x150|            e8 27 1e 00                        |    .'..        |      [74]: "1957-04-28T08:00:00Z" (-400089600) transition_time 0x154-0x157.7 (4)
0x150|                        e9 17 00 f0            |        ....    |      [75]: "1957-10-27T07:00:00Z" (-384368400) transition_time 0x158-0x15b.7 (4)
0x150|                                    ea 07 00 00|            ....|      [76]: "1958-04-27T08:00:00Z" (-368640000) transition_time 0x15c-0x15f.7 (4)
0x160|ea f6 e2 f0                                    |....            |      [77]: "1958-10-26T07:00:00Z" (-352918800) transition_time 0x160-0x163.7 (4)
0x160|            eb e6 e2 00                        |    ....        |      [78]: "1959-04-26T08:00:00Z" (-337190400) transition_time 0x164-0x167.7 (4)
0x160|                        ec d6 c4 f0            |        ....    |      [79]: "1959-10-25T07:00:00Z" (-321469200) transition_time 0x168-0x16b.7 (4)
0x160|                                    ed c6 c4 00|            ....|      [80]: "1960-04-24T08:00:00Z" (-305740800) transition_time 0x16c-0x16f.7 (4)
0x170|ee bf e1 70                                    |...p            |      [81]: "1960-10-30T07:00:00Z" (-289414800) transition_time 0x170-0x173.7 (4)
0x170|            ef af e0 80                        |    ....        |      [82]: "1961-04-30T08:00:00Z" (-273686400) transition_time 0x174-0x177.7 (4)
0x170|                        f0 9f c3 70            |        ...p    |      [83]: "1961-10-29T07:00:00Z" (-257965200) transition_time 0x178-0x17b.7 (4)
0x170|                                    f1 8f c2 80|            ....|      [84]: "1962-04-29T08:00:00Z" (-242236800) transition_time 0x17c-0x17f.7 (4)
0x180|f2 7f a5 70                                    |...p            |      [85]: "1962-10-28T07:00:00Z" (-226515600) transition_time 0x180-0x183.7 (4)
0x180|            f3 6f a4 80                        |    .o..        |      [86]: "1963-04-28T08:00:00Z" (-210787200) transition_time 0x184-0x187.7 (4)
0x180|                        f4 5f 87 70            |        ._.p    |      [87]: "1963-10-27T07:00:00Z" (-195066000) transition_time 0x188-0x18b.7 (4)
0x180|                                    f5 4f 86 80|            .O..|      [88]: "1964-04-26T08:00:00Z" (-179337600) transition_time 0x18c-0x18f.7 (4)
0x190|f6 3f 69 70                                    |.?ip            |      [89]: "1964-10-25T07:00:00Z" (-163616400) transition_time 0x190-0x193.7 (4)
0x190|            f7 2f 68 80                        |    ./h.        |      [90]: "1965-04-25T08:00:00Z" (-147888000) transition_time 0x194-0x197.7 (4)
0x190|                        f8 28 85 f0            |        .(..    |      [91]: "1965-10-31T07:00:00Z" (-131562000) transition_time 0x198-0x19b.7 (4)
0x190|                                    f9 0f 4a 80|            ..J.|      [92]: "1966-04-24T08:00:00Z" (-116438400) transition_time 0x19c-0x19f.7 (4)
0x1a0|fa 08 67 f0                                    |..g.            |      [93]: "1966-10-30T07:00:00Z" (-100112400) transition_time 0x1a0-0x1a3.7 (4)
0x1a0|            fa f8 67 00                        |    ..g.        |      [94]: "1967-04-30T08:00:00Z" (-84384000) transition_time 0x1a4-0x1a7.7 (4)
0x1a0|                        fb e8 49 f0            |        ..I.    |      [95]: "1967-10-29T07:00:00Z" (-68662800) transition_time 0x1a8-0x1ab.7 (4)
0x1a0|                                    fc d8 49 00|            ..I.|      [96]: "1968-04-28T08:00:00Z" (-52934400) transition_time 0x1ac-0x1af.7 (4)
0x1b0|fd c8 2b f0                                    |..+.            |      [97]: "1968-10-27T07:00:00Z" (-37213200) transition_time 0x1b0-0x1b3.7 (4)
0x1b0|            fe b8 2b 00                        |    ..+.        |      [98]: "1969-04-27T08:00:00Z" (-21484800) transition_time 0x1b4-0x1b7.7 (4)
0x1b0|                        ff a8 0d f0            |        ....    |      [99]: "1969-10-26T07:00:00Z" (-5763600) transition_time 0x1b8-0x1bb.7 (4)
0x1b0|                                    00 98 0d 00|            ....|      [100]: "1970-04-26T08:00:00Z" (9964800) transition_time 0x1bc-0x1bf.7 (4)
0x1c0|01 87 ef f0                                    |....            |      [101]: "1970-10-25T07:00:00Z" (25686000) transition_time 0x1c0-0x1c3.7 (4)
0x1c0|            02 77 ef 00                        |    .w..        |      [102]: "1971-04-25T08:00:00Z" (41414400) transition_time 0x1c4-0x1c7.7 (4)
0x1c0|                        03 71 0c 70            |        .q.p    |      [103]: "1971-10-31T07:00:00Z" (57740400) transition_time 0x1c8-0x1cb.7 (4)
0x1c0|                                    04 61 0b 80|            .a..|      [104]: "1972-04-30T08:00:00Z" (73468800) transition_time 0x1cc-0x1cf.7 (4)
0x1d0|05 50 ee 71                                    |.P.q            |      [105]: "1972-10-29T07:00:01Z" (89190001) transition_time 0x1d0-0x1d3.7 (4)
0x1d0|            06 40 ed 82                        |    .@..        |      [106]: "1973-04-29T08:00:02Z" (104918402) transition_time 0x1d4-0x1d7.7 (4)
0x1d0|                        07 30 d0 72            |        .0.r    |      [107]: "1973-10-28T07:00:02Z" (120639602) transition_time 0x1d8-0x1db.7 (4)
0x1d0|                                    07 8d 27 83|            ..'.|      [108]: "1974-01-06T08:00:03Z" (126691203) transition_time 0x1dc-0x1df.7 (4)
0x1e0|09 10 b2 73                                    |...s            |      [109]: "1974-10-27T07:00:03Z" (152089203) transition_time 0x1e0-0x1e3.7 (4)
0x1e0|            09 ad a3 04                        |    ....        |      [110]: "1975-02-23T08:00:04Z" (162374404) transition_time 0x1e4-0x1e7.7 (4)
0x1e0|                        0a f0 94 74            |        ...t    |      [111]: "1975-10-26T07:00:04Z" (183538804) transition_time 0x1e8-0x1eb.7 (4)
0x1e0|                                    0b e0 93 85|            ....|      [112]: "1976-04-25T08:00:05Z" (199267205) transition_time 0x1ec-0x1ef.7 (4)
0x1f0|0c d9 b0 f5                                    |....            |      [113]: "1976-10-31T07:00:05Z" (215593205) transition_time 0x1f0-0x1f3.7 (4)
0x1f0|            0d c0 75 86                        |    ..u.        |      [114]: "1977-04-24T08:00:06Z" (230716806) transition_time 0x1f4-0x1f7.7 (4)
0x1f0|                        0e b9 92 f6            |        ....    |      [115]: "1977-10-30T07:00:06Z" (247042806) transition_time 0x1f8-0x1fb.7 (4)
0x1f0|                                    0f a9 92 07|            ....|      [116]: "1978-04-30T08:00:07Z" (262771207) transition_time 0x1fc-0x1ff.7 (4)
0x200|10 99 74 f7                                    |..t.            |      [117]: "1978-10-29T07:00:07Z" (278492407) transition_time 0x200-0x203.7 (4)
0x200|            11 89 74 08                        |    ..t.        |      [118]: "1979-04-29T08:00:08Z" (294220808) transition_time 0x204-0x207.7 (4)
0x200|                        12 79 56 f8            |        .yV.    |      [119]: "1979-10-28T07:00:08Z" (309942008) transition_time 0x208-0x20b.7 (4)
0x200|                                    13 69 56 09|            .iV.|      [120]: "1980-04-27T08:00:09Z" (325670409) transition_time 0x20c-0x20f.7 (4)
0x210|14 59 38 f9                                    |.Y8.            |      [121]: "1980-10-26T07:00:09Z" (341391609) transition_time 0x210-0x213.7 (4)
0x210|            15 49 38 09                        |    .I8.        |      [122]: "1981-04-26T08:00:09Z" (357120009) transition_time 0x214-0x217.7 (4)
0x210|                        16 39 1a fa            |        .9..    |      [123]: "1981-10-25T07:00:10Z" (372841210) transition_time 0x218-0x21b.7 (4)
0x210|                                    17 29 1a 0a|            .)..|      [124]: "1982-04-25T08:00:10Z" (388569610) transition_time 0x21c-0x21f.7 (4)
0x220|18 22 37 7b                                    |."7{            |      [125]: "1982-10-31T07:00:11Z" (404895611) transition_time 0x220-0x223.7 (4)
0x220|            19 08 fc 0b                        |    ....        |      [126]: "1983-04-24T08:00:11Z" (420019211) transition_time 0x224-0x227.7 (4)
0x220|                        1a 02 19 7c            |        ...|    |      [127]: "1983-10-30T07:00:12Z" (436345212) transition_time 0x228-0x22b.7 (4)
0x220|                                    1a f2 18 8c|            ....|      [128]: "1984-04-29T08:00:12Z" (452073612) transition_time 0x22c-0x22f.7 (4)
0x230|1b e1 fb 7c                                    |...|            |      [129]: "1984-10-28T07:00:12Z" (467794812) transition_time 0x230-0x233.7 (4)
0x230|            1c d1 fa 8c                        |    ....        |      [130]: "1985-04-28T08:00:12Z" (483523212) transition_time 0x234-0x237.7 (4)
0x230|                        1d c1 dd 7d            |        ...}    |      [131]: "1985-10-27T07:00:13Z" (499244413) transition_time 0x238-0x23b.7 (4)
0x230|                                    1e b1 dc 8d|            ....|      [132]: "1986-04-27T08:00:13Z" (514972813) transition_time 0x23c-0x23f.7 (4)
0x240|1f a1 bf 7d                                    |...}            |      [133]: "1986-10-26T07:00:13Z" (530694013) transition_time 0x240-0x243.7 (4)
0x240|            20 76 0f 0d                        |     v..        |      [134]: "1987-04-05T08:00:13Z" (544608013) transition_time 0x244-0x247.7 (4)
0x240|                        21 81 a1 7d            |        !..}    |      [135]: "1987-10-25T07:00:13Z" (562143613) transition_time 0x248-0x24b.7 (4)
0x240|                                    22 55 f1 0e|            "U..|      [136]: "1988-04-03T08:00:14Z" (576057614) transition_time 0x24c-0x24f.7 (4)
0x250|23 6a bd fe                                    |#j..            |      [137]: "1988-10-30T07:00:14Z" (594198014) transition_time 0x250-0x253.7 (4)
0x250|            24 35 d3 0e                        |    $5..        |      [138]: "1989-04-02T08:00:14Z" (607507214) transition_time 0x254-0x257.7 (4)
0x250|                        25 4a 9f fe            |        %J..    |      [139]: "1989-10-29T07:00:14Z" (625647614) transition_time 0x258-0x25b.7 (4)
0x250|                                    26 15 b5 0f|            &...|      [140]: "1990-04-01T08:00:15Z" (638956815) transition_time 0x25c-0x25f.7 (4)
0x260|27 2a 81 ff                                    |'*..            |      [141]: "1990-10-28T07:00:15Z" (657097215) transition_time 0x260-0x263.7 (4)
0x260|            27 fe d1 90                        |    '...        |      [142]: "1991-04-07T08:00:16Z" (671011216) transition_time 0x264-0x267.7 (4)
0x260|                        29 0a 64 00            |        ).d.    |      [143]: "1991-10-27T07:00:16Z" (688546816) transition_time 0x268-0x26b.7 (4)
0x260|                                    29 de b3 90|            )...|      [144]: "1992-04-05T08:00:16Z" (702460816) transition_time 0x26c-0x26f.7 (4)
0x270|2a ea 46 01                                    |*.F.            |      [145]: "1992-10-25T07:00:17Z" (719996417) transition_time 0x270-0x273.7 (4)
0x270|            2b be 95 91                        |    +...        |      [146]: "1993-04-04T08:00:17Z" (733910417) transition_time 0x274-0x277.7 (4)
0x270|                        2c d3 62 82            |        ,.b.    |      [147]: "1993-10-31T07:00:18Z" (752050818) transition_time 0x278-0x27b.7 (4)
0x270|                                    2d 9e 77 92|            -.w.|      [148]: "1994-04-03T08:00:18Z" (765360018) transition_time 0x27c-0x27f.7 (4)
0x280|2e b3 44 83                                    |..D.            |      [149]: "1994-10-30T07:00:19Z" (783500419) transition_time 0x280-0x283.7 (4)
0x280|            2f 7e 59 93                        |    /~Y.        |      [150]: "1995-04-02T08:00:19Z" (796809619) transition_time 0x284-0x287.7 (4)
0x280|                        30 93 26 83            |        0.&.    |      [151]: "1995-10-29T07:00:19Z" (814950019) transition_time 0x288-0x28b.7 (4)
0x280|                                    31 67 76 14|            1gv.|      [152]: "1996-04-07T08:00:20Z" (828864020) transition_time 0x28c-0x28f.7 (4)
0x290|32 73 08 84                                    |2s..            |      [153]: "1996-10-27T07:00:20Z" (846399620) transition_time 0x290-0x293.7 (4)
0x290|            33 47 58 14                        |    3GX.        |      [154]: "1997-04-06T08:00:20Z" (860313620) transition_time 0x294-0x297.7 (4)
0x290|                        34 52 ea 85            |        4R..    |      [155]: "1997-10-26T07:00:21Z" (877849221) transition_time 0x298-0x29b.7 (4)
0x290|                                    35 27 3a 15|            5':.|      [156]: "1998-04-05T08:00:21Z" (891763221) transition_time 0x29c-0x29f.7 (4)
0x2a0|36 32 cc 85                                    |62..            |      [157]: "1998-10-25T07:00:21Z" (909298821) transition_time 0x2a0-0x2a3.7 (4)
0x2a0|            37 07 1c 16                        |    7...        |      [158]: "1999-04-04T08:00:22Z" (923212822) transition_time 0x2a4-0x2a7.7 (4)
0x2a0|                        38 1b e9 06            |        8...    |      [159]: "1999-10-31T07:00:22Z" (941353222) transition_time 0x2a8-0x2ab.7 (4)
0x2a0|                                    38 e6 fe 16|            8...|      [160]: "2000-04-02T08:00:22Z" (954662422) transition_time 0x2ac-0x2af.7 (4)
0x2b0|39 fb cb 06                                    |9...            |      [161]: "2000-10-29T07:00:22Z" (972802822) transition_time 0x2b0-0x2b3.7 (4)
0x2b0|            3a c6 e0 16                        |    :...        |      [162]: "2001-04-01T08:00:22Z" (986112022) transition_time 0x2b4-0x2b7.7 (4)
0x2b0|                        3b db ad 06            |        ;...    |      [163]: "2001-10-28T07:00:22Z" (1004252422) transition_time 0x2b8-0x2bb.7 (4)
0x2b0|                                    3c af fc 96|            <...|      [164]: "2002-04-07T08:00:22Z" (1018166422) transition_time 0x2bc-0x2bf.7 (4)
0x2c0|3d bb 8f 06                                    |=...            |      [165]: "2002-10-27T07:00:22Z" (1035702022) transition_time 0x2c0-0x2c3.7 (4)
0x2c0|            3e 8f de 96                        |    >...        |      [166]: "2003-04-06T08:00:22Z" (1049616022) transition_time 0x2c4-0x2c7.7 (4)
0x2c0|                        3f 9b 71 06            |        ?.q.    |      [167]: "2003-10-26T07:00:22Z" (1067151622) transition_time 0x2c8-0x2cb.7 (4)
0x2c0|                                    40 6f c0 96|            @o..|      [168]: "2004-04-04T08:00:22Z" (1081065622) transition_time 0x2cc-0x2cf.7 (4)
0x2d0|41 84 8d 86                                    |A...            |      [169]: "2004-10-31T07:00:22Z" (1099206022) transition_time 0x2d0-0x2d3.7 (4)
0x2d0|            42 4f a2 96                        |    BO..        |      [170]: "2005-04-03T08:00:22Z" (1112515222) transition_time 0x2d4-0x2d7.7 (4)
0x2d0|                        43 64 6f 86            |        Cdo.    |      [171]: "2005-10-30T07:00:22Z" (1130655622) transition_time 0x2d8-0x2db.7 (4)
0x2d0|                                    44 2f 84 97|            D/..|      [172]: "2006-04-02T08:00:23Z" (1143964823) transition_time 0x2dc-0x2df.7 (4)
0x2e0|45 44 51 87                                    |EDQ.            |      [173]: "2006-10-29T07:00:23Z" (1162105223) transition_time 0x2e0-0x2e3.7 (4)
0x2e0|            45 f3 b7 17                        |    E...        |      [174]: "2007-03-11T08:00:23Z" (1173600023) transition_time 0x2e4-0x2e7.7 (4)
0x2e0|                        47 2d 6e 07            |        G-n.    |      [175]: "2007-11-04T07:00:23Z" (1194159623) transition_time 0x2e8-0x2eb.7 (4)
0x2e0|                                    47 d3 99 17|            G...|      [176]: "2008-03-09T08:00:23Z" (1205049623) transition_time 0x2ec-0x2ef.7 (4)
0x2f0|49 0d 50 07                                    |I.P.            |      [177]: "2008-11-02T07:00:23Z" (1225609223) transition_time 0x2f0-0x2f3.7 (4)
0x2f0|            49 b3 7b 18                        |    I.{.        |      [178]: "2009-03-08T08:00:24Z" (1236499224) transition_time 0x2f4-0x2f7.7 (4)
0x2f0|                        4a ed 32 08            |        J.2.    |      [179]: "2009-11-01T07:00:24Z" (1257058824) transition_time 0x2f8-0x2fb.7 (4)
0x2f0|                                    4b 9c 97 98|            K...|      [180]: "2010-03-14T08:00:24Z" (1268553624) transition_time 0x2fc-0x2ff.7 (4)
0x300|4c d6 4e 88                                    |L.N.            |      [181]: "2010-11-07T07:00:24Z" (1289113224) transition_time 0x300-0x303.7 (4)
0x300|            4d 7c 79 98                        |    M|y.        |      [182]: "2011-03-13T08:00:24Z" (1300003224) transition_time 0x304-0x307.7 (4)
0x300|                        4e b6 30 88            |        N.0.    |      [183]: "2011-11-06T07:00:24Z" (1320562824) transition_time 0x308-0x30b.7 (4)
0x300|                                    4f 5c 5b 98|            O\[.|      [184]: "2012-03-11T08:00:24Z" (1331452824) transition_time 0x30c-0x30f.7 (4)
0x310|50 96 12 89                                    |P...            |      [185]: "2012-11-04T07:00:25Z" (1352012425) transition_time 0x310-0x313.7 (4)
0x310|            51 3c 3d 99                        |    Q<=.        |      [186]: "2013-03-10T08:00:25Z" (1362902425) transition_time 0x314-0x317.7 (4)
0x310|                        52 75 f4 89            |        Ru..    |      [187]: "2013-11-03T07:00:25Z" (1383462025) transition_time 0x318-0x31b.7 (4)
0x310|                                    53 1c 1f 99|            S...|      [188]: "2014-03-09T08:00:25Z" (1394352025) transition_time 0x31c-0x31f.7 (4)
0x320|54 55 d6 89                                    |TU..            |      [189]: "2014-11-02T07:00:25Z" (1414911625) transition_time 0x320-0x323.7 (4)
0x320|            54 fc 01 99                        |    T...        |      [190]: "2015-03-08T08:00:25Z" (1425801625) transition_time 0x324-0x327.7 (4)
0x320|                        56 35 b8 8a            |        V5..    |      [191]: "2015-11-01T07:00:26Z" (1446361226) transition_time 0x328-0x32b.7 (4)
0x320|                                    56 e5 1e 1a|            V...|      [192]: "2016-03-13T08:00:26Z" (1457856026) transition_time 0x32c-0x32f.7 (4)
0x330|58 1e d5 0a                                    |X...            |      [193]: "2016-11-06T07:00:26Z" (1478415626) transition_time 0x330-0x333.7 (4)
0x330|            58 c5 00 1b                        |    X...        |      [194]: "2017-03-12T08:00:27Z" (1489305627) transition_time 0x334-0x337.7 (4)
0x330|                        59 fe b7 0b            |        Y...    |      [195]: "2017-11-05T07:00:27Z" (1509865227) transition_time 0x338-0x33b.7 (4)
0x330|                                    5a a4 e2 1b|            Z...|      [196]: "2018-03-11T08:00:27Z" (1520755227) transition_time 0x33c-0x33f.7 (4)
0x340|5b de 99 0b                                    |[...            |      [197]: "2018-11-04T07:00:27Z" (1541314827) transition_time 0x340-0x343.7 (4)
0x340|            5c 84 c4 1b                        |    \...        |      [198]: "2019-03-10T08:00:27Z" (1552204827) transition_time 0x344-0x347.7 (4)
0x340|                        5d be 7b 0b            |        ].{.    |      [199]: "2019-11-03T07:00:27Z" (1572764427) transition_time 0x348-0x34b.7 (4)
0x340|                                    5e 64 a6 1b|            ^d..|      [200]: "2020-03-08T08:00:27Z" (1583654427) transition_time 0x34c-0x34f.7 (4)
0x350|5f 9e 5d 0b                                    |_.].            |      [201]: "2020-11-01T07:00:27Z" (1604214027) transition_time 0x350-0x353.7 (4)
0x350|            60 4d c2 9b                        |    `M..        |      [202]: "2021-03-14T08:00:27Z" (1615708827) transition_time 0x354-0x357.7 (4)
0x350|                        61 87 79 8b            |        a.y.    |      [203]: "2021-11-07T07:00:27Z" (1636268427) transition_time 0x358-0x35b.7 (4)
0x350|                                    62 2d a4 9b|            b-..|      [204]: "2022-03-13T08:00:27Z" (1647158427) transition_time 0x35c-0x35f.7 (4)
0x360|63 67 5b 8b                                    |cg[.            |      [205]: "2022-11-06T07:00:27Z" (1667718027) transition_time 0x360-0x363.7 (4)
0x360|            64 0d 86 9b                        |    d...        |      [206]: "2023-03-12T08:00:27Z" (1678608027) transition_time 0x364-0x367.7 (4)
0x360|                        64 9b 78 1b            |        d.x.    |      [207]: "2023-06-28T00:00:27Z" (1687910427) transition_time 0x368-0x36b.7 (4)
     |                                               |                |    transition_types[0:208]: 0x36c-0x43b.7 (208)
0x360|                                    03         |            .   |      [0]: 3 transition_type 0x36c-0x36c.7 (1)
0x360|                                       01      |             .  |      [1]: 1 transition_type 0x36d-0x36d.7 (1)
0x360|                                          02   |              . |      [2]: 2 transition_type 0x36e-0x36e.7 (1)
0x360|                                             01|               .|      [3]: 1 transition_type 0x36f-0x36f.7 (1)
0x370|02                                             |.               |      [4]: 2 transition_type 0x370-0x370.7 (1)
0x370|   01                                          | .              |      [5]: 1 transition_type 0x371-0x371.7 (1)
0x370|      02                                       |  .             |      [6]: 2 transition_type 0x372-0x372.7 (1)
0x370|         01                                    |   .            |      [7]: 1 transition_type 0x373-0x373.7 (1)
0x370|            02                                 |    .           |      [8]: 2 transition_type 0x374-0x374.7 (1)
0x370|               01                              |     .          |      [9]: 1 transition_type 0x375-0x375.7 (1)
0x370|                  02                           |      .         |      [10]: 2 transition_type 0x376-0x376.7 (1)
0x370|                     01                        |       .        |      [11]: 1 transition_type 0x377-0x377.7 (1)
0x370|                        02                     |        .       |      [12]: 2 transition_type 0x378-0x378.7 (1)
0x370|                           01                  |         .      |      [13]: 1 transition_type 0x379-0x379.7 (1)
0x370|                              02               |          .     |      [14]: 2 transition_type 0x37a-0x37a.7 (1)
0x370|                                 01            |           .    |      [15]: 1 transition_type 0x37b-0x37b.7 (1)
0x370|                                    02         |            .   |      [16]: 2 transition_type 0x37c-0x37c.7 (1)
0x370|                                       01      |             .  |      [17]: 1 transition_type 0x37d-0x37d.7 (1)
0x370|                                          02   |              . |      [18]: 2 transition_type 0x37e-0x37e.7 (1)
0x370|                                             01|               .|      [19]: 1 transition_type 0x37f-0x37f.7 (1)
0x380|02                                             |.               |      [20]: 2 transition_type 0x380-0x380.7 (1)
0x380|   01                                          | .              |      [21]: 1 transition_type 0x381-0x381.7 (1)
0x380|      02                                       |  .             |      [22]: 2 transition_type 0x382-0x382.7 (1)
0x380|         01                                    |   .            |      [23]: 1 transition_type 0x383-0x383.7 (1)
0x380|            02                                 |    .           |      [24]: 2 transition_type 0x384-0x384.7 (1)
0x380|               01                              |     .          |      [25]: 1 transition_type 0x385-0x385.7 (1)
0x380|                  02                           |      .         |      [26]: 2 transition_type 0x386-0x386.7 (1)
0x380|                     01                        |       .        |      [27]: 1 transition_type 0x387-0x387.7 (1)
0x380|                        02                     |        .       |      [28]: 2 transition_type 0x388-0x388.7 (1)
0x380|                           01                  |         .      |      [29]: 1 transition_type 0x389-0x389.7 (1)
0x380|                              02               |          .     |      [30]: 2 transition_type 0x38a-0x38a.7 (1)
0x380|                                 01            |           .    |      [31]: 1 transition_type 0x38b-0x38b.7 (1)
0x380|                                    02         |            .   |      [32]: 2 transition_type 0x38c-0x38c.7 (1)
0x380|                                       01      |             .  |      [33]: 1 transition_type 0x38d-0x38d.7 (1)
0x380|                                          02   |              . |      [34]: 2 transition_type 0x38e-0x38e.7 (1)
0x380|                                             01|               .|      [35]: 1 transition_type 0x38f-0x38f.7 (1)
0x390|02                                             |.               |      [36]: 2 transition_type 0x390-0x390.7 (1)
0x390|   04                                          | .              |      [37]: 4 transition_type 0x391-0x391.7 (1)
0x390|      02                                       |  .             |      [38]: 2 transition_type 0x392-0x392.7 (1)
0x390|         01                                    |   .            |      [39]: 1 transition_type 0x393-0x393.7 (1)
0x390|            02                                 |    .           |      [40]: 2 transition_type 0x394-0x394.7 (1)
0x390|               01                              |     .          |      [41]: 1 transition_type 0x395-0x395.7 (1)
0x390|                  02                           |      .         |      [42]: 2 transition_type 0x396-0x396.7 (1)
0x390|                     01                        |       .        |      [43]: 1 transition_type 0x397-0x397.7 (1)
0x390|                        02                     |        .       |      [44]: 2 transition_type 0x398-0x398.7 (1)
0x390|                           01                  |         .      |      [45]: 1 transition_type 0x399-0x399.7 (1)
0x390|                              02               |          .     |      [46]: 2 transition_type 0x39a-0x39a.7 (1)
0x390|                                 01            |           .    |      [47]: 1 transition_type 0x39b-0x39b.7 (1)
0x390|                                    02         |            .   |      [48]: 2 transition_type 0x39c-0x39c.7 (1)
0x390|                                       05      |             .  |      [49]: 5 transition_type 0x39d-0x39d.7 (1)
0x390|                                          06   |              . |      [50]: 6 transition_type 0x39e-0x39e.7 (1)
0x390|                                             02|               .|      [51]: 2 transition_type 0x39f-0x39f.7 (1)
0x3a0|01                                             |.               |      [52]: 1 transition_type 0x3a0-0x3a0.7 (1)
0x3a0|   02                                          | .              |      [53]: 2 transition_type 0x3a1-0x3a1.7 (1)
0x3a0|      01                                       |  .             |      [54]: 1 transition_type 0x3a2-0x3a2.7 (1)
0x3a0|         02                                    |   .            |      [55]: 2 transition_type 0x3a3-0x3a3.7 (1)
0x3a0|            01                                 |    .           |      [56]: 1 transition_type 0x3a4-0x3a4.7 (1)
0x3a0|               02                              |     .          |      [57]: 2 transition_type 0x3a5-0x3a5.7 (1)
0x3a0|                  01                           |      .         |      [58]: 1 transition_type 0x3a6-0x3a6.7 (1)
0x3a0|                     02                        |       .        |      [59]: 2 transition_type 0x3a7-0x3a7.7 (1)
0x3a0|                        01                     |        .       |      [60]: 1 transition_type 0x3a8-0x3a8.7 (1)
0x3a0|                           02                  |         .      |      [61]: 2 transition_type 0x3a9-0x3a9.7 (1)
0x3a0|                              01               |          .     |      [62]: 1 transition_type 0x3aa-0x3aa.7 (1)
0x3a0|                                 02            |           .    |      [63]: 2 transition_type 0x3ab-0x3ab.7 (1)
0x3a0|                                    01         |            .   |      [64]: 1 transition_type 0x3ac-0x3ac.7 (1)
0x3a0|                                       02      |             .  |      [65]: 2 transition_type 0x3ad-0x3ad.7 (1)
0x3a0|                                          01   |              . |      [66]: 1 transition_type 0x3ae-0x3ae.7 (1)
0x3a0|                                             02|               .|      [67]: 2 transition_type 0x3af-0x3af.7 (1)
0x3b0|01                                             |.               |      [68]: 1 transition_type 0x3b0-0x3b0.7 (1)
0x3b0|   02                                          | .              |      [69]: 2 transition_type 0x3b1-0x3b1.7 (1)
0x3b0|      01                                       |  .             |      [70]: 1 transition_type 0x3b2-0x3b2.7 (1)
0x3b0|         02                                    |   .            |      [71]: 2 transition_type 0x3b3-0x3b3.7 (1)
0x3b0|            01                                 |    .           |      [72]: 1 transition_type 0x3b4-0x3b4.7 (1)
0x3b0|               02                              |     .          |      [73]: 2 transition_type 0x3b5-0x3b5.7 (1)
0x3b0|                  01                           |      .         |      [74]: 1 transition_type 0x3b6-0x3b6.7 (1)
0x3b0|                     02                        |       .        |      [75]: 2 transition_type 0x3b7-0x3b7.7 (1)
0x3b0|                        01                     |        .       |      [76]: 1 transition_type 0x3b8-0x3b8.7 (1)
0x3b0|                           02                  |         .      |      [77]: 2 transition_type 0x3b9-0x3b9.7 (1)
0x3b0|                              01               |          .     |      [78]: 1 transition_type 0x3ba-0x3ba.7 (1)
0x3b0|                                 02            |           .    |      [79]: 2 transition_type 0x3bb-0x3bb.7 (1)
0x3b0|                                    01         |            .   |      [80]: 1 transition_type 0x3bc-0x3bc.7 (1)
0x3b0|                                       02      |             .  |      [81]: 2 transition_type 0x3bd-0x3bd.7 (1)
0x3b0|                                          01   |              . |      [82]: 1 transition_type 0x3be-0x3be.7 (1)
0x3b0|                                             02|               .|      [83]: 2 transition_type 0x3bf-0x3bf.7 (1)
0x3c0|01                                             |.               |      [84]: 1 transition_type 0x3c0-0x3c0.7 (1)
0x3c0|   02                                          | .              |      [85]: 2 transition_type 0x3c1-0x3c1.7 (1)
0x3c0|      01                                       |  .             |      [86]: 1 transition_type 0x3c2-0x3c2.7 (1)
0x3c0|         02                                    |   .            |      [87]: 2 transition_type 0x3c3-0x3c3.7 (1)
0x3c0|            01                                 |    .           |      [88]: 1 transition_type 0x3c4-0x3c4.7 (1)
0x3c0|               02                              |     .          |      [89]: 2 transition_type 0x3c5-0x3c5.7 (1)
0x3c0|                  01                           |      .         |      [90]: 1 transition_type 0x3c6-0x3c6.7 (1)
0x3c0|                     02                        |       .        |      [91]: 2 transition_type 0x3c7-0x3c7.7 (1)
0x3c0|                        01                     |        .       |      [92]: 1 transition_type 0x3c8-0x3c8.7 (1)
0x3c0|                           02                  |         .      |      [93]: 2 transition_type 0x3c9-0x3c9.7 (1)
0x3c0|                              01               |          .     |      [94]: 1 transition_type 0x3ca-0x3ca.7 (1)
0x3c0|                                 02            |           .    |      [95]: 2 transition_type 0x3cb-0x3cb.7 (1)
0x3c0|                                    01         |            .   |      [96]: 1 transition_type 0x3cc-0x3cc.7 (1)
0x3c0|                                       02      |             .  |      [97]: 2 transition_type 0x3cd-0x3cd.7 (1)
0x3c0|                                          01   |              . |      [98]: 1 transition_type 0x3ce-0x3ce.7 (1)
0x3c0|                                             02|               .|      [99]: 2 transition_type 0x3cf-0x3cf.7 (1)
0x3d0|01                                             |.               |      [100]: 1 transition_type 0x3d0-0x3d0.7 (1)
0x3d0|   02                                          | .              |      [101]: 2 transition_type 0x3d1-0x3d1.7 (1)
0x3d0|      01                                       |  .             |      [102]: 1 transition_type 0x3d2-0x3d2.7 (1)
0x3d0|         02                                    |   .            |      [103]: 2 transition_type 0x3d3-0x3d3.7 (1)
0x3d0|            01                                 |    .           |      [104]: 1 transition_type 0x3d4-0x3d4.7 (1)
0x3d0|               02                              |     .          |      [105]: 2 transition_type 0x3d5-0x3d5.7 (1)
0x3d0|                  01                           |      .         |      [106]: 1 transition_type 0x3d6-0x3d6.7 (1)
0x3d0|                     02                        |       .        |      [107]: 2 transition_type 0x3d7-0x3d7.7 (1)
0x3d0|                        01                     |        .       |      [108]: 1 transition_type 0x3d8-0x3d8.7 (1)
0x3d0|                           02                  |         .      |      [109]: 2 transition_type 0x3d9-0x3d9.7 (1)
0x3d0|                              01               |          .     |      [110]: 1 transition_type 0x3da-0x3da.7 (1)
0x3d0|                                 02            |           .    |      [111]: 2 transition_type 0x3db-0x3db.7 (1)
0x3d0|                                    01         |            .   |      [112]: 1 transition_type 0x3dc-0x3dc.7 (1)
0x3d0|                                       02      |             .  |      [113]: 2 transition_type 0x3dd-0x3dd.7 (1)
0x3d0|                                          01   |              . |      [114]: 1 transition_type 0x3de-0x3de.7 (1)
0x3d0|                                             02|               .|      [115]: 2 transition_type 0x3df-0x3df.7 (1)
0x3e0|01                                             |.               |      [116]: 1 transition_type 0x3e0-0x3e0.7 (1)
0x3e0|   02                                          | .              |      [117]: 2 transition_type 0x3e1-0x3e1.7 (1)
0x3e0|      01                                       |  .             |      [118]: 1 transition_type 0x3e2-0x3e2.7 (1)
0x3e0|         02                                    |   .            |      [119]: 2 transition_type 0x3e3-0x3e3.7 (1)
0x3e0|            01                                 |    .           |      [120]: 1 transition_type 0x3e4-0x3e4.7 (1)
0x3e0|               02                              |     .          |      [121]: 2 transition_type 0x3e5-0x3e5.7 (1)
0x3e0|                  01                           |      .         |      [122]: 1 transition_type 0x3e6-0x3e6.7 (1)
0x3e0|                     02                        |       .        |      [123]: 2 transition_type 0x3e7-0x3e7.7 (1)
0x3e0|                        01                     |        .       |      [124]: 1 transition_type 0x3e8-0x3e8.7 (1)
0x3e0|                           02                  |         .      |      [125]: 2 transition_type 0x3e9-0x3e9.7 (1)
0x3e0|                              01               |          .     |      [126]: 1 transition_type 0x3ea-0x3ea.7 (1)
0x3e0|                                 02            |           .    |      [127]: 2 transition_type 0x3eb-0x3eb.7 (1)
0x3e0|                                    01         |            .   |      [128]: 1 transition_type 0x3ec-0x3ec.7 (1)
0x3e0|                                       02      |             .  |      [129]: 2 transition_type 0x3ed-0x3ed.7 (1)
0x3e0|                                          01   |              . |      [130]: 1 transition_type 0x3ee-0x3ee.7 (1)
0x3e0|                                             02|               .|      [131]: 2 transition_type 0x3ef-0x3ef.7 (1)
0x3f0|01                                             |.               |      [132]: 1 transition_type 0x3f0-0x3f0.7 (1)
0x3f0|   02                                          | .              |      [133]: 2 transition_type 0x3f1-0x3f1.7 (1)
0x3f0|      01                                       |  .             |      [134]: 1 transition_type 0x3f2-0x3f2.7 (1)
0x3f0|         02                                    |   .            |      [135]: 2 transition_type 0x3f3-0x3f3.7 (1)
0x3f0|            01                                 |    .           |      [136]: 1 transition_type 0x3f4-0x3f4.7 (1)
0x3f0|               02                              |     .          |      [137]: 2 transition_type 0x3f5-0x3f5.7 (1)
0x3f0|                  01                           |      .         |      [138]: 1 transition_type 0x3f6-0x3f6.7 (1)
0x3f0|                     02                        |       .        |      [139]: 2 transition_type 0x3f7-0x3f7.7 (1)
0x3f0|                        01                     |        .       |      [140]: 1 transition_type 0x3f8-0x3f8.7 (1)
0x3f0|                           02                  |         .      |      [141]: 2 transition_type 0x3f9-0x3f9.7 (1)
0x3f0|                              01               |          .     |      [142]: 1 transition_type 0x3fa-0x3fa.7 (1)
0x3f0|                                 02            |           .    |      [143]: 2 transition_type 0x3fb-0x3fb.7 (1)
0x3f0|                                    01         |            .   |      [144]: 1 transition_type 0x3fc-0x3fc.7 (1)
0x3f0|                                       02      |             .  |      [145]: 2 transition_type 0x3fd-0x3fd.7 (1)
0x3f0|                                          01   |              . |      [146]: 1 transition_type 0x3fe-0x3fe.7 (1)
0x3f0|                                             02|               .|      [147]: 2 transition_type 0x3ff-0x3ff.7 (1)
0x400|01                                             |.               |      [148]: 1 transition_type 0x400-0x400.7 (1)
0x400|   02                                          | .              |      [149]: 2 transition_type 0x401-0x401.7 (1)
0x400|      01                                       |  .             |      [150]: 1 transition_type 0x402-0x402.7 (1)
0x400|         02                                    |   .            |      [151]: 2 transition_type 0x403-0x403.7 (1)
0x400|            01                                 |    .           |      [152]: 1 transition_type 0x404-0x404.7 (1)
0x400|               02                              |     .          |      [153]: 2 transition_type 0x405-0x405.7 (1)
0x400|                  01                           |      .         |      [154]: 1 transition_type 0x406-0x406.7 (1)
0x400|                     02                        |       .        |      [155]: 2 transition_type 0x407-0x407.7 (1)
0x400|                        01                     |        .       |      [156]: 1 transition_type 0x408-0x408.7 (1)
0x400|                           02                  |         .      |      [157]: 2 transition_type 0x409-0x409.7 (1)
0x400|                              01               |          .     |      [158]: 1 transition_type 0x40a-0x40a.7 (1)
0x400|                                 02            |           .    |      [159]: 2 transition_type 0x40b-0x40b.7 (1)
0x400|                                    01         |            .   |      [160]: 1 transition_type 0x40c-0x40c.7 (1)
0x400|                                       02      |             .  |      [161]: 2 transition_type 0x40d-0x40d.7 (1)
0x400|                                          01   |              . |      [162]: 1 transition_type 0x40e-0x40e.7 (1)
0x400|                                             02|               .|      [163]: 2 transition_type 0x40f-0x40f.7 (1)
0x410|01                                             |.               |      [164]: 1 transition_type 0x410-0x410.7 (1)
0x410|   02                                          | .              |      [165]: 2 transition_type 0x411-0x411.7 (1)
0x410|      01                                       |  .             |      [166]: 1 transition_type 0x412-0x412.7 (1)
0x410|         02                                    |   .            |      [167]: 2 transition_type 0x413-0x413.7 (1)
0x410|            01                                 |    .           |      [168]: 1 transition_type 0x414-0x414.7 (1)
0x410|               02                              |     .          |      [169]: 2 transition_type 0x415-0x415.7 (1)
0x410|                  01                           |      .         |      [170]: 1 transition_type 0x416-0x416.7 (1)
0x410|                     02                        |       .        |      [171]: 2 transition_type 0x417-0x417.7 (1)
0x410|                        01                     |        .       |      [172]: 1 transition_type 0x418-0x418.7 (1)
0x410|                           02                  |         .      |      [173]: 2 transition_type 0x419-0x419.7 (1)
0x410|                              01               |          .     |      [174]: 1 transition_type 0x41a-0x41a.7 (1)
0x410|                                 02            |           .    |      [175]: 2 transition_type 0x41b-0x41b.7 (1)
0x410|                                    01         |            .   |      [176]: 1 transition_type 0x41c-0x41c.7 (1)
0x410|                                       02      |             .  |      [177]: 2 transition_type 0x41d-0x41d.7 (1)
0x410|                                          01   |              . |      [178]: 1 transition_type 0x41e-0x41e.7 (1)
0x410|                                             02|               .|      [179]: 2 transition_type 0x41f-0x41f.7 (1)
0x420|01                                             |.               |      [180]: 1 transition_type 0x420-0x420.7 (1)
0x420|   02                                          | .              |      [181]: 2 transition_type 0x421-0x421.7 (1)
0x420|      01                                       |  .             |      [182]: 1 transition_type 0x422-0x422.7 (1)
0x420|         02                                    |   .            |      [183]: 2 transition_type 0x423-0x423.7 (1)
0x420|            01                                 |    .           |      [184]: 1 transition_type 0x424-0x424.7 (1)
0x420|               02                              |     .          |      [185]: 2 transition_type 0x425-0x425.7 (1)
0x420|                  01                           |      .         |      [186]: 1 transition_type 0x426-0x426.7 (1)
0x420|                     02                        |       .        |      [187]: 2 transition_type 0x427-0x427.7 (1)
0x420|                        01                     |        .       |      [188]: 1 transition_type 0x428-0x428.7 (1)
0x420|                           02                  |         .      |      [189]: 2 transition_type 0x429-0x429.7 (1)
0x420|                              01               |          .     |      [190]: 1 transition_type 0x42a-0x42a.7 (1)
0x420|                                 02            |           .    |      [191]: 2 transition_type 0x42b-0x42b.7 (1)
0x420|                                    01         |            .   |      [192]: 1 transition_type 0x42c-0x42c.7 (1)
0x420|                                       02      |             .  |      [193]: 2 transition_type 0x42d-0x42d.7 (1)
0x420|                                          01   |              . |      [194]: 1 transition_type 0x42e-0x42e.7 (1)
0x420|                                             02|               .|      [195]: 2 transition_type 0x42f-0x42f.7 (1)
0x430|01                                             |.               |      [196]: 1 transition_type 0x430-0x430.7 (1)
0x430|   02                                          | .              |      [197]: 2 transition_type 0x431-0x431.7 (1)
0x430|      01                                       |  .             |      [198]: 1 transition_type 0x432-0x432.7 (1)
0x430|         02                                    |   .            |      [199]: 2 transition_type 0x433-0x433.7 (1)
0x430|            01                                 |    .           |      [200]: 1 transition_type 0x434-0x434.7 (1)
0x430|               02                              |     .          |      [201]: 2 transition_type 0x435-0x435.7 (1)
0x430|                  01                           |      .         |      [202]: 1 transition_type 0x436-0x436.7 (1)
0x430|                     02                        |       .        |      [203]: 2 transition_type 0x437-0x437.7 (1)
0x430|                        01                     |        .       |      [204]: 1 transition_type 0x438-0x438.7 (1)
0x430|                           02                  |         .      |      [205]: 2 transition_type 0x439-0x439.7 (1)
0x430|                              01               |          .     |      [206]: 1 transition_type 0x43a-0x43a.7 (1)
0x430|                                 01            |           .    |      [207]: 1 transition_type 0x43b-0x43b.7 (1)
     |                                               |                |    local_time_type_records[0:8]: 0x43c-0x46b.7 (48)
     |                                               |                |      [0]{}: local_time_type 0x43c-0x441.7 (6)
0x430|                                    ff ff ad d4|            ....|        utoff: -21036 (valid) 0x43c-0x43f.7 (4)
0x440|00                                             |.               |        dst: 0 (valid) 0x440-0x440.7 (1)
0x440|   00                                          | .              |        idx: 0 (valid) 0x441-0x441.7 (1)
     |                                               |                |      [1]{}: local_time_type 0x442-0x447.7 (6)
0x440|      ff ff b9 b0                              |  ....          |        utoff: -18000 (valid) 0x442-0x445.7 (4)
0x440|                  01                           |      .         |        dst: 1 (valid) 0x446-0x446.7 (1)
0x440|                     04                        |       .        |        idx: 4 (valid) 0x447-0x447.7 (1)
     |                                               |                |      [2]{}: local_time_type 0x448-0x44d.7 (6)
0x440|                        ff ff ab a0            |        ....    |        utoff: -21600 (valid) 0x448-0x44b.7 (4)
0x440|                                    00         |            .   |        dst: 0 (valid) 0x44c-0x44c.7 (1)
0x440|                                       08      |             .  |        idx: 8 (valid) 0x44d-0x44d.7 (1)
     |                                               |                |      [3]{}: local_time_type 0x44e-0x453.7 (6)
0x440|                                          ff ff|              ..|        utoff: -21600 (valid) 0x44e-0x451.7 (4)
0x450|ab a0                                          |..              |
0x450|      00                                       |  .             |        dst: 0 (valid) 0x452-0x452.7 (1)
0x450|         08                                    |   .            |        idx: 8 (valid) 0x453-0x453.7 (1)
     |                                               |                |      [4]{}: local_time_type 0x454-0x459.7 (6)
0x450|            ff ff b9 b0                        |    ....        |        utoff: -18000 (valid) 0x454-0x457.7 (4)
0x450|                        00                     |        .       |        dst: 0 (valid) 0x458-0x458.7 (1)
0x450|                           0c                  |         .      |        idx: 12 (valid) 0x459-0x459.7 (1)
     |                                               |                |      [5]{}: local_time_type 0x45a-0x45f.7 (6)
0x450|                              ff ff b9 b0      |          ....  |        utoff: -18000 (valid) 0x45a-0x45d.7 (4)
0x450|                                          01   |              . |        dst: 1 (valid) 0x45e-0x45e.7 (1)
0x450|                                             10|               .|        idx: 16 (valid) 0x45f-0x45f.7 (1)
     |                                               |                |      [6]{}: local_time_type 0x460-0x465.7 (6)
0x460|ff ff b9 b0                                    |....            |        utoff: -18000 (valid) 0x460-0x463.7 (4)
0x460|            01                                 |    .           |        dst: 1 (valid) 0x464-0x464.7 (1)
0x460|               14                              |     .          |        idx: 20 (valid) 0x465-0x465.7 (1)
     |                                               |                |      [7]{}: local_time_type 0x466-0x46b.7 (6)
0x460|                  ff ff ab a0                  |      ....      |        utoff: -21600 (valid) 0x466-0x469.7 (4)
0x460|                              00               |          .     |        dst: 0 (valid) 0x46a-0x46a.7 (1)
0x460|                                 08            |           .    |        idx: 8 (valid) 0x46b-0x46b.7 (1)
     |                                               |                |    time_zone_designations[0:6]: 0x46c-0x483.7 (24)
0x460|                                    4c 4d 54 00|            LMT.|      [0]: "LMT" time_zone_designation 0x46c-0x46f.7 (4)
0x470|43 44 54 00                                    |CDT.            |      [1]: "CDT" time_zone_designation 0x470-0x473.7 (4)
0x470|            43 53 54 00                        |    CST.        |      [2]: "CST" time_zone_designation 0x474-0x477.7 (4)
0x470|                        45 53 54 00            |        EST.    |      [3]: "EST" time_zone_designation 0x478-0x47b.7 (4)
0x470|                                    43 57 54 00|            CWT.|      [4]: "CWT" time_zone_designation 0x47c-0x47f.7 (4)
0x480|43 50 54 00                                    |CPT.            |      [5]: "CPT" time_zone_designation 0x480-0x483.7 (4)
     |                                               |                |    leap_second_records[0:27]: 0x484-0x55b.7 (216)
     |                                               |                |      [0]{}: leap_second_record 0x484-0x48b.7 (8)
0x480|            04 b2 58 00                        |    ..X.        |        occur: "1972-07-01T00:00:00Z" (78796800) 0x484-0x487.7 (4)
0x480|                        00 00 00 01            |        ....    |        corr: 1 0x488-0x48b.7 (4)
     |                                               |                |      [1]{}: leap_second_record 0x48c-0x493.7 (8)
0x480|                                    05 a4 ec 01|            ....|        occur: "1973-01-01T00:00:01Z" (94694401) 0x48c-0x48f.7 (4)
0x490|00 00 00 02                                    |....            |        corr: 2 0x490-0x493.7 (4)
     |                                               |                |      [2]{}: leap_second_record 0x494-0x49b.7 (8)
0x490|            07 86 1f 82                        |    ....        |        occur: "1974-01-01T00:00:02Z" (126230402) 0x494-0x497.7 (4)
0x490|                        00 00 00 03            |        ....    |        corr: 3 0x498-0x49b.7 (4)
     |                                               |                |      [3]{}: leap_second_record 0x49c-0x4a3.7 (8)
0x490|                                    09 67 53 03|            .gS.|        occur: "1975-01-01T00:00:03Z" (157766403) 0x49c-0x49f.7 (4)
0x4a0|00 00 00 04                                    |....            |        corr: 4 0x4a0-0x4a3.7 (4)
     |                                               |                |      [4]{}: leap_second_record 0x4a4-0x4ab.7 (8)
0x4a0|            0b 48 86 84                        |    .H..        |        occur: "1976-01-01T00:00:04Z" (189302404) 0x4a4-0x4a7.7 (4)
0x4a0|                        00 00 00 05            |        ....    |        corr: 5 0x4a8-0x4ab.7 (4)
     |                                               |                |      [5]{}: leap_second_record 0x4ac-0x4b3.7 (8)
0x4a0|                                    0d 2b 0b 85|            .+..|        occur: "1977-01-01T00:00:05Z" (220924805) 0x4ac-0x4af.7 (4)
0x4b0|00 00 00 06                                    |....            |        corr: 6 0x4b0-0x4b3.7 (4)
     |                                               |                |      [6]{}: leap_second_record 0x4b4-0x4bb.7 (8)
0x4b0|            0f 0c 3f 06                        |    ..?.        |        occur: "1978-01-01T00:00:06Z" (252460806) 0x4b4-0x4b7.7 (4)
0x4b0|                        00 00 00 07            |        ....    |        corr: 7 0x4b8-0x4bb.7 (4)
     |                                               |                |      [7]{}: leap_second_record 0x4bc-0x4c3.7 (8)
0x4b0|                                    10 ed 72 87|            ..r.|        occur: "1979-01-01T00:00:07Z" (283996807) 0x4bc-0x4bf.7 (4)
0x4c0|00 00 00 08                                    |....            |        corr: 8 0x4c0-0x4c3.7 (4)
     |                                               |                |      [8]{}: leap_second_record 0x4c4-0x4cb.7 (8)
0x4c0|            12 ce a6 08                        |    ....        |        occur: "1980-01-01T00:00:08Z" (315532808) 0x4c4-0x4c7.7 (4)
0x4c0|                        00 00 00 09            |        ....    |        corr: 9 0x4c8-0x4cb.7 (4)
     |                                               |                |      [9]{}: leap_second_record 0x4cc-0x4d3.7 (8)
0x4c0|                                    15 9f ca 89|            ....|        occur: "1981-07-01T00:00:09Z" (362793609) 0x4cc-0x4cf.7 (4)
0x4d0|00 00 00 0a                                    |....            |        corr: 10 0x4d0-0x4d3.7 (4)
     |                                               |                |      [10]{}: leap_second_record 0x4d4-0x4db.7 (8)
0x4d0|            17 80 fe 0a                        |    ....        |        occur: "1982-07-01T00:00:10Z" (394329610) 0x4d4-0x4d7.7 (4)
0x4d0|                        00 00 00 0b            |        ....    |        corr: 11 0x4d8-0x4db.7 (4)
     |                                               |                |      [11]{}: leap_second_record 0x4dc-0x4e3.7 (8)
0x4d0|                                    19 62 31 8b|            .b1.|        occur: "1983-07-01T00:00:11Z" (425865611) 0x4dc-0x4df.7 (4)
0x4e0|00 00 00 0c                                    |....            |        corr: 12 0x4e0-0x4e3.7 (4)
     |                                               |                |      [12]{}: leap_second_record 0x4e4-0x4eb.7 (8)
0x4e0|            1d 25 ea 0c                        |    .%..        |        occur: "1985-07-01T00:00:12Z" (489024012) 0x4e4-0x4e7.7 (4)
0x4e0|                        00 00 00 0d            |        ....    |        corr: 13 0x4e8-0x4eb.7 (4)
     |                                               |                |      [13]{}: leap_second_record 0x4ec-0x4f3.7 (8)
0x4e0|                                    21 da e5 0d|            !...|        occur: "1988-01-01T00:00:13Z" (567993613) 0x4ec-0x4ef.7 (4)
0x4f0|00 00 00 0e                                    |....            |        corr: 14 0x4f0-0x4f3.7 (4)
     |                                               |                |      [14]{}: leap_second_record 0x4f4-0x4fb.7 (8)
0x4f0|            25 9e 9d 8e                        |    %...        |        occur: "1990-01-01T00:00:14Z" (631152014) 0x4f4-0x4f7.7 (4)
0x4f0|                        00 00 00 0f            |        ....    |        corr: 15 0x4f8-0x4fb.7 (4)
     |                                               |                |      [15]{}: leap_second_record 0x4fc-0x503.7 (8)
0x4f0|                                    27 7f d1 0f|            '...|        occur: "1991-01-01T00:00:15Z" (662688015) 0x4fc-0x4ff.7 (4)
0x500|00 00 00 10                                    |....            |        corr: 16 0x500-0x503.7 (4)
     |                                               |                |      [16]{}: leap_second_record 0x504-0x50b.7 (8)
0x500|            2a 50 f5 90                        |    *P..        |        occur: "1992-07-01T00:00:16Z" (709948816) 0x504-0x507.7 (4)
0x500|                        00 00 00 11            |        ....    |        corr: 17 0x508-0x50b.7 (4)
     |                                               |                |      [17]{}: leap_second_record 0x50c-0x513.7 (8)
0x500|                                    2c 32 29 11|            ,2).|        occur: "1993-07-01T00:00:17Z" (741484817) 0x50c-0x50f.7 (4)
0x510|00 00 00 12                                    |....            |        corr: 18 0x510-0x513.7 (4)
     |                                               |                |      [18]{}: leap_second_record 0x514-0x51b.7 (8)
0x510|            2e 13 5c 92                        |    ..\.        |        occur: "1994-07-01T00:00:18Z" (773020818) 0x514-0x517.7 (4)
0x510|                        00 00 00 13            |        ....    |        corr: 19 0x518-0x51b.7 (4)
     |                                               |                |      [19]{}: leap_second_record 0x51c-0x523.7 (8)
0x510|                                    30 e7 24 13|            0.$.|        occur: "1996-01-01T00:00:19Z" (820454419) 0x51c-0x51f.7 (4)
0x520|00 00 00 14                                    |....            |        corr: 20 0x520-0x523.7 (4)
     |                                               |                |      [20]{}: leap_second_record 0x524-0x52b.7 (8)
0x520|            33 b8 48 94                        |    3.H.        |        occur: "1997-07-01T00:00:20Z" (867715220) 0x524-0x527.7 (4)
0x520|                        00 00 00 15            |        ....    |        corr: 21 0x528-0x52b.7 (4)
     |                                               |                |      [21]{}: leap_second_record 0x52c-0x533.7 (8)
0x520|                                    36 8c 10 15|            6...|        occur: "1999-01-01T00:00:21Z" (915148821) 0x52c-0x52f.7 (4)
0x530|00 00 00 16                                    |....            |        corr: 22 0x530-0x533.7 (4)
     |                                               |                |      [22]{}: leap_second_record 0x534-0x53b.7 (8)
0x530|            43 b7 1b 96                        |    C...        |        occur: "2006-01-01T00:00:22Z" (1136073622) 0x534-0x537.7 (4)
0x530|                        00 00 00 17            |        ....    |        corr: 23 0x538-0x53b.7 (4)
     |                                               |                |      [23]{}: leap_second_record 0x53c-0x543.7 (8)
0x530|                                    49 5c 07 97|            I\..|        occur: "2009-01-01T00:00:23Z" (1230768023) 0x53c-0x53f.7 (4)
0x540|00 00 00 18                                    |....            |        corr: 24 0x540-0x543.7 (4)
     |                                               |                |      [24]{}: leap_second_record 0x544-0x54b.7 (8)
0x540|            4f ef 93 18                        |    O...        |        occur: "2012-07-01T00:00:24Z" (1341100824) 0x544-0x547.7 (4)
0x540|                        00 00 00 19            |        ....    |        corr: 25 0x548-0x54b.7 (4)
     |                                               |                |      [25]{}: leap_second_record 0x54c-0x553.7 (8)
0x540|                                    55 93 2d 99|            U.-.|        occur: "2015-07-01T00:00:25Z" (1435708825) 0x54c-0x54f.7 (4)
0x550|00 00 00 1a                                    |....            |        corr: 26 0x550-0x553.7 (4)
     |                                               |                |      [26]{}: leap_second_record 0x554-0x55b.7 (8)
0x550|            58 68 46 9a                        |    XhF.        |        occur: "2017-01-01T00:00:26Z" (1483228826) 0x554-0x557.7 (4)
0x550|                        00 00 00 1b            |        ....    |        corr: 27 0x558-0x55b.7 (4)
     |                                               |                |    standard_wall_indicators[0:8]: 0x55c-0x563.7 (8)
0x550|                                    00         |            .   |      [0]: 0 standard_wall_indicator (valid) 0x55c-0x55c.7 (1)
0x550|                                       00      |             .  |      [1]: 0 standard_wall_indicator (valid) 0x55d-0x55d.7 (1)
0x550|                                          00   |              . |      [2]: 0 standard_wall_indicator (valid) 0x55e-0x55e.7 (1)
0x550|                                             01|               .|      [3]: 1 standard_wall_indicator (valid) 0x55f-0x55f.7 (1)
0x560|00                                             |.               |      [4]: 0 standard_wall_indicator (valid) 0x560-0x560.7 (1)
0x560|   00                                          | .              |      [5]: 0 standard_wall_indicator (valid) 0x561-0x561.7 (1)
0x560|      01                                       |  .             |      [6]: 1 standard_wall_indicator (valid) 0x562-0x562.7 (1)
0x560|         00                                    |   .            |      [7]: 0 standard_wall_indicator (valid) 0x563-0x563.7 (1)
     |                                               |                |    ut_local_indicators[0:8]: 0x564-0x56b.7 (8)
0x560|            00                                 |    .           |      [0]: 0 ut_local_indicator (valid) 0x564-0x564.7 (1)
0x560|               00                              |     .          |      [1]: 0 ut_local_indicator (valid) 0x565-0x565.7 (1)
0x560|                  00                           |      .         |      [2]: 0 ut_local_indicator (valid) 0x566-0x566.7 (1)
0x560|                     01                        |       .        |      [3]: 1 ut_local_indicator (valid) 0x567-0x567.7 (1)
0x560|                        00                     |        .       |      [4]: 0 ut_local_indicator (valid) 0x568-0x568.7 (1)
0x560|                           00                  |         .      |      [5]: 0 ut_local_indicator (valid) 0x569-0x569.7 (1)
0x560|                              01               |          .     |      [6]: 1 ut_local_indicator (valid) 0x56a-0x56a.7 (1)
0x560|                                 00            |           .    |      [7]: 0 ut_local_indicator (valid) 0x56b-0x56b.7 (1)
     |                                               |                |  v2plusheader{}: 0x56c-0x597.7 (44)
0x560|                                    54 5a 69 66|            TZif|    magic: 0x545a6966 (valid) 0x56c-0x56f.7 (4)
0x570|32                                             |2               |    ver: "2" (0x32) (valid) 0x570-0x570.7 (1)
0x570|   00 00 00 00 00 00 00 00 00 00 00 00 00 00 00| ...............|    reserved: raw bits 0x571-0x57f.7 (15)
0x580|00 00 00 08                                    |....            |    isutcnt: 8 0x580-0x583.7 (4)
0x580|            00 00 00 08                        |    ....        |    isstdcnt: 8 0x584-0x587.7 (4)
0x580|                        00 00 00 1b            |        ....    |    leapcnt: 27 0x588-0x58b.7 (4)
0x580|                                    00 00 00 d0|            ....|    timecnt: 208 0x58c-0x58f.7 (4)
0x590|00 00 00 08                                    |....            |    typecnt: 8 0x590-0x593.7 (4)
0x590|            00 00 00 18                        |    ....        |    charcnt: 24 0x594-0x597.7 (4)
     |                                               |                |  v2plusdatablock{}: 0x598-0xe83.7 (2284)
     |                                               |                |    transition_times[0:208]: 0x598-0xc17.7 (1664)
0x590|                        ff ff ff ff 5e 03 fe a0|        ....^...|      [0]: "1883-11-18T18:00:00Z" (-2717647200) transition_time 0x598-0x59f.7 (8)
0x5a0|ff ff ff ff 9e a6 2c 80                        |......,.        |      [1]: "1918-03-31T08:00:00Z" (-1633276800) transition_time 0x5a0-0x5a7.7 (8)
0x5a0|                        ff ff ff ff 9f ba f9 70|        .......p|      [2]: "1918-10-27T07:00:00Z" (-1615136400) transition_time 0x5a8-0x5af.7 (8)
0x5b0|ff ff ff ff a0 86 0e 80                        |........        |      [3]: "1919-03-30T08:00:00Z" (-1601827200) transition_time 0x5b0-0x5b7.7 (8)
0x5b0|                        ff ff ff ff a1 9a db 70|        .......p|      [4]: "1919-10-26T07:00:00Z" (-1583686800) transition_time 0x5b8-0x5bf.7 (8)
0x5c0|ff ff ff ff a2 cb 74 00                        |......t.        |      [5]: "1920-06-13T08:00:00Z" (-1563724800) transition_time 0x5c0-0x5c7.7 (8)
0x5c0|                        ff ff ff ff a3 83 f7 f0|        ........|      [6]: "1920-10-31T07:00:00Z" (-1551632400) transition_time 0x5c8-0x5cf.7 (8)
0x5d0|ff ff ff ff a4 45 d2 80                        |.....E..        |      [7]: "1921-03-27T08:00:00Z" (-1538928000) transition_time 0x5d0-0x5d7.7 (8)
0x5d0|                        ff ff ff ff a5 63 d9 f0|        .....c..|      [8]: "1921-10-30T07:00:00Z" (-1520182800) transition_time 0x5d8-0x5df.7 (8)
0x5e0|ff ff ff ff a6 53 d9 00                        |.....S..        |      [9]: "1922-04-30T08:00:00Z" (-1504454400) transition_time 0x5e0-0x5e7.7 (8)
0x5e0|                        ff ff ff ff a7 15 97 70|        .......p|      [10]: "1922-09-24T07:00:00Z" (-1491757200) transition_time 0x5e8-0x5ef.7 (8)
0x5f0|ff ff ff ff a8 33 bb 00                        |.....3..        |      [11]: "1923-04-29T08:00:00Z" (-1473004800) transition_time 0x5f0-0x5f7.7 (8)
0x5f0|                        ff ff ff ff a8 fe b3 f0|        ........|      [12]: "1923-09-30T07:00:00Z" (-1459702800) transition_time 0x5f8-0x5ff.7 (8)
0x600|ff ff ff ff aa 13 9d 00                        |........        |      [13]: "1924-04-27T08:00:00Z" (-1441555200) transition_time 0x600-0x607.7 (8)
0x600|                        ff ff ff ff aa de 95 f0|        ........|      [14]: "1924-09-28T07:00:00Z" (-1428253200) transition_time 0x608-0x60f.7 (8)
0x610|ff ff ff ff ab f3 7f 00                        |........        |      [15]: "1925-04-26T08:00:00Z" (-1410105600) transition_time 0x610-0x617.7 (8)
0x610|                        ff ff ff ff ac be 77 f0|        ......w.|      [16]: "1925-09-27T07:00:00Z" (-1396803600) transition_time 0x618-0x61f.7 (8)
0x620|ff ff ff ff ad d3 61 00                        |......a.        |      [17]: "1926-04-25T08:00:00Z" (-1378656000) transition_time 0x620-0x627.7 (8)
0x620|                        ff ff ff ff ae 9e 59 f0|        ......Y.|      [18]: "1926-09-26T07:00:00Z" (-1365354000) transition_time 0x628-0x62f.7 (8)
0x630|ff ff ff ff af b3 43 00                        |......C.        |      [19]: "1927-04-24T08:00:00Z" (-1347206400) transition_time 0x630-0x637.7 (8)
0x630|                        ff ff ff ff b0 7e 3b f0|        .....~;.|      [20]: "1927-09-25T07:00:00Z" (-1333904400) transition_time 0x638-0x63f.7 (8)
0x640|ff ff ff ff b1 9c 5f 80                        |......_.        |      [21]: "1928-04-29T08:00:00Z" (-1315152000) transition_time 0x640-0x647.7 (8)
0x640|                        ff ff ff ff b2 67 58 70|        .....gXp|      [22]: "1928-09-30T07:00:00Z" (-1301850000) transition_time 0x648-0x64f.7 (8)
0x650|ff ff ff ff b3 7c 41 80                        |.....|A.        |      [23]: "1929-04-28T08:00:00Z" (-1283702400) transition_time 0x650-0x657.7 (8)
0x650|                        ff ff ff ff b4 47 3a 70|        .....G:p|      [24]: "1929-09-29T07:00:00Z" (-1270400400) transition_time 0x658-0x65f.7 (8)
0x660|ff ff ff ff b5 5c 23 80                        |.....\#.        |      [25]: "1930-04-27T08:00:00Z" (-1252252800) transition_time 0x660-0x667.7 (8)
0x660|                        ff ff ff ff b6 27 1c 70|        .....'.p|      [26]: "1930-09-28T07:00:00Z" (-1238950800) transition_time 0x668-0x66f.7 (8)
0x670|ff ff ff ff b7 3c 05 80                        |.....<..        |      [27]: "1931-04-26T08:00:00Z" (-1220803200) transition_time 0x670-0x677.7 (8)
0x670|                        ff ff ff ff b8 06 fe 70|        .......p|      [28]: "1931-09-27T07:00:00Z" (-1207501200) transition_time 0x678-0x67f.7 (8)
0x680|ff ff ff ff b9 1b e7 80                        |........        |      [29]: "1932-04-24T08:00:00Z" (-1189353600) transition_time 0x680-0x687.7 (8)
0x680|                        ff ff ff ff b9 e6 e0 70|        .......p|      [30]: "1932-09-25T07:00:00Z" (-1176051600) transition_time 0x688-0x68f.7 (8)
0x690|ff ff ff ff bb 05 04 00                        |........        |      [31]: "1933-04-30T08:00:00Z" (-1157299200) transition_time 0x690-0x697.7 (8)
0x690|                        ff ff ff ff bb c6 c2 70|        .......p|      [32]: "1933-09-24T07:00:00Z" (-1144602000) transition_time 0x698-0x69f.7 (8)
0x6a0|ff ff ff ff bc e4 e6 00                        |........        |      [33]: "1934-04-29T08:00:00Z" (-1125849600) transition_time 0x6a0-0x6a7.7 (8)
0x6a0|                        ff ff ff ff bd af de f0|        ........|      [34]: "1934-09-30T07:00:00Z" (-1112547600) transition_time 0x6a8-0x6af.7 (8)
0x6b0|ff ff ff ff be c4 c8 00                        |........        |      [35]: "1935-04-28T08:00:00Z" (-1094400000) transition_time 0x6b0-0x6b7.7 (8)
0x6b0|                        ff ff ff ff bf 8f c0 f0|        ........|      [36]: "1935-09-29T07:00:00Z" (-1081098000) transition_time 0x6b8-0x6bf.7 (8)
0x6c0|ff ff ff ff c0 5a d6 00                        |.....Z..        |      [37]: "1936-03-01T08:00:00Z" (-1067788800) transition_time 0x6c0-0x6c7.7 (8)
0x6c0|                        ff ff ff ff c1 b0 3c 70|        ......<p|      [38]: "1936-11-15T07:00:00Z" (-1045414800) transition_time 0x6c8-0x6cf.7 (8)
0x6d0|ff ff ff ff c2 84 8c 00                        |........        |      [39]: "1937-04-25T08:00:00Z" (-1031500800) transition_time 0x6d0-0x6d7.7 (8)
0x6d0|                        ff ff ff ff c3 4f 84 f0|        .....O..|      [40]: "1937-09-26T07:00:00Z" (-1018198800) transition_time 0x6d8-0x6df.7 (8)
0x6e0|ff ff ff ff c4 64 6e 00                        |.....dn.        |      [41]: "1938-04-24T08:00:00Z" (-1000051200) transition_time 0x6e0-0x6e7.7 (8)
0x6e0|                        ff ff ff ff c5 2f 66 f0|        ...../f.|      [42]: "1938-09-25T07:00:00Z" (-986749200) transition_time 0x6e8-0x6ef.7 (8)
0x6f0|ff ff ff ff c6 4d 8a 80                        |.....M..        |      [43]: "1939-04-30T08:00:00Z" (-967996800) transition_time 0x6f0-0x6f7.7 (8)
0x6f0|                        ff ff ff ff c7 0f 48 f0|        ......H.|      [44]: "1939-09-24T07:00:00Z" (-955299600) transition_time 0x6f8-0x6ff.7 (8)
0x700|ff ff ff ff c8 2d 6c 80                        |.....-l.        |      [45]: "1940-04-28T08:00:00Z" (-936547200) transition_time 0x700-0x707.7 (8)
0x700|                        ff ff ff ff c8 f8 65 70|        ......ep|      [46]: "1940-09-29T07:00:00Z" (-923245200) transition_time 0x708-0x70f.7 (8)
0x710|ff ff ff ff ca 0d 4e 80                        |......N.        |      [47]: "1941-04-27T08:00:00Z" (-905097600) transition_time 0x710-0x717.7 (8)
0x710|                        ff ff ff ff ca d8 47 70|        ......Gp|      [48]: "1941-09-28T07:00:00Z" (-891795600) transition_time 0x718-0x71f.7 (8)
0x720|ff ff ff ff cb 88 fe 80                        |........        |      [49]: "1942-02-09T08:00:00Z" (-880214400) transition_time 0x720-0x727.7 (8)
0x720|                        ff ff ff ff d2 23 f4 70|        .....#.p|      [50]: "1945-08-14T23:00:00Z" (-769395600) transition_time 0x728-0x72f.7 (8)
0x730|ff ff ff ff d2 61 09 f0                        |.....a..        |      [51]: "1945-09-30T07:00:00Z" (-765392400) transition_time 0x730-0x737.7 (8)
0x730|                        ff ff ff ff d3 75 f3 00|        .....u..|      [52]: "1946-04-28T08:00:00Z" (-747244800) transition_time 0x738-0x73f.7 (8)
0x740|ff ff ff ff d4 40 eb f0                        |.....@..        |      [53]: "1946-09-29T07:00:00Z" (-733942800) transition_time 0x740-0x747.7 (8)
0x740|                        ff ff ff ff d5 55 d5 00|        .....U..|      [54]: "1947-04-27T08:00:00Z" (-715795200) transition_time 0x748-0x74f.7 (8)
0x750|ff ff ff ff d6 20 cd f0                        |..... ..        |      [55]: "1947-09-28T07:00:00Z" (-702493200) transition_time 0x750-0x757.7 (8)
0x750|                        ff ff ff ff d7 35 b7 00|        .....5..|      [56]: "1948-04-25T08:00:00Z" (-684345600) transition_time 0x758-0x75f.7 (8)
0x760|ff ff ff ff d8 00 af f0                        |........        |      [57]: "1948-09-26T07:00:00Z" (-671043600) transition_time 0x760-0x767.7 (8)
0x760|                        ff ff ff ff d9 15 99 00|        ........|      [58]: "1949-04-24T08:00:00Z" (-652896000) transition_time 0x768-0x76f.7 (8)
0x770|ff ff ff ff d9 e0 91 f0                        |........        |      [59]: "1949-09-25T07:00:00Z" (-639594000) transition_time 0x770-0x777.7 (8)
0x770|                        ff ff ff ff da fe b5 80|        ........|      [60]: "1950-04-30T08:00:00Z" (-620841600) transition_time 0x778-0x77f.7 (8)
0x780|ff ff ff ff db c0 73 f0                        |......s.        |      [61]: "1950-09-24T07:00:00Z" (-608144400) transition_time 0x780-0x787.7 (8)
0x780|                        ff ff ff ff dc de 97 80|        ........|      [62]: "1951-04-29T08:00:00Z" (-589392000) transition_time 0x788-0x78f.7 (8)
0x790|ff ff ff ff dd a9 90 70                        |.......p        |      [63]: "1951-09-30T07:00:00Z" (-576090000) transition_time 0x790-0x797.7 (8)
0x790|                        ff ff ff ff de be 79 80|        ......y.|      [64]: "1952-04-27T08:00:00Z" (-557942400) transition_time 0x798-0x79f.7 (8)
0x7a0|ff ff ff ff df 89 72 70                        |......rp        |      [65]: "1952-09-28T07:00:00Z" (-544640400) transition_time 0x7a0-0x7a7.7 (8)
0x7a0|                        ff ff ff ff e0 9e 5b 80|        ......[.|      [66]: "1953-04-26T08:00:00Z" (-526492800) transition_time 0x7a8-0x7af.7 (8)
0x7b0|ff ff ff ff e1 69 54 70                        |.....iTp        |      [67]: "1953-09-27T07:00:00Z" (-513190800) transition_time 0x7b0-0x7b7.7 (8)
0x7b0|                        ff ff ff ff e2 7e 3d 80|        .....~=.|      [68]: "1954-04-25T08:00:00Z" (-495043200) transition_time 0x7b8-0x7bf.7 (8)
0x7c0|ff ff ff ff e3 49 36 70                        |.....I6p        |      [69]: "1954-09-26T07:00:00Z" (-481741200) transition_time 0x7c0-0x7c7.7 (8)
0x7c0|                        ff ff ff ff e4 5e 1f 80|        .....^..|      [70]: "1955-04-24T08:00:00Z" (-463593600) transition_time 0x7c8-0x7cf.7 (8)
0x7d0|ff ff ff ff e5 57 3c f0                        |.....W<.        |      [71]: "1955-10-30T07:00:00Z" (-447267600) transition_time 0x7d0-0x7d7.7 (8)
0x7d0|                        ff ff ff ff e6 47 3c 00|        .....G<.|      [72]: "1956-04-29T08:00:00Z" (-431539200) transition_time 0x7d8-0x7df.7 (8)
0x7e0|ff ff ff ff e7 37 1e f0                        |.....7..        |      [73]: "1956-10-28T07:00:00Z" (-415818000) transition_time 0x7e0-0x7e7.7 (8)
0x7e0|                        ff ff ff ff e8 27 1e 00|        .....'..|      [74]: "1957-04-28T08:00:00Z" (-400089600) transition_time 0x7e8-0x7ef.7 (8)
0x7f0|ff ff ff ff e9 17 00 f0                        |........        |      [75]: "1957-10-27T07:00:00Z" (-384368400) transition_time 0x7f0-0x7f7.7 (8)
0x7f0|                        ff ff ff ff ea 07 00 00|        ........|      [76]: "1958-04-27T08:00:00Z" (-368640000) transition_time 0x7f8-0x7ff.7 (8)
0x800|ff ff ff ff ea f6 e2 f0                        |........        |      [77]: "1958-10-26T07:00:00Z" (-352918800) transition_time 0x800-0x807.7 (8)
0x800|                        ff ff ff ff eb e6 e2 00|        ........|      [78]: "1959-04-26T08:00:00Z" (-337190400) transition_time 0x808-0x80f.7 (8)
0x810|ff ff ff ff ec d6 c4 f0                        |........        |      [79]: "1959-10-25T07:00:00Z" (-321469200) transition_time 0x810-0x817.7 (8)
0x810|                        ff ff ff ff ed c6 c4 00|        ........|      [80]: "1960-04-24T08:00:00Z" (-305740800) transition_time 0x818-0x81f.7 (8)
0x820|ff ff ff ff ee bf e1 70                        |.......p        |      [81]: "1960-10-30T07:00:00Z" (-289414800) transition_time 0x820-0x827.7 (8)
0x820|                        ff ff ff ff ef af e0 80|        ........|      [82]: "1961-04-30T08:00:00Z" (-273686400) transition_time 0x828-0x82f.7 (8)
0x830|ff ff ff ff f0 9f c3 70                        |.......p        |      [83]: "1961-10-29T07:00:00Z" (-257965200) transition_time 0x830-0x837.7 (8)
0x830|                        ff ff ff ff f1 8f c2 80|        ........|      [84]: "1962-04-29T08:00:00Z" (-242236800) transition_time 0x838-0x83f.7 (8)
0x840|ff ff ff ff f2 7f a5 70                        |.......p        |      [85]: "1962-10-28T07:00:00Z" (-226515600) transition_time 0x840-0x847.7 (8)
0x840|                        ff ff ff ff f3 6f a4 80|        .....o..|      [86]: "1963-04-28T08:00:00Z" (-210787200) transition_time 0x848-0x84f.7 (8)
0x850|ff ff ff ff f4 5f 87 70                        |....._.p        |      [87]: "1963-10-27T07:00:00Z" (-195066000) transition_time 0x850-0x857.7 (8)
0x850|                        ff ff ff ff f5 4f 86 80|        .....O..|      [88]: "1964-04-26T08:00:00Z" (-179337600) transition_time 0x858-0x85f.7 (8)
0x860|ff ff ff ff f6 3f 69 70                        |.....?ip        |      [89]: "1964-10-25T07:00:00Z" (-163616400) transition_time 0x860-0x867.7 (8)
0x860|                        ff ff ff ff f7 2f 68 80|        ...../h.|      [90]: "1965-04-25T08:00:00Z" (-147888000) transition_time 0x868-0x86f.7 (8)
0x870|ff ff ff ff f8 28 85 f0                        |.....(..        |      [91]: "1965-10-31T07:00:00Z" (-131562000) transition_time 0x870-0x877.7 (8)
0x870|                        ff ff ff ff f9 0f 4a 80|        ......J.|      [92]: "1966-04-24T08:00:00Z" (-116438400) transition_time 0x878-0x87f.7 (8)
0x880|ff ff ff ff fa 08 67 f0                        |......g.        |      [93]: "1966-10-30T07:00:00Z" (-100112400) transition_time 0x880-0x887.7 (8)
0x880|                        ff ff ff ff fa f8 67 00|        ......g.|      [94]: "1967-04-30T08:00:00Z" (-84384000) transition_time 0x888-0x88f.7 (8)
0x890|ff ff ff ff fb e8 49 f0                        |......I.        |      [95]: "1967-10-29T07:00:00Z" (-68662800) transition_time 0x890-0x897.7 (8)
0x890|                        ff ff ff ff fc d8 49 00|        ......I.|      [96]: "1968-04-28T08:00:00Z" (-52934400) transition_time 0x898-0x89f.7 (8)
0x8a0|ff ff ff ff fd c8 2b f0                        |......+.        |      [97]: "1968-10-27T07:00:00Z" (-37213200) transition_time 0x8a0-0x8a7.7 (8)
0x8a0|                        ff ff ff ff fe b8 2b 00|        ......+.|      [98]: "1969-04-27T08:00:00Z" (-21484800) transition_time 0x8a8-0x8af.7 (8)
0x8b0|ff ff ff ff ff a8 0d f0                        |........        |      [99]: "1969-10-26T07:00:00Z" (-5763600) transition_time 0x8b0-0x8b7.7 (8)
0x8b0|                        00 00 00 00 00 98 0d 00|        ........|      [100]: "1970-04-26T08:00:00Z" (9964800) transition_time 0x8b8-0x8bf.7 (8)
0x8c0|00 00 00 00 01 87 ef f0                        |........        |      [101]: "1970-10-25T07:00:00Z" (25686000) transition_time 0x8c0-0x8c7.7 (8)
0x8c0|                        00 00 00 00 02 77 ef 00|        .....w..|      [102]: "1971-04-25T08:00:00Z" (41414400) transition_time 0x8c8-0x8cf.7 (8)
0x8d0|00 00 00 00 03 71 0c 70                        |.....q.p        |      [103]: "1971-10-31T07:00:00Z" (57740400) transition_time 0x8d0-0x8d7.7 (8)
0x8d0|                        00 00 00 00 04 61 0b 80|        .....a..|      [104]: "1972-04-30T08:00:00Z" (73468800) transition_time 0x8d8-0x8df.7 (8)
0x8e0|00 00 00 00 05 50 ee 71                        |.....P.q        |      [105]: "1972-10-29T07:00:01Z" (89190001) transition_time 0x8e0-0x8e7.7 (8)
0x8e0|                        00 00 00 00 06 40 ed 82|        .....@..|      [106]: "1973-04-29T08:00:02Z" (104918402) transition_time 0x8e8-0x8ef.7 (8)
0x8f0|00 00 00 00 07 30 d0 72                        |.....0.r        |      [107]: "1973-10-28T07:00:02Z" (120639602) transition_time 0x8f0-0x8f7.7 (8)
0x8f0|                        00 00 00 00 07 8d 27 83|        ......'.|      [108]: "1974-01-06T08:00:03Z" (126691203) transition_time 0x8f8-0x8ff.7 (8)
0x900|00 00 00 00 09 10 b2 73                        |.......s        |      [109]: "1974-10-27T07:00:03Z" (152089203) transition_time 0x900-0x907.7 (8)
0x900|                        00 00 00 00 09 ad a3 04|        ........|      [110]: "1975-02-23T08:00:04Z" (162374404) transition_time 0x908-0x90f.7 (8)
0x910|00 00 00 00 0a f0 94 74                        |.......t        |      [111]: "1975-10-26T07:00:04Z" (183538804) transition_time 0x910-0x917.7 (8)
0x910|                        00 00 00 00 0b e0 93 85|        ........|      [112]: "1976-04-25T08:00:05Z" (199267205) transition_time 0x918-0x91f.7 (8)
0x920|00 00 00 00 0c d9 b0 f5                        |........        |      [113]: "1976-10-31T07:00:05Z" (215593205) transition_time 0x920-0x927.7 (8)
0x920|                        00 00 00 00 0d c0 75 86|        ......u.|      [114]: "1977-04-24T08:00:06Z" (230716806) transition_time 0x928-0x92f.7 (8)
0x930|00 00 00 00 0e b9 92 f6                        |........        |      [115]: "1977-10-30T07:00:06Z" (247042806) transition_time 0x930-0x937.7 (8)
0x930|                        00 00 00 00 0f a9 92 07|        ........|      [116]: "1978-04-30T08:00:07Z" (262771207) transition_time 0x938-0x93f.7 (8)
0x940|00 00 00 00 10 99 74 f7                        |......t.        |      [117]: "1978-10-29T07:00:07Z" (278492407) transition_time 0x940-0x947.7 (8)
0x940|                        00 00 00 00 11 89 74 08|        ......t.|      [118]: "1979-04-29T08:00:08Z" (294220808) transition_time 0x948-0x94f.7 (8)
0x950|00 00 00 00 12 79 56 f8                        |.....yV.        |      [119]: "1979-10-28T07:00:08Z" (309942008) transition_time 0x950-0x957.7 (8)
0x950|                        00 00 00 00 13 69 56 09|        .....iV.|      [120]: "1980-04-27T08:00:09Z" (325670409) transition_time 0x958-0x95f.7 (8)
0x960|00 00 00 00 14 59 38 f9                        |.....Y8.        |      [121]: "1980-10-26T07:00:09Z" (341391609) transition_time 0x960-0x967.7 (8)
0x960|                        00 00 00 00 15 49 38 09|        .....I8.|      [122]: "1981-04-26T08:00:09Z" (357120009) transition_time 0x968-0x96f.7 (8)
0x970|00 00 00 00 16 39 1a fa                        |.....9..        |      [123]: "1981-10-25T07:00:10Z" (372841210) transition_time 0x970-0x977.7 (8)
0x970|                        00 00 00 00 17 29 1a 0a|        .....)..|      [124]: "1982-04-25T08:00:10Z" (388569610) transition_time 0x978-0x97f.7 (8)
0x980|00 00 00 00 18 22 37 7b                        |....."7{        |      [125]: "1982-10-31T07:00:11Z" (404895611) transition_time 0x980-0x987.7 (8)
0x980|                        00 00 00 00 19 08 fc 0b|        ........|      [126]: "1983-04-24T08:00:11Z" (420019211) transition_time 0x988-0x98f.7 (8)
0x990|00 00 00 00 1a 02 19 7c                        |.......|        |      [127]: "1983-10-30T07:00:12Z" (436345212) transition_time 0x990-0x997.7 (8)
0x990|                        00 00 00 00 1a f2 18 8c|        ........|      [128]: "1984-04-29T08:00:12Z" (452073612) transition_time 0x998-0x99f.7 (8)
0x9a0|00 00 00 00 1b e1 fb 7c                        |.......|        |      [129]: "1984-10-28T07:00:12Z" (467794812) transition_time 0x9a0-0x9a7.7 (8)
0x9a0|                        00 00 00 00 1c d1 fa 8c|        ........|      [130]: "1985-04-28T08:00:12Z" (483523212) transition_time 0x9a8-0x9af.7 (8)
0x9b0|00 00 00 00 1d c1 dd 7d                        |.......}        |      [131]: "1985-10-27T07:00:13Z" (499244413) transition_time 0x9b0-0x9b7.7 (8)
0x9b0|                        00 00 00 00 1e b1 dc 8d|        ........|      [132]: "1986-04-27T08:00:13Z" (514972813) transition_time 0x9b8-0x9bf.7 (8)
0x9c0|00 00 00 00 1f a1 bf 7d                        |.......}        |      [133]: "1986-10-26T07:00:13Z" (530694013) transition_time 0x9c0-0x9c7.7 (8)
0x9c0|                        00 00 00 00 20 76 0f 0d|        .... v..|      [134]: "1987-04-05T08:00:13Z" (544608013) transition_time 0x9c8-0x9cf.7 (8)
0x9d0|00 00 00 00 21 81 a1 7d                        |....!..}        |      [135]: "1987-10-25T07:00:13Z" (562143613) transition_time 0x9d0-0x9d7.7 (8)
0x9d0|                        00 00 00 00 22 55 f1 0e|        ...."U..|      [136]: "1988-04-03T08:00:14Z" (576057614) transition_time 0x9d8-0x9df.7 (8)
0x9e0|00 00 00 00 23 6a bd fe                        |....#j..        |      [137]: "1988-10-30T07:00:14Z" (594198014) transition_time 0x9e0-0x9e7.7 (8)
0x9e0|                        00 00 00 00 24 35 d3 0e|        ....$5..|      [138]: "1989-04-02T08:00:14Z" (607507214) transition_time 0x9e8-0x9ef.7 (8)
0x9f0|00 00 00 00 25 4a 9f fe                        |....%J..        |      [139]: "1989-10-29T07:00:14Z" (625647614) transition_time 0x9f0-0x9f7.7 (8)
0x9f0|                        00 00 00 00 26 15 b5 0f|        ....&...|      [140]: "1990-04-01T08:00:15Z" (638956815) transition_time 0x9f8-0x9ff.7 (8)
0xa00|00 00 00 00 27 2a 81 ff                        |....'*..        |      [141]: "1990-10-28T07:00:15Z" (657097215) transition_time 0xa00-0xa07.7 (8)
0xa00|                        00 00 00 00 27 fe d1 90|        ....'...|      [142]: "1991-04-07T08:00:16Z" (671011216) transition_time 0xa08-0xa0f.7 (8)
0xa10|00 00 00 00 29 0a 64 00                        |....).d.        |      [143]: "1991-10-27T07:00:16Z" (688546816) transition_time 0xa10-0xa17.7 (8)
0xa10|                        00 00 00 00 29 de b3 90|        ....)...|      [144]: "1992-04-05T08:00:16Z" (702460816) transition_time 0xa18-0xa1f.7 (8)
0xa20|00 00 00 00 2a ea 46 01                        |....*.F.        |      [145]: "1992-10-25T07:00:17Z" (719996417) transition_time 0xa20-0xa27.7 (8)
0xa20|                        00 00 00 00 2b be 95 91|        ....+...|      [146]: "1993-04-04T08:00:17Z" (733910417) transition_time 0xa28-0xa2f.7 (8)
0xa30|00 00 00 00 2c d3 62 82                        |....,.b.        |      [147]: "1993-10-31T07:00:18Z" (752050818) transition_time 0xa30-0xa37.7 (8)
0xa30|                        00 00 00 00 2d 9e 77 92|        ....-.w.|      [148]: "1994-04-03T08:00:18Z" (765360018) transition_time 0xa38-0xa3f.7 (8)
0xa40|00 00 00 00 2e b3 44 83                        |......D.        |      [149]: "1994-10-30T07:00:19Z" (783500419) transition_time 0xa40-0xa47.7 (8)
0xa40|                        00 00 00 00 2f 7e 59 93|        ..../~Y.|      [150]: "1995-04-02T08:00:19Z" (796809619) transition_time 0xa48-0xa4f.7 (8)
0xa50|00 00 00 00 30 93 26 83                        |....0.&.        |      [151]: "1995-10-29T07:00:19Z" (814950019) transition_time 0xa50-0xa57.7 (8)
0xa50|                        00 00 00 00 31 67 76 14|        ....1gv.|      [152]: "1996-04-07T08:00:20Z" (828864020) transition_time 0xa58-0xa5f.7 (8)
0xa60|00 00 00 00 32 73 08 84                        |....2s..        |      [153]: "1996-10-27T07:00:20Z" (846399620) transition_time 0xa60-0xa67.7 (8)
0xa60|                        00 00 00 00 33 47 58 14|        ....3GX.|      [154]: "1997-04-06T08:00:20Z" (860313620) transition_time 0xa68-0xa6f.7 (8)
0xa70|00 00 00 00 34 52 ea 85                        |....4R..        |      [155]: "1997-10-26T07:00:21Z" (877849221) transition_time 0xa70-0xa77.7 (8)
0xa70|                        00 00 00 00 35 27 3a 15|        ....5':.|      [156]: "1998-04-05T08:00:21Z" (891763221) transition_time 0xa78-0xa7f.7 (8)
0xa80|00 00 00 00 36 32 cc 85                        |....62..        |      [157]: "1998-10-25T07:00:21Z" (909298821) transition_time 0xa80-0xa87.7 (8)
0xa80|                        00 00 00 00 37 07 1c 16|        ....7...|      [158]: "1999-04-04T08:00:22Z" (923212822) transition_time 0xa88-0xa8f.7 (8)
0xa90|00 00 00 00 38 1b e9 06                        |....8...        |      [159]: "1999-10-31T07:00:22Z" (941353222) transition_time 0xa90-0xa97.7 (8)
0xa90|                        00 00 00 00 38 e6 fe 16|        ....8...|      [160]: "2000-04-02T08:00:22Z" (954662422) transition_time 0xa98-0xa9f.7 (8)
0xaa0|00 00 00 00 39 fb cb 06                        |....9...        |      [161]: "2000-10-29T07:00:22Z" (972802822) transition_time 0xaa0-0xaa7.7 (8)
0xaa0|                        00 00 00 00 3a c6 e0 16|        ....:...|      [162]: "2001-04-01T08:00:22Z" (986112022) transition_time 0xaa8-0xaaf.7 (8)
0xab0|00 00 00 00 3b db ad 06                        |....;...        |      [163]: "2001-10-28T07:00:22Z" (1004252422) transition_time 0xab0-0xab7.7 (8)
0xab0|                        00 00 00 00 3c af fc 96|        ....<...|      [164]: "2002-04-07T08:00:22Z" (1018166422) transition_time 0xab8-0xabf.7 (8)
0xac0|00 00 00 00 3d bb 8f 06                        |....=...        |      [165]: "2002-10-27T07:00:22Z" (1035702022) transition_time 0xac0-0xac7.7 (8)
0xac0|                        00 00 00 00 3e 8f de 96|        ....>...|      [166]: "2003-04-06T08:00:22Z" (1049616022) transition_time 0xac8-0xacf.7 (8)
0xad0|00 00 00 00 3f 9b 71 06                        |....?.q.        |      [167]: "2003-10-26T07:00:22Z" (1067151622) transition_time 0xad0-0xad7.7 (8)
0xad0|                        00 00 00 00 40 6f c0 96|        ....@o..|      [168]: "2004-04-04T08:00:22Z" (1081065622) transition_time 0xad8-0xadf.7 (8)
0xae0|00 00 00 00 41 84 8d 86                        |....A...        |      [169]: "2004-10-31T07:00:22Z" (1099206022) transition_time 0xae0-0xae7.7 (8)
0xae0|                        00 00 00 00 42 4f a2 96|        ....BO..|      [170]: "2005-04-03T08:00:22Z" (1112515222) transition_time 0xae8-0xaef.7 (8)
0xaf0|00 00 00 00 43 64 6f 86                        |....Cdo.        |      [171]: "2005-10-30T07:00:22Z" (1130655622) transition_time 0xaf0-0xaf7.7 (8)
0xaf0|                        00 00 00 00 44 2f 84 97|        ....D/..|      [172]: "2006-04-02T08:00:23Z" (1143964823) transition_time 0xaf8-0xaff.7 (8)
0xb00|00 00 00 00 45 44 51 87                        |....EDQ.        |      [173]: "2006-10-29T07:00:23Z" (1162105223) transition_time 0xb00-0xb07.7 (8)
0xb00|                        00 00 00 00 45 f3 b7 17|        ....E...|      [174]: "2007-03-11T08:00:23Z" (1173600023) transition_time 0xb08-0xb0f.7 (8)
0xb10|00 00 00 00 47 2d 6e 07                        |....G-n.        |      [175]: "2007-11-04T07:00:23Z" (1194159623) transition_time 0xb10-0xb17.7 (8)
0xb10|                        00 00 00 00 47 d3 99 17|        ....G...|      [176]: "2008-03-09T08:00:23Z" (1205049623) transition_time 0xb18-0xb1f.7 (8)
0xb20|00 00 00 00 49 0d 50 07                        |....I.P.        |      [177]: "2008-11-02T07:00:23Z" (1225609223) transition_time 0xb20-0xb27.7 (8)
0xb20|                        00 00 00 00 49 b3 7b 18|        ....I.{.|      [178]: "2009-03-08T08:00:24Z" (1236499224) transition_time 0xb28-0xb2f.7 (8)
0xb30|00 00 00 00 4a ed 32 08                        |....J.2.        |      [179]: "2009-11-01T07:00:24Z" (1257058824) transition_time 0xb30-0xb37.7 (8)
0xb30|                        00 00 00 00 4b 9c 97 98|        ....K...|      [180]: "2010-03-14T08:00:24Z" (1268553624) transition_time 0xb38-0xb3f.7 (8)
0xb40|00 00 00 00 4c d6 4e 88                        |....L.N.        |      [181]: "2010-11-07T07:00:24Z" (1289113224) transition_time 0xb40-0xb47.7 (8)
0xb40|                        00 00 00 00 4d 7c 79 98|        ....M|y.|      [182]: "2011-03-13T08:00:24Z" (1300003224) transition_time 0xb48-0xb4f.7 (8)
0xb50|00 00 00 00 4e b6 30 88                        |....N.0.        |      [183]: "2011-11-06T07:00:24Z" (1320562824) transition_time 0xb50-0xb57.7 (8)
0xb50|                        00 00 00 00 4f 5c 5b 98|        ....O\[.|      [184]: "2012-03-11T08:00:24Z" (1331452824) transition_time 0xb58-0xb5f.7 (8)
0xb60|00 00 00 00 50 96 12 89                        |....P...        |      [185]: "2012-11-04T07:00:25Z" (1352012425) transition_time 0xb60-0xb67.7 (8)
0xb60|                        00 00 00 00 51 3c 3d 99|        ....Q<=.|      [186]: "2013-03-10T08:00:25Z" (1362902425) transition_time 0xb68-0xb6f.7 (8)
0xb70|00 00 00 00 52 75 f4 89                        |....Ru..        |      [187]: "2013-11-03T07:00:25Z" (1383462025) transition_time 0xb70-0xb77.7 (8)
0xb70|                        00 00 00 00 53 1c 1f 99|        ....S...|      [188]: "2014-03-09T08:00:25Z" (1394352025) transition_time 0xb78-0xb7f.7 (8)
0xb80|00 00 00 00 54 55 d6 89                        |....TU..        |      [189]: "2014-11-02T07:00:25Z" (1414911625) transition_time 0xb80-0xb87.7 (8)
0xb80|                        00 00 00 00 54 fc 01 99|        ....T...|      [190]: "2015-03-08T08:00:25Z" (1425801625) transition_time 0xb88-0xb8f.7 (8)
0xb90|00 00 00 00 56 35 b8 8a                        |....V5..        |      [191]: "2015-11-01T07:00:26Z" (1446361226) transition_time 0xb90-0xb97.7 (8)
0xb90|                        00 00 00 00 56 e5 1e 1a|        ....V...|      [192]: "2016-03-13T08:00:26Z" (1457856026) transition_time 0xb98-0xb9f.7 (8)
0xba0|00 00 00 00 58 1e d5 0a                        |....X...        |      [193]: "2016-11-06T07:00:26Z" (1478415626) transition_time 0xba0-0xba7.7 (8)
0xba0|                        00 00 00 00 58 c5 00 1b|        ....X...|      [194]: "2017-03-12T08:00:27Z" (1489305627) transition_time 0xba8-0xbaf.7 (8)
0xbb0|00 00 00 00 59 fe b7 0b                        |....Y...        |      [195]: "2017-11-05T07:00:27Z" (1509865227) transition_time 0xbb0-0xbb7.7 (8)
0xbb0|                        00 00 00 00 5a a4 e2 1b|        ....Z...|      [196]: "2018-03-11T08:00:27Z" (1520755227) transition_time 0xbb8-0xbbf.7 (8)
0xbc0|00 00 00 00 5b de 99 0b                        |....[...        |      [197]: "2018-11-04T07:00:27Z" (1541314827) transition_time 0xbc0-0xbc7.7 (8)
0xbc0|                        00 00 00 00 5c 84 c4 1b|        ....\...|      [198]: "2019-03-10T08:00:27Z" (1552204827) transition_time 0xbc8-0xbcf.7 (8)
0xbd0|00 00 00 00 5d be 7b 0b                        |....].{.        |      [199]: "2019-11-03T07:00:27Z" (1572764427) transition_time 0xbd0-0xbd7.7 (8)
0xbd0|                        00 00 00 00 5e 64 a6 1b|        ....^d..|      [200]: "2020-03-08T08:00:27Z" (1583654427) transition_time 0xbd8-0xbdf.7 (8)
0xbe0|00 00 00 00 5f 9e 5d 0b                        |...._.].        |      [201]: "2020-11-01T07:00:27Z" (1604214027) transition_time 0xbe0-0xbe7.7 (8)
0xbe0|                        00 00 00 00 60 4d c2 9b|        ....`M..|      [202]: "2021-03-14T08:00:27Z" (1615708827) transition_time 0xbe8-0xbef.7 (8)
0xbf0|00 00 00 00 61 87 79 8b                        |....a.y.        |      [203]: "2021-11-07T07:00:27Z" (1636268427) transition_time 0xbf0-0xbf7.7 (8)
0xbf0|                        00 00 00 00 62 2d a4 9b|        ....b-..|      [204]: "2022-03-13T08:00:27Z" (1647158427) transition_time 0xbf8-0xbff.7 (8)
0xc00|00 00 00 00 63 67 5b 8b                        |....cg[.        |      [205]: "2022-11-06T07:00:27Z" (1667718027) transition_time 0xc00-0xc07.7 (8)
0xc00|                        00 00 00 00 64 0d 86 9b|        ....d...|      [206]: "2023-03-12T08:00:27Z" (1678608027) transition_time 0xc08-0xc0f.7 (8)
0xc10|00 00 00 00 64 9b 78 1b                        |....d.x.        |      [207]: "2023-06-28T00:00:27Z" (1687910427) transition_time 0xc10-0xc17.7 (8)
     |                                               |                |    transition_types[0:208]: 0xc18-0xce7.7 (208)
0xc10|                        03                     |        .       |      [0]: 3 transition_type 0xc18-0xc18.7 (1)
0xc10|                           01                  |         .      |      [1]: 1 transition_type 0xc19-0xc19.7 (1)
0xc10|                              02               |          .     |      [2]: 2 transition_type 0xc1a-0xc1a.7 (1)
0xc10|                                 01            |           .    |      [3]: 1 transition_type 0xc1b-0xc1b.7 (1)
0xc10|                                    02         |            .   |      [4]: 2 transition_type 0xc1c-0xc1c.7 (1)
0xc10|                                       01      |             .  |      [5]: 1 transition_type 0xc1d-0xc1d.7 (1)
0xc10|                                          02   |              . |      [6]: 2 transition_type 0xc1e-0xc1e.7 (1)
0xc10|                                             01|               .|      [7]: 1 transition_type 0xc1f-0xc1f.7 (1)
0xc20|02                                             |.               |      [8]: 2 transition_type 0xc20-0xc20.7 (1)
0xc20|   01                                          | .              |      [9]: 1 transition_type 0xc21-0xc21.7 (1)
0xc20|      02                                       |  .             |      [10]: 2 transition_type 0xc22-0xc22.7 (1)
0xc20|         01                                    |   .            |      [11]: 1 transition_type 0xc23-0xc23.7 (1)
0xc20|            02                                 |    .           |      [12]: 2 transition_type 0xc24-0xc24.7 (1)
0xc20|               01                              |     .          |      [13]: 1 transition_type 0xc25-0xc25.7 (1)
0xc20|                  02                           |      .         |      [14]: 2 transition_type 0xc26-0xc26.7 (1)
0xc20|                     01                        |       .        |      [15]: 1 transition_type 0xc27-0xc27.7 (1)
0xc20|                        02                     |        .       |      [16]: 2 transition_type 0xc28-0xc28.7 (1)
0xc20|                           01                  |         .      |      [17]: 1 transition_type 0xc29-0xc29.7 (1)
0xc20|                              02               |          .     |      [18]: 2 transition_type 0xc2a-0xc2a.7 (1)
0xc20|                                 01            |           .    |      [19]: 1 transition_type 0xc2b-0xc2b.7 (1)
0xc20|                                    02         |            .   |      [20]: 2 transition_type 0xc2c-0xc2c.7 (1)
0xc20|                                       01      |             .  |      [21]: 1 transition_type 0xc2d-0xc2d.7 (1)
0xc20|                                          02   |              . |      [22]: 2 transition_type 0xc2e-0xc2e.7 (1)
0xc20|                                             01|               .|      [23]: 1 transition_type 0xc2f-0xc2f.7 (1)
0xc30|02                                             |.               |      [24]: 2 transition_type 0xc30-0xc30.7 (1)
0xc30|   01                                          | .              |      [25]: 1 transition_type 0xc31-0xc31.7 (1)
0xc30|      02                                       |  .             |      [26]: 2 transition_type 0xc32-0xc32.7 (1)
0xc30|         01                                    |   .            |      [27]: 1 transition_type 0xc33-0xc33.7 (1)
0xc30|            02                                 |    .           |      [28]: 2 transition_type 0xc34-0xc34.7 (1)
0xc30|               01                              |     .          |      [29]: 1 transition_type 0xc35-0xc35.7 (1)
0xc30|                  02                           |      .         |      [30]: 2 transition_type 0xc36-0xc36.7 (1)
0xc30|                     01                        |       .        |      [31]: 1 transition_type 0xc37-0xc37.7 (1)
0xc30|                        02                     |        .       |      [32]: 2 transition_type 0xc38-0xc38.7 (1)
0xc30|                           01                  |         .      |      [33]: 1 transition_type 0xc39-0xc39.7 (1)
0xc30|                              02               |          .     |      [34]: 2 transition_type 0xc3a-0xc3a.7 (1)
0xc30|                                 01            |           .    |      [35]: 1 transition_type 0xc3b-0xc3b.7 (1)
0xc30|                                    02         |            .   |      [36]: 2 transition_type 0xc3c-0xc3c.7 (1)
0xc30|                                       04      |             .  |      [37]: 4 transition_type 0xc3d-0xc3d.7 (1)
0xc30|                                          02   |              . |      [38]: 2 transition_type 0xc3e-0xc3e.7 (1)
0xc30|                                             01|               .|      [39]: 1 transition_type 0xc3f-0xc3f.7 (1)
0xc40|02                                             |.               |      [40]: 2 transition_type 0xc40-0xc40.7 (1)
0xc40|   01                                          | .              |      [41]: 1 transition_type 0xc41-0xc41.7 (1)
0xc40|      02                                       |  .             |      [42]: 2 transition_type 0xc42-0xc42.7 (1)
0xc40|         01                                    |   .            |      [43]: 1 transition_type 0xc43-0xc43.7 (1)
0xc40|            02                                 |    .           |      [44]: 2 transition_type 0xc44-0xc44.7 (1)
0xc40|               01                              |     .          |      [45]: 1 transition_type 0xc45-0xc45.7 (1)
0xc40|                  02                           |      .         |      [46]: 2 transition_type 0xc46-0xc46.7 (1)
0xc40|                     01                        |       .        |      [47]: 1 transition_type 0xc47-0xc47.7 (1)
0xc40|                        02                     |        .       |      [48]: 2 transition_type 0xc48-0xc48.7 (1)
0xc40|                           05                  |         .      |      [49]: 5 transition_type 0xc49-0xc49.7 (1)
0xc40|                              06               |          .     |      [50]: 6 transition_type 0xc4a-0xc4a.7 (1)
0xc40|                                 02            |           .    |      [51]: 2 transition_type 0xc4b-0xc4b.7 (1)
0xc40|                                    01         |            .   |      [52]: 1 transition_type 0xc4c-0xc4c.7 (1)
0xc40|                                       02      |             .  |      [53]: 2 transition_type 0xc4d-0xc4d.7 (1)
0xc40|                                          01   |              . |      [54]: 1 transition_type 0xc4e-0xc4e.7 (1)
0xc40|                                             02|               .|      [55]: 2 transition_type 0xc4f-0xc4f.7 (1)
0xc50|01                                             |.               |      [56]: 1 transition_type 0xc50-0xc50.7 (1)
0xc50|   02                                          | .              |      [57]: 2 transition_type 0xc51-0xc51.7 (1)
0xc50|      01                                       |  .             |      [58]: 1 transition_type 0xc52-0xc52.7 (1)
0xc50|         02                                    |   .            |      [59]: 2 transition_type 0xc53-0xc53.7 (1)
0xc50|            01                                 |    .           |      [60]: 1 transition_type 0xc54-0xc54.7 (1)
0xc50|               02                              |     .          |      [61]: 2 transition_type 0xc55-0xc55.7 (1)
0xc50|                  01                           |      .         |      [62]: 1 transition_type 0xc56-0xc56.7 (1)
0xc50|                     02                        |       .        |      [63]: 2 transition_type 0xc57-0xc57.7 (1)
0xc50|                        01                     |        .       |      [64]: 1 transition_type 0xc58-0xc58.7 (1)
0xc50|                           02                  |         .      |      [65]: 2 transition_type 0xc59-0xc59.7 (1)
0xc50|                              01               |          .     |      [66]: 1 transition_type 0xc5a-0xc5a.7 (1)
0xc50|                                 02            |           .    |      [67]: 2 transition_type 0xc5b-0xc5b.7 (1)
0xc50|                                    01         |            .   |      [68]: 1 transition_type 0xc5c-0xc5c.7 (1)
0xc50|                                       02      |             .  |      [69]: 2 transition_type 0xc5d-0xc5d.7 (1)
0xc50|                                          01   |              . |      [70]: 1 transition_type 0xc5e-0xc5e.7 (1)
0xc50|                                             02|               .|      [71]: 2 transition_type 0xc5f-0xc5f.7 (1)
0xc60|01                                             |.               |      [72]: 1 transition_type 0xc60-0xc60.7 (1)
0xc60|   02                                          | .              |      [73]: 2 transition_type 0xc61-0xc61.7 (1)
0xc60|      01                                       |  .             |      [74]: 1 transition_type 0xc62-0xc62.7 (1)
0xc60|         02                                    |   .            |      [75]: 2 transition_type 0xc63-0xc63.7 (1)
0xc60|            01                                 |    .           |      [76]: 1 transition_type 0xc64-0xc64.7 (1)
0xc60|               02                              |     .          |      [77]: 2 transition_type 0xc65-0xc65.7 (1)
0xc60|                  01                           |      .         |      [78]: 1 transition_type 0xc66-0xc66.7 (1)
0xc60|                     02                        |       .        |      [79]: 2 transition_type 0xc67-0xc67.7 (1)
0xc60|                        01                     |        .       |      [80]: 1 transition_type 0xc68-0xc68.7 (1)
0xc60|                           02                  |         .      |      [81]: 2 transition_type 0xc69-0xc69.7 (1)
0xc60|                              01               |          .     |      [82]: 1 transition_type 0xc6a-0xc6a.7 (1)
0xc60|                                 02            |           .    |      [83]: 2 transition_type 0xc6b-0xc6b.7 (1)
0xc60|                                    01         |            .   |      [84]: 1 transition_type 0xc6c-0xc6c.7 (1)
0xc60|                                       02      |             .  |      [85]: 2 transition_type 0xc6d-0xc6d.7 (1)
0xc60|                                          01   |              . |      [86]: 1 transition_type 0xc6e-0xc6e.7 (1)
0xc60|                                             02|               .|      [87]: 2 transition_type 0xc6f-0xc6f.7 (1)
0xc70|01                                             |.               |      [88]: 1 transition_type 0xc70-0xc70.7 (1)
0xc70|   02                                          | .              |      [89]: 2 transition_type 0xc71-0xc71.7 (1)
0xc70|      01                                       |  .             |      [90]: 1 transition_type 0xc72-0xc72.7 (1)
0xc70|         02                                    |   .            |      [91]: 2 transition_type 0xc73-0xc73.7 (1)
0xc70|            01                                 |    .           |      [92]: 1 transition_type 0xc74-0xc74.7 (1)
0xc70|               02                              |     .          |      [93]: 2 transition_type 0xc75-0xc75.7 (1)
0xc70|                  01                           |      .         |      [94]: 1 transition_type 0xc76-0xc76.7 (1)
0xc70|                     02                        |       .        |      [95]: 2 transition_type 0xc77-0xc77.7 (1)
0xc70|                        01                     |        .       |      [96]: 1 transition_type 0xc78-0xc78.7 (1)
0xc70|                           02                  |         .      |      [97]: 2 transition_type 0xc79-0xc79.7 (1)
0xc70|                              01               |          .     |      [98]: 1 transition_type 0xc7a-0xc7a.7 (1)
0xc70|                                 02            |           .    |      [99]: 2 transition_type 0xc7b-0xc7b.7 (1)
0xc70|                                    01         |            .   |      [100]: 1 transition_type 0xc7c-0xc7c.7 (1)
0xc70|                                       02      |             .  |      [101]: 2 transition_type 0xc7d-0xc7d.7 (1)
0xc70|                                          01   |              . |      [102]: 1 transition_type 0xc7e-0xc7e.7 (1)
0xc70|                                             02|               .|      [103]: 2 transition_type 0xc7f-0xc7f.7 (1)
0xc80|01                                             |.               |      [104]: 1 transition_type 0xc80-0xc80.7 (1)
0xc80|   02                                          | .              |      [105]: 2 transition_type 0xc81-0xc81.7 (1)
0xc80|      01                                       |  .             |      [106]: 1 transition_type 0xc82-0xc82.7 (1)
0xc80|         02                                    |   .            |      [107]: 2 transition_type 0xc83-0xc83.7 (1)
0xc80|            01                                 |    .           |      [108]: 1 transition_type 0xc84-0xc84.7 (1)
0xc80|               02                              |     .          |      [109]: 2 transition_type 0xc85-0xc85.7 (1)
0xc80|                  01                           |      .         |      [110]: 1 transition_type 0xc86-0xc86.7 (1)
0xc80|                     02                        |       .        |      [111]: 2 transition_type 0xc87-0xc87.7 (1)
0xc80|                        01                     |        .       |      [112]: 1 transition_type 0xc88-0xc88.7 (1)
0xc80|                           02                  |         .      |      [113]: 2 transition_type 0xc89-0xc89.7 (1)
0xc80|                              01               |          .     |      [114]: 1 transition_type 0xc8a-0xc8a.7 (1)
0xc80|                                 02            |           .    |      [115]: 2 transition_type 0xc8b-0xc8b.7 (1)
0xc80|                                    01         |            .   |      [116]: 1 transition_type 0xc8c-0xc8c.7 (1)
0xc80|                                       02      |             .  |      [117]: 2 transition_type 0xc8d-0xc8d.7 (1)
0xc80|                                          01   |              . |      [118]: 1 transition_type 0xc8e-0xc8e.7 (1)
0xc80|                                             02|               .|      [119]: 2 transition_type 0xc8f-0xc8f.7 (1)
0xc90|01                                             |.               |      [120]: 1 transition_type 0xc90-0xc90.7 (1)
0xc90|   02                                          | .              |      [121]: 2 transition_type 0xc91-0xc91.7 (1)
0xc90|      01                                       |  .             |      [122]: 1 transition_type 0xc92-0xc92.7 (1)
0xc90|         02                                    |   .            |      [123]: 2 transition_type 0xc93-0xc93.7 (1)
0xc90|            01                                 |    .           |      [124]: 1 transition_type 0xc94-0xc94.7 (1)
0xc90|               02                              |     .          |      [125]: 2 transition_type 0xc95-0xc95.7 (1)
0xc90|                  01                           |      .         |      [126]: 1 transition_type 0xc96-0xc96.7 (1)
0xc90|                     02                        |       .        |      [127]: 2 transition_type 0xc97-0xc97.7 (1)
0xc90|                        01                     |        .       |      [128]: 1 transition_type 0xc98-0xc98.7 (1)
0xc90|                           02                  |         .      |      [129]: 2 transition_type 0xc99-0xc99.7 (1)
0xc90|                              01               |          .     |      [130]: 1 transition_type 0xc9a-0xc9a.7 (1)
0xc90|                                 02            |           .    |      [131]: 2 transition_type 0xc9b-0xc9b.7 (1)
0xc90|                                    01         |            .   |      [132]: 1 transition_type 0xc9c-0xc9c.7 (1)
0xc90|                                       02      |             .  |      [133]: 2 transition_type 0xc9d-0xc9d.7 (1)
0xc90|                                          01   |              . |      [134]: 1 transition_type 0xc9e-0xc9e.7 (1)
0xc90|                                             02|               .|      [135]: 2 transition_type 0xc9f-0xc9f.7 (1)
0xca0|01                                             |.               |      [136]: 1 transition_type 0xca0-0xca0.7 (1)
0xca0|   02                                          | .              |      [137]: 2 transition_type 0xca1-0xca1.7 (1)
0xca0|      01                                       |  .             |      [138]: 1 transition_type 0xca2-0xca2.7 (1)
0xca0|         02                                    |   .            |      [139]: 2 transition_type 0xca3-0xca3.7 (1)
0xca0|            01                                 |    .           |      [140]: 1 transition_type 0xca4-0xca4.7 (1)
0xca0|               02                              |     .          |      [141]: 2 transition_type 0xca5-0xca5.7 (1)
0xca0|                  01                           |      .         |      [142]: 1 transition_type 0xca6-0xca6.7 (1)
0xca0|                     02                        |       .        |      [143]: 2 transition_type 0xca7-0xca7.7 (1)
0xca0|                        01                     |        .       |      [144]: 1 transition_type 0xca8-0xca8.7 (1)
0xca0|                           02                  |         .      |      [145]: 2 transition_type 0xca9-0xca9.7 (1)
0xca0|                              01               |          .     |      [146]: 1 transition_type 0xcaa-0xcaa.7 (1)
0xca0|                                 02            |           .    |      [147]: 2 transition_type 0xcab-0xcab.7 (1)
0xca0|                                    01         |            .   |      [148]: 1 transition_type 0xcac-0xcac.7 (1)
0xca0|                                       02      |             .  |      [149]: 2 transition_type 0xcad-0xcad.7 (1)
0xca0|                                          01   |              . |      [150]: 1 transition_type 0xcae-0xcae.7 (1)
0xca0|                                             02|               .|      [151]: 2 transition_type 0xcaf-0xcaf.7 (1)
0xcb0|01                                             |.               |      [152]: 1 transition_type 0xcb0-0xcb0.7 (1)
0xcb0|   02                                          | .              |      [153]: 2 transition_type 0xcb1-0xcb1.7 (1)
0xcb0|      01                                       |  .             |      [154]: 1 transition_type 0xcb2-0xcb2.7 (1)
0xcb0|         02                                    |   .            |      [155]: 2 transition_type 0xcb3-0xcb3.7 (1)
0xcb0|            01                                 |    .           |      [156]: 1 transition_type 0xcb4-0xcb4.7 (1)
0xcb0|               02                              |     .          |      [157]: 2 transition_type 0xcb5-0xcb5.7 (1)
0xcb0|                  01                           |      .         |      [158]: 1 transition_type 0xcb6-0xcb6.7 (1)
0xcb0|                     02                        |       .        |      [159]: 2 transition_type 0xcb7-0xcb7.7 (1)
0xcb0|                        01                     |        .       |      [160]: 1 transition_type 0xcb8-0xcb8.7 (1)
0xcb0|                           02                  |         .      |      [161]: 2 transition_type 0xcb9-0xcb9.7 (1)
0xcb0|                              01               |          .     |      [162]: 1 transition_type 0xcba-0xcba.7 (1)
0xcb0|                                 02            |           .    |      [163]: 2 transition_type 0xcbb-0xcbb.7 (1)
0xcb0|                                    01         |            .   |      [164]: 1 transition_type 0xcbc-0xcbc.7 (1)
0xcb0|                                       02      |             .  |      [165]: 2 transition_type 0xcbd-0xcbd.7 (1)
0xcb0|                                          01   |              . |      [166]: 1 transition_type 0xcbe-0xcbe.7 (1)
0xcb0|                                             02|               .|      [167]: 2 transition_type 0xcbf-0xcbf.7 (1)
0xcc0|01                                             |.               |      [168]: 1 transition_type 0xcc0-0xcc0.7 (1)
0xcc0|   02                                          | .              |      [169]: 2 transition_type 0xcc1-0xcc1.7 (1)
0xcc0|      01                                       |  .             |      [170]: 1 transition_type 0xcc2-0xcc2.7 (1)
0xcc0|         02                                    |   .            |      [171]: 2 transition_type 0xcc3-0xcc3.7 (1)
0xcc0|            01                                 |    .           |      [172]: 1 transition_type 0xcc4-0xcc4.7 (1)
0xcc0|               02                              |     .          |      [173]: 2 transition_type 0xcc5-0xcc5.7 (1)
0xcc0|                  01                           |      .         |      [174]: 1 transition_type 0xcc6-0xcc6.7 (1)
0xcc0|                     02                        |       .        |      [175]: 2 transition_type 0xcc7-0xcc7.7 (1)
0xcc0|                        01                     |        .       |      [176]: 1 transition_type 0xcc8-0xcc8.7 (1)
0xcc0|                           02                  |         .      |      [177]: 2 transition_type 0xcc9-0xcc9.7 (1)
0xcc0|                              01               |          .     |      [178]: 1 transition_type 0xcca-0xcca.7 (1)
0xcc0|                                 02            |           .    |      [179]: 2 transition_type 0xccb-0xccb.7 (1)
0xcc0|                                    01         |            .   |      [180]: 1 transition_type 0xccc-0xccc.7 (1)
0xcc0|                                       02      |             .  |      [181]: 2 transition_type 0xccd-0xccd.7 (1)
0xcc0|                                          01   |              . |      [182]: 1 transition_type 0xcce-0xcce.7 (1)
0xcc0|                                             02|               .|      [183]: 2 transition_type 0xccf-0xccf.7 (1)
0xcd0|01                                             |.               |      [184]: 1 transition_type 0xcd0-0xcd0.7 (1)
0xcd0|   02                                          | .              |      [185]: 2 transition_type 0xcd1-0xcd1.7 (1)
0xcd0|      01                                       |  .             |      [186]: 1 transition_type 0xcd2-0xcd2.7 (1)
0xcd0|         02                                    |   .            |      [187]: 2 transition_type 0xcd3-0xcd3.7 (1)
0xcd0|            01                                 |    .           |      [188]: 1 transition_type 0xcd4-0xcd4.7 (1)
0xcd0|               02                              |     .          |      [189]: 2 transition_type 0xcd5-0xcd5.7 (1)
0xcd0|                  01                           |      .         |      [190]: 1 transition_type 0xcd6-0xcd6.7 (1)
0xcd0|                     02                        |       .        |      [191]: 2 transition_type 0xcd7-0xcd7.7 (1)
0xcd0|                        01                     |        .       |      [192]: 1 transition_type 0xcd8-0xcd8.7 (1)
0xcd0|                           02                  |         .      |      [193]: 2 transition_type 0xcd9-0xcd9.7 (1)
0xcd0|                              01               |          .     |      [194]: 1 transition_type 0xcda-0xcda.7 (1)
0xcd0|                                 02            |           .    |      [195]: 2 transition_type 0xcdb-0xcdb.7 (1)
0xcd0|                                    01         |            .   |      [196]: 1 transition_type 0xcdc-0xcdc.7 (1)
0xcd0|                                       02      |             .  |      [197]: 2 transition_type 0xcdd-0xcdd.7 (1)
0xcd0|                                          01   |              . |      [198]: 1 transition_type 0xcde-0xcde.7 (1)
0xcd0|                                             02|               .|      [199]: 2 transition_type 0xcdf-0xcdf.7 (1)
0xce0|01                                             |.               |      [200]: 1 transition_type 0xce0-0xce0.7 (1)
0xce0|   02                                          | .              |      [201]: 2 transition_type 0xce1-0xce1.7 (1)
0xce0|      01                                       |  .             |      [202]: 1 transition_type 0xce2-0xce2.7 (1)
0xce0|         02                                    |   .            |      [203]: 2 transition_type 0xce3-0xce3.7 (1)
0xce0|            01                                 |    .           |      [204]: 1 transition_type 0xce4-0xce4.7 (1)
0xce0|               02                              |     .          |      [205]: 2 transition_type 0xce5-0xce5.7 (1)
0xce0|                  01                           |      .         |      [206]: 1 transition_type 0xce6-0xce6.7 (1)
0xce0|                     01                        |       .        |      [207]: 1 transition_type 0xce7-0xce7.7 (1)
     |                                               |                |    local_time_type_records[0:8]: 0xce8-0xd17.7 (48)
     |                                               |                |      [0]{}: local_time_type 0xce8-0xced.7 (6)
0xce0|                        ff ff ad d4            |        ....    |        utoff: -21036 (valid) 0xce8-0xceb.7 (4)
0xce0|                                    00         |            .   |        dst: 0 (valid) 0xcec-0xcec.7 (1)
0xce0|                                       00      |             .  |        idx: 0 (valid) 0xced-0xced.7 (1)
     |                                               |                |      [1]{}: local_time_type 0xcee-0xcf3.7 (6)
0xce0|                                          ff ff|              ..|        utoff: -18000 (valid) 0xcee-0xcf1.7 (4)
0xcf0|b9 b0                                          |..              |
0xcf0|      01                                       |  .             |        dst: 1 (valid) 0xcf2-0xcf2.7 (1)
0xcf0|         04                                    |   .            |        idx: 4 (valid) 0xcf3-0xcf3.7 (1)
     |                                               |                |      [2]{}: local_time_type 0xcf4-0xcf9.7 (6)
0xcf0|            ff ff ab a0                        |    ....        |        utoff: -21600 (valid) 0xcf4-0xcf7.7 (4)
0xcf0|                        00                     |        .       |        dst: 0 (valid) 0xcf8-0xcf8.7 (1)
0xcf0|                           08                  |         .      |        idx: 8 (valid) 0xcf9-0xcf9.7 (1)
     |                                               |                |      [3]{}: local_time_type 0xcfa-0xcff.7 (6)
0xcf0|                              ff ff ab a0      |          ....  |        utoff: -21600 (valid) 0xcfa-0xcfd.7 (4)
0xcf0|                                          00   |              . |        dst: 0 (valid) 0xcfe-0xcfe.7 (1)
0xcf0|                                             08|               .|        idx: 8 (valid) 0xcff-0xcff.7 (1)
     |                                               |                |      [4]{}: local_time_type 0xd00-0xd05.7 (6)
0xd00|ff ff b9 b0                                    |....            |        utoff: -18000 (valid) 0xd00-0xd03.7 (4)
0xd00|            00                                 |    .           |        dst: 0 (valid) 0xd04-0xd04.7 (1)
0xd00|               0c                              |     .          |        idx: 12 (valid) 0xd05-0xd05.7 (1)
     |                                               |                |      [5]{}: local_time_type 0xd06-0xd0b.7 (6)
0xd00|                  ff ff b9 b0                  |      ....      |        utoff: -18000 (valid) 0xd06-0xd09.7 (4)
0xd00|                              01               |          .     |        dst: 1 (valid) 0xd0a-0xd0a.7 (1)
0xd00|                                 10            |           .    |        idx: 16 (valid) 0xd0b-0xd0b.7 (1)
     |                                               |                |      [6]{}: local_time_type 0xd0c-0xd11.7 (6)
0xd00|                                    ff ff b9 b0|            ....|        utoff: -18000 (valid) 0xd0c-0xd0f.7 (4)
0xd10|01                                             |.               |        dst: 1 (valid) 0xd10-0xd10.7 (1)
0xd10|   14                                          | .              |        idx: 20 (valid) 0xd11-0xd11.7 (1)
     |                                               |                |      [7]{}: local_time_type 0xd12-0xd17.7 (6)
0xd10|      ff ff ab a0                              |  ....          |        utoff: -21600 (valid) 0xd12-0xd15.7 (4)
0xd10|                  00                           |      .         |        dst: 0 (valid) 0xd16-0xd16.7 (1)
0xd10|                     08                        |       .        |        idx: 8 (valid) 0xd17-0xd17.7 (1)
     |                                               |                |    time_zone_designations[0:6]: 0xd18-0xd2f.7 (24)
0xd10|                        4c 4d 54 00            |        LMT.    |      [0]: "LMT" time_zone_designation 0xd18-0xd1b.7 (4)
0xd10|                                    43 44 54 00|            CDT.|      [1]: "CDT" time_zone_designation 0xd1c-0xd1f.7 (4)
0xd20|43 53 54 00                                    |CST.            |      [2]: "CST" time_zone_designation 0xd20-0xd23.7 (4)
0xd20|            45 53 54 00                        |    EST.        |      [3]: "EST" time_zone_designation 0xd24-0xd27.7 (4)
0xd20|                        43 57 54 00            |        CWT.    |      [4]: "CWT" time_zone_designation 0xd28-0xd2b.7 (4)
0xd20|                                    43 50 54 00|            CPT.|      [5]: "CPT" time_zone_designation 0xd2c-0xd2f.7 (4)
     |                                               |                |    leap_second_records[0:27]: 0xd30-0xe73.7 (324)
     |                                               |                |      [0]{}: leap_second_record 0xd30-0xd3b.7 (12)
0xd30|00 00 00 00 04 b2 58 00                        |......X.        |        occur: "1972-07-01T00:00:00Z" (78796800) 0xd30-0xd37.7 (8)
0xd30|                        00 00 00 01            |        ....    |        corr: 1 0xd38-0xd3b.7 (4)
     |                                               |                |      [1]{}: leap_second_record 0xd3c-0xd47.7 (12)
0xd30|                                    00 00 00 00|            ....|        occur: "1973-01-01T00:00:01Z" (94694401) 0xd3c-0xd43.7 (8)
0xd40|05 a4 ec 01                                    |....            |
0xd40|            00 00 00 02                        |    ....        |        corr: 2 0xd44-0xd47.7 (4)
     |                                               |                |      [2]{}: leap_second_record 0xd48-0xd53.7 (12)
0xd40|                        00 00 00 00 07 86 1f 82|        ........|        occur: "1974-01-01T00:00:02Z" (126230402) 0xd48-0xd4f.7 (8)
0xd50|00 00 00 03                                    |....            |        corr: 3 0xd50-0xd53.7 (4)
     |                                               |                |      [3]{}: leap_second_record 0xd54-0xd5f.7 (12)
0xd50|            00 00 00 00 09 67 53 03            |    .....gS.    |        occur: "1975-01-01T00:00:03Z" (157766403) 0xd54-0xd5b.7 (8)
0xd50|                                    00 00 00 04|            ....|        corr: 4 0xd5c-0xd5f.7 (4)
     |                                               |                |      [4]{}: leap_second_record 0xd60-0xd6b.7 (12)
0xd60|00 00 00 00 0b 48 86 84                        |.....H..        |        occur: "1976-01-01T00:00:04Z" (189302404) 0xd60-0xd67.7 (8)
0xd60|                        00 00 00 05            |        ....    |        corr: 5 0xd68-0xd6b.7 (4)
     |                                               |                |      [5]{}: leap_second_record 0xd6c-0xd77.7 (12)
0xd60|                                    00 00 00 00|            ....|        occur: "1977-01-01T00:00:05Z" (220924805) 0xd6c-0xd73.7 (8)
0xd70|0d 2b 0b 85                                    |.+..            |
0xd70|            00 00 00 06                        |    ....        |        corr: 6 0xd74-0xd77.7 (4)
     |                                               |                |      [6]{}: leap_second_record 0xd78-0xd83.7 (12)
0xd70|                        00 00 00 00 0f 0c 3f 06|        ......?.|        occur: "1978-01-01T00:00:06Z" (252460806) 0xd78-0xd7f.7 (8)
0xd80|00 00 00 07                                    |....            |        corr: 7 0xd80-0xd83.7 (4)
     |                                               |                |      [7]{}: leap_second_record 0xd84-0xd8f.7 (12)
0xd80|            00 00 00 00 10 ed 72 87            |    ......r.    |        occur: "1979-01-01T00:00:07Z" (283996807) 0xd84-0xd8b.7 (8)
0xd80|                                    00 00 00 08|            ....|        corr: 8 0xd8c-0xd8f.7 (4)
     |                                               |                |      [8]{}: leap_second_record 0xd90-0xd9b.7 (12)
0xd90|00 00 00 00 12 ce a6 08                        |........        |        occur: "1980-01-01T00:00:08Z" (315532808) 0xd90-0xd97.7 (8)
0xd90|                        00 00 00 09            |        ....    |        corr: 9 0xd98-0xd9b.7 (4)
     |                                               |                |      [9]{}: leap_second_record 0xd9c-0xda7.7 (12)
0xd90|                                    00 00 00 00|            ....|        occur: "1981-07-01T00:00:09Z" (362793609) 0xd9c-0xda3.7 (8)
0xda0|15 9f ca 89                                    |....            |
0xda0|            00 00 00 0a                        |    ....        |        corr: 10 0xda4-0xda7.7 (4)
     |                                               |                |      [10]{}: leap_second_record 0xda8-0xdb3.7 (12)
0xda0|                        00 00 00 00 17 80 fe 0a|        ........|        occur: "1982-07-01T00:00:10Z" (394329610) 0xda8-0xdaf.7 (8)
0xdb0|00 00 00 0b                                    |....            |        corr: 11 0xdb0-0xdb3.7 (4)
     |                                               |                |      [11]{}: leap_second_record 0xdb4-0xdbf.7 (12)
0xdb0|            00 00 00 00 19 62 31 8b            |    .....b1.    |        occur: "1983-07-01T00:00:11Z" (425865611) 0xdb4-0xdbb.7 (8)
0xdb0|                                    00 00 00 0c|            ....|        corr: 12 0xdbc-0xdbf.7 (4)
     |                                               |                |      [12]{}: leap_second_record 0xdc0-0xdcb.7 (12)
0xdc0|00 00 00 00 1d 25 ea 0c                        |.....%..        |        occur: "1985-07-01T00:00:12Z" (489024012) 0xdc0-0xdc7.7 (8)
0xdc0|                        00 00 00 0d            |        ....    |        corr: 13 0xdc8-0xdcb.7 (4)
     |                                               |                |      [13]{}: leap_second_record 0xdcc-0xdd7.7 (12)
0xdc0|                                    00 00 00 00|            ....|        occur: "1988-01-01T00:00:13Z" (567993613) 0xdcc-0xdd3.7 (8)
0xdd0|21 da e5 0d                                    |!...            |
0xdd0|            00 00 00 0e                        |    ....        |        corr: 14 0xdd4-0xdd7.7 (4)
     |                                               |                |      [14]{}: leap_second_record 0xdd8-0xde3.7 (12)
0xdd0|                        00 00 00 00 25 9e 9d 8e|        ....%...|        occur: "1990-01-01T00:00:14Z" (631152014) 0xdd8-0xddf.7 (8)
0xde0|00 00 00 0f                                    |....            |        corr: 15 0xde0-0xde3.7 (4)
     |                                               |                |      [15]{}: leap_second_record 0xde4-0xdef.7 (12)
0xde0|            00 00 00 00 27 7f d1 0f            |    ....'...    |        occur: "1991-01-01T00:00:15Z" (662688015) 0xde4-0xdeb.7 (8)
0xde0|                                    00 00 00 10|            ....|        corr: 16 0xdec-0xdef.7 (4)
     |                                               |                |      [16]{}: leap_second_record 0xdf0-0xdfb.7 (12)
0xdf0|00 00 00 00 2a 50 f5 90                        |....*P..        |        occur: "1992-07-01T00:00:16Z" (709948816) 0xdf0-0xdf7.7 (8)
0xdf0|                        00 00 00 11            |        ....    |        corr: 17 0xdf8-0xdfb.7 (4)
     |                                               |                |      [17]{}: leap_second_record 0xdfc-0xe07.7 (12)
0xdf0|                                    00 00 00 00|            ....|        occur: "1993-07-01T00:00:17Z" (741484817) 0xdfc-0xe03.7 (8)
0xe00|2c 32 29 11                                    |,2).            |
0xe00|            00 00 00 12                        |    ....        |        corr: 18 0xe04-0xe07.7 (4)
     |                                               |                |      [18]{}: leap_second_record 0xe08-0xe13.7 (12)
0xe00|                        00 00 00 00 2e 13 5c 92|        ......\.|        occur: "1994-07-01T00:00:18Z" (773020818) 0xe08-0xe0f.7 (8)
0xe10|00 00 00 13                                    |....            |        corr: 19 0xe10-0xe13.7 (4)
     |                                               |                |      [19]{}: leap_second_record 0xe14-0xe1f.7 (12)
0xe10|            00 00 00 00 30 e7 24 13            |    ....0.$.    |        occur: "1996-01-01T00:00:19Z" (820454419) 0xe14-0xe1b.7 (8)
0xe10|                                    00 00 00 14|            ....|        corr: 20 0xe1c-0xe1f.7 (4)
     |                                               |                |      [20]{}: leap_second_record 0xe20-0xe2b.7 (12)
0xe20|00 00 00 00 33 b8 48 94                        |....3.H.        |        occur: "1997-07-01T00:00:20Z" (867715220) 0xe20-0xe27.7 (8)
0xe20|                        00 00 00 15            |        ....    |        corr: 21 0xe28-0xe2b.7 (4)
     |                                               |                |      [21]{}: leap_second_record 0xe2c-0xe37.7 (12)
0xe20|                                    00 00 00 00|            ....|        occur: "1999-01-01T00:00:21Z" (915148821) 0xe2c-0xe33.7 (8)
0xe30|36 8c 10 15                                    |6...            |
0xe30|            00 00 00 16                        |    ....        |        corr: 22 0xe34-0xe37.7 (4)
     |                                               |                |      [22]{}: leap_second_record 0xe38-0xe43.7 (12)
0xe30|                        00 00 00 00 43 b7 1b 96|        ....C...|        occur: "2006-01-01T00:00:22Z" (1136073622) 0xe38-0xe3f.7 (8)
0xe40|00 00 00 17                                    |....            |        corr: 23 0xe40-0xe43.7 (4)
     |                                               |                |      [23]{}: leap_second_record 0xe44-0xe4f.7 (12)
0xe40|            00 00 00 00 49 5c 07 97            |    ....I\..    |        occur: "2009-01-01T00:00:23Z" (1230768023) 0xe44-0xe4b.7 (8)
0xe40|                                    00 00 00 18|            ....|        corr: 24 0xe4c-0xe4f.7 (4)
     |                                               |                |      [24]{}: leap_second_record 0xe50-0xe5b.7 (12)
0xe50|00 00 00 00 4f ef 93 18                        |....O...        |        occur: "2012-07-01T00:00:24Z" (1341100824) 0xe50-0xe57.7 (8)
0xe50|                        00 00 00 19            |        ....    |        corr: 25 0xe58-0xe5b.7 (4)
     |                                               |                |      [25]{}: leap_second_record 0xe5c-0xe67.7 (12)
0xe50|                                    00 00 00 00|            ....|        occur: "2015-07-01T00:00:25Z" (1435708825) 0xe5c-0xe63.7 (8)
0xe60|55 93 2d 99                                    |U.-.            |
0xe60|            00 00 00 1a                        |    ....        |        corr: 26 0xe64-0xe67.7 (4)
     |                                               |                |      [26]{}: leap_second_record 0xe68-0xe73.7 (12)
0xe60|                        00 00 00 00 58 68 46 9a|        ....XhF.|        occur: "2017-01-01T00:00:26Z" (1483228826) 0xe68-0xe6f.7 (8)
0xe70|00 00 00 1b                                    |....            |        corr: 27 0xe70-0xe73.7 (4)
     |                                               |                |    standard_wall_indicators[0:8]: 0xe74-0xe7b.7 (8)
0xe70|            00                                 |    .           |      [0]: 0 standard_wall_indicator (valid) 0xe74-0xe74.7 (1)
0xe70|               00                              |     .          |      [1]: 0 standard_wall_indicator (valid) 0xe75-0xe75.7 (1)
0xe70|                  00                           |      .         |      [2]: 0 standard_wall_indicator (valid) 0xe76-0xe76.7 (1)
0xe70|                     01                        |       .        |      [3]: 1 standard_wall_indicator (valid) 0xe77-0xe77.7 (1)
0xe70|                        00                     |        .       |      [4]: 0 standard_wall_indicator (valid) 0xe78-0xe78.7 (1)
0xe70|                           00                  |         .      |      [5]: 0 standard_wall_indicator (valid) 0xe79-0xe79.7 (1)
0xe70|                              01               |          .     |      [6]: 1 standard_wall_indicator (valid) 0xe7a-0xe7a.7 (1)
0xe70|                                 00            |           .    |      [7]: 0 standard_wall_indicator (valid) 0xe7b-0xe7b.7 (1)
     |                                               |                |    ut_local_indicators[0:8]: 0xe7c-0xe83.7 (8)
0xe70|                                    00         |            .   |      [0]: 0 ut_local_indicator (valid) 0xe7c-0xe7c.7 (1)
0xe70|                                       00      |             .  |      [1]: 0 ut_local_indicator (valid) 0xe7d-0xe7d.7 (1)
0xe70|                                          00   |              . |      [2]: 0 ut_local_indicator (valid) 0xe7e-0xe7e.7 (1)
0xe70|                                             01|               .|      [3]: 1 ut_local_indicator (valid) 0xe7f-0xe7f.7 (1)
0xe80|00                                             |.               |      [4]: 0 ut_local_indicator (valid) 0xe80-0xe80.7 (1)
0xe80|   00                                          | .              |      [5]: 0 ut_local_indicator (valid) 0xe81-0xe81.7 (1)
0xe80|      01                                       |  .             |      [6]: 1 ut_local_indicator (valid) 0xe82-0xe82.7 (1)
0xe80|         00                                    |   .            |      [7]: 0 ut_local_indicator (valid) 0xe83-0xe83.7 (1)
     |                                               |                |  footer{}: 0xe84-0xe85.7 (2)
0xe80|            0a                                 |    .           |    nl1: 10 (valid) 0xe84-0xe84.7 (1)
     |                                               |                |    tz_string: "" 0xe85-NA (0)
0xe80|               0a|                             |     .|         |    nl2: 10 (valid) 0xe85-0xe85.7 (1)
