$ fq -d tzif dv Chihuahua
     |00 01 02 03 04 05 06 07 08 09 0a 0b 0c 0d 0e 0f|0123456789abcdef|.{}: Chihuahua (tzif) 0x0-0x674 (1652)
     |                                               |                |  v1header{}: 0x0-0x2c (44)
0x000|54 5a 69 66                                    |TZif            |    magic: 0x545a6966 (valid) 0x0-0x4 (4)
0x000|            32                                 |    2           |    ver: "2" (0x32) (valid) 0x4-0x5 (1)
0x000|               00 00 00 00 00 00 00 00 00 00 00|     ...........|    reserved: raw bits 0x5-0x14 (15)
0x010|00 00 00 00                                    |....            |
0x010|            00 00 00 08                        |    ....        |    isutcnt: 8 0x14-0x18 (4)
0x010|                        00 00 00 08            |        ....    |    isstdcnt: 8 0x18-0x1c (4)
0x010|                                    00 00 00 1b|            ....|    leapcnt: 27 0x1c-0x20 (4)
0x020|00 00 00 3d                                    |...=            |    timecnt: 61 0x20-0x24 (4)
0x020|            00 00 00 08                        |    ....        |    typecnt: 8 0x24-0x28 (4)
0x020|                        00 00 00 14            |        ....    |    charcnt: 20 0x28-0x2c (4)
     |                                               |                |  v1datablock{}: 0x2c-0x289 (605)
     |                                               |                |    transition_times[0:61]: 0x2c-0x120 (244)
0x020|                                    a5 b6 e8 70|            ...p|      [0]: "1922-01-01T07:00:00Z" (-1514739600) transition_time 0x2c-0x30 (4)
0x030|af f2 6e e0                                    |..n.            |      [1]: "1927-06-11T06:00:00Z" (-1343066400) transition_time 0x30-0x34 (4)
0x030|            b6 66 56 60                        |    .fV`        |      [2]: "1930-11-15T06:00:00Z" (-1234807200) transition_time 0x34-0x38 (4)
0x030|                        b7 43 d2 60            |        .C.`    |      [3]: "1931-05-02T06:00:00Z" (-1220292000) transition_time 0x38-0x3c (4)
0x030|                                    b8 0c 36 60|            ..6`|      [4]: "1931-10-01T06:00:00Z" (-1207159200) transition_time 0x3c-0x40 (4)
0x040|b8 fd 86 f0                                    |....            |      [5]: "1932-04-01T07:00:00Z" (-1191344400) transition_time 0x40-0x44 (4)
0x040|            31 67 76 14                        |    1gv.        |      [6]: "1996-04-07T08:00:20Z" (828864020) transition_time 0x44-0x48 (4)
0x040|                        32 73 08 84            |        2s..    |      [7]: "1996-10-27T07:00:20Z" (846399620) transition_time 0x48-0x4c (4)
0x040|                                    33 47 58 14|            3GX.|      [8]: "1997-04-06T08:00:20Z" (860313620) transition_time 0x4c-0x50 (4)
0x050|34 52 ea 85                                    |4R..            |      [9]: "1997-10-26T07:00:21Z" (877849221) transition_time 0x50-0x54 (4)
0x050|            35 27 48 25                        |    5'H%        |      [10]: "1998-04-05T09:00:21Z" (891766821) transition_time 0x54-0x58 (4)
0x050|                        36 32 da 95            |        62..    |      [11]: "1998-10-25T08:00:21Z" (909302421) transition_time 0x58-0x5c (4)
0x050|                                    37 07 2a 26|            7.*&|      [12]: "1999-04-04T09:00:22Z" (923216422) transition_time 0x5c-0x60 (4)
0x060|38 1b f7 16                                    |8...            |      [13]: "1999-10-31T08:00:22Z" (941356822) transition_time 0x60-0x64 (4)
0x060|            38 e7 0c 26                        |    8..&        |      [14]: "2000-04-02T09:00:22Z" (954666022) transition_time 0x64-0x68 (4)
0x060|                        39 fb d9 16            |        9...    |      [15]: "2000-10-29T08:00:22Z" (972806422) transition_time 0x68-0x6c (4)
0x060|                                    3a f5 12 a6|            :...|      [16]: "2001-05-06T09:00:22Z" (989139622) transition_time 0x6c-0x70 (4)
0x070|3b b6 d1 16                                    |;...            |      [17]: "2001-09-30T08:00:22Z" (1001836822) transition_time 0x70-0x74 (4)
0x070|            3c b0 0a a6                        |    <...        |      [18]: "2002-04-07T09:00:22Z" (1018170022) transition_time 0x74-0x78 (4)
0x070|                        3d bb 9d 16            |        =...    |      [19]: "2002-10-27T08:00:22Z" (1035705622) transition_time 0x78-0x7c (4)
0x070|                                    3e 8f ec a6|            >...|      [20]: "2003-04-06T09:00:22Z" (1049619622) transition_time 0x7c-0x80 (4)
0x080|3f 9b 7f 16                                    |?...            |      [21]: "2003-10-26T08:00:22Z" (1067155222) transition_time 0x80-0x84 (4)
0x080|            40 6f ce a6                        |    @o..        |      [22]: "2004-04-04T09:00:22Z" (1081069222) transition_time 0x84-0x88 (4)
0x080|                        41 84 9b 96            |        A...    |      [23]: "2004-10-31T08:00:22Z" (1099209622) transition_time 0x88-0x8c (4)
0x080|                                    42 4f b0 a6|            BO..|      [24]: "2005-04-03T09:00:22Z" (1112518822) transition_time 0x8c-0x90 (4)
0x090|43 64 7d 96                                    |Cd}.            |      [25]: "2005-10-30T08:00:22Z" (1130659222) transition_time 0x90-0x94 (4)
0x090|            44 2f 92 a7                        |    D/..        |      [26]: "2006-04-02T09:00:23Z" (1143968423) transition_time 0x94-0x98 (4)
0x090|                        45 44 5f 97            |        ED_.    |      [27]: "2006-10-29T08:00:23Z" (1162108823) transition_time 0x98-0x9c (4)
0x090|                                    46 0f 74 a7|            F.t.|      [28]: "2007-04-01T09:00:23Z" (1175418023) transition_time 0x9c-0xa0 (4)
0x0a0|47 24 41 97                                    |G$A.            |      [29]: "2007-10-28T08:00:23Z" (1193558423) transition_time 0xa0-0xa4 (4)
0x0a0|            47 f8 91 27                        |    G..'        |      [30]: "2008-04-06T09:00:23Z" (1207472423) transition_time 0xa4-0xa8 (4)
0x0a0|                        49 04 23 97            |        I.#.    |      [31]: "2008-10-26T08:00:23Z" (1225008023) transition_time 0xa8-0xac (4)
0x0a0|                                    49 d8 73 28|            I.s(|      [32]: "2009-04-05T09:00:24Z" (1238922024) transition_time 0xac-0xb0 (4)
0x0b0|4a e4 05 98                                    |J...            |      [33]: "2009-10-25T08:00:24Z" (1256457624) transition_time 0xb0-0xb4 (4)
0x0b0|            4b b8 55 28                        |    K.U(        |      [34]: "2010-04-04T09:00:24Z" (1270371624) transition_time 0xb4-0xb8 (4)
0x0b0|                        4c cd 22 18            |        L.".    |      [35]: "2010-10-31T08:00:24Z" (1288512024) transition_time 0xb8-0xbc (4)
0x0b0|                                    4d 98 37 28|            M.7(|      [36]: "2011-04-03T09:00:24Z" (1301821224) transition_time 0xbc-0xc0 (4)
0x0c0|4e ad 04 18                                    |N...            |      [37]: "2011-10-30T08:00:24Z" (1319961624) transition_time 0xc0-0xc4 (4)
0x0c0|            4f 78 19 28                        |    Ox.(        |      [38]: "2012-04-01T09:00:24Z" (1333270824) transition_time 0xc4-0xc8 (4)
0x0c0|                        50 8c e6 19            |        P...    |      [39]: "2012-10-28T08:00:25Z" (1351411225) transition_time 0xc8-0xcc (4)
0x0c0|                                    51 61 35 a9|            Qa5.|      [40]: "2013-04-07T09:00:25Z" (1365325225) transition_time 0xcc-0xd0 (4)
0x0d0|52 6c c8 19                                    |Rl..            |      [41]: "2013-10-27T08:00:25Z" (1382860825) transition_time 0xd0-0xd4 (4)
0x0d0|            53 41 17 a9                        |    SA..        |      [42]: "2014-04-06T09:00:25Z" (1396774825) transition_time 0xd4-0xd8 (4)
0x0d0|                        54 4c aa 19            |        TL..    |      [43]: "2014-10-26T08:00:25Z" (1414310425) transition_time 0xd8-0xdc (4)
0x0d0|                                    55 20 f9 a9|            U ..|      [44]: "2015-04-05T09:00:25Z" (1428224425) transition_time 0xdc-0xe0 (4)
0x0e0|56 2c 8c 1a                                    |V,..            |      [45]: "2015-10-25T08:00:26Z" (1445760026) transition_time 0xe0-0xe4 (4)
0x0e0|            57 00 db aa                        |    W...        |      [46]: "2016-04-03T09:00:26Z" (1459674026) transition_time 0xe4-0xe8 (4)
0x0e0|                        58 15 a8 9a            |        X...    |      [47]: "2016-10-30T08:00:26Z" (1477814426) transition_time 0xe8-0xec (4)
0x0e0|                                    58 e0 bd ab|            X...|      [48]: "2017-04-02T09:00:27Z" (1491123627) transition_time 0xec-0xf0 (4)
0x0f0|59 f5 8a 9b                                    |Y...            |      [49]: "2017-10-29T08:00:27Z" (1509264027) transition_time 0xf0-0xf4 (4)
0x0f0|            5a c0 9f ab                        |    Z...        |      [50]: "2018-04-01T09:00:27Z" (1522573227) transition_time 0xf4-0xf8 (4)
0x0f0|                        5b d5 6c 9b            |        [.l.    |      [51]: "2018-10-28T08:00:27Z" (1540713627) transition_time 0xf8-0xfc (4)
0x0f0|                                    5c a9 bc 2b|            \..+|      [52]: "2019-04-07T09:00:27Z" (1554627627) transition_time 0xfc-0x100 (4)
0x100|5d b5 4e 9b                                    |].N.            |      [53]: "2019-10-27T08:00:27Z" (1572163227) transition_time 0x100-0x104 (4)
0x100|            5e 89 9e 2b                        |    ^..+        |      [54]: "2020-04-05T09:00:27Z" (1586077227) transition_time 0x104-0x108 (4)
0x100|                        5f 95 30 9b            |        _.0.    |      [55]: "2020-10-25T08:00:27Z" (1603612827) transition_time 0x108-0x10c (4)
0x100|                                    60 69 80 2b|            `i.+|      [56]: "2021-04-04T09:00:27Z" (1617526827) transition_time 0x10c-0x110 (4)
0x110|61 7e 4d 1b                                    |a~M.            |      [57]: "2021-10-31T08:00:27Z" (1635667227) transition_time 0x110-0x114 (4)
0x110|            62 49 62 2b                        |    bIb+        |      [58]: "2022-04-03T09:00:27Z" (1648976427) transition_time 0x114-0x118 (4)
0x110|                        63 5e 2f 1b            |        c^/.    |      [59]: "2022-10-30T08:00:27Z" (1667116827) transition_time 0x118-0x11c (4)
0x110|                                    64 9b 78 1b|            d.x.|      [60]: "2023-06-28T00:00:27Z" (1687910427) transition_time 0x11c-0x120 (4)
     |                                               |                |    transition_types[0:61]: 0x120-0x15d (61)
0x120|01                                             |.               |      [0]: 1 transition_type 0x120-0x121 (1)
0x120|   02                                          | .              |      [1]: 2 transition_type 0x121-0x122 (1)
0x120|      04                                       |  .             |      [2]: 4 transition_type 0x122-0x123 (1)
0x120|         03                                    |   .            |      [3]: 3 transition_type 0x123-0x124 (1)
0x120|            04                                 |    .           |      [4]: 4 transition_type 0x124-0x125 (1)
0x120|               02                              |     .          |      [5]: 2 transition_type 0x125-0x126 (1)
0x120|                  05                           |      .         |      [6]: 5 transition_type 0x126-0x127 (1)
0x120|                     02                        |       .        |      [7]: 2 transition_type 0x127-0x128 (1)
0x120|                        05                     |        .       |      [8]: 5 transition_type 0x128-0x129 (1)
0x120|                           02                  |         .      |      [9]: 2 transition_type 0x129-0x12a (1)
0x120|                              03               |          .     |      [10]: 3 transition_type 0x12a-0x12b (1)
0x120|                                 04            |           .    |      [11]: 4 transition_type 0x12b-0x12c (1)
0x120|                                    03         |            .   |      [12]: 3 transition_type 0x12c-0x12d (1)
0x120|                                       04      |             .  |      [13]: 4 transition_type 0x12d-0x12e (1)
0x120|                                          03   |              . |      [14]: 3 transition_type 0x12e-0x12f (1)
0x120|                                             04|               .|      [15]: 4 transition_type 0x12f-0x130 (1)
0x130|03                                             |.               |      [16]: 3 transition_type 0x130-0x131 (1)
0x130|   04                                          | .              |      [17]: 4 transition_type 0x131-0x132 (1)
0x130|      03                                       |  .             |      [18]: 3 transition_type 0x132-0x133 (1)
0x130|         04                                    |   .            |      [19]: 4 transition_type 0x133-0x134 (1)
0x130|            03                                 |    .           |      [20]: 3 transition_type 0x134-0x135 (1)
0x130|               04                              |     .          |      [21]: 4 transition_type 0x135-0x136 (1)
0x130|                  03                           |      .         |      [22]: 3 transition_type 0x136-0x137 (1)
0x130|                     04                        |       .        |      [23]: 4 transition_type 0x137-0x138 (1)
0x130|                        03                     |        .       |      [24]: 3 transition_type 0x138-0x139 (1)
0x130|                           04                  |         .      |      [25]: 4 transition_type 0x139-0x13a (1)
0x130|                              03               |          .     |      [26]: 3 transition_type 0x13a-0x13b (1)
0x130|                                 04            |           .    |      [27]: 4 transition_type 0x13b-0x13c (1)
0x130|                                    03         |            .   |      [28]: 3 transition_type 0x13c-0x13d (1)
0x130|                                       04      |             .  |      [29]: 4 transition_type 0x13d-0x13e (1)
0x130|                                          03   |              . |      [30]: 3 transition_type 0x13e-0x13f (1)
0x130|                                             04|               .|      [31]: 4 transition_type 0x13f-0x140 (1)
0x140|03                                             |.               |      [32]: 3 transition_type 0x140-0x141 (1)
0x140|   04                                          | .              |      [33]: 4 transition_type 0x141-0x142 (1)
0x140|      03                                       |  .             |      [34]: 3 transition_type 0x142-0x143 (1)
0x140|         04                                    |   .            |      [35]: 4 transition_type 0x143-0x144 (1)
0x140|            03                                 |    .           |      [36]: 3 transition_type 0x144-0x145 (1)
0x140|               04                              |     .          |      [37]: 4 transition_type 0x145-0x146 (1)
0x140|                  03                           |      .         |      [38]: 3 transition_type 0x146-0x147 (1)
0x140|                     04                        |       .        |      [39]: 4 transition_type 0x147-0x148 (1)
0x140|                        03                     |        .       |      [40]: 3 transition_type 0x148-0x149 (1)
0x140|                           04                  |         .      |      [41]: 4 transition_type 0x149-0x14a (1)
0x140|                              03               |          .     |      [42]: 3 transition_type 0x14a-0x14b (1)
0x140|                                 04            |           .    |      [43]: 4 transition_type 0x14b-0x14c (1)
0x140|                                    03         |            .   |      [44]: 3 transition_type 0x14c-0x14d (1)
0x140|                                       04      |             .  |      [45]: 4 transition_type 0x14d-0x14e (1)
0x140|                                          03   |              . |      [46]: 3 transition_type 0x14e-0x14f (1)
0x140|                                             04|               .|      [47]: 4 transition_type 0x14f-0x150 (1)
0x150|03                                             |.               |      [48]: 3 transition_type 0x150-0x151 (1)
0x150|   04                                          | .              |      [49]: 4 transition_type 0x151-0x152 (1)
0x150|      03                                       |  .             |      [50]: 3 transition_type 0x152-0x153 (1)
0x150|         04                                    |   .            |      [51]: 4 transition_type 0x153-0x154 (1)
0x150|            03                                 |    .           |      [52]: 3 transition_type 0x154-0x155 (1)
0x150|               04                              |     .          |      [53]: 4 transition_type 0x155-0x156 (1)
0x150|                  03                           |      .         |      [54]: 3 transition_type 0x156-0x157 (1)
0x150|                     04                        |       .        |      [55]: 4 transition_type 0x157-0x158 (1)
0x150|                        03                     |        .       |      [56]: 3 transition_type 0x158-0x159 (1)
0x150|                           04                  |         .      |      [57]: 4 transition_type 0x159-0x15a (1)
0x150|                              03               |          .     |      [58]: 3 transition_type 0x15a-0x15b (1)
0x150|                                 02            |           .    |      [59]: 2 transition_type 0x15b-0x15c (1)
0x150|                                    02         |            .   |      [60]: 2 transition_type 0x15c-0x15d (1)
     |                                               |                |    local_time_type_records[0:8]: 0x15d-0x18d (48)
     |                                               |                |      [0]{}: local_time_type 0x15d-0x163 (6)
0x150|                                       ff ff 9c|             ...|        utoff: -25460 (valid) 0x15d-0x161 (4)
0x160|8c                                             |.               |
0x160|   00                                          | .              |        dst: 0 (valid) 0x161-0x162 (1)
0x160|      00                                       |  .             |        idx: 0 (valid) 0x162-0x163 (1)
     |                                               |                |      [1]{}: local_time_type 0x163-0x169 (6)
0x160|         ff ff 9d 90                           |   ....         |        utoff: -25200 (valid) 0x163-0x167 (4)
0x160|                     00                        |       .        |        dst: 0 (valid) 0x167-0x168 (1)
0x160|                        04                     |        .       |        idx: 4 (valid) 0x168-0x169 (1)
     |                                               |                |      [2]{}: local_time_type 0x169-0x16f (6)
0x160|                           ff ff ab a0         |         ....   |        utoff: -21600 (valid) 0x169-0x16d (4)
0x160|                                       00      |             .  |        dst: 0 (valid) 0x16d-0x16e (1)
0x160|                                          08   |              . |        idx: 8 (valid) 0x16e-0x16f (1)
     |                                               |                |      [3]{}: local_time_type 0x16f-0x175 (6)
0x160|                                             ff|               .|        utoff: -21600 (valid) 0x16f-0x173 (4)
0x170|ff ab a0                                       |...             |
0x170|         01                                    |   .            |        dst: 1 (valid) 0x173-0x174 (1)
0x170|            0c                                 |    .           |        idx: 12 (valid) 0x174-0x175 (1)
     |                                               |                |      [4]{}: local_time_type 0x175-0x17b (6)
0x170|               ff ff 9d 90                     |     ....       |        utoff: -25200 (valid) 0x175-0x179 (4)
0x170|                           00                  |         .      |        dst: 0 (valid) 0x179-0x17a (1)
0x170|                              04               |          .     |        idx: 4 (valid) 0x17a-0x17b (1)
     |                                               |                |      [5]{}: local_time_type 0x17b-0x181 (6)
0x170|                                 ff ff b9 b0   |           .... |        utoff: -18000 (valid) 0x17b-0x17f (4)
0x170|                                             01|               .|        dst: 1 (valid) 0x17f-0x180 (1)
0x180|10                                             |.               |        idx: 16 (valid) 0x180-0x181 (1)
     |                                               |                |      [6]{}: local_time_type 0x181-0x187 (6)
0x180|   ff ff ab a0                                 | ....           |        utoff: -21600 (valid) 0x181-0x185 (4)
0x180|               01                              |     .          |        dst: 1 (valid) 0x185-0x186 (1)
0x180|                  0c                           |      .         |        idx: 12 (valid) 0x186-0x187 (1)
     |                                               |                |      [7]{}: local_time_type 0x187-0x18d (6)
0x180|                     ff ff ab a0               |       ....     |        utoff: -21600 (valid) 0x187-0x18b (4)
0x180|                                 00            |           .    |        dst: 0 (valid) 0x18b-0x18c (1)
0x180|                                    08         |            .   |        idx: 8 (valid) 0x18c-0x18d (1)
     |                                               |                |    time_zone_designations[0:5]: 0x18d-0x1a1 (20)
0x180|                                       4c 4d 54|             LMT|      [0]: "LMT" time_zone_designation 0x18d-0x191 (4)
0x190|00                                             |.               |
0x190|   4d 53 54 00                                 | MST.           |      [1]: "MST" time_zone_designation 0x191-0x195 (4)
0x190|               43 53 54 00                     |     CST.       |      [2]: "CST" time_zone_designation 0x195-0x199 (4)
0x190|                           4d 44 54 00         |         MDT.   |      [3]: "MDT" time_zone_designation 0x199-0x19d (4)
0x190|                                       43 44 54|             CDT|      [4]: "CDT" time_zone_designation 0x19d-0x1a1 (4)
0x1a0|00                                             |.               |
     |                                               |                |    leap_second_records[0:27]: 0x1a1-0x279 (216)
     |                                               |                |      [0]{}: leap_second_record 0x1a1-0x1a9 (8)
0x1a0|   04 b2 58 00                                 | ..X.           |        occur: "1972-07-01T00:00:00Z" (78796800) 0x1a1-0x1a5 (4)
0x1a0|               00 00 00 01                     |     ....       |        corr: 1 0x1a5-0x1a9 (4)
     |                                               |                |      [1]{}: leap_second_record 0x1a9-0x1b1 (8)
0x1a0|                           05 a4 ec 01         |         ....   |        occur: "1973-01-01T00:00:01Z" (94694401) 0x1a9-0x1ad (4)
0x1a0|                                       00 00 00|             ...|        corr: 2 0x1ad-0x1b1 (4)
0x1b0|02                                             |.               |
     |                                               |                |      [2]{}: leap_second_record 0x1b1-0x1b9 (8)
0x1b0|   07 86 1f 82                                 | ....           |        occur: "1974-01-01T00:00:02Z" (126230402) 0x1b1-0x1b5 (4)
0x1b0|               00 00 00 03                     |     ....       |        corr: 3 0x1b5-0x1b9 (4)
     |                                               |                |      [3]{}: leap_second_record 0x1b9-0x1c1 (8)
0x1b0|                           09 67 53 03         |         .gS.   |        occur: "1975-01-01T00:00:03Z" (157766403) 0x1b9-0x1bd (4)
0x1b0|                                       00 00 00|             ...|        corr: 4 0x1bd-0x1c1 (4)
0x1c0|04                                             |.               |
     |                                               |                |      [4]{}: leap_second_record 0x1c1-0x1c9 (8)
0x1c0|   0b 48 86 84                                 | .H..           |        occur: "1976-01-01T00:00:04Z" (189302404) 0x1c1-0x1c5 (4)
0x1c0|               00 00 00 05                     |     ....       |        corr: 5 0x1c5-0x1c9 (4)
     |                                               |                |      [5]{}: leap_second_record 0x1c9-0x1d1 (8)
0x1c0|                           0d 2b 0b 85         |         .+..   |        occur: "1977-01-01T00:00:05Z" (220924805) 0x1c9-0x1cd (4)
0x1c0|                                       00 00 00|             ...|        corr: 6 0x1cd-0x1d1 (4)
0x1d0|06                                             |.               |
     |                                               |                |      [6]{}: leap_second_record 0x1d1-0x1d9 (8)
0x1d0|   0f 0c 3f 06                                 | ..?.           |        occur: "1978-01-01T00:00:06Z" (252460806) 0x1d1-0x1d5 (4)
0x1d0|               00 00 00 07                     |     ....       |        corr: 7 0x1d5-0x1d9 (4)
     |                                               |                |      [7]{}: leap_second_record 0x1d9-0x1e1 (8)
0x1d0|                           10 ed 72 87         |         ..r.   |        occur: "1979-01-01T00:00:07Z" (283996807) 0x1d9-0x1dd (4)
0x1d0|                                       00 00 00|             ...|        corr: 8 0x1dd-0x1e1 (4)
0x1e0|08                                             |.               |
     |                                               |                |      [8]{}: leap_second_record 0x1e1-0x1e9 (8)
0x1e0|   12 ce a6 08                                 | ....           |        occur: "1980-01-01T00:00:08Z" (315532808) 0x1e1-0x1e5 (4)
0x1e0|               00 00 00 09                     |     ....       |        corr: 9 0x1e5-0x1e9 (4)
     |                                               |                |      [9]{}: leap_second_record 0x1e9-0x1f1 (8)
0x1e0|                           15 9f ca 89         |         ....   |        occur: "1981-07-01T00:00:09Z" (362793609) 0x1e9-0x1ed (4)
0x1e0|                                       00 00 00|             ...|        corr: 10 0x1ed-0x1f1 (4)
0x1f0|0a                                             |.               |
     |                                               |                |      [10]{}: leap_second_record 0x1f1-0x1f9 (8)
0x1f0|   17 80 fe 0a                                 | ....           |        occur: "1982-07-01T00:00:10Z" (394329610) 0x1f1-0x1f5 (4)
0x1f0|               00 00 00 0b                     |     ....       |        corr: 11 0x1f5-0x1f9 (4)
     |                                               |                |      [11]{}: leap_second_record 0x1f9-0x201 (8)
0x1f0|                           19 62 31 8b         |         .b1.   |        occur: "1983-07-01T00:00:11Z" (425865611) 0x1f9-0x1fd (4)
0x1f0|                                       00 00 00|             ...|        corr: 12 0x1fd-0x201 (4)
0x200|0c                                             |.               |
     |                                               |                |      [12]{}: leap_second_record 0x201-0x209 (8)
0x200|   1d 25 ea 0c                                 | .%..           |        occur: "1985-07-01T00:00:12Z" (489024012) 0x201-0x205 (4)
0x200|               00 00 00 0d                     |     ....       |        corr: 13 0x205-0x209 (4)
     |                                               |                |      [13]{}: leap_second_record 0x209-0x211 (8)
0x200|                           21 da e5 0d         |         !...   |        occur: "1988-01-01T00:00:13Z" (567993613) 0x209-0x20d (4)
0x200|                                       00 00 00|             ...|        corr: 14 0x20d-0x211 (4)
0x210|0e                                             |.               |
     |                                               |                |      [14]{}: leap_second_record 0x211-0x219 (8)
0x210|   25 9e 9d 8e                                 | %...           |        occur: "1990-01-01T00:00:14Z" (631152014) 0x211-0x215 (4)
0x210|               00 00 00 0f                     |     ....       |        corr: 15 0x215-0x219 (4)
     |                                               |                |      [15]{}: leap_second_record 0x219-0x221 (8)
0x210|                           27 7f d1 0f         |         '...   |        occur: "1991-01-01T00:00:15Z" (662688015) 0x219-0x21d (4)
0x210|                                       00 00 00|             ...|        corr: 16 0x21d-0x221 (4)
0x220|10                                             |.               |
     |                                               |                |      [16]{}: leap_second_record 0x221-0x229 (8)
0x220|   2a 50 f5 90                                 | *P..           |        occur: "1992-07-01T00:00:16Z" (709948816) 0x221-0x225 (4)
0x220|               00 00 00 11                     |     ....       |        corr: 17 0x225-0x229 (4)
     |                                               |                |      [17]{}: leap_second_record 0x229-0x231 (8)
0x220|                           2c 32 29 11         |         ,2).   |        occur: "1993-07-01T00:00:17Z" (741484817) 0x229-0x22d (4)
0x220|                                       00 00 00|             ...|        corr: 18 0x22d-0x231 (4)
0x230|12                                             |.               |
     |                                               |                |      [18]{}: leap_second_record 0x231-0x239 (8)
0x230|   2e 13 5c 92                                 | ..\.           |        occur: "1994-07-01T00:00:18Z" (773020818) 0x231-0x235 (4)
0x230|               00 00 00 13                     |     ....       |        corr: 19 0x235-0x239 (4)
     |                                               |                |      [19]{}: leap_second_record 0x239-0x241 (8)
0x230|                           30 e7 24 13         |         0.$.   |        occur: "1996-01-01T00:00:19Z" (820454419) 0x239-0x23d (4)
0x230|                                       00 00 00|             ...|        corr: 20 0x23d-0x241 (4)
0x240|14                                             |.               |
     |                                               |                |      [20]{}: leap_second_record 0x241-0x249 (8)
0x240|   33 b8 48 94                                 | 3.H.           |        occur: "1997-07-01T00:00:20Z" (867715220) 0x241-0x245 (4)
0x240|               00 00 00 15                     |     ....       |        corr: 21 0x245-0x249 (4)
     |                                               |                |      [21]{}: leap_second_record 0x249-0x251 (8)
0x240|                           36 8c 10 15         |         6...   |        occur: "1999-01-01T00:00:21Z" (915148821) 0x249-0x24d (4)
0x240|                                       00 00 00|             ...|        corr: 22 0x24d-0x251 (4)
0x250|16                                             |.               |
     |                                               |                |      [22]{}: leap_second_record 0x251-0x259 (8)
0x250|   43 b7 1b 96                                 | C...           |        occur: "2006-01-01T00:00:22Z" (1136073622) 0x251-0x255 (4)
0x250|               00 00 00 17                     |     ....       |        corr: 23 0x255-0x259 (4)
     |                                               |                |      [23]{}: leap_second_record 0x259-0x261 (8)
0x250|                           49 5c 07 97         |         I\..   |        occur: "2009-01-01T00:00:23Z" (1230768023) 0x259-0x25d (4)
0x250|                                       00 00 00|             ...|        corr: 24 0x25d-0x261 (4)
0x260|18                                             |.               |
     |                                               |                |      [24]{}: leap_second_record 0x261-0x269 (8)
0x260|   4f ef 93 18                                 | O...           |        occur: "2012-07-01T00:00:24Z" (1341100824) 0x261-0x265 (4)
0x260|               00 00 00 19                     |     ....       |        corr: 25 0x265-0x269 (4)
     |                                               |                |      [25]{}: leap_second_record 0x269-0x271 (8)
0x260|                           55 93 2d 99         |         U.-.   |        occur: "2015-07-01T00:00:25Z" (1435708825) 0x269-0x26d (4)
0x260|                                       00 00 00|             ...|        corr: 26 0x26d-0x271 (4)
0x270|1a                                             |.               |
     |                                               |                |      [26]{}: leap_second_record 0x271-0x279 (8)
0x270|   58 68 46 9a                                 | XhF.           |        occur: "2017-01-01T00:00:26Z" (1483228826) 0x271-0x275 (4)
0x270|               00 00 00 1b                     |     ....       |        corr: 27 0x275-0x279 (4)
     |                                               |                |    standard_wall_indicators[0:8]: 0x279-0x281 (8)
0x270|                           00                  |         .      |      [0]: 0 standard_wall_indicator (valid) 0x279-0x27a (1)
0x270|                              01               |          .     |      [1]: 1 standard_wall_indicator (valid) 0x27a-0x27b (1)
0x270|                                 00            |           .    |      [2]: 0 standard_wall_indicator (valid) 0x27b-0x27c (1)
0x270|                                    00         |            .   |      [3]: 0 standard_wall_indicator (valid) 0x27c-0x27d (1)
0x270|                                       00      |             .  |      [4]: 0 standard_wall_indicator (valid) 0x27d-0x27e (1)
0x270|                                          00   |              . |      [5]: 0 standard_wall_indicator (valid) 0x27e-0x27f (1)
0x270|                                             00|               .|      [6]: 0 standard_wall_indicator (valid) 0x27f-0x280 (1)
0x280|00                                             |.               |      [7]: 0 standard_wall_indicator (valid) 0x280-0x281 (1)
     |                                               |                |    ut_local_indicators[0:8]: 0x281-0x289 (8)
0x280|   00                                          | .              |      [0]: 0 ut_local_indicator (valid) 0x281-0x282 (1)
0x280|      01                                       |  .             |      [1]: 1 ut_local_indicator (valid) 0x282-0x283 (1)
0x280|         00                                    |   .            |      [2]: 0 ut_local_indicator (valid) 0x283-0x284 (1)
0x280|            00                                 |    .           |      [3]: 0 ut_local_indicator (valid) 0x284-0x285 (1)
0x280|               00                              |     .          |      [4]: 0 ut_local_indicator (valid) 0x285-0x286 (1)
0x280|                  00                           |      .         |      [5]: 0 ut_local_indicator (valid) 0x286-0x287 (1)
0x280|                     00                        |       .        |      [6]: 0 ut_local_indicator (valid) 0x287-0x288 (1)
0x280|                        00                     |        .       |      [7]: 0 ut_local_indicator (valid) 0x288-0x289 (1)
     |                                               |                |  v2plusheader{}: 0x289-0x2b5 (44)
0x280|                           54 5a 69 66         |         TZif   |    magic: 0x545a6966 (valid) 0x289-0x28d (4)
0x280|                                       32      |             2  |    ver: "2" (0x32) (valid) 0x28d-0x28e (1)
0x280|                                          00 00|              ..|    reserved: raw bits 0x28e-0x29d (15)
0x290|00 00 00 00 00 00 00 00 00 00 00 00 00         |.............   |
0x290|                                       00 00 00|             ...|    isutcnt: 8 0x29d-0x2a1 (4)
0x2a0|08                                             |.               |
0x2a0|   00 00 00 08                                 | ....           |    isstdcnt: 8 0x2a1-0x2a5 (4)
0x2a0|               00 00 00 1b                     |     ....       |    leapcnt: 27 0x2a5-0x2a9 (4)
0x2a0|                           00 00 00 3d         |         ...=   |    timecnt: 61 0x2a9-0x2ad (4)
0x2a0|                                       00 00 00|             ...|    typecnt: 8 0x2ad-0x2b1 (4)
0x2b0|08                                             |.               |
0x2b0|   00 00 00 14                                 | ....           |    charcnt: 20 0x2b1-0x2b5 (4)
     |                                               |                |  v2plusdatablock{}: 0x2b5-0x672 (957)
     |                                               |                |    transition_times[0:61]: 0x2b5-0x49d (488)
0x2b0|               ff ff ff ff a5 b6 e8 70         |     .......p   |      [0]: "1922-01-01T07:00:00Z" (-1514739600) transition_time 0x2b5-0x2bd (8)
0x2b0|                                       ff ff ff|             ...|      [1]: "1927-06-11T06:00:00Z" (-1343066400) transition_time 0x2bd-0x2c5 (8)
0x2c0|ff af f2 6e e0                                 |...n.           |
0x2c0|               ff ff ff ff b6 66 56 60         |     .....fV`   |      [2]: "1930-11-15T06:00:00Z" (-1234807200) transition_time 0x2c5-0x2cd (8)
0x2c0|                                       ff ff ff|             ...|      [3]: "1931-05-02T06:00:00Z" (-1220292000) transition_time 0x2cd-0x2d5 (8)
0x2d0|ff b7 43 d2 60                                 |..C.`           |
0x2d0|               ff ff ff ff b8 0c 36 60         |     ......6`   |      [4]: "1931-10-01T06:00:00Z" (-1207159200) transition_time 0x2d5-0x2dd (8)
0x2d0|                                       ff ff ff|             ...|      [5]: "1932-04-01T07:00:00Z" (-1191344400) transition_time 0x2dd-0x2e5 (8)
0x2e0|ff b8 fd 86 f0                                 |.....           |
0x2e0|               00 00 00 00 31 67 76 14         |     ....1gv.   |      [6]: "1996-04-07T08:00:20Z" (828864020) transition_time 0x2e5-0x2ed (8)
0x2e0|                                       00 00 00|             ...|      [7]: "1996-10-27T07:00:20Z" (846399620) transition_time 0x2ed-0x2f5 (8)
0x2f0|00 32 73 08 84                                 |.2s..           |
0x2f0|               00 00 00 00 33 47 58 14         |     ....3GX.   |      [8]: "1997-04-06T08:00:20Z" (860313620) transition_time 0x2f5-0x2fd (8)
0x2f0|                                       00 00 00|             ...|      [9]: "1997-10-26T07:00:21Z" (877849221) transition_time 0x2fd-0x305 (8)
0x300|00 34 52 ea 85                                 |.4R..           |
0x300|               00 00 00 00 35 27 48 25         |     ....5'H%   |      [10]: "1998-04-05T09:00:21Z" (891766821) transition_time 0x305-0x30d (8)
0x300|                                       00 00 00|             ...|      [11]: "1998-10-25T08:00:21Z" (909302421) transition_time 0x30d-0x315 (8)
0x310|00 36 32 da 95                                 |.62..           |
0x310|               00 00 00 00 37 07 2a 26         |     ....7.*&   |      [12]: "1999-04-04T09:00:22Z" (923216422) transition_time 0x315-0x31d (8)
0x310|                                       00 00 00|             ...|      [13]: "1999-10-31T08:00:22Z" (941356822) transition_time 0x31d-0x325 (8)
0x320|00 38 1b f7 16                                 |.8...           |
0x320|               00 00 00 00 38 e7 0c 26         |     ....8..&   |      [14]: "2000-04-02T09:00:22Z" (954666022) transition_time 0x325-0x32d (8)
0x320|                                       00 00 00|             ...|      [15]: "2000-10-29T08:00:22Z" (972806422) transition_time 0x32d-0x335 (8)
0x330|00 39 fb d9 16                                 |.9...           |
0x330|               00 00 00 00 3a f5 12 a6         |     ....:...   |      [16]: "2001-05-06T09:00:22Z" (989139622) transition_time 0x335-0x33d (8)
0x330|                                       00 00 00|             ...|      [17]: "2001-09-30T08:00:22Z" (1001836822) transition_time 0x33d-0x345 (8)
0x340|00 3b b6 d1 16                                 |.;...           |
0x340|               00 00 00 00 3c b0 0a a6         |     ....<...   |      [18]: "2002-04-07T09:00:22Z" (1018170022) transition_time 0x345-0x34d (8)
0x340|                                       00 00 00|             ...|      [19]: "2002-10-27T08:00:22Z" (1035705622) transition_time 0x34d-0x355 (8)
0x350|00 3d bb 9d 16                                 |.=...           |
0x350|               00 00 00 00 3e 8f ec a6         |     ....>...   |      [20]: "2003-04-06T09:00:22Z" (1049619622) transition_time 0x355-0x35d (8)
0x350|                                       00 00 00|             ...|      [21]: "2003-10-26T08:00:22Z" (1067155222) transition_time 0x35d-0x365 (8)
0x360|00 3f 9b 7f 16                                 |.?...           |
0x360|               00 00 00 00 40 6f ce a6         |     ....@o..   |      [22]: "2004-04-04T09:00:22Z" (1081069222) transition_time 0x365-0x36d (8)
0x360|                                       00 00 00|             ...|      [23]: "2004-10-31T08:00:22Z" (1099209622) transition_time 0x36d-0x375 (8)
0x370|00 41 84 9b 96                                 |.A...           |
0x370|               00 00 00 00 42 4f b0 a6         |     ....BO..   |      [24]: "2005-04-03T09:00:22Z" (1112518822) transition_time 0x375-0x37d (8)
0x370|                                       00 00 00|             ...|      [25]: "2005-10-30T08:00:22Z" (1130659222) transition_time 0x37d-0x385 (8)
0x380|00 43 64 7d 96                                 |.Cd}.           |
0x380|               00 00 00 00 44 2f 92 a7         |     ....D/..   |      [26]: "2006-04-02T09:00:23Z" (1143968423) transition_time 0x385-0x38d (8)
0x380|                                       00 00 00|             ...|      [27]: "2006-10-29T08:00:23Z" (1162108823) transition_time 0x38d-0x395 (8)
0x390|00 45 44 5f 97                                 |.ED_.           |
0x390|               00 00 00 00 46 0f 74 a7         |     ....F.t.   |      [28]: "2007-04-01T09:00:23Z" (1175418023) transition_time 0x395-0x39d (8)
0x390|                                       00 00 00|             ...|      [29]: "2007-10-28T08:00:23Z" (1193558423) transition_time 0x39d-0x3a5 (8)
0x3a0|00 47 24 41 97                                 |.G$A.           |
0x3a0|               00 00 00 00 47 f8 91 27         |     ....G..'   |      [30]: "2008-04-06T09:00:23Z" (1207472423) transition_time 0x3a5-0x3ad (8)
0x3a0|                                       00 00 00|             ...|      [31]: "2008-10-26T08:00:23Z" (1225008023) transition_time 0x3ad-0x3b5 (8)
0x3b0|00 49 04 23 97                                 |.I.#.           |
0x3b0|               00 00 00 00 49 d8 73 28         |     ....I.s(   |      [32]: "2009-04-05T09:00:24Z" (1238922024) transition_time 0x3b5-0x3bd (8)
0x3b0|                                       00 00 00|             ...|      [33]: "2009-10-25T08:00:24Z" (1256457624) transition_time 0x3bd-0x3c5 (8)
0x3c0|00 4a e4 05 98                                 |.J...           |
0x3c0|               00 00 00 00 4b b8 55 28         |     ....K.U(   |      [34]: "2010-04-04T09:00:24Z" (1270371624) transition_time 0x3c5-0x3cd (8)
0x3c0|                                       00 00 00|             ...|      [35]: "2010-10-31T08:00:24Z" (1288512024) transition_time 0x3cd-0x3d5 (8)
0x3d0|00 4c cd 22 18                                 |.L.".           |
0x3d0|               00 00 00 00 4d 98 37 28         |     ....M.7(   |      [36]: "2011-04-03T09:00:24Z" (1301821224) transition_time 0x3d5-0x3dd (8)
0x3d0|                                       00 00 00|             ...|      [37]: "2011-10-30T08:00:24Z" (1319961624) transition_time 0x3dd-0x3e5 (8)
0x3e0|00 4e ad 04 18                                 |.N...           |
0x3e0|               00 00 00 00 4f 78 19 28         |     ....Ox.(   |      [38]: "2012-04-01T09:00:24Z" (1333270824) transition_time 0x3e5-0x3ed (8)
0x3e0|                                       00 00 00|             ...|      [39]: "2012-10-28T08:00:25Z" (1351411225) transition_time 0x3ed-0x3f5 (8)
0x3f0|00 50 8c e6 19                                 |.P...           |
0x3f0|               00 00 00 00 51 61 35 a9         |     ....Qa5.   |      [40]: "2013-04-07T09:00:25Z" (1365325225) transition_time 0x3f5-0x3fd (8)
0x3f0|                                       00 00 00|             ...|      [41]: "2013-10-27T08:00:25Z" (1382860825) transition_time 0x3fd-0x405 (8)
0x400|00 52 6c c8 19                                 |.Rl..           |
0x400|               00 00 00 00 53 41 17 a9         |     ....SA..   |      [42]: "2014-04-06T09:00:25Z" (1396774825) transition_time 0x405-0x40d (8)
0x400|                                       00 00 00|             ...|      [43]: "2014-10-26T08:00:25Z" (1414310425) transition_time 0x40d-0x415 (8)
0x410|00 54 4c aa 19                                 |.TL..           |
0x410|               00 00 00 00 55 20 f9 a9         |     ....U ..   |      [44]: "2015-04-05T09:00:25Z" (1428224425) transition_time 0x415-0x41d (8)
0x410|                                       00 00 00|             ...|      [45]: "2015-10-25T08:00:26Z" (1445760026) transition_time 0x41d-0x425 (8)
0x420|00 56 2c 8c 1a                                 |.V,..           |
0x420|               00 00 00 00 57 00 db aa         |     ....W...   |      [46]: "2016-04-03T09:00:26Z" (1459674026) transition_time 0x425-0x42d (8)
0x420|                                       00 00 00|             ...|      [47]: "2016-10-30T08:00:26Z" (1477814426) transition_time 0x42d-0x435 (8)
0x430|00 58 15 a8 9a                                 |.X...           |
0x430|               00 00 00 00 58 e0 bd ab         |     ....X...   |      [48]: "2017-04-02T09:00:27Z" (1491123627) transition_time 0x435-0x43d (8)
0x430|                                       00 00 00|             ...|      [49]: "2017-10-29T08:00:27Z" (1509264027) transition_time 0x43d-0x445 (8)
0x440|00 59 f5 8a 9b                                 |.Y...           |
0x440|               00 00 00 00 5a c0 9f ab         |     ....Z...   |      [50]: "2018-04-01T09:00:27Z" (1522573227) transition_time 0x445-0x44d (8)
0x440|                                       00 00 00|             ...|      [51]: "2018-10-28T08:00:27Z" (1540713627) transition_time 0x44d-0x455 (8)
0x450|00 5b d5 6c 9b                                 |.[.l.           |
0x450|               00 00 00 00 5c a9 bc 2b         |     ....\..+   |      [52]: "2019-04-07T09:00:27Z" (1554627627) transition_time 0x455-0x45d (8)
0x450|                                       00 00 00|             ...|      [53]: "2019-10-27T08:00:27Z" (1572163227) transition_time 0x45d-0x465 (8)
0x460|00 5d b5 4e 9b                                 |.].N.           |
0x460|               00 00 00 00 5e 89 9e 2b         |     ....^..+   |      [54]: "2020-04-05T09:00:27Z" (1586077227) transition_time 0x465-0x46d (8)
0x460|                                       00 00 00|             ...|      [55]: "2020-10-25T08:00:27Z" (1603612827) transition_time 0x46d-0x475 (8)
0x470|00 5f 95 30 9b                                 |._.0.           |
0x470|               00 00 00 00 60 69 80 2b         |     ....`i.+   |      [56]: "2021-04-04T09:00:27Z" (1617526827) transition_time 0x475-0x47d (8)
0x470|                                       00 00 00|             ...|      [57]: "2021-10-31T08:00:27Z" (1635667227) transition_time 0x47d-0x485 (8)
0x480|00 61 7e 4d 1b                                 |.a~M.           |
0x480|               00 00 00 00 62 49 62 2b         |     ....bIb+   |      [58]: "2022-04-03T09:00:27Z" (1648976427) transition_time 0x485-0x48d (8)
0x480|                                       00 00 00|             ...|      [59]: "2022-10-30T08:00:27Z" (1667116827) transition_time 0x48d-0x495 (8)
0x490|00 63 5e 2f 1b                                 |.c^/.           |
0x490|               00 00 00 00 64 9b 78 1b         |     ....d.x.   |      [60]: "2023-06-28T00:00:27Z" (1687910427) transition_time 0x495-0x49d (8)
     |                                               |                |    transition_types[0:61]: 0x49d-0x4da (61)
0x490|                                       01      |             .  |      [0]: 1 transition_type 0x49d-0x49e (1)
0x490|                                          02   |              . |      [1]: 2 transition_type 0x49e-0x49f (1)
0x490|                                             04|               .|      [2]: 4 transition_type 0x49f-0x4a0 (1)
0x4a0|03                                             |.               |      [3]: 3 transition_type 0x4a0-0x4a1 (1)
0x4a0|   04                                          | .              |      [4]: 4 transition_type 0x4a1-0x4a2 (1)
0x4a0|      02                                       |  .             |      [5]: 2 transition_type 0x4a2-0x4a3 (1)
0x4a0|         05                                    |   .            |      [6]: 5 transition_type 0x4a3-0x4a4 (1)
0x4a0|            02                                 |    .           |      [7]: 2 transition_type 0x4a4-0x4a5 (1)
0x4a0|               05                              |     .          |      [8]: 5 transition_type 0x4a5-0x4a6 (1)
0x4a0|                  02                           |      .         |      [9]: 2 transition_type 0x4a6-0x4a7 (1)
0x4a0|                     03                        |       .        |      [10]: 3 transition_type 0x4a7-0x4a8 (1)
0x4a0|                        04                     |        .       |      [11]: 4 transition_type 0x4a8-0x4a9 (1)
0x4a0|                           03                  |         .      |      [12]: 3 transition_type 0x4a9-0x4aa (1)
0x4a0|                              04               |          .     |      [13]: 4 transition_type 0x4aa-0x4ab (1)
0x4a0|                                 03            |           .    |      [14]: 3 transition_type 0x4ab-0x4ac (1)
0x4a0|                                    04         |            .   |      [15]: 4 transition_type 0x4ac-0x4ad (1)
0x4a0|                                       03      |             .  |      [16]: 3 transition_type 0x4ad-0x4ae (1)
0x4a0|                                          04   |              . |      [17]: 4 transition_type 0x4ae-0x4af (1)
0x4a0|                                             03|               .|      [18]: 3 transition_type 0x4af-0x4b0 (1)
0x4b0|04                                             |.               |      [19]: 4 transition_type 0x4b0-0x4b1 (1)
0x4b0|   03                                          | .              |      [20]: 3 transition_type 0x4b1-0x4b2 (1)
0x4b0|      04                                       |  .             |      [21]: 4 transition_type 0x4b2-0x4b3 (1)
0x4b0|         03                                    |   .            |      [22]: 3 transition_type 0x4b3-0x4b4 (1)
0x4b0|            04                                 |    .           |      [23]: 4 transition_type 0x4b4-0x4b5 (1)
0x4b0|               03                              |     .          |      [24]: 3 transition_type 0x4b5-0x4b6 (1)
0x4b0|                  04                           |      .         |      [25]: 4 transition_type 0x4b6-0x4b7 (1)
0x4b0|                     03                        |       .        |      [26]: 3 transition_type 0x4b7-0x4b8 (1)
0x4b0|                        04                     |        .       |      [27]: 4 transition_type 0x4b8-0x4b9 (1)
0x4b0|                           03                  |         .      |      [28]: 3 transition_type 0x4b9-0x4ba (1)
0x4b0|                              04               |          .     |      [29]: 4 transition_type 0x4ba-0x4bb (1)
0x4b0|                                 03            |           .    |      [30]: 3 transition_type 0x4bb-0x4bc (1)
0x4b0|                                    04         |            .   |      [31]: 4 transition_type 0x4bc-0x4bd (1)
0x4b0|                                       03      |             .  |      [32]: 3 transition_type 0x4bd-0x4be (1)
0x4b0|                                          04   |              . |      [33]: 4 transition_type 0x4be-0x4bf (1)
0x4b0|                                             03|               .|      [34]: 3 transition_type 0x4bf-0x4c0 (1)
0x4c0|04                                             |.               |      [35]: 4 transition_type 0x4c0-0x4c1 (1)
0x4c0|   03                                          | .              |      [36]: 3 transition_type 0x4c1-0x4c2 (1)
0x4c0|      04                                       |  .             |      [37]: 4 transition_type 0x4c2-0x4c3 (1)
0x4c0|         03                                    |   .            |      [38]: 3 transition_type 0x4c3-0x4c4 (1)
0x4c0|            04                                 |    .           |      [39]: 4 transition_type 0x4c4-0x4c5 (1)
0x4c0|               03                              |     .          |      [40]: 3 transition_type 0x4c5-0x4c6 (1)
0x4c0|                  04                           |      .         |      [41]: 4 transition_type 0x4c6-0x4c7 (1)
0x4c0|                     03                        |       .        |      [42]: 3 transition_type 0x4c7-0x4c8 (1)
0x4c0|                        04                     |        .       |      [43]: 4 transition_type 0x4c8-0x4c9 (1)
0x4c0|                           03                  |         .      |      [44]: 3 transition_type 0x4c9-0x4ca (1)
0x4c0|                              04               |          .     |      [45]: 4 transition_type 0x4ca-0x4cb (1)
0x4c0|                                 03            |           .    |      [46]: 3 transition_type 0x4cb-0x4cc (1)
0x4c0|                                    04         |            .   |      [47]: 4 transition_type 0x4cc-0x4cd (1)
0x4c0|                                       03      |             .  |      [48]: 3 transition_type 0x4cd-0x4ce (1)
0x4c0|                                          04   |              . |      [49]: 4 transition_type 0x4ce-0x4cf (1)
0x4c0|                                             03|               .|      [50]: 3 transition_type 0x4cf-0x4d0 (1)
0x4d0|04                                             |.               |      [51]: 4 transition_type 0x4d0-0x4d1 (1)
0x4d0|   03                                          | .              |      [52]: 3 transition_type 0x4d1-0x4d2 (1)
0x4d0|      04                                       |  .             |      [53]: 4 transition_type 0x4d2-0x4d3 (1)
0x4d0|         03                                    |   .            |      [54]: 3 transition_type 0x4d3-0x4d4 (1)
0x4d0|            04                                 |    .           |      [55]: 4 transition_type 0x4d4-0x4d5 (1)
0x4d0|               03                              |     .          |      [56]: 3 transition_type 0x4d5-0x4d6 (1)
0x4d0|                  04                           |      .         |      [57]: 4 transition_type 0x4d6-0x4d7 (1)
0x4d0|                     03                        |       .        |      [58]: 3 transition_type 0x4d7-0x4d8 (1)
0x4d0|                        02                     |        .       |      [59]: 2 transition_type 0x4d8-0x4d9 (1)
0x4d0|                           02                  |         .      |      [60]: 2 transition_type 0x4d9-0x4da (1)
     |                                               |                |    local_time_type_records[0:8]: 0x4da-0x50a (48)
     |                                               |                |      [0]{}: local_time_type 0x4da-0x4e0 (6)
0x4d0|                              ff ff 9c 8c      |          ....  |        utoff: -25460 (valid) 0x4da-0x4de (4)
0x4d0|                                          00   |              . |        dst: 0 (valid) 0x4de-0x4df (1)
0x4d0|                                             00|               .|        idx: 0 (valid) 0x4df-0x4e0 (1)
     |                                               |                |      [1]{}: local_time_type 0x4e0-0x4e6 (6)
0x4e0|ff ff 9d 90                                    |....            |        utoff: -25200 (valid) 0x4e0-0x4e4 (4)
0x4e0|            00                                 |    .           |        dst: 0 (valid) 0x4e4-0x4e5 (1)
0x4e0|               04                              |     .          |        idx: 4 (valid) 0x4e5-0x4e6 (1)
     |                                               |                |      [2]{}: local_time_type 0x4e6-0x4ec (6)
0x4e0|                  ff ff ab a0                  |      ....      |        utoff: -21600 (valid) 0x4e6-0x4ea (4)
0x4e0|                              00               |          .     |        dst: 0 (valid) 0x4ea-0x4eb (1)
0x4e0|                                 08            |           .    |        idx: 8 (valid) 0x4eb-0x4ec (1)
     |                                               |                |      [3]{}: local_time_type 0x4ec-0x4f2 (6)
0x4e0|                                    ff ff ab a0|            ....|        utoff: -21600 (valid) 0x4ec-0x4f0 (4)
0x4f0|01                                             |.               |        dst: 1 (valid) 0x4f0-0x4f1 (1)
0x4f0|   0c                                          | .              |        idx: 12 (valid) 0x4f1-0x4f2 (1)
     |                                               |                |      [4]{}: local_time_type 0x4f2-0x4f8 (6)
0x4f0|      ff ff 9d 90                              |  ....          |        utoff: -25200 (valid) 0x4f2-0x4f6 (4)
0x4f0|                  00                           |      .         |        dst: 0 (valid) 0x4f6-0x4f7 (1)
0x4f0|                     04                        |       .        |        idx: 4 (valid) 0x4f7-0x4f8 (1)
     |                                               |                |      [5]{}: local_time_type 0x4f8-0x4fe (6)
0x4f0|                        ff ff b9 b0            |        ....    |        utoff: -18000 (valid) 0x4f8-0x4fc (4)
0x4f0|                                    01         |            .   |        dst: 1 (valid) 0x4fc-0x4fd (1)
0x4f0|                                       10      |             .  |        idx: 16 (valid) 0x4fd-0x4fe (1)
     |                                               |                |      [6]{}: local_time_type 0x4fe-0x504 (6)
0x4f0|                                          ff ff|              ..|        utoff: -21600 (valid) 0x4fe-0x502 (4)
0x500|ab a0                                          |..              |
0x500|      01                                       |  .             |        dst: 1 (valid) 0x502-0x503 (1)
0x500|         0c                                    |   .            |        idx: 12 (valid) 0x503-0x504 (1)
     |                                               |                |      [7]{}: local_time_type 0x504-0x50a (6)
0x500|            ff ff ab a0                        |    ....        |        utoff: -21600 (valid) 0x504-0x508 (4)
0x500|                        00                     |        .       |        dst: 0 (valid) 0x508-0x509 (1)
0x500|                           08                  |         .      |        idx: 8 (valid) 0x509-0x50a (1)
     |                                               |                |    time_zone_designations[0:5]: 0x50a-0x51e (20)
0x500|                              4c 4d 54 00      |          LMT.  |      [0]: "LMT" time_zone_designation 0x50a-0x50e (4)
0x500|                                          4d 53|              MS|      [1]: "MST" time_zone_designation 0x50e-0x512 (4)
0x510|54 00                                          |T.              |
0x510|      43 53 54 00                              |  CST.          |      [2]: "CST" time_zone_designation 0x512-0x516 (4)
0x510|                  4d 44 54 00                  |      MDT.      |      [3]: "MDT" time_zone_designation 0x516-0x51a (4)
0x510|                              43 44 54 00      |          CDT.  |      [4]: "CDT" time_zone_designation 0x51a-0x51e (4)
     |                                               |                |    leap_second_records[0:27]: 0x51e-0x662 (324)
     |                                               |                |      [0]{}: leap_second_record 0x51e-0x52a (12)
0x510|                                          00 00|              ..|        occur: "1972-07-01T00:00:00Z" (78796800) 0x51e-0x526 (8)
0x520|00 00 04 b2 58 00                              |....X.          |
0x520|                  00 00 00 01                  |      ....      |        corr: 1 0x526-0x52a (4)
     |                                               |                |      [1]{}: leap_second_record 0x52a-0x536 (12)
0x520|                              00 00 00 00 05 a4|          ......|        occur: "1973-01-01T00:00:01Z" (94694401) 0x52a-0x532 (8)
0x530|ec 01                                          |..              |
0x530|      00 00 00 02                              |  ....          |        corr: 2 0x532-0x536 (4)
     |                                               |                |      [2]{}: leap_second_record 0x536-0x542 (12)
0x530|                  00 00 00 00 07 86 1f 82      |      ........  |        occur: "1974-01-01T00:00:02Z" (126230402) 0x536-0x53e (8)
0x530|                                          00 00|              ..|        corr: 3 0x53e-0x542 (4)
0x540|00 03                                          |..              |
     |                                               |                |      [3]{}: leap_second_record 0x542-0x54e (12)
0x540|      00 00 00 00 09 67 53 03                  |  .....gS.      |        occur: "1975-01-01T00:00:03Z" (157766403) 0x542-0x54a (8)
0x540|                              00 00 00 04      |          ....  |        corr: 4 0x54a-0x54e (4)
     |                                               |                |      [4]{}: leap_second_record 0x54e-0x55a (12)
0x540|                                          00 00|              ..|        occur: "1976-01-01T00:00:04Z" (189302404) 0x54e-0x556 (8)
0x550|00 00 0b 48 86 84                              |...H..          |
0x550|                  00 00 00 05                  |      ....      |        corr: 5 0x556-0x55a (4)
     |                                               |                |      [5]{}: leap_second_record 0x55a-0x566 (12)
0x550|                              00 00 00 00 0d 2b|          .....+|        occur: "1977-01-01T00:00:05Z" (220924805) 0x55a-0x562 (8)
0x560|0b 85                                          |..              |
0x560|      00 00 00 06                              |  ....          |        corr: 6 0x562-0x566 (4)
     |                                               |                |      [6]{}: leap_second_record 0x566-0x572 (12)
0x560|                  00 00 00 00 0f 0c 3f 06      |      ......?.  |        occur: "1978-01-01T00:00:06Z" (252460806) 0x566-0x56e (8)
0x560|                                          00 00|              ..|        corr: 7 0x56e-0x572 (4)
0x570|00 07                                          |..              |
     |                                               |                |      [7]{}: leap_second_record 0x572-0x57e (12)
0x570|      00 00 00 00 10 ed 72 87                  |  ......r.      |        occur: "1979-01-01T00:00:07Z" (283996807) 0x572-0x57a (8)
0x570|                              00 00 00 08      |          ....  |        corr: 8 0x57a-0x57e (4)
     |                                               |                |      [8]{}: leap_second_record 0x57e-0x58a (12)
0x570|                                          00 00|              ..|        occur: "1980-01-01T00:00:08Z" (315532808) 0x57e-0x586 (8)
0x580|00 00 12 ce a6 08                              |......          |
0x580|                  00 00 00 09                  |      ....      |        corr: 9 0x586-0x58a (4)
     |                                               |                |      [9]{}: leap_second_record 0x58a-0x596 (12)
0x580|                              00 00 00 00 15 9f|          ......|        occur: "1981-07-01T00:00:09Z" (362793609) 0x58a-0x592 (8)
0x590|ca 89                                          |..              |
0x590|      00 00 00 0a                              |  ....          |        corr: 10 0x592-0x596 (4)
     |                                               |                |      [10]{}: leap_second_record 0x596-0x5a2 (12)
0x590|                  00 00 00 00 17 80 fe 0a      |      ........  |        occur: "1982-07-01T00:00:10Z" (394329610) 0x596-0x59e (8)
0x590|                                          00 00|              ..|        corr: 11 0x59e-0x5a2 (4)
0x5a0|00 0b                                          |..              |
     |                                               |                |      [11]{}: leap_second_record 0x5a2-0x5ae (12)
0x5a0|      00 00 00 00 19 62 31 8b                  |  .....b1.      |        occur: "1983-07-01T00:00:11Z" (425865611) 0x5a2-0x5aa (8)
0x5a0|                              00 00 00 0c      |          ....  |        corr: 12 0x5aa-0x5ae (4)
     |                                               |                |      [12]{}: leap_second_record 0x5ae-0x5ba (12)
0x5a0|                                          00 00|              ..|        occur: "1985-07-01T00:00:12Z" (489024012) 0x5ae-0x5b6 (8)
0x5b0|00 00 1d 25 ea 0c                              |...%..          |
0x5b0|                  00 00 00 0d                  |      ....      |        corr: 13 0x5b6-0x5ba (4)
     |                                               |                |      [13]{}: leap_second_record 0x5ba-0x5c6 (12)
0x5b0|                              00 00 00 00 21 da|          ....!.|        occur: "1988-01-01T00:00:13Z" (567993613) 0x5ba-0x5c2 (8)
0x5c0|e5 0d                                          |..              |
0x5c0|      00 00 00 0e                              |  ....          |        corr: 14 0x5c2-0x5c6 (4)
     |                                               |                |      [14]{}: leap_second_record 0x5c6-0x5d2 (12)
0x5c0|                  00 00 00 00 25 9e 9d 8e      |      ....%...  |        occur: "1990-01-01T00:00:14Z" (631152014) 0x5c6-0x5ce (8)
0x5c0|                                          00 00|              ..|        corr: 15 0x5ce-0x5d2 (4)
0x5d0|00 0f                                          |..              |
     |                                               |                |      [15]{}: leap_second_record 0x5d2-0x5de (12)
0x5d0|      00 00 00 00 27 7f d1 0f                  |  ....'...      |        occur: "1991-01-01T00:00:15Z" (662688015) 0x5d2-0x5da (8)
0x5d0|                              00 00 00 10      |          ....  |        corr: 16 0x5da-0x5de (4)
     |                                               |                |      [16]{}: leap_second_record 0x5de-0x5ea (12)
0x5d0|                                          00 00|              ..|        occur: "1992-07-01T00:00:16Z" (709948816) 0x5de-0x5e6 (8)
0x5e0|00 00 2a 50 f5 90                              |..*P..          |
0x5e0|                  00 00 00 11                  |      ....      |        corr: 17 0x5e6-0x5ea (4)
     |                                               |                |      [17]{}: leap_second_record 0x5ea-0x5f6 (12)
0x5e0|                              00 00 00 00 2c 32|          ....,2|        occur: "1993-07-01T00:00:17Z" (741484817) 0x5ea-0x5f2 (8)
0x5f0|29 11                                          |).              |
0x5f0|      00 00 00 12                              |  ....          |        corr: 18 0x5f2-0x5f6 (4)
     |                                               |                |      [18]{}: leap_second_record 0x5f6-0x602 (12)
0x5f0|                  00 00 00 00 2e 13 5c 92      |      ......\.  |        occur: "1994-07-01T00:00:18Z" (773020818) 0x5f6-0x5fe (8)
0x5f0|                                          00 00|              ..|        corr: 19 0x5fe-0x602 (4)
0x600|00 13                                          |..              |
     |                                               |                |      [19]{}: leap_second_record 0x602-0x60e (12)
0x600|      00 00 00 00 30 e7 24 13                  |  ....0.$.      |        occur: "1996-01-01T00:00:19Z" (820454419) 0x602-0x60a (8)
0x600|                              00 00 00 14      |          ....  |        corr: 20 0x60a-0x60e (4)
     |                                               |                |      [20]{}: leap_second_record 0x60e-0x61a (12)
0x600|                                          00 00|              ..|        occur: "1997-07-01T00:00:20Z" (867715220) 0x60e-0x616 (8)
0x610|00 00 33 b8 48 94                              |..3.H.          |
0x610|                  00 00 00 15                  |      ....      |        corr: 21 0x616-0x61a (4)
     |                                               |                |      [21]{}: leap_second_record 0x61a-0x626 (12)
0x610|                              00 00 00 00 36 8c|          ....6.|        occur: "1999-01-01T00:00:21Z" (915148821) 0x61a-0x622 (8)
0x620|10 15                                          |..              |
0x620|      00 00 00 16                              |  ....          |        corr: 22 0x622-0x626 (4)
     |                                               |                |      [22]{}: leap_second_record 0x626-0x632 (12)
0x620|                  00 00 00 00 43 b7 1b 96      |      ....C...  |        occur: "2006-01-01T00:00:22Z" (1136073622) 0x626-0x62e (8)
0x620|                                          00 00|              ..|        corr: 23 0x62e-0x632 (4)
0x630|00 17                                          |..              |
     |                                               |                |      [23]{}: leap_second_record 0x632-0x63e (12)
0x630|      00 00 00 00 49 5c 07 97                  |  ....I\..      |        occur: "2009-01-01T00:00:23Z" (1230768023) 0x632-0x63a (8)
0x630|                              00 00 00 18      |          ....  |        corr: 24 0x63a-0x63e (4)
     |                                               |                |      [24]{}: leap_second_record 0x63e-0x64a (12)
0x630|                                          00 00|              ..|        occur: "2012-07-01T00:00:24Z" (1341100824) 0x63e-0x646 (8)
0x640|00 00 4f ef 93 18                              |..O...          |
0x640|                  00 00 00 19                  |      ....      |        corr: 25 0x646-0x64a (4)
     |                                               |                |      [25]{}: leap_second_record 0x64a-0x656 (12)
0x640|                              00 00 00 00 55 93|          ....U.|        occur: "2015-07-01T00:00:25Z" (1435708825) 0x64a-0x652 (8)
0x650|2d 99                                          |-.              |
0x650|      00 00 00 1a                              |  ....          |        corr: 26 0x652-0x656 (4)
     |                                               |                |      [26]{}: leap_second_record 0x656-0x662 (12)
0x650|                  00 00 00 00 58 68 46 9a      |      ....XhF.  |        occur: "2017-01-01T00:00:26Z" (1483228826) 0x656-0x65e (8)
0x650|                                          00 00|              ..|        corr: 27 0x65e-0x662 (4)
0x660|00 1b                                          |..              |
     |                                               |                |    standard_wall_indicators[0:8]: 0x662-0x66a (8)
0x660|      00                                       |  .             |      [0]: 0 standard_wall_indicator (valid) 0x662-0x663 (1)
0x660|         01                                    |   .            |      [1]: 1 standard_wall_indicator (valid) 0x663-0x664 (1)
0x660|            00                                 |    .           |      [2]: 0 standard_wall_indicator (valid) 0x664-0x665 (1)
0x660|               00                              |     .          |      [3]: 0 standard_wall_indicator (valid) 0x665-0x666 (1)
0x660|                  00                           |      .         |      [4]: 0 standard_wall_indicator (valid) 0x666-0x667 (1)
0x660|                     00                        |       .        |      [5]: 0 standard_wall_indicator (valid) 0x667-0x668 (1)
0x660|                        00                     |        .       |      [6]: 0 standard_wall_indicator (valid) 0x668-0x669 (1)
0x660|                           00                  |         .      |      [7]: 0 standard_wall_indicator (valid) 0x669-0x66a (1)
     |                                               |                |    ut_local_indicators[0:8]: 0x66a-0x672 (8)
0x660|                              00               |          .     |      [0]: 0 ut_local_indicator (valid) 0x66a-0x66b (1)
0x660|                                 01            |           .    |      [1]: 1 ut_local_indicator (valid) 0x66b-0x66c (1)
0x660|                                    00         |            .   |      [2]: 0 ut_local_indicator (valid) 0x66c-0x66d (1)
0x660|                                       00      |             .  |      [3]: 0 ut_local_indicator (valid) 0x66d-0x66e (1)
0x660|                                          00   |              . |      [4]: 0 ut_local_indicator (valid) 0x66e-0x66f (1)
0x660|                                             00|               .|      [5]: 0 ut_local_indicator (valid) 0x66f-0x670 (1)
0x670|00                                             |.               |      [6]: 0 ut_local_indicator (valid) 0x670-0x671 (1)
0x670|   00                                          | .              |      [7]: 0 ut_local_indicator (valid) 0x671-0x672 (1)
     |                                               |                |  footer{}: 0x672-0x674 (2)
0x670|      0a                                       |  .             |    nl1: 10 (valid) 0x672-0x673 (1)
     |                                               |                |    tz_string: "" 0x673-0x673 (0)
0x670|         0a|                                   |   .|           |    nl2: 10 (valid) 0x673-0x674 (1)
