$ fq -d tzif dv Chisinau
     |00 01 02 03 04 05 06 07 08 09 0a 0b 0c 0d 0e 0f|0123456789abcdef|.{}: Chisinau (tzif) 0x0-0x956 (2390)
     |                                               |                |  v1header{}: 0x0-0x2c (44)
0x000|54 5a 69 66                                    |TZif            |    magic: 0x545a6966 (valid) 0x0-0x4 (4)
0x000|            32                                 |    2           |    ver: "2" (0x32) (valid) 0x4-0x5 (1)
0x000|               00 00 00 00 00 00 00 00 00 00 00|     ...........|    reserved: raw bits 0x5-0x14 (15)
0x010|00 00 00 00                                    |....            |
0x010|            00 00 00 00                        |    ....        |    isutcnt: 0 0x14-0x18 (4)
0x010|                        00 00 00 10            |        ....    |    isstdcnt: 16 0x18-0x1c (4)
0x010|                                    00 00 00 00|            ....|    leapcnt: 0 0x1c-0x20 (4)
0x020|00 00 00 8d                                    |....            |    timecnt: 141 0x20-0x24 (4)
0x020|            00 00 00 10                        |    ....        |    typecnt: 16 0x24-0x28 (4)
0x020|                        00 00 00 26            |        ...&    |    charcnt: 38 0x28-0x2c (4)
     |                                               |                |  v1datablock{}: 0x2c-0x383 (855)
     |                                               |                |    transition_times[0:141]: 0x2c-0x260 (564)
0x020|                                    80 00 00 00|            ....|      [0]: "1901-12-13T20:45:52Z" (-2147483648) transition_time 0x2c-0x30 (4)
0x030|9e 6b 9f 0c                                    |.k..            |      [1]: "1918-02-14T22:05:00Z" (-1637114100) transition_time 0x30-0x34 (4)
0x030|            b7 b0 d2 08                        |    ....        |      [2]: "1931-07-23T22:15:36Z" (-1213148664) transition_time 0x34-0x38 (4)
0x030|                        b9 3e f3 60            |        .>.`    |      [3]: "1932-05-20T22:00:00Z" (-1187056800) transition_time 0x38-0x3c (4)
0x030|                                    b9 ef 9c 60|            ...`|      [4]: "1932-10-01T22:00:00Z" (-1175479200) transition_time 0x3c-0x40 (4)
0x040|ba df 8d 60                                    |...`            |      [5]: "1933-04-01T22:00:00Z" (-1159754400) transition_time 0x40-0x44 (4)
0x040|            bb cf 7e 60                        |    ..~`        |      [6]: "1933-09-30T22:00:00Z" (-1144029600) transition_time 0x44-0x48 (4)
0x040|                        bc c8 a9 e0            |        ....    |      [7]: "1934-04-07T22:00:00Z" (-1127700000) transition_time 0x48-0x4c (4)
0x040|                                    bd b8 9a e0|            ....|      [8]: "1934-10-06T22:00:00Z" (-1111975200) transition_time 0x4c-0x50 (4)
0x050|be a8 8b e0                                    |....            |      [9]: "1935-04-06T22:00:00Z" (-1096250400) transition_time 0x50-0x54 (4)
0x050|            bf 98 7c e0                        |    ..|.        |      [10]: "1935-10-05T22:00:00Z" (-1080525600) transition_time 0x54-0x58 (4)
0x050|                        c0 88 6d e0            |        ..m.    |      [11]: "1936-04-04T22:00:00Z" (-1064800800) transition_time 0x58-0x5c (4)
0x050|                                    c1 78 5e e0|            .x^.|      [12]: "1936-10-03T22:00:00Z" (-1049076000) transition_time 0x5c-0x60 (4)
0x060|c2 68 4f e0                                    |.hO.            |      [13]: "1937-04-03T22:00:00Z" (-1033351200) transition_time 0x60-0x64 (4)
0x060|            c3 58 40 e0                        |    .X@.        |      [14]: "1937-10-02T22:00:00Z" (-1017626400) transition_time 0x64-0x68 (4)
0x060|                        c4 48 31 e0            |        .H1.    |      [15]: "1938-04-02T22:00:00Z" (-1001901600) transition_time 0x68-0x6c (4)
0x060|                                    c5 38 22 e0|            .8".|      [16]: "1938-10-01T22:00:00Z" (-986176800) transition_time 0x6c-0x70 (4)
0x070|c6 28 13 e0                                    |.(..            |      [17]: "1939-04-01T22:00:00Z" (-970452000) transition_time 0x70-0x74 (4)
0x070|            c7 18 04 e0                        |    ....        |      [18]: "1939-09-30T22:00:00Z" (-954727200) transition_time 0x74-0x78 (4)
0x070|                        c8 bc 93 60            |        ...`    |      [19]: "1940-08-14T22:00:00Z" (-927165600) transition_time 0x78-0x7c (4)
0x070|                                    ca 77 7d 50|            .w}P|      [20]: "1941-07-16T21:00:00Z" (-898138800) transition_time 0x7c-0x80 (4)
0x080|cc e7 4b 10                                    |..K.            |      [21]: "1942-11-02T01:00:00Z" (-857257200) transition_time 0x80-0x84 (4)
0x080|            cd a9 17 90                        |    ....        |      [22]: "1943-03-29T01:00:00Z" (-844556400) transition_time 0x84-0x88 (4)
0x080|                        ce a2 43 10            |        ..C.    |      [23]: "1943-10-04T01:00:00Z" (-828226800) transition_time 0x88-0x8c (4)
0x080|                                    cf 92 34 10|            ..4.|      [24]: "1944-04-03T01:00:00Z" (-812502000) transition_time 0x8c-0x90 (4)
0x090|d0 4e 90 60                                    |.N.`            |      [25]: "1944-08-23T22:00:00Z" (-800157600) transition_time 0x90-0x94 (4)
0x090|            15 27 a7 d0                        |    .'..        |      [26]: "1981-03-31T21:00:00Z" (354920400) transition_time 0x94-0x98 (4)
0x090|                        16 18 dc 40            |        ...@    |      [27]: "1981-09-30T20:00:00Z" (370728000) transition_time 0x98-0x9c (4)
0x090|                                    17 08 db 50|            ...P|      [28]: "1982-03-31T21:00:00Z" (386456400) transition_time 0x9c-0xa0 (4)
0x0a0|17 fa 0f c0                                    |....            |      [29]: "1982-09-30T20:00:00Z" (402264000) transition_time 0xa0-0xa4 (4)
0x0a0|            18 ea 0e d0                        |    ....        |      [30]: "1983-03-31T21:00:00Z" (417992400) transition_time 0xa4-0xa8 (4)
0x0a0|                        19 db 43 40            |        ..C@    |      [31]: "1983-09-30T20:00:00Z" (433800000) transition_time 0xa8-0xac (4)
0x0a0|                                    1a cc 93 d0|            ....|      [32]: "1984-03-31T21:00:00Z" (449614800) transition_time 0xac-0xb0 (4)
0x0b0|1b bc a0 f0                                    |....            |      [33]: "1984-09-29T23:00:00Z" (465346800) transition_time 0xb0-0xb4 (4)
0x0b0|            1c ac 91 f0                        |    ....        |      [34]: "1985-03-30T23:00:00Z" (481071600) transition_time 0xb4-0xb8 (4)
0x0b0|                        1d 9c 82 f0            |        ....    |      [35]: "1985-09-28T23:00:00Z" (496796400) transition_time 0xb8-0xbc (4)
0x0b0|                                    1e 8c 73 f0|            ..s.|      [36]: "1986-03-29T23:00:00Z" (512521200) transition_time 0xbc-0xc0 (4)
0x0c0|1f 7c 64 f0                                    |.|d.            |      [37]: "1986-09-27T23:00:00Z" (528246000) transition_time 0xc0-0xc4 (4)
0x0c0|            20 6c 55 f0                        |     lU.        |      [38]: "1987-03-28T23:00:00Z" (543970800) transition_time 0xc4-0xc8 (4)
0x0c0|                        21 5c 46 f0            |        !\F.    |      [39]: "1987-09-26T23:00:00Z" (559695600) transition_time 0xc8-0xcc (4)
0x0c0|                                    22 4c 37 f0|            "L7.|      [40]: "1988-03-26T23:00:00Z" (575420400) transition_time 0xcc-0xd0 (4)
0x0d0|23 3c 28 f0                                    |#<(.            |      [41]: "1988-09-24T23:00:00Z" (591145200) transition_time 0xd0-0xd4 (4)
0x0d0|            24 2c 19 f0                        |    $,..        |      [42]: "1989-03-25T23:00:00Z" (606870000) transition_time 0xd4-0xd8 (4)
0x0d0|                        25 1c 0a f0            |        %...    |      [43]: "1989-09-23T23:00:00Z" (622594800) transition_time 0xd8-0xdc (4)
0x0d0|                                    26 0b fb f0|            &...|      [44]: "1990-03-24T23:00:00Z" (638319600) transition_time 0xdc-0xe0 (4)
0x0e0|26 43 4c e0                                    |&CL.            |      [45]: "1990-05-05T22:00:00Z" (641944800) transition_time 0xe0-0xe4 (4)
0x0e0|            27 05 35 80                        |    '.5.        |      [46]: "1990-09-30T00:00:00Z" (654652800) transition_time 0xe4-0xe8 (4)
0x0e0|                        27 f5 26 80            |        '.&.    |      [47]: "1991-03-31T00:00:00Z" (670377600) transition_time 0xe8-0xec (4)
0x0e0|                                    28 e5 17 80|            (...|      [48]: "1991-09-29T00:00:00Z" (686102400) transition_time 0xec-0xf0 (4)
0x0f0|29 d4 ec 60                                    |)..`            |      [49]: "1992-03-28T22:00:00Z" (701820000) transition_time 0xf0-0xf4 (4)
0x0f0|            2a c4 cf 50                        |    *..P        |      [50]: "1992-09-26T21:00:00Z" (717541200) transition_time 0xf4-0xf8 (4)
0x0f0|                        2b b4 ce 60            |        +..`    |      [51]: "1993-03-27T22:00:00Z" (733269600) transition_time 0xf8-0xfc (4)
0x0f0|                                    2c a4 b1 50|            ,..P|      [52]: "1993-09-25T21:00:00Z" (748990800) transition_time 0xfc-0x100 (4)
0x100|2d 94 b0 60                                    |-..`            |      [53]: "1994-03-26T22:00:00Z" (764719200) transition_time 0x100-0x104 (4)
0x100|            2e 84 93 50                        |    ...P        |      [54]: "1994-09-24T21:00:00Z" (780440400) transition_time 0x104-0x108 (4)
0x100|                        2f 74 92 60            |        /t.`    |      [55]: "1995-03-25T22:00:00Z" (796168800) transition_time 0x108-0x10c (4)
0x100|                                    30 64 75 50|            0duP|      [56]: "1995-09-23T21:00:00Z" (811890000) transition_time 0x10c-0x110 (4)
0x110|31 5d ae e0                                    |1]..            |      [57]: "1996-03-30T22:00:00Z" (828223200) transition_time 0x110-0x114 (4)
0x110|            32 72 7b d0                        |    2r{.        |      [58]: "1996-10-26T21:00:00Z" (846363600) transition_time 0x114-0x118 (4)
0x110|                        33 3d ad 00            |        3=..    |      [59]: "1997-03-30T00:00:00Z" (859680000) transition_time 0x118-0x11c (4)
0x110|                                    34 52 88 00|            4R..|      [60]: "1997-10-26T00:00:00Z" (877824000) transition_time 0x11c-0x120 (4)
0x120|35 1d 8f 00                                    |5...            |      [61]: "1998-03-29T00:00:00Z" (891129600) transition_time 0x120-0x124 (4)
0x120|            36 32 6a 00                        |    62j.        |      [62]: "1998-10-25T00:00:00Z" (909273600) transition_time 0x124-0x128 (4)
0x120|                        36 fd 71 00            |        6.q.    |      [63]: "1999-03-28T00:00:00Z" (922579200) transition_time 0x128-0x12c (4)
0x120|                                    38 1b 86 80|            8...|      [64]: "1999-10-31T00:00:00Z" (941328000) transition_time 0x12c-0x130 (4)
0x130|38 dd 53 00                                    |8.S.            |      [65]: "2000-03-26T00:00:00Z" (954028800) transition_time 0x130-0x134 (4)
0x130|            39 fb 68 80                        |    9.h.        |      [66]: "2000-10-29T00:00:00Z" (972777600) transition_time 0x134-0x138 (4)
0x130|                        3a bd 35 00            |        :.5.    |      [67]: "2001-03-25T00:00:00Z" (985478400) transition_time 0x138-0x13c (4)
0x130|                                    3b db 4a 80|            ;.J.|      [68]: "2001-10-28T00:00:00Z" (1004227200) transition_time 0x13c-0x140 (4)
0x140|3c a6 51 80                                    |<.Q.            |      [69]: "2002-03-31T00:00:00Z" (1017532800) transition_time 0x140-0x144 (4)
0x140|            3d bb 2c 80                        |    =.,.        |      [70]: "2002-10-27T00:00:00Z" (1035676800) transition_time 0x144-0x148 (4)
0x140|                        3e 86 33 80            |        >.3.    |      [71]: "2003-03-30T00:00:00Z" (1048982400) transition_time 0x148-0x14c (4)
0x140|                                    3f 9b 0e 80|            ?...|      [72]: "2003-10-26T00:00:00Z" (1067126400) transition_time 0x14c-0x150 (4)
0x150|40 66 15 80                                    |@f..            |      [73]: "2004-03-28T00:00:00Z" (1080432000) transition_time 0x150-0x154 (4)
0x150|            41 84 2b 00                        |    A.+.        |      [74]: "2004-10-31T00:00:00Z" (1099180800) transition_time 0x154-0x158 (4)
0x150|                        42 45 f7 80            |        BE..    |      [75]: "2005-03-27T00:00:00Z" (1111881600) transition_time 0x158-0x15c (4)
0x150|                                    43 64 0d 00|            Cd..|      [76]: "2005-10-30T00:00:00Z" (1130630400) transition_time 0x15c-0x160 (4)
0x160|44 25 d9 80                                    |D%..            |      [77]: "2006-03-26T00:00:00Z" (1143331200) transition_time 0x160-0x164 (4)
0x160|            45 43 ef 00                        |    EC..        |      [78]: "2006-10-29T00:00:00Z" (1162080000) transition_time 0x164-0x168 (4)
0x160|                        46 05 bb 80            |        F...    |      [79]: "2007-03-25T00:00:00Z" (1174780800) transition_time 0x168-0x16c (4)
0x160|                                    47 23 d1 00|            G#..|      [80]: "2007-10-28T00:00:00Z" (1193529600) transition_time 0x16c-0x170 (4)
0x170|47 ee d8 00                                    |G...            |      [81]: "2008-03-30T00:00:00Z" (1206835200) transition_time 0x170-0x174 (4)
0x170|            49 03 b3 00                        |    I...        |      [82]: "2008-10-26T00:00:00Z" (1224979200) transition_time 0x174-0x178 (4)
0x170|                        49 ce ba 00            |        I...    |      [83]: "2009-03-29T00:00:00Z" (1238284800) transition_time 0x178-0x17c (4)
0x170|                                    4a e3 95 00|            J...|      [84]: "2009-10-25T00:00:00Z" (1256428800) transition_time 0x17c-0x180 (4)
0x180|4b ae 9c 00                                    |K...            |      [85]: "2010-03-28T00:00:00Z" (1269734400) transition_time 0x180-0x184 (4)
0x180|            4c cc b1 80                        |    L...        |      [86]: "2010-10-31T00:00:00Z" (1288483200) transition_time 0x184-0x188 (4)
0x180|                        4d 8e 7e 00            |        M.~.    |      [87]: "2011-03-27T00:00:00Z" (1301184000) transition_time 0x188-0x18c (4)
0x180|                                    4e ac 93 80|            N...|      [88]: "2011-10-30T00:00:00Z" (1319932800) transition_time 0x18c-0x190 (4)
0x190|4f 6e 60 00                                    |On`.            |      [89]: "2012-03-25T00:00:00Z" (1332633600) transition_time 0x190-0x194 (4)
0x190|            50 8c 75 80                        |    P.u.        |      [90]: "2012-10-28T00:00:00Z" (1351382400) transition_time 0x194-0x198 (4)
0x190|                        51 57 7c 80            |        QW|.    |      [91]: "2013-03-31T00:00:00Z" (1364688000) transition_time 0x198-0x19c (4)
0x190|                                    52 6c 57 80|            RlW.|      [92]: "2013-10-27T00:00:00Z" (1382832000) transition_time 0x19c-0x1a0 (4)
0x1a0|53 37 5e 80                                    |S7^.            |      [93]: "2014-03-30T00:00:00Z" (1396137600) transition_time 0x1a0-0x1a4 (4)
0x1a0|            54 4c 39 80                        |    TL9.        |      [94]: "2014-10-26T00:00:00Z" (1414281600) transition_time 0x1a4-0x1a8 (4)
0x1a0|                        55 17 40 80            |        U.@.    |      [95]: "2015-03-29T00:00:00Z" (1427587200) transition_time 0x1a8-0x1ac (4)
0x1a0|                                    56 2c 1b 80|            V,..|      [96]: "2015-10-25T00:00:00Z" (1445731200) transition_time 0x1ac-0x1b0 (4)
0x1b0|56 f7 22 80                                    |V.".            |      [97]: "2016-03-27T00:00:00Z" (1459036800) transition_time 0x1b0-0x1b4 (4)
0x1b0|            58 15 38 00                        |    X.8.        |      [98]: "2016-10-30T00:00:00Z" (1477785600) transition_time 0x1b4-0x1b8 (4)
0x1b0|                        58 d7 04 80            |        X...    |      [99]: "2017-03-26T00:00:00Z" (1490486400) transition_time 0x1b8-0x1bc (4)
0x1b0|                                    59 f5 1a 00|            Y...|      [100]: "2017-10-29T00:00:00Z" (1509235200) transition_time 0x1bc-0x1c0 (4)
0x1c0|5a b6 e6 80                                    |Z...            |      [101]: "2018-03-25T00:00:00Z" (1521936000) transition_time 0x1c0-0x1c4 (4)
0x1c0|            5b d4 fc 00                        |    [...        |      [102]: "2018-10-28T00:00:00Z" (1540684800) transition_time 0x1c4-0x1c8 (4)
0x1c0|                        5c a0 03 00            |        \...    |      [103]: "2019-03-31T00:00:00Z" (1553990400) transition_time 0x1c8-0x1cc (4)
0x1c0|                                    5d b4 de 00|            ]...|      [104]: "2019-10-27T00:00:00Z" (1572134400) transition_time 0x1cc-0x1d0 (4)
0x1d0|5e 7f e5 00                                    |^...            |      [105]: "2020-03-29T00:00:00Z" (1585440000) transition_time 0x1d0-0x1d4 (4)
0x1d0|            5f 94 c0 00                        |    _...        |      [106]: "2020-10-25T00:00:00Z" (1603584000) transition_time 0x1d4-0x1d8 (4)
0x1d0|                        60 5f c7 00            |        `_..    |      [107]: "2021-03-28T00:00:00Z" (1616889600) transition_time 0x1d8-0x1dc (4)
0x1d0|                                    61 7d dc 80|            a}..|      [108]: "2021-10-31T00:00:00Z" (1635638400) transition_time 0x1dc-0x1e0 (4)
0x1e0|62 3f a9 00                                    |b?..            |      [109]: "2022-03-27T00:00:00Z" (1648339200) transition_time 0x1e0-0x1e4 (4)
0x1e0|            63 5d be 80                        |    c]..        |      [110]: "2022-10-30T00:00:00Z" (1667088000) transition_time 0x1e4-0x1e8 (4)
0x1e0|                        64 1f 8b 00            |        d...    |      [111]: "2023-03-26T00:00:00Z" (1679788800) transition_time 0x1e8-0x1ec (4)
0x1e0|                                    65 3d a0 80|            e=..|      [112]: "2023-10-29T00:00:00Z" (1698537600) transition_time 0x1ec-0x1f0 (4)
0x1f0|66 08 a7 80                                    |f...            |      [113]: "2024-03-31T00:00:00Z" (1711843200) transition_time 0x1f0-0x1f4 (4)
0x1f0|            67 1d 82 80                        |    g...        |      [114]: "2024-10-27T00:00:00Z" (1729987200) transition_time 0x1f4-0x1f8 (4)
0x1f0|                        67 e8 89 80            |        g...    |      [115]: "2025-03-30T00:00:00Z" (1743292800) transition_time 0x1f8-0x1fc (4)
0x1f0|                                    68 fd 64 80|            h.d.|      [116]: "2025-10-26T00:00:00Z" (1761436800) transition_time 0x1fc-0x200 (4)
0x200|69 c8 6b 80                                    |i.k.            |      [117]: "2026-03-29T00:00:00Z" (1774742400) transition_time 0x200-0x204 (4)
0x200|            6a dd 46 80                        |    j.F.        |      [118]: "2026-10-25T00:00:00Z" (1792886400) transition_time 0x204-0x208 (4)
0x200|                        6b a8 4d 80            |        k.M.    |      [119]: "2027-03-28T00:00:00Z" (1806192000) transition_time 0x208-0x20c (4)
0x200|                                    6c c6 63 00|            l.c.|      [120]: "2027-10-31T00:00:00Z" (1824940800) transition_time 0x20c-0x210 (4)
0x210|6d 88 2f 80                                    |m./.            |      [121]: "2028-03-26T00:00:00Z" (1837641600) transition_time 0x210-0x214 (4)
0x210|            6e a6 45 00                        |    n.E.        |      [122]: "2028-10-29T00:00:00Z" (1856390400) transition_time 0x214-0x218 (4)
0x210|                        6f 68 11 80            |        oh..    |      [123]: "2029-03-25T00:00:00Z" (1869091200) transition_time 0x218-0x21c (4)
0x210|                                    70 86 27 00|            p.'.|      [124]: "2029-10-28T00:00:00Z" (1887840000) transition_time 0x21c-0x220 (4)
0x220|71 51 2e 00                                    |qQ..            |      [125]: "2030-03-31T00:00:00Z" (1901145600) transition_time 0x220-0x224 (4)
0x220|            72 66 09 00                        |    rf..        |      [126]: "2030-10-27T00:00:00Z" (1919289600) transition_time 0x224-0x228 (4)
0x220|                        73 31 10 00            |        s1..    |      [127]: "2031-03-30T00:00:00Z" (1932595200) transition_time 0x228-0x22c (4)
0x220|                                    74 45 eb 00|            tE..|      [128]: "2031-10-26T00:00:00Z" (1950739200) transition_time 0x22c-0x230 (4)
0x230|75 10 f2 00                                    |u...            |      [129]: "2032-03-28T00:00:00Z" (1964044800) transition_time 0x230-0x234 (4)
0x230|            76 2f 07 80                        |    v/..        |      [130]: "2032-10-31T00:00:00Z" (1982793600) transition_time 0x234-0x238 (4)
0x230|                        76 f0 d4 00            |        v...    |      [131]: "2033-03-27T00:00:00Z" (1995494400) transition_time 0x238-0x23c (4)
0x230|                                    78 0e e9 80|            x...|      [132]: "2033-10-30T00:00:00Z" (2014243200) transition_time 0x23c-0x240 (4)
0x240|78 d0 b6 00                                    |x...            |      [133]: "2034-03-26T00:00:00Z" (2026944000) transition_time 0x240-0x244 (4)
0x240|            79 ee cb 80                        |    y...        |      [134]: "2034-10-29T00:00:00Z" (2045692800) transition_time 0x244-0x248 (4)
0x240|                        7a b0 98 00            |        z...    |      [135]: "2035-03-25T00:00:00Z" (2058393600) transition_time 0x248-0x24c (4)
0x240|                                    7b ce ad 80|            {...|      [136]: "2035-10-28T00:00:00Z" (2077142400) transition_time 0x24c-0x250 (4)
0x250|7c 99 b4 80                                    ||...            |      [137]: "2036-03-30T00:00:00Z" (2090448000) transition_time 0x250-0x254 (4)
0x250|            7d ae 8f 80                        |    }...        |      [138]: "2036-10-26T00:00:00Z" (2108592000) transition_time 0x254-0x258 (4)
0x250|                        7e 79 96 80            |        ~y..    |      [139]: "2037-03-29T00:00:00Z" (2121897600) transition_time 0x258-0x25c (4)
0x250|                                    7f 8e 71 80|            ..q.|      [140]: "2037-10-25T00:00:00Z" (2140041600) transition_time 0x25c-0x260 (4)
     |                                               |                |    transition_types[0:141]: 0x260-0x2ed (141)
0x260|01                                             |.               |      [0]: 1 transition_type 0x260-0x261 (1)
0x260|   02                                          | .              |      [1]: 2 transition_type 0x261-0x262 (1)
0x260|      05                                       |  .             |      [2]: 5 transition_type 0x262-0x263 (1)
0x260|         03                                    |   .            |      [3]: 3 transition_type 0x263-0x264 (1)
0x260|            04                                 |    .           |      [4]: 4 transition_type 0x264-0x265 (1)
0x260|               03                              |     .          |      [5]: 3 transition_type 0x265-0x266 (1)
0x260|                  04                           |      .         |      [6]: 4 transition_type 0x266-0x267 (1)
0x260|                     03                        |       .        |      [7]: 3 transition_type 0x267-0x268 (1)
0x260|                        04                     |        .       |      [8]: 4 transition_type 0x268-0x269 (1)
0x260|                           03                  |         .      |      [9]: 3 transition_type 0x269-0x26a (1)
0x260|                              04               |          .     |      [10]: 4 transition_type 0x26a-0x26b (1)
0x260|                                 03            |           .    |      [11]: 3 transition_type 0x26b-0x26c (1)
0x260|                                    04         |            .   |      [12]: 4 transition_type 0x26c-0x26d (1)
0x260|                                       03      |             .  |      [13]: 3 transition_type 0x26d-0x26e (1)
0x260|                                          04   |              . |      [14]: 4 transition_type 0x26e-0x26f (1)
0x260|                                             03|               .|      [15]: 3 transition_type 0x26f-0x270 (1)
0x270|04                                             |.               |      [16]: 4 transition_type 0x270-0x271 (1)
0x270|   03                                          | .              |      [17]: 3 transition_type 0x271-0x272 (1)
0x270|      04                                       |  .             |      [18]: 4 transition_type 0x272-0x273 (1)
0x270|         06                                    |   .            |      [19]: 6 transition_type 0x273-0x274 (1)
0x270|            09                                 |    .           |      [20]: 9 transition_type 0x274-0x275 (1)
0x270|               07                              |     .          |      [21]: 7 transition_type 0x275-0x276 (1)
0x270|                  08                           |      .         |      [22]: 8 transition_type 0x276-0x277 (1)
0x270|                     07                        |       .        |      [23]: 7 transition_type 0x277-0x278 (1)
0x270|                        08                     |        .       |      [24]: 8 transition_type 0x278-0x279 (1)
0x270|                           0b                  |         .      |      [25]: 11 transition_type 0x279-0x27a (1)
0x270|                              0a               |          .     |      [26]: 10 transition_type 0x27a-0x27b (1)
0x270|                                 0b            |           .    |      [27]: 11 transition_type 0x27b-0x27c (1)
0x270|                                    0a         |            .   |      [28]: 10 transition_type 0x27c-0x27d (1)
0x270|                                       0b      |             .  |      [29]: 11 transition_type 0x27d-0x27e (1)
0x270|                                          0a   |              . |      [30]: 10 transition_type 0x27e-0x27f (1)
0x270|                                             0b|               .|      [31]: 11 transition_type 0x27f-0x280 (1)
0x280|0a                                             |.               |      [32]: 10 transition_type 0x280-0x281 (1)
0x280|   0c                                          | .              |      [33]: 12 transition_type 0x281-0x282 (1)
0x280|      0d                                       |  .             |      [34]: 13 transition_type 0x282-0x283 (1)
0x280|         0c                                    |   .            |      [35]: 12 transition_type 0x283-0x284 (1)
0x280|            0d                                 |    .           |      [36]: 13 transition_type 0x284-0x285 (1)
0x280|               0c                              |     .          |      [37]: 12 transition_type 0x285-0x286 (1)
0x280|                  0d                           |      .         |      [38]: 13 transition_type 0x286-0x287 (1)
0x280|                     0c                        |       .        |      [39]: 12 transition_type 0x287-0x288 (1)
0x280|                        0d                     |        .       |      [40]: 13 transition_type 0x288-0x289 (1)
0x280|                           0c                  |         .      |      [41]: 12 transition_type 0x289-0x28a (1)
0x280|                              0d               |          .     |      [42]: 13 transition_type 0x28a-0x28b (1)
0x280|                                 0c            |           .    |      [43]: 12 transition_type 0x28b-0x28c (1)
0x280|                                    0d         |            .   |      [44]: 13 transition_type 0x28c-0x28d (1)
0x280|                                       06      |             .  |      [45]: 6 transition_type 0x28d-0x28e (1)
0x280|                                          04   |              . |      [46]: 4 transition_type 0x28e-0x28f (1)
0x280|                                             03|               .|      [47]: 3 transition_type 0x28f-0x290 (1)
0x290|04                                             |.               |      [48]: 4 transition_type 0x290-0x291 (1)
0x290|   06                                          | .              |      [49]: 6 transition_type 0x291-0x292 (1)
0x290|      05                                       |  .             |      [50]: 5 transition_type 0x292-0x293 (1)
0x290|         06                                    |   .            |      [51]: 6 transition_type 0x293-0x294 (1)
0x290|            05                                 |    .           |      [52]: 5 transition_type 0x294-0x295 (1)
0x290|               06                              |     .          |      [53]: 6 transition_type 0x295-0x296 (1)
0x290|                  05                           |      .         |      [54]: 5 transition_type 0x296-0x297 (1)
0x290|                     06                        |       .        |      [55]: 6 transition_type 0x297-0x298 (1)
0x290|                        05                     |        .       |      [56]: 5 transition_type 0x298-0x299 (1)
0x290|                           06                  |         .      |      [57]: 6 transition_type 0x299-0x29a (1)
0x290|                              05               |          .     |      [58]: 5 transition_type 0x29a-0x29b (1)
0x290|                                 06            |           .    |      [59]: 6 transition_type 0x29b-0x29c (1)
0x290|                                    05         |            .   |      [60]: 5 transition_type 0x29c-0x29d (1)
0x290|                                       06      |             .  |      [61]: 6 transition_type 0x29d-0x29e (1)
0x290|                                          05   |              . |      [62]: 5 transition_type 0x29e-0x29f (1)
0x290|                                             06|               .|      [63]: 6 transition_type 0x29f-0x2a0 (1)
0x2a0|05                                             |.               |      [64]: 5 transition_type 0x2a0-0x2a1 (1)
0x2a0|   06                                          | .              |      [65]: 6 transition_type 0x2a1-0x2a2 (1)
0x2a0|      05                                       |  .             |      [66]: 5 transition_type 0x2a2-0x2a3 (1)
0x2a0|         06                                    |   .            |      [67]: 6 transition_type 0x2a3-0x2a4 (1)
0x2a0|            05                                 |    .           |      [68]: 5 transition_type 0x2a4-0x2a5 (1)
0x2a0|               06                              |     .          |      [69]: 6 transition_type 0x2a5-0x2a6 (1)
0x2a0|                  05                           |      .         |      [70]: 5 transition_type 0x2a6-0x2a7 (1)
0x2a0|                     06                        |       .        |      [71]: 6 transition_type 0x2a7-0x2a8 (1)
0x2a0|                        05                     |        .       |      [72]: 5 transition_type 0x2a8-0x2a9 (1)
0x2a0|                           06                  |         .      |      [73]: 6 transition_type 0x2a9-0x2aa (1)
0x2a0|                              05               |          .     |      [74]: 5 transition_type 0x2aa-0x2ab (1)
0x2a0|                                 06            |           .    |      [75]: 6 transition_type 0x2ab-0x2ac (1)
0x2a0|                                    05         |            .   |      [76]: 5 transition_type 0x2ac-0x2ad (1)
0x2a0|                                       06      |             .  |      [77]: 6 transition_type 0x2ad-0x2ae (1)
0x2a0|                                          05   |              . |      [78]: 5 transition_type 0x2ae-0x2af (1)
0x2a0|                                             06|               .|      [79]: 6 transition_type 0x2af-0x2b0 (1)
0x2b0|05                                             |.               |      [80]: 5 transition_type 0x2b0-0x2b1 (1)
0x2b0|   06                                          | .              |      [81]: 6 transition_type 0x2b1-0x2b2 (1)
0x2b0|      05                                       |  .             |      [82]: 5 transition_type 0x2b2-0x2b3 (1)
0x2b0|         06                                    |   .            |      [83]: 6 transition_type 0x2b3-0x2b4 (1)
0x2b0|            05                                 |    .           |      [84]: 5 transition_type 0x2b4-0x2b5 (1)
0x2b0|               06                              |     .          |      [85]: 6 transition_type 0x2b5-0x2b6 (1)
0x2b0|                  05                           |      .         |      [86]: 5 transition_type 0x2b6-0x2b7 (1)
0x2b0|                     06                        |       .        |      [87]: 6 transition_type 0x2b7-0x2b8 (1)
0x2b0|                        05                     |        .       |      [88]: 5 transition_type 0x2b8-0x2b9 (1)
0x2b0|                           06                  |         .      |      [89]: 6 transition_type 0x2b9-0x2ba (1)
0x2b0|                              05               |          .     |      [90]: 5 transition_type 0x2ba-0x2bb (1)
0x2b0|                                 06            |           .    |      [91]: 6 transition_type 0x2bb-0x2bc (1)
0x2b0|                                    05         |            .   |      [92]: 5 transition_type 0x2bc-0x2bd (1)
0x2b0|                                       06      |             .  |      [93]: 6 transition_type 0x2bd-0x2be (1)
0x2b0|                                          05   |              . |      [94]: 5 transition_type 0x2be-0x2bf (1)
0x2b0|                                             06|               .|      [95]: 6 transition_type 0x2bf-0x2c0 (1)
0x2c0|05                                             |.               |      [96]: 5 transition_type 0x2c0-0x2c1 (1)
0x2c0|   06                                          | .              |      [97]: 6 transition_type 0x2c1-0x2c2 (1)
0x2c0|      05                                       |  .             |      [98]: 5 transition_type 0x2c2-0x2c3 (1)
0x2c0|         06                                    |   .            |      [99]: 6 transition_type 0x2c3-0x2c4 (1)
0x2c0|            05                                 |    .           |      [100]: 5 transition_type 0x2c4-0x2c5 (1)
0x2c0|               06                              |     .          |      [101]: 6 transition_type 0x2c5-0x2c6 (1)
0x2c0|                  05                           |      .         |      [102]: 5 transition_type 0x2c6-0x2c7 (1)
0x2c0|                     06                        |       .        |      [103]: 6 transition_type 0x2c7-0x2c8 (1)
0x2c0|                        05                     |        .       |      [104]: 5 transition_type 0x2c8-0x2c9 (1)
0x2c0|                           06                  |         .      |      [105]: 6 transition_type 0x2c9-0x2ca (1)
0x2c0|                              05               |          .     |      [106]: 5 transition_type 0x2ca-0x2cb (1)
0x2c0|                                 06            |           .    |      [107]: 6 transition_type 0x2cb-0x2cc (1)
0x2c0|                                    05         |            .   |      [108]: 5 transition_type 0x2cc-0x2cd (1)
0x2c0|                                       06      |             .  |      [109]: 6 transition_type 0x2cd-0x2ce (1)
0x2c0|                                          05   |              . |      [110]: 5 transition_type 0x2ce-0x2cf (1)
0x2c0|                                             06|               .|      [111]: 6 transition_type 0x2cf-0x2d0 (1)
0x2d0|05                                             |.               |      [112]: 5 transition_type 0x2d0-0x2d1 (1)
0x2d0|   06                                          | .              |      [113]: 6 transition_type 0x2d1-0x2d2 (1)
0x2d0|      05                                       |  .             |      [114]: 5 transition_type 0x2d2-0x2d3 (1)
0x2d0|         06                                    |   .            |      [115]: 6 transition_type 0x2d3-0x2d4 (1)
0x2d0|            05                                 |    .           |      [116]: 5 transition_type 0x2d4-0x2d5 (1)
0x2d0|               06                              |     .          |      [117]: 6 transition_type 0x2d5-0x2d6 (1)
0x2d0|                  05                           |      .         |      [118]: 5 transition_type 0x2d6-0x2d7 (1)
0x2d0|                     06                        |       .        |      [119]: 6 transition_type 0x2d7-0x2d8 (1)
0x2d0|                        05                     |        .       |      [120]: 5 transition_type 0x2d8-0x2d9 (1)
0x2d0|                           06                  |         .      |      [121]: 6 transition_type 0x2d9-0x2da (1)
0x2d0|                              05               |          .     |      [122]: 5 transition_type 0x2da-0x2db (1)
0x2d0|                                 06            |           .    |      [123]: 6 transition_type 0x2db-0x2dc (1)
0x2d0|                                    05         |            .   |      [124]: 5 transition_type 0x2dc-0x2dd (1)
0x2d0|                                       06      |             .  |      [125]: 6 transition_type 0x2dd-0x2de (1)
0x2d0|                                          05   |              . |      [126]: 5 transition_type 0x2de-0x2df (1)
0x2d0|                                             06|               .|      [127]: 6 transition_type 0x2df-0x2e0 (1)
0x2e0|05                                             |.               |      [128]: 5 transition_type 0x2e0-0x2e1 (1)
0x2e0|   06                                          | .              |      [129]: 6 transition_type 0x2e1-0x2e2 (1)
0x2e0|      05                                       |  .             |      [130]: 5 transition_type 0x2e2-0x2e3 (1)
0x2e0|         06                                    |   .            |      [131]: 6 transition_type 0x2e3-0x2e4 (1)
0x2e0|            05                                 |    .           |      [132]: 5 transition_type 0x2e4-0x2e5 (1)
0x2e0|               06                              |     .          |      [133]: 6 transition_type 0x2e5-0x2e6 (1)
0x2e0|                  05                           |      .         |      [134]: 5 transition_type 0x2e6-0x2e7 (1)
0x2e0|                     06                        |       .        |      [135]: 6 transition_type 0x2e7-0x2e8 (1)
0x2e0|                        05                     |        .       |      [136]: 5 transition_type 0x2e8-0x2e9 (1)
0x2e0|                           06                  |         .      |      [137]: 6 transition_type 0x2e9-0x2ea (1)
0x2e0|                              05               |          .     |      [138]: 5 transition_type 0x2ea-0x2eb (1)
0x2e0|                                 06            |           .    |      [139]: 6 transition_type 0x2eb-0x2ec (1)
0x2e0|                                    05         |            .   |      [140]: 5 transition_type 0x2ec-0x2ed (1)
     |                                               |                |    local_time_type_records[0:16]: 0x2ed-0x34d (96)
     |                                               |                |      [0]{}: local_time_type 0x2ed-0x2f3 (6)
0x2e0|                                       00 00 1b|             ...|        utoff: 6920 (valid) 0x2ed-0x2f1 (4)
0x2f0|08                                             |.               |
0x2f0|   00                                          | .              |        dst: 0 (valid) 0x2f1-0x2f2 (1)
0x2f0|      00                                       |  .             |        idx: 0 (valid) 0x2f2-0x2f3 (1)
     |                                               |                |      [1]{}: local_time_type 0x2f3-0x2f9 (6)
0x2f0|         00 00 1a f4                           |   ....         |        utoff: 6900 (valid) 0x2f3-0x2f7 (4)
0x2f0|                     00                        |       .        |        dst: 0 (valid) 0x2f7-0x2f8 (1)
0x2f0|                        04                     |        .       |        idx: 4 (valid) 0x2f8-0x2f9 (1)
     |                                               |                |      [2]{}: local_time_type 0x2f9-0x2ff (6)
0x2f0|                           00 00 18 78         |         ...x   |        utoff: 6264 (valid) 0x2f9-0x2fd (4)
0x2f0|                                       00      |             .  |        dst: 0 (valid) 0x2fd-0x2fe (1)
0x2f0|                                          08   |              . |        idx: 8 (valid) 0x2fe-0x2ff (1)
     |                                               |                |      [3]{}: local_time_type 0x2ff-0x305 (6)
0x2f0|                                             00|               .|        utoff: 10800 (valid) 0x2ff-0x303 (4)
0x300|00 2a 30                                       |.*0             |
0x300|         01                                    |   .            |        dst: 1 (valid) 0x303-0x304 (1)
0x300|            0c                                 |    .           |        idx: 12 (valid) 0x304-0x305 (1)
     |                                               |                |      [4]{}: local_time_type 0x305-0x30b (6)
0x300|               00 00 1c 20                     |     ...        |        utoff: 7200 (valid) 0x305-0x309 (4)
0x300|                           00                  |         .      |        dst: 0 (valid) 0x309-0x30a (1)
0x300|                              11               |          .     |        idx: 17 (valid) 0x30a-0x30b (1)
     |                                               |                |      [5]{}: local_time_type 0x30b-0x311 (6)
0x300|                                 00 00 1c 20   |           ...  |        utoff: 7200 (valid) 0x30b-0x30f (4)
0x300|                                             00|               .|        dst: 0 (valid) 0x30f-0x310 (1)
0x310|11                                             |.               |        idx: 17 (valid) 0x310-0x311 (1)
     |                                               |                |      [6]{}: local_time_type 0x311-0x317 (6)
0x310|   00 00 2a 30                                 | ..*0           |        utoff: 10800 (valid) 0x311-0x315 (4)
0x310|               01                              |     .          |        dst: 1 (valid) 0x315-0x316 (1)
0x310|                  0c                           |      .         |        idx: 12 (valid) 0x316-0x317 (1)
     |                                               |                |      [7]{}: local_time_type 0x317-0x31d (6)
0x310|                     00 00 0e 10               |       ....     |        utoff: 3600 (valid) 0x317-0x31b (4)
0x310|                                 00            |           .    |        dst: 0 (valid) 0x31b-0x31c (1)
0x310|                                    15         |            .   |        idx: 21 (valid) 0x31c-0x31d (1)
     |                                               |                |      [8]{}: local_time_type 0x31d-0x323 (6)
0x310|                                       00 00 1c|             ...|        utoff: 7200 (valid) 0x31d-0x321 (4)
0x320|20                                             |                |
0x320|   01                                          | .              |        dst: 1 (valid) 0x321-0x322 (1)
0x320|      19                                       |  .             |        idx: 25 (valid) 0x322-0x323 (1)
     |                                               |                |      [9]{}: local_time_type 0x323-0x329 (6)
0x320|         00 00 1c 20                           |   ...          |        utoff: 7200 (valid) 0x323-0x327 (4)
0x320|                     01                        |       .        |        dst: 1 (valid) 0x327-0x328 (1)
0x320|                        19                     |        .       |        idx: 25 (valid) 0x328-0x329 (1)
     |                                               |                |      [10]{}: local_time_type 0x329-0x32f (6)
0x320|                           00 00 38 40         |         ..8@   |        utoff: 14400 (valid) 0x329-0x32d (4)
0x320|                                       01      |             .  |        dst: 1 (valid) 0x32d-0x32e (1)
0x320|                                          1e   |              . |        idx: 30 (valid) 0x32e-0x32f (1)
     |                                               |                |      [11]{}: local_time_type 0x32f-0x335 (6)
0x320|                                             00|               .|        utoff: 10800 (valid) 0x32f-0x333 (4)
0x330|00 2a 30                                       |.*0             |
0x330|         00                                    |   .            |        dst: 0 (valid) 0x333-0x334 (1)
0x330|            22                                 |    "           |        idx: 34 (valid) 0x334-0x335 (1)
     |                                               |                |      [12]{}: local_time_type 0x335-0x33b (6)
0x330|               00 00 2a 30                     |     ..*0       |        utoff: 10800 (valid) 0x335-0x339 (4)
0x330|                           00                  |         .      |        dst: 0 (valid) 0x339-0x33a (1)
0x330|                              22               |          "     |        idx: 34 (valid) 0x33a-0x33b (1)
     |                                               |                |      [13]{}: local_time_type 0x33b-0x341 (6)
0x330|                                 00 00 38 40   |           ..8@ |        utoff: 14400 (valid) 0x33b-0x33f (4)
0x330|                                             01|               .|        dst: 1 (valid) 0x33f-0x340 (1)
0x340|1e                                             |.               |        idx: 30 (valid) 0x340-0x341 (1)
     |                                               |                |      [14]{}: local_time_type 0x341-0x347 (6)
0x340|   00 00 2a 30                                 | ..*0           |        utoff: 10800 (valid) 0x341-0x345 (4)
0x340|               01                              |     .          |        dst: 1 (valid) 0x345-0x346 (1)
0x340|                  0c                           |      .         |        idx: 12 (valid) 0x346-0x347 (1)
     |                                               |                |      [15]{}: local_time_type 0x347-0x34d (6)
0x340|                     00 00 1c 20               |       ...      |        utoff: 7200 (valid) 0x347-0x34b (4)
0x340|                                 00            |           .    |        dst: 0 (valid) 0x34b-0x34c (1)
0x340|                                    11         |            .   |        idx: 17 (valid) 0x34c-0x34d (1)
     |                                               |                |    time_zone_designations[0:9]: 0x34d-0x373 (38)
0x340|                                       4c 4d 54|             LMT|      [0]: "LMT" time_zone_designation 0x34d-0x351 (4)
0x350|00                                             |.               |
0x350|   43 4d 54 00                                 | CMT.           |      [1]: "CMT" time_zone_designation 0x351-0x355 (4)
0x350|               42 4d 54 00                     |     BMT.       |      [2]: "BMT" time_zone_designation 0x355-0x359 (4)
0x350|                           45 45 53 54 00      |         EEST.  |      [3]: "EEST" time_zone_designation 0x359-0x35e (5)
0x350|                                          45 45|              EE|      [4]: "EET" time_zone_designation 0x35e-0x362 (4)
0x360|54 00                                          |T.              |
0x360|      43 45 54 00                              |  CET.          |      [5]: "CET" time_zone_designation 0x362-0x366 (4)
0x360|                  43 45 53 54 00               |      CEST.     |      [6]: "CEST" time_zone_designation 0x366-0x36b (5)
0x360|                                 4d 53 44 00   |           MSD. |      [7]: "MSD" time_zone_designation 0x36b-0x36f (4)
0x360|                                             4d|               M|      [8]: "MSK" time_zone_designation 0x36f-0x373 (4)
0x370|53 4b 00                                       |SK.             |
     |                                               |                |    leap_second_records[0:0]: 0x373-0x373 (0)
     |                                               |                |    standard_wall_indicators[0:16]: 0x373-0x383 (16)
0x370|         00                                    |   .            |      [0]: 0 standard_wall_indicator (valid) 0x373-0x374 (1)
0x370|            00                                 |    .           |      [1]: 0 standard_wall_indicator (valid) 0x374-0x375 (1)
0x370|               00                              |     .          |      [2]: 0 standard_wall_indicator (valid) 0x375-0x376 (1)
0x370|                  01                           |      .         |      [3]: 1 standard_wall_indicator (valid) 0x376-0x377 (1)
0x370|                     01                        |       .        |      [4]: 1 standard_wall_indicator (valid) 0x377-0x378 (1)
0x370|                        00                     |        .       |      [5]: 0 standard_wall_indicator (valid) 0x378-0x379 (1)
0x370|                           00                  |         .      |      [6]: 0 standard_wall_indicator (valid) 0x379-0x37a (1)
0x370|                              01               |          .     |      [7]: 1 standard_wall_indicator (valid) 0x37a-0x37b (1)
0x370|                                 01            |           .    |      [8]: 1 standard_wall_indicator (valid) 0x37b-0x37c (1)
0x370|                                    00         |            .   |      [9]: 0 standard_wall_indicator (valid) 0x37c-0x37d (1)
0x370|                                       00      |             .  |      [10]: 0 standard_wall_indicator (valid) 0x37d-0x37e (1)
0x370|                                          00   |              . |      [11]: 0 standard_wall_indicator (valid) 0x37e-0x37f (1)
0x370|                                             01|               .|      [12]: 1 standard_wall_indicator (valid) 0x37f-0x380 (1)
0x380|01                                             |.               |      [13]: 1 standard_wall_indicator (valid) 0x380-0x381 (1)
0x380|   00                                          | .              |      [14]: 0 standard_wall_indicator (valid) 0x381-0x382 (1)
0x380|      00                                       |  .             |      [15]: 0 standard_wall_indicator (valid) 0x382-0x383 (1)
     |                                               |                |    ut_local_indicators[0:0]: 0x383-0x383 (0)
     |                                               |                |  v2plusheader{}: 0x383-0x3af (44)
0x380|         54 5a 69 66                           |   TZif         |    magic: 0x545a6966 (valid) 0x383-0x387 (4)
0x380|                     32                        |       2        |    ver: "2" (0x32) (valid) 0x387-0x388 (1)
0x380|                        00 00 00 00 00 00 00 00|        ........|    reserved: raw bits 0x388-0x397 (15)
0x390|00 00 00 00 00 00 00                           |.......         |
0x390|                     00 00 00 00               |       ....     |    isutcnt: 0 0x397-0x39b (4)
0x390|                                 00 00 00 10   |           .... |    isstdcnt: 16 0x39b-0x39f (4)
0x390|                                             00|               .|    leapcnt: 0 0x39f-0x3a3 (4)
0x3a0|00 00 00                                       |...             |
0x3a0|         00 00 00 8d                           |   ....         |    timecnt: 141 0x3a3-0x3a7 (4)
0x3a0|                     00 00 00 10               |       ....     |    typecnt: 16 0x3a7-0x3ab (4)
0x3a0|                                 00 00 00 26   |           ...& |    charcnt: 38 0x3ab-0x3af (4)
     |                                               |                |  v2plusdatablock{}: 0x3af-0x93a (1419)
     |                                               |                |    transition_times[0:141]: 0x3af-0x817 (1128)
0x3a0|                                             ff|               .|      [0]: "1879-12-31T22:04:40Z" (-2840147720) transition_time 0x3af-0x3b7 (8)
0x3b0|ff ff ff 56 b6 c8 f8                           |...V...         |
0x3b0|                     ff ff ff ff 9e 6b 9f 0c   |       .....k.. |      [1]: "1918-02-14T22:05:00Z" (-1637114100) transition_time 0x3b7-0x3bf (8)
0x3b0|                                             ff|               .|      [2]: "1931-07-23T22:15:36Z" (-1213148664) transition_time 0x3bf-0x3c7 (8)
0x3c0|ff ff ff b7 b0 d2 08                           |.......         |
0x3c0|                     ff ff ff ff b9 3e f3 60   |       .....>.` |      [3]: "1932-05-20T22:00:00Z" (-1187056800) transition_time 0x3c7-0x3cf (8)
0x3c0|                                             ff|               .|      [4]: "1932-10-01T22:00:00Z" (-1175479200) transition_time 0x3cf-0x3d7 (8)
0x3d0|ff ff ff b9 ef 9c 60                           |......`         |
0x3d0|                     ff ff ff ff ba df 8d 60   |       .......` |      [5]: "1933-04-01T22:00:00Z" (-1159754400) transition_time 0x3d7-0x3df (8)
0x3d0|                                             ff|               .|      [6]: "1933-09-30T22:00:00Z" (-1144029600) transition_time 0x3df-0x3e7 (8)
0x3e0|ff ff ff bb cf 7e 60                           |.....~`         |
0x3e0|                     ff ff ff ff bc c8 a9 e0   |       ........ |      [7]: "1934-04-07T22:00:00Z" (-1127700000) transition_time 0x3e7-0x3ef (8)
0x3e0|                                             ff|               .|      [8]: "1934-10-06T22:00:00Z" (-1111975200) transition_time 0x3ef-0x3f7 (8)
0x3f0|ff ff ff bd b8 9a e0                           |.......         |
0x3f0|                     ff ff ff ff be a8 8b e0   |       ........ |      [9]: "1935-04-06T22:00:00Z" (-1096250400) transition_time 0x3f7-0x3ff (8)
0x3f0|                                             ff|               .|      [10]: "1935-10-05T22:00:00Z" (-1080525600) transition_time 0x3ff-0x407 (8)
0x400|ff ff ff bf 98 7c e0                           |.....|.         |
0x400|                     ff ff ff ff c0 88 6d e0   |       ......m. |      [11]: "1936-04-04T22:00:00Z" (-1064800800) transition_time 0x407-0x40f (8)
0x400|                                             ff|               .|      [12]: "1936-10-03T22:00:00Z" (-1049076000) transition_time 0x40f-0x417 (8)
0x410|ff ff ff c1 78 5e e0                           |....x^.         |
0x410|                     ff ff ff ff c2 68 4f e0   |       .....hO. |      [13]: "1937-04-03T22:00:00Z" (-1033351200) transition_time 0x417-0x41f (8)
0x410|                                             ff|               .|      [14]: "1937-10-02T22:00:00Z" (-1017626400) transition_time 0x41f-0x427 (8)
0x420|ff ff ff c3 58 40 e0                           |....X@.         |
0x420|                     ff ff ff ff c4 48 31 e0   |       .....H1. |      [15]: "1938-04-02T22:00:00Z" (-1001901600) transition_time 0x427-0x42f (8)
0x420|                                             ff|               .|      [16]: "1938-10-01T22:00:00Z" (-986176800) transition_time 0x42f-0x437 (8)
0x430|ff ff ff c5 38 22 e0                           |....8".         |
0x430|                     ff ff ff ff c6 28 13 e0   |       .....(.. |      [17]: "1939-04-01T22:00:00Z" (-970452000) transition_time 0x437-0x43f (8)
0x430|                                             ff|               .|      [18]: "1939-09-30T22:00:00Z" (-954727200) transition_time 0x43f-0x447 (8)
0x440|ff ff ff c7 18 04 e0                           |.......         |
0x440|                     ff ff ff ff c8 bc 93 60   |       .......` |      [19]: "1940-08-14T22:00:00Z" (-927165600) transition_time 0x447-0x44f (8)
0x440|                                             ff|               .|      [20]: "1941-07-16T21:00:00Z" (-898138800) transition_time 0x44f-0x457 (8)
0x450|ff ff ff ca 77 7d 50                           |....w}P         |
0x450|                     ff ff ff ff cc e7 4b 10   |       ......K. |      [21]: "1942-11-02T01:00:00Z" (-857257200) transition_time 0x457-0x45f (8)
0x450|                                             ff|               .|      [22]: "1943-03-29T01:00:00Z" (-844556400) transition_time 0x45f-0x467 (8)
0x460|ff ff ff cd a9 17 90                           |.......         |
0x460|                     ff ff ff ff ce a2 43 10   |       ......C. |      [23]: "1943-10-04T01:00:00Z" (-828226800) transition_time 0x467-0x46f (8)
0x460|                                             ff|               .|      [24]: "1944-04-03T01:00:00Z" (-812502000) transition_time 0x46f-0x477 (8)
0x470|ff ff ff cf 92 34 10                           |.....4.         |
0x470|                     ff ff ff ff d0 4e 90 60   |       .....N.` |      [25]: "1944-08-23T22:00:00Z" (-800157600) transition_time 0x477-0x47f (8)
0x470|                                             00|               .|      [26]: "1981-03-31T21:00:00Z" (354920400) transition_time 0x47f-0x487 (8)
0x480|00 00 00 15 27 a7 d0                           |....'..         |
0x480|                     00 00 00 00 16 18 dc 40   |       .......@ |      [27]: "1981-09-30T20:00:00Z" (370728000) transition_time 0x487-0x48f (8)
0x480|                                             00|               .|      [28]: "1982-03-31T21:00:00Z" (386456400) transition_time 0x48f-0x497 (8)
0x490|00 00 00 17 08 db 50                           |......P         |
0x490|                     00 00 00 00 17 fa 0f c0   |       ........ |      [29]: "1982-09-30T20:00:00Z" (402264000) transition_time 0x497-0x49f (8)
0x490|                                             00|               .|      [30]: "1983-03-31T21:00:00Z" (417992400) transition_time 0x49f-0x4a7 (8)
0x4a0|00 00 00 18 ea 0e d0                           |.......         |
0x4a0|                     00 00 00 00 19 db 43 40   |       ......C@ |      [31]: "1983-09-30T20:00:00Z" (433800000) transition_time 0x4a7-0x4af (8)
0x4a0|                                             00|               .|      [32]: "1984-03-31T21:00:00Z" (449614800) transition_time 0x4af-0x4b7 (8)
0x4b0|00 00 00 1a cc 93 d0                           |.......         |
0x4b0|                     00 00 00 00 1b bc a0 f0   |       ........ |      [33]: "1984-09-29T23:00:00Z" (465346800) transition_time 0x4b7-0x4bf (8)
0x4b0|                                             00|               .|      [34]: "1985-03-30T23:00:00Z" (481071600) transition_time 0x4bf-0x4c7 (8)
0x4c0|00 00 00 1c ac 91 f0                           |.......         |
0x4c0|                     00 00 00 00 1d 9c 82 f0   |       ........ |      [35]: "1985-09-28T23:00:00Z" (496796400) transition_time 0x4c7-0x4cf (8)
0x4c0|                                             00|               .|      [36]: "1986-03-29T23:00:00Z" (512521200) transition_time 0x4cf-0x4d7 (8)
0x4d0|00 00 00 1e 8c 73 f0                           |.....s.         |
0x4d0|                     00 00 00 00 1f 7c 64 f0   |       .....|d. |      [37]: "1986-09-27T23:00:00Z" (528246000) transition_time 0x4d7-0x4df (8)
0x4d0|                                             00|               .|      [38]: "1987-03-28T23:00:00Z" (543970800) transition_time 0x4df-0x4e7 (8)
0x4e0|00 00 00 20 6c 55 f0                           |... lU.         |
0x4e0|                     00 00 00 00 21 5c 46 f0   |       ....!\F. |      [39]: "1987-09-26T23:00:00Z" (559695600) transition_time 0x4e7-0x4ef (8)
0x4e0|                                             00|               .|      [40]: "1988-03-26T23:00:00Z" (575420400) transition_time 0x4ef-0x4f7 (8)
0x4f0|00 00 00 22 4c 37 f0                           |..."L7.         |
0x4f0|                     00 00 00 00 23 3c 28 f0   |       ....#<(. |      [41]: "1988-09-24T23:00:00Z" (591145200) transition_time 0x4f7-0x4ff (8)
0x4f0|                                             00|               .|      [42]: "1989-03-25T23:00:00Z" (606870000) transition_time 0x4ff-0x507 (8)
0x500|00 00 00 24 2c 19 f0                           |...$,..         |
0x500|                     00 00 00 00 25 1c 0a f0   |       ....%... |      [43]: "1989-09-23T23:00:00Z" (622594800) transition_time 0x507-0x50f (8)
0x500|                                             00|               .|      [44]: "1990-03-24T23:00:00Z" (638319600) transition_time 0x50f-0x517 (8)
0x510|00 00 00 26 0b fb f0                           |...&...         |
0x510|                     00 00 00 00 26 43 4c e0   |       ....&CL. |      [45]: "1990-05-05T22:00:00Z" (641944800) transition_time 0x517-0x51f (8)
0x510|                                             00|               .|      [46]: "1990-09-30T00:00:00Z" (654652800) transition_time 0x51f-0x527 (8)
0x520|00 00 00 27 05 35 80                           |...'.5.         |
0x520|                     00 00 00 00 27 f5 26 80   |       ....'.&. |      [47]: "1991-03-31T00:00:00Z" (670377600) transition_time 0x527-0x52f (8)
0x520|                                             00|               .|      [48]: "1991-09-29T00:00:00Z" (686102400) transition_time 0x52f-0x537 (8)
0x530|00 00 00 28 e5 17 80                           |...(...         |
0x530|                     00 00 00 00 29 d4 ec 60   |       ....)..` |      [49]: "1992-03-28T22:00:00Z" (701820000) transition_time 0x537-0x53f (8)
0x530|                                             00|               .|      [50]: "1992-09-26T21:00:00Z" (717541200) transition_time 0x53f-0x547 (8)
0x540|00 00 00 2a c4 cf 50                           |...*..P         |
0x540|                     00 00 00 00 2b b4 ce 60   |       ....+..` |      [51]: "1993-03-27T22:00:00Z" (733269600) transition_time 0x547-0x54f (8)
0x540|                                             00|               .|      [52]: "1993-09-25T21:00:00Z" (748990800) transition_time 0x54f-0x557 (8)
0x550|00 00 00 2c a4 b1 50                           |...,..P         |
0x550|                     00 00 00 00 2d 94 b0 60   |       ....-..` |      [53]: "1994-03-26T22:00:00Z" (764719200) transition_time 0x557-0x55f (8)
0x550|                                             00|               .|      [54]: "1994-09-24T21:00:00Z" (780440400) transition_time 0x55f-0x567 (8)
0x560|00 00 00 2e 84 93 50                           |......P         |
0x560|                     00 00 00 00 2f 74 92 60   |       ..../t.` |      [55]: "1995-03-25T22:00:00Z" (796168800) transition_time 0x567-0x56f (8)
0x560|                                             00|               .|      [56]: "1995-09-23T21:00:00Z" (811890000) transition_time 0x56f-0x577 (8)
0x570|00 00 00 30 64 75 50                           |...0duP         |
0x570|                     00 00 00 00 31 5d ae e0   |       ....1].. |      [57]: "1996-03-30T22:00:00Z" (828223200) transition_time 0x577-0x57f (8)
0x570|                                             00|               .|      [58]: "1996-10-26T21:00:00Z" (846363600) transition_time 0x57f-0x587 (8)
0x580|00 00 00 32 72 7b d0                           |...2r{.         |
0x580|                     00 00 00 00 33 3d ad 00   |       ....3=.. |      [59]: "1997-03-30T00:00:00Z" (859680000) transition_time 0x587-0x58f (8)
0x580|                                             00|               .|      [60]: "1997-10-26T00:00:00Z" (877824000) transition_time 0x58f-0x597 (8)
0x590|00 00 00 34 52 88 00                           |...4R..         |
0x590|                     00 00 00 00 35 1d 8f 00   |       ....5... |      [61]: "1998-03-29T00:00:00Z" (891129600) transition_time 0x597-0x59f (8)
0x590|                                             00|               .|      [62]: "1998-10-25T00:00:00Z" (909273600) transition_time 0x59f-0x5a7 (8)
0x5a0|00 00 00 36 32 6a 00                           |...62j.         |
0x5a0|                     00 00 00 00 36 fd 71 00   |       ....6.q. |      [63]: "1999-03-28T00:00:00Z" (922579200) transition_time 0x5a7-0x5af (8)
0x5a0|                                             00|               .|      [64]: "1999-10-31T00:00:00Z" (941328000) transition_time 0x5af-0x5b7 (8)
0x5b0|00 00 00 38 1b 86 80                           |...8...         |
0x5b0|                     00 00 00 00 38 dd 53 00   |       ....8.S. |      [65]: "2000-03-26T00:00:00Z" (954028800) transition_time 0x5b7-0x5bf (8)
0x5b0|                                             00|               .|      [66]: "2000-10-29T00:00:00Z" (972777600) transition_time 0x5bf-0x5c7 (8)
0x5c0|00 00 00 39 fb 68 80                           |...9.h.         |
0x5c0|                     00 00 00 00 3a bd 35 00   |       ....:.5. |      [67]: "2001-03-25T00:00:00Z" (985478400) transition_time 0x5c7-0x5cf (8)
0x5c0|                                             00|               .|      [68]: "2001-10-28T00:00:00Z" (1004227200) transition_time 0x5cf-0x5d7 (8)
0x5d0|00 00 00 3b db 4a 80                           |...;.J.         |
0x5d0|                     00 00 00 00 3c a6 51 80   |       ....<.Q. |      [69]: "2002-03-31T00:00:00Z" (1017532800) transition_time 0x5d7-0x5df (8)
0x5d0|                                             00|               .|      [70]: "2002-10-27T00:00:00Z" (1035676800) transition_time 0x5df-0x5e7 (8)
0x5e0|00 00 00 3d bb 2c 80                           |...=.,.         |
0x5e0|                     00 00 00 00 3e 86 33 80   |       ....>.3. |      [71]: "2003-03-30T00:00:00Z" (1048982400) transition_time 0x5e7-0x5ef (8)
0x5e0|                                             00|               .|      [72]: "2003-10-26T00:00:00Z" (1067126400) transition_time 0x5ef-0x5f7 (8)
0x5f0|00 00 00 3f 9b 0e 80                           |...?...         |
0x5f0|                     00 00 00 00 40 66 15 80   |       ....@f.. |      [73]: "2004-03-28T00:00:00Z" (1080432000) transition_time 0x5f7-0x5ff (8)
0x5f0|                                             00|               .|      [74]: "2004-10-31T00:00:00Z" (1099180800) transition_time 0x5ff-0x607 (8)
0x600|00 00 00 41 84 2b 00                           |...A.+.         |
0x600|                     00 00 00 00 42 45 f7 80   |       ....BE.. |      [75]: "2005-03-27T00:00:00Z" (1111881600) transition_time 0x607-0x60f (8)
0x600|                                             00|               .|      [76]: "2005-10-30T00:00:00Z" (1130630400) transition_time 0x60f-0x617 (8)
0x610|00 00 00 43 64 0d 00                           |...Cd..         |
0x610|                     00 00 00 00 44 25 d9 80   |       ....D%.. |      [77]: "2006-03-26T00:00:00Z" (1143331200) transition_time 0x617-0x61f (8)
0x610|                                             00|               .|      [78]: "2006-10-29T00:00:00Z" (1162080000) transition_time 0x61f-0x627 (8)
0x620|00 00 00 45 43 ef 00                           |...EC..         |
0x620|                     00 00 00 00 46 05 bb 80   |       ....F... |      [79]: "2007-03-25T00:00:00Z" (1174780800) transition_time 0x627-0x62f (8)
0x620|                                             00|               .|      [80]: "2007-10-28T00:00:00Z" (1193529600) transition_time 0x62f-0x637 (8)
0x630|00 00 00 47 23 d1 00                           |...G#..         |
0x630|                     00 00 00 00 47 ee d8 00   |       ....G... |      [81]: "2008-03-30T00:00:00Z" (1206835200) transition_time 0x637-0x63f (8)
0x630|                                             00|               .|      [82]: "2008-10-26T00:00:00Z" (1224979200) transition_time 0x63f-0x647 (8)
0x640|00 00 00 49 03 b3 00                           |...I...         |
0x640|                     00 00 00 00 49 ce ba 00   |       ....I... |      [83]: "2009-03-29T00:00:00Z" (1238284800) transition_time 0x647-0x64f (8)
0x640|                                             00|               .|      [84]: "2009-10-25T00:00:00Z" (1256428800) transition_time 0x64f-0x657 (8)
0x650|00 00 00 4a e3 95 00                           |...J...         |
0x650|                     00 00 00 00 4b ae 9c 00   |       ....K... |      [85]: "2010-03-28T00:00:00Z" (1269734400) transition_time 0x657-0x65f (8)
0x650|                                             00|               .|      [86]: "2010-10-31T00:00:00Z" (1288483200) transition_time 0x65f-0x667 (8)
0x660|00 00 00 4c cc b1 80                           |...L...         |
0x660|                     00 00 00 00 4d 8e 7e 00   |       ....M.~. |      [87]: "2011-03-27T00:00:00Z" (1301184000) transition_time 0x667-0x66f (8)
0x660|                                             00|               .|      [88]: "2011-10-30T00:00:00Z" (1319932800) transition_time 0x66f-0x677 (8)
0x670|00 00 00 4e ac 93 80                           |...N...         |
0x670|                     00 00 00 00 4f 6e 60 00   |       ....On`. |      [89]: "2012-03-25T00:00:00Z" (1332633600) transition_time 0x677-0x67f (8)
0x670|                                             00|               .|      [90]: "2012-10-28T00:00:00Z" (1351382400) transition_time 0x67f-0x687 (8)
0x680|00 00 00 50 8c 75 80                           |...P.u.         |
0x680|                     00 00 00 00 51 57 7c 80   |       ....QW|. |      [91]: "2013-03-31T00:00:00Z" (1364688000) transition_time 0x687-0x68f (8)
0x680|                                             00|               .|      [92]: "2013-10-27T00:00:00Z" (1382832000) transition_time 0x68f-0x697 (8)
0x690|00 00 00 52 6c 57 80                           |...RlW.         |
0x690|                     00 00 00 00 53 37 5e 80   |       ....S7^. |      [93]: "2014-03-30T00:00:00Z" (1396137600) transition_time 0x697-0x69f (8)
0x690|                                             00|               .|      [94]: "2014-10-26T00:00:00Z" (1414281600) transition_time 0x69f-0x6a7 (8)
0x6a0|00 00 00 54 4c 39 80                           |...TL9.         |
0x6a0|                     00 00 00 00 55 17 40 80   |       ....U.@. |      [95]: "2015-03-29T00:00:00Z" (1427587200) transition_time 0x6a7-0x6af (8)
0x6a0|                                             00|               .|      [96]: "2015-10-25T00:00:00Z" (1445731200) transition_time 0x6af-0x6b7 (8)
0x6b0|00 00 00 56 2c 1b 80                           |...V,..         |
0x6b0|                     00 00 00 00 56 f7 22 80   |       ....V.". |      [97]: "2016-03-27T00:00:00Z" (1459036800) transition_time 0x6b7-0x6bf (8)
0x6b0|                                             00|               .|      [98]: "2016-10-30T00:00:00Z" (1477785600) transition_time 0x6bf-0x6c7 (8)
0x6c0|00 00 00 58 15 38 00                           |...X.8.         |
0x6c0|                     00 00 00 00 58 d7 04 80   |       ....X... |      [99]: "2017-03-26T00:00:00Z" (1490486400) transition_time 0x6c7-0x6cf (8)
0x6c0|                                             00|               .|      [100]: "2017-10-29T00:00:00Z" (1509235200) transition_time 0x6cf-0x6d7 (8)
0x6d0|00 00 00 59 f5 1a 00                           |...Y...         |
0x6d0|                     00 00 00 00 5a b6 e6 80   |       ....Z... |      [101]: "2018-03-25T00:00:00Z" (1521936000) transition_time 0x6d7-0x6df (8)
0x6d0|                                             00|               .|      [102]: "2018-10-28T00:00:00Z" (1540684800) transition_time 0x6df-0x6e7 (8)
0x6e0|00 00 00 5b d4 fc 00                           |...[...         |
0x6e0|                     00 00 00 00 5c a0 03 00   |       ....\... |      [103]: "2019-03-31T00:00:00Z" (1553990400) transition_time 0x6e7-0x6ef (8)
0x6e0|                                             00|               .|      [104]: "2019-10-27T00:00:00Z" (1572134400) transition_time 0x6ef-0x6f7 (8)
0x6f0|00 00 00 5d b4 de 00                           |...]...         |
0x6f0|                     00 00 00 00 5e 7f e5 00   |       ....^... |      [105]: "2020-03-29T00:00:00Z" (1585440000) transition_time 0x6f7-0x6ff (8)
0x6f0|                                             00|               .|      [106]: "2020-10-25T00:00:00Z" (1603584000) transition_time 0x6ff-0x707 (8)
0x700|00 00 00 5f 94 c0 00                           |..._...         |
0x700|                     00 00 00 00 60 5f c7 00   |       ....`_.. |      [107]: "2021-03-28T00:00:00Z" (1616889600) transition_time 0x707-0x70f (8)
0x700|                                             00|               .|      [108]: "2021-10-31T00:00:00Z" (1635638400) transition_time 0x70f-0x717 (8)
0x710|00 00 00 61 7d dc 80                           |...a}..         |
0x710|                     00 00 00 00 62 3f a9 00   |       ....b?.. |      [109]: "2022-03-27T00:00:00Z" (1648339200) transition_time 0x717-0x71f (8)
0x710|                                             00|               .|      [110]: "2022-10-30T00:00:00Z" (1667088000) transition_time 0x71f-0x727 (8)
0x720|00 00 00 63 5d be 80                           |...c]..         |
0x720|                     00 00 00 00 64 1f 8b 00   |       ....d... |      [111]: "2023-03-26T00:00:00Z" (1679788800) transition_time 0x727-0x72f (8)
0x720|                                             00|               .|      [112]: "2023-10-29T00:00:00Z" (1698537600) transition_time 0x72f-0x737 (8)
0x730|00 00 00 65 3d a0 80                           |...e=..         |
0x730|                     00 00 00 00 66 08 a7 80   |       ....f... |      [113]: "2024-03-31T00:00:00Z" (1711843200) transition_time 0x737-0x73f (8)
0x730|                                             00|               .|      [114]: "2024-10-27T00:00:00Z" (1729987200) transition_time 0x73f-0x747 (8)
0x740|00 00 00 67 1d 82 80                           |...g...         |
0x740|                     00 00 00 00 67 e8 89 80   |       ....g... |      [115]: "2025-03-30T00:00:00Z" (1743292800) transition_time 0x747-0x74f (8)
0x740|                                             00|               .|      [116]: "2025-10-26T00:00:00Z" (1761436800) transition_time 0x74f-0x757 (8)
0x750|00 00 00 68 fd 64 80                           |...h.d.         |
0x750|                     00 00 00 00 69 c8 6b 80   |       ....i.k. |      [117]: "2026-03-29T00:00:00Z" (1774742400) transition_time 0x757-0x75f (8)
0x750|                                             00|               .|      [118]: "2026-10-25T00:00:00Z" (1792886400) transition_time 0x75f-0x767 (8)
0x760|00 00 00 6a dd 46 80                           |...j.F.         |
0x760|                     00 00 00 00 6b a8 4d 80   |       ....k.M. |      [119]: "2027-03-28T00:00:00Z" (1806192000) transition_time 0x767-0x76f (8)
0x760|                                             00|               .|      [120]: "2027-10-31T00:00:00Z" (1824940800) transition_time 0x76f-0x777 (8)
0x770|00 00 00 6c c6 63 00                           |...l.c.         |
0x770|                     00 00 00 00 6d 88 2f 80   |       ....m./. |      [121]: "2028-03-26T00:00:00Z" (1837641600) transition_time 0x777-0x77f (8)
0x770|                                             00|               .|      [122]: "2028-10-29T00:00:00Z" (1856390400) transition_time 0x77f-0x787 (8)
0x780|00 00 00 6e a6 45 00                           |...n.E.         |
0x780|                     00 00 00 00 6f 68 11 80   |       ....oh.. |      [123]: "2029-03-25T00:00:00Z" (1869091200) transition_time 0x787-0x78f (8)
0x780|                                             00|               .|      [124]: "2029-10-28T00:00:00Z" (1887840000) transition_time 0x78f-0x797 (8)
0x790|00 00 00 70 86 27 00                           |...p.'.         |
0x790|                     00 00 00 00 71 51 2e 00   |       ....qQ.. |      [125]: "2030-03-31T00:00:00Z" (1901145600) transition_time 0x797-0x79f (8)
0x790|                                             00|               .|      [126]: "2030-10-27T00:00:00Z" (1919289600) transition_time 0x79f-0x7a7 (8)
0x7a0|00 00 00 72 66 09 00                           |...rf..         |
0x7a0|                     00 00 00 00 73 31 10 00   |       ....s1.. |      [127]: "2031-03-30T00:00:00Z" (1932595200) transition_time 0x7a7-0x7af (8)
0x7a0|                                             00|               .|      [128]: "2031-10-26T00:00:00Z" (1950739200) transition_time 0x7af-0x7b7 (8)
0x7b0|00 00 00 74 45 eb 00                           |...tE..         |
0x7b0|                     00 00 00 00 75 10 f2 00   |       ....u... |      [129]: "2032-03-28T00:00:00Z" (1964044800) transition_time 0x7b7-0x7bf (8)
0x7b0|                                             00|               .|      [130]: "2032-10-31T00:00:00Z" (1982793600) transition_time 0x7bf-0x7c7 (8)
0x7c0|00 00 00 76 2f 07 80                           |...v/..         |
0x7c0|                     00 00 00 00 76 f0 d4 00   |       ....v... |      [131]: "2033-03-27T00:00:00Z" (1995494400) transition_time 0x7c7-0x7cf (8)
0x7c0|                                             00|               .|      [132]: "2033-10-30T00:00:00Z" (2014243200) transition_time 0x7cf-0x7d7 (8)
0x7d0|00 00 00 78 0e e9 80                           |...x...         |
0x7d0|                     00 00 00 00 78 d0 b6 00   |       ....x... |      [133]: "2034-03-26T00:00:00Z" (2026944000) transition_time 0x7d7-0x7df (8)
0x7d0|                                             00|               .|      [134]: "2034-10-29T00:00:00Z" (2045692800) transition_time 0x7df-0x7e7 (8)
0x7e0|00 00 00 79 ee cb 80                           |...y...         |
0x7e0|                     00 00 00 00 7a b0 98 00   |       ....z... |      [135]: "2035-03-25T00:00:00Z" (2058393600) transition_time 0x7e7-0x7ef (8)
0x7e0|                                             00|               .|      [136]: "2035-10-28T00:00:00Z" (2077142400) transition_time 0x7ef-0x7f7 (8)
0x7f0|00 00 00 7b ce ad 80                           |...{...         |
0x7f0|                     00 00 00 00 7c 99 b4 80   |       ....|... |      [137]: "2036-03-30T00:00:00Z" (2090448000) transition_time 0x7f7-0x7ff (8)
0x7f0|                                             00|               .|      [138]: "2036-10-26T00:00:00Z" (2108592000) transition_time 0x7ff-0x807 (8)
0x800|00 00 00 7d ae 8f 80                           |...}...         |
0x800|                     00 00 00 00 7e 79 96 80   |       ....~y.. |      [139]: "2037-03-29T00:00:00Z" (2121897600) transition_time 0x807-0x80f (8)
0x800|                                             00|               .|      [140]: "2037-10-25T00:00:00Z" (2140041600) transition_time 0x80f-0x817 (8)
0x810|00 00 00 7f 8e 71 80                           |.....q.         |
     |                                               |                |    transition_types[0:141]: 0x817-0x8a4 (141)
0x810|                     01                        |       .        |      [0]: 1 transition_type 0x817-0x818 (1)
0x810|                        02                     |        .       |      [1]: 2 transition_type 0x818-0x819 (1)
0x810|                           05                  |         .      |      [2]: 5 transition_type 0x819-0x81a (1)
0x810|                              03               |          .     |      [3]: 3 transition_type 0x81a-0x81b (1)
0x810|                                 04            |           .    |      [4]: 4 transition_type 0x81b-0x81c (1)
0x810|                                    03         |            .   |      [5]: 3 transition_type 0x81c-0x81d (1)
0x810|                                       04      |             .  |      [6]: 4 transition_type 0x81d-0x81e (1)
0x810|                                          03   |              . |      [7]: 3 transition_type 0x81e-0x81f (1)
0x810|                                             04|               .|      [8]: 4 transition_type 0x81f-0x820 (1)
0x820|03                                             |.               |      [9]: 3 transition_type 0x820-0x821 (1)
0x820|   04                                          | .              |      [10]: 4 transition_type 0x821-0x822 (1)
0x820|      03                                       |  .             |      [11]: 3 transition_type 0x822-0x823 (1)
0x820|         04                                    |   .            |      [12]: 4 transition_type 0x823-0x824 (1)
0x820|            03                                 |    .           |      [13]: 3 transition_type 0x824-0x825 (1)
0x820|               04                              |     .          |      [14]: 4 transition_type 0x825-0x826 (1)
0x820|                  03                           |      .         |      [15]: 3 transition_type 0x826-0x827 (1)
0x820|                     04                        |       .        |      [16]: 4 transition_type 0x827-0x828 (1)
0x820|                        03                     |        .       |      [17]: 3 transition_type 0x828-0x829 (1)
0x820|                           04                  |         .      |      [18]: 4 transition_type 0x829-0x82a (1)
0x820|                              06               |          .     |      [19]: 6 transition_type 0x82a-0x82b (1)
0x820|                                 09            |           .    |      [20]: 9 transition_type 0x82b-0x82c (1)
0x820|                                    07         |            .   |      [21]: 7 transition_type 0x82c-0x82d (1)
0x820|                                       08      |             .  |      [22]: 8 transition_type 0x82d-0x82e (1)
0x820|                                          07   |              . |      [23]: 7 transition_type 0x82e-0x82f (1)
0x820|                                             08|               .|      [24]: 8 transition_type 0x82f-0x830 (1)
0x830|0b                                             |.               |      [25]: 11 transition_type 0x830-0x831 (1)
0x830|   0a                                          | .              |      [26]: 10 transition_type 0x831-0x832 (1)
0x830|      0b                                       |  .             |      [27]: 11 transition_type 0x832-0x833 (1)
0x830|         0a                                    |   .            |      [28]: 10 transition_type 0x833-0x834 (1)
0x830|            0b                                 |    .           |      [29]: 11 transition_type 0x834-0x835 (1)
0x830|               0a                              |     .          |      [30]: 10 transition_type 0x835-0x836 (1)
0x830|                  0b                           |      .         |      [31]: 11 transition_type 0x836-0x837 (1)
0x830|                     0a                        |       .        |      [32]: 10 transition_type 0x837-0x838 (1)
0x830|                        0c                     |        .       |      [33]: 12 transition_type 0x838-0x839 (1)
0x830|                           0d                  |         .      |      [34]: 13 transition_type 0x839-0x83a (1)
0x830|                              0c               |          .     |      [35]: 12 transition_type 0x83a-0x83b (1)
0x830|                                 0d            |           .    |      [36]: 13 transition_type 0x83b-0x83c (1)
0x830|                                    0c         |            .   |      [37]: 12 transition_type 0x83c-0x83d (1)
0x830|                                       0d      |             .  |      [38]: 13 transition_type 0x83d-0x83e (1)
0x830|                                          0c   |              . |      [39]: 12 transition_type 0x83e-0x83f (1)
0x830|                                             0d|               .|      [40]: 13 transition_type 0x83f-0x840 (1)
0x840|0c                                             |.               |      [41]: 12 transition_type 0x840-0x841 (1)
0x840|   0d                                          | .              |      [42]: 13 transition_type 0x841-0x842 (1)
0x840|      0c                                       |  .             |      [43]: 12 transition_type 0x842-0x843 (1)
0x840|         0d                                    |   .            |      [44]: 13 transition_type 0x843-0x844 (1)
0x840|            06                                 |    .           |      [45]: 6 transition_type 0x844-0x845 (1)
0x840|               04                              |     .          |      [46]: 4 transition_type 0x845-0x846 (1)
0x840|                  03                           |      .         |      [47]: 3 transition_type 0x846-0x847 (1)
0x840|                     04                        |       .        |      [48]: 4 transition_type 0x847-0x848 (1)
0x840|                        06                     |        .       |      [49]: 6 transition_type 0x848-0x849 (1)
0x840|                           05                  |         .      |      [50]: 5 transition_type 0x849-0x84a (1)
0x840|                              06               |          .     |      [51]: 6 transition_type 0x84a-0x84b (1)
0x840|                                 05            |           .    |      [52]: 5 transition_type 0x84b-0x84c (1)
0x840|                                    06         |            .   |      [53]: 6 transition_type 0x84c-0x84d (1)
0x840|                                       05      |             .  |      [54]: 5 transition_type 0x84d-0x84e (1)
0x840|                                          06   |              . |      [55]: 6 transition_type 0x84e-0x84f (1)
0x840|                                             05|               .|      [56]: 5 transition_type 0x84f-0x850 (1)
0x850|06                                             |.               |      [57]: 6 transition_type 0x850-0x851 (1)
0x850|   05                                          | .              |      [58]: 5 transition_type 0x851-0x852 (1)
0x850|      06                                       |  .             |      [59]: 6 transition_type 0x852-0x853 (1)
0x850|         05                                    |   .            |      [60]: 5 transition_type 0x853-0x854 (1)
0x850|            06                                 |    .           |      [61]: 6 transition_type 0x854-0x855 (1)
0x850|               05                              |     .          |      [62]: 5 transition_type 0x855-0x856 (1)
0x850|                  06                           |      .         |      [63]: 6 transition_type 0x856-0x857 (1)
0x850|                     05                        |       .        |      [64]: 5 transition_type 0x857-0x858 (1)
0x850|                        06                     |        .       |      [65]: 6 transition_type 0x858-0x859 (1)
0x850|                           05                  |         .      |      [66]: 5 transition_type 0x859-0x85a (1)
0x850|                              06               |          .     |      [67]: 6 transition_type 0x85a-0x85b (1)
0x850|                                 05            |           .    |      [68]: 5 transition_type 0x85b-0x85c (1)
0x850|                                    06         |            .   |      [69]: 6 transition_type 0x85c-0x85d (1)
0x850|                                       05      |             .  |      [70]: 5 transition_type 0x85d-0x85e (1)
0x850|                                          06   |              . |      [71]: 6 transition_type 0x85e-0x85f (1)
0x850|                                             05|               .|      [72]: 5 transition_type 0x85f-0x860 (1)
0x860|06                                             |.               |      [73]: 6 transition_type 0x860-0x861 (1)
0x860|   05                                          | .              |      [74]: 5 transition_type 0x861-0x862 (1)
0x860|      06                                       |  .             |      [75]: 6 transition_type 0x862-0x863 (1)
0x860|         05                                    |   .            |      [76]: 5 transition_type 0x863-0x864 (1)
0x860|            06                                 |    .           |      [77]: 6 transition_type 0x864-0x865 (1)
0x860|               05                              |     .          |      [78]: 5 transition_type 0x865-0x866 (1)
0x860|                  06                           |      .         |      [79]: 6 transition_type 0x866-0x867 (1)
0x860|                     05                        |       .        |      [80]: 5 transition_type 0x867-0x868 (1)
0x860|                        06                     |        .       |      [81]: 6 transition_type 0x868-0x869 (1)
0x860|                           05                  |         .      |      [82]: 5 transition_type 0x869-0x86a (1)
0x860|                              06               |          .     |      [83]: 6 transition_type 0x86a-0x86b (1)
0x860|                                 05            |           .    |      [84]: 5 transition_type 0x86b-0x86c (1)
0x860|                                    06         |            .   |      [85]: 6 transition_type 0x86c-0x86d (1)
0x860|                                       05      |             .  |      [86]: 5 transition_type 0x86d-0x86e (1)
0x860|                                          06   |              . |      [87]: 6 transition_type 0x86e-0x86f (1)
0x860|                                             05|               .|      [88]: 5 transition_type 0x86f-0x870 (1)
0x870|06                                             |.               |      [89]: 6 transition_type 0x870-0x871 (1)
0x870|   05                                          | .              |      [90]: 5 transition_type 0x871-0x872 (1)
0x870|      06                                       |  .             |      [91]: 6 transition_type 0x872-0x873 (1)
0x870|         05                                    |   .            |      [92]: 5 transition_type 0x873-0x874 (1)
0x870|            06                                 |    .           |      [93]: 6 transition_type 0x874-0x875 (1)
0x870|               05                              |     .          |      [94]: 5 transition_type 0x875-0x876 (1)
0x870|                  06                           |      .         |      [95]: 6 transition_type 0x876-0x877 (1)
0x870|                     05                        |       .        |      [96]: 5 transition_type 0x877-0x878 (1)
0x870|                        06                     |        .       |      [97]: 6 transition_type 0x878-0x879 (1)
0x870|                           05                  |         .      |      [98]: 5 transition_type 0x879-0x87a (1)
0x870|                              06               |          .     |      [99]: 6 transition_type 0x87a-0x87b (1)
0x870|                                 05            |           .    |      [100]: 5 transition_type 0x87b-0x87c (1)
0x870|                                    06         |            .   |      [101]: 6 transition_type 0x87c-0x87d (1)
0x870|                                       05      |             .  |      [102]: 5 transition_type 0x87d-0x87e (1)
0x870|                                          06   |              . |      [103]: 6 transition_type 0x87e-0x87f (1)
0x870|                                             05|               .|      [104]: 5 transition_type 0x87f-0x880 (1)
0x880|06                                             |.               |      [105]: 6 transition_type 0x880-0x881 (1)
0x880|   05                                          | .              |      [106]: 5 transition_type 0x881-0x882 (1)
0x880|      06                                       |  .             |      [107]: 6 transition_type 0x882-0x883 (1)
0x880|         05                                    |   .            |      [108]: 5 transition_type 0x883-0x884 (1)
0x880|            06                                 |    .           |      [109]: 6 transition_type 0x884-0x885 (1)
0x880|               05                              |     .          |      [110]: 5 transition_type 0x885-0x886 (1)
0x880|                  06                           |      .         |      [111]: 6 transition_type 0x886-0x887 (1)
0x880|                     05                        |       .        |      [112]: 5 transition_type 0x887-0x888 (1)
0x880|                        06                     |        .       |      [113]: 6 transition_type 0x888-0x889 (1)
0x880|                           05                  |         .      |      [114]: 5 transition_type 0x889-0x88a (1)
0x880|                              06               |          .     |      [115]: 6 transition_type 0x88a-0x88b (1)
0x880|                                 05            |           .    |      [116]: 5 transition_type 0x88b-0x88c (1)
0x880|                                    06         |            .   |      [117]: 6 transition_type 0x88c-0x88d (1)
0x880|                                       05      |             .  |      [118]: 5 transition_type 0x88d-0x88e (1)
0x880|                                          06   |              . |      [119]: 6 transition_type 0x88e-0x88f (1)
0x880|                                             05|               .|      [120]: 5 transition_type 0x88f-0x890 (1)
0x890|06                                             |.               |      [121]: 6 transition_type 0x890-0x891 (1)
0x890|   05                                          | .              |      [122]: 5 transition_type 0x891-0x892 (1)
0x890|      06                                       |  .             |      [123]: 6 transition_type 0x892-0x893 (1)
0x890|         05                                    |   .            |      [124]: 5 transition_type 0x893-0x894 (1)
0x890|            06                                 |    .           |      [125]: 6 transition_type 0x894-0x895 (1)
0x890|               05                              |     .          |      [126]: 5 transition_type 0x895-0x896 (1)
0x890|                  06                           |      .         |      [127]: 6 transition_type 0x896-0x897 (1)
0x890|                     05                        |       .        |      [128]: 5 transition_type 0x897-0x898 (1)
0x890|                        06                     |        .       |      [129]: 6 transition_type 0x898-0x899 (1)
0x890|                           05                  |         .      |      [130]: 5 transition_type 0x899-0x89a (1)
0x890|                              06               |          .     |      [131]: 6 transition_type 0x89a-0x89b (1)
0x890|                                 05            |           .    |      [132]: 5 transition_type 0x89b-0x89c (1)
0x890|                                    06         |            .   |      [133]: 6 transition_type 0x89c-0x89d (1)
0x890|                                       05      |             .  |      [134]: 5 transition_type 0x89d-0x89e (1)
0x890|                                          06   |              . |      [135]: 6 transition_type 0x89e-0x89f (1)
0x890|                                             05|               .|      [136]: 5 transition_type 0x89f-0x8a0 (1)
0x8a0|06                                             |.               |      [137]: 6 transition_type 0x8a0-0x8a1 (1)
0x8a0|   05                                          | .              |      [138]: 5 transition_type 0x8a1-0x8a2 (1)
0x8a0|      06                                       |  .             |      [139]: 6 transition_type 0x8a2-0x8a3 (1)
0x8a0|         05                                    |   .            |      [140]: 5 transition_type 0x8a3-0x8a4 (1)
     |                                               |                |    local_time_type_records[0:16]: 0x8a4-0x904 (96)
     |                                               |                |      [0]{}: local_time_type 0x8a4-0x8aa (6)
0x8a0|            00 00 1b 08                        |    ....        |        utoff: 6920 (valid) 0x8a4-0x8a8 (4)
0x8a0|                        00                     |        .       |        dst: 0 (valid) 0x8a8-0x8a9 (1)
0x8a0|                           00                  |         .      |        idx: 0 (valid) 0x8a9-0x8aa (1)
     |                                               |                |      [1]{}: local_time_type 0x8aa-0x8b0 (6)
0x8a0|                              00 00 1a f4      |          ....  |        utoff: 6900 (valid) 0x8aa-0x8ae (4)
0x8a0|                                          00   |              . |        dst: 0 (valid) 0x8ae-0x8af (1)
0x8a0|                                             04|               .|        idx: 4 (valid) 0x8af-0x8b0 (1)
     |                                               |                |      [2]{}: local_time_type 0x8b0-0x8b6 (6)
0x8b0|00 00 18 78                                    |...x            |        utoff: 6264 (valid) 0x8b0-0x8b4 (4)
0x8b0|            00                                 |    .           |        dst: 0 (valid) 0x8b4-0x8b5 (1)
0x8b0|               08                              |     .          |        idx: 8 (valid) 0x8b5-0x8b6 (1)
     |                                               |                |      [3]{}: local_time_type 0x8b6-0x8bc (6)
0x8b0|                  00 00 2a 30                  |      ..*0      |        utoff: 10800 (valid) 0x8b6-0x8ba (4)
0x8b0|                              01               |          .     |        dst: 1 (valid) 0x8ba-0x8bb (1)
0x8b0|                                 0c            |           .    |        idx: 12 (valid) 0x8bb-0x8bc (1)
     |                                               |                |      [4]{}: local_time_type 0x8bc-0x8c2 (6)
0x8b0|                                    00 00 1c 20|            ... |        utoff: 7200 (valid) 0x8bc-0x8c0 (4)
0x8c0|00                                             |.               |        dst: 0 (valid) 0x8c0-0x8c1 (1)
0x8c0|   11                                          | .              |        idx: 17 (valid) 0x8c1-0x8c2 (1)
     |                                               |                |      [5]{}: local_time_type 0x8c2-0x8c8 (6)
0x8c0|      00 00 1c 20                              |  ...           |        utoff: 7200 (valid) 0x8c2-0x8c6 (4)
0x8c0|                  00                           |      .         |        dst: 0 (valid) 0x8c6-0x8c7 (1)
0x8c0|                     11                        |       .        |        idx: 17 (valid) 0x8c7-0x8c8 (1)
     |                                               |                |      [6]{}: local_time_type 0x8c8-0x8ce (6)
0x8c0|                        00 00 2a 30            |        ..*0    |        utoff: 10800 (valid) 0x8c8-0x8cc (4)
0x8c0|                                    01         |            .   |        dst: 1 (valid) 0x8cc-0x8cd (1)
0x8c0|                                       0c      |             .  |        idx: 12 (valid) 0x8cd-0x8ce (1)
     |                                               |                |      [7]{}: local_time_type 0x8ce-0x8d4 (6)
0x8c0|                                          00 00|              ..|        utoff: 3600 (valid) 0x8ce-0x8d2 (4)
0x8d0|0e 10                                          |..              |
0x8d0|      00                                       |  .             |        dst: 0 (valid) 0x8d2-0x8d3 (1)
0x8d0|         15                                    |   .            |        idx: 21 (valid) 0x8d3-0x8d4 (1)
     |                                               |                |      [8]{}: local_time_type 0x8d4-0x8da (6)
0x8d0|            00 00 1c 20                        |    ...         |        utoff: 7200 (valid) 0x8d4-0x8d8 (4)
0x8d0|                        01                     |        .       |        dst: 1 (valid) 0x8d8-0x8d9 (1)
0x8d0|                           19                  |         .      |        idx: 25 (valid) 0x8d9-0x8da (1)
     |                                               |                |      [9]{}: local_time_type 0x8da-0x8e0 (6)
0x8d0|                              00 00 1c 20      |          ...   |        utoff: 7200 (valid) 0x8da-0x8de (4)
0x8d0|                                          01   |              . |        dst: 1 (valid) 0x8de-0x8df (1)
0x8d0|                                             19|               .|        idx: 25 (valid) 0x8df-0x8e0 (1)
     |                                               |                |      [10]{}: local_time_type 0x8e0-0x8e6 (6)
0x8e0|00 00 38 40                                    |..8@            |        utoff: 14400 (valid) 0x8e0-0x8e4 (4)
0x8e0|            01                                 |    .           |        dst: 1 (valid) 0x8e4-0x8e5 (1)
0x8e0|               1e                              |     .          |        idx: 30 (valid) 0x8e5-0x8e6 (1)
     |                                               |                |      [11]{}: local_time_type 0x8e6-0x8ec (6)
0x8e0|                  00 00 2a 30                  |      ..*0      |        utoff: 10800 (valid) 0x8e6-0x8ea (4)
0x8e0|                              00               |          .     |        dst: 0 (valid) 0x8ea-0x8eb (1)
0x8e0|                                 22            |           "    |        idx: 34 (valid) 0x8eb-0x8ec (1)
     |                                               |                |      [12]{}: local_time_type 0x8ec-0x8f2 (6)
0x8e0|                                    00 00 2a 30|            ..*0|        utoff: 10800 (valid) 0x8ec-0x8f0 (4)
0x8f0|00                                             |.               |        dst: 0 (valid) 0x8f0-0x8f1 (1)
0x8f0|   22                                          | "              |        idx: 34 (valid) 0x8f1-0x8f2 (1)
     |                                               |                |      [13]{}: local_time_type 0x8f2-0x8f8 (6)
0x8f0|      00 00 38 40                              |  ..8@          |        utoff: 14400 (valid) 0x8f2-0x8f6 (4)
0x8f0|                  01                           |      .         |        dst: 1 (valid) 0x8f6-0x8f7 (1)
0x8f0|                     1e                        |       .        |        idx: 30 (valid) 0x8f7-0x8f8 (1)
     |                                               |                |      [14]{}: local_time_type 0x8f8-0x8fe (6)
0x8f0|                        00 00 2a 30            |        ..*0    |        utoff: 10800 (valid) 0x8f8-0x8fc (4)
0x8f0|                                    01         |            .   |        dst: 1 (valid) 0x8fc-0x8fd (1)
0x8f0|                                       0c      |             .  |        idx: 12 (valid) 0x8fd-0x8fe (1)
     |                                               |                |      [15]{}: local_time_type 0x8fe-0x904 (6)
0x8f0|                                          00 00|              ..|        utoff: 7200 (valid) 0x8fe-0x902 (4)
0x900|1c 20                                          |.               |
0x900|      00                                       |  .             |        dst: 0 (valid) 0x902-0x903 (1)
0x900|         11                                    |   .            |        idx: 17 (valid) 0x903-0x904 (1)
     |                                               |                |    time_zone_designations[0:9]: 0x904-0x92a (38)
0x900|            4c 4d 54 00                        |    LMT.        |      [0]: "LMT" time_zone_designation 0x904-0x908 (4)
0x900|                        43 4d 54 00            |        CMT.    |      [1]: "CMT" time_zone_designation 0x908-0x90c (4)
0x900|                                    42 4d 54 00|            BMT.|      [2]: "BMT" time_zone_designation 0x90c-0x910 (4)
0x910|45 45 53 54 00                                 |EEST.           |      [3]: "EEST" time_zone_designation 0x910-0x915 (5)
0x910|               45 45 54 00                     |     EET.       |      [4]: "EET" time_zone_designation 0x915-0x919 (4)
0x910|                           43 45 54 00         |         CET.   |      [5]: "CET" time_zone_designation 0x919-0x91d (4)
0x910|                                       43 45 53|             CES|      [6]: "CEST" time_zone_designation 0x91d-0x922 (5)
0x920|54 00                                          |T.              |
0x920|      4d 53 44 00                              |  MSD.          |      [7]: "MSD" time_zone_designation 0x922-0x926 (4)
0x920|                  4d 53 4b 00                  |      MSK.      |      [8]: "MSK" time_zone_designation 0x926-0x92a (4)
     |                                               |                |    leap_second_records[0:0]: 0x92a-0x92a (0)
     |                                               |                |    standard_wall_indicators[0:16]: 0x92a-0x93a (16)
0x920|                              00               |          .     |      [0]: 0 standard_wall_indicator (valid) 0x92a-0x92b (1)
0x920|                                 00            |           .    |      [1]: 0 standard_wall_indicator (valid) 0x92b-0x92c (1)
0x920|                                    00         |            .   |      [2]: 0 standard_wall_indicator (valid) 0x92c-0x92d (1)
0x920|                                       01      |             .  |      [3]: 1 standard_wall_indicator (valid) 0x92d-0x92e (1)
0x920|                                          01   |              . |      [4]: 1 standard_wall_indicator (valid) 0x92e-0x92f (1)
0x920|                                             00|               .|      [5]: 0 standard_wall_indicator (valid) 0x92f-0x930 (1)
0x930|00                                             |.               |      [6]: 0 standard_wall_indicator (valid) 0x930-0x931 (1)
0x930|   01                                          | .              |      [7]: 1 standard_wall_indicator (valid) 0x931-0x932 (1)
0x930|      01                                       |  .             |      [8]: 1 standard_wall_indicator (valid) 0x932-0x933 (1)
0x930|         00                                    |   .            |      [9]: 0 standard_wall_indicator (valid) 0x933-0x934 (1)
0x930|            00                                 |    .           |      [10]: 0 standard_wall_indicator (valid) 0x934-0x935 (1)
0x930|               00                              |     .          |      [11]: 0 standard_wall_indicator (valid) 0x935-0x936 (1)
0x930|                  01                           |      .         |      [12]: 1 standard_wall_indicator (valid) 0x936-0x937 (1)
0x930|                     01                        |       .        |      [13]: 1 standard_wall_indicator (valid) 0x937-0x938 (1)
0x930|                        00                     |        .       |      [14]: 0 standard_wall_indicator (valid) 0x938-0x939 (1)
0x930|                           00                  |         .      |      [15]: 0 standard_wall_indicator (valid) 0x939-0x93a (1)
     |                                               |                |    ut_local_indicators[0:0]: 0x93a-0x93a (0)
     |                                               |                |  footer{}: 0x93a-0x956 (28)
0x930|                              0a               |          .     |    nl1: 10 (valid) 0x93a-0x93b (1)
0x930|                                 45 45 54 2d 32|           EET-2|    tz_string: "EET-2EEST,M3.5.0,M10.5.0/3" 0x93b-0x955 (26)
0x940|45 45 53 54 2c 4d 33 2e 35 2e 30 2c 4d 31 30 2e|EEST,M3.5.0,M10.|
0x950|35 2e 30 2f 33                                 |5.0/3           |
0x950|               0a|                             |     .|         |    nl2: 10 (valid) 0x955-0x956 (1)
