$ fq -d tzif dv Chita
     |00 01 02 03 04 05 06 07 08 09 0a 0b 0c 0d 0e 0f|0123456789abcdef|.{}: Chita (tzif) 0x0-0x6da (1754)
     |                                               |                |  v1header{}: 0x0-0x2c (44)
0x000|54 5a 69 66                                    |TZif            |    magic: 0x545a6966 (valid) 0x0-0x4 (4)
0x000|            32                                 |    2           |    ver: "2" (0x32) (valid) 0x4-0x5 (1)
0x000|               00 00 00 00 00 00 00 00 00 00 00|     ...........|    reserved: raw bits 0x5-0x14 (15)
0x010|00 00 00 00                                    |....            |
0x010|            00 00 00 00                        |    ....        |    isutcnt: 0 0x14-0x18 (4)
0x010|                        00 00 00 0b            |        ....    |    isstdcnt: 11 0x18-0x1c (4)
0x010|                                    00 00 00 1b|            ....|    leapcnt: 27 0x1c-0x20 (4)
0x020|00 00 00 43                                    |...C            |    timecnt: 67 0x20-0x24 (4)
0x020|            00 00 00 0b                        |    ....        |    typecnt: 11 0x24-0x28 (4)
0x020|                        00 00 00 10            |        ....    |    charcnt: 16 0x28-0x2c (4)
     |                                               |                |  v1datablock{}: 0x2c-0x2b0 (644)
     |                                               |                |    transition_times[0:67]: 0x2c-0x138 (268)
0x020|                                    a1 db f9 a0|            ....|      [0]: "1919-12-14T16:26:08Z" (-1579419232) transition_time 0x2c-0x30 (4)
0x030|b5 a3 c5 00                                    |....            |      [1]: "1930-06-20T16:00:00Z" (-1247558400) transition_time 0x30-0x34 (4)
0x030|            15 27 53 79                        |    .'Sy        |      [2]: "1981-03-31T15:00:09Z" (354898809) transition_time 0x34-0x38 (4)
0x030|                        16 18 87 ea            |        ....    |      [3]: "1981-09-30T14:00:10Z" (370706410) transition_time 0x38-0x3c (4)
0x030|                                    17 08 86 fa|            ....|      [4]: "1982-03-31T15:00:10Z" (386434810) transition_time 0x3c-0x40 (4)
0x040|17 f9 bb 6b                                    |...k            |      [5]: "1982-09-30T14:00:11Z" (402242411) transition_time 0x40-0x44 (4)
0x040|            18 e9 ba 7b                        |    ...{        |      [6]: "1983-03-31T15:00:11Z" (417970811) transition_time 0x44-0x48 (4)
0x040|                        19 da ee ec            |        ....    |      [7]: "1983-09-30T14:00:12Z" (433778412) transition_time 0x48-0x4c (4)
0x040|                                    1a cc 3f 7c|            ..?||      [8]: "1984-03-31T15:00:12Z" (449593212) transition_time 0x4c-0x50 (4)
0x050|1b bc 4c 9c                                    |..L.            |      [9]: "1984-09-29T17:00:12Z" (465325212) transition_time 0x50-0x54 (4)
0x050|            1c ac 3d 9c                        |    ..=.        |      [10]: "1985-03-30T17:00:12Z" (481050012) transition_time 0x54-0x58 (4)
0x050|                        1d 9c 2e 9d            |        ....    |      [11]: "1985-09-28T17:00:13Z" (496774813) transition_time 0x58-0x5c (4)
0x050|                                    1e 8c 1f 9d|            ....|      [12]: "1986-03-29T17:00:13Z" (512499613) transition_time 0x5c-0x60 (4)
0x060|1f 7c 10 9d                                    |.|..            |      [13]: "1986-09-27T17:00:13Z" (528224413) transition_time 0x60-0x64 (4)
0x060|            20 6c 01 9d                        |     l..        |      [14]: "1987-03-28T17:00:13Z" (543949213) transition_time 0x64-0x68 (4)
0x060|                        21 5b f2 9d            |        ![..    |      [15]: "1987-09-26T17:00:13Z" (559674013) transition_time 0x68-0x6c (4)
0x060|                                    22 4b e3 9e|            "K..|      [16]: "1988-03-26T17:00:14Z" (575398814) transition_time 0x6c-0x70 (4)
0x070|23 3b d4 9e                                    |#;..            |      [17]: "1988-09-24T17:00:14Z" (591123614) transition_time 0x70-0x74 (4)
0x070|            24 2b c5 9e                        |    $+..        |      [18]: "1989-03-25T17:00:14Z" (606848414) transition_time 0x74-0x78 (4)
0x070|                        25 1b b6 9e            |        %...    |      [19]: "1989-09-23T17:00:14Z" (622573214) transition_time 0x78-0x7c (4)
0x070|                                    26 0b a7 9f|            &...|      [20]: "1990-03-24T17:00:15Z" (638298015) transition_time 0x7c-0x80 (4)
0x080|27 04 d3 1f                                    |'...            |      [21]: "1990-09-29T17:00:15Z" (654627615) transition_time 0x80-0x84 (4)
0x080|            27 f4 c4 20                        |    '..         |      [22]: "1991-03-30T17:00:16Z" (670352416) transition_time 0x84-0x88 (4)
0x080|                        28 e4 c3 30            |        (..0    |      [23]: "1991-09-28T18:00:16Z" (686080816) transition_time 0x88-0x8c (4)
0x080|                                    29 78 6b 30|            )xk0|      [24]: "1992-01-18T18:00:16Z" (695757616) transition_time 0x8c-0x90 (4)
0x090|29 d4 a6 20                                    |)..             |      [25]: "1992-03-28T17:00:16Z" (701802016) transition_time 0x90-0x94 (4)
0x090|            2a c4 97 21                        |    *..!        |      [26]: "1992-09-26T17:00:17Z" (717526817) transition_time 0x94-0x98 (4)
0x090|                        2b b4 88 21            |        +..!    |      [27]: "1993-03-27T17:00:17Z" (733251617) transition_time 0x98-0x9c (4)
0x090|                                    2c a4 79 22|            ,.y"|      [28]: "1993-09-25T17:00:18Z" (748976418) transition_time 0x9c-0xa0 (4)
0x0a0|2d 94 6a 22                                    |-.j"            |      [29]: "1994-03-26T17:00:18Z" (764701218) transition_time 0xa0-0xa4 (4)
0x0a0|            2e 84 5b 23                        |    ..[#        |      [30]: "1994-09-24T17:00:19Z" (780426019) transition_time 0xa4-0xa8 (4)
0x0a0|                        2f 74 4c 23            |        /tL#    |      [31]: "1995-03-25T17:00:19Z" (796150819) transition_time 0xa8-0xac (4)
0x0a0|                                    30 64 3d 23|            0d=#|      [32]: "1995-09-23T17:00:19Z" (811875619) transition_time 0xac-0xb0 (4)
0x0b0|31 5d 68 a4                                    |1]h.            |      [33]: "1996-03-30T17:00:20Z" (828205220) transition_time 0xb0-0xb4 (4)
0x0b0|            32 72 43 a4                        |    2rC.        |      [34]: "1996-10-26T17:00:20Z" (846349220) transition_time 0xb4-0xb8 (4)
0x0b0|                        33 3d 4a a4            |        3=J.    |      [35]: "1997-03-29T17:00:20Z" (859654820) transition_time 0xb8-0xbc (4)
0x0b0|                                    34 52 25 a5|            4R%.|      [36]: "1997-10-25T17:00:21Z" (877798821) transition_time 0xbc-0xc0 (4)
0x0c0|35 1d 2c a5                                    |5.,.            |      [37]: "1998-03-28T17:00:21Z" (891104421) transition_time 0xc0-0xc4 (4)
0x0c0|            36 32 07 a5                        |    62..        |      [38]: "1998-10-24T17:00:21Z" (909248421) transition_time 0xc4-0xc8 (4)
0x0c0|                        36 fd 0e a6            |        6...    |      [39]: "1999-03-27T17:00:22Z" (922554022) transition_time 0xc8-0xcc (4)
0x0c0|                                    38 1b 24 26|            8.$&|      [40]: "1999-10-30T17:00:22Z" (941302822) transition_time 0xcc-0xd0 (4)
0x0d0|38 dc f0 a6                                    |8...            |      [41]: "2000-03-25T17:00:22Z" (954003622) transition_time 0xd0-0xd4 (4)
0x0d0|            39 fb 06 26                        |    9..&        |      [42]: "2000-10-28T17:00:22Z" (972752422) transition_time 0xd4-0xd8 (4)
0x0d0|                        3a bc d2 a6            |        :...    |      [43]: "2001-03-24T17:00:22Z" (985453222) transition_time 0xd8-0xdc (4)
0x0d0|                                    3b da e8 26|            ;..&|      [44]: "2001-10-27T17:00:22Z" (1004202022) transition_time 0xdc-0xe0 (4)
0x0e0|3c a5 ef 26                                    |<..&            |      [45]: "2002-03-30T17:00:22Z" (1017507622) transition_time 0xe0-0xe4 (4)
0x0e0|            3d ba ca 26                        |    =..&        |      [46]: "2002-10-26T17:00:22Z" (1035651622) transition_time 0xe4-0xe8 (4)
0x0e0|                        3e 85 d1 26            |        >..&    |      [47]: "2003-03-29T17:00:22Z" (1048957222) transition_time 0xe8-0xec (4)
0x0e0|                                    3f 9a ac 26|            ?..&|      [48]: "2003-10-25T17:00:22Z" (1067101222) transition_time 0xec-0xf0 (4)
0x0f0|40 65 b3 26                                    |@e.&            |      [49]: "2004-03-27T17:00:22Z" (1080406822) transition_time 0xf0-0xf4 (4)
0x0f0|            41 83 c8 a6                        |    A...        |      [50]: "2004-10-30T17:00:22Z" (1099155622) transition_time 0xf4-0xf8 (4)
0x0f0|                        42 45 95 26            |        BE.&    |      [51]: "2005-03-26T17:00:22Z" (1111856422) transition_time 0xf8-0xfc (4)
0x0f0|                                    43 63 aa a6|            Cc..|      [52]: "2005-10-29T17:00:22Z" (1130605222) transition_time 0xfc-0x100 (4)
0x100|44 25 77 27                                    |D%w'            |      [53]: "2006-03-25T17:00:23Z" (1143306023) transition_time 0x100-0x104 (4)
0x100|            45 43 8c a7                        |    EC..        |      [54]: "2006-10-28T17:00:23Z" (1162054823) transition_time 0x104-0x108 (4)
0x100|                        46 05 59 27            |        F.Y'    |      [55]: "2007-03-24T17:00:23Z" (1174755623) transition_time 0x108-0x10c (4)
0x100|                                    47 23 6e a7|            G#n.|      [56]: "2007-10-27T17:00:23Z" (1193504423) transition_time 0x10c-0x110 (4)
0x110|47 ee 75 a7                                    |G.u.            |      [57]: "2008-03-29T17:00:23Z" (1206810023) transition_time 0x110-0x114 (4)
0x110|            49 03 50 a7                        |    I.P.        |      [58]: "2008-10-25T17:00:23Z" (1224954023) transition_time 0x114-0x118 (4)
0x110|                        49 ce 57 a8            |        I.W.    |      [59]: "2009-03-28T17:00:24Z" (1238259624) transition_time 0x118-0x11c (4)
0x110|                                    4a e3 32 a8|            J.2.|      [60]: "2009-10-24T17:00:24Z" (1256403624) transition_time 0x11c-0x120 (4)
0x120|4b ae 39 a8                                    |K.9.            |      [61]: "2010-03-27T17:00:24Z" (1269709224) transition_time 0x120-0x124 (4)
0x120|            4c cc 4f 28                        |    L.O(        |      [62]: "2010-10-30T17:00:24Z" (1288458024) transition_time 0x124-0x128 (4)
0x120|                        4d 8e 1b a8            |        M...    |      [63]: "2011-03-26T17:00:24Z" (1301158824) transition_time 0x128-0x12c (4)
0x120|                                    54 4b c9 19|            TK..|      [64]: "2014-10-25T16:00:25Z" (1414252825) transition_time 0x12c-0x130 (4)
0x130|56 f6 ce 3a                                    |V..:            |      [65]: "2016-03-26T18:00:26Z" (1459015226) transition_time 0x130-0x134 (4)
0x130|            64 9b 78 1b                        |    d.x.        |      [66]: "2023-06-28T00:00:27Z" (1687910427) transition_time 0x134-0x138 (4)
     |                                               |                |    transition_types[0:67]: 0x138-0x17b (67)
0x130|                        01                     |        .       |      [0]: 1 transition_type 0x138-0x139 (1)
0x130|                           03                  |         .      |      [1]: 3 transition_type 0x139-0x13a (1)
0x130|                              02               |          .     |      [2]: 2 transition_type 0x13a-0x13b (1)
0x130|                                 03            |           .    |      [3]: 3 transition_type 0x13b-0x13c (1)
0x130|                                    02         |            .   |      [4]: 2 transition_type 0x13c-0x13d (1)
0x130|                                       03      |             .  |      [5]: 3 transition_type 0x13d-0x13e (1)
0x130|                                          02   |              . |      [6]: 2 transition_type 0x13e-0x13f (1)
0x130|                                             03|               .|      [7]: 3 transition_type 0x13f-0x140 (1)
0x140|02                                             |.               |      [8]: 2 transition_type 0x140-0x141 (1)
0x140|   04                                          | .              |      [9]: 4 transition_type 0x141-0x142 (1)
0x140|      05                                       |  .             |      [10]: 5 transition_type 0x142-0x143 (1)
0x140|         04                                    |   .            |      [11]: 4 transition_type 0x143-0x144 (1)
0x140|            05                                 |    .           |      [12]: 5 transition_type 0x144-0x145 (1)
0x140|               04                              |     .          |      [13]: 4 transition_type 0x145-0x146 (1)
0x140|                  05                           |      .         |      [14]: 5 transition_type 0x146-0x147 (1)
0x140|                     04                        |       .        |      [15]: 4 transition_type 0x147-0x148 (1)
0x140|                        05                     |        .       |      [16]: 5 transition_type 0x148-0x149 (1)
0x140|                           04                  |         .      |      [17]: 4 transition_type 0x149-0x14a (1)
0x140|                              05               |          .     |      [18]: 5 transition_type 0x14a-0x14b (1)
0x140|                                 04            |           .    |      [19]: 4 transition_type 0x14b-0x14c (1)
0x140|                                    05         |            .   |      [20]: 5 transition_type 0x14c-0x14d (1)
0x140|                                       04      |             .  |      [21]: 4 transition_type 0x14d-0x14e (1)
0x140|                                          06   |              . |      [22]: 6 transition_type 0x14e-0x14f (1)
0x140|                                             07|               .|      [23]: 7 transition_type 0x14f-0x150 (1)
0x150|04                                             |.               |      [24]: 4 transition_type 0x150-0x151 (1)
0x150|   05                                          | .              |      [25]: 5 transition_type 0x151-0x152 (1)
0x150|      04                                       |  .             |      [26]: 4 transition_type 0x152-0x153 (1)
0x150|         05                                    |   .            |      [27]: 5 transition_type 0x153-0x154 (1)
0x150|            04                                 |    .           |      [28]: 4 transition_type 0x154-0x155 (1)
0x150|               05                              |     .          |      [29]: 5 transition_type 0x155-0x156 (1)
0x150|                  04                           |      .         |      [30]: 4 transition_type 0x156-0x157 (1)
0x150|                     05                        |       .        |      [31]: 5 transition_type 0x157-0x158 (1)
0x150|                        04                     |        .       |      [32]: 4 transition_type 0x158-0x159 (1)
0x150|                           05                  |         .      |      [33]: 5 transition_type 0x159-0x15a (1)
0x150|                              04               |          .     |      [34]: 4 transition_type 0x15a-0x15b (1)
0x150|                                 05            |           .    |      [35]: 5 transition_type 0x15b-0x15c (1)
0x150|                                    04         |            .   |      [36]: 4 transition_type 0x15c-0x15d (1)
0x150|                                       05      |             .  |      [37]: 5 transition_type 0x15d-0x15e (1)
0x150|                                          04   |              . |      [38]: 4 transition_type 0x15e-0x15f (1)
0x150|                                             05|               .|      [39]: 5 transition_type 0x15f-0x160 (1)
0x160|04                                             |.               |      [40]: 4 transition_type 0x160-0x161 (1)
0x160|   05                                          | .              |      [41]: 5 transition_type 0x161-0x162 (1)
0x160|      04                                       |  .             |      [42]: 4 transition_type 0x162-0x163 (1)
0x160|         05                                    |   .            |      [43]: 5 transition_type 0x163-0x164 (1)
0x160|            04                                 |    .           |      [44]: 4 transition_type 0x164-0x165 (1)
0x160|               05                              |     .          |      [45]: 5 transition_type 0x165-0x166 (1)
0x160|                  04                           |      .         |      [46]: 4 transition_type 0x166-0x167 (1)
0x160|                     05                        |       .        |      [47]: 5 transition_type 0x167-0x168 (1)
0x160|                        04                     |        .       |      [48]: 4 transition_type 0x168-0x169 (1)
0x160|                           05                  |         .      |      [49]: 5 transition_type 0x169-0x16a (1)
0x160|                              04               |          .     |      [50]: 4 transition_type 0x16a-0x16b (1)
0x160|                                 05            |           .    |      [51]: 5 transition_type 0x16b-0x16c (1)
0x160|                                    04         |            .   |      [52]: 4 transition_type 0x16c-0x16d (1)
0x160|                                       05      |             .  |      [53]: 5 transition_type 0x16d-0x16e (1)
0x160|                                          04   |              . |      [54]: 4 transition_type 0x16e-0x16f (1)
0x160|                                             05|               .|      [55]: 5 transition_type 0x16f-0x170 (1)
0x170|04                                             |.               |      [56]: 4 transition_type 0x170-0x171 (1)
0x170|   05                                          | .              |      [57]: 5 transition_type 0x171-0x172 (1)
0x170|      04                                       |  .             |      [58]: 4 transition_type 0x172-0x173 (1)
0x170|         05                                    |   .            |      [59]: 5 transition_type 0x173-0x174 (1)
0x170|            04                                 |    .           |      [60]: 4 transition_type 0x174-0x175 (1)
0x170|               05                              |     .          |      [61]: 5 transition_type 0x175-0x176 (1)
0x170|                  04                           |      .         |      [62]: 4 transition_type 0x176-0x177 (1)
0x170|                     08                        |       .        |      [63]: 8 transition_type 0x177-0x178 (1)
0x170|                        07                     |        .       |      [64]: 7 transition_type 0x178-0x179 (1)
0x170|                           03                  |         .      |      [65]: 3 transition_type 0x179-0x17a (1)
0x170|                              03               |          .     |      [66]: 3 transition_type 0x17a-0x17b (1)
     |                                               |                |    local_time_type_records[0:11]: 0x17b-0x1bd (66)
     |                                               |                |      [0]{}: local_time_type 0x17b-0x181 (6)
0x170|                                 00 00 6a 60   |           ..j` |        utoff: 27232 (valid) 0x17b-0x17f (4)
0x170|                                             00|               .|        dst: 0 (valid) 0x17f-0x180 (1)
0x180|00                                             |.               |        idx: 0 (valid) 0x180-0x181 (1)
     |                                               |                |      [1]{}: local_time_type 0x181-0x187 (6)
0x180|   00 00 70 80                                 | ..p.           |        utoff: 28800 (valid) 0x181-0x185 (4)
0x180|               00                              |     .          |        dst: 0 (valid) 0x185-0x186 (1)
0x180|                  04                           |      .         |        idx: 4 (valid) 0x186-0x187 (1)
     |                                               |                |      [2]{}: local_time_type 0x187-0x18d (6)
0x180|                     00 00 8c a0               |       ....     |        utoff: 36000 (valid) 0x187-0x18b (4)
0x180|                                 01            |           .    |        dst: 1 (valid) 0x18b-0x18c (1)
0x180|                                    08         |            .   |        idx: 8 (valid) 0x18c-0x18d (1)
     |                                               |                |      [3]{}: local_time_type 0x18d-0x193 (6)
0x180|                                       00 00 7e|             ..~|        utoff: 32400 (valid) 0x18d-0x191 (4)
0x190|90                                             |.               |
0x190|   00                                          | .              |        dst: 0 (valid) 0x191-0x192 (1)
0x190|      0c                                       |  .             |        idx: 12 (valid) 0x192-0x193 (1)
     |                                               |                |      [4]{}: local_time_type 0x193-0x199 (6)
0x190|         00 00 7e 90                           |   ..~.         |        utoff: 32400 (valid) 0x193-0x197 (4)
0x190|                     00                        |       .        |        dst: 0 (valid) 0x197-0x198 (1)
0x190|                        0c                     |        .       |        idx: 12 (valid) 0x198-0x199 (1)
     |                                               |                |      [5]{}: local_time_type 0x199-0x19f (6)
0x190|                           00 00 8c a0         |         ....   |        utoff: 36000 (valid) 0x199-0x19d (4)
0x190|                                       01      |             .  |        dst: 1 (valid) 0x19d-0x19e (1)
0x190|                                          08   |              . |        idx: 8 (valid) 0x19e-0x19f (1)
     |                                               |                |      [6]{}: local_time_type 0x19f-0x1a5 (6)
0x190|                                             00|               .|        utoff: 32400 (valid) 0x19f-0x1a3 (4)
0x1a0|00 7e 90                                       |.~.             |
0x1a0|         01                                    |   .            |        dst: 1 (valid) 0x1a3-0x1a4 (1)
0x1a0|            0c                                 |    .           |        idx: 12 (valid) 0x1a4-0x1a5 (1)
     |                                               |                |      [7]{}: local_time_type 0x1a5-0x1ab (6)
0x1a0|               00 00 70 80                     |     ..p.       |        utoff: 28800 (valid) 0x1a5-0x1a9 (4)
0x1a0|                           00                  |         .      |        dst: 0 (valid) 0x1a9-0x1aa (1)
0x1a0|                              04               |          .     |        idx: 4 (valid) 0x1aa-0x1ab (1)
     |                                               |                |      [8]{}: local_time_type 0x1ab-0x1b1 (6)
0x1a0|                                 00 00 8c a0   |           .... |        utoff: 36000 (valid) 0x1ab-0x1af (4)
0x1a0|                                             00|               .|        dst: 0 (valid) 0x1af-0x1b0 (1)
0x1b0|08                                             |.               |        idx: 8 (valid) 0x1b0-0x1b1 (1)
     |                                               |                |      [9]{}: local_time_type 0x1b1-0x1b7 (6)
0x1b0|   00 00 8c a0                                 | ....           |        utoff: 36000 (valid) 0x1b1-0x1b5 (4)
0x1b0|               01                              |     .          |        dst: 1 (valid) 0x1b5-0x1b6 (1)
0x1b0|                  08                           |      .         |        idx: 8 (valid) 0x1b6-0x1b7 (1)
     |                                               |                |      [10]{}: local_time_type 0x1b7-0x1bd (6)
0x1b0|                     00 00 7e 90               |       ..~.     |        utoff: 32400 (valid) 0x1b7-0x1bb (4)
0x1b0|                                 00            |           .    |        dst: 0 (valid) 0x1bb-0x1bc (1)
0x1b0|                                    0c         |            .   |        idx: 12 (valid) 0x1bc-0x1bd (1)
     |                                               |                |    time_zone_designations[0:4]: 0x1bd-0x1cd (16)
0x1b0|                                       4c 4d 54|             LMT|      [0]: "LMT" time_zone_designation 0x1bd-0x1c1 (4)
0x1c0|00                                             |.               |
0x1c0|   2b 30 38 00                                 | +08.           |      [1]: "+08" time_zone_designation 0x1c1-0x1c5 (4)
0x1c0|               2b 31 30 00                     |     +10.       |      [2]: "+10" time_zone_designation 0x1c5-0x1c9 (4)
0x1c0|                           2b 30 39 00         |         +09.   |      [3]: "+09" time_zone_designation 0x1c9-0x1cd (4)
     |                                               |                |    leap_second_records[0:27]: 0x1cd-0x2a5 (216)
     |                                               |                |      [0]{}: leap_second_record 0x1cd-0x1d5 (8)
0x1c0|                                       04 b2 58|             ..X|        occur: "1972-07-01T00:00:00Z" (78796800) 0x1cd-0x1d1 (4)
0x1d0|00                                             |.               |
0x1d0|   00 00 00 01                                 | ....           |        corr: 1 0x1d1-0x1d5 (4)
     |                                               |                |      [1]{}: leap_second_record 0x1d5-0x1dd (8)
0x1d0|               05 a4 ec 01                     |     ....       |        occur: "1973-01-01T00:00:01Z" (94694401) 0x1d5-0x1d9 (4)
0x1d0|                           00 00 00 02         |         ....   |        corr: 2 0x1d9-0x1dd (4)
     |                                               |                |      [2]{}: leap_second_record 0x1dd-0x1e5 (8)
0x1d0|                                       07 86 1f|             ...|        occur: "1974-01-01T00:00:02Z" (126230402) 0x1dd-0x1e1 (4)
0x1e0|82                                             |.               |
0x1e0|   00 00 00 03                                 | ....           |        corr: 3 0x1e1-0x1e5 (4)
     |                                               |                |      [3]{}: leap_second_record 0x1e5-0x1ed (8)
0x1e0|               09 67 53 03                     |     .gS.       |        occur: "1975-01-01T00:00:03Z" (157766403) 0x1e5-0x1e9 (4)
0x1e0|                           00 00 00 04         |         ....   |        corr: 4 0x1e9-0x1ed (4)
     |                                               |                |      [4]{}: leap_second_record 0x1ed-0x1f5 (8)
0x1e0|                                       0b 48 86|             .H.|        occur: "1976-01-01T00:00:04Z" (189302404) 0x1ed-0x1f1 (4)
0x1f0|84                                             |.               |
0x1f0|   00 00 00 05                                 | ....           |        corr: 5 0x1f1-0x1f5 (4)
     |                                               |                |      [5]{}: leap_second_record 0x1f5-0x1fd (8)
0x1f0|               0d 2b 0b 85                     |     .+..       |        occur: "1977-01-01T00:00:05Z" (220924805) 0x1f5-0x1f9 (4)
0x1f0|                           00 00 00 06         |         ....   |        corr: 6 0x1f9-0x1fd (4)
     |                                               |                |      [6]{}: leap_second_record 0x1fd-0x205 (8)
0x1f0|                                       0f 0c 3f|             ..?|        occur: "1978-01-01T00:00:06Z" (252460806) 0x1fd-0x201 (4)
0x200|06                                             |.               |
0x200|   00 00 00 07                                 | ....           |        corr: 7 0x201-0x205 (4)
     |                                               |                |      [7]{}: leap_second_record 0x205-0x20d (8)
0x200|               10 ed 72 87                     |     ..r.       |        occur: "1979-01-01T00:00:07Z" (283996807) 0x205-0x209 (4)
0x200|                           00 00 00 08         |         ....   |        corr: 8 0x209-0x20d (4)
     |                                               |                |      [8]{}: leap_second_record 0x20d-0x215 (8)
0x200|                                       12 ce a6|             ...|        occur: "1980-01-01T00:00:08Z" (315532808) 0x20d-0x211 (4)
0x210|08                                             |.               |
0x210|   00 00 00 09                                 | ....           |        corr: 9 0x211-0x215 (4)
     |                                               |                |      [9]{}: leap_second_record 0x215-0x21d (8)
0x210|               15 9f ca 89                     |     ....       |        occur: "1981-07-01T00:00:09Z" (362793609) 0x215-0x219 (4)
0x210|                           00 00 00 0a         |         ....   |        corr: 10 0x219-0x21d (4)
     |                                               |                |      [10]{}: leap_second_record 0x21d-0x225 (8)
0x210|                                       17 80 fe|             ...|        occur: "1982-07-01T00:00:10Z" (394329610) 0x21d-0x221 (4)
0x220|0a                                             |.               |
0x220|   00 00 00 0b                                 | ....           |        corr: 11 0x221-0x225 (4)
     |                                               |                |      [11]{}: leap_second_record 0x225-0x22d (8)
0x220|               19 62 31 8b                     |     .b1.       |        occur: "1983-07-01T00:00:11Z" (425865611) 0x225-0x229 (4)
0x220|                           00 00 00 0c         |         ....   |        corr: 12 0x229-0x22d (4)
     |                                               |                |      [12]{}: leap_second_record 0x22d-0x235 (8)
0x220|                                       1d 25 ea|             .%.|        occur: "1985-07-01T00:00:12Z" (489024012) 0x22d-0x231 (4)
0x230|0c                                             |.               |
0x230|   00 00 00 0d                                 | ....           |        corr: 13 0x231-0x235 (4)
     |                                               |                |      [13]{}: leap_second_record 0x235-0x23d (8)
0x230|               21 da e5 0d                     |     !...       |        occur: "1988-01-01T00:00:13Z" (567993613) 0x235-0x239 (4)
0x230|                           00 00 00 0e         |         ....   |        corr: 14 0x239-0x23d (4)
     |                                               |                |      [14]{}: leap_second_record 0x23d-0x245 (8)
0x230|                                       25 9e 9d|             %..|        occur: "1990-01-01T00:00:14Z" (631152014) 0x23d-0x241 (4)
0x240|8e                                             |.               |
0x240|   00 00 00 0f                                 | ....           |        corr: 15 0x241-0x245 (4)
     |                                               |                |      [15]{}: leap_second_record 0x245-0x24d (8)
0x240|               27 7f d1 0f                     |     '...       |        occur: "1991-01-01T00:00:15Z" (662688015) 0x245-0x249 (4)
0x240|                           00 00 00 10         |         ....   |        corr: 16 0x249-0x24d (4)
     |                                               |                |      [16]{}: leap_second_record 0x24d-0x255 (8)
0x240|                                       2a 50 f5|             *P.|        occur: "1992-07-01T00:00:16Z" (709948816) 0x24d-0x251 (4)
0x250|90                                             |.               |
0x250|   00 00 00 11                                 | ....           |        corr: 17 0x251-0x255 (4)
     |                                               |                |      [17]{}: leap_second_record 0x255-0x25d (8)
0x250|               2c 32 29 11                     |     ,2).       |        occur: "1993-07-01T00:00:17Z" (741484817) 0x255-0x259 (4)
0x250|                           00 00 00 12         |         ....   |        corr: 18 0x259-0x25d (4)
     |                                               |                |      [18]{}: leap_second_record 0x25d-0x265 (8)
0x250|                                       2e 13 5c|             ..\|        occur: "1994-07-01T00:00:18Z" (773020818) 0x25d-0x261 (4)
0x260|92                                             |.               |
0x260|   00 00 00 13                                 | ....           |        corr: 19 0x261-0x265 (4)
     |                                               |                |      [19]{}: leap_second_record 0x265-0x26d (8)
0x260|               30 e7 24 13                     |     0.$.       |        occur: "1996-01-01T00:00:19Z" (820454419) 0x265-0x269 (4)
0x260|                           00 00 00 14         |         ....   |        corr: 20 0x269-0x26d (4)
     |                                               |                |      [20]{}: leap_second_record 0x26d-0x275 (8)
0x260|                                       33 b8 48|             3.H|        occur: "1997-07-01T00:00:20Z" (867715220) 0x26d-0x271 (4)
0x270|94                                             |.               |
0x270|   00 00 00 15                                 | ....           |        corr: 21 0x271-0x275 (4)
     |                                               |                |      [21]{}: leap_second_record 0x275-0x27d (8)
0x270|               36 8c 10 15                     |     6...       |        occur: "1999-01-01T00:00:21Z" (915148821) 0x275-0x279 (4)
0x270|                           00 00 00 16         |         ....   |        corr: 22 0x279-0x27d (4)
     |                                               |                |      [22]{}: leap_second_record 0x27d-0x285 (8)
0x270|                                       43 b7 1b|             C..|        occur: "2006-01-01T00:00:22Z" (1136073622) 0x27d-0x281 (4)
0x280|96                                             |.               |
0x280|   00 00 00 17                                 | ....           |        corr: 23 0x281-0x285 (4)
     |                                               |                |      [23]{}: leap_second_record 0x285-0x28d (8)
0x280|               49 5c 07 97                     |     I\..       |        occur: "2009-01-01T00:00:23Z" (1230768023) 0x285-0x289 (4)
0x280|                           00 00 00 18         |         ....   |        corr: 24 0x289-0x28d (4)
     |                                               |                |      [24]{}: leap_second_record 0x28d-0x295 (8)
0x280|                                       4f ef 93|             O..|        occur: "2012-07-01T00:00:24Z" (1341100824) 0x28d-0x291 (4)
0x290|18                                             |.               |
0x290|   00 00 00 19                                 | ....           |        corr: 25 0x291-0x295 (4)
     |                                               |                |      [25]{}: leap_second_record 0x295-0x29d (8)
0x290|               55 93 2d 99                     |     U.-.       |        occur: "2015-07-01T00:00:25Z" (1435708825) 0x295-0x299 (4)
0x290|                           00 00 00 1a         |         ....   |        corr: 26 0x299-0x29d (4)
     |                                               |                |      [26]{}: leap_second_record 0x29d-0x2a5 (8)
0x290|                                       58 68 46|             XhF|        occur: "2017-01-01T00:00:26Z" (1483228826) 0x29d-0x2a1 (4)
0x2a0|9a                                             |.               |
0x2a0|   00 00 00 1b                                 | ....           |        corr: 27 0x2a1-0x2a5 (4)
     |                                               |                |    standard_wall_indicators[0:11]: 0x2a5-0x2b0 (11)
0x2a0|               00                              |     .          |      [0]: 0 standard_wall_indicator (valid) 0x2a5-0x2a6 (1)
0x2a0|                  00                           |      .         |      [1]: 0 standard_wall_indicator (valid) 0x2a6-0x2a7 (1)
0x2a0|                     00                        |       .        |      [2]: 0 standard_wall_indicator (valid) 0x2a7-0x2a8 (1)
0x2a0|                        00                     |        .       |      [3]: 0 standard_wall_indicator (valid) 0x2a8-0x2a9 (1)
0x2a0|                           01                  |         .      |      [4]: 1 standard_wall_indicator (valid) 0x2a9-0x2aa (1)
0x2a0|                              01               |          .     |      [5]: 1 standard_wall_indicator (valid) 0x2aa-0x2ab (1)
0x2a0|                                 01            |           .    |      [6]: 1 standard_wall_indicator (valid) 0x2ab-0x2ac (1)
0x2a0|                                    01         |            .   |      [7]: 1 standard_wall_indicator (valid) 0x2ac-0x2ad (1)
0x2a0|                                       01      |             .  |      [8]: 1 standard_wall_indicator (valid) 0x2ad-0x2ae (1)
0x2a0|                                          01   |              . |      [9]: 1 standard_wall_indicator (valid) 0x2ae-0x2af (1)
0x2a0|                                             00|               .|      [10]: 0 standard_wall_indicator (valid) 0x2af-0x2b0 (1)
     |                                               |                |    ut_local_indicators[0:0]: 0x2b0-0x2b0 (0)
     |                                               |                |  v2plusheader{}: 0x2b0-0x2dc (44)
0x2b0|54 5a 69 66                                    |TZif            |    magic: 0x545a6966 (valid) 0x2b0-0x2b4 (4)
0x2b0|            32                                 |    2           |    ver: "2" (0x32) (valid) 0x2b4-0x2b5 (1)
0x2b0|               00 00 00 00 00 00 00 00 00 00 00|     ...........|    reserved: raw bits 0x2b5-0x2c4 (15)
0x2c0|00 00 00 00                                    |....            |
0x2c0|            00 00 00 00                        |    ....        |    isutcnt: 0 0x2c4-0x2c8 (4)
0x2c0|                        00 00 00 0b            |        ....    |    isstdcnt: 11 0x2c8-0x2cc (4)
0x2c0|                                    00 00 00 1b|            ....|    leapcnt: 27 0x2cc-0x2d0 (4)
0x2d0|00 00 00 43                                    |...C            |    timecnt: 67 0x2d0-0x2d4 (4)
0x2d0|            00 00 00 0b                        |    ....        |    typecnt: 11 0x2d4-0x2d8 (4)
0x2d0|                        00 00 00 10            |        ....    |    charcnt: 16 0x2d8-0x2dc (4)
     |                                               |                |  v2plusdatablock{}: 0x2dc-0x6d8 (1020)
     |                                               |                |    transition_times[0:67]: 0x2dc-0x4f4 (536)
0x2d0|                                    ff ff ff ff|            ....|      [0]: "1919-12-14T16:26:08Z" (-1579419232) transition_time 0x2dc-0x2e4 (8)
0x2e0|a1 db f9 a0                                    |....            |
0x2e0|            ff ff ff ff b5 a3 c5 00            |    ........    |      [1]: "1930-06-20T16:00:00Z" (-1247558400) transition_time 0x2e4-0x2ec (8)
0x2e0|                                    00 00 00 00|            ....|      [2]: "1981-03-31T15:00:09Z" (354898809) transition_time 0x2ec-0x2f4 (8)
0x2f0|15 27 53 79                                    |.'Sy            |
0x2f0|            00 00 00 00 16 18 87 ea            |    ........    |      [3]: "1981-09-30T14:00:10Z" (370706410) transition_time 0x2f4-0x2fc (8)
0x2f0|                                    00 00 00 00|            ....|      [4]: "1982-03-31T15:00:10Z" (386434810) transition_time 0x2fc-0x304 (8)
0x300|17 08 86 fa                                    |....            |
0x300|            00 00 00 00 17 f9 bb 6b            |    .......k    |      [5]: "1982-09-30T14:00:11Z" (402242411) transition_time 0x304-0x30c (8)
0x300|                                    00 00 00 00|            ....|      [6]: "1983-03-31T15:00:11Z" (417970811) transition_time 0x30c-0x314 (8)
0x310|18 e9 ba 7b                                    |...{            |
0x310|            00 00 00 00 19 da ee ec            |    ........    |      [7]: "1983-09-30T14:00:12Z" (433778412) transition_time 0x314-0x31c (8)
0x310|                                    00 00 00 00|            ....|      [8]: "1984-03-31T15:00:12Z" (449593212) transition_time 0x31c-0x324 (8)
0x320|1a cc 3f 7c                                    |..?|            |
0x320|            00 00 00 00 1b bc 4c 9c            |    ......L.    |      [9]: "1984-09-29T17:00:12Z" (465325212) transition_time 0x324-0x32c (8)
0x320|                                    00 00 00 00|            ....|      [10]: "1985-03-30T17:00:12Z" (481050012) transition_time 0x32c-0x334 (8)
0x330|1c ac 3d 9c                                    |..=.            |
0x330|            00 00 00 00 1d 9c 2e 9d            |    ........    |      [11]: "1985-09-28T17:00:13Z" (496774813) transition_time 0x334-0x33c (8)
0x330|                                    00 00 00 00|            ....|      [12]: "1986-03-29T17:00:13Z" (512499613) transition_time 0x33c-0x344 (8)
0x340|1e 8c 1f 9d                                    |....            |
0x340|            00 00 00 00 1f 7c 10 9d            |    .....|..    |      [13]: "1986-09-27T17:00:13Z" (528224413) transition_time 0x344-0x34c (8)
0x340|                                    00 00 00 00|            ....|      [14]: "1987-03-28T17:00:13Z" (543949213) transition_time 0x34c-0x354 (8)
0x350|20 6c 01 9d                                    | l..            |
0x350|            00 00 00 00 21 5b f2 9d            |    ....![..    |      [15]: "1987-09-26T17:00:13Z" (559674013) transition_time 0x354-0x35c (8)
0x350|                                    00 00 00 00|            ....|      [16]: "1988-03-26T17:00:14Z" (575398814) transition_time 0x35c-0x364 (8)
0x360|22 4b e3 9e                                    |"K..            |
0x360|            00 00 00 00 23 3b d4 9e            |    ....#;..    |      [17]: "1988-09-24T17:00:14Z" (591123614) transition_time 0x364-0x36c (8)
0x360|                                    00 00 00 00|            ....|      [18]: "1989-03-25T17:00:14Z" (606848414) transition_time 0x36c-0x374 (8)
0x370|24 2b c5 9e                                    |$+..            |
0x370|            00 00 00 00 25 1b b6 9e            |    ....%...    |      [19]: "1989-09-23T17:00:14Z" (622573214) transition_time 0x374-0x37c (8)
0x370|                                    00 00 00 00|            ....|      [20]: "1990-03-24T17:00:15Z" (638298015) transition_time 0x37c-0x384 (8)
0x380|26 0b a7 9f                                    |&...            |
0x380|            00 00 00 00 27 04 d3 1f            |    ....'...    |      [21]: "1990-09-29T17:00:15Z" (654627615) transition_time 0x384-0x38c (8)
0x380|                                    00 00 00 00|            ....|      [22]: "1991-03-30T17:00:16Z" (670352416) transition_time 0x38c-0x394 (8)
0x390|27 f4 c4 20                                    |'..             |
0x390|            00 00 00 00 28 e4 c3 30            |    ....(..0    |      [23]: "1991-09-28T18:00:16Z" (686080816) transition_time 0x394-0x39c (8)
0x390|                                    00 00 00 00|            ....|      [24]: "1992-01-18T18:00:16Z" (695757616) transition_time 0x39c-0x3a4 (8)
0x3a0|29 78 6b 30                                    |)xk0            |
0x3a0|            00 00 00 00 29 d4 a6 20            |    ....)..     |      [25]: "1992-03-28T17:00:16Z" (701802016) transition_time 0x3a4-0x3ac (8)
0x3a0|                                    00 00 00 00|            ....|      [26]: "1992-09-26T17:00:17Z" (717526817) transition_time 0x3ac-0x3b4 (8)
0x3b0|2a c4 97 21                                    |*..!            |
0x3b0|            00 00 00 00 2b b4 88 21            |    ....+..!    |      [27]: "1993-03-27T17:00:17Z" (733251617) transition_time 0x3b4-0x3bc (8)
0x3b0|                                    00 00 00 00|            ....|      [28]: "1993-09-25T17:00:18Z" (748976418) transition_time 0x3bc-0x3c4 (8)
0x3c0|2c a4 79 22                                    |,.y"            |
0x3c0|            00 00 00 00 2d 94 6a 22            |    ....-.j"    |      [29]: "1994-03-26T17:00:18Z" (764701218) transition_time 0x3c4-0x3cc (8)
0x3c0|                                    00 00 00 00|            ....|      [30]: "1994-09-24T17:00:19Z" (780426019) transition_time 0x3cc-0x3d4 (8)
0x3d0|2e 84 5b 23                                    |..[#            |
0x3d0|            00 00 00 00 2f 74 4c 23            |    ..../tL#    |      [31]: "1995-03-25T17:00:19Z" (796150819) transition_time 0x3d4-0x3dc (8)
0x3d0|                                    00 00 00 00|            ....|      [32]: "1995-09-23T17:00:19Z" (811875619) transition_time 0x3dc-0x3e4 (8)
0x3e0|30 64 3d 23                                    |0d=#            |
0x3e0|            00 00 00 00 31 5d 68 a4            |    ....1]h.    |      [33]: "1996-03-30T17:00:20Z" (828205220) transition_time 0x3e4-0x3ec (8)
0x3e0|                                    00 00 00 00|            ....|      [34]: "1996-10-26T17:00:20Z" (846349220) transition_time 0x3ec-0x3f4 (8)
0x3f0|32 72 43 a4                                    |2rC.            |
0x3f0|            00 00 00 00 33 3d 4a a4            |    ....3=J.    |      [35]: "1997-03-29T17:00:20Z" (859654820) transition_time 0x3f4-0x3fc (8)
0x3f0|                                    00 00 00 00|            ....|      [36]: "1997-10-25T17:00:21Z" (877798821) transition_time 0x3fc-0x404 (8)
0x400|34 52 25 a5                                    |4R%.            |
0x400|            00 00 00 00 35 1d 2c a5            |    ....5.,.    |      [37]: "1998-03-28T17:00:21Z" (891104421) transition_time 0x404-0x40c (8)
0x400|                                    00 00 00 00|            ....|      [38]: "1998-10-24T17:00:21Z" (909248421) transition_time 0x40c-0x414 (8)
0x410|36 32 07 a5                                    |62..            |
0x410|            00 00 00 00 36 fd 0e a6            |    ....6...    |      [39]: "1999-03-27T17:00:22Z" (922554022) transition_time 0x414-0x41c (8)
0x410|                                    00 00 00 00|            ....|      [40]: "1999-10-30T17:00:22Z" (941302822) transition_time 0x41c-0x424 (8)
0x420|38 1b 24 26                                    |8.$&            |
0x420|            00 00 00 00 38 dc f0 a6            |    ....8...    |      [41]: "2000-03-25T17:00:22Z" (954003622) transition_time 0x424-0x42c (8)
0x420|                                    00 00 00 00|            ....|      [42]: "2000-10-28T17:00:22Z" (972752422) transition_time 0x42c-0x434 (8)
0x430|39 fb 06 26                                    |9..&            |
0x430|            00 00 00 00 3a bc d2 a6            |    ....:...    |      [43]: "2001-03-24T17:00:22Z" (985453222) transition_time 0x434-0x43c (8)
0x430|                                    00 00 00 00|            ....|      [44]: "2001-10-27T17:00:22Z" (1004202022) transition_time 0x43c-0x444 (8)
0x440|3b da e8 26                                    |;..&            |
0x440|            00 00 00 00 3c a5 ef 26            |    ....<..&    |      [45]: "2002-03-30T17:00:22Z" (1017507622) transition_time 0x444-0x44c (8)
0x440|                                    00 00 00 00|            ....|      [46]: "2002-10-26T17:00:22Z" (1035651622) transition_time 0x44c-0x454 (8)
0x450|3d ba ca 26                                    |=..&            |
0x450|            00 00 00 00 3e 85 d1 26            |    ....>..&    |      [47]: "2003-03-29T17:00:22Z" (1048957222) transition_time 0x454-0x45c (8)
0x450|                                    00 00 00 00|            ....|      [48]: "2003-10-25T17:00:22Z" (1067101222) transition_time 0x45c-0x464 (8)
0x460|3f 9a ac 26                                    |?..&            |
0x460|            00 00 00 00 40 65 b3 26            |    ....@e.&    |      [49]: "2004-03-27T17:00:22Z" (1080406822) transition_time 0x464-0x46c (8)
0x460|                                    00 00 00 00|            ....|      [50]: "2004-10-30T17:00:22Z" (1099155622) transition_time 0x46c-0x474 (8)
0x470|41 83 c8 a6                                    |A...            |
0x470|            00 00 00 00 42 45 95 26            |    ....BE.&    |      [51]: "2005-03-26T17:00:22Z" (1111856422) transition_time 0x474-0x47c (8)
0x470|                                    00 00 00 00|            ....|      [52]: "2005-10-29T17:00:22Z" (1130605222) transition_time 0x47c-0x484 (8)
0x480|43 63 aa a6                                    |Cc..            |
0x480|            00 00 00 00 44 25 77 27            |    ....D%w'    |      [53]: "2006-03-25T17:00:23Z" (1143306023) transition_time 0x484-0x48c (8)
0x480|                                    00 00 00 00|            ....|      [54]: "2006-10-28T17:00:23Z" (1162054823) transition_time 0x48c-0x494 (8)
0x490|45 43 8c a7                                    |EC..            |
0x490|            00 00 00 00 46 05 59 27            |    ....F.Y'    |      [55]: "2007-03-24T17:00:23Z" (1174755623) transition_time 0x494-0x49c (8)
0x490|                                    00 00 00 00|            ....|      [56]: "2007-10-27T17:00:23Z" (1193504423) transition_time 0x49c-0x4a4 (8)
0x4a0|47 23 6e a7                                    |G#n.            |
0x4a0|            00 00 00 00 47 ee 75 a7            |    ....G.u.    |      [57]: "2008-03-29T17:00:23Z" (1206810023) transition_time 0x4a4-0x4ac (8)
0x4a0|                                    00 00 00 00|            ....|      [58]: "2008-10-25T17:00:23Z" (1224954023) transition_time 0x4ac-0x4b4 (8)
0x4b0|49 03 50 a7                                    |I.P.            |
0x4b0|            00 00 00 00 49 ce 57 a8            |    ....I.W.    |      [59]: "2009-03-28T17:00:24Z" (1238259624) transition_time 0x4b4-0x4bc (8)
0x4b0|                                    00 00 00 00|            ....|      [60]: "2009-10-24T17:00:24Z" (1256403624) transition_time 0x4bc-0x4c4 (8)
0x4c0|4a e3 32 a8                                    |J.2.            |
0x4c0|            00 00 00 00 4b ae 39 a8            |    ....K.9.    |      [61]: "2010-03-27T17:00:24Z" (1269709224) transition_time 0x4c4-0x4cc (8)
0x4c0|                                    00 00 00 00|            ....|      [62]: "2010-10-30T17:00:24Z" (1288458024) transition_time 0x4cc-0x4d4 (8)
0x4d0|4c cc 4f 28                                    |L.O(            |
0x4d0|            00 00 00 00 4d 8e 1b a8            |    ....M...    |      [63]: "2011-03-26T17:00:24Z" (1301158824) transition_time 0x4d4-0x4dc (8)
0x4d0|                                    00 00 00 00|            ....|      [64]: "2014-10-25T16:00:25Z" (1414252825) transition_time 0x4dc-0x4e4 (8)
0x4e0|54 4b c9 19                                    |TK..            |
0x4e0|            00 00 00 00 56 f6 ce 3a            |    ....V..:    |      [65]: "2016-03-26T18:00:26Z" (1459015226) transition_time 0x4e4-0x4ec (8)
0x4e0|                                    00 00 00 00|            ....|      [66]: "2023-06-28T00:00:27Z" (1687910427) transition_time 0x4ec-0x4f4 (8)
0x4f0|64 9b 78 1b                                    |d.x.            |
     |                                               |                |    transition_types[0:67]: 0x4f4-0x537 (67)
0x4f0|            01                                 |    .           |      [0]: 1 transition_type 0x4f4-0x4f5 (1)
0x4f0|               03                              |     .          |      [1]: 3 transition_type 0x4f5-0x4f6 (1)
0x4f0|                  02                           |      .         |      [2]: 2 transition_type 0x4f6-0x4f7 (1)
0x4f0|                     03                        |       .        |      [3]: 3 transition_type 0x4f7-0x4f8 (1)
0x4f0|                        02                     |        .       |      [4]: 2 transition_type 0x4f8-0x4f9 (1)
0x4f0|                           03                  |         .      |      [5]: 3 transition_type 0x4f9-0x4fa (1)
0x4f0|                              02               |          .     |      [6]: 2 transition_type 0x4fa-0x4fb (1)
0x4f0|                                 03            |           .    |      [7]: 3 transition_type 0x4fb-0x4fc (1)
0x4f0|                                    02         |            .   |      [8]: 2 transition_type 0x4fc-0x4fd (1)
0x4f0|                                       04      |             .  |      [9]: 4 transition_type 0x4fd-0x4fe (1)
0x4f0|                                          05   |              . |      [10]: 5 transition_type 0x4fe-0x4ff (1)
0x4f0|                                             04|               .|      [11]: 4 transition_type 0x4ff-0x500 (1)
0x500|05                                             |.               |      [12]: 5 transition_type 0x500-0x501 (1)
0x500|   04                                          | .              |      [13]: 4 transition_type 0x501-0x502 (1)
0x500|      05                                       |  .             |      [14]: 5 transition_type 0x502-0x503 (1)
0x500|         04                                    |   .            |      [15]: 4 transition_type 0x503-0x504 (1)
0x500|            05                                 |    .           |      [16]: 5 transition_type 0x504-0x505 (1)
0x500|               04                              |     .          |      [17]: 4 transition_type 0x505-0x506 (1)
0x500|                  05                           |      .         |      [18]: 5 transition_type 0x506-0x507 (1)
0x500|                     04                        |       .        |      [19]: 4 transition_type 0x507-0x508 (1)
0x500|                        05                     |        .       |      [20]: 5 transition_type 0x508-0x509 (1)
0x500|                           04                  |         .      |      [21]: 4 transition_type 0x509-0x50a (1)
0x500|                              06               |          .     |      [22]: 6 transition_type 0x50a-0x50b (1)
0x500|                                 07            |           .    |      [23]: 7 transition_type 0x50b-0x50c (1)
0x500|                                    04         |            .   |      [24]: 4 transition_type 0x50c-0x50d (1)
0x500|                                       05      |             .  |      [25]: 5 transition_type 0x50d-0x50e (1)
0x500|                                          04   |              . |      [26]: 4 transition_type 0x50e-0x50f (1)
0x500|                                             05|               .|      [27]: 5 transition_type 0x50f-0x510 (1)
0x510|04                                             |.               |      [28]: 4 transition_type 0x510-0x511 (1)
0x510|   05                                          | .              |      [29]: 5 transition_type 0x511-0x512 (1)
0x510|      04                                       |  .             |      [30]: 4 transition_type 0x512-0x513 (1)
0x510|         05                                    |   .            |      [31]: 5 transition_type 0x513-0x514 (1)
0x510|            04                                 |    .           |      [32]: 4 transition_type 0x514-0x515 (1)
0x510|               05                              |     .          |      [33]: 5 transition_type 0x515-0x516 (1)
0x510|                  04                           |      .         |      [34]: 4 transition_type 0x516-0x517 (1)
0x510|                     05                        |       .        |      [35]: 5 transition_type 0x517-0x518 (1)
0x510|                        04                     |        .       |      [36]: 4 transition_type 0x518-0x519 (1)
0x510|                           05                  |         .      |      [37]: 5 transition_type 0x519-0x51a (1)
0x510|                              04               |          .     |      [38]: 4 transition_type 0x51a-0x51b (1)
0x510|                                 05            |           .    |      [39]: 5 transition_type 0x51b-0x51c (1)
0x510|                                    04         |            .   |      [40]: 4 transition_type 0x51c-0x51d (1)
0x510|                                       05      |             .  |      [41]: 5 transition_type 0x51d-0x51e (1)
0x510|                                          04   |              . |      [42]: 4 transition_type 0x51e-0x51f (1)
0x510|                                             05|               .|      [43]: 5 transition_type 0x51f-0x520 (1)
0x520|04                                             |.               |      [44]: 4 transition_type 0x520-0x521 (1)
0x520|   05                                          | .              |      [45]: 5 transition_type 0x521-0x522 (1)
0x520|      04                                       |  .             |      [46]: 4 transition_type 0x522-0x523 (1)
0x520|         05                                    |   .            |      [47]: 5 transition_type 0x523-0x524 (1)
0x520|            04                                 |    .           |      [48]: 4 transition_type 0x524-0x525 (1)
0x520|               05                              |     .          |      [49]: 5 transition_type 0x525-0x526 (1)
0x520|                  04                           |      .         |      [50]: 4 transition_type 0x526-0x527 (1)
0x520|                     05                        |       .        |      [51]: 5 transition_type 0x527-0x528 (1)
0x520|                        04                     |        .       |      [52]: 4 transition_type 0x528-0x529 (1)
0x520|                           05                  |         .      |      [53]: 5 transition_type 0x529-0x52a (1)
0x520|                              04               |          .     |      [54]: 4 transition_type 0x52a-0x52b (1)
0x520|                                 05            |           .    |      [55]: 5 transition_type 0x52b-0x52c (1)
0x520|                                    04         |            .   |      [56]: 4 transition_type 0x52c-0x52d (1)
0x520|                                       05      |             .  |      [57]: 5 transition_type 0x52d-0x52e (1)
0x520|                                          04   |              . |      [58]: 4 transition_type 0x52e-0x52f (1)
0x520|                                             05|               .|      [59]: 5 transition_type 0x52f-0x530 (1)
0x530|04                                             |.               |      [60]: 4 transition_type 0x530-0x531 (1)
0x530|   05                                          | .              |      [61]: 5 transition_type 0x531-0x532 (1)
0x530|      04                                       |  .             |      [62]: 4 transition_type 0x532-0x533 (1)
0x530|         08                                    |   .            |      [63]: 8 transition_type 0x533-0x534 (1)
0x530|            07                                 |    .           |      [64]: 7 transition_type 0x534-0x535 (1)
0x530|               03                              |     .          |      [65]: 3 transition_type 0x535-0x536 (1)
0x530|                  03                           |      .         |      [66]: 3 transition_type 0x536-0x537 (1)
     |                                               |                |    local_time_type_records[0:11]: 0x537-0x579 (66)
     |                                               |                |      [0]{}: local_time_type 0x537-0x53d (6)
0x530|                     00 00 6a 60               |       ..j`     |        utoff: 27232 (valid) 0x537-0x53b (4)
0x530|                                 00            |           .    |        dst: 0 (valid) 0x53b-0x53c (1)
0x530|                                    00         |            .   |        idx: 0 (valid) 0x53c-0x53d (1)
     |                                               |                |      [1]{}: local_time_type 0x53d-0x543 (6)
0x530|                                       00 00 70|             ..p|        utoff: 28800 (valid) 0x53d-0x541 (4)
0x540|80                                             |.               |
0x540|   00                                          | .              |        dst: 0 (valid) 0x541-0x542 (1)
0x540|      04                                       |  .             |        idx: 4 (valid) 0x542-0x543 (1)
     |                                               |                |      [2]{}: local_time_type 0x543-0x549 (6)
0x540|         00 00 8c a0                           |   ....         |        utoff: 36000 (valid) 0x543-0x547 (4)
0x540|                     01                        |       .        |        dst: 1 (valid) 0x547-0x548 (1)
0x540|                        08                     |        .       |        idx: 8 (valid) 0x548-0x549 (1)
     |                                               |                |      [3]{}: local_time_type 0x549-0x54f (6)
0x540|                           00 00 7e 90         |         ..~.   |        utoff: 32400 (valid) 0x549-0x54d (4)
0x540|                                       00      |             .  |        dst: 0 (valid) 0x54d-0x54e (1)
0x540|                                          0c   |              . |        idx: 12 (valid) 0x54e-0x54f (1)
     |                                               |                |      [4]{}: local_time_type 0x54f-0x555 (6)
0x540|                                             00|               .|        utoff: 32400 (valid) 0x54f-0x553 (4)
0x550|00 7e 90                                       |.~.             |
0x550|         00                                    |   .            |        dst: 0 (valid) 0x553-0x554 (1)
0x550|            0c                                 |    .           |        idx: 12 (valid) 0x554-0x555 (1)
     |                                               |                |      [5]{}: local_time_type 0x555-0x55b (6)
0x550|               00 00 8c a0                     |     ....       |        utoff: 36000 (valid) 0x555-0x559 (4)
0x550|                           01                  |         .      |        dst: 1 (valid) 0x559-0x55a (1)
0x550|                              08               |          .     |        idx: 8 (valid) 0x55a-0x55b (1)
     |                                               |                |      [6]{}: local_time_type 0x55b-0x561 (6)
0x550|                                 00 00 7e 90   |           ..~. |        utoff: 32400 (valid) 0x55b-0x55f (4)
0x550|                                             01|               .|        dst: 1 (valid) 0x55f-0x560 (1)
0x560|0c                                             |.               |        idx: 12 (valid) 0x560-0x561 (1)
     |                                               |                |      [7]{}: local_time_type 0x561-0x567 (6)
0x560|   00 00 70 80                                 | ..p.           |        utoff: 28800 (valid) 0x561-0x565 (4)
0x560|               00                              |     .          |        dst: 0 (valid) 0x565-0x566 (1)
0x560|                  04                           |      .         |        idx: 4 (valid) 0x566-0x567 (1)
     |                                               |                |      [8]{}: local_time_type 0x567-0x56d (6)
0x560|                     00 00 8c a0               |       ....     |        utoff: 36000 (valid) 0x567-0x56b (4)
0x560|                                 00            |           .    |        dst: 0 (valid) 0x56b-0x56c (1)
0x560|                                    08         |            .   |        idx: 8 (valid) 0x56c-0x56d (1)
     |                                               |                |      [9]{}: local_time_type 0x56d-0x573 (6)
0x560|                                       00 00 8c|             ...|        utoff: 36000 (valid) 0x56d-0x571 (4)
0x570|a0                                             |.               |
0x570|   01                                          | .              |        dst: 1 (valid) 0x571-0x572 (1)
0x570|      08                                       |  .             |        idx: 8 (valid) 0x572-0x573 (1)
     |                                               |                |      [10]{}: local_time_type 0x573-0x579 (6)
0x570|         00 00 7e 90                           |   ..~.         |        utoff: 32400 (valid) 0x573-0x577 (4)
0x570|                     00                        |       .        |        dst: 0 (valid) 0x577-0x578 (1)
0x570|                        0c                     |        .       |        idx: 12 (valid) 0x578-0x579 (1)
     |                                               |                |    time_zone_designations[0:4]: 0x579-0x589 (16)
0x570|                           4c 4d 54 00         |         LMT.   |      [0]: "LMT" time_zone_designation 0x579-0x57d (4)
0x570|                                       2b 30 38|             +08|      [1]: "+08" time_zone_designation 0x57d-0x581 (4)
0x580|00                                             |.               |
0x580|   2b 31 30 00                                 | +10.           |      [2]: "+10" time_zone_designation 0x581-0x585 (4)
0x580|               2b 30 39 00                     |     +09.       |      [3]: "+09" time_zone_designation 0x585-0x589 (4)
     |                                               |                |    leap_second_records[0:27]: 0x589-0x6cd (324)
     |                                               |                |      [0]{}: leap_second_record 0x589-0x595 (12)
0x580|                           00 00 00 00 04 b2 58|         ......X|        occur: "1972-07-01T00:00:00Z" (78796800) 0x589-0x591 (8)
0x590|00                                             |.               |
0x590|   00 00 00 01                                 | ....           |        corr: 1 0x591-0x595 (4)
     |                                               |                |      [1]{}: leap_second_record 0x595-0x5a1 (12)
0x590|               00 00 00 00 05 a4 ec 01         |     ........   |        occur: "1973-01-01T00:00:01Z" (94694401) 0x595-0x59d (8)
0x590|                                       00 00 00|             ...|        corr: 2 0x59d-0x5a1 (4)
0x5a0|02                                             |.               |
     |                                               |                |      [2]{}: leap_second_record 0x5a1-0x5ad (12)
0x5a0|   00 00 00 00 07 86 1f 82                     | ........       |        occur: "1974-01-01T00:00:02Z" (126230402) 0x5a1-0x5a9 (8)
0x5a0|                           00 00 00 03         |         ....   |        corr: 3 0x5a9-0x5ad (4)
     |                                               |                |      [3]{}: leap_second_record 0x5ad-0x5b9 (12)
0x5a0|                                       00 00 00|             ...|        occur: "1975-01-01T00:00:03Z" (157766403) 0x5ad-0x5b5 (8)
0x5b0|00 09 67 53 03                                 |..gS.           |
0x5b0|               00 00 00 04                     |     ....       |        corr: 4 0x5b5-0x5b9 (4)
     |                                               |                |      [4]{}: leap_second_record 0x5b9-0x5c5 (12)
0x5b0|                           00 00 00 00 0b 48 86|         .....H.|        occur: "1976-01-01T00:00:04Z" (189302404) 0x5b9-0x5c1 (8)
0x5c0|84                                             |.               |
0x5c0|   00 00 00 05                                 | ....           |        corr: 5 0x5c1-0x5c5 (4)
     |                                               |                |      [5]{}: leap_second_record 0x5c5-0x5d1 (12)
0x5c0|               00 00 00 00 0d 2b 0b 85         |     .....+..   |        occur: "1977-01-01T00:00:05Z" (220924805) 0x5c5-0x5cd (8)
0x5c0|                                       00 00 00|             ...|        corr: 6 0x5cd-0x5d1 (4)
0x5d0|06                                             |.               |
     |                                               |                |      [6]{}: leap_second_record 0x5d1-0x5dd (12)
0x5d0|   00 00 00 00 0f 0c 3f 06                     | ......?.       |        occur: "1978-01-01T00:00:06Z" (252460806) 0x5d1-0x5d9 (8)
0x5d0|                           00 00 00 07         |         ....   |        corr: 7 0x5d9-0x5dd (4)
     |                                               |                |      [7]{}: leap_second_record 0x5dd-0x5e9 (12)
0x5d0|                                       00 00 00|             ...|        occur: "1979-01-01T00:00:07Z" (283996807) 0x5dd-0x5e5 (8)
0x5e0|00 10 ed 72 87                                 |...r.           |
0x5e0|               00 00 00 08                     |     ....       |        corr: 8 0x5e5-0x5e9 (4)
     |                                               |                |      [8]{}: leap_second_record 0x5e9-0x5f5 (12)
0x5e0|                           00 00 00 00 12 ce a6|         .......|        occur: "1980-01-01T00:00:08Z" (315532808) 0x5e9-0x5f1 (8)
0x5f0|08                                             |.               |
0x5f0|   00 00 00 09                                 | ....           |        corr: 9 0x5f1-0x5f5 (4)
     |                                               |                |      [9]{}: leap_second_record 0x5f5-0x601 (12)
0x5f0|               00 00 00 00 15 9f ca 89         |     ........   |        occur: "1981-07-01T00:00:09Z" (362793609) 0x5f5-0x5fd (8)
0x5f0|                                       00 00 00|             ...|        corr: 10 0x5fd-0x601 (4)
0x600|0a                                             |.               |
     |                                               |                |      [10]{}: leap_second_record 0x601-0x60d (12)
0x600|   00 00 00 00 17 80 fe 0a                     | ........       |        occur: "1982-07-01T00:00:10Z" (394329610) 0x601-0x609 (8)
0x600|                           00 00 00 0b         |         ....   |        corr: 11 0x609-0x60d (4)
     |                                               |                |      [11]{}: leap_second_record 0x60d-0x619 (12)
0x600|                                       00 00 00|             ...|        occur: "1983-07-01T00:00:11Z" (425865611) 0x60d-0x615 (8)
0x610|00 19 62 31 8b                                 |..b1.           |
0x610|               00 00 00 0c                     |     ....       |        corr: 12 0x615-0x619 (4)
     |                                               |                |      [12]{}: leap_second_record 0x619-0x625 (12)
0x610|                           00 00 00 00 1d 25 ea|         .....%.|        occur: "1985-07-01T00:00:12Z" (489024012) 0x619-0x621 (8)
0x620|0c                                             |.               |
0x620|   00 00 00 0d                                 | ....           |        corr: 13 0x621-0x625 (4)
     |                                               |                |      [13]{}: leap_second_record 0x625-0x631 (12)
0x620|               00 00 00 00 21 da e5 0d         |     ....!...   |        occur: "1988-01-01T00:00:13Z" (567993613) 0x625-0x62d (8)
0x620|                                       00 00 00|             ...|        corr: 14 0x62d-0x631 (4)
0x630|0e                                             |.               |
     |                                               |                |      [14]{}: leap_second_record 0x631-0x63d (12)
0x630|   00 00 00 00 25 9e 9d 8e                     | ....%...       |        occur: "1990-01-01T00:00:14Z" (631152014) 0x631-0x639 (8)
0x630|                           00 00 00 0f         |         ....   |        corr: 15 0x639-0x63d (4)
     |                                               |                |      [15]{}: leap_second_record 0x63d-0x649 (12)
0x630|                                       00 00 00|             ...|        occur: "1991-01-01T00:00:15Z" (662688015) 0x63d-0x645 (8)
0x640|00 27 7f d1 0f                                 |.'...           |
0x640|               00 00 00 10                     |     ....       |        corr: 16 0x645-0x649 (4)
     |                                               |                |      [16]{}: leap_second_record 0x649-0x655 (12)
0x640|                           00 00 00 00 2a 50 f5|         ....*P.|        occur: "1992-07-01T00:00:16Z" (709948816) 0x649-0x651 (8)
0x650|90                                             |.               |
0x650|   00 00 00 11                                 | ....           |        corr: 17 0x651-0x655 (4)
     |                                               |                |      [17]{}: leap_second_record 0x655-0x661 (12)
0x650|               00 00 00 00 2c 32 29 11         |     ....,2).   |        occur: "1993-07-01T00:00:17Z" (741484817) 0x655-0x65d (8)
0x650|                                       00 00 00|             ...|        corr: 18 0x65d-0x661 (4)
0x660|12                                             |.               |
     |                                               |                |      [18]{}: leap_second_record 0x661-0x66d (12)
0x660|   00 00 00 00 2e 13 5c 92                     | ......\.       |        occur: "1994-07-01T00:00:18Z" (773020818) 0x661-0x669 (8)
0x660|                           00 00 00 13         |         ....   |        corr: 19 0x669-0x66d (4)
     |                                               |                |      [19]{}: leap_second_record 0x66d-0x679 (12)
0x660|                                       00 00 00|             ...|        occur: "1996-01-01T00:00:19Z" (820454419) 0x66d-0x675 (8)
0x670|00 30 e7 24 13                                 |.0.$.           |
0x670|               00 00 00 14                     |     ....       |        corr: 20 0x675-0x679 (4)
     |                                               |                |      [20]{}: leap_second_record 0x679-0x685 (12)
0x670|                           00 00 00 00 33 b8 48|         ....3.H|        occur: "1997-07-01T00:00:20Z" (867715220) 0x679-0x681 (8)
0x680|94                                             |.               |
0x680|   00 00 00 15                                 | ....           |        corr: 21 0x681-0x685 (4)
     |                                               |                |      [21]{}: leap_second_record 0x685-0x691 (12)
0x680|               00 00 00 00 36 8c 10 15         |     ....6...   |        occur: "1999-01-01T00:00:21Z" (915148821) 0x685-0x68d (8)
0x680|                                       00 00 00|             ...|        corr: 22 0x68d-0x691 (4)
0x690|16                                             |.               |
     |                                               |                |      [22]{}: leap_second_record 0x691-0x69d (12)
0x690|   00 00 00 00 43 b7 1b 96                     | ....C...       |        occur: "2006-01-01T00:00:22Z" (1136073622) 0x691-0x699 (8)
0x690|                           00 00 00 17         |         ....   |        corr: 23 0x699-0x69d (4)
     |                                               |                |      [23]{}: leap_second_record 0x69d-0x6a9 (12)
0x690|                                       00 00 00|             ...|        occur: "2009-01-01T00:00:23Z" (1230768023) 0x69d-0x6a5 (8)
0x6a0|00 49 5c 07 97                                 |.I\..           |
0x6a0|               00 00 00 18                     |     ....       |        corr: 24 0x6a5-0x6a9 (4)
     |                                               |                |      [24]{}: leap_second_record 0x6a9-0x6b5 (12)
0x6a0|                           00 00 00 00 4f ef 93|         ....O..|        occur: "2012-07-01T00:00:24Z" (1341100824) 0x6a9-0x6b1 (8)
0x6b0|18                                             |.               |
0x6b0|   00 00 00 19                                 | ....           |        corr: 25 0x6b1-0x6b5 (4)
     |                                               |                |      [25]{}: leap_second_record 0x6b5-0x6c1 (12)
0x6b0|               00 00 00 00 55 93 2d 99         |     ....U.-.   |        occur: "2015-07-01T00:00:25Z" (1435708825) 0x6b5-0x6bd (8)
0x6b0|                                       00 00 00|             ...|        corr: 26 0x6bd-0x6c1 (4)
0x6c0|1a                                             |.               |
     |                                               |                |      [26]{}: leap_second_record 0x6c1-0x6cd (12)
0x6c0|   00 00 00 00 58 68 46 9a                     | ....XhF.       |        occur: "2017-01-01T00:00:26Z" (1483228826) 0x6c1-0x6c9 (8)
0x6c0|                           00 00 00 1b         |         ....   |        corr: 27 0x6c9-0x6cd (4)
     |                                               |                |    standard_wall_indicators[0:11]: 0x6cd-0x6d8 (11)
0x6c0|                                       00      |             .  |      [0]: 0 standard_wall_indicator (valid) 0x6cd-0x6ce (1)
0x6c0|                                          00   |              . |      [1]: 0 standard_wall_indicator (valid) 0x6ce-0x6cf (1)
0x6c0|                                             00|               .|      [2]: 0 standard_wall_indicator (valid) 0x6cf-0x6d0 (1)
0x6d0|00                                             |.               |      [3]: 0 standard_wall_indicator (valid) 0x6d0-0x6d1 (1)
0x6d0|   01                                          | .              |      [4]: 1 standard_wall_indicator (valid) 0x6d1-0x6d2 (1)
0x6d0|      01                                       |  .             |      [5]: 1 standard_wall_indicator (valid) 0x6d2-0x6d3 (1)
0x6d0|         01                                    |   .            |      [6]: 1 standard_wall_indicator (valid) 0x6d3-0x6d4 (1)
0x6d0|            01                                 |    .           |      [7]: 1 standard_wall_indicator (valid) 0x6d4-0x6d5 (1)
0x6d0|               01                              |     .          |      [8]: 1 standard_wall_indicator (valid) 0x6d5-0x6d6 (1)
0x6d0|                  01                           |      .         |      [9]: 1 standard_wall_indicator (valid) 0x6d6-0x6d7 (1)
0x6d0|                     00                        |       .        |      [10]: 0 standard_wall_indicator (valid) 0x6d7-0x6d8 (1)
     |                                               |                |    ut_local_indicators[0:0]: 0x6d8-0x6d8 (0)
     |                                               |                |  footer{}: 0x6d8-0x6da (2)
0x6d0|                        0a                     |        .       |    nl1: 10 (valid) 0x6d8-0x6d9 (1)
     |                                               |                |    tz_string: "" 0x6d9-0x6d9 (0)
0x6d0|                           0a|                 |         .|     |    nl2: 10 (valid) 0x6d9-0x6da (1)
