$ fq -d tzif dv Choibalsan
     |00 01 02 03 04 05 06 07 08 09 0a 0b 0c 0d 0e 0f|0123456789abcdef|.{}: Choibalsan (tzif) 0x0-0x5c9.7 (1482)
     |                                               |                |  v1header{}: 0x0-0x2b.7 (44)
0x000|54 5a 69 66                                    |TZif            |    magic: 0x545a6966 (valid) 0x0-0x3.7 (4)
0x000|            32                                 |    2           |    ver: "2" (0x32) (valid) 0x4-0x4.7 (1)
0x000|               00 00 00 00 00 00 00 00 00 00 00|     ...........|    reserved: raw bits 0x5-0x13.7 (15)
0x010|00 00 00 00                                    |....            |
0x010|            00 00 00 00                        |    ....        |    isutcnt: 0 0x14-0x17.7 (4)
0x010|                        00 00 00 00            |        ....    |    isstdcnt: 0 0x18-0x1b.7 (4)
0x010|                                    00 00 00 1b|            ....|    leapcnt: 27 0x1c-0x1f.7 (4)
0x020|00 00 00 34                                    |...4            |    timecnt: 52 0x20-0x23.7 (4)
0x020|            00 00 00 07                        |    ....        |    typecnt: 7 0x24-0x27.7 (4)
0x020|                        00 00 00 14            |        ....    |    charcnt: 20 0x28-0x2b.7 (4)
     |                                               |                |  v1datablock{}: 0x2c-0x245.7 (538)
     |                                               |                |    transition_times[0:52]: 0x2c-0xfb.7 (208)
0x020|                                    86 d3 e7 28|            ...(|      [0]: "1905-07-31T16:22:00Z" (-2032933080) transition_time 0x2c-0x2f.7 (4)
0x030|0f 0b dc 96                                    |....            |      [1]: "1977-12-31T17:00:06Z" (252435606) transition_time 0x30-0x33.7 (4)
0x030|            18 e9 c8 8b                        |    ....        |      [2]: "1983-03-31T16:00:11Z" (417974411) transition_time 0x34-0x37.7 (4)
0x030|                        19 da ee ec            |        ....    |      [3]: "1983-09-30T14:00:12Z" (433778412) transition_time 0x38-0x3b.7 (4)
0x030|                                    1a cc 3f 7c|            ..?||      [4]: "1984-03-31T15:00:12Z" (449593212) transition_time 0x3c-0x3f.7 (4)
0x040|1b bc 22 6c                                    |.."l            |      [5]: "1984-09-29T14:00:12Z" (465314412) transition_time 0x40-0x43.7 (4)
0x040|            1c ac 21 7c                        |    ..!|        |      [6]: "1985-03-30T15:00:12Z" (481042812) transition_time 0x44-0x47.7 (4)
0x040|                        1d 9c 04 6d            |        ...m    |      [7]: "1985-09-28T14:00:13Z" (496764013) transition_time 0x48-0x4b.7 (4)
0x040|                                    1e 8c 03 7d|            ...}|      [8]: "1986-03-29T15:00:13Z" (512492413) transition_time 0x4c-0x4f.7 (4)
0x050|1f 7b e6 6d                                    |.{.m            |      [9]: "1986-09-27T14:00:13Z" (528213613) transition_time 0x50-0x53.7 (4)
0x050|            20 6b e5 7d                        |     k.}        |      [10]: "1987-03-28T15:00:13Z" (543942013) transition_time 0x54-0x57.7 (4)
0x050|                        21 5b c8 6d            |        ![.m    |      [11]: "1987-09-26T14:00:13Z" (559663213) transition_time 0x58-0x5b.7 (4)
0x050|                                    22 4b c7 7e|            "K.~|      [12]: "1988-03-26T15:00:14Z" (575391614) transition_time 0x5c-0x5f.7 (4)
0x060|23 3b aa 6e                                    |#;.n            |      [13]: "1988-09-24T14:00:14Z" (591112814) transition_time 0x60-0x63.7 (4)
0x060|            24 2b a9 7e                        |    $+.~        |      [14]: "1989-03-25T15:00:14Z" (606841214) transition_time 0x64-0x67.7 (4)
0x060|                        25 1b 8c 6e            |        %..n    |      [15]: "1989-09-23T14:00:14Z" (622562414) transition_time 0x68-0x6b.7 (4)
0x060|                                    26 0b 8b 7f|            &...|      [16]: "1990-03-24T15:00:15Z" (638290815) transition_time 0x6c-0x6f.7 (4)
0x070|27 04 a8 ef                                    |'...            |      [17]: "1990-09-29T14:00:15Z" (654616815) transition_time 0x70-0x73.7 (4)
0x070|            27 f4 a8 00                        |    '...        |      [18]: "1991-03-30T15:00:16Z" (670345216) transition_time 0x74-0x77.7 (4)
0x070|                        28 e4 8a f0            |        (...    |      [19]: "1991-09-28T14:00:16Z" (686066416) transition_time 0x78-0x7b.7 (4)
0x070|                                    29 d4 8a 00|            )...|      [20]: "1992-03-28T15:00:16Z" (701794816) transition_time 0x7c-0x7f.7 (4)
0x080|2a c4 6c f1                                    |*.l.            |      [21]: "1992-09-26T14:00:17Z" (717516017) transition_time 0x80-0x83.7 (4)
0x080|            2b b4 6c 01                        |    +.l.        |      [22]: "1993-03-27T15:00:17Z" (733244417) transition_time 0x84-0x87.7 (4)
0x080|                        2c a4 4e f2            |        ,.N.    |      [23]: "1993-09-25T14:00:18Z" (748965618) transition_time 0x88-0x8b.7 (4)
0x080|                                    2d 94 4e 02|            -.N.|      [24]: "1994-03-26T15:00:18Z" (764694018) transition_time 0x8c-0x8f.7 (4)
0x090|2e 84 30 f3                                    |..0.            |      [25]: "1994-09-24T14:00:19Z" (780415219) transition_time 0x90-0x93.7 (4)
0x090|            2f 74 30 03                        |    /t0.        |      [26]: "1995-03-25T15:00:19Z" (796143619) transition_time 0x94-0x97.7 (4)
0x090|                        30 64 12 f3            |        0d..    |      [27]: "1995-09-23T14:00:19Z" (811864819) transition_time 0x98-0x9b.7 (4)
0x090|                                    31 5d 4c 84|            1]L.|      [28]: "1996-03-30T15:00:20Z" (828198020) transition_time 0x9c-0x9f.7 (4)
0x0a0|32 4d 2f 74                                    |2M/t            |      [29]: "1996-09-28T14:00:20Z" (843919220) transition_time 0xa0-0xa3.7 (4)
0x0a0|            33 3d 2e 84                        |    3=..        |      [30]: "1997-03-29T15:00:20Z" (859647620) transition_time 0xa4-0xa7.7 (4)
0x0a0|                        34 2d 11 75            |        4-.u    |      [31]: "1997-09-27T14:00:21Z" (875368821) transition_time 0xa8-0xab.7 (4)
0x0a0|                                    35 1d 10 85|            5...|      [32]: "1998-03-28T15:00:21Z" (891097221) transition_time 0xac-0xaf.7 (4)
0x0b0|36 0c f3 75                                    |6..u            |      [33]: "1998-09-26T14:00:21Z" (906818421) transition_time 0xb0-0xb3.7 (4)
0x0b0|            3a e9 a5 a6                        |    :...        |      [34]: "2001-04-27T17:00:22Z" (988390822) transition_time 0xb4-0xb7.7 (4)
0x0b0|                        3b b4 9e 96            |        ;...    |      [35]: "2001-09-28T16:00:22Z" (1001692822) transition_time 0xb8-0xbb.7 (4)
0x0b0|                                    3c a4 9d a6|            <...|      [36]: "2002-03-29T17:00:22Z" (1017421222) transition_time 0xbc-0xbf.7 (4)
0x0c0|3d 94 80 96                                    |=...            |      [37]: "2002-09-27T16:00:22Z" (1033142422) transition_time 0xc0-0xc3.7 (4)
0x0c0|            3e 84 7f a6                        |    >...        |      [38]: "2003-03-28T17:00:22Z" (1048870822) transition_time 0xc4-0xc7.7 (4)
0x0c0|                        3f 74 62 96            |        ?tb.    |      [39]: "2003-09-26T16:00:22Z" (1064592022) transition_time 0xc8-0xcb.7 (4)
0x0c0|                                    40 64 61 a6|            @da.|      [40]: "2004-03-26T17:00:22Z" (1080320422) transition_time 0xcc-0xcf.7 (4)
0x0d0|41 54 44 96                                    |ATD.            |      [41]: "2004-09-24T16:00:22Z" (1096041622) transition_time 0xd0-0xd3.7 (4)
0x0d0|            42 44 43 a6                        |    BDC.        |      [42]: "2005-03-25T17:00:22Z" (1111770022) transition_time 0xd4-0xd7.7 (4)
0x0d0|                        43 34 26 96            |        C4&.    |      [43]: "2005-09-23T16:00:22Z" (1127491222) transition_time 0xd8-0xdb.7 (4)
0x0d0|                                    44 24 25 a7|            D$%.|      [44]: "2006-03-24T17:00:23Z" (1143219623) transition_time 0xdc-0xdf.7 (4)
0x0e0|45 1d 43 17                                    |E.C.            |      [45]: "2006-09-29T16:00:23Z" (1159545623) transition_time 0xe0-0xe3.7 (4)
0x0e0|            47 ef ab 07                        |    G...        |      [46]: "2008-03-30T15:00:23Z" (1206889223) transition_time 0xe4-0xe7.7 (4)
0x0e0|                        55 15 9a b9            |        U...    |      [47]: "2015-03-27T18:00:25Z" (1427479225) transition_time 0xe8-0xeb.7 (4)
0x0e0|                                    56 05 61 8a|            V.a.|      [48]: "2015-09-25T15:00:26Z" (1443193226) transition_time 0xec-0xef.7 (4)
0x0f0|56 f5 7c ba                                    |V.|.            |      [49]: "2016-03-25T18:00:26Z" (1458928826) transition_time 0xf0-0xf3.7 (4)
0x0f0|            57 e5 43 8a                        |    W.C.        |      [50]: "2016-09-23T15:00:26Z" (1474642826) transition_time 0xf4-0xf7.7 (4)
0x0f0|                        64 9b 78 1b            |        d.x.    |      [51]: "2023-06-28T00:00:27Z" (1687910427) transition_time 0xf8-0xfb.7 (4)
     |                                               |                |    transition_types[0:52]: 0xfc-0x12f.7 (52)
0x0f0|                                    01         |            .   |      [0]: 1 transition_type 0xfc-0xfc.7 (1)
0x0f0|                                       02      |             .  |      [1]: 2 transition_type 0xfd-0xfd.7 (1)
0x0f0|                                          04   |              . |      [2]: 4 transition_type 0xfe-0xfe.7 (1)
0x0f0|                                             03|               .|      [3]: 3 transition_type 0xff-0xff.7 (1)
0x100|04                                             |.               |      [4]: 4 transition_type 0x100-0x100.7 (1)
0x100|   03                                          | .              |      [5]: 3 transition_type 0x101-0x101.7 (1)
0x100|      04                                       |  .             |      [6]: 4 transition_type 0x102-0x102.7 (1)
0x100|         03                                    |   .            |      [7]: 3 transition_type 0x103-0x103.7 (1)
0x100|            04                                 |    .           |      [8]: 4 transition_type 0x104-0x104.7 (1)
0x100|               03                              |     .          |      [9]: 3 transition_type 0x105-0x105.7 (1)
0x100|                  04                           |      .         |      [10]: 4 transition_type 0x106-0x106.7 (1)
0x100|                     03                        |       .        |      [11]: 3 transition_type 0x107-0x107.7 (1)
0x100|                        04                     |        .       |      [12]: 4 transition_type 0x108-0x108.7 (1)
0x100|                           03                  |         .      |      [13]: 3 transition_type 0x109-0x109.7 (1)
0x100|                              04               |          .     |      [14]: 4 transition_type 0x10a-0x10a.7 (1)
0x100|                                 03            |           .    |      [15]: 3 transition_type 0x10b-0x10b.7 (1)
0x100|                                    04         |            .   |      [16]: 4 transition_type 0x10c-0x10c.7 (1)
0x100|                                       03      |             .  |      [17]: 3 transition_type 0x10d-0x10d.7 (1)
0x100|                                          04   |              . |      [18]: 4 transition_type 0x10e-0x10e.7 (1)
0x100|                                             03|               .|      [19]: 3 transition_type 0x10f-0x10f.7 (1)
0x110|04                                             |.               |      [20]: 4 transition_type 0x110-0x110.7 (1)
0x110|   03                                          | .              |      [21]: 3 transition_type 0x111-0x111.7 (1)
0x110|      04                                       |  .             |      [22]: 4 transition_type 0x112-0x112.7 (1)
0x110|         03                                    |   .            |      [23]: 3 transition_type 0x113-0x113.7 (1)
0x110|            04                                 |    .           |      [24]: 4 transition_type 0x114-0x114.7 (1)
0x110|               03                              |     .          |      [25]: 3 transition_type 0x115-0x115.7 (1)
0x110|                  04                           |      .         |      [26]: 4 transition_type 0x116-0x116.7 (1)
0x110|                     03                        |       .        |      [27]: 3 transition_type 0x117-0x117.7 (1)
0x110|                        04                     |        .       |      [28]: 4 transition_type 0x118-0x118.7 (1)
0x110|                           03                  |         .      |      [29]: 3 transition_type 0x119-0x119.7 (1)
0x110|                              04               |          .     |      [30]: 4 transition_type 0x11a-0x11a.7 (1)
0x110|                                 03            |           .    |      [31]: 3 transition_type 0x11b-0x11b.7 (1)
0x110|                                    04         |            .   |      [32]: 4 transition_type 0x11c-0x11c.7 (1)
0x110|                                       03      |             .  |      [33]: 3 transition_type 0x11d-0x11d.7 (1)
0x110|                                          04   |              . |      [34]: 4 transition_type 0x11e-0x11e.7 (1)
0x110|                                             03|               .|      [35]: 3 transition_type 0x11f-0x11f.7 (1)
0x120|04                                             |.               |      [36]: 4 transition_type 0x120-0x120.7 (1)
0x120|   03                                          | .              |      [37]: 3 transition_type 0x121-0x121.7 (1)
0x120|      04                                       |  .             |      [38]: 4 transition_type 0x122-0x122.7 (1)
0x120|         03                                    |   .            |      [39]: 3 transition_type 0x123-0x123.7 (1)
0x120|            04                                 |    .           |      [40]: 4 transition_type 0x124-0x124.7 (1)
0x120|               03                              |     .          |      [41]: 3 transition_type 0x125-0x125.7 (1)
0x120|                  04                           |      .         |      [42]: 4 transition_type 0x126-0x126.7 (1)
0x120|                     03                        |       .        |      [43]: 3 transition_type 0x127-0x127.7 (1)
0x120|                        04                     |        .       |      [44]: 4 transition_type 0x128-0x128.7 (1)
0x120|                           03                  |         .      |      [45]: 3 transition_type 0x129-0x129.7 (1)
0x120|                              02               |          .     |      [46]: 2 transition_type 0x12a-0x12a.7 (1)
0x120|                                 05            |           .    |      [47]: 5 transition_type 0x12b-0x12b.7 (1)
0x120|                                    02         |            .   |      [48]: 2 transition_type 0x12c-0x12c.7 (1)
0x120|                                       05      |             .  |      [49]: 5 transition_type 0x12d-0x12d.7 (1)
0x120|                                          02   |              . |      [50]: 2 transition_type 0x12e-0x12e.7 (1)
0x120|                                             02|               .|      [51]: 2 transition_type 0x12f-0x12f.7 (1)
     |                                               |                |    local_time_type_records[0:7]: 0x130-0x159.7 (42)
     |                                               |                |      [0]{}: local_time_type 0x130-0x135.7 (6)
0x130|00 00 6b 58                                    |..kX            |        utoff: 27480 (valid) 0x130-0x133.7 (4)
0x130|            00                                 |    .           |        dst: 0 (valid) 0x134-0x134.7 (1)
0x130|               00                              |     .          |        idx: 0 (valid) 0x135-0x135.7 (1)
     |                                               |                |      [1]{}: local_time_type 0x136-0x13b.7 (6)
0x130|                  00 00 62 70                  |      ..bp      |        utoff: 25200 (valid) 0x136-0x139.7 (4)
0x130|                              00               |          .     |        dst: 0 (valid) 0x13a-0x13a.7 (1)
0x130|                                 04            |           .    |        idx: 4 (valid) 0x13b-0x13b.7 (1)
     |                                               |                |      [2]{}: local_time_type 0x13c-0x141.7 (6)
0x130|                                    00 00 70 80|            ..p.|        utoff: 28800 (valid) 0x13c-0x13f.7 (4)
0x140|00                                             |.               |        dst: 0 (valid) 0x140-0x140.7 (1)
0x140|   08                                          | .              |        idx: 8 (valid) 0x141-0x141.7 (1)
     |                                               |                |      [3]{}: local_time_type 0x142-0x147.7 (6)
0x140|      00 00 7e 90                              |  ..~.          |        utoff: 32400 (valid) 0x142-0x145.7 (4)
0x140|                  00                           |      .         |        dst: 0 (valid) 0x146-0x146.7 (1)
0x140|                     0c                        |       .        |        idx: 12 (valid) 0x147-0x147.7 (1)
     |                                               |                |      [4]{}: local_time_type 0x148-0x14d.7 (6)
0x140|                        00 00 8c a0            |        ....    |        utoff: 36000 (valid) 0x148-0x14b.7 (4)
0x140|                                    01         |            .   |        dst: 1 (valid) 0x14c-0x14c.7 (1)
0x140|                                       10      |             .  |        idx: 16 (valid) 0x14d-0x14d.7 (1)
     |                                               |                |      [5]{}: local_time_type 0x14e-0x153.7 (6)
0x140|                                          00 00|              ..|        utoff: 32400 (valid) 0x14e-0x151.7 (4)
0x150|7e 90                                          |~.              |
0x150|      01                                       |  .             |        dst: 1 (valid) 0x152-0x152.7 (1)
0x150|         0c                                    |   .            |        idx: 12 (valid) 0x153-0x153.7 (1)
     |                                               |                |      [6]{}: local_time_type 0x154-0x159.7 (6)
0x150|            00 00 70 80                        |    ..p.        |        utoff: 28800 (valid) 0x154-0x157.7 (4)
0x150|                        00                     |        .       |        dst: 0 (valid) 0x158-0x158.7 (1)
0x150|                           08                  |         .      |        idx: 8 (valid) 0x159-0x159.7 (1)
     |                                               |                |    time_zone_designations[0:5]: 0x15a-0x16d.7 (20)
0x150|                              4c 4d 54 00      |          LMT.  |      [0]: "LMT" time_zone_designation 0x15a-0x15d.7 (4)
0x150|                                          2b 30|              +0|      [1]: "+07" time_zone_designation 0x15e-0x161.7 (4)
0x160|37 00                                          |7.              |
0x160|      2b 30 38 00                              |  +08.          |      [2]: "+08" time_zone_designation 0x162-0x165.7 (4)
0x160|                  2b 30 39 00                  |      +09.      |      [3]: "+09" time_zone_designation 0x166-0x169.7 (4)
0x160|                              2b 31 30 00      |          +10.  |      [4]: "+10" time_zone_designation 0x16a-0x16d.7 (4)
     |                                               |                |    leap_second_records[0:27]: 0x16e-0x245.7 (216)
     |                                               |                |      [0]{}: leap_second_record 0x16e-0x175.7 (8)
0x160|                                          04 b2|              ..|        occur: "1972-07-01T00:00:00Z" (78796800) 0x16e-0x171.7 (4)
0x170|58 00                                          |X.              |
0x170|      00 00 00 01                              |  ....          |        corr: 1 0x172-0x175.7 (4)
     |                                               |                |      [1]{}: leap_second_record 0x176-0x17d.7 (8)
0x170|                  05 a4 ec 01                  |      ....      |        occur: "1973-01-01T00:00:01Z" (94694401) 0x176-0x179.7 (4)
0x170|                              00 00 00 02      |          ....  |        corr: 2 0x17a-0x17d.7 (4)
     |                                               |                |      [2]{}: leap_second_record 0x17e-0x185.7 (8)
0x170|                                          07 86|              ..|        occur: "1974-01-01T00:00:02Z" (126230402) 0x17e-0x181.7 (4)
0x180|1f 82                                          |..              |
0x180|      00 00 00 03                              |  ....          |        corr: 3 0x182-0x185.7 (4)
     |                                               |                |      [3]{}: leap_second_record 0x186-0x18d.7 (8)
0x180|                  09 67 53 03                  |      .gS.      |        occur: "1975-01-01T00:00:03Z" (157766403) 0x186-0x189.7 (4)
0x180|                              00 00 00 04      |          ....  |        corr: 4 0x18a-0x18d.7 (4)
     |                                               |                |      [4]{}: leap_second_record 0x18e-0x195.7 (8)
0x180|                                          0b 48|              .H|        occur: "1976-01-01T00:00:04Z" (189302404) 0x18e-0x191.7 (4)
0x190|86 84                                          |..              |
0x190|      00 00 00 05                              |  ....          |        corr: 5 0x192-0x195.7 (4)
     |                                               |                |      [5]{}: leap_second_record 0x196-0x19d.7 (8)
0x190|                  0d 2b 0b 85                  |      .+..      |        occur: "1977-01-01T00:00:05Z" (220924805) 0x196-0x199.7 (4)
0x190|                              00 00 00 06      |          ....  |        corr: 6 0x19a-0x19d.7 (4)
     |                                               |                |      [6]{}: leap_second_record 0x19e-0x1a5.7 (8)
0x190|                                          0f 0c|              ..|        occur: "1978-01-01T00:00:06Z" (252460806) 0x19e-0x1a1.7 (4)
0x1a0|3f 06                                          |?.              |
0x1a0|      00 00 00 07                              |  ....          |        corr: 7 0x1a2-0x1a5.7 (4)
     |                                               |                |      [7]{}: leap_second_record 0x1a6-0x1ad.7 (8)
0x1a0|                  10 ed 72 87                  |      ..r.      |        occur: "1979-01-01T00:00:07Z" (283996807) 0x1a6-0x1a9.7 (4)
0x1a0|                              00 00 00 08      |          ....  |        corr: 8 0x1aa-0x1ad.7 (4)
     |                                               |                |      [8]{}: leap_second_record 0x1ae-0x1b5.7 (8)
0x1a0|                                          12 ce|              ..|        occur: "1980-01-01T00:00:08Z" (315532808) 0x1ae-0x1b1.7 (4)
0x1b0|a6 08                                          |..              |
0x1b0|      00 00 00 09                              |  ....          |        corr: 9 0x1b2-0x1b5.7 (4)
     |                                               |                |      [9]{}: leap_second_record 0x1b6-0x1bd.7 (8)
0x1b0|                  15 9f ca 89                  |      ....      |        occur: "1981-07-01T00:00:09Z" (362793609) 0x1b6-0x1b9.7 (4)
0x1b0|                              00 00 00 0a      |          ....  |        corr: 10 0x1ba-0x1bd.7 (4)
     |                                               |                |      [10]{}: leap_second_record 0x1be-0x1c5.7 (8)
0x1b0|                                          17 80|              ..|        occur: "1982-07-01T00:00:10Z" (394329610) 0x1be-0x1c1.7 (4)
0x1c0|fe 0a                                          |..              |
0x1c0|      00 00 00 0b                              |  ....          |        corr: 11 0x1c2-0x1c5.7 (4)
     |                                               |                |      [11]{}: leap_second_record 0x1c6-0x1cd.7 (8)
0x1c0|                  19 62 31 8b                  |      .b1.      |        occur: "1983-07-01T00:00:11Z" (425865611) 0x1c6-0x1c9.7 (4)
0x1c0|                              00 00 00 0c      |          ....  |        corr: 12 0x1ca-0x1cd.7 (4)
     |                                               |                |      [12]{}: leap_second_record 0x1ce-0x1d5.7 (8)
0x1c0|                                          1d 25|              .%|        occur: "1985-07-01T00:00:12Z" (489024012) 0x1ce-0x1d1.7 (4)
0x1d0|ea 0c                                          |..              |
0x1d0|      00 00 00 0d                              |  ....          |        corr: 13 0x1d2-0x1d5.7 (4)
     |                                               |                |      [13]{}: leap_second_record 0x1d6-0x1dd.7 (8)
0x1d0|                  21 da e5 0d                  |      !...      |        occur: "1988-01-01T00:00:13Z" (567993613) 0x1d6-0x1d9.7 (4)
0x1d0|                              00 00 00 0e      |          ....  |        corr: 14 0x1da-0x1dd.7 (4)
     |                                               |                |      [14]{}: leap_second_record 0x1de-0x1e5.7 (8)
0x1d0|                                          25 9e|              %.|        occur: "1990-01-01T00:00:14Z" (631152014) 0x1de-0x1e1.7 (4)
0x1e0|9d 8e                                          |..              |
0x1e0|      00 00 00 0f                              |  ....          |        corr: 15 0x1e2-0x1e5.7 (4)
     |                                               |                |      [15]{}: leap_second_record 0x1e6-0x1ed.7 (8)
0x1e0|                  27 7f d1 0f                  |      '...      |        occur: "1991-01-01T00:00:15Z" (662688015) 0x1e6-0x1e9.7 (4)
0x1e0|                              00 00 00 10      |          ....  |        corr: 16 0x1ea-0x1ed.7 (4)
     |                                               |                |      [16]{}: leap_second_record 0x1ee-0x1f5.7 (8)
0x1e0|                                          2a 50|              *P|        occur: "1992-07-01T00:00:16Z" (709948816) 0x1ee-0x1f1.7 (4)
0x1f0|f5 90                                          |..              |
0x1f0|      00 00 00 11                              |  ....          |        corr: 17 0x1f2-0x1f5.7 (4)
     |                                               |                |      [17]{}: leap_second_record 0x1f6-0x1fd.7 (8)
0x1f0|                  2c 32 29 11                  |      ,2).      |        occur: "1993-07-01T00:00:17Z" (741484817) 0x1f6-0x1f9.7 (4)
0x1f0|                              00 00 00 12      |          ....  |        corr: 18 0x1fa-0x1fd.7 (4)
     |                                               |                |      [18]{}: leap_second_record 0x1fe-0x205.7 (8)
0x1f0|                                          2e 13|              ..|        occur: "1994-07-01T00:00:18Z" (773020818) 0x1fe-0x201.7 (4)
0x200|5c 92                                          |\.              |
0x200|      00 00 00 13                              |  ....          |        corr: 19 0x202-0x205.7 (4)
     |                                               |                |      [19]{}: leap_second_record 0x206-0x20d.7 (8)
0x200|                  30 e7 24 13                  |      0.$.      |        occur: "1996-01-01T00:00:19Z" (820454419) 0x206-0x209.7 (4)
0x200|                              00 00 00 14      |          ....  |        corr: 20 0x20a-0x20d.7 (4)
     |                                               |                |      [20]{}: leap_second_record 0x20e-0x215.7 (8)
0x200|                                          33 b8|              3.|        occur: "1997-07-01T00:00:20Z" (867715220) 0x20e-0x211.7 (4)
0x210|48 94                                          |H.              |
0x210|      00 00 00 15                              |  ....          |        corr: 21 0x212-0x215.7 (4)
     |                                               |                |      [21]{}: leap_second_record 0x216-0x21d.7 (8)
0x210|                  36 8c 10 15                  |      6...      |        occur: "1999-01-01T00:00:21Z" (915148821) 0x216-0x219.7 (4)
0x210|                              00 00 00 16      |          ....  |        corr: 22 0x21a-0x21d.7 (4)
     |                                               |                |      [22]{}: leap_second_record 0x21e-0x225.7 (8)
0x210|                                          43 b7|              C.|        occur: "2006-01-01T00:00:22Z" (1136073622) 0x21e-0x221.7 (4)
0x220|1b 96                                          |..              |
0x220|      00 00 00 17                              |  ....          |        corr: 23 0x222-0x225.7 (4)
     |                                               |                |      [23]{}: leap_second_record 0x226-0x22d.7 (8)
0x220|                  49 5c 07 97                  |      I\..      |        occur: "2009-01-01T00:00:23Z" (1230768023) 0x226-0x229.7 (4)
0x220|                              00 00 00 18      |          ....  |        corr: 24 0x22a-0x22d.7 (4)
     |                                               |                |      [24]{}: leap_second_record 0x22e-0x235.7 (8)
0x220|                                          4f ef|              O.|        occur: "2012-07-01T00:00:24Z" (1341100824) 0x22e-0x231.7 (4)
0x230|93 18                                          |..              |
0x230|      00 00 00 19                              |  ....          |        corr: 25 0x232-0x235.7 (4)
     |                                               |                |      [25]{}: leap_second_record 0x236-0x23d.7 (8)
0x230|                  55 93 2d 99                  |      U.-.      |        occur: "2015-07-01T00:00:25Z" (1435708825) 0x236-0x239.7 (4)
0x230|                              00 00 00 1a      |          ....  |        corr: 26 0x23a-0x23d.7 (4)
     |                                               |                |      [26]{}: leap_second_record 0x23e-0x245.7 (8)
0x230|                                          58 68|              Xh|        occur: "2017-01-01T00:00:26Z" (1483228826) 0x23e-0x241.7 (4)
0x240|46 9a                                          |F.              |
0x240|      00 00 00 1b                              |  ....          |        corr: 27 0x242-0x245.7 (4)
     |                                               |                |    standard_wall_indicators[0:0]: 0x246-NA (0)
     |                                               |                |    ut_local_indicators[0:0]: 0x246-NA (0)
     |                                               |                |  v2plusheader{}: 0x246-0x271.7 (44)
0x240|                  54 5a 69 66                  |      TZif      |    magic: 0x545a6966 (valid) 0x246-0x249.7 (4)
0x240|                              32               |          2     |    ver: "2" (0x32) (valid) 0x24a-0x24a.7 (1)
0x240|                                 00 00 00 00 00|           .....|    reserved: raw bits 0x24b-0x259.7 (15)
0x250|00 00 00 00 00 00 00 00 00 00                  |..........      |
0x250|                              00 00 00 00      |          ....  |    isutcnt: 0 0x25a-0x25d.7 (4)
0x250|                                          00 00|              ..|    isstdcnt: 0 0x25e-0x261.7 (4)
0x260|00 00                                          |..              |
0x260|      00 00 00 1b                              |  ....          |    leapcnt: 27 0x262-0x265.7 (4)
0x260|                  00 00 00 34                  |      ...4      |    timecnt: 52 0x266-0x269.7 (4)
0x260|                              00 00 00 07      |          ....  |    typecnt: 7 0x26a-0x26d.7 (4)
0x260|                                          00 00|              ..|    charcnt: 20 0x26e-0x271.7 (4)
0x270|00 14                                          |..              |
     |                                               |                |  v2plusdatablock{}: 0x272-0x5c7.7 (854)
     |                                               |                |    transition_times[0:52]: 0x272-0x411.7 (416)
0x270|      ff ff ff ff 86 d3 e7 28                  |  .......(      |      [0]: "1905-07-31T16:22:00Z" (-2032933080) transition_time 0x272-0x279.7 (8)
0x270|                              00 00 00 00 0f 0b|          ......|      [1]: "1977-12-31T17:00:06Z" (252435606) transition_time 0x27a-0x281.7 (8)
0x280|dc 96                                          |..              |
0x280|      00 00 00 00 18 e9 c8 8b                  |  ........      |      [2]: "1983-03-31T16:00:11Z" (417974411) transition_time 0x282-0x289.7 (8)
0x280|                              00 00 00 00 19 da|          ......|      [3]: "1983-09-30T14:00:12Z" (433778412) transition_time 0x28a-0x291.7 (8)
0x290|ee ec                                          |..              |
0x290|      00 00 00 00 1a cc 3f 7c                  |  ......?|      |      [4]: "1984-03-31T15:00:12Z" (449593212) transition_time 0x292-0x299.7 (8)
0x290|                              00 00 00 00 1b bc|          ......|      [5]: "1984-09-29T14:00:12Z" (465314412) transition_time 0x29a-0x2a1.7 (8)
0x2a0|22 6c                                          |"l              |
0x2a0|      00 00 00 00 1c ac 21 7c                  |  ......!|      |      [6]: "1985-03-30T15:00:12Z" (481042812) transition_time 0x2a2-0x2a9.7 (8)
0x2a0|                              00 00 00 00 1d 9c|          ......|      [7]: "1985-09-28T14:00:13Z" (496764013) transition_time 0x2aa-0x2b1.7 (8)
0x2b0|04 6d                                          |.m              |
0x2b0|      00 00 00 00 1e 8c 03 7d                  |  .......}      |      [8]: "1986-03-29T15:00:13Z" (512492413) transition_time 0x2b2-0x2b9.7 (8)
0x2b0|                              00 00 00 00 1f 7b|          .....{|      [9]: "1986-09-27T14:00:13Z" (528213613) transition_time 0x2ba-0x2c1.7 (8)
0x2c0|e6 6d                                          |.m              |
0x2c0|      00 00 00 00 20 6b e5 7d                  |  .... k.}      |      [10]: "1987-03-28T15:00:13Z" (543942013) transition_time 0x2c2-0x2c9.7 (8)
0x2c0|                              00 00 00 00 21 5b|          ....![|      [11]: "1987-09-26T14:00:13Z" (559663213) transition_time 0x2ca-0x2d1.7 (8)
0x2d0|c8 6d                                          |.m              |
0x2d0|      00 00 00 00 22 4b c7 7e                  |  ...."K.~      |      [12]: "1988-03-26T15:00:14Z" (575391614) transition_time 0x2d2-0x2d9.7 (8)
0x2d0|                              00 00 00 00 23 3b|          ....#;|      [13]: "1988-09-24T14:00:14Z" (591112814) transition_time 0x2da-0x2e1.7 (8)
0x2e0|aa 6e                                          |.n              |
0x2e0|      00 00 00 00 24 2b a9 7e                  |  ....$+.~      |      [14]: "1989-03-25T15:00:14Z" (606841214) transition_time 0x2e2-0x2e9.7 (8)
0x2e0|                              00 00 00 00 25 1b|          ....%.|      [15]: "1989-09-23T14:00:14Z" (622562414) transition_time 0x2ea-0x2f1.7 (8)
0x2f0|8c 6e                                          |.n              |
0x2f0|      00 00 00 00 26 0b 8b 7f                  |  ....&...      |      [16]: "1990-03-24T15:00:15Z" (638290815) transition_time 0x2f2-0x2f9.7 (8)
0x2f0|                              00 00 00 00 27 04|          ....'.|      [17]: "1990-09-29T14:00:15Z" (654616815) transition_time 0x2fa-0x301.7 (8)
0x300|a8 ef                                          |..              |
0x300|      00 00 00 00 27 f4 a8 00                  |  ....'...      |      [18]: "1991-03-30T15:00:16Z" (670345216) transition_time 0x302-0x309.7 (8)
0x300|                              00 00 00 00 28 e4|          ....(.|      [19]: "1991-09-28T14:00:16Z" (686066416) transition_time 0x30a-0x311.7 (8)
0x310|8a f0                                          |..              |
0x310|      00 00 00 00 29 d4 8a 00                  |  ....)...      |      [20]: "1992-03-28T15:00:16Z" (701794816) transition_time 0x312-0x319.7 (8)
0x310|                              00 00 00 00 2a c4|          ....*.|      [21]: "1992-09-26T14:00:17Z" (717516017) transition_time 0x31a-0x321.7 (8)
0x320|6c f1                                          |l.              |
0x320|      00 00 00 00 2b b4 6c 01                  |  ....+.l.      |      [22]: "1993-03-27T15:00:17Z" (733244417) transition_time 0x322-0x329.7 (8)
0x320|                              00 00 00 00 2c a4|          ....,.|      [23]: "1993-09-25T14:00:18Z" (748965618) transition_time 0x32a-0x331.7 (8)
0x330|4e f2                                          |N.              |
0x330|      00 00 00 00 2d 94 4e 02                  |  ....-.N.      |      [24]: "1994-03-26T15:00:18Z" (764694018) transition_time 0x332-0x339.7 (8)
0x330|                              00 00 00 00 2e 84|          ......|      [25]: "1994-09-24T14:00:19Z" (780415219) transition_time 0x33a-0x341.7 (8)
0x340|30 f3                                          |0.              |
0x340|      00 00 00 00 2f 74 30 03                  |  ..../t0.      |      [26]: "1995-03-25T15:00:19Z" (796143619) transition_time 0x342-0x349.7 (8)
0x340|                              00 00 00 00 30 64|          ....0d|      [27]: "1995-09-23T14:00:19Z" (811864819) transition_time 0x34a-0x351.7 (8)
0x350|12 f3                                          |..              |
0x350|      00 00 00 00 31 5d 4c 84                  |  ....1]L.      |      [28]: "1996-03-30T15:00:20Z" (828198020) transition_time 0x352-0x359.7 (8)
0x350|                              00 00 00 00 32 4d|          ....2M|      [29]: "1996-09-28T14:00:20Z" (843919220) transition_time 0x35a-0x361.7 (8)
0x360|2f 74                                          |/t              |
0x360|      00 00 00 00 33 3d 2e 84                  |  ....3=..      |      [30]: "1997-03-29T15:00:20Z" (859647620) transition_time 0x362-0x369.7 (8)
0x360|                              00 00 00 00 34 2d|          ....4-|      [31]: "1997-09-27T14:00:21Z" (875368821) transition_time 0x36a-0x371.7 (8)
0x370|11 75                                          |.u              |
0x370|      00 00 00 00 35 1d 10 85                  |  ....5...      |      [32]: "1998-03-28T15:00:21Z" (891097221) transition_time 0x372-0x379.7 (8)
0x370|                              00 00 00 00 36 0c|          ....6.|      [33]: "1998-09-26T14:00:21Z" (906818421) transition_time 0x37a-0x381.7 (8)
0x380|f3 75                                          |.u              |
0x380|      00 00 00 00 3a e9 a5 a6                  |  ....:...      |      [34]: "2001-04-27T17:00:22Z" (988390822) transition_time 0x382-0x389.7 (8)
0x380|                              00 00 00 00 3b b4|          ....;.|      [35]: "2001-09-28T16:00:22Z" (1001692822) transition_time 0x38a-0x391.7 (8)
0x390|9e 96                                          |..              |
0x390|      00 00 00 00 3c a4 9d a6                  |  ....<...      |      [36]: "2002-03-29T17:00:22Z" (1017421222) transition_time 0x392-0x399.7 (8)
0x390|                              00 00 00 00 3d 94|          ....=.|      [37]: "2002-09-27T16:00:22Z" (1033142422) transition_time 0x39a-0x3a1.7 (8)
0x3a0|80 96                                          |..              |
0x3a0|      00 00 00 00 3e 84 7f a6                  |  ....>...      |      [38]: "2003-03-28T17:00:22Z" (1048870822) transition_time 0x3a2-0x3a9.7 (8)
0x3a0|                              00 00 00 00 3f 74|          ....?t|      [39]: "2003-09-26T16:00:22Z" (1064592022) transition_time 0x3aa-0x3b1.7 (8)
0x3b0|62 96                                          |b.              |
0x3b0|      00 00 00 00 40 64 61 a6                  |  ....@da.      |      [40]: "2004-03-26T17:00:22Z" (1080320422) transition_time 0x3b2-0x3b9.7 (8)
0x3b0|                              00 00 00 00 41 54|          ....AT|      [41]: "2004-09-24T16:00:22Z" (1096041622) transition_time 0x3ba-0x3c1.7 (8)
0x3c0|44 96                                          |D.              |
0x3c0|      00 00 00 00 42 44 43 a6                  |  ....BDC.      |      [42]: "2005-03-25T17:00:22Z" (1111770022) transition_time 0x3c2-0x3c9.7 (8)
0x3c0|                              00 00 00 00 43 34|          ....C4|      [43]: "2005-09-23T16:00:22Z" (1127491222) transition_time 0x3ca-0x3d1.7 (8)
0x3d0|26 96                                          |&.              |
0x3d0|      00 00 00 00 44 24 25 a7                  |  ....D$%.      |      [44]: "2006-03-24T17:00:23Z" (1143219623) transition_time 0x3d2-0x3d9.7 (8)
0x3d0|                              00 00 00 00 45 1d|          ....E.|      [45]: "2006-09-29T16:00:23Z" (1159545623) transition_time 0x3da-0x3e1.7 (8)
0x3e0|43 17                                          |C.              |
0x3e0|      00 00 00 00 47 ef ab 07                  |  ....G...      |      [46]: "2008-03-30T15:00:23Z" (1206889223) transition_time 0x3e2-0x3e9.7 (8)
0x3e0|                              00 00 00 00 55 15|          ....U.|      [47]: "2015-03-27T18:00:25Z" (1427479225) transition_time 0x3ea-0x3f1.7 (8)
0x3f0|9a b9                                          |..              |
0x3f0|      00 00 00 00 56 05 61 8a                  |  ....V.a.      |      [48]: "2015-09-25T15:00:26Z" (1443193226) transition_time 0x3f2-0x3f9.7 (8)
0x3f0|                              00 00 00 00 56 f5|          ....V.|      [49]: "2016-03-25T18:00:26Z" (1458928826) transition_time 0x3fa-0x401.7 (8)
0x400|7c ba                                          ||.              |
0x400|      00 00 00 00 57 e5 43 8a                  |  ....W.C.      |      [50]: "2016-09-23T15:00:26Z" (1474642826) transition_time 0x402-0x409.7 (8)
0x400|                              00 00 00 00 64 9b|          ....d.|      [51]: "2023-06-28T00:00:27Z" (1687910427) transition_time 0x40a-0x411.7 (8)
0x410|78 1b                                          |x.              |
     |                                               |                |    transition_types[0:52]: 0x412-0x445.7 (52)
0x410|      01                                       |  .             |      [0]: 1 transition_type 0x412-0x412.7 (1)
0x410|         02                                    |   .            |      [1]: 2 transition_type 0x413-0x413.7 (1)
0x410|            04                                 |    .           |      [2]: 4 transition_type 0x414-0x414.7 (1)
0x410|               03                              |     .          |      [3]: 3 transition_type 0x415-0x415.7 (1)
0x410|                  04                           |      .         |      [4]: 4 transition_type 0x416-0x416.7 (1)
0x410|                     03                        |       .        |      [5]: 3 transition_type 0x417-0x417.7 (1)
0x410|                        04                     |        .       |      [6]: 4 transition_type 0x418-0x418.7 (1)
0x410|                           03                  |         .      |      [7]: 3 transition_type 0x419-0x419.7 (1)
0x410|                              04               |          .     |      [8]: 4 transition_type 0x41a-0x41a.7 (1)
0x410|                                 03            |           .    |      [9]: 3 transition_type 0x41b-0x41b.7 (1)
0x410|                                    04         |            .   |      [10]: 4 transition_type 0x41c-0x41c.7 (1)
0x410|                                       03      |             .  |      [11]: 3 transition_type 0x41d-0x41d.7 (1)
0x410|                                          04   |              . |      [12]: 4 transition_type 0x41e-0x41e.7 (1)
0x410|                                             03|               .|      [13]: 3 transition_type 0x41f-0x41f.7 (1)
0x420|04                                             |.               |      [14]: 4 transition_type 0x420-0x420.7 (1)
0x420|   03                                          | .              |      [15]: 3 transition_type 0x421-0x421.7 (1)
0x420|      04                                       |  .             |      [16]: 4 transition_type 0x422-0x422.7 (1)
0x420|         03                                    |   .            |      [17]: 3 transition_type 0x423-0x423.7 (1)
0x420|            04                                 |    .           |      [18]: 4 transition_type 0x424-0x424.7 (1)
0x420|               03                              |     .          |      [19]: 3 transition_type 0x425-0x425.7 (1)
0x420|                  04                           |      .         |      [20]: 4 transition_type 0x426-0x426.7 (1)
0x420|                     03                        |       .        |      [21]: 3 transition_type 0x427-0x427.7 (1)
0x420|                        04                     |        .       |      [22]: 4 transition_type 0x428-0x428.7 (1)
0x420|                           03                  |         .      |      [23]: 3 transition_type 0x429-0x429.7 (1)
0x420|                              04               |          .     |      [24]: 4 transition_type 0x42a-0x42a.7 (1)
0x420|                                 03            |           .    |      [25]: 3 transition_type 0x42b-0x42b.7 (1)
0x420|                                    04         |            .   |      [26]: 4 transition_type 0x42c-0x42c.7 (1)
0x420|                                       03      |             .  |      [27]: 3 transition_type 0x42d-0x42d.7 (1)
0x420|                                          04   |              . |      [28]: 4 transition_type 0x42e-0x42e.7 (1)
0x420|                                             03|               .|      [29]: 3 transition_type 0x42f-0x42f.7 (1)
0x430|04                                             |.               |      [30]: 4 transition_type 0x430-0x430.7 (1)
0x430|   03                                          | .              |      [31]: 3 transition_type 0x431-0x431.7 (1)
0x430|      04                                       |  .             |      [32]: 4 transition_type 0x432-0x432.7 (1)
0x430|         03                                    |   .            |      [33]: 3 transition_type 0x433-0x433.7 (1)
0x430|            04                                 |    .           |      [34]: 4 transition_type 0x434-0x434.7 (1)
0x430|               03                              |     .          |      [35]: 3 transition_type 0x435-0x435.7 (1)
0x430|                  04                           |      .         |      [36]: 4 transition_type 0x436-0x436.7 (1)
0x430|                     03                        |       .        |      [37]: 3 transition_type 0x437-0x437.7 (1)
0x430|                        04                     |        .       |      [38]: 4 transition_type 0x438-0x438.7 (1)
0x430|                           03                  |         .      |      [39]: 3 transition_type 0x439-0x439.7 (1)
0x430|                              04               |          .     |      [40]: 4 transition_type 0x43a-0x43a.7 (1)
0x430|                                 03            |           .    |      [41]: 3 transition_type 0x43b-0x43b.7 (1)
0x430|                                    04         |            .   |      [42]: 4 transition_type 0x43c-0x43c.7 (1)
0x430|                                       03      |             .  |      [43]: 3 transition_type 0x43d-0x43d.7 (1)
0x430|                                          04   |              . |      [44]: 4 transition_type 0x43e-0x43e.7 (1)
0x430|                                             03|               .|      [45]: 3 transition_type 0x43f-0x43f.7 (1)
0x440|02                                             |.               |      [46]: 2 transition_type 0x440-0x440.7 (1)
0x440|   05                                          | .              |      [47]: 5 transition_type 0x441-0x441.7 (1)
0x440|      02                                       |  .             |      [48]: 2 transition_type 0x442-0x442.7 (1)
0x440|         05                                    |   .            |      [49]: 5 transition_type 0x443-0x443.7 (1)
0x440|            02                                 |    .           |      [50]: 2 transition_type 0x444-0x444.7 (1)
0x440|               02                              |     .          |      [51]: 2 transition_type 0x445-0x445.7 (1)
     |                                               |                |    local_time_type_records[0:7]: 0x446-0x46f.7 (42)
     |                                               |                |      [0]{}: local_time_type 0x446-0x44b.7 (6)
0x440|                  00 00 6b 58                  |      ..kX      |        utoff: 27480 (valid) 0x446-0x449.7 (4)
0x440|                              00               |          .     |        dst: 0 (valid) 0x44a-0x44a.7 (1)
0x440|                                 00            |           .    |        idx: 0 (valid) 0x44b-0x44b.7 (1)
     |                                               |                |      [1]{}: local_time_type 0x44c-0x451.7 (6)
0x440|                                    00 00 62 70|            ..bp|        utoff: 25200 (valid) 0x44c-0x44f.7 (4)
0x450|00                                             |.               |        dst: 0 (valid) 0x450-0x450.7 (1)
0x450|   04                                          | .              |        idx: 4 (valid) 0x451-0x451.7 (1)
     |                                               |                |      [2]{}: local_time_type 0x452-0x457.7 (6)
0x450|      00 00 70 80                              |  ..p.          |        utoff: 28800 (valid) 0x452-0x455.7 (4)
0x450|                  00                           |      .         |        dst: 0 (valid) 0x456-0x456.7 (1)
0x450|                     08                        |       .        |        idx: 8 (valid) 0x457-0x457.7 (1)
     |                                               |                |      [3]{}: local_time_type 0x458-0x45d.7 (6)
0x450|                        00 00 7e 90            |        ..~.    |        utoff: 32400 (valid) 0x458-0x45b.7 (4)
0x450|                                    00         |            .   |        dst: 0 (valid) 0x45c-0x45c.7 (1)
0x450|                                       0c      |             .  |        idx: 12 (valid) 0x45d-0x45d.7 (1)
     |                                               |                |      [4]{}: local_time_type 0x45e-0x463.7 (6)
0x450|                                          00 00|              ..|        utoff: 36000 (valid) 0x45e-0x461.7 (4)
0x460|8c a0                                          |..              |
0x460|      01                                       |  .             |        dst: 1 (valid) 0x462-0x462.7 (1)
0x460|         10                                    |   .            |        idx: 16 (valid) 0x463-0x463.7 (1)
     |                                               |                |      [5]{}: local_time_type 0x464-0x469.7 (6)
0x460|            00 00 7e 90                        |    ..~.        |        utoff: 32400 (valid) 0x464-0x467.7 (4)
0x460|                        01                     |        .       |        dst: 1 (valid) 0x468-0x468.7 (1)
0x460|                           0c                  |         .      |        idx: 12 (valid) 0x469-0x469.7 (1)
     |                                               |                |      [6]{}: local_time_type 0x46a-0x46f.7 (6)
0x460|                              00 00 70 80      |          ..p.  |        utoff: 28800 (valid) 0x46a-0x46d.7 (4)
0x460|                                          00   |              . |        dst: 0 (valid) 0x46e-0x46e.7 (1)
0x460|                                             08|               .|        idx: 8 (valid) 0x46f-0x46f.7 (1)
     |                                               |                |    time_zone_designations[0:5]: 0x470-0x483.7 (20)
0x470|4c 4d 54 00                                    |LMT.            |      [0]: "LMT" time_zone_designation 0x470-0x473.7 (4)
0x470|            2b 30 37 00                        |    +07.        |      [1]: "+07" time_zone_designation 0x474-0x477.7 (4)
0x470|                        2b 30 38 00            |        +08.    |      [2]: "+08" time_zone_designation 0x478-0x47b.7 (4)
0x470|                                    2b 30 39 00|            +09.|      [3]: "+09" time_zone_designation 0x47c-0x47f.7 (4)
0x480|2b 31 30 00                                    |+10.            |      [4]: "+10" time_zone_designation 0x480-0x483.7 (4)
     |                                               |                |    leap_second_records[0:27]: 0x484-0x5c7.7 (324)
     |                                               |                |      [0]{}: leap_second_record 0x484-0x48f.7 (12)
0x480|            00 00 00 00 04 b2 58 00            |    ......X.    |        occur: "1972-07-01T00:00:00Z" (78796800) 0x484-0x48b.7 (8)
0x480|                                    00 00 00 01|            ....|        corr: 1 0x48c-0x48f.7 (4)
     |                                               |                |      [1]{}: leap_second_record 0x490-0x49b.7 (12)
0x490|00 00 00 00 05 a4 ec 01                        |........        |        occur: "1973-01-01T00:00:01Z" (94694401) 0x490-0x497.7 (8)
0x490|                        00 00 00 02            |        ....    |        corr: 2 0x498-0x49b.7 (4)
     |                                               |                |      [2]{}: leap_second_record 0x49c-0x4a7.7 (12)
0x490|                                    00 00 00 00|            ....|        occur: "1974-01-01T00:00:02Z" (126230402) 0x49c-0x4a3.7 (8)
0x4a0|07 86 1f 82                                    |....            |
0x4a0|            00 00 00 03                        |    ....        |        corr: 3 0x4a4-0x4a7.7 (4)
     |                                               |                |      [3]{}: leap_second_record 0x4a8-0x4b3.7 (12)
0x4a0|                        00 00 00 00 09 67 53 03|        .....gS.|        occur: "1975-01-01T00:00:03Z" (157766403) 0x4a8-0x4af.7 (8)
0x4b0|00 00 00 04                                    |....            |        corr: 4 0x4b0-0x4b3.7 (4)
     |                                               |                |      [4]{}: leap_second_record 0x4b4-0x4bf.7 (12)
0x4b0|            00 00 00 00 0b 48 86 84            |    .....H..    |        occur: "1976-01-01T00:00:04Z" (189302404) 0x4b4-0x4bb.7 (8)
0x4b0|                                    00 00 00 05|            ....|        corr: 5 0x4bc-0x4bf.7 (4)
     |                                               |                |      [5]{}: leap_second_record 0x4c0-0x4cb.7 (12)
0x4c0|00 00 00 00 0d 2b 0b 85                        |.....+..        |        occur: "1977-01-01T00:00:05Z" (220924805) 0x4c0-0x4c7.7 (8)
0x4c0|                        00 00 00 06            |        ....    |        corr: 6 0x4c8-0x4cb.7 (4)
     |                                               |                |      [6]{}: leap_second_record 0x4cc-0x4d7.7 (12)
0x4c0|                                    00 00 00 00|            ....|        occur: "1978-01-01T00:00:06Z" (252460806) 0x4cc-0x4d3.7 (8)
0x4d0|0f 0c 3f 06                                    |..?.            |
0x4d0|            00 00 00 07                        |    ....        |        corr: 7 0x4d4-0x4d7.7 (4)
     |                                               |                |      [7]{}: leap_second_record 0x4d8-0x4e3.7 (12)
0x4d0|                        00 00 00 00 10 ed 72 87|        ......r.|        occur: "1979-01-01T00:00:07Z" (283996807) 0x4d8-0x4df.7 (8)
0x4e0|00 00 00 08                                    |....            |        corr: 8 0x4e0-0x4e3.7 (4)
     |                                               |                |      [8]{}: leap_second_record 0x4e4-0x4ef.7 (12)
0x4e0|            00 00 00 00 12 ce a6 08            |    ........    |        occur: "1980-01-01T00:00:08Z" (315532808) 0x4e4-0x4eb.7 (8)
0x4e0|                                    00 00 00 09|            ....|        corr: 9 0x4ec-0x4ef.7 (4)
     |                                               |                |      [9]{}: leap_second_record 0x4f0-0x4fb.7 (12)
0x4f0|00 00 00 00 15 9f ca 89                        |........        |        occur: "1981-07-01T00:00:09Z" (362793609) 0x4f0-0x4f7.7 (8)
0x4f0|                        00 00 00 0a            |        ....    |        corr: 10 0x4f8-0x4fb.7 (4)
     |                                               |                |      [10]{}: leap_second_record 0x4fc-0x507.7 (12)
0x4f0|                                    00 00 00 00|            ....|        occur: "1982-07-01T00:00:10Z" (394329610) 0x4fc-0x503.7 (8)
0x500|17 80 fe 0a                                    |....            |
0x500|            00 00 00 0b                        |    ....        |        corr: 11 0x504-0x507.7 (4)
     |                                               |                |      [11]{}: leap_second_record 0x508-0x513.7 (12)
0x500|                        00 00 00 00 19 62 31 8b|        .....b1.|        occur: "1983-07-01T00:00:11Z" (425865611) 0x508-0x50f.7 (8)
0x510|00 00 00 0c                                    |....            |        corr: 12 0x510-0x513.7 (4)
     |                                               |                |      [12]{}: leap_second_record 0x514-0x51f.7 (12)
0x510|            00 00 00 00 1d 25 ea 0c            |    .....%..    |        occur: "1985-07-01T00:00:12Z" (489024012) 0x514-0x51b.7 (8)
0x510|                                    00 00 00 0d|            ....|        corr: 13 0x51c-0x51f.7 (4)
     |                                               |                |      [13]{}: leap_second_record 0x520-0x52b.7 (12)
0x520|00 00 00 00 21 da e5 0d                        |....!...        |        occur: "1988-01-01T00:00:13Z" (567993613) 0x520-0x527.7 (8)
0x520|                        00 00 00 0e            |        ....    |        corr: 14 0x528-0x52b.7 (4)
     |                                               |                |      [14]{}: leap_second_record 0x52c-0x537.7 (12)
0x520|                                    00 00 00 00|            ....|        occur: "1990-01-01T00:00:14Z" (631152014) 0x52c-0x533.7 (8)
0x530|25 9e 9d 8e                                    |%...            |
0x530|            00 00 00 0f                        |    ....        |        corr: 15 0x534-0x537.7 (4)
     |                                               |                |      [15]{}: leap_second_record 0x538-0x543.7 (12)
0x530|                        00 00 00 00 27 7f d1 0f|        ....'...|        occur: "1991-01-01T00:00:15Z" (662688015) 0x538-0x53f.7 (8)
0x540|00 00 00 10                                    |....            |        corr: 16 0x540-0x543.7 (4)
     |                                               |                |      [16]{}: leap_second_record 0x544-0x54f.7 (12)
0x540|            00 00 00 00 2a 50 f5 90            |    ....*P..    |        occur: "1992-07-01T00:00:16Z" (709948816) 0x544-0x54b.7 (8)
0x540|                                    00 00 00 11|            ....|        corr: 17 0x54c-0x54f.7 (4)
     |                                               |                |      [17]{}: leap_second_record 0x550-0x55b.7 (12)
0x550|00 00 00 00 2c 32 29 11                        |....,2).        |        occur: "1993-07-01T00:00:17Z" (741484817) 0x550-0x557.7 (8)
0x550|                        00 00 00 12            |        ....    |        corr: 18 0x558-0x55b.7 (4)
     |                                               |                |      [18]{}: leap_second_record 0x55c-0x567.7 (12)
0x550|                                    00 00 00 00|            ....|        occur: "1994-07-01T00:00:18Z" (773020818) 0x55c-0x563.7 (8)
0x560|2e 13 5c 92                                    |..\.            |
0x560|            00 00 00 13                        |    ....        |        corr: 19 0x564-0x567.7 (4)
     |                                               |                |      [19]{}: leap_second_record 0x568-0x573.7 (12)
0x560|                        00 00 00 00 30 e7 24 13|        ....0.$.|        occur: "1996-01-01T00:00:19Z" (820454419) 0x568-0x56f.7 (8)
0x570|00 00 00 14                                    |....            |        corr: 20 0x570-0x573.7 (4)
     |                                               |                |      [20]{}: leap_second_record 0x574-0x57f.7 (12)
0x570|            00 00 00 00 33 b8 48 94            |    ....3.H.    |        occur: "1997-07-01T00:00:20Z" (867715220) 0x574-0x57b.7 (8)
0x570|                                    00 00 00 15|            ....|        corr: 21 0x57c-0x57f.7 (4)
     |                                               |                |      [21]{}: leap_second_record 0x580-0x58b.7 (12)
0x580|00 00 00 00 36 8c 10 15                        |....6...        |        occur: "1999-01-01T00:00:21Z" (915148821) 0x580-0x587.7 (8)
0x580|                        00 00 00 16            |        ....    |        corr: 22 0x588-0x58b.7 (4)
     |                                               |                |      [22]{}: leap_second_record 0x58c-0x597.7 (12)
0x580|                                    00 00 00 00|            ....|        occur: "2006-01-01T00:00:22Z" (1136073622) 0x58c-0x593.7 (8)
0x590|43 b7 1b 96                                    |C...            |
0x590|            00 00 00 17                        |    ....        |        corr: 23 0x594-0x597.7 (4)
     |                                               |                |      [23]{}: leap_second_record 0x598-0x5a3.7 (12)
0x590|                        00 00 00 00 49 5c 07 97|        ....I\..|        occur: "2009-01-01T00:00:23Z" (1230768023) 0x598-0x59f.7 (8)
0x5a0|00 00 00 18                                    |....            |        corr: 24 0x5a0-0x5a3.7 (4)
     |                                               |                |      [24]{}: leap_second_record 0x5a4-0x5af.7 (12)
0x5a0|            00 00 00 00 4f ef 93 18            |    ....O...    |        occur: "2012-07-01T00:00:24Z" (1341100824) 0x5a4-0x5ab.7 (8)
0x5a0|                                    00 00 00 19|            ....|        corr: 25 0x5ac-0x5af.7 (4)
     |                                               |                |      [25]{}: leap_second_record 0x5b0-0x5bb.7 (12)
0x5b0|00 00 00 00 55 93 2d 99                        |....U.-.        |        occur: "2015-07-01T00:00:25Z" (1435708825) 0x5b0-0x5b7.7 (8)
0x5b0|                        00 00 00 1a            |        ....    |        corr: 26 0x5b8-0x5bb.7 (4)
     |                                               |                |      [26]{}: leap_second_record 0x5bc-0x5c7.7 (12)
0x5b0|                                    00 00 00 00|            ....|        occur: "2017-01-01T00:00:26Z" (1483228826) 0x5bc-0x5c3.7 (8)
0x5c0|58 68 46 9a                                    |XhF.            |
0x5c0|            00 00 00 1b                        |    ....        |        corr: 27 0x5c4-0x5c7.7 (4)
     |                                               |                |    standard_wall_indicators[0:0]: 0x5c8-NA (0)
     |                                               |                |    ut_local_indicators[0:0]: 0x5c8-NA (0)
     |                                               |                |  footer{}: 0x5c8-0x5c9.7 (2)
0x5c0|                        0a                     |        .       |    nl1: 10 (valid) 0x5c8-0x5c8.7 (1)
     |                                               |                |    tz_string: "" 0x5c9-NA (0)
0x5c0|                           0a|                 |         .|     |    nl2: 10 (valid) 0x5c9-0x5c9.7 (1)
