$ fq -d tzif dv Costa_Rica
     |00 01 02 03 04 05 06 07 08 09 0a 0b 0c 0d 0e 0f|0123456789abcdef|.{}: Costa_Rica (tzif) 0x0-0x361.7 (866)
     |                                               |                |  v1header{}: 0x0-0x2b.7 (44)
0x000|54 5a 69 66                                    |TZif            |    magic: 0x545a6966 (valid) 0x0-0x3.7 (4)
0x000|            32                                 |    2           |    ver: "2" (0x32) (valid) 0x4-0x4.7 (1)
0x000|               00 00 00 00 00 00 00 00 00 00 00|     ...........|    reserved: raw bits 0x5-0x13.7 (15)
0x010|00 00 00 00                                    |....            |
0x010|            00 00 00 00                        |    ....        |    isutcnt: 0 0x14-0x17.7 (4)
0x010|                        00 00 00 00            |        ....    |    isstdcnt: 0 0x18-0x1b.7 (4)
0x010|                                    00 00 00 1b|            ....|    leapcnt: 27 0x1c-0x1f.7 (4)
0x020|00 00 00 0b                                    |....            |    timecnt: 11 0x20-0x23.7 (4)
0x020|            00 00 00 04                        |    ....        |    typecnt: 4 0x24-0x27.7 (4)
0x020|                        00 00 00 11            |        ....    |    charcnt: 17 0x28-0x2b.7 (4)
     |                                               |                |  v1datablock{}: 0x2c-0x163.7 (312)
     |                                               |                |    transition_times[0:11]: 0x2c-0x57.7 (44)
0x020|                                    80 00 00 00|            ....|      [0]: "1901-12-13T20:45:52Z" (-2147483648) transition_time 0x2c-0x2f.7 (4)
0x030|a3 e8 16 4d                                    |...M            |      [1]: "1921-01-15T05:36:13Z" (-1545071027) transition_time 0x30-0x33.7 (4)
0x030|            11 36 49 68                        |    .6Ih        |      [2]: "1979-02-25T06:00:08Z" (288770408) transition_time 0x34-0x37.7 (4)
0x030|                        11 b7 6e 58            |        ..nX    |      [3]: "1979-06-03T05:00:08Z" (297234008) transition_time 0x38-0x3b.7 (4)
0x030|                                    13 16 2b 69|            ..+i|      [4]: "1980-02-24T06:00:09Z" (320220009) transition_time 0x3c-0x3f.7 (4)
0x040|13 97 50 59                                    |..PY            |      [5]: "1980-06-01T05:00:09Z" (328683609) transition_time 0x40-0x43.7 (4)
0x040|            27 97 e0 70                        |    '..p        |      [6]: "1991-01-19T06:00:16Z" (664264816) transition_time 0x44-0x47.7 (4)
0x040|                        28 6e b6 e0            |        (n..    |      [7]: "1991-07-01T05:00:16Z" (678344416) transition_time 0x48-0x4b.7 (4)
0x040|                                    29 77 c2 70|            )w.p|      [8]: "1992-01-18T06:00:16Z" (695714416) transition_time 0x4c-0x4f.7 (4)
0x050|29 c2 d9 e0                                    |)...            |      [9]: "1992-03-15T05:00:16Z" (700635616) transition_time 0x50-0x53.7 (4)
0x050|            64 9b 78 1b                        |    d.x.        |      [10]: "2023-06-28T00:00:27Z" (1687910427) transition_time 0x54-0x57.7 (4)
     |                                               |                |    transition_types[0:11]: 0x58-0x62.7 (11)
0x050|                        01                     |        .       |      [0]: 1 transition_type 0x58-0x58.7 (1)
0x050|                           03                  |         .      |      [1]: 3 transition_type 0x59-0x59.7 (1)
0x050|                              02               |          .     |      [2]: 2 transition_type 0x5a-0x5a.7 (1)
0x050|                                 03            |           .    |      [3]: 3 transition_type 0x5b-0x5b.7 (1)
0x050|                                    02         |            .   |      [4]: 2 transition_type 0x5c-0x5c.7 (1)
0x050|                                       03      |             .  |      [5]: 3 transition_type 0x5d-0x5d.7 (1)
0x050|                                          02   |              . |      [6]: 2 transition_type 0x5e-0x5e.7 (1)
0x050|                                             03|               .|      [7]: 3 transition_type 0x5f-0x5f.7 (1)
0x060|02                                             |.               |      [8]: 2 transition_type 0x60-0x60.7 (1)
0x060|   03                                          | .              |      [9]: 3 transition_type 0x61-0x61.7 (1)
0x060|      03                                       |  .             |      [10]: 3 transition_type 0x62-0x62.7 (1)
     |                                               |                |    local_time_type_records[0:4]: 0x63-0x7a.7 (24)
     |                                               |                |      [0]{}: local_time_type 0x63-0x68.7 (6)
0x060|         ff ff b1 33                           |   ...3         |        utoff: -20173 (valid) 0x63-0x66.7 (4)
0x060|                     00                        |       .        |        dst: 0 (valid) 0x67-0x67.7 (1)
0x060|                        00                     |        .       |        idx: 0 (valid) 0x68-0x68.7 (1)
     |                                               |                |      [1]{}: local_time_type 0x69-0x6e.7 (6)
0x060|                           ff ff b1 33         |         ...3   |        utoff: -20173 (valid) 0x69-0x6c.7 (4)
0x060|                                       00      |             .  |        dst: 0 (valid) 0x6d-0x6d.7 (1)
0x060|                                          04   |              . |        idx: 4 (valid) 0x6e-0x6e.7 (1)
     |                                               |                |      [2]{}: local_time_type 0x6f-0x74.7 (6)
0x060|                                             ff|               .|        utoff: -18000 (valid) 0x6f-0x72.7 (4)
0x070|ff b9 b0                                       |...             |
0x070|         01                                    |   .            |        dst: 1 (valid) 0x73-0x73.7 (1)
0x070|            09                                 |    .           |        idx: 9 (valid) 0x74-0x74.7 (1)
     |                                               |                |      [3]{}: local_time_type 0x75-0x7a.7 (6)
0x070|               ff ff ab a0                     |     ....       |        utoff: -21600 (valid) 0x75-0x78.7 (4)
0x070|                           00                  |         .      |        dst: 0 (valid) 0x79-0x79.7 (1)
0x070|                              0d               |          .     |        idx: 13 (valid) 0x7a-0x7a.7 (1)
     |                                               |                |    time_zone_designations[0:4]: 0x7b-0x8b.7 (17)
0x070|                                 4c 4d 54 00   |           LMT. |      [0]: "LMT" time_zone_designation 0x7b-0x7e.7 (4)
0x070|                                             53|               S|      [1]: "SJMT" time_zone_designation 0x7f-0x83.7 (5)
0x080|4a 4d 54 00                                    |JMT.            |
0x080|            43 44 54 00                        |    CDT.        |      [2]: "CDT" time_zone_designation 0x84-0x87.7 (4)
0x080|                        43 53 54 00            |        CST.    |      [3]: "CST" time_zone_designation 0x88-0x8b.7 (4)
     |                                               |                |    leap_second_records[0:27]: 0x8c-0x163.7 (216)
     |                                               |                |      [0]{}: leap_second_record 0x8c-0x93.7 (8)
0x080|                                    04 b2 58 00|            ..X.|        occur: "1972-07-01T00:00:00Z" (78796800) 0x8c-0x8f.7 (4)
0x090|00 00 00 01                                    |....            |        corr: 1 0x90-0x93.7 (4)
     |                                               |                |      [1]{}: leap_second_record 0x94-0x9b.7 (8)
0x090|            05 a4 ec 01                        |    ....        |        occur: "1973-01-01T00:00:01Z" (94694401) 0x94-0x97.7 (4)
0x090|                        00 00 00 02            |        ....    |        corr: 2 0x98-0x9b.7 (4)
     |                                               |                |      [2]{}: leap_second_record 0x9c-0xa3.7 (8)
0x090|                                    07 86 1f 82|            ....|        occur: "1974-01-01T00:00:02Z" (126230402) 0x9c-0x9f.7 (4)
0x0a0|00 00 00 03                                    |....            |        corr: 3 0xa0-0xa3.7 (4)
     |                                               |                |      [3]{}: leap_second_record 0xa4-0xab.7 (8)
0x0a0|            09 67 53 03                        |    .gS.        |        occur: "1975-01-01T00:00:03Z" (157766403) 0xa4-0xa7.7 (4)
0x0a0|                        00 00 00 04            |        ....    |        corr: 4 0xa8-0xab.7 (4)
     |                                               |                |      [4]{}: leap_second_record 0xac-0xb3.7 (8)
0x0a0|                                    0b 48 86 84|            .H..|        occur: "1976-01-01T00:00:04Z" (189302404) 0xac-0xaf.7 (4)
0x0b0|00 00 00 05                                    |....            |        corr: 5 0xb0-0xb3.7 (4)
     |                                               |                |      [5]{}: leap_second_record 0xb4-0xbb.7 (8)
0x0b0|            0d 2b 0b 85                        |    .+..        |        occur: "1977-01-01T00:00:05Z" (220924805) 0xb4-0xb7.7 (4)
0x0b0|                        00 00 00 06            |        ....    |        corr: 6 0xb8-0xbb.7 (4)
     |                                               |                |      [6]{}: leap_second_record 0xbc-0xc3.7 (8)
0x0b0|                                    0f 0c 3f 06|            ..?.|        occur: "1978-01-01T00:00:06Z" (252460806) 0xbc-0xbf.7 (4)
0x0c0|00 00 00 07                                    |....            |        corr: 7 0xc0-0xc3.7 (4)
     |                                               |                |      [7]{}: leap_second_record 0xc4-0xcb.7 (8)
0x0c0|            10 ed 72 87                        |    ..r.        |        occur: "1979-01-01T00:00:07Z" (283996807) 0xc4-0xc7.7 (4)
0x0c0|                        00 00 00 08            |        ....    |        corr: 8 0xc8-0xcb.7 (4)
     |                                               |                |      [8]{}: leap_second_record 0xcc-0xd3.7 (8)
0x0c0|                                    12 ce a6 08|            ....|        occur: "1980-01-01T00:00:08Z" (315532808) 0xcc-0xcf.7 (4)
0x0d0|00 00 00 09                                    |....            |        corr: 9 0xd0-0xd3.7 (4)
     |                                               |                |      [9]{}: leap_second_record 0xd4-0xdb.7 (8)
0x0d0|            15 9f ca 89                        |    ....        |        occur: "1981-07-01T00:00:09Z" (362793609) 0xd4-0xd7.7 (4)
0x0d0|                        00 00 00 0a            |        ....    |        corr: 10 0xd8-0xdb.7 (4)
     |                                               |                |      [10]{}: leap_second_record 0xdc-0xe3.7 (8)
0x0d0|                                    17 80 fe 0a|            ....|        occur: "1982-07-01T00:00:10Z" (394329610) 0xdc-0xdf.7 (4)
0x0e0|00 00 00 0b                                    |....            |        corr: 11 0xe0-0xe3.7 (4)
     |                                               |                |      [11]{}: leap_second_record 0xe4-0xeb.7 (8)
0x0e0|            19 62 31 8b                        |    .b1.        |        occur: "1983-07-01T00:00:11Z" (425865611) 0xe4-0xe7.7 (4)
0x0e0|                        00 00 00 0c            |        ....    |        corr: 12 0xe8-0xeb.7 (4)
     |                                               |                |      [12]{}: leap_second_record 0xec-0xf3.7 (8)
0x0e0|                                    1d 25 ea 0c|            .%..|        occur: "1985-07-01T00:00:12Z" (489024012) 0xec-0xef.7 (4)
0x0f0|00 00 00 0d                                    |....            |        corr: 13 0xf0-0xf3.7 (4)
     |                                               |                |      [13]{}: leap_second_record 0xf4-0xfb.7 (8)
0x0f0|            21 da e5 0d                        |    !...        |        occur: "1988-01-01T00:00:13Z" (567993613) 0xf4-0xf7.7 (4)
0x0f0|                        00 00 00 0e            |        ....    |        corr: 14 0xf8-0xfb.7 (4)
     |                                               |                |      [14]{}: leap_second_record 0xfc-0x103.7 (8)
0x0f0|                                    25 9e 9d 8e|            %...|        occur: "1990-01-01T00:00:14Z" (631152014) 0xfc-0xff.7 (4)
0x100|00 00 00 0f                                    |....            |        corr: 15 0x100-0x103.7 (4)
     |                                               |                |      [15]{}: leap_second_record 0x104-0x10b.7 (8)
0x100|            27 7f d1 0f                        |    '...        |        occur: "1991-01-01T00:00:15Z" (662688015) 0x104-0x107.7 (4)
0x100|                        00 00 00 10            |        ....    |        corr: 16 0x108-0x10b.7 (4)
     |                                               |                |      [16]{}: leap_second_record 0x10c-0x113.7 (8)
0x100|                                    2a 50 f5 90|            *P..|        occur: "1992-07-01T00:00:16Z" (709948816) 0x10c-0x10f.7 (4)
0x110|00 00 00 11                                    |....            |        corr: 17 0x110-0x113.7 (4)
     |                                               |                |      [17]{}: leap_second_record 0x114-0x11b.7 (8)
0x110|            2c 32 29 11                        |    ,2).        |        occur: "1993-07-01T00:00:17Z" (741484817) 0x114-0x117.7 (4)
0x110|                        00 00 00 12            |        ....    |        corr: 18 0x118-0x11b.7 (4)
     |                                               |                |      [18]{}: leap_second_record 0x11c-0x123.7 (8)
0x110|                                    2e 13 5c 92|            ..\.|        occur: "1994-07-01T00:00:18Z" (773020818) 0x11c-0x11f.7 (4)
0x120|00 00 00 13                                    |....            |        corr: 19 0x120-0x123.7 (4)
     |                                               |                |      [19]{}: leap_second_record 0x124-0x12b.7 (8)
0x120|            30 e7 24 13                        |    0.$.        |        occur: "1996-01-01T00:00:19Z" (820454419) 0x124-0x127.7 (4)
0x120|                        00 00 00 14            |        ....    |        corr: 20 0x128-0x12b.7 (4)
     |                                               |                |      [20]{}: leap_second_record 0x12c-0x133.7 (8)
0x120|                                    33 b8 48 94|            3.H.|        occur: "1997-07-01T00:00:20Z" (867715220) 0x12c-0x12f.7 (4)
0x130|00 00 00 15                                    |....            |        corr: 21 0x130-0x133.7 (4)
     |                                               |                |      [21]{}: leap_second_record 0x134-0x13b.7 (8)
0x130|            36 8c 10 15                        |    6...        |        occur: "1999-01-01T00:00:21Z" (915148821) 0x134-0x137.7 (4)
0x130|                        00 00 00 16            |        ....    |        corr: 22 0x138-0x13b.7 (4)
     |                                               |                |      [22]{}: leap_second_record 0x13c-0x143.7 (8)
0x130|                                    43 b7 1b 96|            C...|        occur: "2006-01-01T00:00:22Z" (1136073622) 0x13c-0x13f.7 (4)
0x140|00 00 00 17                                    |....            |        corr: 23 0x140-0x143.7 (4)
     |                                               |                |      [23]{}: leap_second_record 0x144-0x14b.7 (8)
0x140|            49 5c 07 97                        |    I\..        |        occur: "2009-01-01T00:00:23Z" (1230768023) 0x144-0x147.7 (4)
0x140|                        00 00 00 18            |        ....    |        corr: 24 0x148-0x14b.7 (4)
     |                                               |                |      [24]{}: leap_second_record 0x14c-0x153.7 (8)
0x140|                                    4f ef 93 18|            O...|        occur: "2012-07-01T00:00:24Z" (1341100824) 0x14c-0x14f.7 (4)
0x150|00 00 00 19                                    |....            |        corr: 25 0x150-0x153.7 (4)
     |                                               |                |      [25]{}: leap_second_record 0x154-0x15b.7 (8)
0x150|            55 93 2d 99                        |    U.-.        |        occur: "2015-07-01T00:00:25Z" (1435708825) 0x154-0x157.7 (4)
0x150|                        00 00 00 1a            |        ....    |        corr: 26 0x158-0x15b.7 (4)
     |                                               |                |      [26]{}: leap_second_record 0x15c-0x163.7 (8)
0x150|                                    58 68 46 9a|            XhF.|        occur: "2017-01-01T00:00:26Z" (1483228826) 0x15c-0x15f.7 (4)
0x160|00 00 00 1b                                    |....            |        corr: 27 0x160-0x163.7 (4)
     |                                               |                |    standard_wall_indicators[0:0]: 0x164-NA (0)
     |                                               |                |    ut_local_indicators[0:0]: 0x164-NA (0)
     |                                               |                |  v2plusheader{}: 0x164-0x18f.7 (44)
0x160|            54 5a 69 66                        |    TZif        |    magic: 0x545a6966 (valid) 0x164-0x167.7 (4)
0x160|                        32                     |        2       |    ver: "2" (0x32) (valid) 0x168-0x168.7 (1)
0x160|                           00 00 00 00 00 00 00|         .......|    reserved: raw bits 0x169-0x177.7 (15)
0x170|00 00 00 00 00 00 00 00                        |........        |
0x170|                        00 00 00 00            |        ....    |    isutcnt: 0 0x178-0x17b.7 (4)
0x170|                                    00 00 00 00|            ....|    isstdcnt: 0 0x17c-0x17f.7 (4)
0x180|00 00 00 1b                                    |....            |    leapcnt: 27 0x180-0x183.7 (4)
0x180|            00 00 00 0b                        |    ....        |    timecnt: 11 0x184-0x187.7 (4)
0x180|                        00 00 00 04            |        ....    |    typecnt: 4 0x188-0x18b.7 (4)
0x180|                                    00 00 00 11|            ....|    charcnt: 17 0x18c-0x18f.7 (4)
     |                                               |                |  v2plusdatablock{}: 0x190-0x35f.7 (464)
     |                                               |                |    transition_times[0:11]: 0x190-0x1e7.7 (88)
0x190|ff ff ff ff 69 87 2a 4d                        |....i.*M        |      [0]: "1890-01-01T05:36:13Z" (-2524501427) transition_time 0x190-0x197.7 (8)
0x190|                        ff ff ff ff a3 e8 16 4d|        .......M|      [1]: "1921-01-15T05:36:13Z" (-1545071027) transition_time 0x198-0x19f.7 (8)
0x1a0|00 00 00 00 11 36 49 68                        |.....6Ih        |      [2]: "1979-02-25T06:00:08Z" (288770408) transition_time 0x1a0-0x1a7.7 (8)
0x1a0|                        00 00 00 00 11 b7 6e 58|        ......nX|      [3]: "1979-06-03T05:00:08Z" (297234008) transition_time 0x1a8-0x1af.7 (8)
0x1b0|00 00 00 00 13 16 2b 69                        |......+i        |      [4]: "1980-02-24T06:00:09Z" (320220009) transition_time 0x1b0-0x1b7.7 (8)
0x1b0|                        00 00 00 00 13 97 50 59|        ......PY|      [5]: "1980-06-01T05:00:09Z" (328683609) transition_time 0x1b8-0x1bf.7 (8)
0x1c0|00 00 00 00 27 97 e0 70                        |....'..p        |      [6]: "1991-01-19T06:00:16Z" (664264816) transition_time 0x1c0-0x1c7.7 (8)
0x1c0|                        00 00 00 00 28 6e b6 e0|        ....(n..|      [7]: "1991-07-01T05:00:16Z" (678344416) transition_time 0x1c8-0x1cf.7 (8)
0x1d0|00 00 00 00 29 77 c2 70                        |....)w.p        |      [8]: "1992-01-18T06:00:16Z" (695714416) transition_time 0x1d0-0x1d7.7 (8)
0x1d0|                        00 00 00 00 29 c2 d9 e0|        ....)...|      [9]: "1992-03-15T05:00:16Z" (700635616) transition_time 0x1d8-0x1df.7 (8)
0x1e0|00 00 00 00 64 9b 78 1b                        |....d.x.        |      [10]: "2023-06-28T00:00:27Z" (1687910427) transition_time 0x1e0-0x1e7.7 (8)
     |                                               |                |    transition_types[0:11]: 0x1e8-0x1f2.7 (11)
0x1e0|                        01                     |        .       |      [0]: 1 transition_type 0x1e8-0x1e8.7 (1)
0x1e0|                           03                  |         .      |      [1]: 3 transition_type 0x1e9-0x1e9.7 (1)
0x1e0|                              02               |          .     |      [2]: 2 transition_type 0x1ea-0x1ea.7 (1)
0x1e0|                                 03            |           .    |      [3]: 3 transition_type 0x1eb-0x1eb.7 (1)
0x1e0|                                    02         |            .   |      [4]: 2 transition_type 0x1ec-0x1ec.7 (1)
0x1e0|                                       03      |             .  |      [5]: 3 transition_type 0x1ed-0x1ed.7 (1)
0x1e0|                                          02   |              . |      [6]: 2 transition_type 0x1ee-0x1ee.7 (1)
0x1e0|                                             03|               .|      [7]: 3 transition_type 0x1ef-0x1ef.7 (1)
0x1f0|02                                             |.               |      [8]: 2 transition_type 0x1f0-0x1f0.7 (1)
0x1f0|   03                                          | .              |      [9]: 3 transition_type 0x1f1-0x1f1.7 (1)
0x1f0|      03                                       |  .             |      [10]: 3 transition_type 0x1f2-0x1f2.7 (1)
     |                                               |                |    local_time_type_records[0:4]: 0x1f3-0x20a.7 (24)
     |                                               |                |      [0]{}: local_time_type 0x1f3-0x1f8.7 (6)
0x1f0|         ff ff b1 33                           |   ...3         |        utoff: -20173 (valid) 0x1f3-0x1f6.7 (4)
0x1f0|                     00                        |       .        |        dst: 0 (valid) 0x1f7-0x1f7.7 (1)
0x1f0|                        00                     |        .       |        idx: 0 (valid) 0x1f8-0x1f8.7 (1)
     |                                               |                |      [1]{}: local_time_type 0x1f9-0x1fe.7 (6)
0x1f0|                           ff ff b1 33         |         ...3   |        utoff: -20173 (valid) 0x1f9-0x1fc.7 (4)
0x1f0|                                       00      |             .  |        dst: 0 (valid) 0x1fd-0x1fd.7 (1)
0x1f0|                                          04   |              . |        idx: 4 (valid) 0x1fe-0x1fe.7 (1)
     |                                               |                |      [2]{}: local_time_type 0x1ff-0x204.7 (6)
0x1f0|                                             ff|               .|        utoff: -18000 (valid) 0x1ff-0x202.7 (4)
0x200|ff b9 b0                                       |...             |
0x200|         01                                    |   .            |        dst: 1 (valid) 0x203-0x203.7 (1)
0x200|            09                                 |    .           |        idx: 9 (valid) 0x204-0x204.7 (1)
     |                                               |                |      [3]{}: local_time_type 0x205-0x20a.7 (6)
0x200|               ff ff ab a0                     |     ....       |        utoff: -21600 (valid) 0x205-0x208.7 (4)
0x200|                           00                  |         .      |        dst: 0 (valid) 0x209-0x209.7 (1)
0x200|                              0d               |          .     |        idx: 13 (valid) 0x20a-0x20a.7 (1)
     |                                               |                |    time_zone_designations[0:4]: 0x20b-0x21b.7 (17)
0x200|                                 4c 4d 54 00   |           LMT. |      [0]: "LMT" time_zone_designation 0x20b-0x20e.7 (4)
0x200|                                             53|               S|      [1]: "SJMT" time_zone_designation 0x20f-0x213.7 (5)
0x210|4a 4d 54 00                                    |JMT.            |
0x210|            43 44 54 00                        |    CDT.        |      [2]: "CDT" time_zone_designation 0x214-0x217.7 (4)
0x210|                        43 53 54 00            |        CST.    |      [3]: "CST" time_zone_designation 0x218-0x21b.7 (4)
     |                                               |                |    leap_second_records[0:27]: 0x21c-0x35f.7 (324)
     |                                               |                |      [0]{}: leap_second_record 0x21c-0x227.7 (12)
0x210|                                    00 00 00 00|            ....|        occur: "1972-07-01T00:00:00Z" (78796800) 0x21c-0x223.7 (8)
0x220|04 b2 58 00                                    |..X.            |
0x220|            00 00 00 01                        |    ....        |        corr: 1 0x224-0x227.7 (4)
     |                                               |                |      [1]{}: leap_second_record 0x228-0x233.7 (12)
0x220|                        00 00 00 00 05 a4 ec 01|        ........|        occur: "1973-01-01T00:00:01Z" (94694401) 0x228-0x22f.7 (8)
0x230|00 00 00 02                                    |....            |        corr: 2 0x230-0x233.7 (4)
     |                                               |                |      [2]{}: leap_second_record 0x234-0x23f.7 (12)
0x230|            00 00 00 00 07 86 1f 82            |    ........    |        occur: "1974-01-01T00:00:02Z" (126230402) 0x234-0x23b.7 (8)
0x230|                                    00 00 00 03|            ....|        corr: 3 0x23c-0x23f.7 (4)
     |                                               |                |      [3]{}: leap_second_record 0x240-0x24b.7 (12)
0x240|00 00 00 00 09 67 53 03                        |.....gS.        |        occur: "1975-01-01T00:00:03Z" (157766403) 0x240-0x247.7 (8)
0x240|                        00 00 00 04            |        ....    |        corr: 4 0x248-0x24b.7 (4)
     |                                               |                |      [4]{}: leap_second_record 0x24c-0x257.7 (12)
0x240|                                    00 00 00 00|            ....|        occur: "1976-01-01T00:00:04Z" (189302404) 0x24c-0x253.7 (8)
0x250|0b 48 86 84                                    |.H..            |
0x250|            00 00 00 05                        |    ....        |        corr: 5 0x254-0x257.7 (4)
     |                                               |                |      [5]{}: leap_second_record 0x258-0x263.7 (12)
0x250|                        00 00 00 00 0d 2b 0b 85|        .....+..|        occur: "1977-01-01T00:00:05Z" (220924805) 0x258-0x25f.7 (8)
0x260|00 00 00 06                                    |....            |        corr: 6 0x260-0x263.7 (4)
     |                                               |                |      [6]{}: leap_second_record 0x264-0x26f.7 (12)
0x260|            00 00 00 00 0f 0c 3f 06            |    ......?.    |        occur: "1978-01-01T00:00:06Z" (252460806) 0x264-0x26b.7 (8)
0x260|                                    00 00 00 07|            ....|        corr: 7 0x26c-0x26f.7 (4)
     |                                               |                |      [7]{}: leap_second_record 0x270-0x27b.7 (12)
0x270|00 00 00 00 10 ed 72 87                        |......r.        |        occur: "1979-01-01T00:00:07Z" (283996807) 0x270-0x277.7 (8)
0x270|                        00 00 00 08            |        ....    |        corr: 8 0x278-0x27b.7 (4)
     |                                               |                |      [8]{}: leap_second_record 0x27c-0x287.7 (12)
0x270|                                    00 00 00 00|            ....|        occur: "1980-01-01T00:00:08Z" (315532808) 0x27c-0x283.7 (8)
0x280|12 ce a6 08                                    |....            |
0x280|            00 00 00 09                        |    ....        |        corr: 9 0x284-0x287.7 (4)
     |                                               |                |      [9]{}: leap_second_record 0x288-0x293.7 (12)
0x280|                        00 00 00 00 15 9f ca 89|        ........|        occur: "1981-07-01T00:00:09Z" (362793609) 0x288-0x28f.7 (8)
0x290|00 00 00 0a                                    |....            |        corr: 10 0x290-0x293.7 (4)
     |                                               |                |      [10]{}: leap_second_record 0x294-0x29f.7 (12)
0x290|            00 00 00 00 17 80 fe 0a            |    ........    |        occur: "1982-07-01T00:00:10Z" (394329610) 0x294-0x29b.7 (8)
0x290|                                    00 00 00 0b|            ....|        corr: 11 0x29c-0x29f.7 (4)
     |                                               |                |      [11]{}: leap_second_record 0x2a0-0x2ab.7 (12)
0x2a0|00 00 00 00 19 62 31 8b                        |.....b1.        |        occur: "1983-07-01T00:00:11Z" (425865611) 0x2a0-0x2a7.7 (8)
0x2a0|                        00 00 00 0c            |        ....    |        corr: 12 0x2a8-0x2ab.7 (4)
     |                                               |                |      [12]{}: leap_second_record 0x2ac-0x2b7.7 (12)
0x2a0|                                    00 00 00 00|            ....|        occur: "1985-07-01T00:00:12Z" (489024012) 0x2ac-0x2b3.7 (8)
0x2b0|1d 25 ea 0c                                    |.%..            |
0x2b0|            00 00 00 0d                        |    ....        |        corr: 13 0x2b4-0x2b7.7 (4)
     |                                               |                |      [13]{}: leap_second_record 0x2b8-0x2c3.7 (12)
0x2b0|                        00 00 00 00 21 da e5 0d|        ....!...|        occur: "1988-01-01T00:00:13Z" (567993613) 0x2b8-0x2bf.7 (8)
0x2c0|00 00 00 0e                                    |....            |        corr: 14 0x2c0-0x2c3.7 (4)
     |                                               |                |      [14]{}: leap_second_record 0x2c4-0x2cf.7 (12)
0x2c0|            00 00 00 00 25 9e 9d 8e            |    ....%...    |        occur: "1990-01-01T00:00:14Z" (631152014) 0x2c4-0x2cb.7 (8)
0x2c0|                                    00 00 00 0f|            ....|        corr: 15 0x2cc-0x2cf.7 (4)
     |                                               |                |      [15]{}: leap_second_record 0x2d0-0x2db.7 (12)
0x2d0|00 00 00 00 27 7f d1 0f                        |....'...        |        occur: "1991-01-01T00:00:15Z" (662688015) 0x2d0-0x2d7.7 (8)
0x2d0|                        00 00 00 10            |        ....    |        corr: 16 0x2d8-0x2db.7 (4)
     |                                               |                |      [16]{}: leap_second_record 0x2dc-0x2e7.7 (12)
0x2d0|                                    00 00 00 00|            ....|        occur: "1992-07-01T00:00:16Z" (709948816) 0x2dc-0x2e3.7 (8)
0x2e0|2a 50 f5 90                                    |*P..            |
0x2e0|            00 00 00 11                        |    ....        |        corr: 17 0x2e4-0x2e7.7 (4)
     |                                               |                |      [17]{}: leap_second_record 0x2e8-0x2f3.7 (12)
0x2e0|                        00 00 00 00 2c 32 29 11|        ....,2).|        occur: "1993-07-01T00:00:17Z" (741484817) 0x2e8-0x2ef.7 (8)
0x2f0|00 00 00 12                                    |....            |        corr: 18 0x2f0-0x2f3.7 (4)
     |                                               |                |      [18]{}: leap_second_record 0x2f4-0x2ff.7 (12)
0x2f0|            00 00 00 00 2e 13 5c 92            |    ......\.    |        occur: "1994-07-01T00:00:18Z" (773020818) 0x2f4-0x2fb.7 (8)
0x2f0|                                    00 00 00 13|            ....|        corr: 19 0x2fc-0x2ff.7 (4)
     |                                               |                |      [19]{}: leap_second_record 0x300-0x30b.7 (12)
0x300|00 00 00 00 30 e7 24 13                        |....0.$.        |        occur: "1996-01-01T00:00:19Z" (820454419) 0x300-0x307.7 (8)
0x300|                        00 00 00 14            |        ....    |        corr: 20 0x308-0x30b.7 (4)
     |                                               |                |      [20]{}: leap_second_record 0x30c-0x317.7 (12)
0x300|                                    00 00 00 00|            ....|        occur: "1997-07-01T00:00:20Z" (867715220) 0x30c-0x313.7 (8)
0x310|33 b8 48 94                                    |3.H.            |
0x310|            00 00 00 15                        |    ....        |        corr: 21 0x314-0x317.7 (4)
     |                                               |                |      [21]{}: leap_second_record 0x318-0x323.7 (12)
0x310|                        00 00 00 00 36 8c 10 15|        ....6...|        occur: "1999-01-01T00:00:21Z" (915148821) 0x318-0x31f.7 (8)
0x320|00 00 00 16                                    |....            |        corr: 22 0x320-0x323.7 (4)
     |                                               |                |      [22]{}: leap_second_record 0x324-0x32f.7 (12)
0x320|            00 00 00 00 43 b7 1b 96            |    ....C...    |        occur: "2006-01-01T00:00:22Z" (1136073622) 0x324-0x32b.7 (8)
0x320|                                    00 00 00 17|            ....|        corr: 23 0x32c-0x32f.7 (4)
     |                                               |                |      [23]{}: leap_second_record 0x330-0x33b.7 (12)
0x330|00 00 00 00 49 5c 07 97                        |....I\..        |        occur: "2009-01-01T00:00:23Z" (1230768023) 0x330-0x337.7 (8)
0x330|                        00 00 00 18            |        ....    |        corr: 24 0x338-0x33b.7 (4)
     |                                               |                |      [24]{}: leap_second_record 0x33c-0x347.7 (12)
0x330|                                    00 00 00 00|            ....|        occur: "2012-07-01T00:00:24Z" (1341100824) 0x33c-0x343.7 (8)
0x340|4f ef 93 18                                    |O...            |
0x340|            00 00 00 19                        |    ....        |        corr: 25 0x344-0x347.7 (4)
     |                                               |                |      [25]{}: leap_second_record 0x348-0x353.7 (12)
0x340|                        00 00 00 00 55 93 2d 99|        ....U.-.|        occur: "2015-07-01T00:00:25Z" (1435708825) 0x348-0x34f.7 (8)
0x350|00 00 00 1a                                    |....            |        corr: 26 0x350-0x353.7 (4)
     |                                               |                |      [26]{}: leap_second_record 0x354-0x35f.7 (12)
0x350|            00 00 00 00 58 68 46 9a            |    ....XhF.    |        occur: "2017-01-01T00:00:26Z" (1483228826) 0x354-0x35b.7 (8)
0x350|                                    00 00 00 1b|            ....|        corr: 27 0x35c-0x35f.7 (4)
     |                                               |                |    standard_wall_indicators[0:0]: 0x360-NA (0)
     |                                               |                |    ut_local_indicators[0:0]: 0x360-NA (0)
     |                                               |                |  footer{}: 0x360-0x361.7 (2)
0x360|0a                                             |.               |    nl1: 10 (valid) 0x360-0x360.7 (1)
     |                                               |                |    tz_string: "" 0x361-NA (0)
0x360|   0a|                                         | .|             |    nl2: 10 (valid) 0x361-0x361.7 (1)
