$ fq -d tzif dv CST6CDT
     |00 01 02 03 04 05 06 07 08 09 0a 0b 0c 0d 0e 0f|0123456789abcdef|.{}: CST6CDT (tzif) 0x0-0x983.7 (2436)
     |                                               |                |  v1header{}: 0x0-0x2b.7 (44)
0x000|54 5a 69 66                                    |TZif            |    magic: 0x545a6966 (valid) 0x0-0x3.7 (4)
0x000|            32                                 |    2           |    ver: "2" (0x32) (valid) 0x4-0x4.7 (1)
0x000|               00 00 00 00 00 00 00 00 00 00 00|     ...........|    reserved: raw bits 0x5-0x13.7 (15)
0x010|00 00 00 00                                    |....            |
0x010|            00 00 00 05                        |    ....        |    isutcnt: 5 0x14-0x17.7 (4)
0x010|                        00 00 00 05            |        ....    |    isstdcnt: 5 0x18-0x1b.7 (4)
0x010|                                    00 00 00 1b|            ....|    leapcnt: 27 0x1c-0x1f.7 (4)
0x020|00 00 00 79                                    |...y            |    timecnt: 121 0x20-0x23.7 (4)
0x020|            00 00 00 05                        |    ....        |    typecnt: 5 0x24-0x27.7 (4)
0x020|                        00 00 00 10            |        ....    |    charcnt: 16 0x28-0x2b.7 (4)
     |                                               |                |  v1datablock{}: 0x2c-0x398.7 (877)
     |                                               |                |    transition_times[0:121]: 0x2c-0x20f.7 (484)
0x020|                                    9e a6 2c 80|            ..,.|      [0]: "1918-03-31T08:00:00Z" (-1633276800) transition_time 0x2c-0x2f.7 (4)
0x030|9f ba f9 70                                    |...p            |      [1]: "1918-10-27T07:00:00Z" (-1615136400) transition_time 0x30-0x33.7 (4)
0x030|            a0 86 0e 80                        |    ....        |      [2]: "1919-03-30T08:00:00Z" (-1601827200) transition_time 0x34-0x37.7 (4)
0x030|                        a1 9a db 70            |        ...p    |      [3]: "1919-10-26T07:00:00Z" (-1583686800) transition_time 0x38-0x3b.7 (4)
0x030|                                    cb 88 fe 80|            ....|      [4]: "1942-02-09T08:00:00Z" (-880214400) transition_time 0x3c-0x3f.7 (4)
0x040|d2 23 f4 70                                    |.#.p            |      [5]: "1945-08-14T23:00:00Z" (-769395600) transition_time 0x40-0x43.7 (4)
0x040|            d2 61 09 f0                        |    .a..        |      [6]: "1945-09-30T07:00:00Z" (-765392400) transition_time 0x44-0x47.7 (4)
0x040|                        fa f8 67 00            |        ..g.    |      [7]: "1967-04-30T08:00:00Z" (-84384000) transition_time 0x48-0x4b.7 (4)
0x040|                                    fb e8 49 f0|            ..I.|      [8]: "1967-10-29T07:00:00Z" (-68662800) transition_time 0x4c-0x4f.7 (4)
0x050|fc d8 49 00                                    |..I.            |      [9]: "1968-04-28T08:00:00Z" (-52934400) transition_time 0x50-0x53.7 (4)
0x050|            fd c8 2b f0                        |    ..+.        |      [10]: "1968-10-27T07:00:00Z" (-37213200) transition_time 0x54-0x57.7 (4)
0x050|                        fe b8 2b 00            |        ..+.    |      [11]: "1969-04-27T08:00:00Z" (-21484800) transition_time 0x58-0x5b.7 (4)
0x050|                                    ff a8 0d f0|            ....|      [12]: "1969-10-26T07:00:00Z" (-5763600) transition_time 0x5c-0x5f.7 (4)
0x060|00 98 0d 00                                    |....            |      [13]: "1970-04-26T08:00:00Z" (9964800) transition_time 0x60-0x63.7 (4)
0x060|            01 87 ef f0                        |    ....        |      [14]: "1970-10-25T07:00:00Z" (25686000) transition_time 0x64-0x67.7 (4)
0x060|                        02 77 ef 00            |        .w..    |      [15]: "1971-04-25T08:00:00Z" (41414400) transition_time 0x68-0x6b.7 (4)
0x060|                                    03 71 0c 70|            .q.p|      [16]: "1971-10-31T07:00:00Z" (57740400) transition_time 0x6c-0x6f.7 (4)
0x070|04 61 0b 80                                    |.a..            |      [17]: "1972-04-30T08:00:00Z" (73468800) transition_time 0x70-0x73.7 (4)
0x070|            05 50 ee 71                        |    .P.q        |      [18]: "1972-10-29T07:00:01Z" (89190001) transition_time 0x74-0x77.7 (4)
0x070|                        06 40 ed 82            |        .@..    |      [19]: "1973-04-29T08:00:02Z" (104918402) transition_time 0x78-0x7b.7 (4)
0x070|                                    07 30 d0 72|            .0.r|      [20]: "1973-10-28T07:00:02Z" (120639602) transition_time 0x7c-0x7f.7 (4)
0x080|07 8d 27 83                                    |..'.            |      [21]: "1974-01-06T08:00:03Z" (126691203) transition_time 0x80-0x83.7 (4)
0x080|            09 10 b2 73                        |    ...s        |      [22]: "1974-10-27T07:00:03Z" (152089203) transition_time 0x84-0x87.7 (4)
0x080|                        09 ad a3 04            |        ....    |      [23]: "1975-02-23T08:00:04Z" (162374404) transition_time 0x88-0x8b.7 (4)
0x080|                                    0a f0 94 74|            ...t|      [24]: "1975-10-26T07:00:04Z" (183538804) transition_time 0x8c-0x8f.7 (4)
0x090|0b e0 93 85                                    |....            |      [25]: "1976-04-25T08:00:05Z" (199267205) transition_time 0x90-0x93.7 (4)
0x090|            0c d9 b0 f5                        |    ....        |      [26]: "1976-10-31T07:00:05Z" (215593205) transition_time 0x94-0x97.7 (4)
0x090|                        0d c0 75 86            |        ..u.    |      [27]: "1977-04-24T08:00:06Z" (230716806) transition_time 0x98-0x9b.7 (4)
0x090|                                    0e b9 92 f6|            ....|      [28]: "1977-10-30T07:00:06Z" (247042806) transition_time 0x9c-0x9f.7 (4)
0x0a0|0f a9 92 07                                    |....            |      [29]: "1978-04-30T08:00:07Z" (262771207) transition_time 0xa0-0xa3.7 (4)
0x0a0|            10 99 74 f7                        |    ..t.        |      [30]: "1978-10-29T07:00:07Z" (278492407) transition_time 0xa4-0xa7.7 (4)
0x0a0|                        11 89 74 08            |        ..t.    |      [31]: "1979-04-29T08:00:08Z" (294220808) transition_time 0xa8-0xab.7 (4)
0x0a0|                                    12 79 56 f8|            .yV.|      [32]: "1979-10-28T07:00:08Z" (309942008) transition_time 0xac-0xaf.7 (4)
0x0b0|13 69 56 09                                    |.iV.            |      [33]: "1980-04-27T08:00:09Z" (325670409) transition_time 0xb0-0xb3.7 (4)
0x0b0|            14 59 38 f9                        |    .Y8.        |      [34]: "1980-10-26T07:00:09Z" (341391609) transition_time 0xb4-0xb7.7 (4)
0x0b0|                        15 49 38 09            |        .I8.    |      [35]: "1981-04-26T08:00:09Z" (357120009) transition_time 0xb8-0xbb.7 (4)
0x0b0|                                    16 39 1a fa|            .9..|      [36]: "1981-10-25T07:00:10Z" (372841210) transition_time 0xbc-0xbf.7 (4)
0x0c0|17 29 1a 0a                                    |.)..            |      [37]: "1982-04-25T08:00:10Z" (388569610) transition_time 0xc0-0xc3.7 (4)
0x0c0|            18 22 37 7b                        |    ."7{        |      [38]: "1982-10-31T07:00:11Z" (404895611) transition_time 0xc4-0xc7.7 (4)
0x0c0|                        19 08 fc 0b            |        ....    |      [39]: "1983-04-24T08:00:11Z" (420019211) transition_time 0xc8-0xcb.7 (4)
0x0c0|                                    1a 02 19 7c|            ...||      [40]: "1983-10-30T07:00:12Z" (436345212) transition_time 0xcc-0xcf.7 (4)
0x0d0|1a f2 18 8c                                    |....            |      [41]: "1984-04-29T08:00:12Z" (452073612) transition_time 0xd0-0xd3.7 (4)
0x0d0|            1b e1 fb 7c                        |    ...|        |      [42]: "1984-10-28T07:00:12Z" (467794812) transition_time 0xd4-0xd7.7 (4)
0x0d0|                        1c d1 fa 8c            |        ....    |      [43]: "1985-04-28T08:00:12Z" (483523212) transition_time 0xd8-0xdb.7 (4)
0x0d0|                                    1d c1 dd 7d|            ...}|      [44]: "1985-10-27T07:00:13Z" (499244413) transition_time 0xdc-0xdf.7 (4)
0x0e0|1e b1 dc 8d                                    |....            |      [45]: "1986-04-27T08:00:13Z" (514972813) transition_time 0xe0-0xe3.7 (4)
0x0e0|            1f a1 bf 7d                        |    ...}        |      [46]: "1986-10-26T07:00:13Z" (530694013) transition_time 0xe4-0xe7.7 (4)
0x0e0|                        20 76 0f 0d            |         v..    |      [47]: "1987-04-05T08:00:13Z" (544608013) transition_time 0xe8-0xeb.7 (4)
0x0e0|                                    21 81 a1 7d|            !..}|      [48]: "1987-10-25T07:00:13Z" (562143613) transition_time 0xec-0xef.7 (4)
0x0f0|22 55 f1 0e                                    |"U..            |      [49]: "1988-04-03T08:00:14Z" (576057614) transition_time 0xf0-0xf3.7 (4)
0x0f0|            23 6a bd fe                        |    #j..        |      [50]: "1988-10-30T07:00:14Z" (594198014) transition_time 0xf4-0xf7.7 (4)
0x0f0|                        24 35 d3 0e            |        $5..    |      [51]: "1989-04-02T08:00:14Z" (607507214) transition_time 0xf8-0xfb.7 (4)
0x0f0|                                    25 4a 9f fe|            %J..|      [52]: "1989-10-29T07:00:14Z" (625647614) transition_time 0xfc-0xff.7 (4)
0x100|26 15 b5 0f                                    |&...            |      [53]: "1990-04-01T08:00:15Z" (638956815) transition_time 0x100-0x103.7 (4)
0x100|            27 2a 81 ff                        |    '*..        |      [54]: "1990-10-28T07:00:15Z" (657097215) transition_time 0x104-0x107.7 (4)
0x100|                        27 fe d1 90            |        '...    |      [55]: "1991-04-07T08:00:16Z" (671011216) transition_time 0x108-0x10b.7 (4)
0x100|                                    29 0a 64 00|            ).d.|      [56]: "1991-10-27T07:00:16Z" (688546816) transition_time 0x10c-0x10f.7 (4)
0x110|29 de b3 90                                    |)...            |      [57]: "1992-04-05T08:00:16Z" (702460816) transition_time 0x110-0x113.7 (4)
0x110|            2a ea 46 01                        |    *.F.        |      [58]: "1992-10-25T07:00:17Z" (719996417) transition_time 0x114-0x117.7 (4)
0x110|                        2b be 95 91            |        +...    |      [59]: "1993-04-04T08:00:17Z" (733910417) transition_time 0x118-0x11b.7 (4)
0x110|                                    2c d3 62 82|            ,.b.|      [60]: "1993-10-31T07:00:18Z" (752050818) transition_time 0x11c-0x11f.7 (4)
0x120|2d 9e 77 92                                    |-.w.            |      [61]: "1994-04-03T08:00:18Z" (765360018) transition_time 0x120-0x123.7 (4)
0x120|            2e b3 44 83                        |    ..D.        |      [62]: "1994-10-30T07:00:19Z" (783500419) transition_time 0x124-0x127.7 (4)
0x120|                        2f 7e 59 93            |        /~Y.    |      [63]: "1995-04-02T08:00:19Z" (796809619) transition_time 0x128-0x12b.7 (4)
0x120|                                    30 93 26 83|            0.&.|      [64]: "1995-10-29T07:00:19Z" (814950019) transition_time 0x12c-0x12f.7 (4)
0x130|31 67 76 14                                    |1gv.            |      [65]: "1996-04-07T08:00:20Z" (828864020) transition_time 0x130-0x133.7 (4)
0x130|            32 73 08 84                        |    2s..        |      [66]: "1996-10-27T07:00:20Z" (846399620) transition_time 0x134-0x137.7 (4)
0x130|                        33 47 58 14            |        3GX.    |      [67]: "1997-04-06T08:00:20Z" (860313620) transition_time 0x138-0x13b.7 (4)
0x130|                                    34 52 ea 85|            4R..|      [68]: "1997-10-26T07:00:21Z" (877849221) transition_time 0x13c-0x13f.7 (4)
0x140|35 27 3a 15                                    |5':.            |      [69]: "1998-04-05T08:00:21Z" (891763221) transition_time 0x140-0x143.7 (4)
0x140|            36 32 cc 85                        |    62..        |      [70]: "1998-10-25T07:00:21Z" (909298821) transition_time 0x144-0x147.7 (4)
0x140|                        37 07 1c 16            |        7...    |      [71]: "1999-04-04T08:00:22Z" (923212822) transition_time 0x148-0x14b.7 (4)
0x140|                                    38 1b e9 06|            8...|      [72]: "1999-10-31T07:00:22Z" (941353222) transition_time 0x14c-0x14f.7 (4)
0x150|38 e6 fe 16                                    |8...            |      [73]: "2000-04-02T08:00:22Z" (954662422) transition_time 0x150-0x153.7 (4)
0x150|            39 fb cb 06                        |    9...        |      [74]: "2000-10-29T07:00:22Z" (972802822) transition_time 0x154-0x157.7 (4)
0x150|                        3a c6 e0 16            |        :...    |      [75]: "2001-04-01T08:00:22Z" (986112022) transition_time 0x158-0x15b.7 (4)
0x150|                                    3b db ad 06|            ;...|      [76]: "2001-10-28T07:00:22Z" (1004252422) transition_time 0x15c-0x15f.7 (4)
0x160|3c af fc 96                                    |<...            |      [77]: "2002-04-07T08:00:22Z" (1018166422) transition_time 0x160-0x163.7 (4)
0x160|            3d bb 8f 06                        |    =...        |      [78]: "2002-10-27T07:00:22Z" (1035702022) transition_time 0x164-0x167.7 (4)
0x160|                        3e 8f de 96            |        >...    |      [79]: "2003-04-06T08:00:22Z" (1049616022) transition_time 0x168-0x16b.7 (4)
0x160|                                    3f 9b 71 06|            ?.q.|      [80]: "2003-10-26T07:00:22Z" (1067151622) transition_time 0x16c-0x16f.7 (4)
0x170|40 6f c0 96                                    |@o..            |      [81]: "2004-04-04T08:00:22Z" (1081065622) transition_time 0x170-0x173.7 (4)
0x170|            41 84 8d 86                        |    A...        |      [82]: "2004-10-31T07:00:22Z" (1099206022) transition_time 0x174-0x177.7 (4)
0x170|                        42 4f a2 96            |        BO..    |      [83]: "2005-04-03T08:00:22Z" (1112515222) transition_time 0x178-0x17b.7 (4)
0x170|                                    43 64 6f 86|            Cdo.|      [84]: "2005-10-30T07:00:22Z" (1130655622) transition_time 0x17c-0x17f.7 (4)
0x180|44 2f 84 97                                    |D/..            |      [85]: "2006-04-02T08:00:23Z" (1143964823) transition_time 0x180-0x183.7 (4)
0x180|            45 44 51 87                        |    EDQ.        |      [86]: "2006-10-29T07:00:23Z" (1162105223) transition_time 0x184-0x187.7 (4)
0x180|                        45 f3 b7 17            |        E...    |      [87]: "2007-03-11T08:00:23Z" (1173600023) transition_time 0x188-0x18b.7 (4)
0x180|                                    47 2d 6e 07|            G-n.|      [88]: "2007-11-04T07:00:23Z" (1194159623) transition_time 0x18c-0x18f.7 (4)
0x190|47 d3 99 17                                    |G...            |      [89]: "2008-03-09T08:00:23Z" (1205049623) transition_time 0x190-0x193.7 (4)
0x190|            49 0d 50 07                        |    I.P.        |      [90]: "2008-11-02T07:00:23Z" (1225609223) transition_time 0x194-0x197.7 (4)
0x190|                        49 b3 7b 18            |        I.{.    |      [91]: "2009-03-08T08:00:24Z" (1236499224) transition_time 0x198-0x19b.7 (4)
0x190|                                    4a ed 32 08|            J.2.|      [92]: "2009-11-01T07:00:24Z" (1257058824) transition_time 0x19c-0x19f.7 (4)
0x1a0|4b 9c 97 98                                    |K...            |      [93]: "2010-03-14T08:00:24Z" (1268553624) transition_time 0x1a0-0x1a3.7 (4)
0x1a0|            4c d6 4e 88                        |    L.N.        |      [94]: "2010-11-07T07:00:24Z" (1289113224) transition_time 0x1a4-0x1a7.7 (4)
0x1a0|                        4d 7c 79 98            |        M|y.    |      [95]: "2011-03-13T08:00:24Z" (1300003224) transition_time 0x1a8-0x1ab.7 (4)
0x1a0|                                    4e b6 30 88|            N.0.|      [96]: "2011-11-06T07:00:24Z" (1320562824) transition_time 0x1ac-0x1af.7 (4)
0x1b0|4f 5c 5b 98                                    |O\[.            |      [97]: "2012-03-11T08:00:24Z" (1331452824) transition_time 0x1b0-0x1b3.7 (4)
0x1b0|            50 96 12 89                        |    P...        |      [98]: "2012-11-04T07:00:25Z" (1352012425) transition_time 0x1b4-0x1b7.7 (4)
0x1b0|                        51 3c 3d 99            |        Q<=.    |      [99]: "2013-03-10T08:00:25Z" (1362902425) transition_time 0x1b8-0x1bb.7 (4)
0x1b0|                                    52 75 f4 89|            Ru..|      [100]: "2013-11-03T07:00:25Z" (1383462025) transition_time 0x1bc-0x1bf.7 (4)
0x1c0|53 1c 1f 99                                    |S...            |      [101]: "2014-03-09T08:00:25Z" (1394352025) transition_time 0x1c0-0x1c3.7 (4)
0x1c0|            54 55 d6 89                        |    TU..        |      [102]: "2014-11-02T07:00:25Z" (1414911625) transition_time 0x1c4-0x1c7.7 (4)
0x1c0|                        54 fc 01 99            |        T...    |      [103]: "2015-03-08T08:00:25Z" (1425801625) transition_time 0x1c8-0x1cb.7 (4)
0x1c0|                                    56 35 b8 8a|            V5..|      [104]: "2015-11-01T07:00:26Z" (1446361226) transition_time 0x1cc-0x1cf.7 (4)
0x1d0|56 e5 1e 1a                                    |V...            |      [105]: "2016-03-13T08:00:26Z" (1457856026) transition_time 0x1d0-0x1d3.7 (4)
0x1d0|            58 1e d5 0a                        |    X...        |      [106]: "2016-11-06T07:00:26Z" (1478415626) transition_time 0x1d4-0x1d7.7 (4)
0x1d0|                        58 c5 00 1b            |        X...    |      [107]: "2017-03-12T08:00:27Z" (1489305627) transition_time 0x1d8-0x1db.7 (4)
0x1d0|                                    59 fe b7 0b|            Y...|      [108]: "2017-11-05T07:00:27Z" (1509865227) transition_time 0x1dc-0x1df.7 (4)
0x1e0|5a a4 e2 1b                                    |Z...            |      [109]: "2018-03-11T08:00:27Z" (1520755227) transition_time 0x1e0-0x1e3.7 (4)
0x1e0|            5b de 99 0b                        |    [...        |      [110]: "2018-11-04T07:00:27Z" (1541314827) transition_time 0x1e4-0x1e7.7 (4)
0x1e0|                        5c 84 c4 1b            |        \...    |      [111]: "2019-03-10T08:00:27Z" (1552204827) transition_time 0x1e8-0x1eb.7 (4)
0x1e0|                                    5d be 7b 0b|            ].{.|      [112]: "2019-11-03T07:00:27Z" (1572764427) transition_time 0x1ec-0x1ef.7 (4)
0x1f0|5e 64 a6 1b                                    |^d..            |      [113]: "2020-03-08T08:00:27Z" (1583654427) transition_time 0x1f0-0x1f3.7 (4)
0x1f0|            5f 9e 5d 0b                        |    _.].        |      [114]: "2020-11-01T07:00:27Z" (1604214027) transition_time 0x1f4-0x1f7.7 (4)
0x1f0|                        60 4d c2 9b            |        `M..    |      [115]: "2021-03-14T08:00:27Z" (1615708827) transition_time 0x1f8-0x1fb.7 (4)
0x1f0|                                    61 87 79 8b|            a.y.|      [116]: "2021-11-07T07:00:27Z" (1636268427) transition_time 0x1fc-0x1ff.7 (4)
0x200|62 2d a4 9b                                    |b-..            |      [117]: "2022-03-13T08:00:27Z" (1647158427) transition_time 0x200-0x203.7 (4)
0x200|            63 67 5b 8b                        |    cg[.        |      [118]: "2022-11-06T07:00:27Z" (1667718027) transition_time 0x204-0x207.7 (4)
0x200|                        64 0d 86 9b            |        d...    |      [119]: "2023-03-12T08:00:27Z" (1678608027) transition_time 0x208-0x20b.7 (4)
0x200|                                    64 9b 78 1b|            d.x.|      [120]: "2023-06-28T00:00:27Z" (1687910427) transition_time 0x20c-0x20f.7 (4)
     |                                               |                |    transition_types[0:121]: 0x210-0x288.7 (121)
0x210|01                                             |.               |      [0]: 1 transition_type 0x210-0x210.7 (1)
0x210|   00                                          | .              |      [1]: 0 transition_type 0x211-0x211.7 (1)
0x210|      01                                       |  .             |      [2]: 1 transition_type 0x212-0x212.7 (1)
0x210|         00                                    |   .            |      [3]: 0 transition_type 0x213-0x213.7 (1)
0x210|            02                                 |    .           |      [4]: 2 transition_type 0x214-0x214.7 (1)
0x210|               03                              |     .          |      [5]: 3 transition_type 0x215-0x215.7 (1)
0x210|                  00                           |      .         |      [6]: 0 transition_type 0x216-0x216.7 (1)
0x210|                     01                        |       .        |      [7]: 1 transition_type 0x217-0x217.7 (1)
0x210|                        00                     |        .       |      [8]: 0 transition_type 0x218-0x218.7 (1)
0x210|                           01                  |         .      |      [9]: 1 transition_type 0x219-0x219.7 (1)
0x210|                              00               |          .     |      [10]: 0 transition_type 0x21a-0x21a.7 (1)
0x210|                                 01            |           .    |      [11]: 1 transition_type 0x21b-0x21b.7 (1)
0x210|                                    00         |            .   |      [12]: 0 transition_type 0x21c-0x21c.7 (1)
0x210|                                       01      |             .  |      [13]: 1 transition_type 0x21d-0x21d.7 (1)
0x210|                                          00   |              . |      [14]: 0 transition_type 0x21e-0x21e.7 (1)
0x210|                                             01|               .|      [15]: 1 transition_type 0x21f-0x21f.7 (1)
0x220|00                                             |.               |      [16]: 0 transition_type 0x220-0x220.7 (1)
0x220|   01                                          | .              |      [17]: 1 transition_type 0x221-0x221.7 (1)
0x220|      00                                       |  .             |      [18]: 0 transition_type 0x222-0x222.7 (1)
0x220|         01                                    |   .            |      [19]: 1 transition_type 0x223-0x223.7 (1)
0x220|            00                                 |    .           |      [20]: 0 transition_type 0x224-0x224.7 (1)
0x220|               01                              |     .          |      [21]: 1 transition_type 0x225-0x225.7 (1)
0x220|                  00                           |      .         |      [22]: 0 transition_type 0x226-0x226.7 (1)
0x220|                     01                        |       .        |      [23]: 1 transition_type 0x227-0x227.7 (1)
0x220|                        00                     |        .       |      [24]: 0 transition_type 0x228-0x228.7 (1)
0x220|                           01                  |         .      |      [25]: 1 transition_type 0x229-0x229.7 (1)
0x220|                              00               |          .     |      [26]: 0 transition_type 0x22a-0x22a.7 (1)
0x220|                                 01            |           .    |      [27]: 1 transition_type 0x22b-0x22b.7 (1)
0x220|                                    00         |            .   |      [28]: 0 transition_type 0x22c-0x22c.7 (1)
0x220|                                       01      |             .  |      [29]: 1 transition_type 0x22d-0x22d.7 (1)
0x220|                                          00   |              . |      [30]: 0 transition_type 0x22e-0x22e.7 (1)
0x220|                                             01|               .|      [31]: 1 transition_type 0x22f-0x22f.7 (1)
0x230|00                                             |.               |      [32]: 0 transition_type 0x230-0x230.7 (1)
0x230|   01                                          | .              |      [33]: 1 transition_type 0x231-0x231.7 (1)
0x230|      00                                       |  .             |      [34]: 0 transition_type 0x232-0x232.7 (1)
0x230|         01                                    |   .            |      [35]: 1 transition_type 0x233-0x233.7 (1)
0x230|            00                                 |    .           |      [36]: 0 transition_type 0x234-0x234.7 (1)
0x230|               01                              |     .          |      [37]: 1 transition_type 0x235-0x235.7 (1)
0x230|                  00                           |      .         |      [38]: 0 transition_type 0x236-0x236.7 (1)
0x230|                     01                        |       .        |      [39]: 1 transition_type 0x237-0x237.7 (1)
0x230|                        00                     |        .       |      [40]: 0 transition_type 0x238-0x238.7 (1)
0x230|                           01                  |         .      |      [41]: 1 transition_type 0x239-0x239.7 (1)
0x230|                              00               |          .     |      [42]: 0 transition_type 0x23a-0x23a.7 (1)
0x230|                                 01            |           .    |      [43]: 1 transition_type 0x23b-0x23b.7 (1)
0x230|                                    00         |            .   |      [44]: 0 transition_type 0x23c-0x23c.7 (1)
0x230|                                       01      |             .  |      [45]: 1 transition_type 0x23d-0x23d.7 (1)
0x230|                                          00   |              . |      [46]: 0 transition_type 0x23e-0x23e.7 (1)
0x230|                                             01|               .|      [47]: 1 transition_type 0x23f-0x23f.7 (1)
0x240|00                                             |.               |      [48]: 0 transition_type 0x240-0x240.7 (1)
0x240|   01                                          | .              |      [49]: 1 transition_type 0x241-0x241.7 (1)
0x240|      00                                       |  .             |      [50]: 0 transition_type 0x242-0x242.7 (1)
0x240|         01                                    |   .            |      [51]: 1 transition_type 0x243-0x243.7 (1)
0x240|            00                                 |    .           |      [52]: 0 transition_type 0x244-0x244.7 (1)
0x240|               01                              |     .          |      [53]: 1 transition_type 0x245-0x245.7 (1)
0x240|                  00                           |      .         |      [54]: 0 transition_type 0x246-0x246.7 (1)
0x240|                     01                        |       .        |      [55]: 1 transition_type 0x247-0x247.7 (1)
0x240|                        00                     |        .       |      [56]: 0 transition_type 0x248-0x248.7 (1)
0x240|                           01                  |         .      |      [57]: 1 transition_type 0x249-0x249.7 (1)
0x240|                              00               |          .     |      [58]: 0 transition_type 0x24a-0x24a.7 (1)
0x240|                                 01            |           .    |      [59]: 1 transition_type 0x24b-0x24b.7 (1)
0x240|                                    00         |            .   |      [60]: 0 transition_type 0x24c-0x24c.7 (1)
0x240|                                       01      |             .  |      [61]: 1 transition_type 0x24d-0x24d.7 (1)
0x240|                                          00   |              . |      [62]: 0 transition_type 0x24e-0x24e.7 (1)
0x240|                                             01|               .|      [63]: 1 transition_type 0x24f-0x24f.7 (1)
0x250|00                                             |.               |      [64]: 0 transition_type 0x250-0x250.7 (1)
0x250|   01                                          | .              |      [65]: 1 transition_type 0x251-0x251.7 (1)
0x250|      00                                       |  .             |      [66]: 0 transition_type 0x252-0x252.7 (1)
0x250|         01                                    |   .            |      [67]: 1 transition_type 0x253-0x253.7 (1)
0x250|            00                                 |    .           |      [68]: 0 transition_type 0x254-0x254.7 (1)
0x250|               01                              |     .          |      [69]: 1 transition_type 0x255-0x255.7 (1)
0x250|                  00                           |      .         |      [70]: 0 transition_type 0x256-0x256.7 (1)
0x250|                     01                        |       .        |      [71]: 1 transition_type 0x257-0x257.7 (1)
0x250|                        00                     |        .       |      [72]: 0 transition_type 0x258-0x258.7 (1)
0x250|                           01                  |         .      |      [73]: 1 transition_type 0x259-0x259.7 (1)
0x250|                              00               |          .     |      [74]: 0 transition_type 0x25a-0x25a.7 (1)
0x250|                                 01            |           .    |      [75]: 1 transition_type 0x25b-0x25b.7 (1)
0x250|                                    00         |            .   |      [76]: 0 transition_type 0x25c-0x25c.7 (1)
0x250|                                       01      |             .  |      [77]: 1 transition_type 0x25d-0x25d.7 (1)
0x250|                                          00   |              . |      [78]: 0 transition_type 0x25e-0x25e.7 (1)
0x250|                                             01|               .|      [79]: 1 transition_type 0x25f-0x25f.7 (1)
0x260|00                                             |.               |      [80]: 0 transition_type 0x260-0x260.7 (1)
0x260|   01                                          | .              |      [81]: 1 transition_type 0x261-0x261.7 (1)
0x260|      00                                       |  .             |      [82]: 0 transition_type 0x262-0x262.7 (1)
0x260|         01                                    |   .            |      [83]: 1 transition_type 0x263-0x263.7 (1)
0x260|            00                                 |    .           |      [84]: 0 transition_type 0x264-0x264.7 (1)
0x260|               01                              |     .          |      [85]: 1 transition_type 0x265-0x265.7 (1)
0x260|                  00                           |      .         |      [86]: 0 transition_type 0x266-0x266.7 (1)
0x260|                     01                        |       .        |      [87]: 1 transition_type 0x267-0x267.7 (1)
0x260|                        00                     |        .       |      [88]: 0 transition_type 0x268-0x268.7 (1)
0x260|                           01                  |         .      |      [89]: 1 transition_type 0x269-0x269.7 (1)
0x260|                              00               |          .     |      [90]: 0 transition_type 0x26a-0x26a.7 (1)
0x260|                                 01            |           .    |      [91]: 1 transition_type 0x26b-0x26b.7 (1)
0x260|                                    00         |            .   |      [92]: 0 transition_type 0x26c-0x26c.7 (1)
0x260|                                       01      |             .  |      [93]: 1 transition_type 0x26d-0x26d.7 (1)
0x260|                                          00   |              . |      [94]: 0 transition_type 0x26e-0x26e.7 (1)
0x260|                                             01|               .|      [95]: 1 transition_type 0x26f-0x26f.7 (1)
0x270|00                                             |.               |      [96]: 0 transition_type 0x270-0x270.7 (1)
0x270|   01                                          | .              |      [97]: 1 transition_type 0x271-0x271.7 (1)
0x270|      00                                       |  .             |      [98]: 0 transition_type 0x272-0x272.7 (1)
0x270|         01                                    |   .            |      [99]: 1 transition_type 0x273-0x273.7 (1)
0x270|            00                                 |    .           |      [100]: 0 transition_type 0x274-0x274.7 (1)
0x270|               01                              |     .          |      [101]: 1 transition_type 0x275-0x275.7 (1)
0x270|                  00                           |      .         |      [102]: 0 transition_type 0x276-0x276.7 (1)
0x270|                     01                        |       .        |      [103]: 1 transition_type 0x277-0x277.7 (1)
0x270|                        00                     |        .       |      [104]: 0 transition_type 0x278-0x278.7 (1)
0x270|                           01                  |         .      |      [105]: 1 transition_type 0x279-0x279.7 (1)
0x270|                              00               |          .     |      [106]: 0 transition_type 0x27a-0x27a.7 (1)
0x270|                                 01            |           .    |      [107]: 1 transition_type 0x27b-0x27b.7 (1)
0x270|                                    00         |            .   |      [108]: 0 transition_type 0x27c-0x27c.7 (1)
0x270|                                       01      |             .  |      [109]: 1 transition_type 0x27d-0x27d.7 (1)
0x270|                                          00   |              . |      [110]: 0 transition_type 0x27e-0x27e.7 (1)
0x270|                                             01|               .|      [111]: 1 transition_type 0x27f-0x27f.7 (1)
0x280|00                                             |.               |      [112]: 0 transition_type 0x280-0x280.7 (1)
0x280|   01                                          | .              |      [113]: 1 transition_type 0x281-0x281.7 (1)
0x280|      00                                       |  .             |      [114]: 0 transition_type 0x282-0x282.7 (1)
0x280|         01                                    |   .            |      [115]: 1 transition_type 0x283-0x283.7 (1)
0x280|            00                                 |    .           |      [116]: 0 transition_type 0x284-0x284.7 (1)
0x280|               01                              |     .          |      [117]: 1 transition_type 0x285-0x285.7 (1)
0x280|                  00                           |      .         |      [118]: 0 transition_type 0x286-0x286.7 (1)
0x280|                     01                        |       .        |      [119]: 1 transition_type 0x287-0x287.7 (1)
0x280|                        01                     |        .       |      [120]: 1 transition_type 0x288-0x288.7 (1)
     |                                               |                |    local_time_type_records[0:5]: 0x289-0x2a6.7 (30)
     |                                               |                |      [0]{}: local_time_type 0x289-0x28e.7 (6)
0x280|                           ff ff ab a0         |         ....   |        utoff: -21600 (valid) 0x289-0x28c.7 (4)
0x280|                                       00      |             .  |        dst: 0 (valid) 0x28d-0x28d.7 (1)
0x280|                                          04   |              . |        idx: 4 (valid) 0x28e-0x28e.7 (1)
     |                                               |                |      [1]{}: local_time_type 0x28f-0x294.7 (6)
0x280|                                             ff|               .|        utoff: -18000 (valid) 0x28f-0x292.7 (4)
0x290|ff b9 b0                                       |...             |
0x290|         01                                    |   .            |        dst: 1 (valid) 0x293-0x293.7 (1)
0x290|            00                                 |    .           |        idx: 0 (valid) 0x294-0x294.7 (1)
     |                                               |                |      [2]{}: local_time_type 0x295-0x29a.7 (6)
0x290|               ff ff b9 b0                     |     ....       |        utoff: -18000 (valid) 0x295-0x298.7 (4)
0x290|                           01                  |         .      |        dst: 1 (valid) 0x299-0x299.7 (1)
0x290|                              08               |          .     |        idx: 8 (valid) 0x29a-0x29a.7 (1)
     |                                               |                |      [3]{}: local_time_type 0x29b-0x2a0.7 (6)
0x290|                                 ff ff b9 b0   |           .... |        utoff: -18000 (valid) 0x29b-0x29e.7 (4)
0x290|                                             01|               .|        dst: 1 (valid) 0x29f-0x29f.7 (1)
0x2a0|0c                                             |.               |        idx: 12 (valid) 0x2a0-0x2a0.7 (1)
     |                                               |                |      [4]{}: local_time_type 0x2a1-0x2a6.7 (6)
0x2a0|   ff ff ab a0                                 | ....           |        utoff: -21600 (valid) 0x2a1-0x2a4.7 (4)
0x2a0|               00                              |     .          |        dst: 0 (valid) 0x2a5-0x2a5.7 (1)
0x2a0|                  04                           |      .         |        idx: 4 (valid) 0x2a6-0x2a6.7 (1)
     |                                               |                |    time_zone_designations[0:4]: 0x2a7-0x2b6.7 (16)
0x2a0|                     43 44 54 00               |       CDT.     |      [0]: "CDT" time_zone_designation 0x2a7-0x2aa.7 (4)
0x2a0|                                 43 53 54 00   |           CST. |      [1]: "CST" time_zone_designation 0x2ab-0x2ae.7 (4)
0x2a0|                                             43|               C|      [2]: "CWT" time_zone_designation 0x2af-0x2b2.7 (4)
0x2b0|57 54 00                                       |WT.             |
0x2b0|         43 50 54 00                           |   CPT.         |      [3]: "CPT" time_zone_designation 0x2b3-0x2b6.7 (4)
     |                                               |                |    leap_second_records[0:27]: 0x2b7-0x38e.7 (216)
     |                                               |                |      [0]{}: leap_second_record 0x2b7-0x2be.7 (8)
0x2b0|                     04 b2 58 00               |       ..X.     |        occur: "1972-07-01T00:00:00Z" (78796800) 0x2b7-0x2ba.7 (4)
0x2b0|                                 00 00 00 01   |           .... |        corr: 1 0x2bb-0x2be.7 (4)
     |                                               |                |      [1]{}: leap_second_record 0x2bf-0x2c6.7 (8)
0x2b0|                                             05|               .|        occur: "1973-01-01T00:00:01Z" (94694401) 0x2bf-0x2c2.7 (4)
0x2c0|a4 ec 01                                       |...             |
0x2c0|         00 00 00 02                           |   ....         |        corr: 2 0x2c3-0x2c6.7 (4)
     |                                               |                |      [2]{}: leap_second_record 0x2c7-0x2ce.7 (8)
0x2c0|                     07 86 1f 82               |       ....     |        occur: "1974-01-01T00:00:02Z" (126230402) 0x2c7-0x2ca.7 (4)
0x2c0|                                 00 00 00 03   |           .... |        corr: 3 0x2cb-0x2ce.7 (4)
     |                                               |                |      [3]{}: leap_second_record 0x2cf-0x2d6.7 (8)
0x2c0|                                             09|               .|        occur: "1975-01-01T00:00:03Z" (157766403) 0x2cf-0x2d2.7 (4)
0x2d0|67 53 03                                       |gS.             |
0x2d0|         00 00 00 04                           |   ....         |        corr: 4 0x2d3-0x2d6.7 (4)
     |                                               |                |      [4]{}: leap_second_record 0x2d7-0x2de.7 (8)
0x2d0|                     0b 48 86 84               |       .H..     |        occur: "1976-01-01T00:00:04Z" (189302404) 0x2d7-0x2da.7 (4)
0x2d0|                                 00 00 00 05   |           .... |        corr: 5 0x2db-0x2de.7 (4)
     |                                               |                |      [5]{}: leap_second_record 0x2df-0x2e6.7 (8)
0x2d0|                                             0d|               .|        occur: "1977-01-01T00:00:05Z" (220924805) 0x2df-0x2e2.7 (4)
0x2e0|2b 0b 85                                       |+..             |
0x2e0|         00 00 00 06                           |   ....         |        corr: 6 0x2e3-0x2e6.7 (4)
     |                                               |                |      [6]{}: leap_second_record 0x2e7-0x2ee.7 (8)
0x2e0|                     0f 0c 3f 06               |       ..?.     |        occur: "1978-01-01T00:00:06Z" (252460806) 0x2e7-0x2ea.7 (4)
0x2e0|                                 00 00 00 07   |           .... |        corr: 7 0x2eb-0x2ee.7 (4)
     |                                               |                |      [7]{}: leap_second_record 0x2ef-0x2f6.7 (8)
0x2e0|                                             10|               .|        occur: "1979-01-01T00:00:07Z" (283996807) 0x2ef-0x2f2.7 (4)
0x2f0|ed 72 87                                       |.r.             |
0x2f0|         00 00 00 08                           |   ....         |        corr: 8 0x2f3-0x2f6.7 (4)
     |                                               |                |      [8]{}: leap_second_record 0x2f7-0x2fe.7 (8)
0x2f0|                     12 ce a6 08               |       ....     |        occur: "1980-01-01T00:00:08Z" (315532808) 0x2f7-0x2fa.7 (4)
0x2f0|                                 00 00 00 09   |           .... |        corr: 9 0x2fb-0x2fe.7 (4)
     |                                               |                |      [9]{}: leap_second_record 0x2ff-0x306.7 (8)
0x2f0|                                             15|               .|        occur: "1981-07-01T00:00:09Z" (362793609) 0x2ff-0x302.7 (4)
0x300|9f ca 89                                       |...             |
0x300|         00 00 00 0a                           |   ....         |        corr: 10 0x303-0x306.7 (4)
     |                                               |                |      [10]{}: leap_second_record 0x307-0x30e.7 (8)
0x300|                     17 80 fe 0a               |       ....     |        occur: "1982-07-01T00:00:10Z" (394329610) 0x307-0x30a.7 (4)
0x300|                                 00 00 00 0b   |           .... |        corr: 11 0x30b-0x30e.7 (4)
     |                                               |                |      [11]{}: leap_second_record 0x30f-0x316.7 (8)
0x300|                                             19|               .|        occur: "1983-07-01T00:00:11Z" (425865611) 0x30f-0x312.7 (4)
0x310|62 31 8b                                       |b1.             |
0x310|         00 00 00 0c                           |   ....         |        corr: 12 0x313-0x316.7 (4)
     |                                               |                |      [12]{}: leap_second_record 0x317-0x31e.7 (8)
0x310|                     1d 25 ea 0c               |       .%..     |        occur: "1985-07-01T00:00:12Z" (489024012) 0x317-0x31a.7 (4)
0x310|                                 00 00 00 0d   |           .... |        corr: 13 0x31b-0x31e.7 (4)
     |                                               |                |      [13]{}: leap_second_record 0x31f-0x326.7 (8)
0x310|                                             21|               !|        occur: "1988-01-01T00:00:13Z" (567993613) 0x31f-0x322.7 (4)
0x320|da e5 0d                                       |...             |
0x320|         00 00 00 0e                           |   ....         |        corr: 14 0x323-0x326.7 (4)
     |                                               |                |      [14]{}: leap_second_record 0x327-0x32e.7 (8)
0x320|                     25 9e 9d 8e               |       %...     |        occur: "1990-01-01T00:00:14Z" (631152014) 0x327-0x32a.7 (4)
0x320|                                 00 00 00 0f   |           .... |        corr: 15 0x32b-0x32e.7 (4)
     |                                               |                |      [15]{}: leap_second_record 0x32f-0x336.7 (8)
0x320|                                             27|               '|        occur: "1991-01-01T00:00:15Z" (662688015) 0x32f-0x332.7 (4)
0x330|7f d1 0f                                       |...             |
0x330|         00 00 00 10                           |   ....         |        corr: 16 0x333-0x336.7 (4)
     |                                               |                |      [16]{}: leap_second_record 0x337-0x33e.7 (8)
0x330|                     2a 50 f5 90               |       *P..     |        occur: "1992-07-01T00:00:16Z" (709948816) 0x337-0x33a.7 (4)
0x330|                                 00 00 00 11   |           .... |        corr: 17 0x33b-0x33e.7 (4)
     |                                               |                |      [17]{}: leap_second_record 0x33f-0x346.7 (8)
0x330|                                             2c|               ,|        occur: "1993-07-01T00:00:17Z" (741484817) 0x33f-0x342.7 (4)
0x340|32 29 11                                       |2).             |
0x340|         00 00 00 12                           |   ....         |        corr: 18 0x343-0x346.7 (4)
     |                                               |                |      [18]{}: leap_second_record 0x347-0x34e.7 (8)
0x340|                     2e 13 5c 92               |       ..\.     |        occur: "1994-07-01T00:00:18Z" (773020818) 0x347-0x34a.7 (4)
0x340|                                 00 00 00 13   |           .... |        corr: 19 0x34b-0x34e.7 (4)
     |                                               |                |      [19]{}: leap_second_record 0x34f-0x356.7 (8)
0x340|                                             30|               0|        occur: "1996-01-01T00:00:19Z" (820454419) 0x34f-0x352.7 (4)
0x350|e7 24 13                                       |.$.             |
0x350|         00 00 00 14                           |   ....         |        corr: 20 0x353-0x356.7 (4)
     |                                               |                |      [20]{}: leap_second_record 0x357-0x35e.7 (8)
0x350|                     33 b8 48 94               |       3.H.     |        occur: "1997-07-01T00:00:20Z" (867715220) 0x357-0x35a.7 (4)
0x350|                                 00 00 00 15   |           .... |        corr: 21 0x35b-0x35e.7 (4)
     |                                               |                |      [21]{}: leap_second_record 0x35f-0x366.7 (8)
0x350|                                             36|               6|        occur: "1999-01-01T00:00:21Z" (915148821) 0x35f-0x362.7 (4)
0x360|8c 10 15                                       |...             |
0x360|         00 00 00 16                           |   ....         |        corr: 22 0x363-0x366.7 (4)
     |                                               |                |      [22]{}: leap_second_record 0x367-0x36e.7 (8)
0x360|                     43 b7 1b 96               |       C...     |        occur: "2006-01-01T00:00:22Z" (1136073622) 0x367-0x36a.7 (4)
0x360|                                 00 00 00 17   |           .... |        corr: 23 0x36b-0x36e.7 (4)
     |                                               |                |      [23]{}: leap_second_record 0x36f-0x376.7 (8)
0x360|                                             49|               I|        occur: "2009-01-01T00:00:23Z" (1230768023) 0x36f-0x372.7 (4)
0x370|5c 07 97                                       |\..             |
0x370|         00 00 00 18                           |   ....         |        corr: 24 0x373-0x376.7 (4)
     |                                               |                |      [24]{}: leap_second_record 0x377-0x37e.7 (8)
0x370|                     4f ef 93 18               |       O...     |        occur: "2012-07-01T00:00:24Z" (1341100824) 0x377-0x37a.7 (4)
0x370|                                 00 00 00 19   |           .... |        corr: 25 0x37b-0x37e.7 (4)
     |                                               |                |      [25]{}: leap_second_record 0x37f-0x386.7 (8)
0x370|                                             55|               U|        occur: "2015-07-01T00:00:25Z" (1435708825) 0x37f-0x382.7 (4)
0x380|93 2d 99                                       |.-.             |
0x380|         00 00 00 1a                           |   ....         |        corr: 26 0x383-0x386.7 (4)
     |                                               |                |      [26]{}: leap_second_record 0x387-0x38e.7 (8)
0x380|                     58 68 46 9a               |       XhF.     |        occur: "2017-01-01T00:00:26Z" (1483228826) 0x387-0x38a.7 (4)
0x380|                                 00 00 00 1b   |           .... |        corr: 27 0x38b-0x38e.7 (4)
     |                                               |                |    standard_wall_indicators[0:5]: 0x38f-0x393.7 (5)
0x380|                                             00|               .|      [0]: 0 standard_wall_indicator (valid) 0x38f-0x38f.7 (1)
0x390|00                                             |.               |      [1]: 0 standard_wall_indicator (valid) 0x390-0x390.7 (1)
0x390|   00                                          | .              |      [2]: 0 standard_wall_indicator (valid) 0x391-0x391.7 (1)
0x390|      01                                       |  .             |      [3]: 1 standard_wall_indicator (valid) 0x392-0x392.7 (1)
0x390|         00                                    |   .            |      [4]: 0 standard_wall_indicator (valid) 0x393-0x393.7 (1)
     |                                               |                |    ut_local_indicators[0:5]: 0x394-0x398.7 (5)
0x390|            00                                 |    .           |      [0]: 0 ut_local_indicator (valid) 0x394-0x394.7 (1)
0x390|               00                              |     .          |      [1]: 0 ut_local_indicator (valid) 0x395-0x395.7 (1)
0x390|                  00                           |      .         |      [2]: 0 ut_local_indicator (valid) 0x396-0x396.7 (1)
0x390|                     01                        |       .        |      [3]: 1 ut_local_indicator (valid) 0x397-0x397.7 (1)
0x390|                        00                     |        .       |      [4]: 0 ut_local_indicator (valid) 0x398-0x398.7 (1)
     |                                               |                |  v2plusheader{}: 0x399-0x3c4.7 (44)
0x390|                           54 5a 69 66         |         TZif   |    magic: 0x545a6966 (valid) 0x399-0x39c.7 (4)
0x390|                                       32      |             2  |    ver: "2" (0x32) (valid) 0x39d-0x39d.7 (1)
0x390|                                          00 00|              ..|    reserved: raw bits 0x39e-0x3ac.7 (15)
0x3a0|00 00 00 00 00 00 00 00 00 00 00 00 00         |.............   |
0x3a0|                                       00 00 00|             ...|    isutcnt: 5 0x3ad-0x3b0.7 (4)
0x3b0|05                                             |.               |
0x3b0|   00 00 00 05                                 | ....           |    isstdcnt: 5 0x3b1-0x3b4.7 (4)
0x3b0|               00 00 00 1b                     |     ....       |    leapcnt: 27 0x3b5-0x3b8.7 (4)
0x3b0|                           00 00 00 79         |         ...y   |    timecnt: 121 0x3b9-0x3bc.7 (4)
0x3b0|                                       00 00 00|             ...|    typecnt: 5 0x3bd-0x3c0.7 (4)
0x3c0|05                                             |.               |
0x3c0|   00 00 00 10                                 | ....           |    charcnt: 16 0x3c1-0x3c4.7 (4)
     |                                               |                |  v2plusdatablock{}: 0x3c5-0x981.7 (1469)
     |                                               |                |    transition_times[0:121]: 0x3c5-0x78c.7 (968)
0x3c0|               ff ff ff ff 9e a6 2c 80         |     ......,.   |      [0]: "1918-03-31T08:00:00Z" (-1633276800) transition_time 0x3c5-0x3cc.7 (8)
0x3c0|                                       ff ff ff|             ...|      [1]: "1918-10-27T07:00:00Z" (-1615136400) transition_time 0x3cd-0x3d4.7 (8)
0x3d0|ff 9f ba f9 70                                 |....p           |
0x3d0|               ff ff ff ff a0 86 0e 80         |     ........   |      [2]: "1919-03-30T08:00:00Z" (-1601827200) transition_time 0x3d5-0x3dc.7 (8)
0x3d0|                                       ff ff ff|             ...|      [3]: "1919-10-26T07:00:00Z" (-1583686800) transition_time 0x3dd-0x3e4.7 (8)
0x3e0|ff a1 9a db 70                                 |....p           |
0x3e0|               ff ff ff ff cb 88 fe 80         |     ........   |      [4]: "1942-02-09T08:00:00Z" (-880214400) transition_time 0x3e5-0x3ec.7 (8)
0x3e0|                                       ff ff ff|             ...|      [5]: "1945-08-14T23:00:00Z" (-769395600) transition_time 0x3ed-0x3f4.7 (8)
0x3f0|ff d2 23 f4 70                                 |..#.p           |
0x3f0|               ff ff ff ff d2 61 09 f0         |     .....a..   |      [6]: "1945-09-30T07:00:00Z" (-765392400) transition_time 0x3f5-0x3fc.7 (8)
0x3f0|                                       ff ff ff|             ...|      [7]: "1967-04-30T08:00:00Z" (-84384000) transition_time 0x3fd-0x404.7 (8)
0x400|ff fa f8 67 00                                 |...g.           |
0x400|               ff ff ff ff fb e8 49 f0         |     ......I.   |      [8]: "1967-10-29T07:00:00Z" (-68662800) transition_time 0x405-0x40c.7 (8)
0x400|                                       ff ff ff|             ...|      [9]: "1968-04-28T08:00:00Z" (-52934400) transition_time 0x40d-0x414.7 (8)
0x410|ff fc d8 49 00                                 |...I.           |
0x410|               ff ff ff ff fd c8 2b f0         |     ......+.   |      [10]: "1968-10-27T07:00:00Z" (-37213200) transition_time 0x415-0x41c.7 (8)
0x410|                                       ff ff ff|             ...|      [11]: "1969-04-27T08:00:00Z" (-21484800) transition_time 0x41d-0x424.7 (8)
0x420|ff fe b8 2b 00                                 |...+.           |
0x420|               ff ff ff ff ff a8 0d f0         |     ........   |      [12]: "1969-10-26T07:00:00Z" (-5763600) transition_time 0x425-0x42c.7 (8)
0x420|                                       00 00 00|             ...|      [13]: "1970-04-26T08:00:00Z" (9964800) transition_time 0x42d-0x434.7 (8)
0x430|00 00 98 0d 00                                 |.....           |
0x430|               00 00 00 00 01 87 ef f0         |     ........   |      [14]: "1970-10-25T07:00:00Z" (25686000) transition_time 0x435-0x43c.7 (8)
0x430|                                       00 00 00|             ...|      [15]: "1971-04-25T08:00:00Z" (41414400) transition_time 0x43d-0x444.7 (8)
0x440|00 02 77 ef 00                                 |..w..           |
0x440|               00 00 00 00 03 71 0c 70         |     .....q.p   |      [16]: "1971-10-31T07:00:00Z" (57740400) transition_time 0x445-0x44c.7 (8)
0x440|                                       00 00 00|             ...|      [17]: "1972-04-30T08:00:00Z" (73468800) transition_time 0x44d-0x454.7 (8)
0x450|00 04 61 0b 80                                 |..a..           |
0x450|               00 00 00 00 05 50 ee 71         |     .....P.q   |      [18]: "1972-10-29T07:00:01Z" (89190001) transition_time 0x455-0x45c.7 (8)
0x450|                                       00 00 00|             ...|      [19]: "1973-04-29T08:00:02Z" (104918402) transition_time 0x45d-0x464.7 (8)
0x460|00 06 40 ed 82                                 |..@..           |
0x460|               00 00 00 00 07 30 d0 72         |     .....0.r   |      [20]: "1973-10-28T07:00:02Z" (120639602) transition_time 0x465-0x46c.7 (8)
0x460|                                       00 00 00|             ...|      [21]: "1974-01-06T08:00:03Z" (126691203) transition_time 0x46d-0x474.7 (8)
0x470|00 07 8d 27 83                                 |...'.           |
0x470|               00 00 00 00 09 10 b2 73         |     .......s   |      [22]: "1974-10-27T07:00:03Z" (152089203) transition_time 0x475-0x47c.7 (8)
0x470|                                       00 00 00|             ...|      [23]: "1975-02-23T08:00:04Z" (162374404) transition_time 0x47d-0x484.7 (8)
0x480|00 09 ad a3 04                                 |.....           |
0x480|               00 00 00 00 0a f0 94 74         |     .......t   |      [24]: "1975-10-26T07:00:04Z" (183538804) transition_time 0x485-0x48c.7 (8)
0x480|                                       00 00 00|             ...|      [25]: "1976-04-25T08:00:05Z" (199267205) transition_time 0x48d-0x494.7 (8)
0x490|00 0b e0 93 85                                 |.....           |
0x490|               00 00 00 00 0c d9 b0 f5         |     ........   |      [26]: "1976-10-31T07:00:05Z" (215593205) transition_time 0x495-0x49c.7 (8)
0x490|                                       00 00 00|             ...|      [27]: "1977-04-24T08:00:06Z" (230716806) transition_time 0x49d-0x4a4.7 (8)
0x4a0|00 0d c0 75 86                                 |...u.           |
0x4a0|               00 00 00 00 0e b9 92 f6         |     ........   |      [28]: "1977-10-30T07:00:06Z" (247042806) transition_time 0x4a5-0x4ac.7 (8)
0x4a0|                                       00 00 00|             ...|      [29]: "1978-04-30T08:00:07Z" (262771207) transition_time 0x4ad-0x4b4.7 (8)
0x4b0|00 0f a9 92 07                                 |.....           |
0x4b0|               00 00 00 00 10 99 74 f7         |     ......t.   |      [30]: "1978-10-29T07:00:07Z" (278492407) transition_time 0x4b5-0x4bc.7 (8)
0x4b0|                                       00 00 00|             ...|      [31]: "1979-04-29T08:00:08Z" (294220808) transition_time 0x4bd-0x4c4.7 (8)
0x4c0|00 11 89 74 08                                 |...t.           |
0x4c0|               00 00 00 00 12 79 56 f8         |     .....yV.   |      [32]: "1979-10-28T07:00:08Z" (309942008) transition_time 0x4c5-0x4cc.7 (8)
0x4c0|                                       00 00 00|             ...|      [33]: "1980-04-27T08:00:09Z" (325670409) transition_time 0x4cd-0x4d4.7 (8)
0x4d0|00 13 69 56 09                                 |..iV.           |
0x4d0|               00 00 00 00 14 59 38 f9         |     .....Y8.   |      [34]: "1980-10-26T07:00:09Z" (341391609) transition_time 0x4d5-0x4dc.7 (8)
0x4d0|                                       00 00 00|             ...|      [35]: "1981-04-26T08:00:09Z" (357120009) transition_time 0x4dd-0x4e4.7 (8)
0x4e0|00 15 49 38 09                                 |..I8.           |
0x4e0|               00 00 00 00 16 39 1a fa         |     .....9..   |      [36]: "1981-10-25T07:00:10Z" (372841210) transition_time 0x4e5-0x4ec.7 (8)
0x4e0|                                       00 00 00|             ...|      [37]: "1982-04-25T08:00:10Z" (388569610) transition_time 0x4ed-0x4f4.7 (8)
0x4f0|00 17 29 1a 0a                                 |..)..           |
0x4f0|               00 00 00 00 18 22 37 7b         |     ....."7{   |      [38]: "1982-10-31T07:00:11Z" (404895611) transition_time 0x4f5-0x4fc.7 (8)
0x4f0|                                       00 00 00|             ...|      [39]: "1983-04-24T08:00:11Z" (420019211) transition_time 0x4fd-0x504.7 (8)
0x500|00 19 08 fc 0b                                 |.....           |
0x500|               00 00 00 00 1a 02 19 7c         |     .......|   |      [40]: "1983-10-30T07:00:12Z" (436345212) transition_time 0x505-0x50c.7 (8)
0x500|                                       00 00 00|             ...|      [41]: "1984-04-29T08:00:12Z" (452073612) transition_time 0x50d-0x514.7 (8)
0x510|00 1a f2 18 8c                                 |.....           |
0x510|               00 00 00 00 1b e1 fb 7c         |     .......|   |      [42]: "1984-10-28T07:00:12Z" (467794812) transition_time 0x515-0x51c.7 (8)
0x510|                                       00 00 00|             ...|      [43]: "1985-04-28T08:00:12Z" (483523212) transition_time 0x51d-0x524.7 (8)
0x520|00 1c d1 fa 8c                                 |.....           |
0x520|               00 00 00 00 1d c1 dd 7d         |     .......}   |      [44]: "1985-10-27T07:00:13Z" (499244413) transition_time 0x525-0x52c.7 (8)
0x520|                                       00 00 00|             ...|      [45]: "1986-04-27T08:00:13Z" (514972813) transition_time 0x52d-0x534.7 (8)
0x530|00 1e b1 dc 8d                                 |.....           |
0x530|               00 00 00 00 1f a1 bf 7d         |     .......}   |      [46]: "1986-10-26T07:00:13Z" (530694013) transition_time 0x535-0x53c.7 (8)
0x530|                                       00 00 00|             ...|      [47]: "1987-04-05T08:00:13Z" (544608013) transition_time 0x53d-0x544.7 (8)
0x540|00 20 76 0f 0d                                 |. v..           |
0x540|               00 00 00 00 21 81 a1 7d         |     ....!..}   |      [48]: "1987-10-25T07:00:13Z" (562143613) transition_time 0x545-0x54c.7 (8)
0x540|                                       00 00 00|             ...|      [49]: "1988-04-03T08:00:14Z" (576057614) transition_time 0x54d-0x554.7 (8)
0x550|00 22 55 f1 0e                                 |."U..           |
0x550|               00 00 00 00 23 6a bd fe         |     ....#j..   |      [50]: "1988-10-30T07:00:14Z" (594198014) transition_time 0x555-0x55c.7 (8)
0x550|                                       00 00 00|             ...|      [51]: "1989-04-02T08:00:14Z" (607507214) transition_time 0x55d-0x564.7 (8)
0x560|00 24 35 d3 0e                                 |.$5..           |
0x560|               00 00 00 00 25 4a 9f fe         |     ....%J..   |      [52]: "1989-10-29T07:00:14Z" (625647614) transition_time 0x565-0x56c.7 (8)
0x560|                                       00 00 00|             ...|      [53]: "1990-04-01T08:00:15Z" (638956815) transition_time 0x56d-0x574.7 (8)
0x570|00 26 15 b5 0f                                 |.&...           |
0x570|               00 00 00 00 27 2a 81 ff         |     ....'*..   |      [54]: "1990-10-28T07:00:15Z" (657097215) transition_time 0x575-0x57c.7 (8)
0x570|                                       00 00 00|             ...|      [55]: "1991-04-07T08:00:16Z" (671011216) transition_time 0x57d-0x584.7 (8)
0x580|00 27 fe d1 90                                 |.'...           |
0x580|               00 00 00 00 29 0a 64 00         |     ....).d.   |      [56]: "1991-10-27T07:00:16Z" (688546816) transition_time 0x585-0x58c.7 (8)
0x580|                                       00 00 00|             ...|      [57]: "1992-04-05T08:00:16Z" (702460816) transition_time 0x58d-0x594.7 (8)
0x590|00 29 de b3 90                                 |.)...           |
0x590|               00 00 00 00 2a ea 46 01         |     ....*.F.   |      [58]: "1992-10-25T07:00:17Z" (719996417) transition_time 0x595-0x59c.7 (8)
0x590|                                       00 00 00|             ...|      [59]: "1993-04-04T08:00:17Z" (733910417) transition_time 0x59d-0x5a4.7 (8)
0x5a0|00 2b be 95 91                                 |.+...           |
0x5a0|               00 00 00 00 2c d3 62 82         |     ....,.b.   |      [60]: "1993-10-31T07:00:18Z" (752050818) transition_time 0x5a5-0x5ac.7 (8)
0x5a0|                                       00 00 00|             ...|      [61]: "1994-04-03T08:00:18Z" (765360018) transition_time 0x5ad-0x5b4.7 (8)
0x5b0|00 2d 9e 77 92                                 |.-.w.           |
0x5b0|               00 00 00 00 2e b3 44 83         |     ......D.   |      [62]: "1994-10-30T07:00:19Z" (783500419) transition_time 0x5b5-0x5bc.7 (8)
0x5b0|                                       00 00 00|             ...|      [63]: "1995-04-02T08:00:19Z" (796809619) transition_time 0x5bd-0x5c4.7 (8)
0x5c0|00 2f 7e 59 93                                 |./~Y.           |
0x5c0|               00 00 00 00 30 93 26 83         |     ....0.&.   |      [64]: "1995-10-29T07:00:19Z" (814950019) transition_time 0x5c5-0x5cc.7 (8)
0x5c0|                                       00 00 00|             ...|      [65]: "1996-04-07T08:00:20Z" (828864020) transition_time 0x5cd-0x5d4.7 (8)
0x5d0|00 31 67 76 14                                 |.1gv.           |
0x5d0|               00 00 00 00 32 73 08 84         |     ....2s..   |      [66]: "1996-10-27T07:00:20Z" (846399620) transition_time 0x5d5-0x5dc.7 (8)
0x5d0|                                       00 00 00|             ...|      [67]: "1997-04-06T08:00:20Z" (860313620) transition_time 0x5dd-0x5e4.7 (8)
0x5e0|00 33 47 58 14                                 |.3GX.           |
0x5e0|               00 00 00 00 34 52 ea 85         |     ....4R..   |      [68]: "1997-10-26T07:00:21Z" (877849221) transition_time 0x5e5-0x5ec.7 (8)
0x5e0|                                       00 00 00|             ...|      [69]: "1998-04-05T08:00:21Z" (891763221) transition_time 0x5ed-0x5f4.7 (8)
0x5f0|00 35 27 3a 15                                 |.5':.           |
0x5f0|               00 00 00 00 36 32 cc 85         |     ....62..   |      [70]: "1998-10-25T07:00:21Z" (909298821) transition_time 0x5f5-0x5fc.7 (8)
0x5f0|                                       00 00 00|             ...|      [71]: "1999-04-04T08:00:22Z" (923212822) transition_time 0x5fd-0x604.7 (8)
0x600|00 37 07 1c 16                                 |.7...           |
0x600|               00 00 00 00 38 1b e9 06         |     ....8...   |      [72]: "1999-10-31T07:00:22Z" (941353222) transition_time 0x605-0x60c.7 (8)
0x600|                                       00 00 00|             ...|      [73]: "2000-04-02T08:00:22Z" (954662422) transition_time 0x60d-0x614.7 (8)
0x610|00 38 e6 fe 16                                 |.8...           |
0x610|               00 00 00 00 39 fb cb 06         |     ....9...   |      [74]: "2000-10-29T07:00:22Z" (972802822) transition_time 0x615-0x61c.7 (8)
0x610|                                       00 00 00|             ...|      [75]: "2001-04-01T08:00:22Z" (986112022) transition_time 0x61d-0x624.7 (8)
0x620|00 3a c6 e0 16                                 |.:...           |
0x620|               00 00 00 00 3b db ad 06         |     ....;...   |      [76]: "2001-10-28T07:00:22Z" (1004252422) transition_time 0x625-0x62c.7 (8)
0x620|                                       00 00 00|             ...|      [77]: "2002-04-07T08:00:22Z" (1018166422) transition_time 0x62d-0x634.7 (8)
0x630|00 3c af fc 96                                 |.<...           |
0x630|               00 00 00 00 3d bb 8f 06         |     ....=...   |      [78]: "2002-10-27T07:00:22Z" (1035702022) transition_time 0x635-0x63c.7 (8)
0x630|                                       00 00 00|             ...|      [79]: "2003-04-06T08:00:22Z" (1049616022) transition_time 0x63d-0x644.7 (8)
0x640|00 3e 8f de 96                                 |.>...           |
0x640|               00 00 00 00 3f 9b 71 06         |     ....?.q.   |      [80]: "2003-10-26T07:00:22Z" (1067151622) transition_time 0x645-0x64c.7 (8)
0x640|                                       00 00 00|             ...|      [81]: "2004-04-04T08:00:22Z" (1081065622) transition_time 0x64d-0x654.7 (8)
0x650|00 40 6f c0 96                                 |.@o..           |
0x650|               00 00 00 00 41 84 8d 86         |     ....A...   |      [82]: "2004-10-31T07:00:22Z" (1099206022) transition_time 0x655-0x65c.7 (8)
0x650|                                       00 00 00|             ...|      [83]: "2005-04-03T08:00:22Z" (1112515222) transition_time 0x65d-0x664.7 (8)
0x660|00 42 4f a2 96                                 |.BO..           |
0x660|               00 00 00 00 43 64 6f 86         |     ....Cdo.   |      [84]: "2005-10-30T07:00:22Z" (1130655622) transition_time 0x665-0x66c.7 (8)
0x660|                                       00 00 00|             ...|      [85]: "2006-04-02T08:00:23Z" (1143964823) transition_time 0x66d-0x674.7 (8)
0x670|00 44 2f 84 97                                 |.D/..           |
0x670|               00 00 00 00 45 44 51 87         |     ....EDQ.   |      [86]: "2006-10-29T07:00:23Z" (1162105223) transition_time 0x675-0x67c.7 (8)
0x670|                                       00 00 00|             ...|      [87]: "2007-03-11T08:00:23Z" (1173600023) transition_time 0x67d-0x684.7 (8)
0x680|00 45 f3 b7 17                                 |.E...           |
0x680|               00 00 00 00 47 2d 6e 07         |     ....G-n.   |      [88]: "2007-11-04T07:00:23Z" (1194159623) transition_time 0x685-0x68c.7 (8)
0x680|                                       00 00 00|             ...|      [89]: "2008-03-09T08:00:23Z" (1205049623) transition_time 0x68d-0x694.7 (8)
0x690|00 47 d3 99 17                                 |.G...           |
0x690|               00 00 00 00 49 0d 50 07         |     ....I.P.   |      [90]: "2008-11-02T07:00:23Z" (1225609223) transition_time 0x695-0x69c.7 (8)
0x690|                                       00 00 00|             ...|      [91]: "2009-03-08T08:00:24Z" (1236499224) transition_time 0x69d-0x6a4.7 (8)
0x6a0|00 49 b3 7b 18                                 |.I.{.           |
0x6a0|               00 00 00 00 4a ed 32 08         |     ....J.2.   |      [92]: "2009-11-01T07:00:24Z" (1257058824) transition_time 0x6a5-0x6ac.7 (8)
0x6a0|                                       00 00 00|             ...|      [93]: "2010-03-14T08:00:24Z" (1268553624) transition_time 0x6ad-0x6b4.7 (8)
0x6b0|00 4b 9c 97 98                                 |.K...           |
0x6b0|               00 00 00 00 4c d6 4e 88         |     ....L.N.   |      [94]: "2010-11-07T07:00:24Z" (1289113224) transition_time 0x6b5-0x6bc.7 (8)
0x6b0|                                       00 00 00|             ...|      [95]: "2011-03-13T08:00:24Z" (1300003224) transition_time 0x6bd-0x6c4.7 (8)
0x6c0|00 4d 7c 79 98                                 |.M|y.           |
0x6c0|               00 00 00 00 4e b6 30 88         |     ....N.0.   |      [96]: "2011-11-06T07:00:24Z" (1320562824) transition_time 0x6c5-0x6cc.7 (8)
0x6c0|                                       00 00 00|             ...|      [97]: "2012-03-11T08:00:24Z" (1331452824) transition_time 0x6cd-0x6d4.7 (8)
0x6d0|00 4f 5c 5b 98                                 |.O\[.           |
0x6d0|               00 00 00 00 50 96 12 89         |     ....P...   |      [98]: "2012-11-04T07:00:25Z" (1352012425) transition_time 0x6d5-0x6dc.7 (8)
0x6d0|                                       00 00 00|             ...|      [99]: "2013-03-10T08:00:25Z" (1362902425) transition_time 0x6dd-0x6e4.7 (8)
0x6e0|00 51 3c 3d 99                                 |.Q<=.           |
0x6e0|               00 00 00 00 52 75 f4 89         |     ....Ru..   |      [100]: "2013-11-03T07:00:25Z" (1383462025) transition_time 0x6e5-0x6ec.7 (8)
0x6e0|                                       00 00 00|             ...|      [101]: "2014-03-09T08:00:25Z" (1394352025) transition_time 0x6ed-0x6f4.7 (8)
0x6f0|00 53 1c 1f 99                                 |.S...           |
0x6f0|               00 00 00 00 54 55 d6 89         |     ....TU..   |      [102]: "2014-11-02T07:00:25Z" (1414911625) transition_time 0x6f5-0x6fc.7 (8)
0x6f0|                                       00 00 00|             ...|      [103]: "2015-03-08T08:00:25Z" (1425801625) transition_time 0x6fd-0x704.7 (8)
0x700|00 54 fc 01 99                                 |.T...           |
0x700|               00 00 00 00 56 35 b8 8a         |     ....V5..   |      [104]: "2015-11-01T07:00:26Z" (1446361226) transition_time 0x705-0x70c.7 (8)
0x700|                                       00 00 00|             ...|      [105]: "2016-03-13T08:00:26Z" (1457856026) transition_time 0x70d-0x714.7 (8)
0x710|00 56 e5 1e 1a                                 |.V...           |
0x710|               00 00 00 00 58 1e d5 0a         |     ....X...   |      [106]: "2016-11-06T07:00:26Z" (1478415626) transition_time 0x715-0x71c.7 (8)
0x710|                                       00 00 00|             ...|      [107]: "2017-03-12T08:00:27Z" (1489305627) transition_time 0x71d-0x724.7 (8)
0x720|00 58 c5 00 1b                                 |.X...           |
0x720|               00 00 00 00 59 fe b7 0b         |     ....Y...   |      [108]: "2017-11-05T07:00:27Z" (1509865227) transition_time 0x725-0x72c.7 (8)
0x720|                                       00 00 00|             ...|      [109]: "2018-03-11T08:00:27Z" (1520755227) transition_time 0x72d-0x734.7 (8)
0x730|00 5a a4 e2 1b                                 |.Z...           |
0x730|               00 00 00 00 5b de 99 0b         |     ....[...   |      [110]: "2018-11-04T07:00:27Z" (1541314827) transition_time 0x735-0x73c.7 (8)
0x730|                                       00 00 00|             ...|      [111]: "2019-03-10T08:00:27Z" (1552204827) transition_time 0x73d-0x744.7 (8)
0x740|00 5c 84 c4 1b                                 |.\...           |
0x740|               00 00 00 00 5d be 7b 0b         |     ....].{.   |      [112]: "2019-11-03T07:00:27Z" (1572764427) transition_time 0x745-0x74c.7 (8)
0x740|                                       00 00 00|             ...|      [113]: "2020-03-08T08:00:27Z" (1583654427) transition_time 0x74d-0x754.7 (8)
0x750|00 5e 64 a6 1b                                 |.^d..           |
0x750|               00 00 00 00 5f 9e 5d 0b         |     ...._.].   |      [114]: "2020-11-01T07:00:27Z" (1604214027) transition_time 0x755-0x75c.7 (8)
0x750|                                       00 00 00|             ...|      [115]: "2021-03-14T08:00:27Z" (1615708827) transition_time 0x75d-0x764.7 (8)
0x760|00 60 4d c2 9b                                 |.`M..           |
0x760|               00 00 00 00 61 87 79 8b         |     ....a.y.   |      [116]: "2021-11-07T07:00:27Z" (1636268427) transition_time 0x765-0x76c.7 (8)
0x760|                                       00 00 00|             ...|      [117]: "2022-03-13T08:00:27Z" (1647158427) transition_time 0x76d-0x774.7 (8)
0x770|00 62 2d a4 9b                                 |.b-..           |
0x770|               00 00 00 00 63 67 5b 8b         |     ....cg[.   |      [118]: "2022-11-06T07:00:27Z" (1667718027) transition_time 0x775-0x77c.7 (8)
0x770|                                       00 00 00|             ...|      [119]: "2023-03-12T08:00:27Z" (1678608027) transition_time 0x77d-0x784.7 (8)
0x780|00 64 0d 86 9b                                 |.d...           |
0x780|               00 00 00 00 64 9b 78 1b         |     ....d.x.   |      [120]: "2023-06-28T00:00:27Z" (1687910427) transition_time 0x785-0x78c.7 (8)
     |                                               |                |    transition_types[0:121]: 0x78d-0x805.7 (121)
0x780|                                       01      |             .  |      [0]: 1 transition_type 0x78d-0x78d.7 (1)
0x780|                                          00   |              . |      [1]: 0 transition_type 0x78e-0x78e.7 (1)
0x780|                                             01|               .|      [2]: 1 transition_type 0x78f-0x78f.7 (1)
0x790|00                                             |.               |      [3]: 0 transition_type 0x790-0x790.7 (1)
0x790|   02                                          | .              |      [4]: 2 transition_type 0x791-0x791.7 (1)
0x790|      03                                       |  .             |      [5]: 3 transition_type 0x792-0x792.7 (1)
0x790|         00                                    |   .            |      [6]: 0 transition_type 0x793-0x793.7 (1)
0x790|            01                                 |    .           |      [7]: 1 transition_type 0x794-0x794.7 (1)
0x790|               00                              |     .          |      [8]: 0 transition_type 0x795-0x795.7 (1)
0x790|                  01                           |      .         |      [9]: 1 transition_type 0x796-0x796.7 (1)
0x790|                     00                        |       .        |      [10]: 0 transition_type 0x797-0x797.7 (1)
0x790|                        01                     |        .       |      [11]: 1 transition_type 0x798-0x798.7 (1)
0x790|                           00                  |         .      |      [12]: 0 transition_type 0x799-0x799.7 (1)
0x790|                              01               |          .     |      [13]: 1 transition_type 0x79a-0x79a.7 (1)
0x790|                                 00            |           .    |      [14]: 0 transition_type 0x79b-0x79b.7 (1)
0x790|                                    01         |            .   |      [15]: 1 transition_type 0x79c-0x79c.7 (1)
0x790|                                       00      |             .  |      [16]: 0 transition_type 0x79d-0x79d.7 (1)
0x790|                                          01   |              . |      [17]: 1 transition_type 0x79e-0x79e.7 (1)
0x790|                                             00|               .|      [18]: 0 transition_type 0x79f-0x79f.7 (1)
0x7a0|01                                             |.               |      [19]: 1 transition_type 0x7a0-0x7a0.7 (1)
0x7a0|   00                                          | .              |      [20]: 0 transition_type 0x7a1-0x7a1.7 (1)
0x7a0|      01                                       |  .             |      [21]: 1 transition_type 0x7a2-0x7a2.7 (1)
0x7a0|         00                                    |   .            |      [22]: 0 transition_type 0x7a3-0x7a3.7 (1)
0x7a0|            01                                 |    .           |      [23]: 1 transition_type 0x7a4-0x7a4.7 (1)
0x7a0|               00                              |     .          |      [24]: 0 transition_type 0x7a5-0x7a5.7 (1)
0x7a0|                  01                           |      .         |      [25]: 1 transition_type 0x7a6-0x7a6.7 (1)
0x7a0|                     00                        |       .        |      [26]: 0 transition_type 0x7a7-0x7a7.7 (1)
0x7a0|                        01                     |        .       |      [27]: 1 transition_type 0x7a8-0x7a8.7 (1)
0x7a0|                           00                  |         .      |      [28]: 0 transition_type 0x7a9-0x7a9.7 (1)
0x7a0|                              01               |          .     |      [29]: 1 transition_type 0x7aa-0x7aa.7 (1)
0x7a0|                                 00            |           .    |      [30]: 0 transition_type 0x7ab-0x7ab.7 (1)
0x7a0|                                    01         |            .   |      [31]: 1 transition_type 0x7ac-0x7ac.7 (1)
0x7a0|                                       00      |             .  |      [32]: 0 transition_type 0x7ad-0x7ad.7 (1)
0x7a0|                                          01   |              . |      [33]: 1 transition_type 0x7ae-0x7ae.7 (1)
0x7a0|                                             00|               .|      [34]: 0 transition_type 0x7af-0x7af.7 (1)
0x7b0|01                                             |.               |      [35]: 1 transition_type 0x7b0-0x7b0.7 (1)
0x7b0|   00                                          | .              |      [36]: 0 transition_type 0x7b1-0x7b1.7 (1)
0x7b0|      01                                       |  .             |      [37]: 1 transition_type 0x7b2-0x7b2.7 (1)
0x7b0|         00                                    |   .            |      [38]: 0 transition_type 0x7b3-0x7b3.7 (1)
0x7b0|            01                                 |    .           |      [39]: 1 transition_type 0x7b4-0x7b4.7 (1)
0x7b0|               00                              |     .          |      [40]: 0 transition_type 0x7b5-0x7b5.7 (1)
0x7b0|                  01                           |      .         |      [41]: 1 transition_type 0x7b6-0x7b6.7 (1)
0x7b0|                     00                        |       .        |      [42]: 0 transition_type 0x7b7-0x7b7.7 (1)
0x7b0|                        01                     |        .       |      [43]: 1 transition_type 0x7b8-0x7b8.7 (1)
0x7b0|                           00                  |         .      |      [44]: 0 transition_type 0x7b9-0x7b9.7 (1)
0x7b0|                              01               |          .     |      [45]: 1 transition_type 0x7ba-0x7ba.7 (1)
0x7b0|                                 00            |           .    |      [46]: 0 transition_type 0x7bb-0x7bb.7 (1)
0x7b0|                                    01         |            .   |      [47]: 1 transition_type 0x7bc-0x7bc.7 (1)
0x7b0|                                       00      |             .  |      [48]: 0 transition_type 0x7bd-0x7bd.7 (1)
0x7b0|                                          01   |              . |      [49]: 1 transition_type 0x7be-0x7be.7 (1)
0x7b0|                                             00|               .|      [50]: 0 transition_type 0x7bf-0x7bf.7 (1)
0x7c0|01                                             |.               |      [51]: 1 transition_type 0x7c0-0x7c0.7 (1)
0x7c0|   00                                          | .              |      [52]: 0 transition_type 0x7c1-0x7c1.7 (1)
0x7c0|      01                                       |  .             |      [53]: 1 transition_type 0x7c2-0x7c2.7 (1)
0x7c0|         00                                    |   .            |      [54]: 0 transition_type 0x7c3-0x7c3.7 (1)
0x7c0|            01                                 |    .           |      [55]: 1 transition_type 0x7c4-0x7c4.7 (1)
0x7c0|               00                              |     .          |      [56]: 0 transition_type 0x7c5-0x7c5.7 (1)
0x7c0|                  01                           |      .         |      [57]: 1 transition_type 0x7c6-0x7c6.7 (1)
0x7c0|                     00                        |       .        |      [58]: 0 transition_type 0x7c7-0x7c7.7 (1)
0x7c0|                        01                     |        .       |      [59]: 1 transition_type 0x7c8-0x7c8.7 (1)
0x7c0|                           00                  |         .      |      [60]: 0 transition_type 0x7c9-0x7c9.7 (1)
0x7c0|                              01               |          .     |      [61]: 1 transition_type 0x7ca-0x7ca.7 (1)
0x7c0|                                 00            |           .    |      [62]: 0 transition_type 0x7cb-0x7cb.7 (1)
0x7c0|                                    01         |            .   |      [63]: 1 transition_type 0x7cc-0x7cc.7 (1)
0x7c0|                                       00      |             .  |      [64]: 0 transition_type 0x7cd-0x7cd.7 (1)
0x7c0|                                          01   |              . |      [65]: 1 transition_type 0x7ce-0x7ce.7 (1)
0x7c0|                                             00|               .|      [66]: 0 transition_type 0x7cf-0x7cf.7 (1)
0x7d0|01                                             |.               |      [67]: 1 transition_type 0x7d0-0x7d0.7 (1)
0x7d0|   00                                          | .              |      [68]: 0 transition_type 0x7d1-0x7d1.7 (1)
0x7d0|      01                                       |  .             |      [69]: 1 transition_type 0x7d2-0x7d2.7 (1)
0x7d0|         00                                    |   .            |      [70]: 0 transition_type 0x7d3-0x7d3.7 (1)
0x7d0|            01                                 |    .           |      [71]: 1 transition_type 0x7d4-0x7d4.7 (1)
0x7d0|               00                              |     .          |      [72]: 0 transition_type 0x7d5-0x7d5.7 (1)
0x7d0|                  01                           |      .         |      [73]: 1 transition_type 0x7d6-0x7d6.7 (1)
0x7d0|                     00                        |       .        |      [74]: 0 transition_type 0x7d7-0x7d7.7 (1)
0x7d0|                        01                     |        .       |      [75]: 1 transition_type 0x7d8-0x7d8.7 (1)
0x7d0|                           00                  |         .      |      [76]: 0 transition_type 0x7d9-0x7d9.7 (1)
0x7d0|                              01               |          .     |      [77]: 1 transition_type 0x7da-0x7da.7 (1)
0x7d0|                                 00            |           .    |      [78]: 0 transition_type 0x7db-0x7db.7 (1)
0x7d0|                                    01         |            .   |      [79]: 1 transition_type 0x7dc-0x7dc.7 (1)
0x7d0|                                       00      |             .  |      [80]: 0 transition_type 0x7dd-0x7dd.7 (1)
0x7d0|                                          01   |              . |      [81]: 1 transition_type 0x7de-0x7de.7 (1)
0x7d0|                                             00|               .|      [82]: 0 transition_type 0x7df-0x7df.7 (1)
0x7e0|01                                             |.               |      [83]: 1 transition_type 0x7e0-0x7e0.7 (1)
0x7e0|   00                                          | .              |      [84]: 0 transition_type 0x7e1-0x7e1.7 (1)
0x7e0|      01                                       |  .             |      [85]: 1 transition_type 0x7e2-0x7e2.7 (1)
0x7e0|         00                                    |   .            |      [86]: 0 transition_type 0x7e3-0x7e3.7 (1)
0x7e0|            01                                 |    .           |      [87]: 1 transition_type 0x7e4-0x7e4.7 (1)
0x7e0|               00                              |     .          |      [88]: 0 transition_type 0x7e5-0x7e5.7 (1)
0x7e0|                  01                           |      .         |      [89]: 1 transition_type 0x7e6-0x7e6.7 (1)
0x7e0|                     00                        |       .        |      [90]: 0 transition_type 0x7e7-0x7e7.7 (1)
0x7e0|                        01                     |        .       |      [91]: 1 transition_type 0x7e8-0x7e8.7 (1)
0x7e0|                           00                  |         .      |      [92]: 0 transition_type 0x7e9-0x7e9.7 (1)
0x7e0|                              01               |          .     |      [93]: 1 transition_type 0x7ea-0x7ea.7 (1)
0x7e0|                                 00            |           .    |      [94]: 0 transition_type 0x7eb-0x7eb.7 (1)
0x7e0|                                    01         |            .   |      [95]: 1 transition_type 0x7ec-0x7ec.7 (1)
0x7e0|                                       00      |             .  |      [96]: 0 transition_type 0x7ed-0x7ed.7 (1)
0x7e0|                                          01   |              . |      [97]: 1 transition_type 0x7ee-0x7ee.7 (1)
0x7e0|                                             00|               .|      [98]: 0 transition_type 0x7ef-0x7ef.7 (1)
0x7f0|01                                             |.               |      [99]: 1 transition_type 0x7f0-0x7f0.7 (1)
0x7f0|   00                                          | .              |      [100]: 0 transition_type 0x7f1-0x7f1.7 (1)
0x7f0|      01                                       |  .             |      [101]: 1 transition_type 0x7f2-0x7f2.7 (1)
0x7f0|         00                                    |   .            |      [102]: 0 transition_type 0x7f3-0x7f3.7 (1)
0x7f0|            01                                 |    .           |      [103]: 1 transition_type 0x7f4-0x7f4.7 (1)
0x7f0|               00                              |     .          |      [104]: 0 transition_type 0x7f5-0x7f5.7 (1)
0x7f0|                  01                           |      .         |      [105]: 1 transition_type 0x7f6-0x7f6.7 (1)
0x7f0|                     00                        |       .        |      [106]: 0 transition_type 0x7f7-0x7f7.7 (1)
0x7f0|                        01                     |        .       |      [107]: 1 transition_type 0x7f8-0x7f8.7 (1)
0x7f0|                           00                  |         .      |      [108]: 0 transition_type 0x7f9-0x7f9.7 (1)
0x7f0|                              01               |          .     |      [109]: 1 transition_type 0x7fa-0x7fa.7 (1)
0x7f0|                                 00            |           .    |      [110]: 0 transition_type 0x7fb-0x7fb.7 (1)
0x7f0|                                    01         |            .   |      [111]: 1 transition_type 0x7fc-0x7fc.7 (1)
0x7f0|                                       00      |             .  |      [112]: 0 transition_type 0x7fd-0x7fd.7 (1)
0x7f0|                                          01   |              . |      [113]: 1 transition_type 0x7fe-0x7fe.7 (1)
0x7f0|                                             00|               .|      [114]: 0 transition_type 0x7ff-0x7ff.7 (1)
0x800|01                                             |.               |      [115]: 1 transition_type 0x800-0x800.7 (1)
0x800|   00                                          | .              |      [116]: 0 transition_type 0x801-0x801.7 (1)
0x800|      01                                       |  .             |      [117]: 1 transition_type 0x802-0x802.7 (1)
0x800|         00                                    |   .            |      [118]: 0 transition_type 0x803-0x803.7 (1)
0x800|            01                                 |    .           |      [119]: 1 transition_type 0x804-0x804.7 (1)
0x800|               01                              |     .          |      [120]: 1 transition_type 0x805-0x805.7 (1)
     |                                               |                |    local_time_type_records[0:5]: 0x806-0x823.7 (30)
     |                                               |                |      [0]{}: local_time_type 0x806-0x80b.7 (6)
0x800|                  ff ff ab a0                  |      ....      |        utoff: -21600 (valid) 0x806-0x809.7 (4)
0x800|                              00               |          .     |        dst: 0 (valid) 0x80a-0x80a.7 (1)
0x800|                                 04            |           .    |        idx: 4 (valid) 0x80b-0x80b.7 (1)
     |                                               |                |      [1]{}: local_time_type 0x80c-0x811.7 (6)
0x800|                                    ff ff b9 b0|            ....|        utoff: -18000 (valid) 0x80c-0x80f.7 (4)
0x810|01                                             |.               |        dst: 1 (valid) 0x810-0x810.7 (1)
0x810|   00                                          | .              |        idx: 0 (valid) 0x811-0x811.7 (1)
     |                                               |                |      [2]{}: local_time_type 0x812-0x817.7 (6)
0x810|      ff ff b9 b0                              |  ....          |        utoff: -18000 (valid) 0x812-0x815.7 (4)
0x810|                  01                           |      .         |        dst: 1 (valid) 0x816-0x816.7 (1)
0x810|                     08                        |       .        |        idx: 8 (valid) 0x817-0x817.7 (1)
     |                                               |                |      [3]{}: local_time_type 0x818-0x81d.7 (6)
0x810|                        ff ff b9 b0            |        ....    |        utoff: -18000 (valid) 0x818-0x81b.7 (4)
0x810|                                    01         |            .   |        dst: 1 (valid) 0x81c-0x81c.7 (1)
0x810|                                       0c      |             .  |        idx: 12 (valid) 0x81d-0x81d.7 (1)
     |                                               |                |      [4]{}: local_time_type 0x81e-0x823.7 (6)
0x810|                                          ff ff|              ..|        utoff: -21600 (valid) 0x81e-0x821.7 (4)
0x820|ab a0                                          |..              |
0x820|      00                                       |  .             |        dst: 0 (valid) 0x822-0x822.7 (1)
0x820|         04                                    |   .            |        idx: 4 (valid) 0x823-0x823.7 (1)
     |                                               |                |    time_zone_designations[0:4]: 0x824-0x833.7 (16)
0x820|            43 44 54 00                        |    CDT.        |      [0]: "CDT" time_zone_designation 0x824-0x827.7 (4)
0x820|                        43 53 54 00            |        CST.    |      [1]: "CST" time_zone_designation 0x828-0x82b.7 (4)
0x820|                                    43 57 54 00|            CWT.|      [2]: "CWT" time_zone_designation 0x82c-0x82f.7 (4)
0x830|43 50 54 00                                    |CPT.            |      [3]: "CPT" time_zone_designation 0x830-0x833.7 (4)
     |                                               |                |    leap_second_records[0:27]: 0x834-0x977.7 (324)
     |                                               |                |      [0]{}: leap_second_record 0x834-0x83f.7 (12)
0x830|            00 00 00 00 04 b2 58 00            |    ......X.    |        occur: "1972-07-01T00:00:00Z" (78796800) 0x834-0x83b.7 (8)
0x830|                                    00 00 00 01|            ....|        corr: 1 0x83c-0x83f.7 (4)
     |                                               |                |      [1]{}: leap_second_record 0x840-0x84b.7 (12)
0x840|00 00 00 00 05 a4 ec 01                        |........        |        occur: "1973-01-01T00:00:01Z" (94694401) 0x840-0x847.7 (8)
0x840|                        00 00 00 02            |        ....    |        corr: 2 0x848-0x84b.7 (4)
     |                                               |                |      [2]{}: leap_second_record 0x84c-0x857.7 (12)
0x840|                                    00 00 00 00|            ....|        occur: "1974-01-01T00:00:02Z" (126230402) 0x84c-0x853.7 (8)
0x850|07 86 1f 82                                    |....            |
0x850|            00 00 00 03                        |    ....        |        corr: 3 0x854-0x857.7 (4)
     |                                               |                |      [3]{}: leap_second_record 0x858-0x863.7 (12)
0x850|                        00 00 00 00 09 67 53 03|        .....gS.|        occur: "1975-01-01T00:00:03Z" (157766403) 0x858-0x85f.7 (8)
0x860|00 00 00 04                                    |....            |        corr: 4 0x860-0x863.7 (4)
     |                                               |                |      [4]{}: leap_second_record 0x864-0x86f.7 (12)
0x860|            00 00 00 00 0b 48 86 84            |    .....H..    |        occur: "1976-01-01T00:00:04Z" (189302404) 0x864-0x86b.7 (8)
0x860|                                    00 00 00 05|            ....|        corr: 5 0x86c-0x86f.7 (4)
     |                                               |                |      [5]{}: leap_second_record 0x870-0x87b.7 (12)
0x870|00 00 00 00 0d 2b 0b 85                        |.....+..        |        occur: "1977-01-01T00:00:05Z" (220924805) 0x870-0x877.7 (8)
0x870|                        00 00 00 06            |        ....    |        corr: 6 0x878-0x87b.7 (4)
     |                                               |                |      [6]{}: leap_second_record 0x87c-0x887.7 (12)
0x870|                                    00 00 00 00|            ....|        occur: "1978-01-01T00:00:06Z" (252460806) 0x87c-0x883.7 (8)
0x880|0f 0c 3f 06                                    |..?.            |
0x880|            00 00 00 07                        |    ....        |        corr: 7 0x884-0x887.7 (4)
     |                                               |                |      [7]{}: leap_second_record 0x888-0x893.7 (12)
0x880|                        00 00 00 00 10 ed 72 87|        ......r.|        occur: "1979-01-01T00:00:07Z" (283996807) 0x888-0x88f.7 (8)
0x890|00 00 00 08                                    |....            |        corr: 8 0x890-0x893.7 (4)
     |                                               |                |      [8]{}: leap_second_record 0x894-0x89f.7 (12)
0x890|            00 00 00 00 12 ce a6 08            |    ........    |        occur: "1980-01-01T00:00:08Z" (315532808) 0x894-0x89b.7 (8)
0x890|                                    00 00 00 09|            ....|        corr: 9 0x89c-0x89f.7 (4)
     |                                               |                |      [9]{}: leap_second_record 0x8a0-0x8ab.7 (12)
0x8a0|00 00 00 00 15 9f ca 89                        |........        |        occur: "1981-07-01T00:00:09Z" (362793609) 0x8a0-0x8a7.7 (8)
0x8a0|                        00 00 00 0a            |        ....    |        corr: 10 0x8a8-0x8ab.7 (4)
     |                                               |                |      [10]{}: leap_second_record 0x8ac-0x8b7.7 (12)
0x8a0|                                    00 00 00 00|            ....|        occur: "1982-07-01T00:00:10Z" (394329610) 0x8ac-0x8b3.7 (8)
0x8b0|17 80 fe 0a                                    |....            |
0x8b0|            00 00 00 0b                        |    ....        |        corr: 11 0x8b4-0x8b7.7 (4)
     |                                               |                |      [11]{}: leap_second_record 0x8b8-0x8c3.7 (12)
0x8b0|                        00 00 00 00 19 62 31 8b|        .....b1.|        occur: "1983-07-01T00:00:11Z" (425865611) 0x8b8-0x8bf.7 (8)
0x8c0|00 00 00 0c                                    |....            |        corr: 12 0x8c0-0x8c3.7 (4)
     |                                               |                |      [12]{}: leap_second_record 0x8c4-0x8cf.7 (12)
0x8c0|            00 00 00 00 1d 25 ea 0c            |    .....%..    |        occur: "1985-07-01T00:00:12Z" (489024012) 0x8c4-0x8cb.7 (8)
0x8c0|                                    00 00 00 0d|            ....|        corr: 13 0x8cc-0x8cf.7 (4)
     |                                               |                |      [13]{}: leap_second_record 0x8d0-0x8db.7 (12)
0x8d0|00 00 00 00 21 da e5 0d                        |....!...        |        occur: "1988-01-01T00:00:13Z" (567993613) 0x8d0-0x8d7.7 (8)
0x8d0|                        00 00 00 0e            |        ....    |        corr: 14 0x8d8-0x8db.7 (4)
     |                                               |                |      [14]{}: leap_second_record 0x8dc-0x8e7.7 (12)
0x8d0|                                    00 00 00 00|            ....|        occur: "1990-01-01T00:00:14Z" (631152014) 0x8dc-0x8e3.7 (8)
0x8e0|25 9e 9d 8e                                    |%...            |
0x8e0|            00 00 00 0f                        |    ....        |        corr: 15 0x8e4-0x8e7.7 (4)
     |                                               |                |      [15]{}: leap_second_record 0x8e8-0x8f3.7 (12)
0x8e0|                        00 00 00 00 27 7f d1 0f|        ....'...|        occur: "1991-01-01T00:00:15Z" (662688015) 0x8e8-0x8ef.7 (8)
0x8f0|00 00 00 10                                    |....            |        corr: 16 0x8f0-0x8f3.7 (4)
     |                                               |                |      [16]{}: leap_second_record 0x8f4-0x8ff.7 (12)
0x8f0|            00 00 00 00 2a 50 f5 90            |    ....*P..    |        occur: "1992-07-01T00:00:16Z" (709948816) 0x8f4-0x8fb.7 (8)
0x8f0|                                    00 00 00 11|            ....|        corr: 17 0x8fc-0x8ff.7 (4)
     |                                               |                |      [17]{}: leap_second_record 0x900-0x90b.7 (12)
0x900|00 00 00 00 2c 32 29 11                        |....,2).        |        occur: "1993-07-01T00:00:17Z" (741484817) 0x900-0x907.7 (8)
0x900|                        00 00 00 12            |        ....    |        corr: 18 0x908-0x90b.7 (4)
     |                                               |                |      [18]{}: leap_second_record 0x90c-0x917.7 (12)
0x900|                                    00 00 00 00|            ....|        occur: "1994-07-01T00:00:18Z" (773020818) 0x90c-0x913.7 (8)
0x910|2e 13 5c 92                                    |..\.            |
0x910|            00 00 00 13                        |    ....        |        corr: 19 0x914-0x917.7 (4)
     |                                               |                |      [19]{}: leap_second_record 0x918-0x923.7 (12)
0x910|                        00 00 00 00 30 e7 24 13|        ....0.$.|        occur: "1996-01-01T00:00:19Z" (820454419) 0x918-0x91f.7 (8)
0x920|00 00 00 14                                    |....            |        corr: 20 0x920-0x923.7 (4)
     |                                               |                |      [20]{}: leap_second_record 0x924-0x92f.7 (12)
0x920|            00 00 00 00 33 b8 48 94            |    ....3.H.    |        occur: "1997-07-01T00:00:20Z" (867715220) 0x924-0x92b.7 (8)
0x920|                                    00 00 00 15|            ....|        corr: 21 0x92c-0x92f.7 (4)
     |                                               |                |      [21]{}: leap_second_record 0x930-0x93b.7 (12)
0x930|00 00 00 00 36 8c 10 15                        |....6...        |        occur: "1999-01-01T00:00:21Z" (915148821) 0x930-0x937.7 (8)
0x930|                        00 00 00 16            |        ....    |        corr: 22 0x938-0x93b.7 (4)
     |                                               |                |      [22]{}: leap_second_record 0x93c-0x947.7 (12)
0x930|                                    00 00 00 00|            ....|        occur: "2006-01-01T00:00:22Z" (1136073622) 0x93c-0x943.7 (8)
0x940|43 b7 1b 96                                    |C...            |
0x940|            00 00 00 17                        |    ....        |        corr: 23 0x944-0x947.7 (4)
     |                                               |                |      [23]{}: leap_second_record 0x948-0x953.7 (12)
0x940|                        00 00 00 00 49 5c 07 97|        ....I\..|        occur: "2009-01-01T00:00:23Z" (1230768023) 0x948-0x94f.7 (8)
0x950|00 00 00 18                                    |....            |        corr: 24 0x950-0x953.7 (4)
     |                                               |                |      [24]{}: leap_second_record 0x954-0x95f.7 (12)
0x950|            00 00 00 00 4f ef 93 18            |    ....O...    |        occur: "2012-07-01T00:00:24Z" (1341100824) 0x954-0x95b.7 (8)
0x950|                                    00 00 00 19|            ....|        corr: 25 0x95c-0x95f.7 (4)
     |                                               |                |      [25]{}: leap_second_record 0x960-0x96b.7 (12)
0x960|00 00 00 00 55 93 2d 99                        |....U.-.        |        occur: "2015-07-01T00:00:25Z" (1435708825) 0x960-0x967.7 (8)
0x960|                        00 00 00 1a            |        ....    |        corr: 26 0x968-0x96b.7 (4)
     |                                               |                |      [26]{}: leap_second_record 0x96c-0x977.7 (12)
0x960|                                    00 00 00 00|            ....|        occur: "2017-01-01T00:00:26Z" (1483228826) 0x96c-0x973.7 (8)
0x970|58 68 46 9a                                    |XhF.            |
0x970|            00 00 00 1b                        |    ....        |        corr: 27 0x974-0x977.7 (4)
     |                                               |                |    standard_wall_indicators[0:5]: 0x978-0x97c.7 (5)
0x970|                        00                     |        .       |      [0]: 0 standard_wall_indicator (valid) 0x978-0x978.7 (1)
0x970|                           00                  |         .      |      [1]: 0 standard_wall_indicator (valid) 0x979-0x979.7 (1)
0x970|                              00               |          .     |      [2]: 0 standard_wall_indicator (valid) 0x97a-0x97a.7 (1)
0x970|                                 01            |           .    |      [3]: 1 standard_wall_indicator (valid) 0x97b-0x97b.7 (1)
0x970|                                    00         |            .   |      [4]: 0 standard_wall_indicator (valid) 0x97c-0x97c.7 (1)
     |                                               |                |    ut_local_indicators[0:5]: 0x97d-0x981.7 (5)
0x970|                                       00      |             .  |      [0]: 0 ut_local_indicator (valid) 0x97d-0x97d.7 (1)
0x970|                                          00   |              . |      [1]: 0 ut_local_indicator (valid) 0x97e-0x97e.7 (1)
0x970|                                             00|               .|      [2]: 0 ut_local_indicator (valid) 0x97f-0x97f.7 (1)
0x980|01                                             |.               |      [3]: 1 ut_local_indicator (valid) 0x980-0x980.7 (1)
0x980|   00                                          | .              |      [4]: 0 ut_local_indicator (valid) 0x981-0x981.7 (1)
     |                                               |                |  footer{}: 0x982-0x983.7 (2)
0x980|      0a                                       |  .             |    nl1: 10 (valid) 0x982-0x982.7 (1)
     |                                               |                |    tz_string: "" 0x983-NA (0)
0x980|         0a|                                   |   .|           |    nl2: 10 (valid) 0x983-0x983.7 (1)
