$ fq -d tzif dv Damascus
     |00 01 02 03 04 05 06 07 08 09 0a 0b 0c 0d 0e 0f|0123456789abcdef|.{}: Damascus (tzif) 0x0-0x973.7 (2420)
     |                                               |                |  v1header{}: 0x0-0x2b.7 (44)
0x000|54 5a 69 66                                    |TZif            |    magic: 0x545a6966 (valid) 0x0-0x3.7 (4)
0x000|            32                                 |    2           |    ver: "2" (0x32) (valid) 0x4-0x4.7 (1)
0x000|               00 00 00 00 00 00 00 00 00 00 00|     ...........|    reserved: raw bits 0x5-0x13.7 (15)
0x010|00 00 00 00                                    |....            |
0x010|            00 00 00 00                        |    ....        |    isutcnt: 0 0x14-0x17.7 (4)
0x010|                        00 00 00 00            |        ....    |    isstdcnt: 0 0x18-0x1b.7 (4)
0x010|                                    00 00 00 1b|            ....|    leapcnt: 27 0x1c-0x1f.7 (4)
0x020|00 00 00 7a                                    |...z            |    timecnt: 122 0x20-0x23.7 (4)
0x020|            00 00 00 04                        |    ....        |    typecnt: 4 0x24-0x27.7 (4)
0x020|                        00 00 00 11            |        ....    |    charcnt: 17 0x28-0x2b.7 (4)
     |                                               |                |  v1datablock{}: 0x2c-0x38e.7 (867)
     |                                               |                |    transition_times[0:122]: 0x2c-0x213.7 (488)
0x020|                                    a1 f2 ab 78|            ...x|      [0]: "1919-12-31T21:34:48Z" (-1577931912) transition_time 0x2c-0x2f.7 (4)
0x030|a2 81 2f 80                                    |../.            |      [1]: "1920-04-18T00:00:00Z" (-1568592000) transition_time 0x30-0x33.7 (4)
0x030|            a3 5e 9d 70                        |    .^.p        |      [2]: "1920-10-02T23:00:00Z" (-1554080400) transition_time 0x34-0x37.7 (4)
0x030|                        a4 61 11 80            |        .a..    |      [3]: "1921-04-17T00:00:00Z" (-1537142400) transition_time 0x38-0x3b.7 (4)
0x030|                                    a5 3e 7f 70|            .>.p|      [4]: "1921-10-01T23:00:00Z" (-1522630800) transition_time 0x3c-0x3f.7 (4)
0x040|a6 40 f3 80                                    |.@..            |      [5]: "1922-04-16T00:00:00Z" (-1505692800) transition_time 0x40-0x43.7 (4)
0x040|            a7 1e 61 70                        |    ..ap        |      [6]: "1922-09-30T23:00:00Z" (-1491181200) transition_time 0x44-0x47.7 (4)
0x040|                        a8 20 d5 80            |        . ..    |      [7]: "1923-04-15T00:00:00Z" (-1474243200) transition_time 0x48-0x4b.7 (4)
0x040|                                    a9 07 7d f0|            ..}.|      [8]: "1923-10-06T23:00:00Z" (-1459126800) transition_time 0x4c-0x4f.7 (4)
0x050|f1 8f 52 00                                    |..R.            |      [9]: "1962-04-29T00:00:00Z" (-242265600) transition_time 0x50-0x53.7 (4)
0x050|            f2 5b 9c 70                        |    .[.p        |      [10]: "1962-09-30T23:00:00Z" (-228877200) transition_time 0x54-0x57.7 (4)
0x050|                        f3 73 28 80            |        .s(.    |      [11]: "1963-05-01T00:00:00Z" (-210556800) transition_time 0x58-0x5b.7 (4)
0x050|                                    f4 3b 7e 70|            .;~p|      [12]: "1963-09-29T23:00:00Z" (-197427600) transition_time 0x5c-0x5f.7 (4)
0x060|f5 55 ad 80                                    |.U..            |      [13]: "1964-05-01T00:00:00Z" (-178934400) transition_time 0x60-0x63.7 (4)
0x060|            f6 1f 54 f0                        |    ..T.        |      [14]: "1964-09-30T23:00:00Z" (-165718800) transition_time 0x64-0x67.7 (4)
0x060|                        f7 36 e1 00            |        .6..    |      [15]: "1965-05-01T00:00:00Z" (-147398400) transition_time 0x68-0x6b.7 (4)
0x060|                                    f7 ff 36 f0|            ..6.|      [16]: "1965-09-29T23:00:00Z" (-134269200) transition_time 0x6c-0x6f.7 (4)
0x070|f9 0e da 00                                    |....            |      [17]: "1966-04-24T00:00:00Z" (-116467200) transition_time 0x70-0x73.7 (4)
0x070|            f9 e1 bb f0                        |    ....        |      [18]: "1966-09-30T23:00:00Z" (-102646800) transition_time 0x74-0x77.7 (4)
0x070|                        fa f9 48 00            |        ..H.    |      [19]: "1967-05-01T00:00:00Z" (-84326400) transition_time 0x78-0x7b.7 (4)
0x070|                                    fb c2 ef 70|            ...p|      [20]: "1967-09-30T23:00:00Z" (-71110800) transition_time 0x7c-0x7f.7 (4)
0x080|fc db cd 00                                    |....            |      [21]: "1968-05-01T00:00:00Z" (-52704000) transition_time 0x80-0x83.7 (4)
0x080|            fd a5 74 70                        |    ..tp        |      [22]: "1968-09-30T23:00:00Z" (-39488400) transition_time 0x84-0x87.7 (4)
0x080|                        fe bd 00 80            |        ....    |      [23]: "1969-05-01T00:00:00Z" (-21168000) transition_time 0x88-0x8b.7 (4)
0x080|                                    ff 86 a7 f0|            ....|      [24]: "1969-09-30T23:00:00Z" (-7952400) transition_time 0x8c-0x8f.7 (4)
0x090|00 9e 34 00                                    |..4.            |      [25]: "1970-05-01T00:00:00Z" (10368000) transition_time 0x90-0x93.7 (4)
0x090|            01 67 db 70                        |    .g.p        |      [26]: "1970-09-30T23:00:00Z" (23583600) transition_time 0x94-0x97.7 (4)
0x090|                        02 7f 67 80            |        ..g.    |      [27]: "1971-05-01T00:00:00Z" (41904000) transition_time 0x98-0x9b.7 (4)
0x090|                                    03 49 0e f0|            .I..|      [28]: "1971-09-30T23:00:00Z" (55119600) transition_time 0x9c-0x9f.7 (4)
0x0a0|04 61 ec 80                                    |.a..            |      [29]: "1972-05-01T00:00:00Z" (73526400) transition_time 0xa0-0xa3.7 (4)
0x0a0|            05 2b 93 f1                        |    .+..        |      [30]: "1972-09-30T23:00:01Z" (86742001) transition_time 0xa4-0xa7.7 (4)
0x0a0|                        06 43 20 02            |        .C .    |      [31]: "1973-05-01T00:00:02Z" (105062402) transition_time 0xa8-0xab.7 (4)
0x0a0|                                    07 0c c7 72|            ...r|      [32]: "1973-09-30T23:00:02Z" (118278002) transition_time 0xac-0xaf.7 (4)
0x0b0|08 24 53 83                                    |.$S.            |      [33]: "1974-05-01T00:00:03Z" (136598403) transition_time 0xb0-0xb3.7 (4)
0x0b0|            08 ed fa f3                        |    ....        |      [34]: "1974-09-30T23:00:03Z" (149814003) transition_time 0xb4-0xb7.7 (4)
0x0b0|                        0a 05 87 04            |        ....    |      [35]: "1975-05-01T00:00:04Z" (168134404) transition_time 0xb8-0xbb.7 (4)
0x0b0|                                    0a cf 2e 74|            ...t|      [36]: "1975-09-30T23:00:04Z" (181350004) transition_time 0xbc-0xbf.7 (4)
0x0c0|0b e8 0c 05                                    |....            |      [37]: "1976-05-01T00:00:05Z" (199756805) transition_time 0xc0-0xc3.7 (4)
0x0c0|            0c b1 b3 75                        |    ...u        |      [38]: "1976-09-30T23:00:05Z" (212972405) transition_time 0xc4-0xc7.7 (4)
0x0c0|                        0d c9 3f 86            |        ..?.    |      [39]: "1977-05-01T00:00:06Z" (231292806) transition_time 0xc8-0xcb.7 (4)
0x0c0|                                    0e 6b 59 f6|            .kY.|      [40]: "1977-08-31T23:00:06Z" (241916406) transition_time 0xcc-0xcf.7 (4)
0x0d0|0f aa 73 07                                    |..s.            |      [41]: "1978-05-01T00:00:07Z" (262828807) transition_time 0xd0-0xd3.7 (4)
0x0d0|            10 4c 8d 77                        |    .L.w        |      [42]: "1978-08-31T23:00:07Z" (273452407) transition_time 0xd4-0xd7.7 (4)
0x0d0|                        18 f4 c5 0b            |        ....    |      [43]: "1983-04-09T00:00:11Z" (418694411) transition_time 0xd8-0xdb.7 (4)
0x0d0|                                    19 db 6d 7c|            ..m||      [44]: "1983-09-30T23:00:12Z" (433810812) transition_time 0xdc-0xdf.7 (4)
0x0e0|1a d7 4a 0c                                    |..J.            |      [45]: "1984-04-09T00:00:12Z" (450316812) transition_time 0xe0-0xe3.7 (4)
0x0e0|            1b bd f2 7c                        |    ...|        |      [46]: "1984-09-30T23:00:12Z" (465433212) transition_time 0xe4-0xe7.7 (4)
0x0e0|                        1e 55 23 0d            |        .U#.    |      [47]: "1986-02-16T00:00:13Z" (508896013) transition_time 0xe8-0xeb.7 (4)
0x0e0|                                    1f 8a e5 7d|            ...}|      [48]: "1986-10-08T23:00:13Z" (529196413) transition_time 0xec-0xef.7 (4)
0x0f0|20 47 7a 0d                                    | Gz.            |      [49]: "1987-03-01T00:00:13Z" (541555213) transition_time 0xf0-0xf3.7 (4)
0x0f0|            21 89 19 fd                        |    !...        |      [50]: "1987-10-30T23:00:13Z" (562633213) transition_time 0xf4-0xf7.7 (4)
0x0f0|                        22 3c 74 0e            |        "<t.    |      [51]: "1988-03-15T00:00:14Z" (574387214) transition_time 0xf8-0xfb.7 (4)
0x0f0|                                    23 6b 9e fe|            #k..|      [52]: "1988-10-30T23:00:14Z" (594255614) transition_time 0xfc-0xff.7 (4)
0x100|24 32 bf 8e                                    |$2..            |      [53]: "1989-03-31T00:00:14Z" (607305614) transition_time 0x100-0x103.7 (4)
0x100|            25 25 45 7e                        |    %%E~        |      [54]: "1989-09-30T23:00:14Z" (623199614) transition_time 0x104-0x107.7 (4)
0x100|                        26 15 44 8f            |        &.D.    |      [55]: "1990-04-01T00:00:15Z" (638928015) transition_time 0x108-0x10b.7 (4)
0x100|                                    27 05 27 7f|            '.'.|      [56]: "1990-09-29T23:00:15Z" (654649215) transition_time 0x10c-0x10f.7 (4)
0x110|27 f6 5b f0                                    |'.[.            |      [57]: "1991-03-31T22:00:16Z" (670456816) transition_time 0x110-0x113.7 (4)
0x110|            28 e7 90 60                        |    (..`        |      [58]: "1991-09-30T21:00:16Z" (686264416) transition_time 0x114-0x117.7 (4)
0x110|                        29 e2 1b 70            |        )..p    |      [59]: "1992-04-07T22:00:16Z" (702684016) transition_time 0x118-0x11b.7 (4)
0x110|                                    2a ca 15 61|            *..a|      [60]: "1992-09-30T21:00:17Z" (717886817) transition_time 0x11c-0x11f.7 (4)
0x120|2b b2 2b 71                                    |+.+q            |      [61]: "1993-03-25T22:00:17Z" (733096817) transition_time 0x120-0x123.7 (4)
0x120|            2c a3 5f e2                        |    ,._.        |      [62]: "1993-09-24T21:00:18Z" (748904418) transition_time 0x124-0x127.7 (4)
0x120|                        2d 9b 47 f2            |        -.G.    |      [63]: "1994-03-31T22:00:18Z" (765151218) transition_time 0x128-0x12b.7 (4)
0x120|                                    2e 8c 7c 63|            ..|c|      [64]: "1994-09-30T21:00:19Z" (780958819) transition_time 0x12c-0x12f.7 (4)
0x130|2f 7c 7b 73                                    |/|{s            |      [65]: "1995-03-31T22:00:19Z" (796687219) transition_time 0x130-0x133.7 (4)
0x130|            30 6d af e3                        |    0m..        |      [66]: "1995-09-30T21:00:19Z" (812494819) transition_time 0x134-0x137.7 (4)
0x130|                        31 5f 00 74            |        1_.t    |      [67]: "1996-03-31T22:00:20Z" (828309620) transition_time 0x138-0x13b.7 (4)
0x130|                                    32 50 34 e4|            2P4.|      [68]: "1996-09-30T21:00:20Z" (844117220) transition_time 0x13c-0x13f.7 (4)
0x140|33 3e e2 74                                    |3>.t            |      [69]: "1997-03-30T22:00:20Z" (859759220) transition_time 0x140-0x143.7 (4)
0x140|            34 31 68 65                        |    41he        |      [70]: "1997-09-30T21:00:21Z" (875653221) transition_time 0x144-0x147.7 (4)
0x140|                        35 1e c4 75            |        5..u    |      [71]: "1998-03-29T22:00:21Z" (891208821) transition_time 0x148-0x14b.7 (4)
0x140|                                    36 12 9b e5|            6...|      [72]: "1998-09-30T21:00:21Z" (907189221) transition_time 0x14c-0x14f.7 (4)
0x150|37 02 9a f6                                    |7...            |      [73]: "1999-03-31T22:00:22Z" (922917622) transition_time 0x150-0x153.7 (4)
0x150|            37 f3 cf 66                        |    7..f        |      [74]: "1999-09-30T21:00:22Z" (938725222) transition_time 0x154-0x157.7 (4)
0x150|                        38 e5 1f f6            |        8...    |      [75]: "2000-03-31T22:00:22Z" (954540022) transition_time 0x158-0x15b.7 (4)
0x150|                                    39 d6 54 66|            9.Tf|      [76]: "2000-09-30T21:00:22Z" (970347622) transition_time 0x15c-0x15f.7 (4)
0x160|3a c6 53 76                                    |:.Sv            |      [77]: "2001-03-31T22:00:22Z" (986076022) transition_time 0x160-0x163.7 (4)
0x160|            3b b7 87 e6                        |    ;...        |      [78]: "2001-09-30T21:00:22Z" (1001883622) transition_time 0x164-0x167.7 (4)
0x160|                        3c a7 86 f6            |        <...    |      [79]: "2002-03-31T22:00:22Z" (1017612022) transition_time 0x168-0x16b.7 (4)
0x160|                                    3d 98 bb 66|            =..f|      [80]: "2002-09-30T21:00:22Z" (1033419622) transition_time 0x16c-0x16f.7 (4)
0x170|3e 88 ba 76                                    |>..v            |      [81]: "2003-03-31T22:00:22Z" (1049148022) transition_time 0x170-0x173.7 (4)
0x170|            3f 79 ee e6                        |    ?y..        |      [82]: "2003-09-30T21:00:22Z" (1064955622) transition_time 0x174-0x177.7 (4)
0x170|                        40 6b 3f 76            |        @k?v    |      [83]: "2004-03-31T22:00:22Z" (1080770422) transition_time 0x178-0x17b.7 (4)
0x170|                                    41 5c 73 e6|            A\s.|      [84]: "2004-09-30T21:00:22Z" (1096578022) transition_time 0x17c-0x17f.7 (4)
0x180|42 4c 72 f6                                    |BLr.            |      [85]: "2005-03-31T22:00:22Z" (1112306422) transition_time 0x180-0x183.7 (4)
0x180|            43 3d a7 66                        |    C=.f        |      [86]: "2005-09-30T21:00:22Z" (1128114022) transition_time 0x184-0x187.7 (4)
0x180|                        44 2d a6 77            |        D-.w    |      [87]: "2006-03-31T22:00:23Z" (1143842423) transition_time 0x188-0x18b.7 (4)
0x180|                                    45 12 fd 67|            E..g|      [88]: "2006-09-21T21:00:23Z" (1158872423) transition_time 0x18c-0x18f.7 (4)
0x190|46 0c 36 f7                                    |F.6.            |      [89]: "2007-03-29T22:00:23Z" (1175205623) transition_time 0x190-0x193.7 (4)
0x190|            47 2a 3e 67                        |    G*>g        |      [90]: "2007-11-01T21:00:23Z" (1193950823) transition_time 0x194-0x197.7 (4)
0x190|                        47 f5 53 77            |        G.Sw    |      [91]: "2008-04-03T22:00:23Z" (1207260023) transition_time 0x198-0x19b.7 (4)
0x190|                                    49 0b 71 e7|            I.q.|      [92]: "2008-10-31T21:00:23Z" (1225486823) transition_time 0x19c-0x19f.7 (4)
0x1a0|49 cb fa f8                                    |I...            |      [93]: "2009-03-26T22:00:24Z" (1238104824) transition_time 0x1a0-0x1a3.7 (4)
0x1a0|            4a ea 02 68                        |    J..h        |      [94]: "2009-10-29T21:00:24Z" (1256850024) transition_time 0x1a4-0x1a7.7 (4)
0x1a0|                        4b b5 17 78            |        K..x    |      [95]: "2010-04-01T22:00:24Z" (1270159224) transition_time 0x1a8-0x1ab.7 (4)
0x1a0|                                    4c c9 e4 68|            L..h|      [96]: "2010-10-28T21:00:24Z" (1288299624) transition_time 0x1ac-0x1af.7 (4)
0x1b0|4d 94 f9 78                                    |M..x            |      [97]: "2011-03-31T22:00:24Z" (1301608824) transition_time 0x1b0-0x1b3.7 (4)
0x1b0|            4e a9 c6 68                        |    N..h        |      [98]: "2011-10-27T21:00:24Z" (1319749224) transition_time 0x1b4-0x1b7.7 (4)
0x1b0|                        4f 74 db 78            |        Ot.x    |      [99]: "2012-03-29T22:00:24Z" (1333058424) transition_time 0x1b8-0x1bb.7 (4)
0x1b0|                                    50 89 a8 69|            P..i|      [100]: "2012-10-25T21:00:25Z" (1351198825) transition_time 0x1bc-0x1bf.7 (4)
0x1c0|51 54 bd 79                                    |QT.y            |      [101]: "2013-03-28T22:00:25Z" (1364508025) transition_time 0x1c0-0x1c3.7 (4)
0x1c0|            52 69 8a 69                        |    Ri.i        |      [102]: "2013-10-24T21:00:25Z" (1382648425) transition_time 0x1c4-0x1c7.7 (4)
0x1c0|                        53 34 9f 79            |        S4.y    |      [103]: "2014-03-27T22:00:25Z" (1395957625) transition_time 0x1c8-0x1cb.7 (4)
0x1c0|                                    54 52 a6 e9|            TR..|      [104]: "2014-10-30T21:00:25Z" (1414702825) transition_time 0x1cc-0x1cf.7 (4)
0x1d0|55 14 81 79                                    |U..y            |      [105]: "2015-03-26T22:00:25Z" (1427407225) transition_time 0x1d0-0x1d3.7 (4)
0x1d0|            56 32 88 ea                        |    V2..        |      [106]: "2015-10-29T21:00:26Z" (1446152426) transition_time 0x1d4-0x1d7.7 (4)
0x1d0|                        56 f4 63 7a            |        V.cz    |      [107]: "2016-03-24T22:00:26Z" (1458856826) transition_time 0x1d8-0x1db.7 (4)
0x1d0|                                    58 12 6a ea|            X.j.|      [108]: "2016-10-27T21:00:26Z" (1477602026) transition_time 0x1dc-0x1df.7 (4)
0x1e0|58 dd 7f fb                                    |X...            |      [109]: "2017-03-30T22:00:27Z" (1490911227) transition_time 0x1e0-0x1e3.7 (4)
0x1e0|            59 f2 4c eb                        |    Y.L.        |      [110]: "2017-10-26T21:00:27Z" (1509051627) transition_time 0x1e4-0x1e7.7 (4)
0x1e0|                        5a bd 61 fb            |        Z.a.    |      [111]: "2018-03-29T22:00:27Z" (1522360827) transition_time 0x1e8-0x1eb.7 (4)
0x1e0|                                    5b d2 2e eb|            [...|      [112]: "2018-10-25T21:00:27Z" (1540501227) transition_time 0x1ec-0x1ef.7 (4)
0x1f0|5c 9d 43 fb                                    |\.C.            |      [113]: "2019-03-28T22:00:27Z" (1553810427) transition_time 0x1f0-0x1f3.7 (4)
0x1f0|            5d b2 10 eb                        |    ]...        |      [114]: "2019-10-24T21:00:27Z" (1571950827) transition_time 0x1f4-0x1f7.7 (4)
0x1f0|                        5e 7d 25 fb            |        ^}%.    |      [115]: "2020-03-26T22:00:27Z" (1585260027) transition_time 0x1f8-0x1fb.7 (4)
0x1f0|                                    5f 9b 2d 6b|            _.-k|      [116]: "2020-10-29T21:00:27Z" (1604005227) transition_time 0x1fc-0x1ff.7 (4)
0x200|60 5d 07 fb                                    |`]..            |      [117]: "2021-03-25T22:00:27Z" (1616709627) transition_time 0x200-0x203.7 (4)
0x200|            61 7b 0f 6b                        |    a{.k        |      [118]: "2021-10-28T21:00:27Z" (1635454827) transition_time 0x204-0x207.7 (4)
0x200|                        62 3c e9 fb            |        b<..    |      [119]: "2022-03-24T22:00:27Z" (1648159227) transition_time 0x208-0x20b.7 (4)
0x200|                                    63 5a f1 6b|            cZ.k|      [120]: "2022-10-27T21:00:27Z" (1666904427) transition_time 0x20c-0x20f.7 (4)
0x210|64 9b 78 1b                                    |d.x.            |      [121]: "2023-06-28T00:00:27Z" (1687910427) transition_time 0x210-0x213.7 (4)
     |                                               |                |    transition_types[0:122]: 0x214-0x28d.7 (122)
0x210|            02                                 |    .           |      [0]: 2 transition_type 0x214-0x214.7 (1)
0x210|               01                              |     .          |      [1]: 1 transition_type 0x215-0x215.7 (1)
0x210|                  02                           |      .         |      [2]: 2 transition_type 0x216-0x216.7 (1)
0x210|                     01                        |       .        |      [3]: 1 transition_type 0x217-0x217.7 (1)
0x210|                        02                     |        .       |      [4]: 2 transition_type 0x218-0x218.7 (1)
0x210|                           01                  |         .      |      [5]: 1 transition_type 0x219-0x219.7 (1)
0x210|                              02               |          .     |      [6]: 2 transition_type 0x21a-0x21a.7 (1)
0x210|                                 01            |           .    |      [7]: 1 transition_type 0x21b-0x21b.7 (1)
0x210|                                    02         |            .   |      [8]: 2 transition_type 0x21c-0x21c.7 (1)
0x210|                                       01      |             .  |      [9]: 1 transition_type 0x21d-0x21d.7 (1)
0x210|                                          02   |              . |      [10]: 2 transition_type 0x21e-0x21e.7 (1)
0x210|                                             01|               .|      [11]: 1 transition_type 0x21f-0x21f.7 (1)
0x220|02                                             |.               |      [12]: 2 transition_type 0x220-0x220.7 (1)
0x220|   01                                          | .              |      [13]: 1 transition_type 0x221-0x221.7 (1)
0x220|      02                                       |  .             |      [14]: 2 transition_type 0x222-0x222.7 (1)
0x220|         01                                    |   .            |      [15]: 1 transition_type 0x223-0x223.7 (1)
0x220|            02                                 |    .           |      [16]: 2 transition_type 0x224-0x224.7 (1)
0x220|               01                              |     .          |      [17]: 1 transition_type 0x225-0x225.7 (1)
0x220|                  02                           |      .         |      [18]: 2 transition_type 0x226-0x226.7 (1)
0x220|                     01                        |       .        |      [19]: 1 transition_type 0x227-0x227.7 (1)
0x220|                        02                     |        .       |      [20]: 2 transition_type 0x228-0x228.7 (1)
0x220|                           01                  |         .      |      [21]: 1 transition_type 0x229-0x229.7 (1)
0x220|                              02               |          .     |      [22]: 2 transition_type 0x22a-0x22a.7 (1)
0x220|                                 01            |           .    |      [23]: 1 transition_type 0x22b-0x22b.7 (1)
0x220|                                    02         |            .   |      [24]: 2 transition_type 0x22c-0x22c.7 (1)
0x220|                                       01      |             .  |      [25]: 1 transition_type 0x22d-0x22d.7 (1)
0x220|                                          02   |              . |      [26]: 2 transition_type 0x22e-0x22e.7 (1)
0x220|                                             01|               .|      [27]: 1 transition_type 0x22f-0x22f.7 (1)
0x230|02                                             |.               |      [28]: 2 transition_type 0x230-0x230.7 (1)
0x230|   01                                          | .              |      [29]: 1 transition_type 0x231-0x231.7 (1)
0x230|      02                                       |  .             |      [30]: 2 transition_type 0x232-0x232.7 (1)
0x230|         01                                    |   .            |      [31]: 1 transition_type 0x233-0x233.7 (1)
0x230|            02                                 |    .           |      [32]: 2 transition_type 0x234-0x234.7 (1)
0x230|               01                              |     .          |      [33]: 1 transition_type 0x235-0x235.7 (1)
0x230|                  02                           |      .         |      [34]: 2 transition_type 0x236-0x236.7 (1)
0x230|                     01                        |       .        |      [35]: 1 transition_type 0x237-0x237.7 (1)
0x230|                        02                     |        .       |      [36]: 2 transition_type 0x238-0x238.7 (1)
0x230|                           01                  |         .      |      [37]: 1 transition_type 0x239-0x239.7 (1)
0x230|                              02               |          .     |      [38]: 2 transition_type 0x23a-0x23a.7 (1)
0x230|                                 01            |           .    |      [39]: 1 transition_type 0x23b-0x23b.7 (1)
0x230|                                    02         |            .   |      [40]: 2 transition_type 0x23c-0x23c.7 (1)
0x230|                                       01      |             .  |      [41]: 1 transition_type 0x23d-0x23d.7 (1)
0x230|                                          02   |              . |      [42]: 2 transition_type 0x23e-0x23e.7 (1)
0x230|                                             01|               .|      [43]: 1 transition_type 0x23f-0x23f.7 (1)
0x240|02                                             |.               |      [44]: 2 transition_type 0x240-0x240.7 (1)
0x240|   01                                          | .              |      [45]: 1 transition_type 0x241-0x241.7 (1)
0x240|      02                                       |  .             |      [46]: 2 transition_type 0x242-0x242.7 (1)
0x240|         01                                    |   .            |      [47]: 1 transition_type 0x243-0x243.7 (1)
0x240|            02                                 |    .           |      [48]: 2 transition_type 0x244-0x244.7 (1)
0x240|               01                              |     .          |      [49]: 1 transition_type 0x245-0x245.7 (1)
0x240|                  02                           |      .         |      [50]: 2 transition_type 0x246-0x246.7 (1)
0x240|                     01                        |       .        |      [51]: 1 transition_type 0x247-0x247.7 (1)
0x240|                        02                     |        .       |      [52]: 2 transition_type 0x248-0x248.7 (1)
0x240|                           01                  |         .      |      [53]: 1 transition_type 0x249-0x249.7 (1)
0x240|                              02               |          .     |      [54]: 2 transition_type 0x24a-0x24a.7 (1)
0x240|                                 01            |           .    |      [55]: 1 transition_type 0x24b-0x24b.7 (1)
0x240|                                    02         |            .   |      [56]: 2 transition_type 0x24c-0x24c.7 (1)
0x240|                                       01      |             .  |      [57]: 1 transition_type 0x24d-0x24d.7 (1)
0x240|                                          02   |              . |      [58]: 2 transition_type 0x24e-0x24e.7 (1)
0x240|                                             01|               .|      [59]: 1 transition_type 0x24f-0x24f.7 (1)
0x250|02                                             |.               |      [60]: 2 transition_type 0x250-0x250.7 (1)
0x250|   01                                          | .              |      [61]: 1 transition_type 0x251-0x251.7 (1)
0x250|      02                                       |  .             |      [62]: 2 transition_type 0x252-0x252.7 (1)
0x250|         01                                    |   .            |      [63]: 1 transition_type 0x253-0x253.7 (1)
0x250|            02                                 |    .           |      [64]: 2 transition_type 0x254-0x254.7 (1)
0x250|               01                              |     .          |      [65]: 1 transition_type 0x255-0x255.7 (1)
0x250|                  02                           |      .         |      [66]: 2 transition_type 0x256-0x256.7 (1)
0x250|                     01                        |       .        |      [67]: 1 transition_type 0x257-0x257.7 (1)
0x250|                        02                     |        .       |      [68]: 2 transition_type 0x258-0x258.7 (1)
0x250|                           01                  |         .      |      [69]: 1 transition_type 0x259-0x259.7 (1)
0x250|                              02               |          .     |      [70]: 2 transition_type 0x25a-0x25a.7 (1)
0x250|                                 01            |           .    |      [71]: 1 transition_type 0x25b-0x25b.7 (1)
0x250|                                    02         |            .   |      [72]: 2 transition_type 0x25c-0x25c.7 (1)
0x250|                                       01      |             .  |      [73]: 1 transition_type 0x25d-0x25d.7 (1)
0x250|                                          02   |              . |      [74]: 2 transition_type 0x25e-0x25e.7 (1)
0x250|                                             01|               .|      [75]: 1 transition_type 0x25f-0x25f.7 (1)
0x260|02                                             |.               |      [76]: 2 transition_type 0x260-0x260.7 (1)
0x260|   01                                          | .              |      [77]: 1 transition_type 0x261-0x261.7 (1)
0x260|      02                                       |  .             |      [78]: 2 transition_type 0x262-0x262.7 (1)
0x260|         01                                    |   .            |      [79]: 1 transition_type 0x263-0x263.7 (1)
0x260|            02                                 |    .           |      [80]: 2 transition_type 0x264-0x264.7 (1)
0x260|               01                              |     .          |      [81]: 1 transition_type 0x265-0x265.7 (1)
0x260|                  02                           |      .         |      [82]: 2 transition_type 0x266-0x266.7 (1)
0x260|                     01                        |       .        |      [83]: 1 transition_type 0x267-0x267.7 (1)
0x260|                        02                     |        .       |      [84]: 2 transition_type 0x268-0x268.7 (1)
0x260|                           01                  |         .      |      [85]: 1 transition_type 0x269-0x269.7 (1)
0x260|                              02               |          .     |      [86]: 2 transition_type 0x26a-0x26a.7 (1)
0x260|                                 01            |           .    |      [87]: 1 transition_type 0x26b-0x26b.7 (1)
0x260|                                    02         |            .   |      [88]: 2 transition_type 0x26c-0x26c.7 (1)
0x260|                                       01      |             .  |      [89]: 1 transition_type 0x26d-0x26d.7 (1)
0x260|                                          02   |              . |      [90]: 2 transition_type 0x26e-0x26e.7 (1)
0x260|                                             01|               .|      [91]: 1 transition_type 0x26f-0x26f.7 (1)
0x270|02                                             |.               |      [92]: 2 transition_type 0x270-0x270.7 (1)
0x270|   01                                          | .              |      [93]: 1 transition_type 0x271-0x271.7 (1)
0x270|      02                                       |  .             |      [94]: 2 transition_type 0x272-0x272.7 (1)
0x270|         01                                    |   .            |      [95]: 1 transition_type 0x273-0x273.7 (1)
0x270|            02                                 |    .           |      [96]: 2 transition_type 0x274-0x274.7 (1)
0x270|               01                              |     .          |      [97]: 1 transition_type 0x275-0x275.7 (1)
0x270|                  02                           |      .         |      [98]: 2 transition_type 0x276-0x276.7 (1)
0x270|                     01                        |       .        |      [99]: 1 transition_type 0x277-0x277.7 (1)
0x270|                        02                     |        .       |      [100]: 2 transition_type 0x278-0x278.7 (1)
0x270|                           01                  |         .      |      [101]: 1 transition_type 0x279-0x279.7 (1)
0x270|                              02               |          .     |      [102]: 2 transition_type 0x27a-0x27a.7 (1)
0x270|                                 01            |           .    |      [103]: 1 transition_type 0x27b-0x27b.7 (1)
0x270|                                    02         |            .   |      [104]: 2 transition_type 0x27c-0x27c.7 (1)
0x270|                                       01      |             .  |      [105]: 1 transition_type 0x27d-0x27d.7 (1)
0x270|                                          02   |              . |      [106]: 2 transition_type 0x27e-0x27e.7 (1)
0x270|                                             01|               .|      [107]: 1 transition_type 0x27f-0x27f.7 (1)
0x280|02                                             |.               |      [108]: 2 transition_type 0x280-0x280.7 (1)
0x280|   01                                          | .              |      [109]: 1 transition_type 0x281-0x281.7 (1)
0x280|      02                                       |  .             |      [110]: 2 transition_type 0x282-0x282.7 (1)
0x280|         01                                    |   .            |      [111]: 1 transition_type 0x283-0x283.7 (1)
0x280|            02                                 |    .           |      [112]: 2 transition_type 0x284-0x284.7 (1)
0x280|               01                              |     .          |      [113]: 1 transition_type 0x285-0x285.7 (1)
0x280|                  02                           |      .         |      [114]: 2 transition_type 0x286-0x286.7 (1)
0x280|                     01                        |       .        |      [115]: 1 transition_type 0x287-0x287.7 (1)
0x280|                        02                     |        .       |      [116]: 2 transition_type 0x288-0x288.7 (1)
0x280|                           01                  |         .      |      [117]: 1 transition_type 0x289-0x289.7 (1)
0x280|                              02               |          .     |      [118]: 2 transition_type 0x28a-0x28a.7 (1)
0x280|                                 01            |           .    |      [119]: 1 transition_type 0x28b-0x28b.7 (1)
0x280|                                    03         |            .   |      [120]: 3 transition_type 0x28c-0x28c.7 (1)
0x280|                                       03      |             .  |      [121]: 3 transition_type 0x28d-0x28d.7 (1)
     |                                               |                |    local_time_type_records[0:4]: 0x28e-0x2a5.7 (24)
     |                                               |                |      [0]{}: local_time_type 0x28e-0x293.7 (6)
0x280|                                          00 00|              ..|        utoff: 8712 (valid) 0x28e-0x291.7 (4)
0x290|22 08                                          |".              |
0x290|      00                                       |  .             |        dst: 0 (valid) 0x292-0x292.7 (1)
0x290|         00                                    |   .            |        idx: 0 (valid) 0x293-0x293.7 (1)
     |                                               |                |      [1]{}: local_time_type 0x294-0x299.7 (6)
0x290|            00 00 2a 30                        |    ..*0        |        utoff: 10800 (valid) 0x294-0x297.7 (4)
0x290|                        01                     |        .       |        dst: 1 (valid) 0x298-0x298.7 (1)
0x290|                           04                  |         .      |        idx: 4 (valid) 0x299-0x299.7 (1)
     |                                               |                |      [2]{}: local_time_type 0x29a-0x29f.7 (6)
0x290|                              00 00 1c 20      |          ...   |        utoff: 7200 (valid) 0x29a-0x29d.7 (4)
0x290|                                          00   |              . |        dst: 0 (valid) 0x29e-0x29e.7 (1)
0x290|                                             09|               .|        idx: 9 (valid) 0x29f-0x29f.7 (1)
     |                                               |                |      [3]{}: local_time_type 0x2a0-0x2a5.7 (6)
0x2a0|00 00 2a 30                                    |..*0            |        utoff: 10800 (valid) 0x2a0-0x2a3.7 (4)
0x2a0|            00                                 |    .           |        dst: 0 (valid) 0x2a4-0x2a4.7 (1)
0x2a0|               0d                              |     .          |        idx: 13 (valid) 0x2a5-0x2a5.7 (1)
     |                                               |                |    time_zone_designations[0:4]: 0x2a6-0x2b6.7 (17)
0x2a0|                  4c 4d 54 00                  |      LMT.      |      [0]: "LMT" time_zone_designation 0x2a6-0x2a9.7 (4)
0x2a0|                              45 45 53 54 00   |          EEST. |      [1]: "EEST" time_zone_designation 0x2aa-0x2ae.7 (5)
0x2a0|                                             45|               E|      [2]: "EET" time_zone_designation 0x2af-0x2b2.7 (4)
0x2b0|45 54 00                                       |ET.             |
0x2b0|         2b 30 33 00                           |   +03.         |      [3]: "+03" time_zone_designation 0x2b3-0x2b6.7 (4)
     |                                               |                |    leap_second_records[0:27]: 0x2b7-0x38e.7 (216)
     |                                               |                |      [0]{}: leap_second_record 0x2b7-0x2be.7 (8)
0x2b0|                     04 b2 58 00               |       ..X.     |        occur: "1972-07-01T00:00:00Z" (78796800) 0x2b7-0x2ba.7 (4)
0x2b0|                                 00 00 00 01   |           .... |        corr: 1 0x2bb-0x2be.7 (4)
     |                                               |                |      [1]{}: leap_second_record 0x2bf-0x2c6.7 (8)
0x2b0|                                             05|               .|        occur: "1973-01-01T00:00:01Z" (94694401) 0x2bf-0x2c2.7 (4)
0x2c0|a4 ec 01                                       |...             |
0x2c0|         00 00 00 02                           |   ....         |        corr: 2 0x2c3-0x2c6.7 (4)
     |                                               |                |      [2]{}: leap_second_record 0x2c7-0x2ce.7 (8)
0x2c0|                     07 86 1f 82               |       ....     |        occur: "1974-01-01T00:00:02Z" (126230402) 0x2c7-0x2ca.7 (4)
0x2c0|                                 00 00 00 03   |           .... |        corr: 3 0x2cb-0x2ce.7 (4)
     |                                               |                |      [3]{}: leap_second_record 0x2cf-0x2d6.7 (8)
0x2c0|                                             09|               .|        occur: "1975-01-01T00:00:03Z" (157766403) 0x2cf-0x2d2.7 (4)
0x2d0|67 53 03                                       |gS.             |
0x2d0|         00 00 00 04                           |   ....         |        corr: 4 0x2d3-0x2d6.7 (4)
     |                                               |                |      [4]{}: leap_second_record 0x2d7-0x2de.7 (8)
0x2d0|                     0b 48 86 84               |       .H..     |        occur: "1976-01-01T00:00:04Z" (189302404) 0x2d7-0x2da.7 (4)
0x2d0|                                 00 00 00 05   |           .... |        corr: 5 0x2db-0x2de.7 (4)
     |                                               |                |      [5]{}: leap_second_record 0x2df-0x2e6.7 (8)
0x2d0|                                             0d|               .|        occur: "1977-01-01T00:00:05Z" (220924805) 0x2df-0x2e2.7 (4)
0x2e0|2b 0b 85                                       |+..             |
0x2e0|         00 00 00 06                           |   ....         |        corr: 6 0x2e3-0x2e6.7 (4)
     |                                               |                |      [6]{}: leap_second_record 0x2e7-0x2ee.7 (8)
0x2e0|                     0f 0c 3f 06               |       ..?.     |        occur: "1978-01-01T00:00:06Z" (252460806) 0x2e7-0x2ea.7 (4)
0x2e0|                                 00 00 00 07   |           .... |        corr: 7 0x2eb-0x2ee.7 (4)
     |                                               |                |      [7]{}: leap_second_record 0x2ef-0x2f6.7 (8)
0x2e0|                                             10|               .|        occur: "1979-01-01T00:00:07Z" (283996807) 0x2ef-0x2f2.7 (4)
0x2f0|ed 72 87                                       |.r.             |
0x2f0|         00 00 00 08                           |   ....         |        corr: 8 0x2f3-0x2f6.7 (4)
     |                                               |                |      [8]{}: leap_second_record 0x2f7-0x2fe.7 (8)
0x2f0|                     12 ce a6 08               |       ....     |        occur: "1980-01-01T00:00:08Z" (315532808) 0x2f7-0x2fa.7 (4)
0x2f0|                                 00 00 00 09   |           .... |        corr: 9 0x2fb-0x2fe.7 (4)
     |                                               |                |      [9]{}: leap_second_record 0x2ff-0x306.7 (8)
0x2f0|                                             15|               .|        occur: "1981-07-01T00:00:09Z" (362793609) 0x2ff-0x302.7 (4)
0x300|9f ca 89                                       |...             |
0x300|         00 00 00 0a                           |   ....         |        corr: 10 0x303-0x306.7 (4)
     |                                               |                |      [10]{}: leap_second_record 0x307-0x30e.7 (8)
0x300|                     17 80 fe 0a               |       ....     |        occur: "1982-07-01T00:00:10Z" (394329610) 0x307-0x30a.7 (4)
0x300|                                 00 00 00 0b   |           .... |        corr: 11 0x30b-0x30e.7 (4)
     |                                               |                |      [11]{}: leap_second_record 0x30f-0x316.7 (8)
0x300|                                             19|               .|        occur: "1983-07-01T00:00:11Z" (425865611) 0x30f-0x312.7 (4)
0x310|62 31 8b                                       |b1.             |
0x310|         00 00 00 0c                           |   ....         |        corr: 12 0x313-0x316.7 (4)
     |                                               |                |      [12]{}: leap_second_record 0x317-0x31e.7 (8)
0x310|                     1d 25 ea 0c               |       .%..     |        occur: "1985-07-01T00:00:12Z" (489024012) 0x317-0x31a.7 (4)
0x310|                                 00 00 00 0d   |           .... |        corr: 13 0x31b-0x31e.7 (4)
     |                                               |                |      [13]{}: leap_second_record 0x31f-0x326.7 (8)
0x310|                                             21|               !|        occur: "1988-01-01T00:00:13Z" (567993613) 0x31f-0x322.7 (4)
0x320|da e5 0d                                       |...             |
0x320|         00 00 00 0e                           |   ....         |        corr: 14 0x323-0x326.7 (4)
     |                                               |                |      [14]{}: leap_second_record 0x327-0x32e.7 (8)
0x320|                     25 9e 9d 8e               |       %...     |        occur: "1990-01-01T00:00:14Z" (631152014) 0x327-0x32a.7 (4)
0x320|                                 00 00 00 0f   |           .... |        corr: 15 0x32b-0x32e.7 (4)
     |                                               |                |      [15]{}: leap_second_record 0x32f-0x336.7 (8)
0x320|                                             27|               '|        occur: "1991-01-01T00:00:15Z" (662688015) 0x32f-0x332.7 (4)
0x330|7f d1 0f                                       |...             |
0x330|         00 00 00 10                           |   ....         |        corr: 16 0x333-0x336.7 (4)
     |                                               |                |      [16]{}: leap_second_record 0x337-0x33e.7 (8)
0x330|                     2a 50 f5 90               |       *P..     |        occur: "1992-07-01T00:00:16Z" (709948816) 0x337-0x33a.7 (4)
0x330|                                 00 00 00 11   |           .... |        corr: 17 0x33b-0x33e.7 (4)
     |                                               |                |      [17]{}: leap_second_record 0x33f-0x346.7 (8)
0x330|                                             2c|               ,|        occur: "1993-07-01T00:00:17Z" (741484817) 0x33f-0x342.7 (4)
0x340|32 29 11                                       |2).             |
0x340|         00 00 00 12                           |   ....         |        corr: 18 0x343-0x346.7 (4)
     |                                               |                |      [18]{}: leap_second_record 0x347-0x34e.7 (8)
0x340|                     2e 13 5c 92               |       ..\.     |        occur: "1994-07-01T00:00:18Z" (773020818) 0x347-0x34a.7 (4)
0x340|                                 00 00 00 13   |           .... |        corr: 19 0x34b-0x34e.7 (4)
     |                                               |                |      [19]{}: leap_second_record 0x34f-0x356.7 (8)
0x340|                                             30|               0|        occur: "1996-01-01T00:00:19Z" (820454419) 0x34f-0x352.7 (4)
0x350|e7 24 13                                       |.$.             |
0x350|         00 00 00 14                           |   ....         |        corr: 20 0x353-0x356.7 (4)
     |                                               |                |      [20]{}: leap_second_record 0x357-0x35e.7 (8)
0x350|                     33 b8 48 94               |       3.H.     |        occur: "1997-07-01T00:00:20Z" (867715220) 0x357-0x35a.7 (4)
0x350|                                 00 00 00 15   |           .... |        corr: 21 0x35b-0x35e.7 (4)
     |                                               |                |      [21]{}: leap_second_record 0x35f-0x366.7 (8)
0x350|                                             36|               6|        occur: "1999-01-01T00:00:21Z" (915148821) 0x35f-0x362.7 (4)
0x360|8c 10 15                                       |...             |
0x360|         00 00 00 16                           |   ....         |        corr: 22 0x363-0x366.7 (4)
     |                                               |                |      [22]{}: leap_second_record 0x367-0x36e.7 (8)
0x360|                     43 b7 1b 96               |       C...     |        occur: "2006-01-01T00:00:22Z" (1136073622) 0x367-0x36a.7 (4)
0x360|                                 00 00 00 17   |           .... |        corr: 23 0x36b-0x36e.7 (4)
     |                                               |                |      [23]{}: leap_second_record 0x36f-0x376.7 (8)
0x360|                                             49|               I|        occur: "2009-01-01T00:00:23Z" (1230768023) 0x36f-0x372.7 (4)
0x370|5c 07 97                                       |\..             |
0x370|         00 00 00 18                           |   ....         |        corr: 24 0x373-0x376.7 (4)
     |                                               |                |      [24]{}: leap_second_record 0x377-0x37e.7 (8)
0x370|                     4f ef 93 18               |       O...     |        occur: "2012-07-01T00:00:24Z" (1341100824) 0x377-0x37a.7 (4)
0x370|                                 00 00 00 19   |           .... |        corr: 25 0x37b-0x37e.7 (4)
     |                                               |                |      [25]{}: leap_second_record 0x37f-0x386.7 (8)
0x370|                                             55|               U|        occur: "2015-07-01T00:00:25Z" (1435708825) 0x37f-0x382.7 (4)
0x380|93 2d 99                                       |.-.             |
0x380|         00 00 00 1a                           |   ....         |        corr: 26 0x383-0x386.7 (4)
     |                                               |                |      [26]{}: leap_second_record 0x387-0x38e.7 (8)
0x380|                     58 68 46 9a               |       XhF.     |        occur: "2017-01-01T00:00:26Z" (1483228826) 0x387-0x38a.7 (4)
0x380|                                 00 00 00 1b   |           .... |        corr: 27 0x38b-0x38e.7 (4)
     |                                               |                |    standard_wall_indicators[0:0]: 0x38f-NA (0)
     |                                               |                |    ut_local_indicators[0:0]: 0x38f-NA (0)
     |                                               |                |  v2plusheader{}: 0x38f-0x3ba.7 (44)
0x380|                                             54|               T|    magic: 0x545a6966 (valid) 0x38f-0x392.7 (4)
0x390|5a 69 66                                       |Zif             |
0x390|         32                                    |   2            |    ver: "2" (0x32) (valid) 0x393-0x393.7 (1)
0x390|            00 00 00 00 00 00 00 00 00 00 00 00|    ............|    reserved: raw bits 0x394-0x3a2.7 (15)
0x3a0|00 00 00                                       |...             |
0x3a0|         00 00 00 00                           |   ....         |    isutcnt: 0 0x3a3-0x3a6.7 (4)
0x3a0|                     00 00 00 00               |       ....     |    isstdcnt: 0 0x3a7-0x3aa.7 (4)
0x3a0|                                 00 00 00 1b   |           .... |    leapcnt: 27 0x3ab-0x3ae.7 (4)
0x3a0|                                             00|               .|    timecnt: 122 0x3af-0x3b2.7 (4)
0x3b0|00 00 7a                                       |..z             |
0x3b0|         00 00 00 04                           |   ....         |    typecnt: 4 0x3b3-0x3b6.7 (4)
0x3b0|                     00 00 00 11               |       ....     |    charcnt: 17 0x3b7-0x3ba.7 (4)
     |                                               |                |  v2plusdatablock{}: 0x3bb-0x971.7 (1463)
     |                                               |                |    transition_times[0:122]: 0x3bb-0x78a.7 (976)
0x3b0|                                 ff ff ff ff a1|           .....|      [0]: "1919-12-31T21:34:48Z" (-1577931912) transition_time 0x3bb-0x3c2.7 (8)
0x3c0|f2 ab 78                                       |..x             |
0x3c0|         ff ff ff ff a2 81 2f 80               |   ....../.     |      [1]: "1920-04-18T00:00:00Z" (-1568592000) transition_time 0x3c3-0x3ca.7 (8)
0x3c0|                                 ff ff ff ff a3|           .....|      [2]: "1920-10-02T23:00:00Z" (-1554080400) transition_time 0x3cb-0x3d2.7 (8)
0x3d0|5e 9d 70                                       |^.p             |
0x3d0|         ff ff ff ff a4 61 11 80               |   .....a..     |      [3]: "1921-04-17T00:00:00Z" (-1537142400) transition_time 0x3d3-0x3da.7 (8)
0x3d0|                                 ff ff ff ff a5|           .....|      [4]: "1921-10-01T23:00:00Z" (-1522630800) transition_time 0x3db-0x3e2.7 (8)
0x3e0|3e 7f 70                                       |>.p             |
0x3e0|         ff ff ff ff a6 40 f3 80               |   .....@..     |      [5]: "1922-04-16T00:00:00Z" (-1505692800) transition_time 0x3e3-0x3ea.7 (8)
0x3e0|                                 ff ff ff ff a7|           .....|      [6]: "1922-09-30T23:00:00Z" (-1491181200) transition_time 0x3eb-0x3f2.7 (8)
0x3f0|1e 61 70                                       |.ap             |
0x3f0|         ff ff ff ff a8 20 d5 80               |   ..... ..     |      [7]: "1923-04-15T00:00:00Z" (-1474243200) transition_time 0x3f3-0x3fa.7 (8)
0x3f0|                                 ff ff ff ff a9|           .....|      [8]: "1923-10-06T23:00:00Z" (-1459126800) transition_time 0x3fb-0x402.7 (8)
0x400|07 7d f0                                       |.}.             |
0x400|         ff ff ff ff f1 8f 52 00               |   ......R.     |      [9]: "1962-04-29T00:00:00Z" (-242265600) transition_time 0x403-0x40a.7 (8)
0x400|                                 ff ff ff ff f2|           .....|      [10]: "1962-09-30T23:00:00Z" (-228877200) transition_time 0x40b-0x412.7 (8)
0x410|5b 9c 70                                       |[.p             |
0x410|         ff ff ff ff f3 73 28 80               |   .....s(.     |      [11]: "1963-05-01T00:00:00Z" (-210556800) transition_time 0x413-0x41a.7 (8)
0x410|                                 ff ff ff ff f4|           .....|      [12]: "1963-09-29T23:00:00Z" (-197427600) transition_time 0x41b-0x422.7 (8)
0x420|3b 7e 70                                       |;~p             |
0x420|         ff ff ff ff f5 55 ad 80               |   .....U..     |      [13]: "1964-05-01T00:00:00Z" (-178934400) transition_time 0x423-0x42a.7 (8)
0x420|                                 ff ff ff ff f6|           .....|      [14]: "1964-09-30T23:00:00Z" (-165718800) transition_time 0x42b-0x432.7 (8)
0x430|1f 54 f0                                       |.T.             |
0x430|         ff ff ff ff f7 36 e1 00               |   .....6..     |      [15]: "1965-05-01T00:00:00Z" (-147398400) transition_time 0x433-0x43a.7 (8)
0x430|                                 ff ff ff ff f7|           .....|      [16]: "1965-09-29T23:00:00Z" (-134269200) transition_time 0x43b-0x442.7 (8)
0x440|ff 36 f0                                       |.6.             |
0x440|         ff ff ff ff f9 0e da 00               |   ........     |      [17]: "1966-04-24T00:00:00Z" (-116467200) transition_time 0x443-0x44a.7 (8)
0x440|                                 ff ff ff ff f9|           .....|      [18]: "1966-09-30T23:00:00Z" (-102646800) transition_time 0x44b-0x452.7 (8)
0x450|e1 bb f0                                       |...             |
0x450|         ff ff ff ff fa f9 48 00               |   ......H.     |      [19]: "1967-05-01T00:00:00Z" (-84326400) transition_time 0x453-0x45a.7 (8)
0x450|                                 ff ff ff ff fb|           .....|      [20]: "1967-09-30T23:00:00Z" (-71110800) transition_time 0x45b-0x462.7 (8)
0x460|c2 ef 70                                       |..p             |
0x460|         ff ff ff ff fc db cd 00               |   ........     |      [21]: "1968-05-01T00:00:00Z" (-52704000) transition_time 0x463-0x46a.7 (8)
0x460|                                 ff ff ff ff fd|           .....|      [22]: "1968-09-30T23:00:00Z" (-39488400) transition_time 0x46b-0x472.7 (8)
0x470|a5 74 70                                       |.tp             |
0x470|         ff ff ff ff fe bd 00 80               |   ........     |      [23]: "1969-05-01T00:00:00Z" (-21168000) transition_time 0x473-0x47a.7 (8)
0x470|                                 ff ff ff ff ff|           .....|      [24]: "1969-09-30T23:00:00Z" (-7952400) transition_time 0x47b-0x482.7 (8)
0x480|86 a7 f0                                       |...             |
0x480|         00 00 00 00 00 9e 34 00               |   ......4.     |      [25]: "1970-05-01T00:00:00Z" (10368000) transition_time 0x483-0x48a.7 (8)
0x480|                                 00 00 00 00 01|           .....|      [26]: "1970-09-30T23:00:00Z" (23583600) transition_time 0x48b-0x492.7 (8)
0x490|67 db 70                                       |g.p             |
0x490|         00 00 00 00 02 7f 67 80               |   ......g.     |      [27]: "1971-05-01T00:00:00Z" (41904000) transition_time 0x493-0x49a.7 (8)
0x490|                                 00 00 00 00 03|           .....|      [28]: "1971-09-30T23:00:00Z" (55119600) transition_time 0x49b-0x4a2.7 (8)
0x4a0|49 0e f0                                       |I..             |
0x4a0|         00 00 00 00 04 61 ec 80               |   .....a..     |      [29]: "1972-05-01T00:00:00Z" (73526400) transition_time 0x4a3-0x4aa.7 (8)
0x4a0|                                 00 00 00 00 05|           .....|      [30]: "1972-09-30T23:00:01Z" (86742001) transition_time 0x4ab-0x4b2.7 (8)
0x4b0|2b 93 f1                                       |+..             |
0x4b0|         00 00 00 00 06 43 20 02               |   .....C .     |      [31]: "1973-05-01T00:00:02Z" (105062402) transition_time 0x4b3-0x4ba.7 (8)
0x4b0|                                 00 00 00 00 07|           .....|      [32]: "1973-09-30T23:00:02Z" (118278002) transition_time 0x4bb-0x4c2.7 (8)
0x4c0|0c c7 72                                       |..r             |
0x4c0|         00 00 00 00 08 24 53 83               |   .....$S.     |      [33]: "1974-05-01T00:00:03Z" (136598403) transition_time 0x4c3-0x4ca.7 (8)
0x4c0|                                 00 00 00 00 08|           .....|      [34]: "1974-09-30T23:00:03Z" (149814003) transition_time 0x4cb-0x4d2.7 (8)
0x4d0|ed fa f3                                       |...             |
0x4d0|         00 00 00 00 0a 05 87 04               |   ........     |      [35]: "1975-05-01T00:00:04Z" (168134404) transition_time 0x4d3-0x4da.7 (8)
0x4d0|                                 00 00 00 00 0a|           .....|      [36]: "1975-09-30T23:00:04Z" (181350004) transition_time 0x4db-0x4e2.7 (8)
0x4e0|cf 2e 74                                       |..t             |
0x4e0|         00 00 00 00 0b e8 0c 05               |   ........     |      [37]: "1976-05-01T00:00:05Z" (199756805) transition_time 0x4e3-0x4ea.7 (8)
0x4e0|                                 00 00 00 00 0c|           .....|      [38]: "1976-09-30T23:00:05Z" (212972405) transition_time 0x4eb-0x4f2.7 (8)
0x4f0|b1 b3 75                                       |..u             |
0x4f0|         00 00 00 00 0d c9 3f 86               |   ......?.     |      [39]: "1977-05-01T00:00:06Z" (231292806) transition_time 0x4f3-0x4fa.7 (8)
0x4f0|                                 00 00 00 00 0e|           .....|      [40]: "1977-08-31T23:00:06Z" (241916406) transition_time 0x4fb-0x502.7 (8)
0x500|6b 59 f6                                       |kY.             |
0x500|         00 00 00 00 0f aa 73 07               |   ......s.     |      [41]: "1978-05-01T00:00:07Z" (262828807) transition_time 0x503-0x50a.7 (8)
0x500|                                 00 00 00 00 10|           .....|      [42]: "1978-08-31T23:00:07Z" (273452407) transition_time 0x50b-0x512.7 (8)
0x510|4c 8d 77                                       |L.w             |
0x510|         00 00 00 00 18 f4 c5 0b               |   ........     |      [43]: "1983-04-09T00:00:11Z" (418694411) transition_time 0x513-0x51a.7 (8)
0x510|                                 00 00 00 00 19|           .....|      [44]: "1983-09-30T23:00:12Z" (433810812) transition_time 0x51b-0x522.7 (8)
0x520|db 6d 7c                                       |.m|             |
0x520|         00 00 00 00 1a d7 4a 0c               |   ......J.     |      [45]: "1984-04-09T00:00:12Z" (450316812) transition_time 0x523-0x52a.7 (8)
0x520|                                 00 00 00 00 1b|           .....|      [46]: "1984-09-30T23:00:12Z" (465433212) transition_time 0x52b-0x532.7 (8)
0x530|bd f2 7c                                       |..|             |
0x530|         00 00 00 00 1e 55 23 0d               |   .....U#.     |      [47]: "1986-02-16T00:00:13Z" (508896013) transition_time 0x533-0x53a.7 (8)
0x530|                                 00 00 00 00 1f|           .....|      [48]: "1986-10-08T23:00:13Z" (529196413) transition_time 0x53b-0x542.7 (8)
0x540|8a e5 7d                                       |..}             |
0x540|         00 00 00 00 20 47 7a 0d               |   .... Gz.     |      [49]: "1987-03-01T00:00:13Z" (541555213) transition_time 0x543-0x54a.7 (8)
0x540|                                 00 00 00 00 21|           ....!|      [50]: "1987-10-30T23:00:13Z" (562633213) transition_time 0x54b-0x552.7 (8)
0x550|89 19 fd                                       |...             |
0x550|         00 00 00 00 22 3c 74 0e               |   ...."<t.     |      [51]: "1988-03-15T00:00:14Z" (574387214) transition_time 0x553-0x55a.7 (8)
0x550|                                 00 00 00 00 23|           ....#|      [52]: "1988-10-30T23:00:14Z" (594255614) transition_time 0x55b-0x562.7 (8)
0x560|6b 9e fe                                       |k..             |
0x560|         00 00 00 00 24 32 bf 8e               |   ....$2..     |      [53]: "1989-03-31T00:00:14Z" (607305614) transition_time 0x563-0x56a.7 (8)
0x560|                                 00 00 00 00 25|           ....%|      [54]: "1989-09-30T23:00:14Z" (623199614) transition_time 0x56b-0x572.7 (8)
0x570|25 45 7e                                       |%E~             |
0x570|         00 00 00 00 26 15 44 8f               |   ....&.D.     |      [55]: "1990-04-01T00:00:15Z" (638928015) transition_time 0x573-0x57a.7 (8)
0x570|                                 00 00 00 00 27|           ....'|      [56]: "1990-09-29T23:00:15Z" (654649215) transition_time 0x57b-0x582.7 (8)
0x580|05 27 7f                                       |.'.             |
0x580|         00 00 00 00 27 f6 5b f0               |   ....'.[.     |      [57]: "1991-03-31T22:00:16Z" (670456816) transition_time 0x583-0x58a.7 (8)
0x580|                                 00 00 00 00 28|           ....(|      [58]: "1991-09-30T21:00:16Z" (686264416) transition_time 0x58b-0x592.7 (8)
0x590|e7 90 60                                       |..`             |
0x590|         00 00 00 00 29 e2 1b 70               |   ....)..p     |      [59]: "1992-04-07T22:00:16Z" (702684016) transition_time 0x593-0x59a.7 (8)
0x590|                                 00 00 00 00 2a|           ....*|      [60]: "1992-09-30T21:00:17Z" (717886817) transition_time 0x59b-0x5a2.7 (8)
0x5a0|ca 15 61                                       |..a             |
0x5a0|         00 00 00 00 2b b2 2b 71               |   ....+.+q     |      [61]: "1993-03-25T22:00:17Z" (733096817) transition_time 0x5a3-0x5aa.7 (8)
0x5a0|                                 00 00 00 00 2c|           ....,|      [62]: "1993-09-24T21:00:18Z" (748904418) transition_time 0x5ab-0x5b2.7 (8)
0x5b0|a3 5f e2                                       |._.             |
0x5b0|         00 00 00 00 2d 9b 47 f2               |   ....-.G.     |      [63]: "1994-03-31T22:00:18Z" (765151218) transition_time 0x5b3-0x5ba.7 (8)
0x5b0|                                 00 00 00 00 2e|           .....|      [64]: "1994-09-30T21:00:19Z" (780958819) transition_time 0x5bb-0x5c2.7 (8)
0x5c0|8c 7c 63                                       |.|c             |
0x5c0|         00 00 00 00 2f 7c 7b 73               |   ..../|{s     |      [65]: "1995-03-31T22:00:19Z" (796687219) transition_time 0x5c3-0x5ca.7 (8)
0x5c0|                                 00 00 00 00 30|           ....0|      [66]: "1995-09-30T21:00:19Z" (812494819) transition_time 0x5cb-0x5d2.7 (8)
0x5d0|6d af e3                                       |m..             |
0x5d0|         00 00 00 00 31 5f 00 74               |   ....1_.t     |      [67]: "1996-03-31T22:00:20Z" (828309620) transition_time 0x5d3-0x5da.7 (8)
0x5d0|                                 00 00 00 00 32|           ....2|      [68]: "1996-09-30T21:00:20Z" (844117220) transition_time 0x5db-0x5e2.7 (8)
0x5e0|50 34 e4                                       |P4.             |
0x5e0|         00 00 00 00 33 3e e2 74               |   ....3>.t     |      [69]: "1997-03-30T22:00:20Z" (859759220) transition_time 0x5e3-0x5ea.7 (8)
0x5e0|                                 00 00 00 00 34|           ....4|      [70]: "1997-09-30T21:00:21Z" (875653221) transition_time 0x5eb-0x5f2.7 (8)
0x5f0|31 68 65                                       |1he             |
0x5f0|         00 00 00 00 35 1e c4 75               |   ....5..u     |      [71]: "1998-03-29T22:00:21Z" (891208821) transition_time 0x5f3-0x5fa.7 (8)
0x5f0|                                 00 00 00 00 36|           ....6|      [72]: "1998-09-30T21:00:21Z" (907189221) transition_time 0x5fb-0x602.7 (8)
0x600|12 9b e5                                       |...             |
0x600|         00 00 00 00 37 02 9a f6               |   ....7...     |      [73]: "1999-03-31T22:00:22Z" (922917622) transition_time 0x603-0x60a.7 (8)
0x600|                                 00 00 00 00 37|           ....7|      [74]: "1999-09-30T21:00:22Z" (938725222) transition_time 0x60b-0x612.7 (8)
0x610|f3 cf 66                                       |..f             |
0x610|         00 00 00 00 38 e5 1f f6               |   ....8...     |      [75]: "2000-03-31T22:00:22Z" (954540022) transition_time 0x613-0x61a.7 (8)
0x610|                                 00 00 00 00 39|           ....9|      [76]: "2000-09-30T21:00:22Z" (970347622) transition_time 0x61b-0x622.7 (8)
0x620|d6 54 66                                       |.Tf             |
0x620|         00 00 00 00 3a c6 53 76               |   ....:.Sv     |      [77]: "2001-03-31T22:00:22Z" (986076022) transition_time 0x623-0x62a.7 (8)
0x620|                                 00 00 00 00 3b|           ....;|      [78]: "2001-09-30T21:00:22Z" (1001883622) transition_time 0x62b-0x632.7 (8)
0x630|b7 87 e6                                       |...             |
0x630|         00 00 00 00 3c a7 86 f6               |   ....<...     |      [79]: "2002-03-31T22:00:22Z" (1017612022) transition_time 0x633-0x63a.7 (8)
0x630|                                 00 00 00 00 3d|           ....=|      [80]: "2002-09-30T21:00:22Z" (1033419622) transition_time 0x63b-0x642.7 (8)
0x640|98 bb 66                                       |..f             |
0x640|         00 00 00 00 3e 88 ba 76               |   ....>..v     |      [81]: "2003-03-31T22:00:22Z" (1049148022) transition_time 0x643-0x64a.7 (8)
0x640|                                 00 00 00 00 3f|           ....?|      [82]: "2003-09-30T21:00:22Z" (1064955622) transition_time 0x64b-0x652.7 (8)
0x650|79 ee e6                                       |y..             |
0x650|         00 00 00 00 40 6b 3f 76               |   ....@k?v     |      [83]: "2004-03-31T22:00:22Z" (1080770422) transition_time 0x653-0x65a.7 (8)
0x650|                                 00 00 00 00 41|           ....A|      [84]: "2004-09-30T21:00:22Z" (1096578022) transition_time 0x65b-0x662.7 (8)
0x660|5c 73 e6                                       |\s.             |
0x660|         00 00 00 00 42 4c 72 f6               |   ....BLr.     |      [85]: "2005-03-31T22:00:22Z" (1112306422) transition_time 0x663-0x66a.7 (8)
0x660|                                 00 00 00 00 43|           ....C|      [86]: "2005-09-30T21:00:22Z" (1128114022) transition_time 0x66b-0x672.7 (8)
0x670|3d a7 66                                       |=.f             |
0x670|         00 00 00 00 44 2d a6 77               |   ....D-.w     |      [87]: "2006-03-31T22:00:23Z" (1143842423) transition_time 0x673-0x67a.7 (8)
0x670|                                 00 00 00 00 45|           ....E|      [88]: "2006-09-21T21:00:23Z" (1158872423) transition_time 0x67b-0x682.7 (8)
0x680|12 fd 67                                       |..g             |
0x680|         00 00 00 00 46 0c 36 f7               |   ....F.6.     |      [89]: "2007-03-29T22:00:23Z" (1175205623) transition_time 0x683-0x68a.7 (8)
0x680|                                 00 00 00 00 47|           ....G|      [90]: "2007-11-01T21:00:23Z" (1193950823) transition_time 0x68b-0x692.7 (8)
0x690|2a 3e 67                                       |*>g             |
0x690|         00 00 00 00 47 f5 53 77               |   ....G.Sw     |      [91]: "2008-04-03T22:00:23Z" (1207260023) transition_time 0x693-0x69a.7 (8)
0x690|                                 00 00 00 00 49|           ....I|      [92]: "2008-10-31T21:00:23Z" (1225486823) transition_time 0x69b-0x6a2.7 (8)
0x6a0|0b 71 e7                                       |.q.             |
0x6a0|         00 00 00 00 49 cb fa f8               |   ....I...     |      [93]: "2009-03-26T22:00:24Z" (1238104824) transition_time 0x6a3-0x6aa.7 (8)
0x6a0|                                 00 00 00 00 4a|           ....J|      [94]: "2009-10-29T21:00:24Z" (1256850024) transition_time 0x6ab-0x6b2.7 (8)
0x6b0|ea 02 68                                       |..h             |
0x6b0|         00 00 00 00 4b b5 17 78               |   ....K..x     |      [95]: "2010-04-01T22:00:24Z" (1270159224) transition_time 0x6b3-0x6ba.7 (8)
0x6b0|                                 00 00 00 00 4c|           ....L|      [96]: "2010-10-28T21:00:24Z" (1288299624) transition_time 0x6bb-0x6c2.7 (8)
0x6c0|c9 e4 68                                       |..h             |
0x6c0|         00 00 00 00 4d 94 f9 78               |   ....M..x     |      [97]: "2011-03-31T22:00:24Z" (1301608824) transition_time 0x6c3-0x6ca.7 (8)
0x6c0|                                 00 00 00 00 4e|           ....N|      [98]: "2011-10-27T21:00:24Z" (1319749224) transition_time 0x6cb-0x6d2.7 (8)
0x6d0|a9 c6 68                                       |..h             |
0x6d0|         00 00 00 00 4f 74 db 78               |   ....Ot.x     |      [99]: "2012-03-29T22:00:24Z" (1333058424) transition_time 0x6d3-0x6da.7 (8)
0x6d0|                                 00 00 00 00 50|           ....P|      [100]: "2012-10-25T21:00:25Z" (1351198825) transition_time 0x6db-0x6e2.7 (8)
0x6e0|89 a8 69                                       |..i             |
0x6e0|         00 00 00 00 51 54 bd 79               |   ....QT.y     |      [101]: "2013-03-28T22:00:25Z" (1364508025) transition_time 0x6e3-0x6ea.7 (8)
0x6e0|                                 00 00 00 00 52|           ....R|      [102]: "2013-10-24T21:00:25Z" (1382648425) transition_time 0x6eb-0x6f2.7 (8)
0x6f0|69 8a 69                                       |i.i             |
0x6f0|         00 00 00 00 53 34 9f 79               |   ....S4.y     |      [103]: "2014-03-27T22:00:25Z" (1395957625) transition_time 0x6f3-0x6fa.7 (8)
0x6f0|                                 00 00 00 00 54|           ....T|      [104]: "2014-10-30T21:00:25Z" (1414702825) transition_time 0x6fb-0x702.7 (8)
0x700|52 a6 e9                                       |R..             |
0x700|         00 00 00 00 55 14 81 79               |   ....U..y     |      [105]: "2015-03-26T22:00:25Z" (1427407225) transition_time 0x703-0x70a.7 (8)
0x700|                                 00 00 00 00 56|           ....V|      [106]: "2015-10-29T21:00:26Z" (1446152426) transition_time 0x70b-0x712.7 (8)
0x710|32 88 ea                                       |2..             |
0x710|         00 00 00 00 56 f4 63 7a               |   ....V.cz     |      [107]: "2016-03-24T22:00:26Z" (1458856826) transition_time 0x713-0x71a.7 (8)
0x710|                                 00 00 00 00 58|           ....X|      [108]: "2016-10-27T21:00:26Z" (1477602026) transition_time 0x71b-0x722.7 (8)
0x720|12 6a ea                                       |.j.             |
0x720|         00 00 00 00 58 dd 7f fb               |   ....X...     |      [109]: "2017-03-30T22:00:27Z" (1490911227) transition_time 0x723-0x72a.7 (8)
0x720|                                 00 00 00 00 59|           ....Y|      [110]: "2017-10-26T21:00:27Z" (1509051627) transition_time 0x72b-0x732.7 (8)
0x730|f2 4c eb                                       |.L.             |
0x730|         00 00 00 00 5a bd 61 fb               |   ....Z.a.     |      [111]: "2018-03-29T22:00:27Z" (1522360827) transition_time 0x733-0x73a.7 (8)
0x730|                                 00 00 00 00 5b|           ....[|      [112]: "2018-10-25T21:00:27Z" (1540501227) transition_time 0x73b-0x742.7 (8)
0x740|d2 2e eb                                       |...             |
0x740|         00 00 00 00 5c 9d 43 fb               |   ....\.C.     |      [113]: "2019-03-28T22:00:27Z" (1553810427) transition_time 0x743-0x74a.7 (8)
0x740|                                 00 00 00 00 5d|           ....]|      [114]: "2019-10-24T21:00:27Z" (1571950827) transition_time 0x74b-0x752.7 (8)
0x750|b2 10 eb                                       |...             |
0x750|         00 00 00 00 5e 7d 25 fb               |   ....^}%.     |      [115]: "2020-03-26T22:00:27Z" (1585260027) transition_time 0x753-0x75a.7 (8)
0x750|                                 00 00 00 00 5f|           ...._|      [116]: "2020-10-29T21:00:27Z" (1604005227) transition_time 0x75b-0x762.7 (8)
0x760|9b 2d 6b                                       |.-k             |
0x760|         00 00 00 00 60 5d 07 fb               |   ....`]..     |      [117]: "2021-03-25T22:00:27Z" (1616709627) transition_time 0x763-0x76a.7 (8)
0x760|                                 00 00 00 00 61|           ....a|      [118]: "2021-10-28T21:00:27Z" (1635454827) transition_time 0x76b-0x772.7 (8)
0x770|7b 0f 6b                                       |{.k             |
0x770|         00 00 00 00 62 3c e9 fb               |   ....b<..     |      [119]: "2022-03-24T22:00:27Z" (1648159227) transition_time 0x773-0x77a.7 (8)
0x770|                                 00 00 00 00 63|           ....c|      [120]: "2022-10-27T21:00:27Z" (1666904427) transition_time 0x77b-0x782.7 (8)
0x780|5a f1 6b                                       |Z.k             |
0x780|         00 00 00 00 64 9b 78 1b               |   ....d.x.     |      [121]: "2023-06-28T00:00:27Z" (1687910427) transition_time 0x783-0x78a.7 (8)
     |                                               |                |    transition_types[0:122]: 0x78b-0x804.7 (122)
0x780|                                 02            |           .    |      [0]: 2 transition_type 0x78b-0x78b.7 (1)
0x780|                                    01         |            .   |      [1]: 1 transition_type 0x78c-0x78c.7 (1)
0x780|                                       02      |             .  |      [2]: 2 transition_type 0x78d-0x78d.7 (1)
0x780|                                          01   |              . |      [3]: 1 transition_type 0x78e-0x78e.7 (1)
0x780|                                             02|               .|      [4]: 2 transition_type 0x78f-0x78f.7 (1)
0x790|01                                             |.               |      [5]: 1 transition_type 0x790-0x790.7 (1)
0x790|   02                                          | .              |      [6]: 2 transition_type 0x791-0x791.7 (1)
0x790|      01                                       |  .             |      [7]: 1 transition_type 0x792-0x792.7 (1)
0x790|         02                                    |   .            |      [8]: 2 transition_type 0x793-0x793.7 (1)
0x790|            01                                 |    .           |      [9]: 1 transition_type 0x794-0x794.7 (1)
0x790|               02                              |     .          |      [10]: 2 transition_type 0x795-0x795.7 (1)
0x790|                  01                           |      .         |      [11]: 1 transition_type 0x796-0x796.7 (1)
0x790|                     02                        |       .        |      [12]: 2 transition_type 0x797-0x797.7 (1)
0x790|                        01                     |        .       |      [13]: 1 transition_type 0x798-0x798.7 (1)
0x790|                           02                  |         .      |      [14]: 2 transition_type 0x799-0x799.7 (1)
0x790|                              01               |          .     |      [15]: 1 transition_type 0x79a-0x79a.7 (1)
0x790|                                 02            |           .    |      [16]: 2 transition_type 0x79b-0x79b.7 (1)
0x790|                                    01         |            .   |      [17]: 1 transition_type 0x79c-0x79c.7 (1)
0x790|                                       02      |             .  |      [18]: 2 transition_type 0x79d-0x79d.7 (1)
0x790|                                          01   |              . |      [19]: 1 transition_type 0x79e-0x79e.7 (1)
0x790|                                             02|               .|      [20]: 2 transition_type 0x79f-0x79f.7 (1)
0x7a0|01                                             |.               |      [21]: 1 transition_type 0x7a0-0x7a0.7 (1)
0x7a0|   02                                          | .              |      [22]: 2 transition_type 0x7a1-0x7a1.7 (1)
0x7a0|      01                                       |  .             |      [23]: 1 transition_type 0x7a2-0x7a2.7 (1)
0x7a0|         02                                    |   .            |      [24]: 2 transition_type 0x7a3-0x7a3.7 (1)
0x7a0|            01                                 |    .           |      [25]: 1 transition_type 0x7a4-0x7a4.7 (1)
0x7a0|               02                              |     .          |      [26]: 2 transition_type 0x7a5-0x7a5.7 (1)
0x7a0|                  01                           |      .         |      [27]: 1 transition_type 0x7a6-0x7a6.7 (1)
0x7a0|                     02                        |       .        |      [28]: 2 transition_type 0x7a7-0x7a7.7 (1)
0x7a0|                        01                     |        .       |      [29]: 1 transition_type 0x7a8-0x7a8.7 (1)
0x7a0|                           02                  |         .      |      [30]: 2 transition_type 0x7a9-0x7a9.7 (1)
0x7a0|                              01               |          .     |      [31]: 1 transition_type 0x7aa-0x7aa.7 (1)
0x7a0|                                 02            |           .    |      [32]: 2 transition_type 0x7ab-0x7ab.7 (1)
0x7a0|                                    01         |            .   |      [33]: 1 transition_type 0x7ac-0x7ac.7 (1)
0x7a0|                                       02      |             .  |      [34]: 2 transition_type 0x7ad-0x7ad.7 (1)
0x7a0|                                          01   |              . |      [35]: 1 transition_type 0x7ae-0x7ae.7 (1)
0x7a0|                                             02|               .|      [36]: 2 transition_type 0x7af-0x7af.7 (1)
0x7b0|01                                             |.               |      [37]: 1 transition_type 0x7b0-0x7b0.7 (1)
0x7b0|   02                                          | .              |      [38]: 2 transition_type 0x7b1-0x7b1.7 (1)
0x7b0|      01                                       |  .             |      [39]: 1 transition_type 0x7b2-0x7b2.7 (1)
0x7b0|         02                                    |   .            |      [40]: 2 transition_type 0x7b3-0x7b3.7 (1)
0x7b0|            01                                 |    .           |      [41]: 1 transition_type 0x7b4-0x7b4.7 (1)
0x7b0|               02                              |     .          |      [42]: 2 transition_type 0x7b5-0x7b5.7 (1)
0x7b0|                  01                           |      .         |      [43]: 1 transition_type 0x7b6-0x7b6.7 (1)
0x7b0|                     02                        |       .        |      [44]: 2 transition_type 0x7b7-0x7b7.7 (1)
0x7b0|                        01                     |        .       |      [45]: 1 transition_type 0x7b8-0x7b8.7 (1)
0x7b0|                           02                  |         .      |      [46]: 2 transition_type 0x7b9-0x7b9.7 (1)
0x7b0|                              01               |          .     |      [47]: 1 transition_type 0x7ba-0x7ba.7 (1)
0x7b0|                                 02            |           .    |      [48]: 2 transition_type 0x7bb-0x7bb.7 (1)
0x7b0|                                    01         |            .   |      [49]: 1 transition_type 0x7bc-0x7bc.7 (1)
0x7b0|                                       02      |             .  |      [50]: 2 transition_type 0x7bd-0x7bd.7 (1)
0x7b0|                                          01   |              . |      [51]: 1 transition_type 0x7be-0x7be.7 (1)
0x7b0|                                             02|               .|      [52]: 2 transition_type 0x7bf-0x7bf.7 (1)
0x7c0|01                                             |.               |      [53]: 1 transition_type 0x7c0-0x7c0.7 (1)
0x7c0|   02                                          | .              |      [54]: 2 transition_type 0x7c1-0x7c1.7 (1)
0x7c0|      01                                       |  .             |      [55]: 1 transition_type 0x7c2-0x7c2.7 (1)
0x7c0|         02                                    |   .            |      [56]: 2 transition_type 0x7c3-0x7c3.7 (1)
0x7c0|            01                                 |    .           |      [57]: 1 transition_type 0x7c4-0x7c4.7 (1)
0x7c0|               02                              |     .          |      [58]: 2 transition_type 0x7c5-0x7c5.7 (1)
0x7c0|                  01                           |      .         |      [59]: 1 transition_type 0x7c6-0x7c6.7 (1)
0x7c0|                     02                        |       .        |      [60]: 2 transition_type 0x7c7-0x7c7.7 (1)
0x7c0|                        01                     |        .       |      [61]: 1 transition_type 0x7c8-0x7c8.7 (1)
0x7c0|                           02                  |         .      |      [62]: 2 transition_type 0x7c9-0x7c9.7 (1)
0x7c0|                              01               |          .     |      [63]: 1 transition_type 0x7ca-0x7ca.7 (1)
0x7c0|                                 02            |           .    |      [64]: 2 transition_type 0x7cb-0x7cb.7 (1)
0x7c0|                                    01         |            .   |      [65]: 1 transition_type 0x7cc-0x7cc.7 (1)
0x7c0|                                       02      |             .  |      [66]: 2 transition_type 0x7cd-0x7cd.7 (1)
0x7c0|                                          01   |              . |      [67]: 1 transition_type 0x7ce-0x7ce.7 (1)
0x7c0|                                             02|               .|      [68]: 2 transition_type 0x7cf-0x7cf.7 (1)
0x7d0|01                                             |.               |      [69]: 1 transition_type 0x7d0-0x7d0.7 (1)
0x7d0|   02                                          | .              |      [70]: 2 transition_type 0x7d1-0x7d1.7 (1)
0x7d0|      01                                       |  .             |      [71]: 1 transition_type 0x7d2-0x7d2.7 (1)
0x7d0|         02                                    |   .            |      [72]: 2 transition_type 0x7d3-0x7d3.7 (1)
0x7d0|            01                                 |    .           |      [73]: 1 transition_type 0x7d4-0x7d4.7 (1)
0x7d0|               02                              |     .          |      [74]: 2 transition_type 0x7d5-0x7d5.7 (1)
0x7d0|                  01                           |      .         |      [75]: 1 transition_type 0x7d6-0x7d6.7 (1)
0x7d0|                     02                        |       .        |      [76]: 2 transition_type 0x7d7-0x7d7.7 (1)
0x7d0|                        01                     |        .       |      [77]: 1 transition_type 0x7d8-0x7d8.7 (1)
0x7d0|                           02                  |         .      |      [78]: 2 transition_type 0x7d9-0x7d9.7 (1)
0x7d0|                              01               |          .     |      [79]: 1 transition_type 0x7da-0x7da.7 (1)
0x7d0|                                 02            |           .    |      [80]: 2 transition_type 0x7db-0x7db.7 (1)
0x7d0|                                    01         |            .   |      [81]: 1 transition_type 0x7dc-0x7dc.7 (1)
0x7d0|                                       02      |             .  |      [82]: 2 transition_type 0x7dd-0x7dd.7 (1)
0x7d0|                                          01   |              . |      [83]: 1 transition_type 0x7de-0x7de.7 (1)
0x7d0|                                             02|               .|      [84]: 2 transition_type 0x7df-0x7df.7 (1)
0x7e0|01                                             |.               |      [85]: 1 transition_type 0x7e0-0x7e0.7 (1)
0x7e0|   02                                          | .              |      [86]: 2 transition_type 0x7e1-0x7e1.7 (1)
0x7e0|      01                                       |  .             |      [87]: 1 transition_type 0x7e2-0x7e2.7 (1)
0x7e0|         02                                    |   .            |      [88]: 2 transition_type 0x7e3-0x7e3.7 (1)
0x7e0|            01                                 |    .           |      [89]: 1 transition_type 0x7e4-0x7e4.7 (1)
0x7e0|               02                              |     .          |      [90]: 2 transition_type 0x7e5-0x7e5.7 (1)
0x7e0|                  01                           |      .         |      [91]: 1 transition_type 0x7e6-0x7e6.7 (1)
0x7e0|                     02                        |       .        |      [92]: 2 transition_type 0x7e7-0x7e7.7 (1)
0x7e0|                        01                     |        .       |      [93]: 1 transition_type 0x7e8-0x7e8.7 (1)
0x7e0|                           02                  |         .      |      [94]: 2 transition_type 0x7e9-0x7e9.7 (1)
0x7e0|                              01               |          .     |      [95]: 1 transition_type 0x7ea-0x7ea.7 (1)
0x7e0|                                 02            |           .    |      [96]: 2 transition_type 0x7eb-0x7eb.7 (1)
0x7e0|                                    01         |            .   |      [97]: 1 transition_type 0x7ec-0x7ec.7 (1)
0x7e0|                                       02      |             .  |      [98]: 2 transition_type 0x7ed-0x7ed.7 (1)
0x7e0|                                          01   |              . |      [99]: 1 transition_type 0x7ee-0x7ee.7 (1)
0x7e0|                                             02|               .|      [100]: 2 transition_type 0x7ef-0x7ef.7 (1)
0x7f0|01                                             |.               |      [101]: 1 transition_type 0x7f0-0x7f0.7 (1)
0x7f0|   02                                          | .              |      [102]: 2 transition_type 0x7f1-0x7f1.7 (1)
0x7f0|      01                                       |  .             |      [103]: 1 transition_type 0x7f2-0x7f2.7 (1)
0x7f0|         02                                    |   .            |      [104]: 2 transition_type 0x7f3-0x7f3.7 (1)
0x7f0|            01                                 |    .           |      [105]: 1 transition_type 0x7f4-0x7f4.7 (1)
0x7f0|               02                              |     .          |      [106]: 2 transition_type 0x7f5-0x7f5.7 (1)
0x7f0|                  01                           |      .         |      [107]: 1 transition_type 0x7f6-0x7f6.7 (1)
0x7f0|                     02                        |       .        |      [108]: 2 transition_type 0x7f7-0x7f7.7 (1)
0x7f0|                        01                     |        .       |      [109]: 1 transition_type 0x7f8-0x7f8.7 (1)
0x7f0|                           02                  |         .      |      [110]: 2 transition_type 0x7f9-0x7f9.7 (1)
0x7f0|                              01               |          .     |      [111]: 1 transition_type 0x7fa-0x7fa.7 (1)
0x7f0|                                 02            |           .    |      [112]: 2 transition_type 0x7fb-0x7fb.7 (1)
0x7f0|                                    01         |            .   |      [113]: 1 transition_type 0x7fc-0x7fc.7 (1)
0x7f0|                                       02      |             .  |      [114]: 2 transition_type 0x7fd-0x7fd.7 (1)
0x7f0|                                          01   |              . |      [115]: 1 transition_type 0x7fe-0x7fe.7 (1)
0x7f0|                                             02|               .|      [116]: 2 transition_type 0x7ff-0x7ff.7 (1)
0x800|01                                             |.               |      [117]: 1 transition_type 0x800-0x800.7 (1)
0x800|   02                                          | .              |      [118]: 2 transition_type 0x801-0x801.7 (1)
0x800|      01                                       |  .             |      [119]: 1 transition_type 0x802-0x802.7 (1)
0x800|         03                                    |   .            |      [120]: 3 transition_type 0x803-0x803.7 (1)
0x800|            03                                 |    .           |      [121]: 3 transition_type 0x804-0x804.7 (1)
     |                                               |                |    local_time_type_records[0:4]: 0x805-0x81c.7 (24)
     |                                               |                |      [0]{}: local_time_type 0x805-0x80a.7 (6)
0x800|               00 00 22 08                     |     ..".       |        utoff: 8712 (valid) 0x805-0x808.7 (4)
0x800|                           00                  |         .      |        dst: 0 (valid) 0x809-0x809.7 (1)
0x800|                              00               |          .     |        idx: 0 (valid) 0x80a-0x80a.7 (1)
     |                                               |                |      [1]{}: local_time_type 0x80b-0x810.7 (6)
0x800|                                 00 00 2a 30   |           ..*0 |        utoff: 10800 (valid) 0x80b-0x80e.7 (4)
0x800|                                             01|               .|        dst: 1 (valid) 0x80f-0x80f.7 (1)
0x810|04                                             |.               |        idx: 4 (valid) 0x810-0x810.7 (1)
     |                                               |                |      [2]{}: local_time_type 0x811-0x816.7 (6)
0x810|   00 00 1c 20                                 | ...            |        utoff: 7200 (valid) 0x811-0x814.7 (4)
0x810|               00                              |     .          |        dst: 0 (valid) 0x815-0x815.7 (1)
0x810|                  09                           |      .         |        idx: 9 (valid) 0x816-0x816.7 (1)
     |                                               |                |      [3]{}: local_time_type 0x817-0x81c.7 (6)
0x810|                     00 00 2a 30               |       ..*0     |        utoff: 10800 (valid) 0x817-0x81a.7 (4)
0x810|                                 00            |           .    |        dst: 0 (valid) 0x81b-0x81b.7 (1)
0x810|                                    0d         |            .   |        idx: 13 (valid) 0x81c-0x81c.7 (1)
     |                                               |                |    time_zone_designations[0:4]: 0x81d-0x82d.7 (17)
0x810|                                       4c 4d 54|             LMT|      [0]: "LMT" time_zone_designation 0x81d-0x820.7 (4)
0x820|00                                             |.               |
0x820|   45 45 53 54 00                              | EEST.          |      [1]: "EEST" time_zone_designation 0x821-0x825.7 (5)
0x820|                  45 45 54 00                  |      EET.      |      [2]: "EET" time_zone_designation 0x826-0x829.7 (4)
0x820|                              2b 30 33 00      |          +03.  |      [3]: "+03" time_zone_designation 0x82a-0x82d.7 (4)
     |                                               |                |    leap_second_records[0:27]: 0x82e-0x971.7 (324)
     |                                               |                |      [0]{}: leap_second_record 0x82e-0x839.7 (12)
0x820|                                          00 00|              ..|        occur: "1972-07-01T00:00:00Z" (78796800) 0x82e-0x835.7 (8)
0x830|00 00 04 b2 58 00                              |....X.          |
0x830|                  00 00 00 01                  |      ....      |        corr: 1 0x836-0x839.7 (4)
     |                                               |                |      [1]{}: leap_second_record 0x83a-0x845.7 (12)
0x830|                              00 00 00 00 05 a4|          ......|        occur: "1973-01-01T00:00:01Z" (94694401) 0x83a-0x841.7 (8)
0x840|ec 01                                          |..              |
0x840|      00 00 00 02                              |  ....          |        corr: 2 0x842-0x845.7 (4)
     |                                               |                |      [2]{}: leap_second_record 0x846-0x851.7 (12)
0x840|                  00 00 00 00 07 86 1f 82      |      ........  |        occur: "1974-01-01T00:00:02Z" (126230402) 0x846-0x84d.7 (8)
0x840|                                          00 00|              ..|        corr: 3 0x84e-0x851.7 (4)
0x850|00 03                                          |..              |
     |                                               |                |      [3]{}: leap_second_record 0x852-0x85d.7 (12)
0x850|      00 00 00 00 09 67 53 03                  |  .....gS.      |        occur: "1975-01-01T00:00:03Z" (157766403) 0x852-0x859.7 (8)
0x850|                              00 00 00 04      |          ....  |        corr: 4 0x85a-0x85d.7 (4)
     |                                               |                |      [4]{}: leap_second_record 0x85e-0x869.7 (12)
0x850|                                          00 00|              ..|        occur: "1976-01-01T00:00:04Z" (189302404) 0x85e-0x865.7 (8)
0x860|00 00 0b 48 86 84                              |...H..          |
0x860|                  00 00 00 05                  |      ....      |        corr: 5 0x866-0x869.7 (4)
     |                                               |                |      [5]{}: leap_second_record 0x86a-0x875.7 (12)
0x860|                              00 00 00 00 0d 2b|          .....+|        occur: "1977-01-01T00:00:05Z" (220924805) 0x86a-0x871.7 (8)
0x870|0b 85                                          |..              |
0x870|      00 00 00 06                              |  ....          |        corr: 6 0x872-0x875.7 (4)
     |                                               |                |      [6]{}: leap_second_record 0x876-0x881.7 (12)
0x870|                  00 00 00 00 0f 0c 3f 06      |      ......?.  |        occur: "1978-01-01T00:00:06Z" (252460806) 0x876-0x87d.7 (8)
0x870|                                          00 00|              ..|        corr: 7 0x87e-0x881.7 (4)
0x880|00 07                                          |..              |
     |                                               |                |      [7]{}: leap_second_record 0x882-0x88d.7 (12)
0x880|      00 00 00 00 10 ed 72 87                  |  ......r.      |        occur: "1979-01-01T00:00:07Z" (283996807) 0x882-0x889.7 (8)
0x880|                              00 00 00 08      |          ....  |        corr: 8 0x88a-0x88d.7 (4)
     |                                               |                |      [8]{}: leap_second_record 0x88e-0x899.7 (12)
0x880|                                          00 00|              ..|        occur: "1980-01-01T00:00:08Z" (315532808) 0x88e-0x895.7 (8)
0x890|00 00 12 ce a6 08                              |......          |
0x890|                  00 00 00 09                  |      ....      |        corr: 9 0x896-0x899.7 (4)
     |                                               |                |      [9]{}: leap_second_record 0x89a-0x8a5.7 (12)
0x890|                              00 00 00 00 15 9f|          ......|        occur: "1981-07-01T00:00:09Z" (362793609) 0x89a-0x8a1.7 (8)
0x8a0|ca 89                                          |..              |
0x8a0|      00 00 00 0a                              |  ....          |        corr: 10 0x8a2-0x8a5.7 (4)
     |                                               |                |      [10]{}: leap_second_record 0x8a6-0x8b1.7 (12)
0x8a0|                  00 00 00 00 17 80 fe 0a      |      ........  |        occur: "1982-07-01T00:00:10Z" (394329610) 0x8a6-0x8ad.7 (8)
0x8a0|                                          00 00|              ..|        corr: 11 0x8ae-0x8b1.7 (4)
0x8b0|00 0b                                          |..              |
     |                                               |                |      [11]{}: leap_second_record 0x8b2-0x8bd.7 (12)
0x8b0|      00 00 00 00 19 62 31 8b                  |  .....b1.      |        occur: "1983-07-01T00:00:11Z" (425865611) 0x8b2-0x8b9.7 (8)
0x8b0|                              00 00 00 0c      |          ....  |        corr: 12 0x8ba-0x8bd.7 (4)
     |                                               |                |      [12]{}: leap_second_record 0x8be-0x8c9.7 (12)
0x8b0|                                          00 00|              ..|        occur: "1985-07-01T00:00:12Z" (489024012) 0x8be-0x8c5.7 (8)
0x8c0|00 00 1d 25 ea 0c                              |...%..          |
0x8c0|                  00 00 00 0d                  |      ....      |        corr: 13 0x8c6-0x8c9.7 (4)
     |                                               |                |      [13]{}: leap_second_record 0x8ca-0x8d5.7 (12)
0x8c0|                              00 00 00 00 21 da|          ....!.|        occur: "1988-01-01T00:00:13Z" (567993613) 0x8ca-0x8d1.7 (8)
0x8d0|e5 0d                                          |..              |
0x8d0|      00 00 00 0e                              |  ....          |        corr: 14 0x8d2-0x8d5.7 (4)
     |                                               |                |      [14]{}: leap_second_record 0x8d6-0x8e1.7 (12)
0x8d0|                  00 00 00 00 25 9e 9d 8e      |      ....%...  |        occur: "1990-01-01T00:00:14Z" (631152014) 0x8d6-0x8dd.7 (8)
0x8d0|                                          00 00|              ..|        corr: 15 0x8de-0x8e1.7 (4)
0x8e0|00 0f                                          |..              |
     |                                               |                |      [15]{}: leap_second_record 0x8e2-0x8ed.7 (12)
0x8e0|      00 00 00 00 27 7f d1 0f                  |  ....'...      |        occur: "1991-01-01T00:00:15Z" (662688015) 0x8e2-0x8e9.7 (8)
0x8e0|                              00 00 00 10      |          ....  |        corr: 16 0x8ea-0x8ed.7 (4)
     |                                               |                |      [16]{}: leap_second_record 0x8ee-0x8f9.7 (12)
0x8e0|                                          00 00|              ..|        occur: "1992-07-01T00:00:16Z" (709948816) 0x8ee-0x8f5.7 (8)
0x8f0|00 00 2a 50 f5 90                              |..*P..          |
0x8f0|                  00 00 00 11                  |      ....      |        corr: 17 0x8f6-0x8f9.7 (4)
     |                                               |                |      [17]{}: leap_second_record 0x8fa-0x905.7 (12)
0x8f0|                              00 00 00 00 2c 32|          ....,2|        occur: "1993-07-01T00:00:17Z" (741484817) 0x8fa-0x901.7 (8)
0x900|29 11                                          |).              |
0x900|      00 00 00 12                              |  ....          |        corr: 18 0x902-0x905.7 (4)
     |                                               |                |      [18]{}: leap_second_record 0x906-0x911.7 (12)
0x900|                  00 00 00 00 2e 13 5c 92      |      ......\.  |        occur: "1994-07-01T00:00:18Z" (773020818) 0x906-0x90d.7 (8)
0x900|                                          00 00|              ..|        corr: 19 0x90e-0x911.7 (4)
0x910|00 13                                          |..              |
     |                                               |                |      [19]{}: leap_second_record 0x912-0x91d.7 (12)
0x910|      00 00 00 00 30 e7 24 13                  |  ....0.$.      |        occur: "1996-01-01T00:00:19Z" (820454419) 0x912-0x919.7 (8)
0x910|                              00 00 00 14      |          ....  |        corr: 20 0x91a-0x91d.7 (4)
     |                                               |                |      [20]{}: leap_second_record 0x91e-0x929.7 (12)
0x910|                                          00 00|              ..|        occur: "1997-07-01T00:00:20Z" (867715220) 0x91e-0x925.7 (8)
0x920|00 00 33 b8 48 94                              |..3.H.          |
0x920|                  00 00 00 15                  |      ....      |        corr: 21 0x926-0x929.7 (4)
     |                                               |                |      [21]{}: leap_second_record 0x92a-0x935.7 (12)
0x920|                              00 00 00 00 36 8c|          ....6.|        occur: "1999-01-01T00:00:21Z" (915148821) 0x92a-0x931.7 (8)
0x930|10 15                                          |..              |
0x930|      00 00 00 16                              |  ....          |        corr: 22 0x932-0x935.7 (4)
     |                                               |                |      [22]{}: leap_second_record 0x936-0x941.7 (12)
0x930|                  00 00 00 00 43 b7 1b 96      |      ....C...  |        occur: "2006-01-01T00:00:22Z" (1136073622) 0x936-0x93d.7 (8)
0x930|                                          00 00|              ..|        corr: 23 0x93e-0x941.7 (4)
0x940|00 17                                          |..              |
     |                                               |                |      [23]{}: leap_second_record 0x942-0x94d.7 (12)
0x940|      00 00 00 00 49 5c 07 97                  |  ....I\..      |        occur: "2009-01-01T00:00:23Z" (1230768023) 0x942-0x949.7 (8)
0x940|                              00 00 00 18      |          ....  |        corr: 24 0x94a-0x94d.7 (4)
     |                                               |                |      [24]{}: leap_second_record 0x94e-0x959.7 (12)
0x940|                                          00 00|              ..|        occur: "2012-07-01T00:00:24Z" (1341100824) 0x94e-0x955.7 (8)
0x950|00 00 4f ef 93 18                              |..O...          |
0x950|                  00 00 00 19                  |      ....      |        corr: 25 0x956-0x959.7 (4)
     |                                               |                |      [25]{}: leap_second_record 0x95a-0x965.7 (12)
0x950|                              00 00 00 00 55 93|          ....U.|        occur: "2015-07-01T00:00:25Z" (1435708825) 0x95a-0x961.7 (8)
0x960|2d 99                                          |-.              |
0x960|      00 00 00 1a                              |  ....          |        corr: 26 0x962-0x965.7 (4)
     |                                               |                |      [26]{}: leap_second_record 0x966-0x971.7 (12)
0x960|                  00 00 00 00 58 68 46 9a      |      ....XhF.  |        occur: "2017-01-01T00:00:26Z" (1483228826) 0x966-0x96d.7 (8)
0x960|                                          00 00|              ..|        corr: 27 0x96e-0x971.7 (4)
0x970|00 1b                                          |..              |
     |                                               |                |    standard_wall_indicators[0:0]: 0x972-NA (0)
     |                                               |                |    ut_local_indicators[0:0]: 0x972-NA (0)
     |                                               |                |  footer{}: 0x972-0x973.7 (2)
0x970|      0a                                       |  .             |    nl1: 10 (valid) 0x972-0x972.7 (1)
     |                                               |                |    tz_string: "" 0x973-NA (0)
0x970|         0a|                                   |   .|           |    nl2: 10 (valid) 0x973-0x973.7 (1)
