$ fq -d tzif dv Dawson
     |00 01 02 03 04 05 06 07 08 09 0a 0b 0c 0d 0e 0f|0123456789abcdef|.{}: Dawson (tzif) 0x0-0x874 (2164)
     |                                               |                |  v1header{}: 0x0-0x2c (44)
0x000|54 5a 69 66                                    |TZif            |    magic: 0x545a6966 (valid) 0x0-0x4 (4)
0x000|            32                                 |    2           |    ver: "2" (0x32) (valid) 0x4-0x5 (1)
0x000|               00 00 00 00 00 00 00 00 00 00 00|     ...........|    reserved: raw bits 0x5-0x14 (15)
0x010|00 00 00 00                                    |....            |
0x010|            00 00 00 09                        |    ....        |    isutcnt: 9 0x14-0x18 (4)
0x010|                        00 00 00 09            |        ....    |    isstdcnt: 9 0x18-0x1c (4)
0x010|                                    00 00 00 1b|            ....|    leapcnt: 27 0x1c-0x20 (4)
0x020|00 00 00 5e                                    |...^            |    timecnt: 94 0x20-0x24 (4)
0x020|            00 00 00 09                        |    ....        |    typecnt: 9 0x24-0x28 (4)
0x020|                        00 00 00 25            |        ...%    |    charcnt: 37 0x28-0x2c (4)
     |                                               |                |  v1datablock{}: 0x2c-0x347 (795)
     |                                               |                |    transition_times[0:94]: 0x2c-0x1a4 (376)
0x020|                                    80 00 00 00|            ....|      [0]: "1901-12-13T20:45:52Z" (-2147483648) transition_time 0x2c-0x30 (4)
0x030|9e b8 cb b0                                    |....            |      [1]: "1918-04-14T11:00:00Z" (-1632056400) transition_time 0x30-0x34 (4)
0x030|            9f bb 23 a0                        |    ..#.        |      [2]: "1918-10-27T10:00:00Z" (-1615125600) transition_time 0x34-0x38 (4)
0x030|                        a0 d0 0c b0            |        ....    |      [3]: "1919-05-25T11:00:00Z" (-1596978000) transition_time 0x38-0x3c (4)
0x030|                                    a1 a2 d2 80|            ....|      [4]: "1919-11-01T08:00:00Z" (-1583164800) transition_time 0x3c-0x40 (4)
0x040|cb 89 28 b0                                    |..(.            |      [5]: "1942-02-09T11:00:00Z" (-880203600) transition_time 0x40-0x44 (4)
0x040|            d2 23 f4 70                        |    .#.p        |      [6]: "1945-08-14T23:00:00Z" (-769395600) transition_time 0x44-0x48 (4)
0x040|                        d2 61 34 20            |        .a4     |      [7]: "1945-09-30T10:00:00Z" (-765381600) transition_time 0x48-0x4c (4)
0x040|                                    f7 2f 76 90|            ./v.|      [8]: "1965-04-25T09:00:00Z" (-147884400) transition_time 0x4c-0x50 (4)
0x050|f8 28 a2 10                                    |.(..            |      [9]: "1965-10-31T09:00:00Z" (-131554800) transition_time 0x50-0x54 (4)
0x050|            07 30 ec 92                        |    .0..        |      [10]: "1973-10-28T09:00:02Z" (120646802) transition_time 0x54-0x58 (4)
0x050|                        13 69 72 29            |        .ir)    |      [11]: "1980-04-27T10:00:09Z" (325677609) transition_time 0x58-0x5c (4)
0x050|                                    14 59 55 19|            .YU.|      [12]: "1980-10-26T09:00:09Z" (341398809) transition_time 0x5c-0x60 (4)
0x060|15 49 54 29                                    |.IT)            |      [13]: "1981-04-26T10:00:09Z" (357127209) transition_time 0x60-0x64 (4)
0x060|            16 39 37 1a                        |    .97.        |      [14]: "1981-10-25T09:00:10Z" (372848410) transition_time 0x64-0x68 (4)
0x060|                        17 29 36 2a            |        .)6*    |      [15]: "1982-04-25T10:00:10Z" (388576810) transition_time 0x68-0x6c (4)
0x060|                                    18 22 53 9b|            ."S.|      [16]: "1982-10-31T09:00:11Z" (404902811) transition_time 0x6c-0x70 (4)
0x070|19 09 18 2b                                    |...+            |      [17]: "1983-04-24T10:00:11Z" (420026411) transition_time 0x70-0x74 (4)
0x070|            1a 02 35 9c                        |    ..5.        |      [18]: "1983-10-30T09:00:12Z" (436352412) transition_time 0x74-0x78 (4)
0x070|                        1a f2 34 ac            |        ..4.    |      [19]: "1984-04-29T10:00:12Z" (452080812) transition_time 0x78-0x7c (4)
0x070|                                    1b e2 17 9c|            ....|      [20]: "1984-10-28T09:00:12Z" (467802012) transition_time 0x7c-0x80 (4)
0x080|1c d2 16 ac                                    |....            |      [21]: "1985-04-28T10:00:12Z" (483530412) transition_time 0x80-0x84 (4)
0x080|            1d c1 f9 9d                        |    ....        |      [22]: "1985-10-27T09:00:13Z" (499251613) transition_time 0x84-0x88 (4)
0x080|                        1e b1 f8 ad            |        ....    |      [23]: "1986-04-27T10:00:13Z" (514980013) transition_time 0x88-0x8c (4)
0x080|                                    1f a1 db 9d|            ....|      [24]: "1986-10-26T09:00:13Z" (530701213) transition_time 0x8c-0x90 (4)
0x090|20 76 2b 2d                                    | v+-            |      [25]: "1987-04-05T10:00:13Z" (544615213) transition_time 0x90-0x94 (4)
0x090|            21 81 bd 9d                        |    !...        |      [26]: "1987-10-25T09:00:13Z" (562150813) transition_time 0x94-0x98 (4)
0x090|                        22 56 0d 2e            |        "V..    |      [27]: "1988-04-03T10:00:14Z" (576064814) transition_time 0x98-0x9c (4)
0x090|                                    23 6a da 1e|            #j..|      [28]: "1988-10-30T09:00:14Z" (594205214) transition_time 0x9c-0xa0 (4)
0x0a0|24 35 ef 2e                                    |$5..            |      [29]: "1989-04-02T10:00:14Z" (607514414) transition_time 0xa0-0xa4 (4)
0x0a0|            25 4a bc 1e                        |    %J..        |      [30]: "1989-10-29T09:00:14Z" (625654814) transition_time 0xa4-0xa8 (4)
0x0a0|                        26 15 d1 2f            |        &../    |      [31]: "1990-04-01T10:00:15Z" (638964015) transition_time 0xa8-0xac (4)
0x0a0|                                    27 2a 9e 1f|            '*..|      [32]: "1990-10-28T09:00:15Z" (657104415) transition_time 0xac-0xb0 (4)
0x0b0|27 fe ed b0                                    |'...            |      [33]: "1991-04-07T10:00:16Z" (671018416) transition_time 0xb0-0xb4 (4)
0x0b0|            29 0a 80 20                        |    )..         |      [34]: "1991-10-27T09:00:16Z" (688554016) transition_time 0xb4-0xb8 (4)
0x0b0|                        29 de cf b0            |        )...    |      [35]: "1992-04-05T10:00:16Z" (702468016) transition_time 0xb8-0xbc (4)
0x0b0|                                    2a ea 62 21|            *.b!|      [36]: "1992-10-25T09:00:17Z" (720003617) transition_time 0xbc-0xc0 (4)
0x0c0|2b be b1 b1                                    |+...            |      [37]: "1993-04-04T10:00:17Z" (733917617) transition_time 0xc0-0xc4 (4)
0x0c0|            2c d3 7e a2                        |    ,.~.        |      [38]: "1993-10-31T09:00:18Z" (752058018) transition_time 0xc4-0xc8 (4)
0x0c0|                        2d 9e 93 b2            |        -...    |      [39]: "1994-04-03T10:00:18Z" (765367218) transition_time 0xc8-0xcc (4)
0x0c0|                                    2e b3 60 a3|            ..`.|      [40]: "1994-10-30T09:00:19Z" (783507619) transition_time 0xcc-0xd0 (4)
0x0d0|2f 7e 75 b3                                    |/~u.            |      [41]: "1995-04-02T10:00:19Z" (796816819) transition_time 0xd0-0xd4 (4)
0x0d0|            30 93 42 a3                        |    0.B.        |      [42]: "1995-10-29T09:00:19Z" (814957219) transition_time 0xd4-0xd8 (4)
0x0d0|                        31 67 92 34            |        1g.4    |      [43]: "1996-04-07T10:00:20Z" (828871220) transition_time 0xd8-0xdc (4)
0x0d0|                                    32 73 24 a4|            2s$.|      [44]: "1996-10-27T09:00:20Z" (846406820) transition_time 0xdc-0xe0 (4)
0x0e0|33 47 74 34                                    |3Gt4            |      [45]: "1997-04-06T10:00:20Z" (860320820) transition_time 0xe0-0xe4 (4)
0x0e0|            34 53 06 a5                        |    4S..        |      [46]: "1997-10-26T09:00:21Z" (877856421) transition_time 0xe4-0xe8 (4)
0x0e0|                        35 27 56 35            |        5'V5    |      [47]: "1998-04-05T10:00:21Z" (891770421) transition_time 0xe8-0xec (4)
0x0e0|                                    36 32 e8 a5|            62..|      [48]: "1998-10-25T09:00:21Z" (909306021) transition_time 0xec-0xf0 (4)
0x0f0|37 07 38 36                                    |7.86            |      [49]: "1999-04-04T10:00:22Z" (923220022) transition_time 0xf0-0xf4 (4)
0x0f0|            38 1c 05 26                        |    8..&        |      [50]: "1999-10-31T09:00:22Z" (941360422) transition_time 0xf4-0xf8 (4)
0x0f0|                        38 e7 1a 36            |        8..6    |      [51]: "2000-04-02T10:00:22Z" (954669622) transition_time 0xf8-0xfc (4)
0x0f0|                                    39 fb e7 26|            9..&|      [52]: "2000-10-29T09:00:22Z" (972810022) transition_time 0xfc-0x100 (4)
0x100|3a c6 fc 36                                    |:..6            |      [53]: "2001-04-01T10:00:22Z" (986119222) transition_time 0x100-0x104 (4)
0x100|            3b db c9 26                        |    ;..&        |      [54]: "2001-10-28T09:00:22Z" (1004259622) transition_time 0x104-0x108 (4)
0x100|                        3c b0 18 b6            |        <...    |      [55]: "2002-04-07T10:00:22Z" (1018173622) transition_time 0x108-0x10c (4)
0x100|                                    3d bb ab 26|            =..&|      [56]: "2002-10-27T09:00:22Z" (1035709222) transition_time 0x10c-0x110 (4)
0x110|3e 8f fa b6                                    |>...            |      [57]: "2003-04-06T10:00:22Z" (1049623222) transition_time 0x110-0x114 (4)
0x110|            3f 9b 8d 26                        |    ?..&        |      [58]: "2003-10-26T09:00:22Z" (1067158822) transition_time 0x114-0x118 (4)
0x110|                        40 6f dc b6            |        @o..    |      [59]: "2004-04-04T10:00:22Z" (1081072822) transition_time 0x118-0x11c (4)
0x110|                                    41 84 a9 a6|            A...|      [60]: "2004-10-31T09:00:22Z" (1099213222) transition_time 0x11c-0x120 (4)
0x120|42 4f be b6                                    |BO..            |      [61]: "2005-04-03T10:00:22Z" (1112522422) transition_time 0x120-0x124 (4)
0x120|            43 64 8b a6                        |    Cd..        |      [62]: "2005-10-30T09:00:22Z" (1130662822) transition_time 0x124-0x128 (4)
0x120|                        44 2f a0 b7            |        D/..    |      [63]: "2006-04-02T10:00:23Z" (1143972023) transition_time 0x128-0x12c (4)
0x120|                                    45 44 6d a7|            EDm.|      [64]: "2006-10-29T09:00:23Z" (1162112423) transition_time 0x12c-0x130 (4)
0x130|45 f3 d3 37                                    |E..7            |      [65]: "2007-03-11T10:00:23Z" (1173607223) transition_time 0x130-0x134 (4)
0x130|            47 2d 8a 27                        |    G-.'        |      [66]: "2007-11-04T09:00:23Z" (1194166823) transition_time 0x134-0x138 (4)
0x130|                        47 d3 b5 37            |        G..7    |      [67]: "2008-03-09T10:00:23Z" (1205056823) transition_time 0x138-0x13c (4)
0x130|                                    49 0d 6c 27|            I.l'|      [68]: "2008-11-02T09:00:23Z" (1225616423) transition_time 0x13c-0x140 (4)
0x140|49 b3 97 38                                    |I..8            |      [69]: "2009-03-08T10:00:24Z" (1236506424) transition_time 0x140-0x144 (4)
0x140|            4a ed 4e 28                        |    J.N(        |      [70]: "2009-11-01T09:00:24Z" (1257066024) transition_time 0x144-0x148 (4)
0x140|                        4b 9c b3 b8            |        K...    |      [71]: "2010-03-14T10:00:24Z" (1268560824) transition_time 0x148-0x14c (4)
0x140|                                    4c d6 6a a8|            L.j.|      [72]: "2010-11-07T09:00:24Z" (1289120424) transition_time 0x14c-0x150 (4)
0x150|4d 7c 95 b8                                    |M|..            |      [73]: "2011-03-13T10:00:24Z" (1300010424) transition_time 0x150-0x154 (4)
0x150|            4e b6 4c a8                        |    N.L.        |      [74]: "2011-11-06T09:00:24Z" (1320570024) transition_time 0x154-0x158 (4)
0x150|                        4f 5c 77 b8            |        O\w.    |      [75]: "2012-03-11T10:00:24Z" (1331460024) transition_time 0x158-0x15c (4)
0x150|                                    50 96 2e a9|            P...|      [76]: "2012-11-04T09:00:25Z" (1352019625) transition_time 0x15c-0x160 (4)
0x160|51 3c 59 b9                                    |Q<Y.            |      [77]: "2013-03-10T10:00:25Z" (1362909625) transition_time 0x160-0x164 (4)
0x160|            52 76 10 a9                        |    Rv..        |      [78]: "2013-11-03T09:00:25Z" (1383469225) transition_time 0x164-0x168 (4)
0x160|                        53 1c 3b b9            |        S.;.    |      [79]: "2014-03-09T10:00:25Z" (1394359225) transition_time 0x168-0x16c (4)
0x160|                                    54 55 f2 a9|            TU..|      [80]: "2014-11-02T09:00:25Z" (1414918825) transition_time 0x16c-0x170 (4)
0x170|54 fc 1d b9                                    |T...            |      [81]: "2015-03-08T10:00:25Z" (1425808825) transition_time 0x170-0x174 (4)
0x170|            56 35 d4 aa                        |    V5..        |      [82]: "2015-11-01T09:00:26Z" (1446368426) transition_time 0x174-0x178 (4)
0x170|                        56 e5 3a 3a            |        V.::    |      [83]: "2016-03-13T10:00:26Z" (1457863226) transition_time 0x178-0x17c (4)
0x170|                                    58 1e f1 2a|            X..*|      [84]: "2016-11-06T09:00:26Z" (1478422826) transition_time 0x17c-0x180 (4)
0x180|58 c5 1c 3b                                    |X..;            |      [85]: "2017-03-12T10:00:27Z" (1489312827) transition_time 0x180-0x184 (4)
0x180|            59 fe d3 2b                        |    Y..+        |      [86]: "2017-11-05T09:00:27Z" (1509872427) transition_time 0x184-0x188 (4)
0x180|                        5a a4 fe 3b            |        Z..;    |      [87]: "2018-03-11T10:00:27Z" (1520762427) transition_time 0x188-0x18c (4)
0x180|                                    5b de b5 2b|            [..+|      [88]: "2018-11-04T09:00:27Z" (1541322027) transition_time 0x18c-0x190 (4)
0x190|5c 84 e0 3b                                    |\..;            |      [89]: "2019-03-10T10:00:27Z" (1552212027) transition_time 0x190-0x194 (4)
0x190|            5d be 97 2b                        |    ]..+        |      [90]: "2019-11-03T09:00:27Z" (1572771627) transition_time 0x194-0x198 (4)
0x190|                        5e 64 c2 3b            |        ^d.;    |      [91]: "2020-03-08T10:00:27Z" (1583661627) transition_time 0x198-0x19c (4)
0x190|                                    5f 9e 5d 0b|            _.].|      [92]: "2020-11-01T07:00:27Z" (1604214027) transition_time 0x19c-0x1a0 (4)
0x1a0|64 9b 78 1b                                    |d.x.            |      [93]: "2023-06-28T00:00:27Z" (1687910427) transition_time 0x1a0-0x1a4 (4)
     |                                               |                |    transition_types[0:94]: 0x1a4-0x202 (94)
0x1a0|            02                                 |    .           |      [0]: 2 transition_type 0x1a4-0x1a5 (1)
0x1a0|               01                              |     .          |      [1]: 1 transition_type 0x1a5-0x1a6 (1)
0x1a0|                  02                           |      .         |      [2]: 2 transition_type 0x1a6-0x1a7 (1)
0x1a0|                     01                        |       .        |      [3]: 1 transition_type 0x1a7-0x1a8 (1)
0x1a0|                        02                     |        .       |      [4]: 2 transition_type 0x1a8-0x1a9 (1)
0x1a0|                           03                  |         .      |      [5]: 3 transition_type 0x1a9-0x1aa (1)
0x1a0|                              04               |          .     |      [6]: 4 transition_type 0x1aa-0x1ab (1)
0x1a0|                                 02            |           .    |      [7]: 2 transition_type 0x1ab-0x1ac (1)
0x1a0|                                    05         |            .   |      [8]: 5 transition_type 0x1ac-0x1ad (1)
0x1a0|                                       02      |             .  |      [9]: 2 transition_type 0x1ad-0x1ae (1)
0x1a0|                                          06   |              . |      [10]: 6 transition_type 0x1ae-0x1af (1)
0x1a0|                                             07|               .|      [11]: 7 transition_type 0x1af-0x1b0 (1)
0x1b0|06                                             |.               |      [12]: 6 transition_type 0x1b0-0x1b1 (1)
0x1b0|   07                                          | .              |      [13]: 7 transition_type 0x1b1-0x1b2 (1)
0x1b0|      06                                       |  .             |      [14]: 6 transition_type 0x1b2-0x1b3 (1)
0x1b0|         07                                    |   .            |      [15]: 7 transition_type 0x1b3-0x1b4 (1)
0x1b0|            06                                 |    .           |      [16]: 6 transition_type 0x1b4-0x1b5 (1)
0x1b0|               07                              |     .          |      [17]: 7 transition_type 0x1b5-0x1b6 (1)
0x1b0|                  06                           |      .         |      [18]: 6 transition_type 0x1b6-0x1b7 (1)
0x1b0|                     07                        |       .        |      [19]: 7 transition_type 0x1b7-0x1b8 (1)
0x1b0|                        06                     |        .       |      [20]: 6 transition_type 0x1b8-0x1b9 (1)
0x1b0|                           07                  |         .      |      [21]: 7 transition_type 0x1b9-0x1ba (1)
0x1b0|                              06               |          .     |      [22]: 6 transition_type 0x1ba-0x1bb (1)
0x1b0|                                 07            |           .    |      [23]: 7 transition_type 0x1bb-0x1bc (1)
0x1b0|                                    06         |            .   |      [24]: 6 transition_type 0x1bc-0x1bd (1)
0x1b0|                                       07      |             .  |      [25]: 7 transition_type 0x1bd-0x1be (1)
0x1b0|                                          06   |              . |      [26]: 6 transition_type 0x1be-0x1bf (1)
0x1b0|                                             07|               .|      [27]: 7 transition_type 0x1bf-0x1c0 (1)
0x1c0|06                                             |.               |      [28]: 6 transition_type 0x1c0-0x1c1 (1)
0x1c0|   07                                          | .              |      [29]: 7 transition_type 0x1c1-0x1c2 (1)
0x1c0|      06                                       |  .             |      [30]: 6 transition_type 0x1c2-0x1c3 (1)
0x1c0|         07                                    |   .            |      [31]: 7 transition_type 0x1c3-0x1c4 (1)
0x1c0|            06                                 |    .           |      [32]: 6 transition_type 0x1c4-0x1c5 (1)
0x1c0|               07                              |     .          |      [33]: 7 transition_type 0x1c5-0x1c6 (1)
0x1c0|                  06                           |      .         |      [34]: 6 transition_type 0x1c6-0x1c7 (1)
0x1c0|                     07                        |       .        |      [35]: 7 transition_type 0x1c7-0x1c8 (1)
0x1c0|                        06                     |        .       |      [36]: 6 transition_type 0x1c8-0x1c9 (1)
0x1c0|                           07                  |         .      |      [37]: 7 transition_type 0x1c9-0x1ca (1)
0x1c0|                              06               |          .     |      [38]: 6 transition_type 0x1ca-0x1cb (1)
0x1c0|                                 07            |           .    |      [39]: 7 transition_type 0x1cb-0x1cc (1)
0x1c0|                                    06         |            .   |      [40]: 6 transition_type 0x1cc-0x1cd (1)
0x1c0|                                       07      |             .  |      [41]: 7 transition_type 0x1cd-0x1ce (1)
0x1c0|                                          06   |              . |      [42]: 6 transition_type 0x1ce-0x1cf (1)
0x1c0|                                             07|               .|      [43]: 7 transition_type 0x1cf-0x1d0 (1)
0x1d0|06                                             |.               |      [44]: 6 transition_type 0x1d0-0x1d1 (1)
0x1d0|   07                                          | .              |      [45]: 7 transition_type 0x1d1-0x1d2 (1)
0x1d0|      06                                       |  .             |      [46]: 6 transition_type 0x1d2-0x1d3 (1)
0x1d0|         07                                    |   .            |      [47]: 7 transition_type 0x1d3-0x1d4 (1)
0x1d0|            06                                 |    .           |      [48]: 6 transition_type 0x1d4-0x1d5 (1)
0x1d0|               07                              |     .          |      [49]: 7 transition_type 0x1d5-0x1d6 (1)
0x1d0|                  06                           |      .         |      [50]: 6 transition_type 0x1d6-0x1d7 (1)
0x1d0|                     07                        |       .        |      [51]: 7 transition_type 0x1d7-0x1d8 (1)
0x1d0|                        06                     |        .       |      [52]: 6 transition_type 0x1d8-0x1d9 (1)
0x1d0|                           07                  |         .      |      [53]: 7 transition_type 0x1d9-0x1da (1)
0x1d0|                              06               |          .     |      [54]: 6 transition_type 0x1da-0x1db (1)
0x1d0|                                 07            |           .    |      [55]: 7 transition_type 0x1db-0x1dc (1)
0x1d0|                                    06         |            .   |      [56]: 6 transition_type 0x1dc-0x1dd (1)
0x1d0|                                       07      |             .  |      [57]: 7 transition_type 0x1dd-0x1de (1)
0x1d0|                                          06   |              . |      [58]: 6 transition_type 0x1de-0x1df (1)
0x1d0|                                             07|               .|      [59]: 7 transition_type 0x1df-0x1e0 (1)
0x1e0|06                                             |.               |      [60]: 6 transition_type 0x1e0-0x1e1 (1)
0x1e0|   07                                          | .              |      [61]: 7 transition_type 0x1e1-0x1e2 (1)
0x1e0|      06                                       |  .             |      [62]: 6 transition_type 0x1e2-0x1e3 (1)
0x1e0|         07                                    |   .            |      [63]: 7 transition_type 0x1e3-0x1e4 (1)
0x1e0|            06                                 |    .           |      [64]: 6 transition_type 0x1e4-0x1e5 (1)
0x1e0|               07                              |     .          |      [65]: 7 transition_type 0x1e5-0x1e6 (1)
0x1e0|                  06                           |      .         |      [66]: 6 transition_type 0x1e6-0x1e7 (1)
0x1e0|                     07                        |       .        |      [67]: 7 transition_type 0x1e7-0x1e8 (1)
0x1e0|                        06                     |        .       |      [68]: 6 transition_type 0x1e8-0x1e9 (1)
0x1e0|                           07                  |         .      |      [69]: 7 transition_type 0x1e9-0x1ea (1)
0x1e0|                              06               |          .     |      [70]: 6 transition_type 0x1ea-0x1eb (1)
0x1e0|                                 07            |           .    |      [71]: 7 transition_type 0x1eb-0x1ec (1)
0x1e0|                                    06         |            .   |      [72]: 6 transition_type 0x1ec-0x1ed (1)
0x1e0|                                       07      |             .  |      [73]: 7 transition_type 0x1ed-0x1ee (1)
0x1e0|                                          06   |              . |      [74]: 6 transition_type 0x1ee-0x1ef (1)
0x1e0|                                             07|               .|      [75]: 7 transition_type 0x1ef-0x1f0 (1)
0x1f0|06                                             |.               |      [76]: 6 transition_type 0x1f0-0x1f1 (1)
0x1f0|   07                                          | .              |      [77]: 7 transition_type 0x1f1-0x1f2 (1)
0x1f0|      06                                       |  .             |      [78]: 6 transition_type 0x1f2-0x1f3 (1)
0x1f0|         07                                    |   .            |      [79]: 7 transition_type 0x1f3-0x1f4 (1)
0x1f0|            06                                 |    .           |      [80]: 6 transition_type 0x1f4-0x1f5 (1)
0x1f0|               07                              |     .          |      [81]: 7 transition_type 0x1f5-0x1f6 (1)
0x1f0|                  06                           |      .         |      [82]: 6 transition_type 0x1f6-0x1f7 (1)
0x1f0|                     07                        |       .        |      [83]: 7 transition_type 0x1f7-0x1f8 (1)
0x1f0|                        06                     |        .       |      [84]: 6 transition_type 0x1f8-0x1f9 (1)
0x1f0|                           07                  |         .      |      [85]: 7 transition_type 0x1f9-0x1fa (1)
0x1f0|                              06               |          .     |      [86]: 6 transition_type 0x1fa-0x1fb (1)
0x1f0|                                 07            |           .    |      [87]: 7 transition_type 0x1fb-0x1fc (1)
0x1f0|                                    06         |            .   |      [88]: 6 transition_type 0x1fc-0x1fd (1)
0x1f0|                                       07      |             .  |      [89]: 7 transition_type 0x1fd-0x1fe (1)
0x1f0|                                          06   |              . |      [90]: 6 transition_type 0x1fe-0x1ff (1)
0x1f0|                                             07|               .|      [91]: 7 transition_type 0x1ff-0x200 (1)
0x200|08                                             |.               |      [92]: 8 transition_type 0x200-0x201 (1)
0x200|   08                                          | .              |      [93]: 8 transition_type 0x201-0x202 (1)
     |                                               |                |    local_time_type_records[0:9]: 0x202-0x238 (54)
     |                                               |                |      [0]{}: local_time_type 0x202-0x208 (6)
0x200|      ff ff 7d 4c                              |  ..}L          |        utoff: -33460 (valid) 0x202-0x206 (4)
0x200|                  00                           |      .         |        dst: 0 (valid) 0x206-0x207 (1)
0x200|                     00                        |       .        |        idx: 0 (valid) 0x207-0x208 (1)
     |                                               |                |      [1]{}: local_time_type 0x208-0x20e (6)
0x200|                        ff ff 8f 80            |        ....    |        utoff: -28800 (valid) 0x208-0x20c (4)
0x200|                                    01         |            .   |        dst: 1 (valid) 0x20c-0x20d (1)
0x200|                                       04      |             .  |        idx: 4 (valid) 0x20d-0x20e (1)
     |                                               |                |      [2]{}: local_time_type 0x20e-0x214 (6)
0x200|                                          ff ff|              ..|        utoff: -32400 (valid) 0x20e-0x212 (4)
0x210|81 70                                          |.p              |
0x210|      00                                       |  .             |        dst: 0 (valid) 0x212-0x213 (1)
0x210|         08                                    |   .            |        idx: 8 (valid) 0x213-0x214 (1)
     |                                               |                |      [3]{}: local_time_type 0x214-0x21a (6)
0x210|            ff ff 8f 80                        |    ....        |        utoff: -28800 (valid) 0x214-0x218 (4)
0x210|                        01                     |        .       |        dst: 1 (valid) 0x218-0x219 (1)
0x210|                           0c                  |         .      |        idx: 12 (valid) 0x219-0x21a (1)
     |                                               |                |      [4]{}: local_time_type 0x21a-0x220 (6)
0x210|                              ff ff 8f 80      |          ....  |        utoff: -28800 (valid) 0x21a-0x21e (4)
0x210|                                          01   |              . |        dst: 1 (valid) 0x21e-0x21f (1)
0x210|                                             10|               .|        idx: 16 (valid) 0x21f-0x220 (1)
     |                                               |                |      [5]{}: local_time_type 0x220-0x226 (6)
0x220|ff ff 9d 90                                    |....            |        utoff: -25200 (valid) 0x220-0x224 (4)
0x220|            01                                 |    .           |        dst: 1 (valid) 0x224-0x225 (1)
0x220|               14                              |     .          |        idx: 20 (valid) 0x225-0x226 (1)
     |                                               |                |      [6]{}: local_time_type 0x226-0x22c (6)
0x220|                  ff ff 8f 80                  |      ....      |        utoff: -28800 (valid) 0x226-0x22a (4)
0x220|                              00               |          .     |        dst: 0 (valid) 0x22a-0x22b (1)
0x220|                                 19            |           .    |        idx: 25 (valid) 0x22b-0x22c (1)
     |                                               |                |      [7]{}: local_time_type 0x22c-0x232 (6)
0x220|                                    ff ff 9d 90|            ....|        utoff: -25200 (valid) 0x22c-0x230 (4)
0x230|01                                             |.               |        dst: 1 (valid) 0x230-0x231 (1)
0x230|   1d                                          | .              |        idx: 29 (valid) 0x231-0x232 (1)
     |                                               |                |      [8]{}: local_time_type 0x232-0x238 (6)
0x230|      ff ff 9d 90                              |  ....          |        utoff: -25200 (valid) 0x232-0x236 (4)
0x230|                  00                           |      .         |        dst: 0 (valid) 0x236-0x237 (1)
0x230|                     21                        |       !        |        idx: 33 (valid) 0x237-0x238 (1)
     |                                               |                |    time_zone_designations[0:9]: 0x238-0x25d (37)
0x230|                        4c 4d 54 00            |        LMT.    |      [0]: "LMT" time_zone_designation 0x238-0x23c (4)
0x230|                                    59 44 54 00|            YDT.|      [1]: "YDT" time_zone_designation 0x23c-0x240 (4)
0x240|59 53 54 00                                    |YST.            |      [2]: "YST" time_zone_designation 0x240-0x244 (4)
0x240|            59 57 54 00                        |    YWT.        |      [3]: "YWT" time_zone_designation 0x244-0x248 (4)
0x240|                        59 50 54 00            |        YPT.    |      [4]: "YPT" time_zone_designation 0x248-0x24c (4)
0x240|                                    59 44 44 54|            YDDT|      [5]: "YDDT" time_zone_designation 0x24c-0x251 (5)
0x250|00                                             |.               |
0x250|   50 53 54 00                                 | PST.           |      [6]: "PST" time_zone_designation 0x251-0x255 (4)
0x250|               50 44 54 00                     |     PDT.       |      [7]: "PDT" time_zone_designation 0x255-0x259 (4)
0x250|                           4d 53 54 00         |         MST.   |      [8]: "MST" time_zone_designation 0x259-0x25d (4)
     |                                               |                |    leap_second_records[0:27]: 0x25d-0x335 (216)
     |                                               |                |      [0]{}: leap_second_record 0x25d-0x265 (8)
0x250|                                       04 b2 58|             ..X|        occur: "1972-07-01T00:00:00Z" (78796800) 0x25d-0x261 (4)
0x260|00                                             |.               |
0x260|   00 00 00 01                                 | ....           |        corr: 1 0x261-0x265 (4)
     |                                               |                |      [1]{}: leap_second_record 0x265-0x26d (8)
0x260|               05 a4 ec 01                     |     ....       |        occur: "1973-01-01T00:00:01Z" (94694401) 0x265-0x269 (4)
0x260|                           00 00 00 02         |         ....   |        corr: 2 0x269-0x26d (4)
     |                                               |                |      [2]{}: leap_second_record 0x26d-0x275 (8)
0x260|                                       07 86 1f|             ...|        occur: "1974-01-01T00:00:02Z" (126230402) 0x26d-0x271 (4)
0x270|82                                             |.               |
0x270|   00 00 00 03                                 | ....           |        corr: 3 0x271-0x275 (4)
     |                                               |                |      [3]{}: leap_second_record 0x275-0x27d (8)
0x270|               09 67 53 03                     |     .gS.       |        occur: "1975-01-01T00:00:03Z" (157766403) 0x275-0x279 (4)
0x270|                           00 00 00 04         |         ....   |        corr: 4 0x279-0x27d (4)
     |                                               |                |      [4]{}: leap_second_record 0x27d-0x285 (8)
0x270|                                       0b 48 86|             .H.|        occur: "1976-01-01T00:00:04Z" (189302404) 0x27d-0x281 (4)
0x280|84                                             |.               |
0x280|   00 00 00 05                                 | ....           |        corr: 5 0x281-0x285 (4)
     |                                               |                |      [5]{}: leap_second_record 0x285-0x28d (8)
0x280|               0d 2b 0b 85                     |     .+..       |        occur: "1977-01-01T00:00:05Z" (220924805) 0x285-0x289 (4)
0x280|                           00 00 00 06         |         ....   |        corr: 6 0x289-0x28d (4)
     |                                               |                |      [6]{}: leap_second_record 0x28d-0x295 (8)
0x280|                                       0f 0c 3f|             ..?|        occur: "1978-01-01T00:00:06Z" (252460806) 0x28d-0x291 (4)
0x290|06                                             |.               |
0x290|   00 00 00 07                                 | ....           |        corr: 7 0x291-0x295 (4)
     |                                               |                |      [7]{}: leap_second_record 0x295-0x29d (8)
0x290|               10 ed 72 87                     |     ..r.       |        occur: "1979-01-01T00:00:07Z" (283996807) 0x295-0x299 (4)
0x290|                           00 00 00 08         |         ....   |        corr: 8 0x299-0x29d (4)
     |                                               |                |      [8]{}: leap_second_record 0x29d-0x2a5 (8)
0x290|                                       12 ce a6|             ...|        occur: "1980-01-01T00:00:08Z" (315532808) 0x29d-0x2a1 (4)
0x2a0|08                                             |.               |
0x2a0|   00 00 00 09                                 | ....           |        corr: 9 0x2a1-0x2a5 (4)
     |                                               |                |      [9]{}: leap_second_record 0x2a5-0x2ad (8)
0x2a0|               15 9f ca 89                     |     ....       |        occur: "1981-07-01T00:00:09Z" (362793609) 0x2a5-0x2a9 (4)
0x2a0|                           00 00 00 0a         |         ....   |        corr: 10 0x2a9-0x2ad (4)
     |                                               |                |      [10]{}: leap_second_record 0x2ad-0x2b5 (8)
0x2a0|                                       17 80 fe|             ...|        occur: "1982-07-01T00:00:10Z" (394329610) 0x2ad-0x2b1 (4)
0x2b0|0a                                             |.               |
0x2b0|   00 00 00 0b                                 | ....           |        corr: 11 0x2b1-0x2b5 (4)
     |                                               |                |      [11]{}: leap_second_record 0x2b5-0x2bd (8)
0x2b0|               19 62 31 8b                     |     .b1.       |        occur: "1983-07-01T00:00:11Z" (425865611) 0x2b5-0x2b9 (4)
0x2b0|                           00 00 00 0c         |         ....   |        corr: 12 0x2b9-0x2bd (4)
     |                                               |                |      [12]{}: leap_second_record 0x2bd-0x2c5 (8)
0x2b0|                                       1d 25 ea|             .%.|        occur: "1985-07-01T00:00:12Z" (489024012) 0x2bd-0x2c1 (4)
0x2c0|0c                                             |.               |
0x2c0|   00 00 00 0d                                 | ....           |        corr: 13 0x2c1-0x2c5 (4)
     |                                               |                |      [13]{}: leap_second_record 0x2c5-0x2cd (8)
0x2c0|               21 da e5 0d                     |     !...       |        occur: "1988-01-01T00:00:13Z" (567993613) 0x2c5-0x2c9 (4)
0x2c0|                           00 00 00 0e         |         ....   |        corr: 14 0x2c9-0x2cd (4)
     |                                               |                |      [14]{}: leap_second_record 0x2cd-0x2d5 (8)
0x2c0|                                       25 9e 9d|             %..|        occur: "1990-01-01T00:00:14Z" (631152014) 0x2cd-0x2d1 (4)
0x2d0|8e                                             |.               |
0x2d0|   00 00 00 0f                                 | ....           |        corr: 15 0x2d1-0x2d5 (4)
     |                                               |                |      [15]{}: leap_second_record 0x2d5-0x2dd (8)
0x2d0|               27 7f d1 0f                     |     '...       |        occur: "1991-01-01T00:00:15Z" (662688015) 0x2d5-0x2d9 (4)
0x2d0|                           00 00 00 10         |         ....   |        corr: 16 0x2d9-0x2dd (4)
     |                                               |                |      [16]{}: leap_second_record 0x2dd-0x2e5 (8)
0x2d0|                                       2a 50 f5|             *P.|        occur: "1992-07-01T00:00:16Z" (709948816) 0x2dd-0x2e1 (4)
0x2e0|90                                             |.               |
0x2e0|   00 00 00 11                                 | ....           |        corr: 17 0x2e1-0x2e5 (4)
     |                                               |                |      [17]{}: leap_second_record 0x2e5-0x2ed (8)
0x2e0|               2c 32 29 11                     |     ,2).       |        occur: "1993-07-01T00:00:17Z" (741484817) 0x2e5-0x2e9 (4)
0x2e0|                           00 00 00 12         |         ....   |        corr: 18 0x2e9-0x2ed (4)
     |                                               |                |      [18]{}: leap_second_record 0x2ed-0x2f5 (8)
0x2e0|                                       2e 13 5c|             ..\|        occur: "1994-07-01T00:00:18Z" (773020818) 0x2ed-0x2f1 (4)
0x2f0|92                                             |.               |
0x2f0|   00 00 00 13                                 | ....           |        corr: 19 0x2f1-0x2f5 (4)
     |                                               |                |      [19]{}: leap_second_record 0x2f5-0x2fd (8)
0x2f0|               30 e7 24 13                     |     0.$.       |        occur: "1996-01-01T00:00:19Z" (820454419) 0x2f5-0x2f9 (4)
0x2f0|                           00 00 00 14         |         ....   |        corr: 20 0x2f9-0x2fd (4)
     |                                               |                |      [20]{}: leap_second_record 0x2fd-0x305 (8)
0x2f0|                                       33 b8 48|             3.H|        occur: "1997-07-01T00:00:20Z" (867715220) 0x2fd-0x301 (4)
0x300|94                                             |.               |
0x300|   00 00 00 15                                 | ....           |        corr: 21 0x301-0x305 (4)
     |                                               |                |      [21]{}: leap_second_record 0x305-0x30d (8)
0x300|               36 8c 10 15                     |     6...       |        occur: "1999-01-01T00:00:21Z" (915148821) 0x305-0x309 (4)
0x300|                           00 00 00 16         |         ....   |        corr: 22 0x309-0x30d (4)
     |                                               |                |      [22]{}: leap_second_record 0x30d-0x315 (8)
0x300|                                       43 b7 1b|             C..|        occur: "2006-01-01T00:00:22Z" (1136073622) 0x30d-0x311 (4)
0x310|96                                             |.               |
0x310|   00 00 00 17                                 | ....           |        corr: 23 0x311-0x315 (4)
     |                                               |                |      [23]{}: leap_second_record 0x315-0x31d (8)
0x310|               49 5c 07 97                     |     I\..       |        occur: "2009-01-01T00:00:23Z" (1230768023) 0x315-0x319 (4)
0x310|                           00 00 00 18         |         ....   |        corr: 24 0x319-0x31d (4)
     |                                               |                |      [24]{}: leap_second_record 0x31d-0x325 (8)
0x310|                                       4f ef 93|             O..|        occur: "2012-07-01T00:00:24Z" (1341100824) 0x31d-0x321 (4)
0x320|18                                             |.               |
0x320|   00 00 00 19                                 | ....           |        corr: 25 0x321-0x325 (4)
     |                                               |                |      [25]{}: leap_second_record 0x325-0x32d (8)
0x320|               55 93 2d 99                     |     U.-.       |        occur: "2015-07-01T00:00:25Z" (1435708825) 0x325-0x329 (4)
0x320|                           00 00 00 1a         |         ....   |        corr: 26 0x329-0x32d (4)
     |                                               |                |      [26]{}: leap_second_record 0x32d-0x335 (8)
0x320|                                       58 68 46|             XhF|        occur: "2017-01-01T00:00:26Z" (1483228826) 0x32d-0x331 (4)
0x330|9a                                             |.               |
0x330|   00 00 00 1b                                 | ....           |        corr: 27 0x331-0x335 (4)
     |                                               |                |    standard_wall_indicators[0:9]: 0x335-0x33e (9)
0x330|               00                              |     .          |      [0]: 0 standard_wall_indicator (valid) 0x335-0x336 (1)
0x330|                  00                           |      .         |      [1]: 0 standard_wall_indicator (valid) 0x336-0x337 (1)
0x330|                     00                        |       .        |      [2]: 0 standard_wall_indicator (valid) 0x337-0x338 (1)
0x330|                        00                     |        .       |      [3]: 0 standard_wall_indicator (valid) 0x338-0x339 (1)
0x330|                           01                  |         .      |      [4]: 1 standard_wall_indicator (valid) 0x339-0x33a (1)
0x330|                              00               |          .     |      [5]: 0 standard_wall_indicator (valid) 0x33a-0x33b (1)
0x330|                                 00            |           .    |      [6]: 0 standard_wall_indicator (valid) 0x33b-0x33c (1)
0x330|                                    00         |            .   |      [7]: 0 standard_wall_indicator (valid) 0x33c-0x33d (1)
0x330|                                       00      |             .  |      [8]: 0 standard_wall_indicator (valid) 0x33d-0x33e (1)
     |                                               |                |    ut_local_indicators[0:9]: 0x33e-0x347 (9)
0x330|                                          00   |              . |      [0]: 0 ut_local_indicator (valid) 0x33e-0x33f (1)
0x330|                                             00|               .|      [1]: 0 ut_local_indicator (valid) 0x33f-0x340 (1)
0x340|00                                             |.               |      [2]: 0 ut_local_indicator (valid) 0x340-0x341 (1)
0x340|   00                                          | .              |      [3]: 0 ut_local_indicator (valid) 0x341-0x342 (1)
0x340|      01                                       |  .             |      [4]: 1 ut_local_indicator (valid) 0x342-0x343 (1)
0x340|         00                                    |   .            |      [5]: 0 ut_local_indicator (valid) 0x343-0x344 (1)
0x340|            00                                 |    .           |      [6]: 0 ut_local_indicator (valid) 0x344-0x345 (1)
0x340|               00                              |     .          |      [7]: 0 ut_local_indicator (valid) 0x345-0x346 (1)
0x340|                  00                           |      .         |      [8]: 0 ut_local_indicator (valid) 0x346-0x347 (1)
     |                                               |                |  v2plusheader{}: 0x347-0x373 (44)
0x340|                     54 5a 69 66               |       TZif     |    magic: 0x545a6966 (valid) 0x347-0x34b (4)
0x340|                                 32            |           2    |    ver: "2" (0x32) (valid) 0x34b-0x34c (1)
0x340|                                    00 00 00 00|            ....|    reserved: raw bits 0x34c-0x35b (15)
0x350|00 00 00 00 00 00 00 00 00 00 00               |...........     |
0x350|                                 00 00 00 09   |           .... |    isutcnt: 9 0x35b-0x35f (4)
0x350|                                             00|               .|    isstdcnt: 9 0x35f-0x363 (4)
0x360|00 00 09                                       |...             |
0x360|         00 00 00 1b                           |   ....         |    leapcnt: 27 0x363-0x367 (4)
0x360|                     00 00 00 5e               |       ...^     |    timecnt: 94 0x367-0x36b (4)
0x360|                                 00 00 00 09   |           .... |    typecnt: 9 0x36b-0x36f (4)
0x360|                                             00|               .|    charcnt: 37 0x36f-0x373 (4)
0x370|00 00 25                                       |..%             |
     |                                               |                |  v2plusdatablock{}: 0x373-0x872 (1279)
     |                                               |                |    transition_times[0:94]: 0x373-0x663 (752)
0x370|         ff ff ff ff 7d 86 8e b4               |   ....}...     |      [0]: "1900-08-20T09:17:40Z" (-2188996940) transition_time 0x373-0x37b (8)
0x370|                                 ff ff ff ff 9e|           .....|      [1]: "1918-04-14T11:00:00Z" (-1632056400) transition_time 0x37b-0x383 (8)
0x380|b8 cb b0                                       |...             |
0x380|         ff ff ff ff 9f bb 23 a0               |   ......#.     |      [2]: "1918-10-27T10:00:00Z" (-1615125600) transition_time 0x383-0x38b (8)
0x380|                                 ff ff ff ff a0|           .....|      [3]: "1919-05-25T11:00:00Z" (-1596978000) transition_time 0x38b-0x393 (8)
0x390|d0 0c b0                                       |...             |
0x390|         ff ff ff ff a1 a2 d2 80               |   ........     |      [4]: "1919-11-01T08:00:00Z" (-1583164800) transition_time 0x393-0x39b (8)
0x390|                                 ff ff ff ff cb|           .....|      [5]: "1942-02-09T11:00:00Z" (-880203600) transition_time 0x39b-0x3a3 (8)
0x3a0|89 28 b0                                       |.(.             |
0x3a0|         ff ff ff ff d2 23 f4 70               |   .....#.p     |      [6]: "1945-08-14T23:00:00Z" (-769395600) transition_time 0x3a3-0x3ab (8)
0x3a0|                                 ff ff ff ff d2|           .....|      [7]: "1945-09-30T10:00:00Z" (-765381600) transition_time 0x3ab-0x3b3 (8)
0x3b0|61 34 20                                       |a4              |
0x3b0|         ff ff ff ff f7 2f 76 90               |   ...../v.     |      [8]: "1965-04-25T09:00:00Z" (-147884400) transition_time 0x3b3-0x3bb (8)
0x3b0|                                 ff ff ff ff f8|           .....|      [9]: "1965-10-31T09:00:00Z" (-131554800) transition_time 0x3bb-0x3c3 (8)
0x3c0|28 a2 10                                       |(..             |
0x3c0|         00 00 00 00 07 30 ec 92               |   .....0..     |      [10]: "1973-10-28T09:00:02Z" (120646802) transition_time 0x3c3-0x3cb (8)
0x3c0|                                 00 00 00 00 13|           .....|      [11]: "1980-04-27T10:00:09Z" (325677609) transition_time 0x3cb-0x3d3 (8)
0x3d0|69 72 29                                       |ir)             |
0x3d0|         00 00 00 00 14 59 55 19               |   .....YU.     |      [12]: "1980-10-26T09:00:09Z" (341398809) transition_time 0x3d3-0x3db (8)
0x3d0|                                 00 00 00 00 15|           .....|      [13]: "1981-04-26T10:00:09Z" (357127209) transition_time 0x3db-0x3e3 (8)
0x3e0|49 54 29                                       |IT)             |
0x3e0|         00 00 00 00 16 39 37 1a               |   .....97.     |      [14]: "1981-10-25T09:00:10Z" (372848410) transition_time 0x3e3-0x3eb (8)
0x3e0|                                 00 00 00 00 17|           .....|      [15]: "1982-04-25T10:00:10Z" (388576810) transition_time 0x3eb-0x3f3 (8)
0x3f0|29 36 2a                                       |)6*             |
0x3f0|         00 00 00 00 18 22 53 9b               |   ....."S.     |      [16]: "1982-10-31T09:00:11Z" (404902811) transition_time 0x3f3-0x3fb (8)
0x3f0|                                 00 00 00 00 19|           .....|      [17]: "1983-04-24T10:00:11Z" (420026411) transition_time 0x3fb-0x403 (8)
0x400|09 18 2b                                       |..+             |
0x400|         00 00 00 00 1a 02 35 9c               |   ......5.     |      [18]: "1983-10-30T09:00:12Z" (436352412) transition_time 0x403-0x40b (8)
0x400|                                 00 00 00 00 1a|           .....|      [19]: "1984-04-29T10:00:12Z" (452080812) transition_time 0x40b-0x413 (8)
0x410|f2 34 ac                                       |.4.             |
0x410|         00 00 00 00 1b e2 17 9c               |   ........     |      [20]: "1984-10-28T09:00:12Z" (467802012) transition_time 0x413-0x41b (8)
0x410|                                 00 00 00 00 1c|           .....|      [21]: "1985-04-28T10:00:12Z" (483530412) transition_time 0x41b-0x423 (8)
0x420|d2 16 ac                                       |...             |
0x420|         00 00 00 00 1d c1 f9 9d               |   ........     |      [22]: "1985-10-27T09:00:13Z" (499251613) transition_time 0x423-0x42b (8)
0x420|                                 00 00 00 00 1e|           .....|      [23]: "1986-04-27T10:00:13Z" (514980013) transition_time 0x42b-0x433 (8)
0x430|b1 f8 ad                                       |...             |
0x430|         00 00 00 00 1f a1 db 9d               |   ........     |      [24]: "1986-10-26T09:00:13Z" (530701213) transition_time 0x433-0x43b (8)
0x430|                                 00 00 00 00 20|           .... |      [25]: "1987-04-05T10:00:13Z" (544615213) transition_time 0x43b-0x443 (8)
0x440|76 2b 2d                                       |v+-             |
0x440|         00 00 00 00 21 81 bd 9d               |   ....!...     |      [26]: "1987-10-25T09:00:13Z" (562150813) transition_time 0x443-0x44b (8)
0x440|                                 00 00 00 00 22|           ...."|      [27]: "1988-04-03T10:00:14Z" (576064814) transition_time 0x44b-0x453 (8)
0x450|56 0d 2e                                       |V..             |
0x450|         00 00 00 00 23 6a da 1e               |   ....#j..     |      [28]: "1988-10-30T09:00:14Z" (594205214) transition_time 0x453-0x45b (8)
0x450|                                 00 00 00 00 24|           ....$|      [29]: "1989-04-02T10:00:14Z" (607514414) transition_time 0x45b-0x463 (8)
0x460|35 ef 2e                                       |5..             |
0x460|         00 00 00 00 25 4a bc 1e               |   ....%J..     |      [30]: "1989-10-29T09:00:14Z" (625654814) transition_time 0x463-0x46b (8)
0x460|                                 00 00 00 00 26|           ....&|      [31]: "1990-04-01T10:00:15Z" (638964015) transition_time 0x46b-0x473 (8)
0x470|15 d1 2f                                       |../             |
0x470|         00 00 00 00 27 2a 9e 1f               |   ....'*..     |      [32]: "1990-10-28T09:00:15Z" (657104415) transition_time 0x473-0x47b (8)
0x470|                                 00 00 00 00 27|           ....'|      [33]: "1991-04-07T10:00:16Z" (671018416) transition_time 0x47b-0x483 (8)
0x480|fe ed b0                                       |...             |
0x480|         00 00 00 00 29 0a 80 20               |   ....)..      |      [34]: "1991-10-27T09:00:16Z" (688554016) transition_time 0x483-0x48b (8)
0x480|                                 00 00 00 00 29|           ....)|      [35]: "1992-04-05T10:00:16Z" (702468016) transition_time 0x48b-0x493 (8)
0x490|de cf b0                                       |...             |
0x490|         00 00 00 00 2a ea 62 21               |   ....*.b!     |      [36]: "1992-10-25T09:00:17Z" (720003617) transition_time 0x493-0x49b (8)
0x490|                                 00 00 00 00 2b|           ....+|      [37]: "1993-04-04T10:00:17Z" (733917617) transition_time 0x49b-0x4a3 (8)
0x4a0|be b1 b1                                       |...             |
0x4a0|         00 00 00 00 2c d3 7e a2               |   ....,.~.     |      [38]: "1993-10-31T09:00:18Z" (752058018) transition_time 0x4a3-0x4ab (8)
0x4a0|                                 00 00 00 00 2d|           ....-|      [39]: "1994-04-03T10:00:18Z" (765367218) transition_time 0x4ab-0x4b3 (8)
0x4b0|9e 93 b2                                       |...             |
0x4b0|         00 00 00 00 2e b3 60 a3               |   ......`.     |      [40]: "1994-10-30T09:00:19Z" (783507619) transition_time 0x4b3-0x4bb (8)
0x4b0|                                 00 00 00 00 2f|           ..../|      [41]: "1995-04-02T10:00:19Z" (796816819) transition_time 0x4bb-0x4c3 (8)
0x4c0|7e 75 b3                                       |~u.             |
0x4c0|         00 00 00 00 30 93 42 a3               |   ....0.B.     |      [42]: "1995-10-29T09:00:19Z" (814957219) transition_time 0x4c3-0x4cb (8)
0x4c0|                                 00 00 00 00 31|           ....1|      [43]: "1996-04-07T10:00:20Z" (828871220) transition_time 0x4cb-0x4d3 (8)
0x4d0|67 92 34                                       |g.4             |
0x4d0|         00 00 00 00 32 73 24 a4               |   ....2s$.     |      [44]: "1996-10-27T09:00:20Z" (846406820) transition_time 0x4d3-0x4db (8)
0x4d0|                                 00 00 00 00 33|           ....3|      [45]: "1997-04-06T10:00:20Z" (860320820) transition_time 0x4db-0x4e3 (8)
0x4e0|47 74 34                                       |Gt4             |
0x4e0|         00 00 00 00 34 53 06 a5               |   ....4S..     |      [46]: "1997-10-26T09:00:21Z" (877856421) transition_time 0x4e3-0x4eb (8)
0x4e0|                                 00 00 00 00 35|           ....5|      [47]: "1998-04-05T10:00:21Z" (891770421) transition_time 0x4eb-0x4f3 (8)
0x4f0|27 56 35                                       |'V5             |
0x4f0|         00 00 00 00 36 32 e8 a5               |   ....62..     |      [48]: "1998-10-25T09:00:21Z" (909306021) transition_time 0x4f3-0x4fb (8)
0x4f0|                                 00 00 00 00 37|           ....7|      [49]: "1999-04-04T10:00:22Z" (923220022) transition_time 0x4fb-0x503 (8)
0x500|07 38 36                                       |.86             |
0x500|         00 00 00 00 38 1c 05 26               |   ....8..&     |      [50]: "1999-10-31T09:00:22Z" (941360422) transition_time 0x503-0x50b (8)
0x500|                                 00 00 00 00 38|           ....8|      [51]: "2000-04-02T10:00:22Z" (954669622) transition_time 0x50b-0x513 (8)
0x510|e7 1a 36                                       |..6             |
0x510|         00 00 00 00 39 fb e7 26               |   ....9..&     |      [52]: "2000-10-29T09:00:22Z" (972810022) transition_time 0x513-0x51b (8)
0x510|                                 00 00 00 00 3a|           ....:|      [53]: "2001-04-01T10:00:22Z" (986119222) transition_time 0x51b-0x523 (8)
0x520|c6 fc 36                                       |..6             |
0x520|         00 00 00 00 3b db c9 26               |   ....;..&     |      [54]: "2001-10-28T09:00:22Z" (1004259622) transition_time 0x523-0x52b (8)
0x520|                                 00 00 00 00 3c|           ....<|      [55]: "2002-04-07T10:00:22Z" (1018173622) transition_time 0x52b-0x533 (8)
0x530|b0 18 b6                                       |...             |
0x530|         00 00 00 00 3d bb ab 26               |   ....=..&     |      [56]: "2002-10-27T09:00:22Z" (1035709222) transition_time 0x533-0x53b (8)
0x530|                                 00 00 00 00 3e|           ....>|      [57]: "2003-04-06T10:00:22Z" (1049623222) transition_time 0x53b-0x543 (8)
0x540|8f fa b6                                       |...             |
0x540|         00 00 00 00 3f 9b 8d 26               |   ....?..&     |      [58]: "2003-10-26T09:00:22Z" (1067158822) transition_time 0x543-0x54b (8)
0x540|                                 00 00 00 00 40|           ....@|      [59]: "2004-04-04T10:00:22Z" (1081072822) transition_time 0x54b-0x553 (8)
0x550|6f dc b6                                       |o..             |
0x550|         00 00 00 00 41 84 a9 a6               |   ....A...     |      [60]: "2004-10-31T09:00:22Z" (1099213222) transition_time 0x553-0x55b (8)
0x550|                                 00 00 00 00 42|           ....B|      [61]: "2005-04-03T10:00:22Z" (1112522422) transition_time 0x55b-0x563 (8)
0x560|4f be b6                                       |O..             |
0x560|         00 00 00 00 43 64 8b a6               |   ....Cd..     |      [62]: "2005-10-30T09:00:22Z" (1130662822) transition_time 0x563-0x56b (8)
0x560|                                 00 00 00 00 44|           ....D|      [63]: "2006-04-02T10:00:23Z" (1143972023) transition_time 0x56b-0x573 (8)
0x570|2f a0 b7                                       |/..             |
0x570|         00 00 00 00 45 44 6d a7               |   ....EDm.     |      [64]: "2006-10-29T09:00:23Z" (1162112423) transition_time 0x573-0x57b (8)
0x570|                                 00 00 00 00 45|           ....E|      [65]: "2007-03-11T10:00:23Z" (1173607223) transition_time 0x57b-0x583 (8)
0x580|f3 d3 37                                       |..7             |
0x580|         00 00 00 00 47 2d 8a 27               |   ....G-.'     |      [66]: "2007-11-04T09:00:23Z" (1194166823) transition_time 0x583-0x58b (8)
0x580|                                 00 00 00 00 47|           ....G|      [67]: "2008-03-09T10:00:23Z" (1205056823) transition_time 0x58b-0x593 (8)
0x590|d3 b5 37                                       |..7             |
0x590|         00 00 00 00 49 0d 6c 27               |   ....I.l'     |      [68]: "2008-11-02T09:00:23Z" (1225616423) transition_time 0x593-0x59b (8)
0x590|                                 00 00 00 00 49|           ....I|      [69]: "2009-03-08T10:00:24Z" (1236506424) transition_time 0x59b-0x5a3 (8)
0x5a0|b3 97 38                                       |..8             |
0x5a0|         00 00 00 00 4a ed 4e 28               |   ....J.N(     |      [70]: "2009-11-01T09:00:24Z" (1257066024) transition_time 0x5a3-0x5ab (8)
0x5a0|                                 00 00 00 00 4b|           ....K|      [71]: "2010-03-14T10:00:24Z" (1268560824) transition_time 0x5ab-0x5b3 (8)
0x5b0|9c b3 b8                                       |...             |
0x5b0|         00 00 00 00 4c d6 6a a8               |   ....L.j.     |      [72]: "2010-11-07T09:00:24Z" (1289120424) transition_time 0x5b3-0x5bb (8)
0x5b0|                                 00 00 00 00 4d|           ....M|      [73]: "2011-03-13T10:00:24Z" (1300010424) transition_time 0x5bb-0x5c3 (8)
0x5c0|7c 95 b8                                       ||..             |
0x5c0|         00 00 00 00 4e b6 4c a8               |   ....N.L.     |      [74]: "2011-11-06T09:00:24Z" (1320570024) transition_time 0x5c3-0x5cb (8)
0x5c0|                                 00 00 00 00 4f|           ....O|      [75]: "2012-03-11T10:00:24Z" (1331460024) transition_time 0x5cb-0x5d3 (8)
0x5d0|5c 77 b8                                       |\w.             |
0x5d0|         00 00 00 00 50 96 2e a9               |   ....P...     |      [76]: "2012-11-04T09:00:25Z" (1352019625) transition_time 0x5d3-0x5db (8)
0x5d0|                                 00 00 00 00 51|           ....Q|      [77]: "2013-03-10T10:00:25Z" (1362909625) transition_time 0x5db-0x5e3 (8)
0x5e0|3c 59 b9                                       |<Y.             |
0x5e0|         00 00 00 00 52 76 10 a9               |   ....Rv..     |      [78]: "2013-11-03T09:00:25Z" (1383469225) transition_time 0x5e3-0x5eb (8)
0x5e0|                                 00 00 00 00 53|           ....S|      [79]: "2014-03-09T10:00:25Z" (1394359225) transition_time 0x5eb-0x5f3 (8)
0x5f0|1c 3b b9                                       |.;.             |
0x5f0|         00 00 00 00 54 55 f2 a9               |   ....TU..     |      [80]: "2014-11-02T09:00:25Z" (1414918825) transition_time 0x5f3-0x5fb (8)
0x5f0|                                 00 00 00 00 54|           ....T|      [81]: "2015-03-08T10:00:25Z" (1425808825) transition_time 0x5fb-0x603 (8)
0x600|fc 1d b9                                       |...             |
0x600|         00 00 00 00 56 35 d4 aa               |   ....V5..     |      [82]: "2015-11-01T09:00:26Z" (1446368426) transition_time 0x603-0x60b (8)
0x600|                                 00 00 00 00 56|           ....V|      [83]: "2016-03-13T10:00:26Z" (1457863226) transition_time 0x60b-0x613 (8)
0x610|e5 3a 3a                                       |.::             |
0x610|         00 00 00 00 58 1e f1 2a               |   ....X..*     |      [84]: "2016-11-06T09:00:26Z" (1478422826) transition_time 0x613-0x61b (8)
0x610|                                 00 00 00 00 58|           ....X|      [85]: "2017-03-12T10:00:27Z" (1489312827) transition_time 0x61b-0x623 (8)
0x620|c5 1c 3b                                       |..;             |
0x620|         00 00 00 00 59 fe d3 2b               |   ....Y..+     |      [86]: "2017-11-05T09:00:27Z" (1509872427) transition_time 0x623-0x62b (8)
0x620|                                 00 00 00 00 5a|           ....Z|      [87]: "2018-03-11T10:00:27Z" (1520762427) transition_time 0x62b-0x633 (8)
0x630|a4 fe 3b                                       |..;             |
0x630|         00 00 00 00 5b de b5 2b               |   ....[..+     |      [88]: "2018-11-04T09:00:27Z" (1541322027) transition_time 0x633-0x63b (8)
0x630|                                 00 00 00 00 5c|           ....\|      [89]: "2019-03-10T10:00:27Z" (1552212027) transition_time 0x63b-0x643 (8)
0x640|84 e0 3b                                       |..;             |
0x640|         00 00 00 00 5d be 97 2b               |   ....]..+     |      [90]: "2019-11-03T09:00:27Z" (1572771627) transition_time 0x643-0x64b (8)
0x640|                                 00 00 00 00 5e|           ....^|      [91]: "2020-03-08T10:00:27Z" (1583661627) transition_time 0x64b-0x653 (8)
0x650|64 c2 3b                                       |d.;             |
0x650|         00 00 00 00 5f 9e 5d 0b               |   ...._.].     |      [92]: "2020-11-01T07:00:27Z" (1604214027) transition_time 0x653-0x65b (8)
0x650|                                 00 00 00 00 64|           ....d|      [93]: "2023-06-28T00:00:27Z" (1687910427) transition_time 0x65b-0x663 (8)
0x660|9b 78 1b                                       |.x.             |
     |                                               |                |    transition_types[0:94]: 0x663-0x6c1 (94)
0x660|         02                                    |   .            |      [0]: 2 transition_type 0x663-0x664 (1)
0x660|            01                                 |    .           |      [1]: 1 transition_type 0x664-0x665 (1)
0x660|               02                              |     .          |      [2]: 2 transition_type 0x665-0x666 (1)
0x660|                  01                           |      .         |      [3]: 1 transition_type 0x666-0x667 (1)
0x660|                     02                        |       .        |      [4]: 2 transition_type 0x667-0x668 (1)
0x660|                        03                     |        .       |      [5]: 3 transition_type 0x668-0x669 (1)
0x660|                           04                  |         .      |      [6]: 4 transition_type 0x669-0x66a (1)
0x660|                              02               |          .     |      [7]: 2 transition_type 0x66a-0x66b (1)
0x660|                                 05            |           .    |      [8]: 5 transition_type 0x66b-0x66c (1)
0x660|                                    02         |            .   |      [9]: 2 transition_type 0x66c-0x66d (1)
0x660|                                       06      |             .  |      [10]: 6 transition_type 0x66d-0x66e (1)
0x660|                                          07   |              . |      [11]: 7 transition_type 0x66e-0x66f (1)
0x660|                                             06|               .|      [12]: 6 transition_type 0x66f-0x670 (1)
0x670|07                                             |.               |      [13]: 7 transition_type 0x670-0x671 (1)
0x670|   06                                          | .              |      [14]: 6 transition_type 0x671-0x672 (1)
0x670|      07                                       |  .             |      [15]: 7 transition_type 0x672-0x673 (1)
0x670|         06                                    |   .            |      [16]: 6 transition_type 0x673-0x674 (1)
0x670|            07                                 |    .           |      [17]: 7 transition_type 0x674-0x675 (1)
0x670|               06                              |     .          |      [18]: 6 transition_type 0x675-0x676 (1)
0x670|                  07                           |      .         |      [19]: 7 transition_type 0x676-0x677 (1)
0x670|                     06                        |       .        |      [20]: 6 transition_type 0x677-0x678 (1)
0x670|                        07                     |        .       |      [21]: 7 transition_type 0x678-0x679 (1)
0x670|                           06                  |         .      |      [22]: 6 transition_type 0x679-0x67a (1)
0x670|                              07               |          .     |      [23]: 7 transition_type 0x67a-0x67b (1)
0x670|                                 06            |           .    |      [24]: 6 transition_type 0x67b-0x67c (1)
0x670|                                    07         |            .   |      [25]: 7 transition_type 0x67c-0x67d (1)
0x670|                                       06      |             .  |      [26]: 6 transition_type 0x67d-0x67e (1)
0x670|                                          07   |              . |      [27]: 7 transition_type 0x67e-0x67f (1)
0x670|                                             06|               .|      [28]: 6 transition_type 0x67f-0x680 (1)
0x680|07                                             |.               |      [29]: 7 transition_type 0x680-0x681 (1)
0x680|   06                                          | .              |      [30]: 6 transition_type 0x681-0x682 (1)
0x680|      07                                       |  .             |      [31]: 7 transition_type 0x682-0x683 (1)
0x680|         06                                    |   .            |      [32]: 6 transition_type 0x683-0x684 (1)
0x680|            07                                 |    .           |      [33]: 7 transition_type 0x684-0x685 (1)
0x680|               06                              |     .          |      [34]: 6 transition_type 0x685-0x686 (1)
0x680|                  07                           |      .         |      [35]: 7 transition_type 0x686-0x687 (1)
0x680|                     06                        |       .        |      [36]: 6 transition_type 0x687-0x688 (1)
0x680|                        07                     |        .       |      [37]: 7 transition_type 0x688-0x689 (1)
0x680|                           06                  |         .      |      [38]: 6 transition_type 0x689-0x68a (1)
0x680|                              07               |          .     |      [39]: 7 transition_type 0x68a-0x68b (1)
0x680|                                 06            |           .    |      [40]: 6 transition_type 0x68b-0x68c (1)
0x680|                                    07         |            .   |      [41]: 7 transition_type 0x68c-0x68d (1)
0x680|                                       06      |             .  |      [42]: 6 transition_type 0x68d-0x68e (1)
0x680|                                          07   |              . |      [43]: 7 transition_type 0x68e-0x68f (1)
0x680|                                             06|               .|      [44]: 6 transition_type 0x68f-0x690 (1)
0x690|07                                             |.               |      [45]: 7 transition_type 0x690-0x691 (1)
0x690|   06                                          | .              |      [46]: 6 transition_type 0x691-0x692 (1)
0x690|      07                                       |  .             |      [47]: 7 transition_type 0x692-0x693 (1)
0x690|         06                                    |   .            |      [48]: 6 transition_type 0x693-0x694 (1)
0x690|            07                                 |    .           |      [49]: 7 transition_type 0x694-0x695 (1)
0x690|               06                              |     .          |      [50]: 6 transition_type 0x695-0x696 (1)
0x690|                  07                           |      .         |      [51]: 7 transition_type 0x696-0x697 (1)
0x690|                     06                        |       .        |      [52]: 6 transition_type 0x697-0x698 (1)
0x690|                        07                     |        .       |      [53]: 7 transition_type 0x698-0x699 (1)
0x690|                           06                  |         .      |      [54]: 6 transition_type 0x699-0x69a (1)
0x690|                              07               |          .     |      [55]: 7 transition_type 0x69a-0x69b (1)
0x690|                                 06            |           .    |      [56]: 6 transition_type 0x69b-0x69c (1)
0x690|                                    07         |            .   |      [57]: 7 transition_type 0x69c-0x69d (1)
0x690|                                       06      |             .  |      [58]: 6 transition_type 0x69d-0x69e (1)
0x690|                                          07   |              . |      [59]: 7 transition_type 0x69e-0x69f (1)
0x690|                                             06|               .|      [60]: 6 transition_type 0x69f-0x6a0 (1)
0x6a0|07                                             |.               |      [61]: 7 transition_type 0x6a0-0x6a1 (1)
0x6a0|   06                                          | .              |      [62]: 6 transition_type 0x6a1-0x6a2 (1)
0x6a0|      07                                       |  .             |      [63]: 7 transition_type 0x6a2-0x6a3 (1)
0x6a0|         06                                    |   .            |      [64]: 6 transition_type 0x6a3-0x6a4 (1)
0x6a0|            07                                 |    .           |      [65]: 7 transition_type 0x6a4-0x6a5 (1)
0x6a0|               06                              |     .          |      [66]: 6 transition_type 0x6a5-0x6a6 (1)
0x6a0|                  07                           |      .         |      [67]: 7 transition_type 0x6a6-0x6a7 (1)
0x6a0|                     06                        |       .        |      [68]: 6 transition_type 0x6a7-0x6a8 (1)
0x6a0|                        07                     |        .       |      [69]: 7 transition_type 0x6a8-0x6a9 (1)
0x6a0|                           06                  |         .      |      [70]: 6 transition_type 0x6a9-0x6aa (1)
0x6a0|                              07               |          .     |      [71]: 7 transition_type 0x6aa-0x6ab (1)
0x6a0|                                 06            |           .    |      [72]: 6 transition_type 0x6ab-0x6ac (1)
0x6a0|                                    07         |            .   |      [73]: 7 transition_type 0x6ac-0x6ad (1)
0x6a0|                                       06      |             .  |      [74]: 6 transition_type 0x6ad-0x6ae (1)
0x6a0|                                          07   |              . |      [75]: 7 transition_type 0x6ae-0x6af (1)
0x6a0|                                             06|               .|      [76]: 6 transition_type 0x6af-0x6b0 (1)
0x6b0|07                                             |.               |      [77]: 7 transition_type 0x6b0-0x6b1 (1)
0x6b0|   06                                          | .              |      [78]: 6 transition_type 0x6b1-0x6b2 (1)
0x6b0|      07                                       |  .             |      [79]: 7 transition_type 0x6b2-0x6b3 (1)
0x6b0|         06                                    |   .            |      [80]: 6 transition_type 0x6b3-0x6b4 (1)
0x6b0|            07                                 |    .           |      [81]: 7 transition_type 0x6b4-0x6b5 (1)
0x6b0|               06                              |     .          |      [82]: 6 transition_type 0x6b5-0x6b6 (1)
0x6b0|                  07                           |      .         |      [83]: 7 transition_type 0x6b6-0x6b7 (1)
0x6b0|                     06                        |       .        |      [84]: 6 transition_type 0x6b7-0x6b8 (1)
0x6b0|                        07                     |        .       |      [85]: 7 transition_type 0x6b8-0x6b9 (1)
0x6b0|                           06                  |         .      |      [86]: 6 transition_type 0x6b9-0x6ba (1)
0x6b0|                              07               |          .     |      [87]: 7 transition_type 0x6ba-0x6bb (1)
0x6b0|                                 06            |           .    |      [88]: 6 transition_type 0x6bb-0x6bc (1)
0x6b0|                                    07         |            .   |      [89]: 7 transition_type 0x6bc-0x6bd (1)
0x6b0|                                       06      |             .  |      [90]: 6 transition_type 0x6bd-0x6be (1)
0x6b0|                                          07   |              . |      [91]: 7 transition_type 0x6be-0x6bf (1)
0x6b0|                                             08|               .|      [92]: 8 transition_type 0x6bf-0x6c0 (1)
0x6c0|08                                             |.               |      [93]: 8 transition_type 0x6c0-0x6c1 (1)
     |                                               |                |    local_time_type_records[0:9]: 0x6c1-0x6f7 (54)
     |                                               |                |      [0]{}: local_time_type 0x6c1-0x6c7 (6)
0x6c0|   ff ff 7d 4c                                 | ..}L           |        utoff: -33460 (valid) 0x6c1-0x6c5 (4)
0x6c0|               00                              |     .          |        dst: 0 (valid) 0x6c5-0x6c6 (1)
0x6c0|                  00                           |      .         |        idx: 0 (valid) 0x6c6-0x6c7 (1)
     |                                               |                |      [1]{}: local_time_type 0x6c7-0x6cd (6)
0x6c0|                     ff ff 8f 80               |       ....     |        utoff: -28800 (valid) 0x6c7-0x6cb (4)
0x6c0|                                 01            |           .    |        dst: 1 (valid) 0x6cb-0x6cc (1)
0x6c0|                                    04         |            .   |        idx: 4 (valid) 0x6cc-0x6cd (1)
     |                                               |                |      [2]{}: local_time_type 0x6cd-0x6d3 (6)
0x6c0|                                       ff ff 81|             ...|        utoff: -32400 (valid) 0x6cd-0x6d1 (4)
0x6d0|70                                             |p               |
0x6d0|   00                                          | .              |        dst: 0 (valid) 0x6d1-0x6d2 (1)
0x6d0|      08                                       |  .             |        idx: 8 (valid) 0x6d2-0x6d3 (1)
     |                                               |                |      [3]{}: local_time_type 0x6d3-0x6d9 (6)
0x6d0|         ff ff 8f 80                           |   ....         |        utoff: -28800 (valid) 0x6d3-0x6d7 (4)
0x6d0|                     01                        |       .        |        dst: 1 (valid) 0x6d7-0x6d8 (1)
0x6d0|                        0c                     |        .       |        idx: 12 (valid) 0x6d8-0x6d9 (1)
     |                                               |                |      [4]{}: local_time_type 0x6d9-0x6df (6)
0x6d0|                           ff ff 8f 80         |         ....   |        utoff: -28800 (valid) 0x6d9-0x6dd (4)
0x6d0|                                       01      |             .  |        dst: 1 (valid) 0x6dd-0x6de (1)
0x6d0|                                          10   |              . |        idx: 16 (valid) 0x6de-0x6df (1)
     |                                               |                |      [5]{}: local_time_type 0x6df-0x6e5 (6)
0x6d0|                                             ff|               .|        utoff: -25200 (valid) 0x6df-0x6e3 (4)
0x6e0|ff 9d 90                                       |...             |
0x6e0|         01                                    |   .            |        dst: 1 (valid) 0x6e3-0x6e4 (1)
0x6e0|            14                                 |    .           |        idx: 20 (valid) 0x6e4-0x6e5 (1)
     |                                               |                |      [6]{}: local_time_type 0x6e5-0x6eb (6)
0x6e0|               ff ff 8f 80                     |     ....       |        utoff: -28800 (valid) 0x6e5-0x6e9 (4)
0x6e0|                           00                  |         .      |        dst: 0 (valid) 0x6e9-0x6ea (1)
0x6e0|                              19               |          .     |        idx: 25 (valid) 0x6ea-0x6eb (1)
     |                                               |                |      [7]{}: local_time_type 0x6eb-0x6f1 (6)
0x6e0|                                 ff ff 9d 90   |           .... |        utoff: -25200 (valid) 0x6eb-0x6ef (4)
0x6e0|                                             01|               .|        dst: 1 (valid) 0x6ef-0x6f0 (1)
0x6f0|1d                                             |.               |        idx: 29 (valid) 0x6f0-0x6f1 (1)
     |                                               |                |      [8]{}: local_time_type 0x6f1-0x6f7 (6)
0x6f0|   ff ff 9d 90                                 | ....           |        utoff: -25200 (valid) 0x6f1-0x6f5 (4)
0x6f0|               00                              |     .          |        dst: 0 (valid) 0x6f5-0x6f6 (1)
0x6f0|                  21                           |      !         |        idx: 33 (valid) 0x6f6-0x6f7 (1)
     |                                               |                |    time_zone_designations[0:9]: 0x6f7-0x71c (37)
0x6f0|                     4c 4d 54 00               |       LMT.     |      [0]: "LMT" time_zone_designation 0x6f7-0x6fb (4)
0x6f0|                                 59 44 54 00   |           YDT. |      [1]: "YDT" time_zone_designation 0x6fb-0x6ff (4)
0x6f0|                                             59|               Y|      [2]: "YST" time_zone_designation 0x6ff-0x703 (4)
0x700|53 54 00                                       |ST.             |
0x700|         59 57 54 00                           |   YWT.         |      [3]: "YWT" time_zone_designation 0x703-0x707 (4)
0x700|                     59 50 54 00               |       YPT.     |      [4]: "YPT" time_zone_designation 0x707-0x70b (4)
0x700|                                 59 44 44 54 00|           YDDT.|      [5]: "YDDT" time_zone_designation 0x70b-0x710 (5)
0x710|50 53 54 00                                    |PST.            |      [6]: "PST" time_zone_designation 0x710-0x714 (4)
0x710|            50 44 54 00                        |    PDT.        |      [7]: "PDT" time_zone_designation 0x714-0x718 (4)
0x710|                        4d 53 54 00            |        MST.    |      [8]: "MST" time_zone_designation 0x718-0x71c (4)
     |                                               |                |    leap_second_records[0:27]: 0x71c-0x860 (324)
     |                                               |                |      [0]{}: leap_second_record 0x71c-0x728 (12)
0x710|                                    00 00 00 00|            ....|        occur: "1972-07-01T00:00:00Z" (78796800) 0x71c-0x724 (8)
0x720|04 b2 58 00                                    |..X.            |
0x720|            00 00 00 01                        |    ....        |        corr: 1 0x724-0x728 (4)
     |                                               |                |      [1]{}: leap_second_record 0x728-0x734 (12)
0x720|                        00 00 00 00 05 a4 ec 01|        ........|        occur: "1973-01-01T00:00:01Z" (94694401) 0x728-0x730 (8)
0x730|00 00 00 02                                    |....            |        corr: 2 0x730-0x734 (4)
     |                                               |                |      [2]{}: leap_second_record 0x734-0x740 (12)
0x730|            00 00 00 00 07 86 1f 82            |    ........    |        occur: "1974-01-01T00:00:02Z" (126230402) 0x734-0x73c (8)
0x730|                                    00 00 00 03|            ....|        corr: 3 0x73c-0x740 (4)
     |                                               |                |      [3]{}: leap_second_record 0x740-0x74c (12)
0x740|00 00 00 00 09 67 53 03                        |.....gS.        |        occur: "1975-01-01T00:00:03Z" (157766403) 0x740-0x748 (8)
0x740|                        00 00 00 04            |        ....    |        corr: 4 0x748-0x74c (4)
     |                                               |                |      [4]{}: leap_second_record 0x74c-0x758 (12)
0x740|                                    00 00 00 00|            ....|        occur: "1976-01-01T00:00:04Z" (189302404) 0x74c-0x754 (8)
0x750|0b 48 86 84                                    |.H..            |
0x750|            00 00 00 05                        |    ....        |        corr: 5 0x754-0x758 (4)
     |                                               |                |      [5]{}: leap_second_record 0x758-0x764 (12)
0x750|                        00 00 00 00 0d 2b 0b 85|        .....+..|        occur: "1977-01-01T00:00:05Z" (220924805) 0x758-0x760 (8)
0x760|00 00 00 06                                    |....            |        corr: 6 0x760-0x764 (4)
     |                                               |                |      [6]{}: leap_second_record 0x764-0x770 (12)
0x760|            00 00 00 00 0f 0c 3f 06            |    ......?.    |        occur: "1978-01-01T00:00:06Z" (252460806) 0x764-0x76c (8)
0x760|                                    00 00 00 07|            ....|        corr: 7 0x76c-0x770 (4)
     |                                               |                |      [7]{}: leap_second_record 0x770-0x77c (12)
0x770|00 00 00 00 10 ed 72 87                        |......r.        |        occur: "1979-01-01T00:00:07Z" (283996807) 0x770-0x778 (8)
0x770|                        00 00 00 08            |        ....    |        corr: 8 0x778-0x77c (4)
     |                                               |                |      [8]{}: leap_second_record 0x77c-0x788 (12)
0x770|                                    00 00 00 00|            ....|        occur: "1980-01-01T00:00:08Z" (315532808) 0x77c-0x784 (8)
0x780|12 ce a6 08                                    |....            |
0x780|            00 00 00 09                        |    ....        |        corr: 9 0x784-0x788 (4)
     |                                               |                |      [9]{}: leap_second_record 0x788-0x794 (12)
0x780|                        00 00 00 00 15 9f ca 89|        ........|        occur: "1981-07-01T00:00:09Z" (362793609) 0x788-0x790 (8)
0x790|00 00 00 0a                                    |....            |        corr: 10 0x790-0x794 (4)
     |                                               |                |      [10]{}: leap_second_record 0x794-0x7a0 (12)
0x790|            00 00 00 00 17 80 fe 0a            |    ........    |        occur: "1982-07-01T00:00:10Z" (394329610) 0x794-0x79c (8)
0x790|                                    00 00 00 0b|            ....|        corr: 11 0x79c-0x7a0 (4)
     |                                               |                |      [11]{}: leap_second_record 0x7a0-0x7ac (12)
0x7a0|00 00 00 00 19 62 31 8b                        |.....b1.        |        occur: "1983-07-01T00:00:11Z" (425865611) 0x7a0-0x7a8 (8)
0x7a0|                        00 00 00 0c            |        ....    |        corr: 12 0x7a8-0x7ac (4)
     |                                               |                |      [12]{}: leap_second_record 0x7ac-0x7b8 (12)
0x7a0|                                    00 00 00 00|            ....|        occur: "1985-07-01T00:00:12Z" (489024012) 0x7ac-0x7b4 (8)
0x7b0|1d 25 ea 0c                                    |.%..            |
0x7b0|            00 00 00 0d                        |    ....        |        corr: 13 0x7b4-0x7b8 (4)
     |                                               |                |      [13]{}: leap_second_record 0x7b8-0x7c4 (12)
0x7b0|                        00 00 00 00 21 da e5 0d|        ....!...|        occur: "1988-01-01T00:00:13Z" (567993613) 0x7b8-0x7c0 (8)
0x7c0|00 00 00 0e                                    |....            |        corr: 14 0x7c0-0x7c4 (4)
     |                                               |                |      [14]{}: leap_second_record 0x7c4-0x7d0 (12)
0x7c0|            00 00 00 00 25 9e 9d 8e            |    ....%...    |        occur: "1990-01-01T00:00:14Z" (631152014) 0x7c4-0x7cc (8)
0x7c0|                                    00 00 00 0f|            ....|        corr: 15 0x7cc-0x7d0 (4)
     |                                               |                |      [15]{}: leap_second_record 0x7d0-0x7dc (12)
0x7d0|00 00 00 00 27 7f d1 0f                        |....'...        |        occur: "1991-01-01T00:00:15Z" (662688015) 0x7d0-0x7d8 (8)
0x7d0|                        00 00 00 10            |        ....    |        corr: 16 0x7d8-0x7dc (4)
     |                                               |                |      [16]{}: leap_second_record 0x7dc-0x7e8 (12)
0x7d0|                                    00 00 00 00|            ....|        occur: "1992-07-01T00:00:16Z" (709948816) 0x7dc-0x7e4 (8)
0x7e0|2a 50 f5 90                                    |*P..            |
0x7e0|            00 00 00 11                        |    ....        |        corr: 17 0x7e4-0x7e8 (4)
     |                                               |                |      [17]{}: leap_second_record 0x7e8-0x7f4 (12)
0x7e0|                        00 00 00 00 2c 32 29 11|        ....,2).|        occur: "1993-07-01T00:00:17Z" (741484817) 0x7e8-0x7f0 (8)
0x7f0|00 00 00 12                                    |....            |        corr: 18 0x7f0-0x7f4 (4)
     |                                               |                |      [18]{}: leap_second_record 0x7f4-0x800 (12)
0x7f0|            00 00 00 00 2e 13 5c 92            |    ......\.    |        occur: "1994-07-01T00:00:18Z" (773020818) 0x7f4-0x7fc (8)
0x7f0|                                    00 00 00 13|            ....|        corr: 19 0x7fc-0x800 (4)
     |                                               |                |      [19]{}: leap_second_record 0x800-0x80c (12)
0x800|00 00 00 00 30 e7 24 13                        |....0.$.        |        occur: "1996-01-01T00:00:19Z" (820454419) 0x800-0x808 (8)
0x800|                        00 00 00 14            |        ....    |        corr: 20 0x808-0x80c (4)
     |                                               |                |      [20]{}: leap_second_record 0x80c-0x818 (12)
0x800|                                    00 00 00 00|            ....|        occur: "1997-07-01T00:00:20Z" (867715220) 0x80c-0x814 (8)
0x810|33 b8 48 94                                    |3.H.            |
0x810|            00 00 00 15                        |    ....        |        corr: 21 0x814-0x818 (4)
     |                                               |                |      [21]{}: leap_second_record 0x818-0x824 (12)
0x810|                        00 00 00 00 36 8c 10 15|        ....6...|        occur: "1999-01-01T00:00:21Z" (915148821) 0x818-0x820 (8)
0x820|00 00 00 16                                    |....            |        corr: 22 0x820-0x824 (4)
     |                                               |                |      [22]{}: leap_second_record 0x824-0x830 (12)
0x820|            00 00 00 00 43 b7 1b 96            |    ....C...    |        occur: "2006-01-01T00:00:22Z" (1136073622) 0x824-0x82c (8)
0x820|                                    00 00 00 17|            ....|        corr: 23 0x82c-0x830 (4)
     |                                               |                |      [23]{}: leap_second_record 0x830-0x83c (12)
0x830|00 00 00 00 49 5c 07 97                        |....I\..        |        occur: "2009-01-01T00:00:23Z" (1230768023) 0x830-0x838 (8)
0x830|                        00 00 00 18            |        ....    |        corr: 24 0x838-0x83c (4)
     |                                               |                |      [24]{}: leap_second_record 0x83c-0x848 (12)
0x830|                                    00 00 00 00|            ....|        occur: "2012-07-01T00:00:24Z" (1341100824) 0x83c-0x844 (8)
0x840|4f ef 93 18                                    |O...            |
0x840|            00 00 00 19                        |    ....        |        corr: 25 0x844-0x848 (4)
     |                                               |                |      [25]{}: leap_second_record 0x848-0x854 (12)
0x840|                        00 00 00 00 55 93 2d 99|        ....U.-.|        occur: "2015-07-01T00:00:25Z" (1435708825) 0x848-0x850 (8)
0x850|00 00 00 1a                                    |....            |        corr: 26 0x850-0x854 (4)
     |                                               |                |      [26]{}: leap_second_record 0x854-0x860 (12)
0x850|            00 00 00 00 58 68 46 9a            |    ....XhF.    |        occur: "2017-01-01T00:00:26Z" (1483228826) 0x854-0x85c (8)
0x850|                                    00 00 00 1b|            ....|        corr: 27 0x85c-0x860 (4)
     |                                               |                |    standard_wall_indicators[0:9]: 0x860-0x869 (9)
0x860|00                                             |.               |      [0]: 0 standard_wall_indicator (valid) 0x860-0x861 (1)
0x860|   00                                          | .              |      [1]: 0 standard_wall_indicator (valid) 0x861-0x862 (1)
0x860|      00                                       |  .             |      [2]: 0 standard_wall_indicator (valid) 0x862-0x863 (1)
0x860|         00                                    |   .            |      [3]: 0 standard_wall_indicator (valid) 0x863-0x864 (1)
0x860|            01                                 |    .           |      [4]: 1 standard_wall_indicator (valid) 0x864-0x865 (1)
0x860|               00                              |     .          |      [5]: 0 standard_wall_indicator (valid) 0x865-0x866 (1)
0x860|                  00                           |      .         |      [6]: 0 standard_wall_indicator (valid) 0x866-0x867 (1)
0x860|                     00                        |       .        |      [7]: 0 standard_wall_indicator (valid) 0x867-0x868 (1)
0x860|                        00                     |        .       |      [8]: 0 standard_wall_indicator (valid) 0x868-0x869 (1)
     |                                               |                |    ut_local_indicators[0:9]: 0x869-0x872 (9)
0x860|                           00                  |         .      |      [0]: 0 ut_local_indicator (valid) 0x869-0x86a (1)
0x860|                              00               |          .     |      [1]: 0 ut_local_indicator (valid) 0x86a-0x86b (1)
0x860|                                 00            |           .    |      [2]: 0 ut_local_indicator (valid) 0x86b-0x86c (1)
0x860|                                    00         |            .   |      [3]: 0 ut_local_indicator (valid) 0x86c-0x86d (1)
0x860|                                       01      |             .  |      [4]: 1 ut_local_indicator (valid) 0x86d-0x86e (1)
0x860|                                          00   |              . |      [5]: 0 ut_local_indicator (valid) 0x86e-0x86f (1)
0x860|                                             00|               .|      [6]: 0 ut_local_indicator (valid) 0x86f-0x870 (1)
0x870|00                                             |.               |      [7]: 0 ut_local_indicator (valid) 0x870-0x871 (1)
0x870|   00                                          | .              |      [8]: 0 ut_local_indicator (valid) 0x871-0x872 (1)
     |                                               |                |  footer{}: 0x872-0x874 (2)
0x870|      0a                                       |  .             |    nl1: 10 (valid) 0x872-0x873 (1)
     |                                               |                |    tz_string: "" 0x873-0x873 (0)
0x870|         0a|                                   |   .|           |    nl2: 10 (valid) 0x873-0x874 (1)
