$ fq -d tzif dv Dawson_Creek
     |00 01 02 03 04 05 06 07 08 09 0a 0b 0c 0d 0e 0f|0123456789abcdef|.{}: Dawson_Creek (tzif) 0x0-0x640 (1600)
     |                                               |                |  v1header{}: 0x0-0x2c (44)
0x000|54 5a 69 66                                    |TZif            |    magic: 0x545a6966 (valid) 0x0-0x4 (4)
0x000|            32                                 |    2           |    ver: "2" (0x32) (valid) 0x4-0x5 (1)
0x000|               00 00 00 00 00 00 00 00 00 00 00|     ...........|    reserved: raw bits 0x5-0x14 (15)
0x010|00 00 00 00                                    |....            |
0x010|            00 00 00 06                        |    ....        |    isutcnt: 6 0x14-0x18 (4)
0x010|                        00 00 00 06            |        ....    |    isstdcnt: 6 0x18-0x1c (4)
0x010|                                    00 00 00 1b|            ....|    leapcnt: 27 0x1c-0x20 (4)
0x020|00 00 00 3b                                    |...;            |    timecnt: 59 0x20-0x24 (4)
0x020|            00 00 00 06                        |    ....        |    typecnt: 6 0x24-0x28 (4)
0x020|                        00 00 00 18            |        ....    |    charcnt: 24 0x28-0x2c (4)
     |                                               |                |  v1datablock{}: 0x2c-0x273 (583)
     |                                               |                |    transition_times[0:59]: 0x2c-0x118 (236)
0x020|                                    80 00 00 00|            ....|      [0]: "1901-12-13T20:45:52Z" (-2147483648) transition_time 0x2c-0x30 (4)
0x030|9e b8 bd a0                                    |....            |      [1]: "1918-04-14T10:00:00Z" (-1632060000) transition_time 0x30-0x34 (4)
0x030|            9f bb 15 90                        |    ....        |      [2]: "1918-10-27T09:00:00Z" (-1615129200) transition_time 0x34-0x38 (4)
0x030|                        cb 89 1a a0            |        ....    |      [3]: "1942-02-09T10:00:00Z" (-880207200) transition_time 0x38-0x3c (4)
0x030|                                    d2 23 f4 70|            .#.p|      [4]: "1945-08-14T23:00:00Z" (-769395600) transition_time 0x3c-0x40 (4)
0x040|d2 61 26 10                                    |.a&.            |      [5]: "1945-09-30T09:00:00Z" (-765385200) transition_time 0x40-0x44 (4)
0x040|            d5 55 f1 20                        |    .U.         |      [6]: "1947-04-27T10:00:00Z" (-715788000) transition_time 0x44-0x48 (4)
0x040|                        d6 20 ea 10            |        . ..    |      [7]: "1947-09-28T09:00:00Z" (-702486000) transition_time 0x48-0x4c (4)
0x040|                                    d7 35 d3 20|            .5. |      [8]: "1948-04-25T10:00:00Z" (-684338400) transition_time 0x4c-0x50 (4)
0x050|d8 00 cc 10                                    |....            |      [9]: "1948-09-26T09:00:00Z" (-671036400) transition_time 0x50-0x54 (4)
0x050|            d9 15 b5 20                        |    ...         |      [10]: "1949-04-24T10:00:00Z" (-652888800) transition_time 0x54-0x58 (4)
0x050|                        d9 e0 ae 10            |        ....    |      [11]: "1949-09-25T09:00:00Z" (-639586800) transition_time 0x58-0x5c (4)
0x050|                                    da fe d1 a0|            ....|      [12]: "1950-04-30T10:00:00Z" (-620834400) transition_time 0x5c-0x60 (4)
0x060|db c0 90 10                                    |....            |      [13]: "1950-09-24T09:00:00Z" (-608137200) transition_time 0x60-0x64 (4)
0x060|            dc de b3 a0                        |    ....        |      [14]: "1951-04-29T10:00:00Z" (-589384800) transition_time 0x64-0x68 (4)
0x060|                        dd a9 ac 90            |        ....    |      [15]: "1951-09-30T09:00:00Z" (-576082800) transition_time 0x68-0x6c (4)
0x060|                                    de be 95 a0|            ....|      [16]: "1952-04-27T10:00:00Z" (-557935200) transition_time 0x6c-0x70 (4)
0x070|df 89 8e 90                                    |....            |      [17]: "1952-09-28T09:00:00Z" (-544633200) transition_time 0x70-0x74 (4)
0x070|            e0 9e 77 a0                        |    ..w.        |      [18]: "1953-04-26T10:00:00Z" (-526485600) transition_time 0x74-0x78 (4)
0x070|                        e1 69 70 90            |        .ip.    |      [19]: "1953-09-27T09:00:00Z" (-513183600) transition_time 0x78-0x7c (4)
0x070|                                    e2 7e 59 a0|            .~Y.|      [20]: "1954-04-25T10:00:00Z" (-495036000) transition_time 0x7c-0x80 (4)
0x080|e3 49 52 90                                    |.IR.            |      [21]: "1954-09-26T09:00:00Z" (-481734000) transition_time 0x80-0x84 (4)
0x080|            e4 5e 3b a0                        |    .^;.        |      [22]: "1955-04-24T10:00:00Z" (-463586400) transition_time 0x84-0x88 (4)
0x080|                        e5 29 34 90            |        .)4.    |      [23]: "1955-09-25T09:00:00Z" (-450284400) transition_time 0x88-0x8c (4)
0x080|                                    e6 47 58 20|            .GX |      [24]: "1956-04-29T10:00:00Z" (-431532000) transition_time 0x8c-0x90 (4)
0x090|e7 12 51 10                                    |..Q.            |      [25]: "1956-09-30T09:00:00Z" (-418230000) transition_time 0x90-0x94 (4)
0x090|            e8 27 3a 20                        |    .':         |      [26]: "1957-04-28T10:00:00Z" (-400082400) transition_time 0x94-0x98 (4)
0x090|                        e8 f2 33 10            |        ..3.    |      [27]: "1957-09-29T09:00:00Z" (-386780400) transition_time 0x98-0x9c (4)
0x090|                                    ea 07 1c 20|            ... |      [28]: "1958-04-27T10:00:00Z" (-368632800) transition_time 0x9c-0xa0 (4)
0x0a0|ea d2 15 10                                    |....            |      [29]: "1958-09-28T09:00:00Z" (-355330800) transition_time 0xa0-0xa4 (4)
0x0a0|            eb e6 fe 20                        |    ...         |      [30]: "1959-04-26T10:00:00Z" (-337183200) transition_time 0xa4-0xa8 (4)
0x0a0|                        ec b1 f7 10            |        ....    |      [31]: "1959-09-27T09:00:00Z" (-323881200) transition_time 0xa8-0xac (4)
0x0a0|                                    ed c6 e0 20|            ... |      [32]: "1960-04-24T10:00:00Z" (-305733600) transition_time 0xac-0xb0 (4)
0x0b0|ee 91 d9 10                                    |....            |      [33]: "1960-09-25T09:00:00Z" (-292431600) transition_time 0xb0-0xb4 (4)
0x0b0|            ef af fc a0                        |    ....        |      [34]: "1961-04-30T10:00:00Z" (-273679200) transition_time 0xb4-0xb8 (4)
0x0b0|                        f0 71 bb 10            |        .q..    |      [35]: "1961-09-24T09:00:00Z" (-260982000) transition_time 0xb8-0xbc (4)
0x0b0|                                    f1 8f de a0|            ....|      [36]: "1962-04-29T10:00:00Z" (-242229600) transition_time 0xbc-0xc0 (4)
0x0c0|f2 7f c1 90                                    |....            |      [37]: "1962-10-28T09:00:00Z" (-226508400) transition_time 0xc0-0xc4 (4)
0x0c0|            f3 6f c0 a0                        |    .o..        |      [38]: "1963-04-28T10:00:00Z" (-210780000) transition_time 0xc4-0xc8 (4)
0x0c0|                        f4 5f a3 90            |        ._..    |      [39]: "1963-10-27T09:00:00Z" (-195058800) transition_time 0xc8-0xcc (4)
0x0c0|                                    f5 4f a2 a0|            .O..|      [40]: "1964-04-26T10:00:00Z" (-179330400) transition_time 0xcc-0xd0 (4)
0x0d0|f6 3f 85 90                                    |.?..            |      [41]: "1964-10-25T09:00:00Z" (-163609200) transition_time 0xd0-0xd4 (4)
0x0d0|            f7 2f 84 a0                        |    ./..        |      [42]: "1965-04-25T10:00:00Z" (-147880800) transition_time 0xd4-0xd8 (4)
0x0d0|                        f8 28 a2 10            |        .(..    |      [43]: "1965-10-31T09:00:00Z" (-131554800) transition_time 0xd8-0xdc (4)
0x0d0|                                    f9 0f 66 a0|            ..f.|      [44]: "1966-04-24T10:00:00Z" (-116431200) transition_time 0xdc-0xe0 (4)
0x0e0|fa 08 84 10                                    |....            |      [45]: "1966-10-30T09:00:00Z" (-100105200) transition_time 0xe0-0xe4 (4)
0x0e0|            fa f8 83 20                        |    ...         |      [46]: "1967-04-30T10:00:00Z" (-84376800) transition_time 0xe4-0xe8 (4)
0x0e0|                        fb e8 66 10            |        ..f.    |      [47]: "1967-10-29T09:00:00Z" (-68655600) transition_time 0xe8-0xec (4)
0x0e0|                                    fc d8 65 20|            ..e |      [48]: "1968-04-28T10:00:00Z" (-52927200) transition_time 0xec-0xf0 (4)
0x0f0|fd c8 48 10                                    |..H.            |      [49]: "1968-10-27T09:00:00Z" (-37206000) transition_time 0xf0-0xf4 (4)
0x0f0|            fe b8 47 20                        |    ..G         |      [50]: "1969-04-27T10:00:00Z" (-21477600) transition_time 0xf4-0xf8 (4)
0x0f0|                        ff a8 2a 10            |        ..*.    |      [51]: "1969-10-26T09:00:00Z" (-5756400) transition_time 0xf8-0xfc (4)
0x0f0|                                    00 98 29 20|            ..) |      [52]: "1970-04-26T10:00:00Z" (9972000) transition_time 0xfc-0x100 (4)
0x100|01 88 0c 10                                    |....            |      [53]: "1970-10-25T09:00:00Z" (25693200) transition_time 0x100-0x104 (4)
0x100|            02 78 0b 20                        |    .x.         |      [54]: "1971-04-25T10:00:00Z" (41421600) transition_time 0x104-0x108 (4)
0x100|                        03 71 28 90            |        .q(.    |      [55]: "1971-10-31T09:00:00Z" (57747600) transition_time 0x108-0x10c (4)
0x100|                                    04 61 27 a0|            .a'.|      [56]: "1972-04-30T10:00:00Z" (73476000) transition_time 0x10c-0x110 (4)
0x110|05 01 f0 91                                    |....            |      [57]: "1972-08-30T09:00:01Z" (84013201) transition_time 0x110-0x114 (4)
0x110|            64 9b 78 1b                        |    d.x.        |      [58]: "2023-06-28T00:00:27Z" (1687910427) transition_time 0x114-0x118 (4)
     |                                               |                |    transition_types[0:59]: 0x118-0x153 (59)
0x110|                        02                     |        .       |      [0]: 2 transition_type 0x118-0x119 (1)
0x110|                           01                  |         .      |      [1]: 1 transition_type 0x119-0x11a (1)
0x110|                              02               |          .     |      [2]: 2 transition_type 0x11a-0x11b (1)
0x110|                                 03            |           .    |      [3]: 3 transition_type 0x11b-0x11c (1)
0x110|                                    04         |            .   |      [4]: 4 transition_type 0x11c-0x11d (1)
0x110|                                       02      |             .  |      [5]: 2 transition_type 0x11d-0x11e (1)
0x110|                                          01   |              . |      [6]: 1 transition_type 0x11e-0x11f (1)
0x110|                                             02|               .|      [7]: 2 transition_type 0x11f-0x120 (1)
0x120|01                                             |.               |      [8]: 1 transition_type 0x120-0x121 (1)
0x120|   02                                          | .              |      [9]: 2 transition_type 0x121-0x122 (1)
0x120|      01                                       |  .             |      [10]: 1 transition_type 0x122-0x123 (1)
0x120|         02                                    |   .            |      [11]: 2 transition_type 0x123-0x124 (1)
0x120|            01                                 |    .           |      [12]: 1 transition_type 0x124-0x125 (1)
0x120|               02                              |     .          |      [13]: 2 transition_type 0x125-0x126 (1)
0x120|                  01                           |      .         |      [14]: 1 transition_type 0x126-0x127 (1)
0x120|                     02                        |       .        |      [15]: 2 transition_type 0x127-0x128 (1)
0x120|                        01                     |        .       |      [16]: 1 transition_type 0x128-0x129 (1)
0x120|                           02                  |         .      |      [17]: 2 transition_type 0x129-0x12a (1)
0x120|                              01               |          .     |      [18]: 1 transition_type 0x12a-0x12b (1)
0x120|                                 02            |           .    |      [19]: 2 transition_type 0x12b-0x12c (1)
0x120|                                    01         |            .   |      [20]: 1 transition_type 0x12c-0x12d (1)
0x120|                                       02      |             .  |      [21]: 2 transition_type 0x12d-0x12e (1)
0x120|                                          01   |              . |      [22]: 1 transition_type 0x12e-0x12f (1)
0x120|                                             02|               .|      [23]: 2 transition_type 0x12f-0x130 (1)
0x130|01                                             |.               |      [24]: 1 transition_type 0x130-0x131 (1)
0x130|   02                                          | .              |      [25]: 2 transition_type 0x131-0x132 (1)
0x130|      01                                       |  .             |      [26]: 1 transition_type 0x132-0x133 (1)
0x130|         02                                    |   .            |      [27]: 2 transition_type 0x133-0x134 (1)
0x130|            01                                 |    .           |      [28]: 1 transition_type 0x134-0x135 (1)
0x130|               02                              |     .          |      [29]: 2 transition_type 0x135-0x136 (1)
0x130|                  01                           |      .         |      [30]: 1 transition_type 0x136-0x137 (1)
0x130|                     02                        |       .        |      [31]: 2 transition_type 0x137-0x138 (1)
0x130|                        01                     |        .       |      [32]: 1 transition_type 0x138-0x139 (1)
0x130|                           02                  |         .      |      [33]: 2 transition_type 0x139-0x13a (1)
0x130|                              01               |          .     |      [34]: 1 transition_type 0x13a-0x13b (1)
0x130|                                 02            |           .    |      [35]: 2 transition_type 0x13b-0x13c (1)
0x130|                                    01         |            .   |      [36]: 1 transition_type 0x13c-0x13d (1)
0x130|                                       02      |             .  |      [37]: 2 transition_type 0x13d-0x13e (1)
0x130|                                          01   |              . |      [38]: 1 transition_type 0x13e-0x13f (1)
0x130|                                             02|               .|      [39]: 2 transition_type 0x13f-0x140 (1)
0x140|01                                             |.               |      [40]: 1 transition_type 0x140-0x141 (1)
0x140|   02                                          | .              |      [41]: 2 transition_type 0x141-0x142 (1)
0x140|      01                                       |  .             |      [42]: 1 transition_type 0x142-0x143 (1)
0x140|         02                                    |   .            |      [43]: 2 transition_type 0x143-0x144 (1)
0x140|            01                                 |    .           |      [44]: 1 transition_type 0x144-0x145 (1)
0x140|               02                              |     .          |      [45]: 2 transition_type 0x145-0x146 (1)
0x140|                  01                           |      .         |      [46]: 1 transition_type 0x146-0x147 (1)
0x140|                     02                        |       .        |      [47]: 2 transition_type 0x147-0x148 (1)
0x140|                        01                     |        .       |      [48]: 1 transition_type 0x148-0x149 (1)
0x140|                           02                  |         .      |      [49]: 2 transition_type 0x149-0x14a (1)
0x140|                              01               |          .     |      [50]: 1 transition_type 0x14a-0x14b (1)
0x140|                                 02            |           .    |      [51]: 2 transition_type 0x14b-0x14c (1)
0x140|                                    01         |            .   |      [52]: 1 transition_type 0x14c-0x14d (1)
0x140|                                       02      |             .  |      [53]: 2 transition_type 0x14d-0x14e (1)
0x140|                                          01   |              . |      [54]: 1 transition_type 0x14e-0x14f (1)
0x140|                                             02|               .|      [55]: 2 transition_type 0x14f-0x150 (1)
0x150|01                                             |.               |      [56]: 1 transition_type 0x150-0x151 (1)
0x150|   05                                          | .              |      [57]: 5 transition_type 0x151-0x152 (1)
0x150|      05                                       |  .             |      [58]: 5 transition_type 0x152-0x153 (1)
     |                                               |                |    local_time_type_records[0:6]: 0x153-0x177 (36)
     |                                               |                |      [0]{}: local_time_type 0x153-0x159 (6)
0x150|         ff ff 8f 48                           |   ...H         |        utoff: -28856 (valid) 0x153-0x157 (4)
0x150|                     00                        |       .        |        dst: 0 (valid) 0x157-0x158 (1)
0x150|                        00                     |        .       |        idx: 0 (valid) 0x158-0x159 (1)
     |                                               |                |      [1]{}: local_time_type 0x159-0x15f (6)
0x150|                           ff ff 9d 90         |         ....   |        utoff: -25200 (valid) 0x159-0x15d (4)
0x150|                                       01      |             .  |        dst: 1 (valid) 0x15d-0x15e (1)
0x150|                                          04   |              . |        idx: 4 (valid) 0x15e-0x15f (1)
     |                                               |                |      [2]{}: local_time_type 0x15f-0x165 (6)
0x150|                                             ff|               .|        utoff: -28800 (valid) 0x15f-0x163 (4)
0x160|ff 8f 80                                       |...             |
0x160|         00                                    |   .            |        dst: 0 (valid) 0x163-0x164 (1)
0x160|            08                                 |    .           |        idx: 8 (valid) 0x164-0x165 (1)
     |                                               |                |      [3]{}: local_time_type 0x165-0x16b (6)
0x160|               ff ff 9d 90                     |     ....       |        utoff: -25200 (valid) 0x165-0x169 (4)
0x160|                           01                  |         .      |        dst: 1 (valid) 0x169-0x16a (1)
0x160|                              0c               |          .     |        idx: 12 (valid) 0x16a-0x16b (1)
     |                                               |                |      [4]{}: local_time_type 0x16b-0x171 (6)
0x160|                                 ff ff 9d 90   |           .... |        utoff: -25200 (valid) 0x16b-0x16f (4)
0x160|                                             01|               .|        dst: 1 (valid) 0x16f-0x170 (1)
0x170|10                                             |.               |        idx: 16 (valid) 0x170-0x171 (1)
     |                                               |                |      [5]{}: local_time_type 0x171-0x177 (6)
0x170|   ff ff 9d 90                                 | ....           |        utoff: -25200 (valid) 0x171-0x175 (4)
0x170|               00                              |     .          |        dst: 0 (valid) 0x175-0x176 (1)
0x170|                  14                           |      .         |        idx: 20 (valid) 0x176-0x177 (1)
     |                                               |                |    time_zone_designations[0:6]: 0x177-0x18f (24)
0x170|                     4c 4d 54 00               |       LMT.     |      [0]: "LMT" time_zone_designation 0x177-0x17b (4)
0x170|                                 50 44 54 00   |           PDT. |      [1]: "PDT" time_zone_designation 0x17b-0x17f (4)
0x170|                                             50|               P|      [2]: "PST" time_zone_designation 0x17f-0x183 (4)
0x180|53 54 00                                       |ST.             |
0x180|         50 57 54 00                           |   PWT.         |      [3]: "PWT" time_zone_designation 0x183-0x187 (4)
0x180|                     50 50 54 00               |       PPT.     |      [4]: "PPT" time_zone_designation 0x187-0x18b (4)
0x180|                                 4d 53 54 00   |           MST. |      [5]: "MST" time_zone_designation 0x18b-0x18f (4)
     |                                               |                |    leap_second_records[0:27]: 0x18f-0x267 (216)
     |                                               |                |      [0]{}: leap_second_record 0x18f-0x197 (8)
0x180|                                             04|               .|        occur: "1972-07-01T00:00:00Z" (78796800) 0x18f-0x193 (4)
0x190|b2 58 00                                       |.X.             |
0x190|         00 00 00 01                           |   ....         |        corr: 1 0x193-0x197 (4)
     |                                               |                |      [1]{}: leap_second_record 0x197-0x19f (8)
0x190|                     05 a4 ec 01               |       ....     |        occur: "1973-01-01T00:00:01Z" (94694401) 0x197-0x19b (4)
0x190|                                 00 00 00 02   |           .... |        corr: 2 0x19b-0x19f (4)
     |                                               |                |      [2]{}: leap_second_record 0x19f-0x1a7 (8)
0x190|                                             07|               .|        occur: "1974-01-01T00:00:02Z" (126230402) 0x19f-0x1a3 (4)
0x1a0|86 1f 82                                       |...             |
0x1a0|         00 00 00 03                           |   ....         |        corr: 3 0x1a3-0x1a7 (4)
     |                                               |                |      [3]{}: leap_second_record 0x1a7-0x1af (8)
0x1a0|                     09 67 53 03               |       .gS.     |        occur: "1975-01-01T00:00:03Z" (157766403) 0x1a7-0x1ab (4)
0x1a0|                                 00 00 00 04   |           .... |        corr: 4 0x1ab-0x1af (4)
     |                                               |                |      [4]{}: leap_second_record 0x1af-0x1b7 (8)
0x1a0|                                             0b|               .|        occur: "1976-01-01T00:00:04Z" (189302404) 0x1af-0x1b3 (4)
0x1b0|48 86 84                                       |H..             |
0x1b0|         00 00 00 05                           |   ....         |        corr: 5 0x1b3-0x1b7 (4)
     |                                               |                |      [5]{}: leap_second_record 0x1b7-0x1bf (8)
0x1b0|                     0d 2b 0b 85               |       .+..     |        occur: "1977-01-01T00:00:05Z" (220924805) 0x1b7-0x1bb (4)
0x1b0|                                 00 00 00 06   |           .... |        corr: 6 0x1bb-0x1bf (4)
     |                                               |                |      [6]{}: leap_second_record 0x1bf-0x1c7 (8)
0x1b0|                                             0f|               .|        occur: "1978-01-01T00:00:06Z" (252460806) 0x1bf-0x1c3 (4)
0x1c0|0c 3f 06                                       |.?.             |
0x1c0|         00 00 00 07                           |   ....         |        corr: 7 0x1c3-0x1c7 (4)
     |                                               |                |      [7]{}: leap_second_record 0x1c7-0x1cf (8)
0x1c0|                     10 ed 72 87               |       ..r.     |        occur: "1979-01-01T00:00:07Z" (283996807) 0x1c7-0x1cb (4)
0x1c0|                                 00 00 00 08   |           .... |        corr: 8 0x1cb-0x1cf (4)
     |                                               |                |      [8]{}: leap_second_record 0x1cf-0x1d7 (8)
0x1c0|                                             12|               .|        occur: "1980-01-01T00:00:08Z" (315532808) 0x1cf-0x1d3 (4)
0x1d0|ce a6 08                                       |...             |
0x1d0|         00 00 00 09                           |   ....         |        corr: 9 0x1d3-0x1d7 (4)
     |                                               |                |      [9]{}: leap_second_record 0x1d7-0x1df (8)
0x1d0|                     15 9f ca 89               |       ....     |        occur: "1981-07-01T00:00:09Z" (362793609) 0x1d7-0x1db (4)
0x1d0|                                 00 00 00 0a   |           .... |        corr: 10 0x1db-0x1df (4)
     |                                               |                |      [10]{}: leap_second_record 0x1df-0x1e7 (8)
0x1d0|                                             17|               .|        occur: "1982-07-01T00:00:10Z" (394329610) 0x1df-0x1e3 (4)
0x1e0|80 fe 0a                                       |...             |
0x1e0|         00 00 00 0b                           |   ....         |        corr: 11 0x1e3-0x1e7 (4)
     |                                               |                |      [11]{}: leap_second_record 0x1e7-0x1ef (8)
0x1e0|                     19 62 31 8b               |       .b1.     |        occur: "1983-07-01T00:00:11Z" (425865611) 0x1e7-0x1eb (4)
0x1e0|                                 00 00 00 0c   |           .... |        corr: 12 0x1eb-0x1ef (4)
     |                                               |                |      [12]{}: leap_second_record 0x1ef-0x1f7 (8)
0x1e0|                                             1d|               .|        occur: "1985-07-01T00:00:12Z" (489024012) 0x1ef-0x1f3 (4)
0x1f0|25 ea 0c                                       |%..             |
0x1f0|         00 00 00 0d                           |   ....         |        corr: 13 0x1f3-0x1f7 (4)
     |                                               |                |      [13]{}: leap_second_record 0x1f7-0x1ff (8)
0x1f0|                     21 da e5 0d               |       !...     |        occur: "1988-01-01T00:00:13Z" (567993613) 0x1f7-0x1fb (4)
0x1f0|                                 00 00 00 0e   |           .... |        corr: 14 0x1fb-0x1ff (4)
     |                                               |                |      [14]{}: leap_second_record 0x1ff-0x207 (8)
0x1f0|                                             25|               %|        occur: "1990-01-01T00:00:14Z" (631152014) 0x1ff-0x203 (4)
0x200|9e 9d 8e                                       |...             |
0x200|         00 00 00 0f                           |   ....         |        corr: 15 0x203-0x207 (4)
     |                                               |                |      [15]{}: leap_second_record 0x207-0x20f (8)
0x200|                     27 7f d1 0f               |       '...     |        occur: "1991-01-01T00:00:15Z" (662688015) 0x207-0x20b (4)
0x200|                                 00 00 00 10   |           .... |        corr: 16 0x20b-0x20f (4)
     |                                               |                |      [16]{}: leap_second_record 0x20f-0x217 (8)
0x200|                                             2a|               *|        occur: "1992-07-01T00:00:16Z" (709948816) 0x20f-0x213 (4)
0x210|50 f5 90                                       |P..             |
0x210|         00 00 00 11                           |   ....         |        corr: 17 0x213-0x217 (4)
     |                                               |                |      [17]{}: leap_second_record 0x217-0x21f (8)
0x210|                     2c 32 29 11               |       ,2).     |        occur: "1993-07-01T00:00:17Z" (741484817) 0x217-0x21b (4)
0x210|                                 00 00 00 12   |           .... |        corr: 18 0x21b-0x21f (4)
     |                                               |                |      [18]{}: leap_second_record 0x21f-0x227 (8)
0x210|                                             2e|               .|        occur: "1994-07-01T00:00:18Z" (773020818) 0x21f-0x223 (4)
0x220|13 5c 92                                       |.\.             |
0x220|         00 00 00 13                           |   ....         |        corr: 19 0x223-0x227 (4)
     |                                               |                |      [19]{}: leap_second_record 0x227-0x22f (8)
0x220|                     30 e7 24 13               |       0.$.     |        occur: "1996-01-01T00:00:19Z" (820454419) 0x227-0x22b (4)
0x220|                                 00 00 00 14   |           .... |        corr: 20 0x22b-0x22f (4)
     |                                               |                |      [20]{}: leap_second_record 0x22f-0x237 (8)
0x220|                                             33|               3|        occur: "1997-07-01T00:00:20Z" (867715220) 0x22f-0x233 (4)
0x230|b8 48 94                                       |.H.             |
0x230|         00 00 00 15                           |   ....         |        corr: 21 0x233-0x237 (4)
     |                                               |                |      [21]{}: leap_second_record 0x237-0x23f (8)
0x230|                     36 8c 10 15               |       6...     |        occur: "1999-01-01T00:00:21Z" (915148821) 0x237-0x23b (4)
0x230|                                 00 00 00 16   |           .... |        corr: 22 0x23b-0x23f (4)
     |                                               |                |      [22]{}: leap_second_record 0x23f-0x247 (8)
0x230|                                             43|               C|        occur: "2006-01-01T00:00:22Z" (1136073622) 0x23f-0x243 (4)
0x240|b7 1b 96                                       |...             |
0x240|         00 00 00 17                           |   ....         |        corr: 23 0x243-0x247 (4)
     |                                               |                |      [23]{}: leap_second_record 0x247-0x24f (8)
0x240|                     49 5c 07 97               |       I\..     |        occur: "2009-01-01T00:00:23Z" (1230768023) 0x247-0x24b (4)
0x240|                                 00 00 00 18   |           .... |        corr: 24 0x24b-0x24f (4)
     |                                               |                |      [24]{}: leap_second_record 0x24f-0x257 (8)
0x240|                                             4f|               O|        occur: "2012-07-01T00:00:24Z" (1341100824) 0x24f-0x253 (4)
0x250|ef 93 18                                       |...             |
0x250|         00 00 00 19                           |   ....         |        corr: 25 0x253-0x257 (4)
     |                                               |                |      [25]{}: leap_second_record 0x257-0x25f (8)
0x250|                     55 93 2d 99               |       U.-.     |        occur: "2015-07-01T00:00:25Z" (1435708825) 0x257-0x25b (4)
0x250|                                 00 00 00 1a   |           .... |        corr: 26 0x25b-0x25f (4)
     |                                               |                |      [26]{}: leap_second_record 0x25f-0x267 (8)
0x250|                                             58|               X|        occur: "2017-01-01T00:00:26Z" (1483228826) 0x25f-0x263 (4)
0x260|68 46 9a                                       |hF.             |
0x260|         00 00 00 1b                           |   ....         |        corr: 27 0x263-0x267 (4)
     |                                               |                |    standard_wall_indicators[0:6]: 0x267-0x26d (6)
0x260|                     00                        |       .        |      [0]: 0 standard_wall_indicator (valid) 0x267-0x268 (1)
0x260|                        00                     |        .       |      [1]: 0 standard_wall_indicator (valid) 0x268-0x269 (1)
0x260|                           00                  |         .      |      [2]: 0 standard_wall_indicator (valid) 0x269-0x26a (1)
0x260|                              00               |          .     |      [3]: 0 standard_wall_indicator (valid) 0x26a-0x26b (1)
0x260|                                 01            |           .    |      [4]: 1 standard_wall_indicator (valid) 0x26b-0x26c (1)
0x260|                                    00         |            .   |      [5]: 0 standard_wall_indicator (valid) 0x26c-0x26d (1)
     |                                               |                |    ut_local_indicators[0:6]: 0x26d-0x273 (6)
0x260|                                       00      |             .  |      [0]: 0 ut_local_indicator (valid) 0x26d-0x26e (1)
0x260|                                          00   |              . |      [1]: 0 ut_local_indicator (valid) 0x26e-0x26f (1)
0x260|                                             00|               .|      [2]: 0 ut_local_indicator (valid) 0x26f-0x270 (1)
0x270|00                                             |.               |      [3]: 0 ut_local_indicator (valid) 0x270-0x271 (1)
0x270|   01                                          | .              |      [4]: 1 ut_local_indicator (valid) 0x271-0x272 (1)
0x270|      00                                       |  .             |      [5]: 0 ut_local_indicator (valid) 0x272-0x273 (1)
     |                                               |                |  v2plusheader{}: 0x273-0x29f (44)
0x270|         54 5a 69 66                           |   TZif         |    magic: 0x545a6966 (valid) 0x273-0x277 (4)
0x270|                     32                        |       2        |    ver: "2" (0x32) (valid) 0x277-0x278 (1)
0x270|                        00 00 00 00 00 00 00 00|        ........|    reserved: raw bits 0x278-0x287 (15)
0x280|00 00 00 00 00 00 00                           |.......         |
0x280|                     00 00 00 06               |       ....     |    isutcnt: 6 0x287-0x28b (4)
0x280|                                 00 00 00 06   |           .... |    isstdcnt: 6 0x28b-0x28f (4)
0x280|                                             00|               .|    leapcnt: 27 0x28f-0x293 (4)
0x290|00 00 1b                                       |...             |
0x290|         00 00 00 3b                           |   ...;         |    timecnt: 59 0x293-0x297 (4)
0x290|                     00 00 00 06               |       ....     |    typecnt: 6 0x297-0x29b (4)
0x290|                                 00 00 00 18   |           .... |    charcnt: 24 0x29b-0x29f (4)
     |                                               |                |  v2plusdatablock{}: 0x29f-0x63e (927)
     |                                               |                |    transition_times[0:59]: 0x29f-0x477 (472)
0x290|                                             ff|               .|      [0]: "1884-01-01T08:00:56Z" (-2713881544) transition_time 0x29f-0x2a7 (8)
0x2a0|ff ff ff 5e 3d 74 38                           |...^=t8         |
0x2a0|                     ff ff ff ff 9e b8 bd a0   |       ........ |      [1]: "1918-04-14T10:00:00Z" (-1632060000) transition_time 0x2a7-0x2af (8)
0x2a0|                                             ff|               .|      [2]: "1918-10-27T09:00:00Z" (-1615129200) transition_time 0x2af-0x2b7 (8)
0x2b0|ff ff ff 9f bb 15 90                           |.......         |
0x2b0|                     ff ff ff ff cb 89 1a a0   |       ........ |      [3]: "1942-02-09T10:00:00Z" (-880207200) transition_time 0x2b7-0x2bf (8)
0x2b0|                                             ff|               .|      [4]: "1945-08-14T23:00:00Z" (-769395600) transition_time 0x2bf-0x2c7 (8)
0x2c0|ff ff ff d2 23 f4 70                           |....#.p         |
0x2c0|                     ff ff ff ff d2 61 26 10   |       .....a&. |      [5]: "1945-09-30T09:00:00Z" (-765385200) transition_time 0x2c7-0x2cf (8)
0x2c0|                                             ff|               .|      [6]: "1947-04-27T10:00:00Z" (-715788000) transition_time 0x2cf-0x2d7 (8)
0x2d0|ff ff ff d5 55 f1 20                           |....U.          |
0x2d0|                     ff ff ff ff d6 20 ea 10   |       ..... .. |      [7]: "1947-09-28T09:00:00Z" (-702486000) transition_time 0x2d7-0x2df (8)
0x2d0|                                             ff|               .|      [8]: "1948-04-25T10:00:00Z" (-684338400) transition_time 0x2df-0x2e7 (8)
0x2e0|ff ff ff d7 35 d3 20                           |....5.          |
0x2e0|                     ff ff ff ff d8 00 cc 10   |       ........ |      [9]: "1948-09-26T09:00:00Z" (-671036400) transition_time 0x2e7-0x2ef (8)
0x2e0|                                             ff|               .|      [10]: "1949-04-24T10:00:00Z" (-652888800) transition_time 0x2ef-0x2f7 (8)
0x2f0|ff ff ff d9 15 b5 20                           |......          |
0x2f0|                     ff ff ff ff d9 e0 ae 10   |       ........ |      [11]: "1949-09-25T09:00:00Z" (-639586800) transition_time 0x2f7-0x2ff (8)
0x2f0|                                             ff|               .|      [12]: "1950-04-30T10:00:00Z" (-620834400) transition_time 0x2ff-0x307 (8)
0x300|ff ff ff da fe d1 a0                           |.......         |
0x300|                     ff ff ff ff db c0 90 10   |       ........ |      [13]: "1950-09-24T09:00:00Z" (-608137200) transition_time 0x307-0x30f (8)
0x300|                                             ff|               .|      [14]: "1951-04-29T10:00:00Z" (-589384800) transition_time 0x30f-0x317 (8)
0x310|ff ff ff dc de b3 a0                           |.......         |
0x310|                     ff ff ff ff dd a9 ac 90   |       ........ |      [15]: "1951-09-30T09:00:00Z" (-576082800) transition_time 0x317-0x31f (8)
0x310|                                             ff|               .|      [16]: "1952-04-27T10:00:00Z" (-557935200) transition_time 0x31f-0x327 (8)
0x320|ff ff ff de be 95 a0                           |.......         |
0x320|                     ff ff ff ff df 89 8e 90   |       ........ |      [17]: "1952-09-28T09:00:00Z" (-544633200) transition_time 0x327-0x32f (8)
0x320|                                             ff|               .|      [18]: "1953-04-26T10:00:00Z" (-526485600) transition_time 0x32f-0x337 (8)
0x330|ff ff ff e0 9e 77 a0                           |.....w.         |
0x330|                     ff ff ff ff e1 69 70 90   |       .....ip. |      [19]: "1953-09-27T09:00:00Z" (-513183600) transition_time 0x337-0x33f (8)
0x330|                                             ff|               .|      [20]: "1954-04-25T10:00:00Z" (-495036000) transition_time 0x33f-0x347 (8)
0x340|ff ff ff e2 7e 59 a0                           |....~Y.         |
0x340|                     ff ff ff ff e3 49 52 90   |       .....IR. |      [21]: "1954-09-26T09:00:00Z" (-481734000) transition_time 0x347-0x34f (8)
0x340|                                             ff|               .|      [22]: "1955-04-24T10:00:00Z" (-463586400) transition_time 0x34f-0x357 (8)
0x350|ff ff ff e4 5e 3b a0                           |....^;.         |
0x350|                     ff ff ff ff e5 29 34 90   |       .....)4. |      [23]: "1955-09-25T09:00:00Z" (-450284400) transition_time 0x357-0x35f (8)
0x350|                                             ff|               .|      [24]: "1956-04-29T10:00:00Z" (-431532000) transition_time 0x35f-0x367 (8)
0x360|ff ff ff e6 47 58 20                           |....GX          |
0x360|                     ff ff ff ff e7 12 51 10   |       ......Q. |      [25]: "1956-09-30T09:00:00Z" (-418230000) transition_time 0x367-0x36f (8)
0x360|                                             ff|               .|      [26]: "1957-04-28T10:00:00Z" (-400082400) transition_time 0x36f-0x377 (8)
0x370|ff ff ff e8 27 3a 20                           |....':          |
0x370|                     ff ff ff ff e8 f2 33 10   |       ......3. |      [27]: "1957-09-29T09:00:00Z" (-386780400) transition_time 0x377-0x37f (8)
0x370|                                             ff|               .|      [28]: "1958-04-27T10:00:00Z" (-368632800) transition_time 0x37f-0x387 (8)
0x380|ff ff ff ea 07 1c 20                           |......          |
0x380|                     ff ff ff ff ea d2 15 10   |       ........ |      [29]: "1958-09-28T09:00:00Z" (-355330800) transition_time 0x387-0x38f (8)
0x380|                                             ff|               .|      [30]: "1959-04-26T10:00:00Z" (-337183200) transition_time 0x38f-0x397 (8)
0x390|ff ff ff eb e6 fe 20                           |......          |
0x390|                     ff ff ff ff ec b1 f7 10   |       ........ |      [31]: "1959-09-27T09:00:00Z" (-323881200) transition_time 0x397-0x39f (8)
0x390|                                             ff|               .|      [32]: "1960-04-24T10:00:00Z" (-305733600) transition_time 0x39f-0x3a7 (8)
0x3a0|ff ff ff ed c6 e0 20                           |......          |
0x3a0|                     ff ff ff ff ee 91 d9 10   |       ........ |      [33]: "1960-09-25T09:00:00Z" (-292431600) transition_time 0x3a7-0x3af (8)
0x3a0|                                             ff|               .|      [34]: "1961-04-30T10:00:00Z" (-273679200) transition_time 0x3af-0x3b7 (8)
0x3b0|ff ff ff ef af fc a0                           |.......         |
0x3b0|                     ff ff ff ff f0 71 bb 10   |       .....q.. |      [35]: "1961-09-24T09:00:00Z" (-260982000) transition_time 0x3b7-0x3bf (8)
0x3b0|                                             ff|               .|      [36]: "1962-04-29T10:00:00Z" (-242229600) transition_time 0x3bf-0x3c7 (8)
0x3c0|ff ff ff f1 8f de a0                           |.......         |
0x3c0|                     ff ff ff ff f2 7f c1 90   |       ........ |      [37]: "1962-10-28T09:00:00Z" (-226508400) transition_time 0x3c7-0x3cf (8)
0x3c0|                                             ff|               .|      [38]: "1963-04-28T10:00:00Z" (-210780000) transition_time 0x3cf-0x3d7 (8)
0x3d0|ff ff ff f3 6f c0 a0                           |....o..         |
0x3d0|                     ff ff ff ff f4 5f a3 90   |       ....._.. |      [39]: "1963-10-27T09:00:00Z" (-195058800) transition_time 0x3d7-0x3df (8)
0x3d0|                                             ff|               .|      [40]: "1964-04-26T10:00:00Z" (-179330400) transition_time 0x3df-0x3e7 (8)
0x3e0|ff ff ff f5 4f a2 a0                           |....O..         |
0x3e0|                     ff ff ff ff f6 3f 85 90   |       .....?.. |      [41]: "1964-10-25T09:00:00Z" (-163609200) transition_time 0x3e7-0x3ef (8)
0x3e0|                                             ff|               .|      [42]: "1965-04-25T10:00:00Z" (-147880800) transition_time 0x3ef-0x3f7 (8)
0x3f0|ff ff ff f7 2f 84 a0                           |..../..         |
0x3f0|                     ff ff ff ff f8 28 a2 10   |       .....(.. |      [43]: "1965-10-31T09:00:00Z" (-131554800) transition_time 0x3f7-0x3ff (8)
0x3f0|                                             ff|               .|      [44]: "1966-04-24T10:00:00Z" (-116431200) transition_time 0x3ff-0x407 (8)
0x400|ff ff ff f9 0f 66 a0                           |.....f.         |
0x400|                     ff ff ff ff fa 08 84 10   |       ........ |      [45]: "1966-10-30T09:00:00Z" (-100105200) transition_time 0x407-0x40f (8)
0x400|                                             ff|               .|      [46]: "1967-04-30T10:00:00Z" (-84376800) transition_time 0x40f-0x417 (8)
0x410|ff ff ff fa f8 83 20                           |......          |
0x410|                     ff ff ff ff fb e8 66 10   |       ......f. |      [47]: "1967-10-29T09:00:00Z" (-68655600) transition_time 0x417-0x41f (8)
0x410|                                             ff|               .|      [48]: "1968-04-28T10:00:00Z" (-52927200) transition_time 0x41f-0x427 (8)
0x420|ff ff ff fc d8 65 20                           |.....e          |
0x420|                     ff ff ff ff fd c8 48 10   |       ......H. |      [49]: "1968-10-27T09:00:00Z" (-37206000) transition_time 0x427-0x42f (8)
0x420|                                             ff|               .|      [50]: "1969-04-27T10:00:00Z" (-21477600) transition_time 0x42f-0x437 (8)
0x430|ff ff ff fe b8 47 20                           |.....G          |
0x430|                     ff ff ff ff ff a8 2a 10   |       ......*. |      [51]: "1969-10-26T09:00:00Z" (-5756400) transition_time 0x437-0x43f (8)
0x430|                                             00|               .|      [52]: "1970-04-26T10:00:00Z" (9972000) transition_time 0x43f-0x447 (8)
0x440|00 00 00 00 98 29 20                           |.....)          |
0x440|                     00 00 00 00 01 88 0c 10   |       ........ |      [53]: "1970-10-25T09:00:00Z" (25693200) transition_time 0x447-0x44f (8)
0x440|                                             00|               .|      [54]: "1971-04-25T10:00:00Z" (41421600) transition_time 0x44f-0x457 (8)
0x450|00 00 00 02 78 0b 20                           |....x.          |
0x450|                     00 00 00 00 03 71 28 90   |       .....q(. |      [55]: "1971-10-31T09:00:00Z" (57747600) transition_time 0x457-0x45f (8)
0x450|                                             00|               .|      [56]: "1972-04-30T10:00:00Z" (73476000) transition_time 0x45f-0x467 (8)
0x460|00 00 00 04 61 27 a0                           |....a'.         |
0x460|                     00 00 00 00 05 01 f0 91   |       ........ |      [57]: "1972-08-30T09:00:01Z" (84013201) transition_time 0x467-0x46f (8)
0x460|                                             00|               .|      [58]: "2023-06-28T00:00:27Z" (1687910427) transition_time 0x46f-0x477 (8)
0x470|00 00 00 64 9b 78 1b                           |...d.x.         |
     |                                               |                |    transition_types[0:59]: 0x477-0x4b2 (59)
0x470|                     02                        |       .        |      [0]: 2 transition_type 0x477-0x478 (1)
0x470|                        01                     |        .       |      [1]: 1 transition_type 0x478-0x479 (1)
0x470|                           02                  |         .      |      [2]: 2 transition_type 0x479-0x47a (1)
0x470|                              03               |          .     |      [3]: 3 transition_type 0x47a-0x47b (1)
0x470|                                 04            |           .    |      [4]: 4 transition_type 0x47b-0x47c (1)
0x470|                                    02         |            .   |      [5]: 2 transition_type 0x47c-0x47d (1)
0x470|                                       01      |             .  |      [6]: 1 transition_type 0x47d-0x47e (1)
0x470|                                          02   |              . |      [7]: 2 transition_type 0x47e-0x47f (1)
0x470|                                             01|               .|      [8]: 1 transition_type 0x47f-0x480 (1)
0x480|02                                             |.               |      [9]: 2 transition_type 0x480-0x481 (1)
0x480|   01                                          | .              |      [10]: 1 transition_type 0x481-0x482 (1)
0x480|      02                                       |  .             |      [11]: 2 transition_type 0x482-0x483 (1)
0x480|         01                                    |   .            |      [12]: 1 transition_type 0x483-0x484 (1)
0x480|            02                                 |    .           |      [13]: 2 transition_type 0x484-0x485 (1)
0x480|               01                              |     .          |      [14]: 1 transition_type 0x485-0x486 (1)
0x480|                  02                           |      .         |      [15]: 2 transition_type 0x486-0x487 (1)
0x480|                     01                        |       .        |      [16]: 1 transition_type 0x487-0x488 (1)
0x480|                        02                     |        .       |      [17]: 2 transition_type 0x488-0x489 (1)
0x480|                           01                  |         .      |      [18]: 1 transition_type 0x489-0x48a (1)
0x480|                              02               |          .     |      [19]: 2 transition_type 0x48a-0x48b (1)
0x480|                                 01            |           .    |      [20]: 1 transition_type 0x48b-0x48c (1)
0x480|                                    02         |            .   |      [21]: 2 transition_type 0x48c-0x48d (1)
0x480|                                       01      |             .  |      [22]: 1 transition_type 0x48d-0x48e (1)
0x480|                                          02   |              . |      [23]: 2 transition_type 0x48e-0x48f (1)
0x480|                                             01|               .|      [24]: 1 transition_type 0x48f-0x490 (1)
0x490|02                                             |.               |      [25]: 2 transition_type 0x490-0x491 (1)
0x490|   01                                          | .              |      [26]: 1 transition_type 0x491-0x492 (1)
0x490|      02                                       |  .             |      [27]: 2 transition_type 0x492-0x493 (1)
0x490|         01                                    |   .            |      [28]: 1 transition_type 0x493-0x494 (1)
0x490|            02                                 |    .           |      [29]: 2 transition_type 0x494-0x495 (1)
0x490|               01                              |     .          |      [30]: 1 transition_type 0x495-0x496 (1)
0x490|                  02                           |      .         |      [31]: 2 transition_type 0x496-0x497 (1)
0x490|                     01                        |       .        |      [32]: 1 transition_type 0x497-0x498 (1)
0x490|                        02                     |        .       |      [33]: 2 transition_type 0x498-0x499 (1)
0x490|                           01                  |         .      |      [34]: 1 transition_type 0x499-0x49a (1)
0x490|                              02               |          .     |      [35]: 2 transition_type 0x49a-0x49b (1)
0x490|                                 01            |           .    |      [36]: 1 transition_type 0x49b-0x49c (1)
0x490|                                    02         |            .   |      [37]: 2 transition_type 0x49c-0x49d (1)
0x490|                                       01      |             .  |      [38]: 1 transition_type 0x49d-0x49e (1)
0x490|                                          02   |              . |      [39]: 2 transition_type 0x49e-0x49f (1)
0x490|                                             01|               .|      [40]: 1 transition_type 0x49f-0x4a0 (1)
0x4a0|02                                             |.               |      [41]: 2 transition_type 0x4a0-0x4a1 (1)
0x4a0|   01                                          | .              |      [42]: 1 transition_type 0x4a1-0x4a2 (1)
0x4a0|      02                                       |  .             |      [43]: 2 transition_type 0x4a2-0x4a3 (1)
0x4a0|         01                                    |   .            |      [44]: 1 transition_type 0x4a3-0x4a4 (1)
0x4a0|            02                                 |    .           |      [45]: 2 transition_type 0x4a4-0x4a5 (1)
0x4a0|               01                              |     .          |      [46]: 1 transition_type 0x4a5-0x4a6 (1)
0x4a0|                  02                           |      .         |      [47]: 2 transition_type 0x4a6-0x4a7 (1)
0x4a0|                     01                        |       .        |      [48]: 1 transition_type 0x4a7-0x4a8 (1)
0x4a0|                        02                     |        .       |      [49]: 2 transition_type 0x4a8-0x4a9 (1)
0x4a0|                           01                  |         .      |      [50]: 1 transition_type 0x4a9-0x4aa (1)
0x4a0|                              02               |          .     |      [51]: 2 transition_type 0x4aa-0x4ab (1)
0x4a0|                                 01            |           .    |      [52]: 1 transition_type 0x4ab-0x4ac (1)
0x4a0|                                    02         |            .   |      [53]: 2 transition_type 0x4ac-0x4ad (1)
0x4a0|                                       01      |             .  |      [54]: 1 transition_type 0x4ad-0x4ae (1)
0x4a0|                                          02   |              . |      [55]: 2 transition_type 0x4ae-0x4af (1)
0x4a0|                                             01|               .|      [56]: 1 transition_type 0x4af-0x4b0 (1)
0x4b0|05                                             |.               |      [57]: 5 transition_type 0x4b0-0x4b1 (1)
0x4b0|   05                                          | .              |      [58]: 5 transition_type 0x4b1-0x4b2 (1)
     |                                               |                |    local_time_type_records[0:6]: 0x4b2-0x4d6 (36)
     |                                               |                |      [0]{}: local_time_type 0x4b2-0x4b8 (6)
0x4b0|      ff ff 8f 48                              |  ...H          |        utoff: -28856 (valid) 0x4b2-0x4b6 (4)
0x4b0|                  00                           |      .         |        dst: 0 (valid) 0x4b6-0x4b7 (1)
0x4b0|                     00                        |       .        |        idx: 0 (valid) 0x4b7-0x4b8 (1)
     |                                               |                |      [1]{}: local_time_type 0x4b8-0x4be (6)
0x4b0|                        ff ff 9d 90            |        ....    |        utoff: -25200 (valid) 0x4b8-0x4bc (4)
0x4b0|                                    01         |            .   |        dst: 1 (valid) 0x4bc-0x4bd (1)
0x4b0|                                       04      |             .  |        idx: 4 (valid) 0x4bd-0x4be (1)
     |                                               |                |      [2]{}: local_time_type 0x4be-0x4c4 (6)
0x4b0|                                          ff ff|              ..|        utoff: -28800 (valid) 0x4be-0x4c2 (4)
0x4c0|8f 80                                          |..              |
0x4c0|      00                                       |  .             |        dst: 0 (valid) 0x4c2-0x4c3 (1)
0x4c0|         08                                    |   .            |        idx: 8 (valid) 0x4c3-0x4c4 (1)
     |                                               |                |      [3]{}: local_time_type 0x4c4-0x4ca (6)
0x4c0|            ff ff 9d 90                        |    ....        |        utoff: -25200 (valid) 0x4c4-0x4c8 (4)
0x4c0|                        01                     |        .       |        dst: 1 (valid) 0x4c8-0x4c9 (1)
0x4c0|                           0c                  |         .      |        idx: 12 (valid) 0x4c9-0x4ca (1)
     |                                               |                |      [4]{}: local_time_type 0x4ca-0x4d0 (6)
0x4c0|                              ff ff 9d 90      |          ....  |        utoff: -25200 (valid) 0x4ca-0x4ce (4)
0x4c0|                                          01   |              . |        dst: 1 (valid) 0x4ce-0x4cf (1)
0x4c0|                                             10|               .|        idx: 16 (valid) 0x4cf-0x4d0 (1)
     |                                               |                |      [5]{}: local_time_type 0x4d0-0x4d6 (6)
0x4d0|ff ff 9d 90                                    |....            |        utoff: -25200 (valid) 0x4d0-0x4d4 (4)
0x4d0|            00                                 |    .           |        dst: 0 (valid) 0x4d4-0x4d5 (1)
0x4d0|               14                              |     .          |        idx: 20 (valid) 0x4d5-0x4d6 (1)
     |                                               |                |    time_zone_designations[0:6]: 0x4d6-0x4ee (24)
0x4d0|                  4c 4d 54 00                  |      LMT.      |      [0]: "LMT" time_zone_designation 0x4d6-0x4da (4)
0x4d0|                              50 44 54 00      |          PDT.  |      [1]: "PDT" time_zone_designation 0x4da-0x4de (4)
0x4d0|                                          50 53|              PS|      [2]: "PST" time_zone_designation 0x4de-0x4e2 (4)
0x4e0|54 00                                          |T.              |
0x4e0|      50 57 54 00                              |  PWT.          |      [3]: "PWT" time_zone_designation 0x4e2-0x4e6 (4)
0x4e0|                  50 50 54 00                  |      PPT.      |      [4]: "PPT" time_zone_designation 0x4e6-0x4ea (4)
0x4e0|                              4d 53 54 00      |          MST.  |      [5]: "MST" time_zone_designation 0x4ea-0x4ee (4)
     |                                               |                |    leap_second_records[0:27]: 0x4ee-0x632 (324)
     |                                               |                |      [0]{}: leap_second_record 0x4ee-0x4fa (12)
0x4e0|                                          00 00|              ..|        occur: "1972-07-01T00:00:00Z" (78796800) 0x4ee-0x4f6 (8)
0x4f0|00 00 04 b2 58 00                              |....X.          |
0x4f0|                  00 00 00 01                  |      ....      |        corr: 1 0x4f6-0x4fa (4)
     |                                               |                |      [1]{}: leap_second_record 0x4fa-0x506 (12)
0x4f0|                              00 00 00 00 05 a4|          ......|        occur: "1973-01-01T00:00:01Z" (94694401) 0x4fa-0x502 (8)
0x500|ec 01                                          |..              |
0x500|      00 00 00 02                              |  ....          |        corr: 2 0x502-0x506 (4)
     |                                               |                |      [2]{}: leap_second_record 0x506-0x512 (12)
0x500|                  00 00 00 00 07 86 1f 82      |      ........  |        occur: "1974-01-01T00:00:02Z" (126230402) 0x506-0x50e (8)
0x500|                                          00 00|              ..|        corr: 3 0x50e-0x512 (4)
0x510|00 03                                          |..              |
     |                                               |                |      [3]{}: leap_second_record 0x512-0x51e (12)
0x510|      00 00 00 00 09 67 53 03                  |  .....gS.      |        occur: "1975-01-01T00:00:03Z" (157766403) 0x512-0x51a (8)
0x510|                              00 00 00 04      |          ....  |        corr: 4 0x51a-0x51e (4)
     |                                               |                |      [4]{}: leap_second_record 0x51e-0x52a (12)
0x510|                                          00 00|              ..|        occur: "1976-01-01T00:00:04Z" (189302404) 0x51e-0x526 (8)
0x520|00 00 0b 48 86 84                              |...H..          |
0x520|                  00 00 00 05                  |      ....      |        corr: 5 0x526-0x52a (4)
     |                                               |                |      [5]{}: leap_second_record 0x52a-0x536 (12)
0x520|                              00 00 00 00 0d 2b|          .....+|        occur: "1977-01-01T00:00:05Z" (220924805) 0x52a-0x532 (8)
0x530|0b 85                                          |..              |
0x530|      00 00 00 06                              |  ....          |        corr: 6 0x532-0x536 (4)
     |                                               |                |      [6]{}: leap_second_record 0x536-0x542 (12)
0x530|                  00 00 00 00 0f 0c 3f 06      |      ......?.  |        occur: "1978-01-01T00:00:06Z" (252460806) 0x536-0x53e (8)
0x530|                                          00 00|              ..|        corr: 7 0x53e-0x542 (4)
0x540|00 07                                          |..              |
     |                                               |                |      [7]{}: leap_second_record 0x542-0x54e (12)
0x540|      00 00 00 00 10 ed 72 87                  |  ......r.      |        occur: "1979-01-01T00:00:07Z" (283996807) 0x542-0x54a (8)
0x540|                              00 00 00 08      |          ....  |        corr: 8 0x54a-0x54e (4)
     |                                               |                |      [8]{}: leap_second_record 0x54e-0x55a (12)
0x540|                                          00 00|              ..|        occur: "1980-01-01T00:00:08Z" (315532808) 0x54e-0x556 (8)
0x550|00 00 12 ce a6 08                              |......          |
0x550|                  00 00 00 09                  |      ....      |        corr: 9 0x556-0x55a (4)
     |                                               |                |      [9]{}: leap_second_record 0x55a-0x566 (12)
0x550|                              00 00 00 00 15 9f|          ......|        occur: "1981-07-01T00:00:09Z" (362793609) 0x55a-0x562 (8)
0x560|ca 89                                          |..              |
0x560|      00 00 00 0a                              |  ....          |        corr: 10 0x562-0x566 (4)
     |                                               |                |      [10]{}: leap_second_record 0x566-0x572 (12)
0x560|                  00 00 00 00 17 80 fe 0a      |      ........  |        occur: "1982-07-01T00:00:10Z" (394329610) 0x566-0x56e (8)
0x560|                                          00 00|              ..|        corr: 11 0x56e-0x572 (4)
0x570|00 0b                                          |..              |
     |                                               |                |      [11]{}: leap_second_record 0x572-0x57e (12)
0x570|      00 00 00 00 19 62 31 8b                  |  .....b1.      |        occur: "1983-07-01T00:00:11Z" (425865611) 0x572-0x57a (8)
0x570|                              00 00 00 0c      |          ....  |        corr: 12 0x57a-0x57e (4)
     |                                               |                |      [12]{}: leap_second_record 0x57e-0x58a (12)
0x570|                                          00 00|              ..|        occur: "1985-07-01T00:00:12Z" (489024012) 0x57e-0x586 (8)
0x580|00 00 1d 25 ea 0c                              |...%..          |
0x580|                  00 00 00 0d                  |      ....      |        corr: 13 0x586-0x58a (4)
     |                                               |                |      [13]{}: leap_second_record 0x58a-0x596 (12)
0x580|                              00 00 00 00 21 da|          ....!.|        occur: "1988-01-01T00:00:13Z" (567993613) 0x58a-0x592 (8)
0x590|e5 0d                                          |..              |
0x590|      00 00 00 0e                              |  ....          |        corr: 14 0x592-0x596 (4)
     |                                               |                |      [14]{}: leap_second_record 0x596-0x5a2 (12)
0x590|                  00 00 00 00 25 9e 9d 8e      |      ....%...  |        occur: "1990-01-01T00:00:14Z" (631152014) 0x596-0x59e (8)
0x590|                                          00 00|              ..|        corr: 15 0x59e-0x5a2 (4)
0x5a0|00 0f                                          |..              |
     |                                               |                |      [15]{}: leap_second_record 0x5a2-0x5ae (12)
0x5a0|      00 00 00 00 27 7f d1 0f                  |  ....'...      |        occur: "1991-01-01T00:00:15Z" (662688015) 0x5a2-0x5aa (8)
0x5a0|                              00 00 00 10      |          ....  |        corr: 16 0x5aa-0x5ae (4)
     |                                               |                |      [16]{}: leap_second_record 0x5ae-0x5ba (12)
0x5a0|                                          00 00|              ..|        occur: "1992-07-01T00:00:16Z" (709948816) 0x5ae-0x5b6 (8)
0x5b0|00 00 2a 50 f5 90                              |..*P..          |
0x5b0|                  00 00 00 11                  |      ....      |        corr: 17 0x5b6-0x5ba (4)
     |                                               |                |      [17]{}: leap_second_record 0x5ba-0x5c6 (12)
0x5b0|                              00 00 00 00 2c 32|          ....,2|        occur: "1993-07-01T00:00:17Z" (741484817) 0x5ba-0x5c2 (8)
0x5c0|29 11                                          |).              |
0x5c0|      00 00 00 12                              |  ....          |        corr: 18 0x5c2-0x5c6 (4)
     |                                               |                |      [18]{}: leap_second_record 0x5c6-0x5d2 (12)
0x5c0|                  00 00 00 00 2e 13 5c 92      |      ......\.  |        occur: "1994-07-01T00:00:18Z" (773020818) 0x5c6-0x5ce (8)
0x5c0|                                          00 00|              ..|        corr: 19 0x5ce-0x5d2 (4)
0x5d0|00 13                                          |..              |
     |                                               |                |      [19]{}: leap_second_record 0x5d2-0x5de (12)
0x5d0|      00 00 00 00 30 e7 24 13                  |  ....0.$.      |        occur: "1996-01-01T00:00:19Z" (820454419) 0x5d2-0x5da (8)
0x5d0|                              00 00 00 14      |          ....  |        corr: 20 0x5da-0x5de (4)
     |                                               |                |      [20]{}: leap_second_record 0x5de-0x5ea (12)
0x5d0|                                          00 00|              ..|        occur: "1997-07-01T00:00:20Z" (867715220) 0x5de-0x5e6 (8)
0x5e0|00 00 33 b8 48 94                              |..3.H.          |
0x5e0|                  00 00 00 15                  |      ....      |        corr: 21 0x5e6-0x5ea (4)
     |                                               |                |      [21]{}: leap_second_record 0x5ea-0x5f6 (12)
0x5e0|                              00 00 00 00 36 8c|          ....6.|        occur: "1999-01-01T00:00:21Z" (915148821) 0x5ea-0x5f2 (8)
0x5f0|10 15                                          |..              |
0x5f0|      00 00 00 16                              |  ....          |        corr: 22 0x5f2-0x5f6 (4)
     |                                               |                |      [22]{}: leap_second_record 0x5f6-0x602 (12)
0x5f0|                  00 00 00 00 43 b7 1b 96      |      ....C...  |        occur: "2006-01-01T00:00:22Z" (1136073622) 0x5f6-0x5fe (8)
0x5f0|                                          00 00|              ..|        corr: 23 0x5fe-0x602 (4)
0x600|00 17                                          |..              |
     |                                               |                |      [23]{}: leap_second_record 0x602-0x60e (12)
0x600|      00 00 00 00 49 5c 07 97                  |  ....I\..      |        occur: "2009-01-01T00:00:23Z" (1230768023) 0x602-0x60a (8)
0x600|                              00 00 00 18      |          ....  |        corr: 24 0x60a-0x60e (4)
     |                                               |                |      [24]{}: leap_second_record 0x60e-0x61a (12)
0x600|                                          00 00|              ..|        occur: "2012-07-01T00:00:24Z" (1341100824) 0x60e-0x616 (8)
0x610|00 00 4f ef 93 18                              |..O...          |
0x610|                  00 00 00 19                  |      ....      |        corr: 25 0x616-0x61a (4)
     |                                               |                |      [25]{}: leap_second_record 0x61a-0x626 (12)
0x610|                              00 00 00 00 55 93|          ....U.|        occur: "2015-07-01T00:00:25Z" (1435708825) 0x61a-0x622 (8)
0x620|2d 99                                          |-.              |
0x620|      00 00 00 1a                              |  ....          |        corr: 26 0x622-0x626 (4)
     |                                               |                |      [26]{}: leap_second_record 0x626-0x632 (12)
0x620|                  00 00 00 00 58 68 46 9a      |      ....XhF.  |        occur: "2017-01-01T00:00:26Z" (1483228826) 0x626-0x62e (8)
0x620|                                          00 00|              ..|        corr: 27 0x62e-0x632 (4)
0x630|00 1b                                          |..              |
     |                                               |                |    standard_wall_indicators[0:6]: 0x632-0x638 (6)
0x630|      00                                       |  .             |      [0]: 0 standard_wall_indicator (valid) 0x632-0x633 (1)
0x630|         00                                    |   .            |      [1]: 0 standard_wall_indicator (valid) 0x633-0x634 (1)
0x630|            00                                 |    .           |      [2]: 0 standard_wall_indicator (valid) 0x634-0x635 (1)
0x630|               00                              |     .          |      [3]: 0 standard_wall_indicator (valid) 0x635-0x636 (1)
0x630|                  01                           |      .         |      [4]: 1 standard_wall_indicator (valid) 0x636-0x637 (1)
0x630|                     00                        |       .        |      [5]: 0 standard_wall_indicator (valid) 0x637-0x638 (1)
     |                                               |                |    ut_local_indicators[0:6]: 0x638-0x63e (6)
0x630|                        00                     |        .       |      [0]: 0 ut_local_indicator (valid) 0x638-0x639 (1)
0x630|                           00                  |         .      |      [1]: 0 ut_local_indicator (valid) 0x639-0x63a (1)
0x630|                              00               |          .     |      [2]: 0 ut_local_indicator (valid) 0x63a-0x63b (1)
0x630|                                 00            |           .    |      [3]: 0 ut_local_indicator (valid) 0x63b-0x63c (1)
0x630|                                    01         |            .   |      [4]: 1 ut_local_indicator (valid) 0x63c-0x63d (1)
0x630|                                       00      |             .  |      [5]: 0 ut_local_indicator (valid) 0x63d-0x63e (1)
     |                                               |                |  footer{}: 0x63e-0x640 (2)
0x630|                                          0a   |              . |    nl1: 10 (valid) 0x63e-0x63f (1)
     |                                               |                |    tz_string: "" 0x63f-0x63f (0)
0x630|                                             0a|               .|    nl2: 10 (valid) 0x63f-0x640 (1)
