$ fq -d tzif dv Dawson
     |00 01 02 03 04 05 06 07 08 09 0a 0b 0c 0d 0e 0f|0123456789abcdef|.{}: Dawson (tzif) 0x0-0x873.7 (2164)
     |                                               |                |  v1header{}: 0x0-0x2b.7 (44)
0x000|54 5a 69 66                                    |TZif            |    magic: 0x545a6966 (valid) 0x0-0x3.7 (4)
0x000|            32                                 |    2           |    ver: "2" (0x32) (valid) 0x4-0x4.7 (1)
0x000|               00 00 00 00 00 00 00 00 00 00 00|     ...........|    reserved: raw bits 0x5-0x13.7 (15)
0x010|00 00 00 00                                    |....            |
0x010|            00 00 00 09                        |    ....        |    isutcnt: 9 0x14-0x17.7 (4)
0x010|                        00 00 00 09            |        ....    |    isstdcnt: 9 0x18-0x1b.7 (4)
0x010|                                    00 00 00 1b|            ....|    leapcnt: 27 0x1c-0x1f.7 (4)
0x020|00 00 00 5e                                    |...^            |    timecnt: 94 0x20-0x23.7 (4)
0x020|            00 00 00 09                        |    ....        |    typecnt: 9 0x24-0x27.7 (4)
0x020|                        00 00 00 25            |        ...%    |    charcnt: 37 0x28-0x2b.7 (4)
     |                                               |                |  v1datablock{}: 0x2c-0x346.7 (795)
     |                                               |                |    transition_times[0:94]: 0x2c-0x1a3.7 (376)
0x020|                                    80 00 00 00|            ....|      [0]: "1901-12-13T20:45:52Z" (-2147483648) transition_time 0x2c-0x2f.7 (4)
0x030|9e b8 cb b0                                    |....            |      [1]: "1918-04-14T11:00:00Z" (-1632056400) transition_time 0x30-0x33.7 (4)
0x030|            9f bb 23 a0                        |    ..#.        |      [2]: "1918-10-27T10:00:00Z" (-1615125600) transition_time 0x34-0x37.7 (4)
0x030|                        a0 d0 0c b0            |        ....    |      [3]: "1919-05-25T11:00:00Z" (-1596978000) transition_time 0x38-0x3b.7 (4)
0x030|                                    a1 a2 d2 80|            ....|      [4]: "1919-11-01T08:00:00Z" (-1583164800) transition_time 0x3c-0x3f.7 (4)
0x040|cb 89 28 b0                                    |..(.            |      [5]: "1942-02-09T11:00:00Z" (-880203600) transition_time 0x40-0x43.7 (4)
0x040|            d2 23 f4 70                        |    .#.p        |      [6]: "1945-08-14T23:00:00Z" (-769395600) transition_time 0x44-0x47.7 (4)
0x040|                        d2 61 34 20            |        .a4     |      [7]: "1945-09-30T10:00:00Z" (-765381600) transition_time 0x48-0x4b.7 (4)
0x040|                                    f7 2f 76 90|            ./v.|      [8]: "1965-04-25T09:00:00Z" (-147884400) transition_time 0x4c-0x4f.7 (4)
0x050|f8 28 a2 10                                    |.(..            |      [9]: "1965-10-31T09:00:00Z" (-131554800) transition_time 0x50-0x53.7 (4)
0x050|            07 30 ec 92                        |    .0..        |      [10]: "1973-10-28T09:00:02Z" (120646802) transition_time 0x54-0x57.7 (4)
0x050|                        13 69 72 29            |        .ir)    |      [11]: "1980-04-27T10:00:09Z" (325677609) transition_time 0x58-0x5b.7 (4)
0x050|                                    14 59 55 19|            .YU.|      [12]: "1980-10-26T09:00:09Z" (341398809) transition_time 0x5c-0x5f.7 (4)
0x060|15 49 54 29                                    |.IT)            |      [13]: "1981-04-26T10:00:09Z" (357127209) transition_time 0x60-0x63.7 (4)
0x060|            16 39 37 1a                        |    .97.        |      [14]: "1981-10-25T09:00:10Z" (372848410) transition_time 0x64-0x67.7 (4)
0x060|                        17 29 36 2a            |        .)6*    |      [15]: "1982-04-25T10:00:10Z" (388576810) transition_time 0x68-0x6b.7 (4)
0x060|                                    18 22 53 9b|            ."S.|      [16]: "1982-10-31T09:00:11Z" (404902811) transition_time 0x6c-0x6f.7 (4)
0x070|19 09 18 2b                                    |...+            |      [17]: "1983-04-24T10:00:11Z" (420026411) transition_time 0x70-0x73.7 (4)
0x070|            1a 02 35 9c                        |    ..5.        |      [18]: "1983-10-30T09:00:12Z" (436352412) transition_time 0x74-0x77.7 (4)
0x070|                        1a f2 34 ac            |        ..4.    |      [19]: "1984-04-29T10:00:12Z" (452080812) transition_time 0x78-0x7b.7 (4)
0x070|                                    1b e2 17 9c|            ....|      [20]: "1984-10-28T09:00:12Z" (467802012) transition_time 0x7c-0x7f.7 (4)
0x080|1c d2 16 ac                                    |....            |      [21]: "1985-04-28T10:00:12Z" (483530412) transition_time 0x80-0x83.7 (4)
0x080|            1d c1 f9 9d                        |    ....        |      [22]: "1985-10-27T09:00:13Z" (499251613) transition_time 0x84-0x87.7 (4)
0x080|                        1e b1 f8 ad            |        ....    |      [23]: "1986-04-27T10:00:13Z" (514980013) transition_time 0x88-0x8b.7 (4)
0x080|                                    1f a1 db 9d|            ....|      [24]: "1986-10-26T09:00:13Z" (530701213) transition_time 0x8c-0x8f.7 (4)
0x090|20 76 2b 2d                                    | v+-            |      [25]: "1987-04-05T10:00:13Z" (544615213) transition_time 0x90-0x93.7 (4)
0x090|            21 81 bd 9d                        |    !...        |      [26]: "1987-10-25T09:00:13Z" (562150813) transition_time 0x94-0x97.7 (4)
0x090|                        22 56 0d 2e            |        "V..    |      [27]: "1988-04-03T10:00:14Z" (576064814) transition_time 0x98-0x9b.7 (4)
0x090|                                    23 6a da 1e|            #j..|      [28]: "1988-10-30T09:00:14Z" (594205214) transition_time 0x9c-0x9f.7 (4)
0x0a0|24 35 ef 2e                                    |$5..            |      [29]: "1989-04-02T10:00:14Z" (607514414) transition_time 0xa0-0xa3.7 (4)
0x0a0|            25 4a bc 1e                        |    %J..        |      [30]: "1989-10-29T09:00:14Z" (625654814) transition_time 0xa4-0xa7.7 (4)
0x0a0|                        26 15 d1 2f            |        &../    |      [31]: "1990-04-01T10:00:15Z" (638964015) transition_time 0xa8-0xab.7 (4)
0x0a0|                                    27 2a 9e 1f|            '*..|      [32]: "1990-10-28T09:00:15Z" (657104415) transition_time 0xac-0xaf.7 (4)
0x0b0|27 fe ed b0                                    |'...            |      [33]: "1991-04-07T10:00:16Z" (671018416) transition_time 0xb0-0xb3.7 (4)
0x0b0|            29 0a 80 20                        |    )..         |      [34]: "1991-10-27T09:00:16Z" (688554016) transition_time 0xb4-0xb7.7 (4)
0x0b0|                        29 de cf b0            |        )...    |      [35]: "1992-04-05T10:00:16Z" (702468016) transition_time 0xb8-0xbb.7 (4)
0x0b0|                                    2a ea 62 21|            *.b!|      [36]: "1992-10-25T09:00:17Z" (720003617) transition_time 0xbc-0xbf.7 (4)
0x0c0|2b be b1 b1                                    |+...            |      [37]: "1993-04-04T10:00:17Z" (733917617) transition_time 0xc0-0xc3.7 (4)
0x0c0|            2c d3 7e a2                        |    ,.~.        |      [38]: "1993-10-31T09:00:18Z" (752058018) transition_time 0xc4-0xc7.7 (4)
0x0c0|                        2d 9e 93 b2            |        -...    |      [39]: "1994-04-03T10:00:18Z" (765367218) transition_time 0xc8-0xcb.7 (4)
0x0c0|                                    2e b3 60 a3|            ..`.|      [40]: "1994-10-30T09:00:19Z" (783507619) transition_time 0xcc-0xcf.7 (4)
0x0d0|2f 7e 75 b3                                    |/~u.            |      [41]: "1995-04-02T10:00:19Z" (796816819) transition_time 0xd0-0xd3.7 (4)
0x0d0|            30 93 42 a3                        |    0.B.        |      [42]: "1995-10-29T09:00:19Z" (814957219) transition_time 0xd4-0xd7.7 (4)
0x0d0|                        31 67 92 34            |        1g.4    |      [43]: "1996-04-07T10:00:20Z" (828871220) transition_time 0xd8-0xdb.7 (4)
0x0d0|                                    32 73 24 a4|            2s$.|      [44]: "1996-10-27T09:00:20Z" (846406820) transition_time 0xdc-0xdf.7 (4)
0x0e0|33 47 74 34                                    |3Gt4            |      [45]: "1997-04-06T10:00:20Z" (860320820) transition_time 0xe0-0xe3.7 (4)
0x0e0|            34 53 06 a5                        |    4S..        |      [46]: "1997-10-26T09:00:21Z" (877856421) transition_time 0xe4-0xe7.7 (4)
0x0e0|                        35 27 56 35            |        5'V5    |      [47]: "1998-04-05T10:00:21Z" (891770421) transition_time 0xe8-0xeb.7 (4)
0x0e0|                                    36 32 e8 a5|            62..|      [48]: "1998-10-25T09:00:21Z" (909306021) transition_time 0xec-0xef.7 (4)
0x0f0|37 07 38 36                                    |7.86            |      [49]: "1999-04-04T10:00:22Z" (923220022) transition_time 0xf0-0xf3.7 (4)
0x0f0|            38 1c 05 26                        |    8..&        |      [50]: "1999-10-31T09:00:22Z" (941360422) transition_time 0xf4-0xf7.7 (4)
0x0f0|                        38 e7 1a 36            |        8..6    |      [51]: "2000-04-02T10:00:22Z" (954669622) transition_time 0xf8-0xfb.7 (4)
0x0f0|                                    39 fb e7 26|            9..&|      [52]: "2000-10-29T09:00:22Z" (972810022) transition_time 0xfc-0xff.7 (4)
0x100|3a c6 fc 36                                    |:..6            |      [53]: "2001-04-01T10:00:22Z" (986119222) transition_time 0x100-0x103.7 (4)
0x100|            3b db c9 26                        |    ;..&        |      [54]: "2001-10-28T09:00:22Z" (1004259622) transition_time 0x104-0x107.7 (4)
0x100|                        3c b0 18 b6            |        <...    |      [55]: "2002-04-07T10:00:22Z" (1018173622) transition_time 0x108-0x10b.7 (4)
0x100|                                    3d bb ab 26|            =..&|      [56]: "2002-10-27T09:00:22Z" (1035709222) transition_time 0x10c-0x10f.7 (4)
0x110|3e 8f fa b6                                    |>...            |      [57]: "2003-04-06T10:00:22Z" (1049623222) transition_time 0x110-0x113.7 (4)
0x110|            3f 9b 8d 26                        |    ?..&        |      [58]: "2003-10-26T09:00:22Z" (1067158822) transition_time 0x114-0x117.7 (4)
0x110|                        40 6f dc b6            |        @o..    |      [59]: "2004-04-04T10:00:22Z" (1081072822) transition_time 0x118-0x11b.7 (4)
0x110|                                    41 84 a9 a6|            A...|      [60]: "2004-10-31T09:00:22Z" (1099213222) transition_time 0x11c-0x11f.7 (4)
0x120|42 4f be b6                                    |BO..            |      [61]: "2005-04-03T10:00:22Z" (1112522422) transition_time 0x120-0x123.7 (4)
0x120|            43 64 8b a6                        |    Cd..        |      [62]: "2005-10-30T09:00:22Z" (1130662822) transition_time 0x124-0x127.7 (4)
0x120|                        44 2f a0 b7            |        D/..    |      [63]: "2006-04-02T10:00:23Z" (1143972023) transition_time 0x128-0x12b.7 (4)
0x120|                                    45 44 6d a7|            EDm.|      [64]: "2006-10-29T09:00:23Z" (1162112423) transition_time 0x12c-0x12f.7 (4)
0x130|45 f3 d3 37                                    |E..7            |      [65]: "2007-03-11T10:00:23Z" (1173607223) transition_time 0x130-0x133.7 (4)
0x130|            47 2d 8a 27                        |    G-.'        |      [66]: "2007-11-04T09:00:23Z" (1194166823) transition_time 0x134-0x137.7 (4)
0x130|                        47 d3 b5 37            |        G..7    |      [67]: "2008-03-09T10:00:23Z" (1205056823) transition_time 0x138-0x13b.7 (4)
0x130|                                    49 0d 6c 27|            I.l'|      [68]: "2008-11-02T09:00:23Z" (1225616423) transition_time 0x13c-0x13f.7 (4)
0x140|49 b3 97 38                                    |I..8            |      [69]: "2009-03-08T10:00:24Z" (1236506424) transition_time 0x140-0x143.7 (4)
0x140|            4a ed 4e 28                        |    J.N(        |      [70]: "2009-11-01T09:00:24Z" (1257066024) transition_time 0x144-0x147.7 (4)
0x140|                        4b 9c b3 b8            |        K...    |      [71]: "2010-03-14T10:00:24Z" (1268560824) transition_time 0x148-0x14b.7 (4)
0x140|                                    4c d6 6a a8|            L.j.|      [72]: "2010-11-07T09:00:24Z" (1289120424) transition_time 0x14c-0x14f.7 (4)
0x150|4d 7c 95 b8                                    |M|..            |      [73]: "2011-03-13T10:00:24Z" (1300010424) transition_time 0x150-0x153.7 (4)
0x150|            4e b6 4c a8                        |    N.L.        |      [74]: "2011-11-06T09:00:24Z" (1320570024) transition_time 0x154-0x157.7 (4)
0x150|                        4f 5c 77 b8            |        O\w.    |      [75]: "2012-03-11T10:00:24Z" (1331460024) transition_time 0x158-0x15b.7 (4)
0x150|                                    50 96 2e a9|            P...|      [76]: "2012-11-04T09:00:25Z" (1352019625) transition_time 0x15c-0x15f.7 (4)
0x160|51 3c 59 b9                                    |Q<Y.            |      [77]: "2013-03-10T10:00:25Z" (1362909625) transition_time 0x160-0x163.7 (4)
0x160|            52 76 10 a9                        |    Rv..        |      [78]: "2013-11-03T09:00:25Z" (1383469225) transition_time 0x164-0x167.7 (4)
0x160|                        53 1c 3b b9            |        S.;.    |      [79]: "2014-03-09T10:00:25Z" (1394359225) transition_time 0x168-0x16b.7 (4)
0x160|                                    54 55 f2 a9|            TU..|      [80]: "2014-11-02T09:00:25Z" (1414918825) transition_time 0x16c-0x16f.7 (4)
0x170|54 fc 1d b9                                    |T...            |      [81]: "2015-03-08T10:00:25Z" (1425808825) transition_time 0x170-0x173.7 (4)
0x170|            56 35 d4 aa                        |    V5..        |      [82]: "2015-11-01T09:00:26Z" (1446368426) transition_time 0x174-0x177.7 (4)
0x170|                        56 e5 3a 3a            |        V.::    |      [83]: "2016-03-13T10:00:26Z" (1457863226) transition_time 0x178-0x17b.7 (4)
0x170|                                    58 1e f1 2a|            X..*|      [84]: "2016-11-06T09:00:26Z" (1478422826) transition_time 0x17c-0x17f.7 (4)
0x180|58 c5 1c 3b                                    |X..;            |      [85]: "2017-03-12T10:00:27Z" (1489312827) transition_time 0x180-0x183.7 (4)
0x180|            59 fe d3 2b                        |    Y..+        |      [86]: "2017-11-05T09:00:27Z" (1509872427) transition_time 0x184-0x187.7 (4)
0x180|                        5a a4 fe 3b            |        Z..;    |      [87]: "2018-03-11T10:00:27Z" (1520762427) transition_time 0x188-0x18b.7 (4)
0x180|                                    5b de b5 2b|            [..+|      [88]: "2018-11-04T09:00:27Z" (1541322027) transition_time 0x18c-0x18f.7 (4)
0x190|5c 84 e0 3b                                    |\..;            |      [89]: "2019-03-10T10:00:27Z" (1552212027) transition_time 0x190-0x193.7 (4)
0x190|            5d be 97 2b                        |    ]..+        |      [90]: "2019-11-03T09:00:27Z" (1572771627) transition_time 0x194-0x197.7 (4)
0x190|                        5e 64 c2 3b            |        ^d.;    |      [91]: "2020-03-08T10:00:27Z" (1583661627) transition_time 0x198-0x19b.7 (4)
0x190|                                    5f 9e 5d 0b|            _.].|      [92]: "2020-11-01T07:00:27Z" (1604214027) transition_time 0x19c-0x19f.7 (4)
0x1a0|64 9b 78 1b                                    |d.x.            |      [93]: "2023-06-28T00:00:27Z" (1687910427) transition_time 0x1a0-0x1a3.7 (4)
     |                                               |                |    transition_types[0:94]: 0x1a4-0x201.7 (94)
0x1a0|            02                                 |    .           |      [0]: 2 transition_type 0x1a4-0x1a4.7 (1)
0x1a0|               01                              |     .          |      [1]: 1 transition_type 0x1a5-0x1a5.7 (1)
0x1a0|                  02                           |      .         |      [2]: 2 transition_type 0x1a6-0x1a6.7 (1)
0x1a0|                     01                        |       .        |      [3]: 1 transition_type 0x1a7-0x1a7.7 (1)
0x1a0|                        02                     |        .       |      [4]: 2 transition_type 0x1a8-0x1a8.7 (1)
0x1a0|                           03                  |         .      |      [5]: 3 transition_type 0x1a9-0x1a9.7 (1)
0x1a0|                              04               |          .     |      [6]: 4 transition_type 0x1aa-0x1aa.7 (1)
0x1a0|                                 02            |           .    |      [7]: 2 transition_type 0x1ab-0x1ab.7 (1)
0x1a0|                                    05         |            .   |      [8]: 5 transition_type 0x1ac-0x1ac.7 (1)
0x1a0|                                       02      |             .  |      [9]: 2 transition_type 0x1ad-0x1ad.7 (1)
0x1a0|                                          06   |              . |      [10]: 6 transition_type 0x1ae-0x1ae.7 (1)
0x1a0|                                             07|               .|      [11]: 7 transition_type 0x1af-0x1af.7 (1)
0x1b0|06                                             |.               |      [12]: 6 transition_type 0x1b0-0x1b0.7 (1)
0x1b0|   07                                          | .              |      [13]: 7 transition_type 0x1b1-0x1b1.7 (1)
0x1b0|      06                                       |  .             |      [14]: 6 transition_type 0x1b2-0x1b2.7 (1)
0x1b0|         07                                    |   .            |      [15]: 7 transition_type 0x1b3-0x1b3.7 (1)
0x1b0|            06                                 |    .           |      [16]: 6 transition_type 0x1b4-0x1b4.7 (1)
0x1b0|               07                              |     .          |      [17]: 7 transition_type 0x1b5-0x1b5.7 (1)
0x1b0|                  06                           |      .         |      [18]: 6 transition_type 0x1b6-0x1b6.7 (1)
0x1b0|                     07                        |       .        |      [19]: 7 transition_type 0x1b7-0x1b7.7 (1)
0x1b0|                        06                     |        .       |      [20]: 6 transition_type 0x1b8-0x1b8.7 (1)
0x1b0|                           07                  |         .      |      [21]: 7 transition_type 0x1b9-0x1b9.7 (1)
0x1b0|                              06               |          .     |      [22]: 6 transition_type 0x1ba-0x1ba.7 (1)
0x1b0|                                 07            |           .    |      [23]: 7 transition_type 0x1bb-0x1bb.7 (1)
0x1b0|                                    06         |            .   |      [24]: 6 transition_type 0x1bc-0x1bc.7 (1)
0x1b0|                                       07      |             .  |      [25]: 7 transition_type 0x1bd-0x1bd.7 (1)
0x1b0|                                          06   |              . |      [26]: 6 transition_type 0x1be-0x1be.7 (1)
0x1b0|                                             07|               .|      [27]: 7 transition_type 0x1bf-0x1bf.7 (1)
0x1c0|06                                             |.               |      [28]: 6 transition_type 0x1c0-0x1c0.7 (1)
0x1c0|   07                                          | .              |      [29]: 7 transition_type 0x1c1-0x1c1.7 (1)
0x1c0|      06                                       |  .             |      [30]: 6 transition_type 0x1c2-0x1c2.7 (1)
0x1c0|         07                                    |   .            |      [31]: 7 transition_type 0x1c3-0x1c3.7 (1)
0x1c0|            06                                 |    .           |      [32]: 6 transition_type 0x1c4-0x1c4.7 (1)
0x1c0|               07                              |     .          |      [33]: 7 transition_type 0x1c5-0x1c5.7 (1)
0x1c0|                  06                           |      .         |      [34]: 6 transition_type 0x1c6-0x1c6.7 (1)
0x1c0|                     07                        |       .        |      [35]: 7 transition_type 0x1c7-0x1c7.7 (1)
0x1c0|                        06                     |        .       |      [36]: 6 transition_type 0x1c8-0x1c8.7 (1)
0x1c0|                           07                  |         .      |      [37]: 7 transition_type 0x1c9-0x1c9.7 (1)
0x1c0|                              06               |          .     |      [38]: 6 transition_type 0x1ca-0x1ca.7 (1)
0x1c0|                                 07            |           .    |      [39]: 7 transition_type 0x1cb-0x1cb.7 (1)
0x1c0|                                    06         |            .   |      [40]: 6 transition_type 0x1cc-0x1cc.7 (1)
0x1c0|                                       07      |             .  |      [41]: 7 transition_type 0x1cd-0x1cd.7 (1)
0x1c0|                                          06   |              . |      [42]: 6 transition_type 0x1ce-0x1ce.7 (1)
0x1c0|                                             07|               .|      [43]: 7 transition_type 0x1cf-0x1cf.7 (1)
0x1d0|06                                             |.               |      [44]: 6 transition_type 0x1d0-0x1d0.7 (1)
0x1d0|   07                                          | .              |      [45]: 7 transition_type 0x1d1-0x1d1.7 (1)
0x1d0|      06                                       |  .             |      [46]: 6 transition_type 0x1d2-0x1d2.7 (1)
0x1d0|         07                                    |   .            |      [47]: 7 transition_type 0x1d3-0x1d3.7 (1)
0x1d0|            06                                 |    .           |      [48]: 6 transition_type 0x1d4-0x1d4.7 (1)
0x1d0|               07                              |     .          |      [49]: 7 transition_type 0x1d5-0x1d5.7 (1)
0x1d0|                  06                           |      .         |      [50]: 6 transition_type 0x1d6-0x1d6.7 (1)
0x1d0|                     07                        |       .        |      [51]: 7 transition_type 0x1d7-0x1d7.7 (1)
0x1d0|                        06                     |        .       |      [52]: 6 transition_type 0x1d8-0x1d8.7 (1)
0x1d0|                           07                  |         .      |      [53]: 7 transition_type 0x1d9-0x1d9.7 (1)
0x1d0|                              06               |          .     |      [54]: 6 transition_type 0x1da-0x1da.7 (1)
0x1d0|                                 07            |           .    |      [55]: 7 transition_type 0x1db-0x1db.7 (1)
0x1d0|                                    06         |            .   |      [56]: 6 transition_type 0x1dc-0x1dc.7 (1)
0x1d0|                                       07      |             .  |      [57]: 7 transition_type 0x1dd-0x1dd.7 (1)
0x1d0|                                          06   |              . |      [58]: 6 transition_type 0x1de-0x1de.7 (1)
0x1d0|                                             07|               .|      [59]: 7 transition_type 0x1df-0x1df.7 (1)
0x1e0|06                                             |.               |      [60]: 6 transition_type 0x1e0-0x1e0.7 (1)
0x1e0|   07                                          | .              |      [61]: 7 transition_type 0x1e1-0x1e1.7 (1)
0x1e0|      06                                       |  .             |      [62]: 6 transition_type 0x1e2-0x1e2.7 (1)
0x1e0|         07                                    |   .            |      [63]: 7 transition_type 0x1e3-0x1e3.7 (1)
0x1e0|            06                                 |    .           |      [64]: 6 transition_type 0x1e4-0x1e4.7 (1)
0x1e0|               07                              |     .          |      [65]: 7 transition_type 0x1e5-0x1e5.7 (1)
0x1e0|                  06                           |      .         |      [66]: 6 transition_type 0x1e6-0x1e6.7 (1)
0x1e0|                     07                        |       .        |      [67]: 7 transition_type 0x1e7-0x1e7.7 (1)
0x1e0|                        06                     |        .       |      [68]: 6 transition_type 0x1e8-0x1e8.7 (1)
0x1e0|                           07                  |         .      |      [69]: 7 transition_type 0x1e9-0x1e9.7 (1)
0x1e0|                              06               |          .     |      [70]: 6 transition_type 0x1ea-0x1ea.7 (1)
0x1e0|                                 07            |           .    |      [71]: 7 transition_type 0x1eb-0x1eb.7 (1)
0x1e0|                                    06         |            .   |      [72]: 6 transition_type 0x1ec-0x1ec.7 (1)
0x1e0|                                       07      |             .  |      [73]: 7 transition_type 0x1ed-0x1ed.7 (1)
0x1e0|                                          06   |              . |      [74]: 6 transition_type 0x1ee-0x1ee.7 (1)
0x1e0|                                             07|               .|      [75]: 7 transition_type 0x1ef-0x1ef.7 (1)
0x1f0|06                                             |.               |      [76]: 6 transition_type 0x1f0-0x1f0.7 (1)
0x1f0|   07                                          | .              |      [77]: 7 transition_type 0x1f1-0x1f1.7 (1)
0x1f0|      06                                       |  .             |      [78]: 6 transition_type 0x1f2-0x1f2.7 (1)
0x1f0|         07                                    |   .            |      [79]: 7 transition_type 0x1f3-0x1f3.7 (1)
0x1f0|            06                                 |    .           |      [80]: 6 transition_type 0x1f4-0x1f4.7 (1)
0x1f0|               07                              |     .          |      [81]: 7 transition_type 0x1f5-0x1f5.7 (1)
0x1f0|                  06                           |      .         |      [82]: 6 transition_type 0x1f6-0x1f6.7 (1)
0x1f0|                     07                        |       .        |      [83]: 7 transition_type 0x1f7-0x1f7.7 (1)
0x1f0|                        06                     |        .       |      [84]: 6 transition_type 0x1f8-0x1f8.7 (1)
0x1f0|                           07                  |         .      |      [85]: 7 transition_type 0x1f9-0x1f9.7 (1)
0x1f0|                              06               |          .     |      [86]: 6 transition_type 0x1fa-0x1fa.7 (1)
0x1f0|                                 07            |           .    |      [87]: 7 transition_type 0x1fb-0x1fb.7 (1)
0x1f0|                                    06         |            .   |      [88]: 6 transition_type 0x1fc-0x1fc.7 (1)
0x1f0|                                       07      |             .  |      [89]: 7 transition_type 0x1fd-0x1fd.7 (1)
0x1f0|                                          06   |              . |      [90]: 6 transition_type 0x1fe-0x1fe.7 (1)
0x1f0|                                             07|               .|      [91]: 7 transition_type 0x1ff-0x1ff.7 (1)
0x200|08                                             |.               |      [92]: 8 transition_type 0x200-0x200.7 (1)
0x200|   08                                          | .              |      [93]: 8 transition_type 0x201-0x201.7 (1)
     |                                               |                |    local_time_type_records[0:9]: 0x202-0x237.7 (54)
     |                                               |                |      [0]{}: local_time_type 0x202-0x207.7 (6)
0x200|      ff ff 7d 4c                              |  ..}L          |        utoff: -33460 (valid) 0x202-0x205.7 (4)
0x200|                  00                           |      .         |        dst: 0 (valid) 0x206-0x206.7 (1)
0x200|                     00                        |       .        |        idx: 0 (valid) 0x207-0x207.7 (1)
     |                                               |                |      [1]{}: local_time_type 0x208-0x20d.7 (6)
0x200|                        ff ff 8f 80            |        ....    |        utoff: -28800 (valid) 0x208-0x20b.7 (4)
0x200|                                    01         |            .   |        dst: 1 (valid) 0x20c-0x20c.7 (1)
0x200|                                       04      |             .  |        idx: 4 (valid) 0x20d-0x20d.7 (1)
     |                                               |                |      [2]{}: local_time_type 0x20e-0x213.7 (6)
0x200|                                          ff ff|              ..|        utoff: -32400 (valid) 0x20e-0x211.7 (4)
0x210|81 70                                          |.p              |
0x210|      00                                       |  .             |        dst: 0 (valid) 0x212-0x212.7 (1)
0x210|         08                                    |   .            |        idx: 8 (valid) 0x213-0x213.7 (1)
     |                                               |                |      [3]{}: local_time_type 0x214-0x219.7 (6)
0x210|            ff ff 8f 80                        |    ....        |        utoff: -28800 (valid) 0x214-0x217.7 (4)
0x210|                        01                     |        .       |        dst: 1 (valid) 0x218-0x218.7 (1)
0x210|                           0c                  |         .      |        idx: 12 (valid) 0x219-0x219.7 (1)
     |                                               |                |      [4]{}: local_time_type 0x21a-0x21f.7 (6)
0x210|                              ff ff 8f 80      |          ....  |        utoff: -28800 (valid) 0x21a-0x21d.7 (4)
0x210|                                          01   |              . |        dst: 1 (valid) 0x21e-0x21e.7 (1)
0x210|                                             10|               .|        idx: 16 (valid) 0x21f-0x21f.7 (1)
     |                                               |                |      [5]{}: local_time_type 0x220-0x225.7 (6)
0x220|ff ff 9d 90                                    |....            |        utoff: -25200 (valid) 0x220-0x223.7 (4)
0x220|            01                                 |    .           |        dst: 1 (valid) 0x224-0x224.7 (1)
0x220|               14                              |     .          |        idx: 20 (valid) 0x225-0x225.7 (1)
     |                                               |                |      [6]{}: local_time_type 0x226-0x22b.7 (6)
0x220|                  ff ff 8f 80                  |      ....      |        utoff: -28800 (valid) 0x226-0x229.7 (4)
0x220|                              00               |          .     |        dst: 0 (valid) 0x22a-0x22a.7 (1)
0x220|                                 19            |           .    |        idx: 25 (valid) 0x22b-0x22b.7 (1)
     |                                               |                |      [7]{}: local_time_type 0x22c-0x231.7 (6)
0x220|                                    ff ff 9d 90|            ....|        utoff: -25200 (valid) 0x22c-0x22f.7 (4)
0x230|01                                             |.               |        dst: 1 (valid) 0x230-0x230.7 (1)
0x230|   1d                                          | .              |        idx: 29 (valid) 0x231-0x231.7 (1)
     |                                               |                |      [8]{}: local_time_type 0x232-0x237.7 (6)
0x230|      ff ff 9d 90                              |  ....          |        utoff: -25200 (valid) 0x232-0x235.7 (4)
0x230|                  00                           |      .         |        dst: 0 (valid) 0x236-0x236.7 (1)
0x230|                     21                        |       !        |        idx: 33 (valid) 0x237-0x237.7 (1)
     |                                               |                |    time_zone_designations[0:9]: 0x238-0x25c.7 (37)
0x230|                        4c 4d 54 00            |        LMT.    |      [0]: "LMT" time_zone_designation 0x238-0x23b.7 (4)
0x230|                                    59 44 54 00|            YDT.|      [1]: "YDT" time_zone_designation 0x23c-0x23f.7 (4)
0x240|59 53 54 00                                    |YST.            |      [2]: "YST" time_zone_designation 0x240-0x243.7 (4)
0x240|            59 57 54 00                        |    YWT.        |      [3]: "YWT" time_zone_designation 0x244-0x247.7 (4)
0x240|                        59 50 54 00            |        YPT.    |      [4]: "YPT" time_zone_designation 0x248-0x24b.7 (4)
0x240|                                    59 44 44 54|            YDDT|      [5]: "YDDT" time_zone_designation 0x24c-0x250.7 (5)
0x250|00                                             |.               |
0x250|   50 53 54 00                                 | PST.           |      [6]: "PST" time_zone_designation 0x251-0x254.7 (4)
0x250|               50 44 54 00                     |     PDT.       |      [7]: "PDT" time_zone_designation 0x255-0x258.7 (4)
0x250|                           4d 53 54 00         |         MST.   |      [8]: "MST" time_zone_designation 0x259-0x25c.7 (4)
     |                                               |                |    leap_second_records[0:27]: 0x25d-0x334.7 (216)
     |                                               |                |      [0]{}: leap_second_record 0x25d-0x264.7 (8)
0x250|                                       04 b2 58|             ..X|        occur: "1972-07-01T00:00:00Z" (78796800) 0x25d-0x260.7 (4)
0x260|00                                             |.               |
0x260|   00 00 00 01                                 | ....           |        corr: 1 0x261-0x264.7 (4)
     |                                               |                |      [1]{}: leap_second_record 0x265-0x26c.7 (8)
0x260|               05 a4 ec 01                     |     ....       |        occur: "1973-01-01T00:00:01Z" (94694401) 0x265-0x268.7 (4)
0x260|                           00 00 00 02         |         ....   |        corr: 2 0x269-0x26c.7 (4)
     |                                               |                |      [2]{}: leap_second_record 0x26d-0x274.7 (8)
0x260|                                       07 86 1f|             ...|        occur: "1974-01-01T00:00:02Z" (126230402) 0x26d-0x270.7 (4)
0x270|82                                             |.               |
0x270|   00 00 00 03                                 | ....           |        corr: 3 0x271-0x274.7 (4)
     |                                               |                |      [3]{}: leap_second_record 0x275-0x27c.7 (8)
0x270|               09 67 53 03                     |     .gS.       |        occur: "1975-01-01T00:00:03Z" (157766403) 0x275-0x278.7 (4)
0x270|                           00 00 00 04         |         ....   |        corr: 4 0x279-0x27c.7 (4)
     |                                               |                |      [4]{}: leap_second_record 0x27d-0x284.7 (8)
0x270|                                       0b 48 86|             .H.|        occur: "1976-01-01T00:00:04Z" (189302404) 0x27d-0x280.7 (4)
0x280|84                                             |.               |
0x280|   00 00 00 05                                 | ....           |        corr: 5 0x281-0x284.7 (4)
     |                                               |                |      [5]{}: leap_second_record 0x285-0x28c.7 (8)
0x280|               0d 2b 0b 85                     |     .+..       |        occur: "1977-01-01T00:00:05Z" (220924805) 0x285-0x288.7 (4)
0x280|                           00 00 00 06         |         ....   |        corr: 6 0x289-0x28c.7 (4)
     |                                               |                |      [6]{}: leap_second_record 0x28d-0x294.7 (8)
0x280|                                       0f 0c 3f|             ..?|        occur: "1978-01-01T00:00:06Z" (252460806) 0x28d-0x290.7 (4)
0x290|06                                             |.               |
0x290|   00 00 00 07                                 | ....           |        corr: 7 0x291-0x294.7 (4)
     |                                               |                |      [7]{}: leap_second_record 0x295-0x29c.7 (8)
0x290|               10 ed 72 87                     |     ..r.       |        occur: "1979-01-01T00:00:07Z" (283996807) 0x295-0x298.7 (4)
0x290|                           00 00 00 08         |         ....   |        corr: 8 0x299-0x29c.7 (4)
     |                                               |                |      [8]{}: leap_second_record 0x29d-0x2a4.7 (8)
0x290|                                       12 ce a6|             ...|        occur: "1980-01-01T00:00:08Z" (315532808) 0x29d-0x2a0.7 (4)
0x2a0|08                                             |.               |
0x2a0|   00 00 00 09                                 | ....           |        corr: 9 0x2a1-0x2a4.7 (4)
     |                                               |                |      [9]{}: leap_second_record 0x2a5-0x2ac.7 (8)
0x2a0|               15 9f ca 89                     |     ....       |        occur: "1981-07-01T00:00:09Z" (362793609) 0x2a5-0x2a8.7 (4)
0x2a0|                           00 00 00 0a         |         ....   |        corr: 10 0x2a9-0x2ac.7 (4)
     |                                               |                |      [10]{}: leap_second_record 0x2ad-0x2b4.7 (8)
0x2a0|                                       17 80 fe|             ...|        occur: "1982-07-01T00:00:10Z" (394329610) 0x2ad-0x2b0.7 (4)
0x2b0|0a                                             |.               |
0x2b0|   00 00 00 0b                                 | ....           |        corr: 11 0x2b1-0x2b4.7 (4)
     |                                               |                |      [11]{}: leap_second_record 0x2b5-0x2bc.7 (8)
0x2b0|               19 62 31 8b                     |     .b1.       |        occur: "1983-07-01T00:00:11Z" (425865611) 0x2b5-0x2b8.7 (4)
0x2b0|                           00 00 00 0c         |         ....   |        corr: 12 0x2b9-0x2bc.7 (4)
     |                                               |                |      [12]{}: leap_second_record 0x2bd-0x2c4.7 (8)
0x2b0|                                       1d 25 ea|             .%.|        occur: "1985-07-01T00:00:12Z" (489024012) 0x2bd-0x2c0.7 (4)
0x2c0|0c                                             |.               |
0x2c0|   00 00 00 0d                                 | ....           |        corr: 13 0x2c1-0x2c4.7 (4)
     |                                               |                |      [13]{}: leap_second_record 0x2c5-0x2cc.7 (8)
0x2c0|               21 da e5 0d                     |     !...       |        occur: "1988-01-01T00:00:13Z" (567993613) 0x2c5-0x2c8.7 (4)
0x2c0|                           00 00 00 0e         |         ....   |        corr: 14 0x2c9-0x2cc.7 (4)
     |                                               |                |      [14]{}: leap_second_record 0x2cd-0x2d4.7 (8)
0x2c0|                                       25 9e 9d|             %..|        occur: "1990-01-01T00:00:14Z" (631152014) 0x2cd-0x2d0.7 (4)
0x2d0|8e                                             |.               |
0x2d0|   00 00 00 0f                                 | ....           |        corr: 15 0x2d1-0x2d4.7 (4)
     |                                               |                |      [15]{}: leap_second_record 0x2d5-0x2dc.7 (8)
0x2d0|               27 7f d1 0f                     |     '...       |        occur: "1991-01-01T00:00:15Z" (662688015) 0x2d5-0x2d8.7 (4)
0x2d0|                           00 00 00 10         |         ....   |        corr: 16 0x2d9-0x2dc.7 (4)
     |                                               |                |      [16]{}: leap_second_record 0x2dd-0x2e4.7 (8)
0x2d0|                                       2a 50 f5|             *P.|        occur: "1992-07-01T00:00:16Z" (709948816) 0x2dd-0x2e0.7 (4)
0x2e0|90                                             |.               |
0x2e0|   00 00 00 11                                 | ....           |        corr: 17 0x2e1-0x2e4.7 (4)
     |                                               |                |      [17]{}: leap_second_record 0x2e5-0x2ec.7 (8)
0x2e0|               2c 32 29 11                     |     ,2).       |        occur: "1993-07-01T00:00:17Z" (741484817) 0x2e5-0x2e8.7 (4)
0x2e0|                           00 00 00 12         |         ....   |        corr: 18 0x2e9-0x2ec.7 (4)
     |                                               |                |      [18]{}: leap_second_record 0x2ed-0x2f4.7 (8)
0x2e0|                                       2e 13 5c|             ..\|        occur: "1994-07-01T00:00:18Z" (773020818) 0x2ed-0x2f0.7 (4)
0x2f0|92                                             |.               |
0x2f0|   00 00 00 13                                 | ....           |        corr: 19 0x2f1-0x2f4.7 (4)
     |                                               |                |      [19]{}: leap_second_record 0x2f5-0x2fc.7 (8)
0x2f0|               30 e7 24 13                     |     0.$.       |        occur: "1996-01-01T00:00:19Z" (820454419) 0x2f5-0x2f8.7 (4)
0x2f0|                           00 00 00 14         |         ....   |        corr: 20 0x2f9-0x2fc.7 (4)
     |                                               |                |      [20]{}: leap_second_record 0x2fd-0x304.7 (8)
0x2f0|                                       33 b8 48|             3.H|        occur: "1997-07-01T00:00:20Z" (867715220) 0x2fd-0x300.7 (4)
0x300|94                                             |.               |
0x300|   00 00 00 15                                 | ....           |        corr: 21 0x301-0x304.7 (4)
     |                                               |                |      [21]{}: leap_second_record 0x305-0x30c.7 (8)
0x300|               36 8c 10 15                     |     6...       |        occur: "1999-01-01T00:00:21Z" (915148821) 0x305-0x308.7 (4)
0x300|                           00 00 00 16         |         ....   |        corr: 22 0x309-0x30c.7 (4)
     |                                               |                |      [22]{}: leap_second_record 0x30d-0x314.7 (8)
0x300|                                       43 b7 1b|             C..|        occur: "2006-01-01T00:00:22Z" (1136073622) 0x30d-0x310.7 (4)
0x310|96                                             |.               |
0x310|   00 00 00 17                                 | ....           |        corr: 23 0x311-0x314.7 (4)
     |                                               |                |      [23]{}: leap_second_record 0x315-0x31c.7 (8)
0x310|               49 5c 07 97                     |     I\..       |        occur: "2009-01-01T00:00:23Z" (1230768023) 0x315-0x318.7 (4)
0x310|                           00 00 00 18         |         ....   |        corr: 24 0x319-0x31c.7 (4)
     |                                               |                |      [24]{}: leap_second_record 0x31d-0x324.7 (8)
0x310|                                       4f ef 93|             O..|        occur: "2012-07-01T00:00:24Z" (1341100824) 0x31d-0x320.7 (4)
0x320|18                                             |.               |
0x320|   00 00 00 19                                 | ....           |        corr: 25 0x321-0x324.7 (4)
     |                                               |                |      [25]{}: leap_second_record 0x325-0x32c.7 (8)
0x320|               55 93 2d 99                     |     U.-.       |        occur: "2015-07-01T00:00:25Z" (1435708825) 0x325-0x328.7 (4)
0x320|                           00 00 00 1a         |         ....   |        corr: 26 0x329-0x32c.7 (4)
     |                                               |                |      [26]{}: leap_second_record 0x32d-0x334.7 (8)
0x320|                                       58 68 46|             XhF|        occur: "2017-01-01T00:00:26Z" (1483228826) 0x32d-0x330.7 (4)
0x330|9a                                             |.               |
0x330|   00 00 00 1b                                 | ....           |        corr: 27 0x331-0x334.7 (4)
     |                                               |                |    standard_wall_indicators[0:9]: 0x335-0x33d.7 (9)
0x330|               00                              |     .          |      [0]: 0 standard_wall_indicator (valid) 0x335-0x335.7 (1)
0x330|                  00                           |      .         |      [1]: 0 standard_wall_indicator (valid) 0x336-0x336.7 (1)
0x330|                     00                        |       .        |      [2]: 0 standard_wall_indicator (valid) 0x337-0x337.7 (1)
0x330|                        00                     |        .       |      [3]: 0 standard_wall_indicator (valid) 0x338-0x338.7 (1)
0x330|                           01                  |         .      |      [4]: 1 standard_wall_indicator (valid) 0x339-0x339.7 (1)
0x330|                              00               |          .     |      [5]: 0 standard_wall_indicator (valid) 0x33a-0x33a.7 (1)
0x330|                                 00            |           .    |      [6]: 0 standard_wall_indicator (valid) 0x33b-0x33b.7 (1)
0x330|                                    00         |            .   |      [7]: 0 standard_wall_indicator (valid) 0x33c-0x33c.7 (1)
0x330|                                       00      |             .  |      [8]: 0 standard_wall_indicator (valid) 0x33d-0x33d.7 (1)
     |                                               |                |    ut_local_indicators[0:9]: 0x33e-0x346.7 (9)
0x330|                                          00   |              . |      [0]: 0 ut_local_indicator (valid) 0x33e-0x33e.7 (1)
0x330|                                             00|               .|      [1]: 0 ut_local_indicator (valid) 0x33f-0x33f.7 (1)
0x340|00                                             |.               |      [2]: 0 ut_local_indicator (valid) 0x340-0x340.7 (1)
0x340|   00                                          | .              |      [3]: 0 ut_local_indicator (valid) 0x341-0x341.7 (1)
0x340|      01                                       |  .             |      [4]: 1 ut_local_indicator (valid) 0x342-0x342.7 (1)
0x340|         00                                    |   .            |      [5]: 0 ut_local_indicator (valid) 0x343-0x343.7 (1)
0x340|            00                                 |    .           |      [6]: 0 ut_local_indicator (valid) 0x344-0x344.7 (1)
0x340|               00                              |     .          |      [7]: 0 ut_local_indicator (valid) 0x345-0x345.7 (1)
0x340|                  00                           |      .         |      [8]: 0 ut_local_indicator (valid) 0x346-0x346.7 (1)
     |                                               |                |  v2plusheader{}: 0x347-0x372.7 (44)
0x340|                     54 5a 69 66               |       TZif     |    magic: 0x545a6966 (valid) 0x347-0x34a.7 (4)
0x340|                                 32            |           2    |    ver: "2" (0x32) (valid) 0x34b-0x34b.7 (1)
0x340|                                    00 00 00 00|            ....|    reserved: raw bits 0x34c-0x35a.7 (15)
0x350|00 00 00 00 00 00 00 00 00 00 00               |...........     |
0x350|                                 00 00 00 09   |           .... |    isutcnt: 9 0x35b-0x35e.7 (4)
0x350|                                             00|               .|    isstdcnt: 9 0x35f-0x362.7 (4)
0x360|00 00 09                                       |...             |
0x360|         00 00 00 1b                           |   ....         |    leapcnt: 27 0x363-0x366.7 (4)
0x360|                     00 00 00 5e               |       ...^     |    timecnt: 94 0x367-0x36a.7 (4)
0x360|                                 00 00 00 09   |           .... |    typecnt: 9 0x36b-0x36e.7 (4)
0x360|                                             00|               .|    charcnt: 37 0x36f-0x372.7 (4)
0x370|00 00 25                                       |..%             |
     |                                               |                |  v2plusdatablock{}: 0x373-0x871.7 (1279)
     |                                               |                |    transition_times[0:94]: 0x373-0x662.7 (752)
0x370|         ff ff ff ff 7d 86 8e b4               |   ....}...     |      [0]: "1900-08-20T09:17:40Z" (-2188996940) transition_time 0x373-0x37a.7 (8)
0x370|                                 ff ff ff ff 9e|           .....|      [1]: "1918-04-14T11:00:00Z" (-1632056400) transition_time 0x37b-0x382.7 (8)
0x380|b8 cb b0                                       |...             |
0x380|         ff ff ff ff 9f bb 23 a0               |   ......#.     |      [2]: "1918-10-27T10:00:00Z" (-1615125600) transition_time 0x383-0x38a.7 (8)
0x380|                                 ff ff ff ff a0|           .....|      [3]: "1919-05-25T11:00:00Z" (-1596978000) transition_time 0x38b-0x392.7 (8)
0x390|d0 0c b0                                       |...             |
0x390|         ff ff ff ff a1 a2 d2 80               |   ........     |      [4]: "1919-11-01T08:00:00Z" (-1583164800) transition_time 0x393-0x39a.7 (8)
0x390|                                 ff ff ff ff cb|           .....|      [5]: "1942-02-09T11:00:00Z" (-880203600) transition_time 0x39b-0x3a2.7 (8)
0x3a0|89 28 b0                                       |.(.             |
0x3a0|         ff ff ff ff d2 23 f4 70               |   .....#.p     |      [6]: "1945-08-14T23:00:00Z" (-769395600) transition_time 0x3a3-0x3aa.7 (8)
0x3a0|                                 ff ff ff ff d2|           .....|      [7]: "1945-09-30T10:00:00Z" (-765381600) transition_time 0x3ab-0x3b2.7 (8)
0x3b0|61 34 20                                       |a4              |
0x3b0|         ff ff ff ff f7 2f 76 90               |   ...../v.     |      [8]: "1965-04-25T09:00:00Z" (-147884400) transition_time 0x3b3-0x3ba.7 (8)
0x3b0|                                 ff ff ff ff f8|           .....|      [9]: "1965-10-31T09:00:00Z" (-131554800) transition_time 0x3bb-0x3c2.7 (8)
0x3c0|28 a2 10                                       |(..             |
0x3c0|         00 00 00 00 07 30 ec 92               |   .....0..     |      [10]: "1973-10-28T09:00:02Z" (120646802) transition_time 0x3c3-0x3ca.7 (8)
0x3c0|                                 00 00 00 00 13|           .....|      [11]: "1980-04-27T10:00:09Z" (325677609) transition_time 0x3cb-0x3d2.7 (8)
0x3d0|69 72 29                                       |ir)             |
0x3d0|         00 00 00 00 14 59 55 19               |   .....YU.     |      [12]: "1980-10-26T09:00:09Z" (341398809) transition_time 0x3d3-0x3da.7 (8)
0x3d0|                                 00 00 00 00 15|           .....|      [13]: "1981-04-26T10:00:09Z" (357127209) transition_time 0x3db-0x3e2.7 (8)
0x3e0|49 54 29                                       |IT)             |
0x3e0|         00 00 00 00 16 39 37 1a               |   .....97.     |      [14]: "1981-10-25T09:00:10Z" (372848410) transition_time 0x3e3-0x3ea.7 (8)
0x3e0|                                 00 00 00 00 17|           .....|      [15]: "1982-04-25T10:00:10Z" (388576810) transition_time 0x3eb-0x3f2.7 (8)
0x3f0|29 36 2a                                       |)6*             |
0x3f0|         00 00 00 00 18 22 53 9b               |   ....."S.     |      [16]: "1982-10-31T09:00:11Z" (404902811) transition_time 0x3f3-0x3fa.7 (8)
0x3f0|                                 00 00 00 00 19|           .....|      [17]: "1983-04-24T10:00:11Z" (420026411) transition_time 0x3fb-0x402.7 (8)
0x400|09 18 2b                                       |..+             |
0x400|         00 00 00 00 1a 02 35 9c               |   ......5.     |      [18]: "1983-10-30T09:00:12Z" (436352412) transition_time 0x403-0x40a.7 (8)
0x400|                                 00 00 00 00 1a|           .....|      [19]: "1984-04-29T10:00:12Z" (452080812) transition_time 0x40b-0x412.7 (8)
0x410|f2 34 ac                                       |.4.             |
0x410|         00 00 00 00 1b e2 17 9c               |   ........     |      [20]: "1984-10-28T09:00:12Z" (467802012) transition_time 0x413-0x41a.7 (8)
0x410|                                 00 00 00 00 1c|           .....|      [21]: "1985-04-28T10:00:12Z" (483530412) transition_time 0x41b-0x422.7 (8)
0x420|d2 16 ac                                       |...             |
0x420|         00 00 00 00 1d c1 f9 9d               |   ........     |      [22]: "1985-10-27T09:00:13Z" (499251613) transition_time 0x423-0x42a.7 (8)
0x420|                                 00 00 00 00 1e|           .....|      [23]: "1986-04-27T10:00:13Z" (514980013) transition_time 0x42b-0x432.7 (8)
0x430|b1 f8 ad                                       |...             |
0x430|         00 00 00 00 1f a1 db 9d               |   ........     |      [24]: "1986-10-26T09:00:13Z" (530701213) transition_time 0x433-0x43a.7 (8)
0x430|                                 00 00 00 00 20|           .... |      [25]: "1987-04-05T10:00:13Z" (544615213) transition_time 0x43b-0x442.7 (8)
0x440|76 2b 2d                                       |v+-             |
0x440|         00 00 00 00 21 81 bd 9d               |   ....!...     |      [26]: "1987-10-25T09:00:13Z" (562150813) transition_time 0x443-0x44a.7 (8)
0x440|                                 00 00 00 00 22|           ...."|      [27]: "1988-04-03T10:00:14Z" (576064814) transition_time 0x44b-0x452.7 (8)
0x450|56 0d 2e                                       |V..             |
0x450|         00 00 00 00 23 6a da 1e               |   ....#j..     |      [28]: "1988-10-30T09:00:14Z" (594205214) transition_time 0x453-0x45a.7 (8)
0x450|                                 00 00 00 00 24|           ....$|      [29]: "1989-04-02T10:00:14Z" (607514414) transition_time 0x45b-0x462.7 (8)
0x460|35 ef 2e                                       |5..             |
0x460|         00 00 00 00 25 4a bc 1e               |   ....%J..     |      [30]: "1989-10-29T09:00:14Z" (625654814) transition_time 0x463-0x46a.7 (8)
0x460|                                 00 00 00 00 26|           ....&|      [31]: "1990-04-01T10:00:15Z" (638964015) transition_time 0x46b-0x472.7 (8)
0x470|15 d1 2f                                       |../             |
0x470|         00 00 00 00 27 2a 9e 1f               |   ....'*..     |      [32]: "1990-10-28T09:00:15Z" (657104415) transition_time 0x473-0x47a.7 (8)
0x470|                                 00 00 00 00 27|           ....'|      [33]: "1991-04-07T10:00:16Z" (671018416) transition_time 0x47b-0x482.7 (8)
0x480|fe ed b0                                       |...             |
0x480|         00 00 00 00 29 0a 80 20               |   ....)..      |      [34]: "1991-10-27T09:00:16Z" (688554016) transition_time 0x483-0x48a.7 (8)
0x480|                                 00 00 00 00 29|           ....)|      [35]: "1992-04-05T10:00:16Z" (702468016) transition_time 0x48b-0x492.7 (8)
0x490|de cf b0                                       |...             |
0x490|         00 00 00 00 2a ea 62 21               |   ....*.b!     |      [36]: "1992-10-25T09:00:17Z" (720003617) transition_time 0x493-0x49a.7 (8)
0x490|                                 00 00 00 00 2b|           ....+|      [37]: "1993-04-04T10:00:17Z" (733917617) transition_time 0x49b-0x4a2.7 (8)
0x4a0|be b1 b1                                       |...             |
0x4a0|         00 00 00 00 2c d3 7e a2               |   ....,.~.     |      [38]: "1993-10-31T09:00:18Z" (752058018) transition_time 0x4a3-0x4aa.7 (8)
0x4a0|                                 00 00 00 00 2d|           ....-|      [39]: "1994-04-03T10:00:18Z" (765367218) transition_time 0x4ab-0x4b2.7 (8)
0x4b0|9e 93 b2                                       |...             |
0x4b0|         00 00 00 00 2e b3 60 a3               |   ......`.     |      [40]: "1994-10-30T09:00:19Z" (783507619) transition_time 0x4b3-0x4ba.7 (8)
0x4b0|                                 00 00 00 00 2f|           ..../|      [41]: "1995-04-02T10:00:19Z" (796816819) transition_time 0x4bb-0x4c2.7 (8)
0x4c0|7e 75 b3                                       |~u.             |
0x4c0|         00 00 00 00 30 93 42 a3               |   ....0.B.     |      [42]: "1995-10-29T09:00:19Z" (814957219) transition_time 0x4c3-0x4ca.7 (8)
0x4c0|                                 00 00 00 00 31|           ....1|      [43]: "1996-04-07T10:00:20Z" (828871220) transition_time 0x4cb-0x4d2.7 (8)
0x4d0|67 92 34                                       |g.4             |
0x4d0|         00 00 00 00 32 73 24 a4               |   ....2s$.     |      [44]: "1996-10-27T09:00:20Z" (846406820) transition_time 0x4d3-0x4da.7 (8)
0x4d0|                                 00 00 00 00 33|           ....3|      [45]: "1997-04-06T10:00:20Z" (860320820) transition_time 0x4db-0x4e2.7 (8)
0x4e0|47 74 34                                       |Gt4             |
0x4e0|         00 00 00 00 34 53 06 a5               |   ....4S..     |      [46]: "1997-10-26T09:00:21Z" (877856421) transition_time 0x4e3-0x4ea.7 (8)
0x4e0|                                 00 00 00 00 35|           ....5|      [47]: "1998-04-05T10:00:21Z" (891770421) transition_time 0x4eb-0x4f2.7 (8)
0x4f0|27 56 35                                       |'V5             |
0x4f0|         00 00 00 00 36 32 e8 a5               |   ....62..     |      [48]: "1998-10-25T09:00:21Z" (909306021) transition_time 0x4f3-0x4fa.7 (8)
0x4f0|                                 00 00 00 00 37|           ....7|      [49]: "1999-04-04T10:00:22Z" (923220022) transition_time 0x4fb-0x502.7 (8)
0x500|07 38 36                                       |.86             |
0x500|         00 00 00 00 38 1c 05 26               |   ....8..&     |      [50]: "1999-10-31T09:00:22Z" (941360422) transition_time 0x503-0x50a.7 (8)
0x500|                                 00 00 00 00 38|           ....8|      [51]: "2000-04-02T10:00:22Z" (954669622) transition_time 0x50b-0x512.7 (8)
0x510|e7 1a 36                                       |..6             |
0x510|         00 00 00 00 39 fb e7 26               |   ....9..&     |      [52]: "2000-10-29T09:00:22Z" (972810022) transition_time 0x513-0x51a.7 (8)
0x510|                                 00 00 00 00 3a|           ....:|      [53]: "2001-04-01T10:00:22Z" (986119222) transition_time 0x51b-0x522.7 (8)
0x520|c6 fc 36                                       |..6             |
0x520|         00 00 00 00 3b db c9 26               |   ....;..&     |      [54]: "2001-10-28T09:00:22Z" (1004259622) transition_time 0x523-0x52a.7 (8)
0x520|                                 00 00 00 00 3c|           ....<|      [55]: "2002-04-07T10:00:22Z" (1018173622) transition_time 0x52b-0x532.7 (8)
0x530|b0 18 b6                                       |...             |
0x530|         00 00 00 00 3d bb ab 26               |   ....=..&     |      [56]: "2002-10-27T09:00:22Z" (1035709222) transition_time 0x533-0x53a.7 (8)
0x530|                                 00 00 00 00 3e|           ....>|      [57]: "2003-04-06T10:00:22Z" (1049623222) transition_time 0x53b-0x542.7 (8)
0x540|8f fa b6                                       |...             |
0x540|         00 00 00 00 3f 9b 8d 26               |   ....?..&     |      [58]: "2003-10-26T09:00:22Z" (1067158822) transition_time 0x543-0x54a.7 (8)
0x540|                                 00 00 00 00 40|           ....@|      [59]: "2004-04-04T10:00:22Z" (1081072822) transition_time 0x54b-0x552.7 (8)
0x550|6f dc b6                                       |o..             |
0x550|         00 00 00 00 41 84 a9 a6               |   ....A...     |      [60]: "2004-10-31T09:00:22Z" (1099213222) transition_time 0x553-0x55a.7 (8)
0x550|                                 00 00 00 00 42|           ....B|      [61]: "2005-04-03T10:00:22Z" (1112522422) transition_time 0x55b-0x562.7 (8)
0x560|4f be b6                                       |O..             |
0x560|         00 00 00 00 43 64 8b a6               |   ....Cd..     |      [62]: "2005-10-30T09:00:22Z" (1130662822) transition_time 0x563-0x56a.7 (8)
0x560|                                 00 00 00 00 44|           ....D|      [63]: "2006-04-02T10:00:23Z" (1143972023) transition_time 0x56b-0x572.7 (8)
0x570|2f a0 b7                                       |/..             |
0x570|         00 00 00 00 45 44 6d a7               |   ....EDm.     |      [64]: "2006-10-29T09:00:23Z" (1162112423) transition_time 0x573-0x57a.7 (8)
0x570|                                 00 00 00 00 45|           ....E|      [65]: "2007-03-11T10:00:23Z" (1173607223) transition_time 0x57b-0x582.7 (8)
0x580|f3 d3 37                                       |..7             |
0x580|         00 00 00 00 47 2d 8a 27               |   ....G-.'     |      [66]: "2007-11-04T09:00:23Z" (1194166823) transition_time 0x583-0x58a.7 (8)
0x580|                                 00 00 00 00 47|           ....G|      [67]: "2008-03-09T10:00:23Z" (1205056823) transition_time 0x58b-0x592.7 (8)
0x590|d3 b5 37                                       |..7             |
0x590|         00 00 00 00 49 0d 6c 27               |   ....I.l'     |      [68]: "2008-11-02T09:00:23Z" (1225616423) transition_time 0x593-0x59a.7 (8)
0x590|                                 00 00 00 00 49|           ....I|      [69]: "2009-03-08T10:00:24Z" (1236506424) transition_time 0x59b-0x5a2.7 (8)
0x5a0|b3 97 38                                       |..8             |
0x5a0|         00 00 00 00 4a ed 4e 28               |   ....J.N(     |      [70]: "2009-11-01T09:00:24Z" (1257066024) transition_time 0x5a3-0x5aa.7 (8)
0x5a0|                                 00 00 00 00 4b|           ....K|      [71]: "2010-03-14T10:00:24Z" (1268560824) transition_time 0x5ab-0x5b2.7 (8)
0x5b0|9c b3 b8                                       |...             |
0x5b0|         00 00 00 00 4c d6 6a a8               |   ....L.j.     |      [72]: "2010-11-07T09:00:24Z" (1289120424) transition_time 0x5b3-0x5ba.7 (8)
0x5b0|                                 00 00 00 00 4d|           ....M|      [73]: "2011-03-13T10:00:24Z" (1300010424) transition_time 0x5bb-0x5c2.7 (8)
0x5c0|7c 95 b8                                       ||..             |
0x5c0|         00 00 00 00 4e b6 4c a8               |   ....N.L.     |      [74]: "2011-11-06T09:00:24Z" (1320570024) transition_time 0x5c3-0x5ca.7 (8)
0x5c0|                                 00 00 00 00 4f|           ....O|      [75]: "2012-03-11T10:00:24Z" (1331460024) transition_time 0x5cb-0x5d2.7 (8)
0x5d0|5c 77 b8                                       |\w.             |
0x5d0|         00 00 00 00 50 96 2e a9               |   ....P...     |      [76]: "2012-11-04T09:00:25Z" (1352019625) transition_time 0x5d3-0x5da.7 (8)
0x5d0|                                 00 00 00 00 51|           ....Q|      [77]: "2013-03-10T10:00:25Z" (1362909625) transition_time 0x5db-0x5e2.7 (8)
0x5e0|3c 59 b9                                       |<Y.             |
0x5e0|         00 00 00 00 52 76 10 a9               |   ....Rv..     |      [78]: "2013-11-03T09:00:25Z" (1383469225) transition_time 0x5e3-0x5ea.7 (8)
0x5e0|                                 00 00 00 00 53|           ....S|      [79]: "2014-03-09T10:00:25Z" (1394359225) transition_time 0x5eb-0x5f2.7 (8)
0x5f0|1c 3b b9                                       |.;.             |
0x5f0|         00 00 00 00 54 55 f2 a9               |   ....TU..     |      [80]: "2014-11-02T09:00:25Z" (1414918825) transition_time 0x5f3-0x5fa.7 (8)
0x5f0|                                 00 00 00 00 54|           ....T|      [81]: "2015-03-08T10:00:25Z" (1425808825) transition_time 0x5fb-0x602.7 (8)
0x600|fc 1d b9                                       |...             |
0x600|         00 00 00 00 56 35 d4 aa               |   ....V5..     |      [82]: "2015-11-01T09:00:26Z" (1446368426) transition_time 0x603-0x60a.7 (8)
0x600|                                 00 00 00 00 56|           ....V|      [83]: "2016-03-13T10:00:26Z" (1457863226) transition_time 0x60b-0x612.7 (8)
0x610|e5 3a 3a                                       |.::             |
0x610|         00 00 00 00 58 1e f1 2a               |   ....X..*     |      [84]: "2016-11-06T09:00:26Z" (1478422826) transition_time 0x613-0x61a.7 (8)
0x610|                                 00 00 00 00 58|           ....X|      [85]: "2017-03-12T10:00:27Z" (1489312827) transition_time 0x61b-0x622.7 (8)
0x620|c5 1c 3b                                       |..;             |
0x620|         00 00 00 00 59 fe d3 2b               |   ....Y..+     |      [86]: "2017-11-05T09:00:27Z" (1509872427) transition_time 0x623-0x62a.7 (8)
0x620|                                 00 00 00 00 5a|           ....Z|      [87]: "2018-03-11T10:00:27Z" (1520762427) transition_time 0x62b-0x632.7 (8)
0x630|a4 fe 3b                                       |..;             |
0x630|         00 00 00 00 5b de b5 2b               |   ....[..+     |      [88]: "2018-11-04T09:00:27Z" (1541322027) transition_time 0x633-0x63a.7 (8)
0x630|                                 00 00 00 00 5c|           ....\|      [89]: "2019-03-10T10:00:27Z" (1552212027) transition_time 0x63b-0x642.7 (8)
0x640|84 e0 3b                                       |..;             |
0x640|         00 00 00 00 5d be 97 2b               |   ....]..+     |      [90]: "2019-11-03T09:00:27Z" (1572771627) transition_time 0x643-0x64a.7 (8)
0x640|                                 00 00 00 00 5e|           ....^|      [91]: "2020-03-08T10:00:27Z" (1583661627) transition_time 0x64b-0x652.7 (8)
0x650|64 c2 3b                                       |d.;             |
0x650|         00 00 00 00 5f 9e 5d 0b               |   ...._.].     |      [92]: "2020-11-01T07:00:27Z" (1604214027) transition_time 0x653-0x65a.7 (8)
0x650|                                 00 00 00 00 64|           ....d|      [93]: "2023-06-28T00:00:27Z" (1687910427) transition_time 0x65b-0x662.7 (8)
0x660|9b 78 1b                                       |.x.             |
     |                                               |                |    transition_types[0:94]: 0x663-0x6c0.7 (94)
0x660|         02                                    |   .            |      [0]: 2 transition_type 0x663-0x663.7 (1)
0x660|            01                                 |    .           |      [1]: 1 transition_type 0x664-0x664.7 (1)
0x660|               02                              |     .          |      [2]: 2 transition_type 0x665-0x665.7 (1)
0x660|                  01                           |      .         |      [3]: 1 transition_type 0x666-0x666.7 (1)
0x660|                     02                        |       .        |      [4]: 2 transition_type 0x667-0x667.7 (1)
0x660|                        03                     |        .       |      [5]: 3 transition_type 0x668-0x668.7 (1)
0x660|                           04                  |         .      |      [6]: 4 transition_type 0x669-0x669.7 (1)
0x660|                              02               |          .     |      [7]: 2 transition_type 0x66a-0x66a.7 (1)
0x660|                                 05            |           .    |      [8]: 5 transition_type 0x66b-0x66b.7 (1)
0x660|                                    02         |            .   |      [9]: 2 transition_type 0x66c-0x66c.7 (1)
0x660|                                       06      |             .  |      [10]: 6 transition_type 0x66d-0x66d.7 (1)
0x660|                                          07   |              . |      [11]: 7 transition_type 0x66e-0x66e.7 (1)
0x660|                                             06|               .|      [12]: 6 transition_type 0x66f-0x66f.7 (1)
0x670|07                                             |.               |      [13]: 7 transition_type 0x670-0x670.7 (1)
0x670|   06                                          | .              |      [14]: 6 transition_type 0x671-0x671.7 (1)
0x670|      07                                       |  .             |      [15]: 7 transition_type 0x672-0x672.7 (1)
0x670|         06                                    |   .            |      [16]: 6 transition_type 0x673-0x673.7 (1)
0x670|            07                                 |    .           |      [17]: 7 transition_type 0x674-0x674.7 (1)
0x670|               06                              |     .          |      [18]: 6 transition_type 0x675-0x675.7 (1)
0x670|                  07                           |      .         |      [19]: 7 transition_type 0x676-0x676.7 (1)
0x670|                     06                        |       .        |      [20]: 6 transition_type 0x677-0x677.7 (1)
0x670|                        07                     |        .       |      [21]: 7 transition_type 0x678-0x678.7 (1)
0x670|                           06                  |         .      |      [22]: 6 transition_type 0x679-0x679.7 (1)
0x670|                              07               |          .     |      [23]: 7 transition_type 0x67a-0x67a.7 (1)
0x670|                                 06            |           .    |      [24]: 6 transition_type 0x67b-0x67b.7 (1)
0x670|                                    07         |            .   |      [25]: 7 transition_type 0x67c-0x67c.7 (1)
0x670|                                       06      |             .  |      [26]: 6 transition_type 0x67d-0x67d.7 (1)
0x670|                                          07   |              . |      [27]: 7 transition_type 0x67e-0x67e.7 (1)
0x670|                                             06|               .|      [28]: 6 transition_type 0x67f-0x67f.7 (1)
0x680|07                                             |.               |      [29]: 7 transition_type 0x680-0x680.7 (1)
0x680|   06                                          | .              |      [30]: 6 transition_type 0x681-0x681.7 (1)
0x680|      07                                       |  .             |      [31]: 7 transition_type 0x682-0x682.7 (1)
0x680|         06                                    |   .            |      [32]: 6 transition_type 0x683-0x683.7 (1)
0x680|            07                                 |    .           |      [33]: 7 transition_type 0x684-0x684.7 (1)
0x680|               06                              |     .          |      [34]: 6 transition_type 0x685-0x685.7 (1)
0x680|                  07                           |      .         |      [35]: 7 transition_type 0x686-0x686.7 (1)
0x680|                     06                        |       .        |      [36]: 6 transition_type 0x687-0x687.7 (1)
0x680|                        07                     |        .       |      [37]: 7 transition_type 0x688-0x688.7 (1)
0x680|                           06                  |         .      |      [38]: 6 transition_type 0x689-0x689.7 (1)
0x680|                              07               |          .     |      [39]: 7 transition_type 0x68a-0x68a.7 (1)
0x680|                                 06            |           .    |      [40]: 6 transition_type 0x68b-0x68b.7 (1)
0x680|                                    07         |            .   |      [41]: 7 transition_type 0x68c-0x68c.7 (1)
0x680|                                       06      |             .  |      [42]: 6 transition_type 0x68d-0x68d.7 (1)
0x680|                                          07   |              . |      [43]: 7 transition_type 0x68e-0x68e.7 (1)
0x680|                                             06|               .|      [44]: 6 transition_type 0x68f-0x68f.7 (1)
0x690|07                                             |.               |      [45]: 7 transition_type 0x690-0x690.7 (1)
0x690|   06                                          | .              |      [46]: 6 transition_type 0x691-0x691.7 (1)
0x690|      07                                       |  .             |      [47]: 7 transition_type 0x692-0x692.7 (1)
0x690|         06                                    |   .            |      [48]: 6 transition_type 0x693-0x693.7 (1)
0x690|            07                                 |    .           |      [49]: 7 transition_type 0x694-0x694.7 (1)
0x690|               06                              |     .          |      [50]: 6 transition_type 0x695-0x695.7 (1)
0x690|                  07                           |      .         |      [51]: 7 transition_type 0x696-0x696.7 (1)
0x690|                     06                        |       .        |      [52]: 6 transition_type 0x697-0x697.7 (1)
0x690|                        07                     |        .       |      [53]: 7 transition_type 0x698-0x698.7 (1)
0x690|                           06                  |         .      |      [54]: 6 transition_type 0x699-0x699.7 (1)
0x690|                              07               |          .     |      [55]: 7 transition_type 0x69a-0x69a.7 (1)
0x690|                                 06            |           .    |      [56]: 6 transition_type 0x69b-0x69b.7 (1)
0x690|                                    07         |            .   |      [57]: 7 transition_type 0x69c-0x69c.7 (1)
0x690|                                       06      |             .  |      [58]: 6 transition_type 0x69d-0x69d.7 (1)
0x690|                                          07   |              . |      [59]: 7 transition_type 0x69e-0x69e.7 (1)
0x690|                                             06|               .|      [60]: 6 transition_type 0x69f-0x69f.7 (1)
0x6a0|07                                             |.               |      [61]: 7 transition_type 0x6a0-0x6a0.7 (1)
0x6a0|   06                                          | .              |      [62]: 6 transition_type 0x6a1-0x6a1.7 (1)
0x6a0|      07                                       |  .             |      [63]: 7 transition_type 0x6a2-0x6a2.7 (1)
0x6a0|         06                                    |   .            |      [64]: 6 transition_type 0x6a3-0x6a3.7 (1)
0x6a0|            07                                 |    .           |      [65]: 7 transition_type 0x6a4-0x6a4.7 (1)
0x6a0|               06                              |     .          |      [66]: 6 transition_type 0x6a5-0x6a5.7 (1)
0x6a0|                  07                           |      .         |      [67]: 7 transition_type 0x6a6-0x6a6.7 (1)
0x6a0|                     06                        |       .        |      [68]: 6 transition_type 0x6a7-0x6a7.7 (1)
0x6a0|                        07                     |        .       |      [69]: 7 transition_type 0x6a8-0x6a8.7 (1)
0x6a0|                           06                  |         .      |      [70]: 6 transition_type 0x6a9-0x6a9.7 (1)
0x6a0|                              07               |          .     |      [71]: 7 transition_type 0x6aa-0x6aa.7 (1)
0x6a0|                                 06            |           .    |      [72]: 6 transition_type 0x6ab-0x6ab.7 (1)
0x6a0|                                    07         |            .   |      [73]: 7 transition_type 0x6ac-0x6ac.7 (1)
0x6a0|                                       06      |             .  |      [74]: 6 transition_type 0x6ad-0x6ad.7 (1)
0x6a0|                                          07   |              . |      [75]: 7 transition_type 0x6ae-0x6ae.7 (1)
0x6a0|                                             06|               .|      [76]: 6 transition_type 0x6af-0x6af.7 (1)
0x6b0|07                                             |.               |      [77]: 7 transition_type 0x6b0-0x6b0.7 (1)
0x6b0|   06                                          | .              |      [78]: 6 transition_type 0x6b1-0x6b1.7 (1)
0x6b0|      07                                       |  .             |      [79]: 7 transition_type 0x6b2-0x6b2.7 (1)
0x6b0|         06                                    |   .            |      [80]: 6 transition_type 0x6b3-0x6b3.7 (1)
0x6b0|            07                                 |    .           |      [81]: 7 transition_type 0x6b4-0x6b4.7 (1)
0x6b0|               06                              |     .          |      [82]: 6 transition_type 0x6b5-0x6b5.7 (1)
0x6b0|                  07                           |      .         |      [83]: 7 transition_type 0x6b6-0x6b6.7 (1)
0x6b0|                     06                        |       .        |      [84]: 6 transition_type 0x6b7-0x6b7.7 (1)
0x6b0|                        07                     |        .       |      [85]: 7 transition_type 0x6b8-0x6b8.7 (1)
0x6b0|                           06                  |         .      |      [86]: 6 transition_type 0x6b9-0x6b9.7 (1)
0x6b0|                              07               |          .     |      [87]: 7 transition_type 0x6ba-0x6ba.7 (1)
0x6b0|                                 06            |           .    |      [88]: 6 transition_type 0x6bb-0x6bb.7 (1)
0x6b0|                                    07         |            .   |      [89]: 7 transition_type 0x6bc-0x6bc.7 (1)
0x6b0|                                       06      |             .  |      [90]: 6 transition_type 0x6bd-0x6bd.7 (1)
0x6b0|                                          07   |              . |      [91]: 7 transition_type 0x6be-0x6be.7 (1)
0x6b0|                                             08|               .|      [92]: 8 transition_type 0x6bf-0x6bf.7 (1)
0x6c0|08                                             |.               |      [93]: 8 transition_type 0x6c0-0x6c0.7 (1)
     |                                               |                |    local_time_type_records[0:9]: 0x6c1-0x6f6.7 (54)
     |                                               |                |      [0]{}: local_time_type 0x6c1-0x6c6.7 (6)
0x6c0|   ff ff 7d 4c                                 | ..}L           |        utoff: -33460 (valid) 0x6c1-0x6c4.7 (4)
0x6c0|               00                              |     .          |        dst: 0 (valid) 0x6c5-0x6c5.7 (1)
0x6c0|                  00                           |      .         |        idx: 0 (valid) 0x6c6-0x6c6.7 (1)
     |                                               |                |      [1]{}: local_time_type 0x6c7-0x6cc.7 (6)
0x6c0|                     ff ff 8f 80               |       ....     |        utoff: -28800 (valid) 0x6c7-0x6ca.7 (4)
0x6c0|                                 01            |           .    |        dst: 1 (valid) 0x6cb-0x6cb.7 (1)
0x6c0|                                    04         |            .   |        idx: 4 (valid) 0x6cc-0x6cc.7 (1)
     |                                               |                |      [2]{}: local_time_type 0x6cd-0x6d2.7 (6)
0x6c0|                                       ff ff 81|             ...|        utoff: -32400 (valid) 0x6cd-0x6d0.7 (4)
0x6d0|70                                             |p               |
0x6d0|   00                                          | .              |        dst: 0 (valid) 0x6d1-0x6d1.7 (1)
0x6d0|      08                                       |  .             |        idx: 8 (valid) 0x6d2-0x6d2.7 (1)
     |                                               |                |      [3]{}: local_time_type 0x6d3-0x6d8.7 (6)
0x6d0|         ff ff 8f 80                           |   ....         |        utoff: -28800 (valid) 0x6d3-0x6d6.7 (4)
0x6d0|                     01                        |       .        |        dst: 1 (valid) 0x6d7-0x6d7.7 (1)
0x6d0|                        0c                     |        .       |        idx: 12 (valid) 0x6d8-0x6d8.7 (1)
     |                                               |                |      [4]{}: local_time_type 0x6d9-0x6de.7 (6)
0x6d0|                           ff ff 8f 80         |         ....   |        utoff: -28800 (valid) 0x6d9-0x6dc.7 (4)
0x6d0|                                       01      |             .  |        dst: 1 (valid) 0x6dd-0x6dd.7 (1)
0x6d0|                                          10   |              . |        idx: 16 (valid) 0x6de-0x6de.7 (1)
     |                                               |                |      [5]{}: local_time_type 0x6df-0x6e4.7 (6)
0x6d0|                                             ff|               .|        utoff: -25200 (valid) 0x6df-0x6e2.7 (4)
0x6e0|ff 9d 90                                       |...             |
0x6e0|         01                                    |   .            |        dst: 1 (valid) 0x6e3-0x6e3.7 (1)
0x6e0|            14                                 |    .           |        idx: 20 (valid) 0x6e4-0x6e4.7 (1)
     |                                               |                |      [6]{}: local_time_type 0x6e5-0x6ea.7 (6)
0x6e0|               ff ff 8f 80                     |     ....       |        utoff: -28800 (valid) 0x6e5-0x6e8.7 (4)
0x6e0|                           00                  |         .      |        dst: 0 (valid) 0x6e9-0x6e9.7 (1)
0x6e0|                              19               |          .     |        idx: 25 (valid) 0x6ea-0x6ea.7 (1)
     |                                               |                |      [7]{}: local_time_type 0x6eb-0x6f0.7 (6)
0x6e0|                                 ff ff 9d 90   |           .... |        utoff: -25200 (valid) 0x6eb-0x6ee.7 (4)
0x6e0|                                             01|               .|        dst: 1 (valid) 0x6ef-0x6ef.7 (1)
0x6f0|1d                                             |.               |        idx: 29 (valid) 0x6f0-0x6f0.7 (1)
     |                                               |                |      [8]{}: local_time_type 0x6f1-0x6f6.7 (6)
0x6f0|   ff ff 9d 90                                 | ....           |        utoff: -25200 (valid) 0x6f1-0x6f4.7 (4)
0x6f0|               00                              |     .          |        dst: 0 (valid) 0x6f5-0x6f5.7 (1)
0x6f0|                  21                           |      !         |        idx: 33 (valid) 0x6f6-0x6f6.7 (1)
     |                                               |                |    time_zone_designations[0:9]: 0x6f7-0x71b.7 (37)
0x6f0|                     4c 4d 54 00               |       LMT.     |      [0]: "LMT" time_zone_designation 0x6f7-0x6fa.7 (4)
0x6f0|                                 59 44 54 00   |           YDT. |      [1]: "YDT" time_zone_designation 0x6fb-0x6fe.7 (4)
0x6f0|                                             59|               Y|      [2]: "YST" time_zone_designation 0x6ff-0x702.7 (4)
0x700|53 54 00                                       |ST.             |
0x700|         59 57 54 00                           |   YWT.         |      [3]: "YWT" time_zone_designation 0x703-0x706.7 (4)
0x700|                     59 50 54 00               |       YPT.     |      [4]: "YPT" time_zone_designation 0x707-0x70a.7 (4)
0x700|                                 59 44 44 54 00|           YDDT.|      [5]: "YDDT" time_zone_designation 0x70b-0x70f.7 (5)
0x710|50 53 54 00                                    |PST.            |      [6]: "PST" time_zone_designation 0x710-0x713.7 (4)
0x710|            50 44 54 00                        |    PDT.        |      [7]: "PDT" time_zone_designation 0x714-0x717.7 (4)
0x710|                        4d 53 54 00            |        MST.    |      [8]: "MST" time_zone_designation 0x718-0x71b.7 (4)
     |                                               |                |    leap_second_records[0:27]: 0x71c-0x85f.7 (324)
     |                                               |                |      [0]{}: leap_second_record 0x71c-0x727.7 (12)
0x710|                                    00 00 00 00|            ....|        occur: "1972-07-01T00:00:00Z" (78796800) 0x71c-0x723.7 (8)
0x720|04 b2 58 00                                    |..X.            |
0x720|            00 00 00 01                        |    ....        |        corr: 1 0x724-0x727.7 (4)
     |                                               |                |      [1]{}: leap_second_record 0x728-0x733.7 (12)
0x720|                        00 00 00 00 05 a4 ec 01|        ........|        occur: "1973-01-01T00:00:01Z" (94694401) 0x728-0x72f.7 (8)
0x730|00 00 00 02                                    |....            |        corr: 2 0x730-0x733.7 (4)
     |                                               |                |      [2]{}: leap_second_record 0x734-0x73f.7 (12)
0x730|            00 00 00 00 07 86 1f 82            |    ........    |        occur: "1974-01-01T00:00:02Z" (126230402) 0x734-0x73b.7 (8)
0x730|                                    00 00 00 03|            ....|        corr: 3 0x73c-0x73f.7 (4)
     |                                               |                |      [3]{}: leap_second_record 0x740-0x74b.7 (12)
0x740|00 00 00 00 09 67 53 03                        |.....gS.        |        occur: "1975-01-01T00:00:03Z" (157766403) 0x740-0x747.7 (8)
0x740|                        00 00 00 04            |        ....    |        corr: 4 0x748-0x74b.7 (4)
     |                                               |                |      [4]{}: leap_second_record 0x74c-0x757.7 (12)
0x740|                                    00 00 00 00|            ....|        occur: "1976-01-01T00:00:04Z" (189302404) 0x74c-0x753.7 (8)
0x750|0b 48 86 84                                    |.H..            |
0x750|            00 00 00 05                        |    ....        |        corr: 5 0x754-0x757.7 (4)
     |                                               |                |      [5]{}: leap_second_record 0x758-0x763.7 (12)
0x750|                        00 00 00 00 0d 2b 0b 85|        .....+..|        occur: "1977-01-01T00:00:05Z" (220924805) 0x758-0x75f.7 (8)
0x760|00 00 00 06                                    |....            |        corr: 6 0x760-0x763.7 (4)
     |                                               |                |      [6]{}: leap_second_record 0x764-0x76f.7 (12)
0x760|            00 00 00 00 0f 0c 3f 06            |    ......?.    |        occur: "1978-01-01T00:00:06Z" (252460806) 0x764-0x76b.7 (8)
0x760|                                    00 00 00 07|            ....|        corr: 7 0x76c-0x76f.7 (4)
     |                                               |                |      [7]{}: leap_second_record 0x770-0x77b.7 (12)
0x770|00 00 00 00 10 ed 72 87                        |......r.        |        occur: "1979-01-01T00:00:07Z" (283996807) 0x770-0x777.7 (8)
0x770|                        00 00 00 08            |        ....    |        corr: 8 0x778-0x77b.7 (4)
     |                                               |                |      [8]{}: leap_second_record 0x77c-0x787.7 (12)
0x770|                                    00 00 00 00|            ....|        occur: "1980-01-01T00:00:08Z" (315532808) 0x77c-0x783.7 (8)
0x780|12 ce a6 08                                    |....            |
0x780|            00 00 00 09                        |    ....        |        corr: 9 0x784-0x787.7 (4)
     |                                               |                |      [9]{}: leap_second_record 0x788-0x793.7 (12)
0x780|                        00 00 00 00 15 9f ca 89|        ........|        occur: "1981-07-01T00:00:09Z" (362793609) 0x788-0x78f.7 (8)
0x790|00 00 00 0a                                    |....            |        corr: 10 0x790-0x793.7 (4)
     |                                               |                |      [10]{}: leap_second_record 0x794-0x79f.7 (12)
0x790|            00 00 00 00 17 80 fe 0a            |    ........    |        occur: "1982-07-01T00:00:10Z" (394329610) 0x794-0x79b.7 (8)
0x790|                                    00 00 00 0b|            ....|        corr: 11 0x79c-0x79f.7 (4)
     |                                               |                |      [11]{}: leap_second_record 0x7a0-0x7ab.7 (12)
0x7a0|00 00 00 00 19 62 31 8b                        |.....b1.        |        occur: "1983-07-01T00:00:11Z" (425865611) 0x7a0-0x7a7.7 (8)
0x7a0|                        00 00 00 0c            |        ....    |        corr: 12 0x7a8-0x7ab.7 (4)
     |                                               |                |      [12]{}: leap_second_record 0x7ac-0x7b7.7 (12)
0x7a0|                                    00 00 00 00|            ....|        occur: "1985-07-01T00:00:12Z" (489024012) 0x7ac-0x7b3.7 (8)
0x7b0|1d 25 ea 0c                                    |.%..            |
0x7b0|            00 00 00 0d                        |    ....        |        corr: 13 0x7b4-0x7b7.7 (4)
     |                                               |                |      [13]{}: leap_second_record 0x7b8-0x7c3.7 (12)
0x7b0|                        00 00 00 00 21 da e5 0d|        ....!...|        occur: "1988-01-01T00:00:13Z" (567993613) 0x7b8-0x7bf.7 (8)
0x7c0|00 00 00 0e                                    |....            |        corr: 14 0x7c0-0x7c3.7 (4)
     |                                               |                |      [14]{}: leap_second_record 0x7c4-0x7cf.7 (12)
0x7c0|            00 00 00 00 25 9e 9d 8e            |    ....%...    |        occur: "1990-01-01T00:00:14Z" (631152014) 0x7c4-0x7cb.7 (8)
0x7c0|                                    00 00 00 0f|            ....|        corr: 15 0x7cc-0x7cf.7 (4)
     |                                               |                |      [15]{}: leap_second_record 0x7d0-0x7db.7 (12)
0x7d0|00 00 00 00 27 7f d1 0f                        |....'...        |        occur: "1991-01-01T00:00:15Z" (662688015) 0x7d0-0x7d7.7 (8)
0x7d0|                        00 00 00 10            |        ....    |        corr: 16 0x7d8-0x7db.7 (4)
     |                                               |                |      [16]{}: leap_second_record 0x7dc-0x7e7.7 (12)
0x7d0|                                    00 00 00 00|            ....|        occur: "1992-07-01T00:00:16Z" (709948816) 0x7dc-0x7e3.7 (8)
0x7e0|2a 50 f5 90                                    |*P..            |
0x7e0|            00 00 00 11                        |    ....        |        corr: 17 0x7e4-0x7e7.7 (4)
     |                                               |                |      [17]{}: leap_second_record 0x7e8-0x7f3.7 (12)
0x7e0|                        00 00 00 00 2c 32 29 11|        ....,2).|        occur: "1993-07-01T00:00:17Z" (741484817) 0x7e8-0x7ef.7 (8)
0x7f0|00 00 00 12                                    |....            |        corr: 18 0x7f0-0x7f3.7 (4)
     |                                               |                |      [18]{}: leap_second_record 0x7f4-0x7ff.7 (12)
0x7f0|            00 00 00 00 2e 13 5c 92            |    ......\.    |        occur: "1994-07-01T00:00:18Z" (773020818) 0x7f4-0x7fb.7 (8)
0x7f0|                                    00 00 00 13|            ....|        corr: 19 0x7fc-0x7ff.7 (4)
     |                                               |                |      [19]{}: leap_second_record 0x800-0x80b.7 (12)
0x800|00 00 00 00 30 e7 24 13                        |....0.$.        |        occur: "1996-01-01T00:00:19Z" (820454419) 0x800-0x807.7 (8)
0x800|                        00 00 00 14            |        ....    |        corr: 20 0x808-0x80b.7 (4)
     |                                               |                |      [20]{}: leap_second_record 0x80c-0x817.7 (12)
0x800|                                    00 00 00 00|            ....|        occur: "1997-07-01T00:00:20Z" (867715220) 0x80c-0x813.7 (8)
0x810|33 b8 48 94                                    |3.H.            |
0x810|            00 00 00 15                        |    ....        |        corr: 21 0x814-0x817.7 (4)
     |                                               |                |      [21]{}: leap_second_record 0x818-0x823.7 (12)
0x810|                        00 00 00 00 36 8c 10 15|        ....6...|        occur: "1999-01-01T00:00:21Z" (915148821) 0x818-0x81f.7 (8)
0x820|00 00 00 16                                    |....            |        corr: 22 0x820-0x823.7 (4)
     |                                               |                |      [22]{}: leap_second_record 0x824-0x82f.7 (12)
0x820|            00 00 00 00 43 b7 1b 96            |    ....C...    |        occur: "2006-01-01T00:00:22Z" (1136073622) 0x824-0x82b.7 (8)
0x820|                                    00 00 00 17|            ....|        corr: 23 0x82c-0x82f.7 (4)
     |                                               |                |      [23]{}: leap_second_record 0x830-0x83b.7 (12)
0x830|00 00 00 00 49 5c 07 97                        |....I\..        |        occur: "2009-01-01T00:00:23Z" (1230768023) 0x830-0x837.7 (8)
0x830|                        00 00 00 18            |        ....    |        corr: 24 0x838-0x83b.7 (4)
     |                                               |                |      [24]{}: leap_second_record 0x83c-0x847.7 (12)
0x830|                                    00 00 00 00|            ....|        occur: "2012-07-01T00:00:24Z" (1341100824) 0x83c-0x843.7 (8)
0x840|4f ef 93 18                                    |O...            |
0x840|            00 00 00 19                        |    ....        |        corr: 25 0x844-0x847.7 (4)
     |                                               |                |      [25]{}: leap_second_record 0x848-0x853.7 (12)
0x840|                        00 00 00 00 55 93 2d 99|        ....U.-.|        occur: "2015-07-01T00:00:25Z" (1435708825) 0x848-0x84f.7 (8)
0x850|00 00 00 1a                                    |....            |        corr: 26 0x850-0x853.7 (4)
     |                                               |                |      [26]{}: leap_second_record 0x854-0x85f.7 (12)
0x850|            00 00 00 00 58 68 46 9a            |    ....XhF.    |        occur: "2017-01-01T00:00:26Z" (1483228826) 0x854-0x85b.7 (8)
0x850|                                    00 00 00 1b|            ....|        corr: 27 0x85c-0x85f.7 (4)
     |                                               |                |    standard_wall_indicators[0:9]: 0x860-0x868.7 (9)
0x860|00                                             |.               |      [0]: 0 standard_wall_indicator (valid) 0x860-0x860.7 (1)
0x860|   00                                          | .              |      [1]: 0 standard_wall_indicator (valid) 0x861-0x861.7 (1)
0x860|      00                                       |  .             |      [2]: 0 standard_wall_indicator (valid) 0x862-0x862.7 (1)
0x860|         00                                    |   .            |      [3]: 0 standard_wall_indicator (valid) 0x863-0x863.7 (1)
0x860|            01                                 |    .           |      [4]: 1 standard_wall_indicator (valid) 0x864-0x864.7 (1)
0x860|               00                              |     .          |      [5]: 0 standard_wall_indicator (valid) 0x865-0x865.7 (1)
0x860|                  00                           |      .         |      [6]: 0 standard_wall_indicator (valid) 0x866-0x866.7 (1)
0x860|                     00                        |       .        |      [7]: 0 standard_wall_indicator (valid) 0x867-0x867.7 (1)
0x860|                        00                     |        .       |      [8]: 0 standard_wall_indicator (valid) 0x868-0x868.7 (1)
     |                                               |                |    ut_local_indicators[0:9]: 0x869-0x871.7 (9)
0x860|                           00                  |         .      |      [0]: 0 ut_local_indicator (valid) 0x869-0x869.7 (1)
0x860|                              00               |          .     |      [1]: 0 ut_local_indicator (valid) 0x86a-0x86a.7 (1)
0x860|                                 00            |           .    |      [2]: 0 ut_local_indicator (valid) 0x86b-0x86b.7 (1)
0x860|                                    00         |            .   |      [3]: 0 ut_local_indicator (valid) 0x86c-0x86c.7 (1)
0x860|                                       01      |             .  |      [4]: 1 ut_local_indicator (valid) 0x86d-0x86d.7 (1)
0x860|                                          00   |              . |      [5]: 0 ut_local_indicator (valid) 0x86e-0x86e.7 (1)
0x860|                                             00|               .|      [6]: 0 ut_local_indicator (valid) 0x86f-0x86f.7 (1)
0x870|00                                             |.               |      [7]: 0 ut_local_indicator (valid) 0x870-0x870.7 (1)
0x870|   00                                          | .              |      [8]: 0 ut_local_indicator (valid) 0x871-0x871.7 (1)
     |                                               |                |  footer{}: 0x872-0x873.7 (2)
0x870|      0a                                       |  .             |    nl1: 10 (valid) 0x872-0x872.7 (1)
     |                                               |                |    tz_string: "" 0x873-NA (0)
0x870|         0a|                                   |   .|           |    nl2: 10 (valid) 0x873-0x873.7 (1)
