$ fq -d tzif dv Denver
     |00 01 02 03 04 05 06 07 08 09 0a 0b 0c 0d 0e 0f|0123456789abcdef|.{}: Denver (tzif) 0x0-0xa19.7 (2586)
     |                                               |                |  v1header{}: 0x0-0x2b.7 (44)
0x000|54 5a 69 66                                    |TZif            |    magic: 0x545a6966 (valid) 0x0-0x3.7 (4)
0x000|            32                                 |    2           |    ver: "2" (0x32) (valid) 0x4-0x4.7 (1)
0x000|               00 00 00 00 00 00 00 00 00 00 00|     ...........|    reserved: raw bits 0x5-0x13.7 (15)
0x010|00 00 00 00                                    |....            |
0x010|            00 00 00 06                        |    ....        |    isutcnt: 6 0x14-0x17.7 (4)
0x010|                        00 00 00 06            |        ....    |    isstdcnt: 6 0x18-0x1b.7 (4)
0x010|                                    00 00 00 1b|            ....|    leapcnt: 27 0x1c-0x1f.7 (4)
0x020|00 00 00 82                                    |....            |    timecnt: 130 0x20-0x23.7 (4)
0x020|            00 00 00 06                        |    ....        |    typecnt: 6 0x24-0x27.7 (4)
0x020|                        00 00 00 14            |        ....    |    charcnt: 20 0x28-0x2b.7 (4)
     |                                               |                |  v1datablock{}: 0x2c-0x3d1.7 (934)
     |                                               |                |    transition_times[0:130]: 0x2c-0x233.7 (520)
0x020|                                    80 00 00 00|            ....|      [0]: "1901-12-13T20:45:52Z" (-2147483648) transition_time 0x2c-0x2f.7 (4)
0x030|9e a6 3a 90                                    |..:.            |      [1]: "1918-03-31T09:00:00Z" (-1633273200) transition_time 0x30-0x33.7 (4)
0x030|            9f bb 07 80                        |    ....        |      [2]: "1918-10-27T08:00:00Z" (-1615132800) transition_time 0x34-0x37.7 (4)
0x030|                        a0 86 1c 90            |        ....    |      [3]: "1919-03-30T09:00:00Z" (-1601823600) transition_time 0x38-0x3b.7 (4)
0x030|                                    a1 9a e9 80|            ....|      [4]: "1919-10-26T08:00:00Z" (-1583683200) transition_time 0x3c-0x3f.7 (4)
0x040|a2 65 fe 90                                    |.e..            |      [5]: "1920-03-28T09:00:00Z" (-1570374000) transition_time 0x40-0x43.7 (4)
0x040|            a3 84 06 00                        |    ....        |      [6]: "1920-10-31T08:00:00Z" (-1551628800) transition_time 0x44-0x47.7 (4)
0x040|                        a4 45 e0 90            |        .E..    |      [7]: "1921-03-27T09:00:00Z" (-1538924400) transition_time 0x48-0x4b.7 (4)
0x040|                                    a4 8f a6 80|            ....|      [8]: "1921-05-22T08:00:00Z" (-1534089600) transition_time 0x4c-0x4f.7 (4)
0x050|cb 89 0c 90                                    |....            |      [9]: "1942-02-09T09:00:00Z" (-880210800) transition_time 0x50-0x53.7 (4)
0x050|            d2 23 f4 70                        |    .#.p        |      [10]: "1945-08-14T23:00:00Z" (-769395600) transition_time 0x54-0x57.7 (4)
0x050|                        d2 61 18 00            |        .a..    |      [11]: "1945-09-30T08:00:00Z" (-765388800) transition_time 0x58-0x5b.7 (4)
0x050|                                    f7 2f 76 90|            ./v.|      [12]: "1965-04-25T09:00:00Z" (-147884400) transition_time 0x5c-0x5f.7 (4)
0x060|f8 28 94 00                                    |.(..            |      [13]: "1965-10-31T08:00:00Z" (-131558400) transition_time 0x60-0x63.7 (4)
0x060|            f9 0f 58 90                        |    ..X.        |      [14]: "1966-04-24T09:00:00Z" (-116434800) transition_time 0x64-0x67.7 (4)
0x060|                        fa 08 76 00            |        ..v.    |      [15]: "1966-10-30T08:00:00Z" (-100108800) transition_time 0x68-0x6b.7 (4)
0x060|                                    fa f8 75 10|            ..u.|      [16]: "1967-04-30T09:00:00Z" (-84380400) transition_time 0x6c-0x6f.7 (4)
0x070|fb e8 58 00                                    |..X.            |      [17]: "1967-10-29T08:00:00Z" (-68659200) transition_time 0x70-0x73.7 (4)
0x070|            fc d8 57 10                        |    ..W.        |      [18]: "1968-04-28T09:00:00Z" (-52930800) transition_time 0x74-0x77.7 (4)
0x070|                        fd c8 3a 00            |        ..:.    |      [19]: "1968-10-27T08:00:00Z" (-37209600) transition_time 0x78-0x7b.7 (4)
0x070|                                    fe b8 39 10|            ..9.|      [20]: "1969-04-27T09:00:00Z" (-21481200) transition_time 0x7c-0x7f.7 (4)
0x080|ff a8 1c 00                                    |....            |      [21]: "1969-10-26T08:00:00Z" (-5760000) transition_time 0x80-0x83.7 (4)
0x080|            00 98 1b 10                        |    ....        |      [22]: "1970-04-26T09:00:00Z" (9968400) transition_time 0x84-0x87.7 (4)
0x080|                        01 87 fe 00            |        ....    |      [23]: "1970-10-25T08:00:00Z" (25689600) transition_time 0x88-0x8b.7 (4)
0x080|                                    02 77 fd 10|            .w..|      [24]: "1971-04-25T09:00:00Z" (41418000) transition_time 0x8c-0x8f.7 (4)
0x090|03 71 1a 80                                    |.q..            |      [25]: "1971-10-31T08:00:00Z" (57744000) transition_time 0x90-0x93.7 (4)
0x090|            04 61 19 90                        |    .a..        |      [26]: "1972-04-30T09:00:00Z" (73472400) transition_time 0x94-0x97.7 (4)
0x090|                        05 50 fc 81            |        .P..    |      [27]: "1972-10-29T08:00:01Z" (89193601) transition_time 0x98-0x9b.7 (4)
0x090|                                    06 40 fb 92|            .@..|      [28]: "1973-04-29T09:00:02Z" (104922002) transition_time 0x9c-0x9f.7 (4)
0x0a0|07 30 de 82                                    |.0..            |      [29]: "1973-10-28T08:00:02Z" (120643202) transition_time 0xa0-0xa3.7 (4)
0x0a0|            07 8d 35 93                        |    ..5.        |      [30]: "1974-01-06T09:00:03Z" (126694803) transition_time 0xa4-0xa7.7 (4)
0x0a0|                        09 10 c0 83            |        ....    |      [31]: "1974-10-27T08:00:03Z" (152092803) transition_time 0xa8-0xab.7 (4)
0x0a0|                                    09 ad b1 14|            ....|      [32]: "1975-02-23T09:00:04Z" (162378004) transition_time 0xac-0xaf.7 (4)
0x0b0|0a f0 a2 84                                    |....            |      [33]: "1975-10-26T08:00:04Z" (183542404) transition_time 0xb0-0xb3.7 (4)
0x0b0|            0b e0 a1 95                        |    ....        |      [34]: "1976-04-25T09:00:05Z" (199270805) transition_time 0xb4-0xb7.7 (4)
0x0b0|                        0c d9 bf 05            |        ....    |      [35]: "1976-10-31T08:00:05Z" (215596805) transition_time 0xb8-0xbb.7 (4)
0x0b0|                                    0d c0 83 96|            ....|      [36]: "1977-04-24T09:00:06Z" (230720406) transition_time 0xbc-0xbf.7 (4)
0x0c0|0e b9 a1 06                                    |....            |      [37]: "1977-10-30T08:00:06Z" (247046406) transition_time 0xc0-0xc3.7 (4)
0x0c0|            0f a9 a0 17                        |    ....        |      [38]: "1978-04-30T09:00:07Z" (262774807) transition_time 0xc4-0xc7.7 (4)
0x0c0|                        10 99 83 07            |        ....    |      [39]: "1978-10-29T08:00:07Z" (278496007) transition_time 0xc8-0xcb.7 (4)
0x0c0|                                    11 89 82 18|            ....|      [40]: "1979-04-29T09:00:08Z" (294224408) transition_time 0xcc-0xcf.7 (4)
0x0d0|12 79 65 08                                    |.ye.            |      [41]: "1979-10-28T08:00:08Z" (309945608) transition_time 0xd0-0xd3.7 (4)
0x0d0|            13 69 64 19                        |    .id.        |      [42]: "1980-04-27T09:00:09Z" (325674009) transition_time 0xd4-0xd7.7 (4)
0x0d0|                        14 59 47 09            |        .YG.    |      [43]: "1980-10-26T08:00:09Z" (341395209) transition_time 0xd8-0xdb.7 (4)
0x0d0|                                    15 49 46 19|            .IF.|      [44]: "1981-04-26T09:00:09Z" (357123609) transition_time 0xdc-0xdf.7 (4)
0x0e0|16 39 29 0a                                    |.9).            |      [45]: "1981-10-25T08:00:10Z" (372844810) transition_time 0xe0-0xe3.7 (4)
0x0e0|            17 29 28 1a                        |    .)(.        |      [46]: "1982-04-25T09:00:10Z" (388573210) transition_time 0xe4-0xe7.7 (4)
0x0e0|                        18 22 45 8b            |        ."E.    |      [47]: "1982-10-31T08:00:11Z" (404899211) transition_time 0xe8-0xeb.7 (4)
0x0e0|                                    19 09 0a 1b|            ....|      [48]: "1983-04-24T09:00:11Z" (420022811) transition_time 0xec-0xef.7 (4)
0x0f0|1a 02 27 8c                                    |..'.            |      [49]: "1983-10-30T08:00:12Z" (436348812) transition_time 0xf0-0xf3.7 (4)
0x0f0|            1a f2 26 9c                        |    ..&.        |      [50]: "1984-04-29T09:00:12Z" (452077212) transition_time 0xf4-0xf7.7 (4)
0x0f0|                        1b e2 09 8c            |        ....    |      [51]: "1984-10-28T08:00:12Z" (467798412) transition_time 0xf8-0xfb.7 (4)
0x0f0|                                    1c d2 08 9c|            ....|      [52]: "1985-04-28T09:00:12Z" (483526812) transition_time 0xfc-0xff.7 (4)
0x100|1d c1 eb 8d                                    |....            |      [53]: "1985-10-27T08:00:13Z" (499248013) transition_time 0x100-0x103.7 (4)
0x100|            1e b1 ea 9d                        |    ....        |      [54]: "1986-04-27T09:00:13Z" (514976413) transition_time 0x104-0x107.7 (4)
0x100|                        1f a1 cd 8d            |        ....    |      [55]: "1986-10-26T08:00:13Z" (530697613) transition_time 0x108-0x10b.7 (4)
0x100|                                    20 76 1d 1d|             v..|      [56]: "1987-04-05T09:00:13Z" (544611613) transition_time 0x10c-0x10f.7 (4)
0x110|21 81 af 8d                                    |!...            |      [57]: "1987-10-25T08:00:13Z" (562147213) transition_time 0x110-0x113.7 (4)
0x110|            22 55 ff 1e                        |    "U..        |      [58]: "1988-04-03T09:00:14Z" (576061214) transition_time 0x114-0x117.7 (4)
0x110|                        23 6a cc 0e            |        #j..    |      [59]: "1988-10-30T08:00:14Z" (594201614) transition_time 0x118-0x11b.7 (4)
0x110|                                    24 35 e1 1e|            $5..|      [60]: "1989-04-02T09:00:14Z" (607510814) transition_time 0x11c-0x11f.7 (4)
0x120|25 4a ae 0e                                    |%J..            |      [61]: "1989-10-29T08:00:14Z" (625651214) transition_time 0x120-0x123.7 (4)
0x120|            26 15 c3 1f                        |    &...        |      [62]: "1990-04-01T09:00:15Z" (638960415) transition_time 0x124-0x127.7 (4)
0x120|                        27 2a 90 0f            |        '*..    |      [63]: "1990-10-28T08:00:15Z" (657100815) transition_time 0x128-0x12b.7 (4)
0x120|                                    27 fe df a0|            '...|      [64]: "1991-04-07T09:00:16Z" (671014816) transition_time 0x12c-0x12f.7 (4)
0x130|29 0a 72 10                                    |).r.            |      [65]: "1991-10-27T08:00:16Z" (688550416) transition_time 0x130-0x133.7 (4)
0x130|            29 de c1 a0                        |    )...        |      [66]: "1992-04-05T09:00:16Z" (702464416) transition_time 0x134-0x137.7 (4)
0x130|                        2a ea 54 11            |        *.T.    |      [67]: "1992-10-25T08:00:17Z" (720000017) transition_time 0x138-0x13b.7 (4)
0x130|                                    2b be a3 a1|            +...|      [68]: "1993-04-04T09:00:17Z" (733914017) transition_time 0x13c-0x13f.7 (4)
0x140|2c d3 70 92                                    |,.p.            |      [69]: "1993-10-31T08:00:18Z" (752054418) transition_time 0x140-0x143.7 (4)
0x140|            2d 9e 85 a2                        |    -...        |      [70]: "1994-04-03T09:00:18Z" (765363618) transition_time 0x144-0x147.7 (4)
0x140|                        2e b3 52 93            |        ..R.    |      [71]: "1994-10-30T08:00:19Z" (783504019) transition_time 0x148-0x14b.7 (4)
0x140|                                    2f 7e 67 a3|            /~g.|      [72]: "1995-04-02T09:00:19Z" (796813219) transition_time 0x14c-0x14f.7 (4)
0x150|30 93 34 93                                    |0.4.            |      [73]: "1995-10-29T08:00:19Z" (814953619) transition_time 0x150-0x153.7 (4)
0x150|            31 67 84 24                        |    1g.$        |      [74]: "1996-04-07T09:00:20Z" (828867620) transition_time 0x154-0x157.7 (4)
0x150|                        32 73 16 94            |        2s..    |      [75]: "1996-10-27T08:00:20Z" (846403220) transition_time 0x158-0x15b.7 (4)
0x150|                                    33 47 66 24|            3Gf$|      [76]: "1997-04-06T09:00:20Z" (860317220) transition_time 0x15c-0x15f.7 (4)
0x160|34 52 f8 95                                    |4R..            |      [77]: "1997-10-26T08:00:21Z" (877852821) transition_time 0x160-0x163.7 (4)
0x160|            35 27 48 25                        |    5'H%        |      [78]: "1998-04-05T09:00:21Z" (891766821) transition_time 0x164-0x167.7 (4)
0x160|                        36 32 da 95            |        62..    |      [79]: "1998-10-25T08:00:21Z" (909302421) transition_time 0x168-0x16b.7 (4)
0x160|                                    37 07 2a 26|            7.*&|      [80]: "1999-04-04T09:00:22Z" (923216422) transition_time 0x16c-0x16f.7 (4)
0x170|38 1b f7 16                                    |8...            |      [81]: "1999-10-31T08:00:22Z" (941356822) transition_time 0x170-0x173.7 (4)
0x170|            38 e7 0c 26                        |    8..&        |      [82]: "2000-04-02T09:00:22Z" (954666022) transition_time 0x174-0x177.7 (4)
0x170|                        39 fb d9 16            |        9...    |      [83]: "2000-10-29T08:00:22Z" (972806422) transition_time 0x178-0x17b.7 (4)
0x170|                                    3a c6 ee 26|            :..&|      [84]: "2001-04-01T09:00:22Z" (986115622) transition_time 0x17c-0x17f.7 (4)
0x180|3b db bb 16                                    |;...            |      [85]: "2001-10-28T08:00:22Z" (1004256022) transition_time 0x180-0x183.7 (4)
0x180|            3c b0 0a a6                        |    <...        |      [86]: "2002-04-07T09:00:22Z" (1018170022) transition_time 0x184-0x187.7 (4)
0x180|                        3d bb 9d 16            |        =...    |      [87]: "2002-10-27T08:00:22Z" (1035705622) transition_time 0x188-0x18b.7 (4)
0x180|                                    3e 8f ec a6|            >...|      [88]: "2003-04-06T09:00:22Z" (1049619622) transition_time 0x18c-0x18f.7 (4)
0x190|3f 9b 7f 16                                    |?...            |      [89]: "2003-10-26T08:00:22Z" (1067155222) transition_time 0x190-0x193.7 (4)
0x190|            40 6f ce a6                        |    @o..        |      [90]: "2004-04-04T09:00:22Z" (1081069222) transition_time 0x194-0x197.7 (4)
0x190|                        41 84 9b 96            |        A...    |      [91]: "2004-10-31T08:00:22Z" (1099209622) transition_time 0x198-0x19b.7 (4)
0x190|                                    42 4f b0 a6|            BO..|      [92]: "2005-04-03T09:00:22Z" (1112518822) transition_time 0x19c-0x19f.7 (4)
0x1a0|43 64 7d 96                                    |Cd}.            |      [93]: "2005-10-30T08:00:22Z" (1130659222) transition_time 0x1a0-0x1a3.7 (4)
0x1a0|            44 2f 92 a7                        |    D/..        |      [94]: "2006-04-02T09:00:23Z" (1143968423) transition_time 0x1a4-0x1a7.7 (4)
0x1a0|                        45 44 5f 97            |        ED_.    |      [95]: "2006-10-29T08:00:23Z" (1162108823) transition_time 0x1a8-0x1ab.7 (4)
0x1a0|                                    45 f3 c5 27|            E..'|      [96]: "2007-03-11T09:00:23Z" (1173603623) transition_time 0x1ac-0x1af.7 (4)
0x1b0|47 2d 7c 17                                    |G-|.            |      [97]: "2007-11-04T08:00:23Z" (1194163223) transition_time 0x1b0-0x1b3.7 (4)
0x1b0|            47 d3 a7 27                        |    G..'        |      [98]: "2008-03-09T09:00:23Z" (1205053223) transition_time 0x1b4-0x1b7.7 (4)
0x1b0|                        49 0d 5e 17            |        I.^.    |      [99]: "2008-11-02T08:00:23Z" (1225612823) transition_time 0x1b8-0x1bb.7 (4)
0x1b0|                                    49 b3 89 28|            I..(|      [100]: "2009-03-08T09:00:24Z" (1236502824) transition_time 0x1bc-0x1bf.7 (4)
0x1c0|4a ed 40 18                                    |J.@.            |      [101]: "2009-11-01T08:00:24Z" (1257062424) transition_time 0x1c0-0x1c3.7 (4)
0x1c0|            4b 9c a5 a8                        |    K...        |      [102]: "2010-03-14T09:00:24Z" (1268557224) transition_time 0x1c4-0x1c7.7 (4)
0x1c0|                        4c d6 5c 98            |        L.\.    |      [103]: "2010-11-07T08:00:24Z" (1289116824) transition_time 0x1c8-0x1cb.7 (4)
0x1c0|                                    4d 7c 87 a8|            M|..|      [104]: "2011-03-13T09:00:24Z" (1300006824) transition_time 0x1cc-0x1cf.7 (4)
0x1d0|4e b6 3e 98                                    |N.>.            |      [105]: "2011-11-06T08:00:24Z" (1320566424) transition_time 0x1d0-0x1d3.7 (4)
0x1d0|            4f 5c 69 a8                        |    O\i.        |      [106]: "2012-03-11T09:00:24Z" (1331456424) transition_time 0x1d4-0x1d7.7 (4)
0x1d0|                        50 96 20 99            |        P. .    |      [107]: "2012-11-04T08:00:25Z" (1352016025) transition_time 0x1d8-0x1db.7 (4)
0x1d0|                                    51 3c 4b a9|            Q<K.|      [108]: "2013-03-10T09:00:25Z" (1362906025) transition_time 0x1dc-0x1df.7 (4)
0x1e0|52 76 02 99                                    |Rv..            |      [109]: "2013-11-03T08:00:25Z" (1383465625) transition_time 0x1e0-0x1e3.7 (4)
0x1e0|            53 1c 2d a9                        |    S.-.        |      [110]: "2014-03-09T09:00:25Z" (1394355625) transition_time 0x1e4-0x1e7.7 (4)
0x1e0|                        54 55 e4 99            |        TU..    |      [111]: "2014-11-02T08:00:25Z" (1414915225) transition_time 0x1e8-0x1eb.7 (4)
0x1e0|                                    54 fc 0f a9|            T...|      [112]: "2015-03-08T09:00:25Z" (1425805225) transition_time 0x1ec-0x1ef.7 (4)
0x1f0|56 35 c6 9a                                    |V5..            |      [113]: "2015-11-01T08:00:26Z" (1446364826) transition_time 0x1f0-0x1f3.7 (4)
0x1f0|            56 e5 2c 2a                        |    V.,*        |      [114]: "2016-03-13T09:00:26Z" (1457859626) transition_time 0x1f4-0x1f7.7 (4)
0x1f0|                        58 1e e3 1a            |        X...    |      [115]: "2016-11-06T08:00:26Z" (1478419226) transition_time 0x1f8-0x1fb.7 (4)
0x1f0|                                    58 c5 0e 2b|            X..+|      [116]: "2017-03-12T09:00:27Z" (1489309227) transition_time 0x1fc-0x1ff.7 (4)
0x200|59 fe c5 1b                                    |Y...            |      [117]: "2017-11-05T08:00:27Z" (1509868827) transition_time 0x200-0x203.7 (4)
0x200|            5a a4 f0 2b                        |    Z..+        |      [118]: "2018-03-11T09:00:27Z" (1520758827) transition_time 0x204-0x207.7 (4)
0x200|                        5b de a7 1b            |        [...    |      [119]: "2018-11-04T08:00:27Z" (1541318427) transition_time 0x208-0x20b.7 (4)
0x200|                                    5c 84 d2 2b|            \..+|      [120]: "2019-03-10T09:00:27Z" (1552208427) transition_time 0x20c-0x20f.7 (4)
0x210|5d be 89 1b                                    |]...            |      [121]: "2019-11-03T08:00:27Z" (1572768027) transition_time 0x210-0x213.7 (4)
0x210|            5e 64 b4 2b                        |    ^d.+        |      [122]: "2020-03-08T09:00:27Z" (1583658027) transition_time 0x214-0x217.7 (4)
0x210|                        5f 9e 6b 1b            |        _.k.    |      [123]: "2020-11-01T08:00:27Z" (1604217627) transition_time 0x218-0x21b.7 (4)
0x210|                                    60 4d d0 ab|            `M..|      [124]: "2021-03-14T09:00:27Z" (1615712427) transition_time 0x21c-0x21f.7 (4)
0x220|61 87 87 9b                                    |a...            |      [125]: "2021-11-07T08:00:27Z" (1636272027) transition_time 0x220-0x223.7 (4)
0x220|            62 2d b2 ab                        |    b-..        |      [126]: "2022-03-13T09:00:27Z" (1647162027) transition_time 0x224-0x227.7 (4)
0x220|                        63 67 69 9b            |        cgi.    |      [127]: "2022-11-06T08:00:27Z" (1667721627) transition_time 0x228-0x22b.7 (4)
0x220|                                    64 0d 94 ab|            d...|      [128]: "2023-03-12T09:00:27Z" (1678611627) transition_time 0x22c-0x22f.7 (4)
0x230|64 9b 78 1b                                    |d.x.            |      [129]: "2023-06-28T00:00:27Z" (1687910427) transition_time 0x230-0x233.7 (4)
     |                                               |                |    transition_types[0:130]: 0x234-0x2b5.7 (130)
0x230|            03                                 |    .           |      [0]: 3 transition_type 0x234-0x234.7 (1)
0x230|               01                              |     .          |      [1]: 1 transition_type 0x235-0x235.7 (1)
0x230|                  02                           |      .         |      [2]: 2 transition_type 0x236-0x236.7 (1)
0x230|                     01                        |       .        |      [3]: 1 transition_type 0x237-0x237.7 (1)
0x230|                        02                     |        .       |      [4]: 2 transition_type 0x238-0x238.7 (1)
0x230|                           01                  |         .      |      [5]: 1 transition_type 0x239-0x239.7 (1)
0x230|                              02               |          .     |      [6]: 2 transition_type 0x23a-0x23a.7 (1)
0x230|                                 01            |           .    |      [7]: 1 transition_type 0x23b-0x23b.7 (1)
0x230|                                    02         |            .   |      [8]: 2 transition_type 0x23c-0x23c.7 (1)
0x230|                                       04      |             .  |      [9]: 4 transition_type 0x23d-0x23d.7 (1)
0x230|                                          05   |              . |      [10]: 5 transition_type 0x23e-0x23e.7 (1)
0x230|                                             02|               .|      [11]: 2 transition_type 0x23f-0x23f.7 (1)
0x240|01                                             |.               |      [12]: 1 transition_type 0x240-0x240.7 (1)
0x240|   02                                          | .              |      [13]: 2 transition_type 0x241-0x241.7 (1)
0x240|      01                                       |  .             |      [14]: 1 transition_type 0x242-0x242.7 (1)
0x240|         02                                    |   .            |      [15]: 2 transition_type 0x243-0x243.7 (1)
0x240|            01                                 |    .           |      [16]: 1 transition_type 0x244-0x244.7 (1)
0x240|               02                              |     .          |      [17]: 2 transition_type 0x245-0x245.7 (1)
0x240|                  01                           |      .         |      [18]: 1 transition_type 0x246-0x246.7 (1)
0x240|                     02                        |       .        |      [19]: 2 transition_type 0x247-0x247.7 (1)
0x240|                        01                     |        .       |      [20]: 1 transition_type 0x248-0x248.7 (1)
0x240|                           02                  |         .      |      [21]: 2 transition_type 0x249-0x249.7 (1)
0x240|                              01               |          .     |      [22]: 1 transition_type 0x24a-0x24a.7 (1)
0x240|                                 02            |           .    |      [23]: 2 transition_type 0x24b-0x24b.7 (1)
0x240|                                    01         |            .   |      [24]: 1 transition_type 0x24c-0x24c.7 (1)
0x240|                                       02      |             .  |      [25]: 2 transition_type 0x24d-0x24d.7 (1)
0x240|                                          01   |              . |      [26]: 1 transition_type 0x24e-0x24e.7 (1)
0x240|                                             02|               .|      [27]: 2 transition_type 0x24f-0x24f.7 (1)
0x250|01                                             |.               |      [28]: 1 transition_type 0x250-0x250.7 (1)
0x250|   02                                          | .              |      [29]: 2 transition_type 0x251-0x251.7 (1)
0x250|      01                                       |  .             |      [30]: 1 transition_type 0x252-0x252.7 (1)
0x250|         02                                    |   .            |      [31]: 2 transition_type 0x253-0x253.7 (1)
0x250|            01                                 |    .           |      [32]: 1 transition_type 0x254-0x254.7 (1)
0x250|               02                              |     .          |      [33]: 2 transition_type 0x255-0x255.7 (1)
0x250|                  01                           |      .         |      [34]: 1 transition_type 0x256-0x256.7 (1)
0x250|                     02                        |       .        |      [35]: 2 transition_type 0x257-0x257.7 (1)
0x250|                        01                     |        .       |      [36]: 1 transition_type 0x258-0x258.7 (1)
0x250|                           02                  |         .      |      [37]: 2 transition_type 0x259-0x259.7 (1)
0x250|                              01               |          .     |      [38]: 1 transition_type 0x25a-0x25a.7 (1)
0x250|                                 02            |           .    |      [39]: 2 transition_type 0x25b-0x25b.7 (1)
0x250|                                    01         |            .   |      [40]: 1 transition_type 0x25c-0x25c.7 (1)
0x250|                                       02      |             .  |      [41]: 2 transition_type 0x25d-0x25d.7 (1)
0x250|                                          01   |              . |      [42]: 1 transition_type 0x25e-0x25e.7 (1)
0x250|                                             02|               .|      [43]: 2 transition_type 0x25f-0x25f.7 (1)
0x260|01                                             |.               |      [44]: 1 transition_type 0x260-0x260.7 (1)
0x260|   02                                          | .              |      [45]: 2 transition_type 0x261-0x261.7 (1)
0x260|      01                                       |  .             |      [46]: 1 transition_type 0x262-0x262.7 (1)
0x260|         02                                    |   .            |      [47]: 2 transition_type 0x263-0x263.7 (1)
0x260|            01                                 |    .           |      [48]: 1 transition_type 0x264-0x264.7 (1)
0x260|               02                              |     .          |      [49]: 2 transition_type 0x265-0x265.7 (1)
0x260|                  01                           |      .         |      [50]: 1 transition_type 0x266-0x266.7 (1)
0x260|                     02                        |       .        |      [51]: 2 transition_type 0x267-0x267.7 (1)
0x260|                        01                     |        .       |      [52]: 1 transition_type 0x268-0x268.7 (1)
0x260|                           02                  |         .      |      [53]: 2 transition_type 0x269-0x269.7 (1)
0x260|                              01               |          .     |      [54]: 1 transition_type 0x26a-0x26a.7 (1)
0x260|                                 02            |           .    |      [55]: 2 transition_type 0x26b-0x26b.7 (1)
0x260|                                    01         |            .   |      [56]: 1 transition_type 0x26c-0x26c.7 (1)
0x260|                                       02      |             .  |      [57]: 2 transition_type 0x26d-0x26d.7 (1)
0x260|                                          01   |              . |      [58]: 1 transition_type 0x26e-0x26e.7 (1)
0x260|                                             02|               .|      [59]: 2 transition_type 0x26f-0x26f.7 (1)
0x270|01                                             |.               |      [60]: 1 transition_type 0x270-0x270.7 (1)
0x270|   02                                          | .              |      [61]: 2 transition_type 0x271-0x271.7 (1)
0x270|      01                                       |  .             |      [62]: 1 transition_type 0x272-0x272.7 (1)
0x270|         02                                    |   .            |      [63]: 2 transition_type 0x273-0x273.7 (1)
0x270|            01                                 |    .           |      [64]: 1 transition_type 0x274-0x274.7 (1)
0x270|               02                              |     .          |      [65]: 2 transition_type 0x275-0x275.7 (1)
0x270|                  01                           |      .         |      [66]: 1 transition_type 0x276-0x276.7 (1)
0x270|                     02                        |       .        |      [67]: 2 transition_type 0x277-0x277.7 (1)
0x270|                        01                     |        .       |      [68]: 1 transition_type 0x278-0x278.7 (1)
0x270|                           02                  |         .      |      [69]: 2 transition_type 0x279-0x279.7 (1)
0x270|                              01               |          .     |      [70]: 1 transition_type 0x27a-0x27a.7 (1)
0x270|                                 02            |           .    |      [71]: 2 transition_type 0x27b-0x27b.7 (1)
0x270|                                    01         |            .   |      [72]: 1 transition_type 0x27c-0x27c.7 (1)
0x270|                                       02      |             .  |      [73]: 2 transition_type 0x27d-0x27d.7 (1)
0x270|                                          01   |              . |      [74]: 1 transition_type 0x27e-0x27e.7 (1)
0x270|                                             02|               .|      [75]: 2 transition_type 0x27f-0x27f.7 (1)
0x280|01                                             |.               |      [76]: 1 transition_type 0x280-0x280.7 (1)
0x280|   02                                          | .              |      [77]: 2 transition_type 0x281-0x281.7 (1)
0x280|      01                                       |  .             |      [78]: 1 transition_type 0x282-0x282.7 (1)
0x280|         02                                    |   .            |      [79]: 2 transition_type 0x283-0x283.7 (1)
0x280|            01                                 |    .           |      [80]: 1 transition_type 0x284-0x284.7 (1)
0x280|               02                              |     .          |      [81]: 2 transition_type 0x285-0x285.7 (1)
0x280|                  01                           |      .         |      [82]: 1 transition_type 0x286-0x286.7 (1)
0x280|                     02                        |       .        |      [83]: 2 transition_type 0x287-0x287.7 (1)
0x280|                        01                     |        .       |      [84]: 1 transition_type 0x288-0x288.7 (1)
0x280|                           02                  |         .      |      [85]: 2 transition_type 0x289-0x289.7 (1)
0x280|                              01               |          .     |      [86]: 1 transition_type 0x28a-0x28a.7 (1)
0x280|                                 02            |           .    |      [87]: 2 transition_type 0x28b-0x28b.7 (1)
0x280|                                    01         |            .   |      [88]: 1 transition_type 0x28c-0x28c.7 (1)
0x280|                                       02      |             .  |      [89]: 2 transition_type 0x28d-0x28d.7 (1)
0x280|                                          01   |              . |      [90]: 1 transition_type 0x28e-0x28e.7 (1)
0x280|                                             02|               .|      [91]: 2 transition_type 0x28f-0x28f.7 (1)
0x290|01                                             |.               |      [92]: 1 transition_type 0x290-0x290.7 (1)
0x290|   02                                          | .              |      [93]: 2 transition_type 0x291-0x291.7 (1)
0x290|      01                                       |  .             |      [94]: 1 transition_type 0x292-0x292.7 (1)
0x290|         02                                    |   .            |      [95]: 2 transition_type 0x293-0x293.7 (1)
0x290|            01                                 |    .           |      [96]: 1 transition_type 0x294-0x294.7 (1)
0x290|               02                              |     .          |      [97]: 2 transition_type 0x295-0x295.7 (1)
0x290|                  01                           |      .         |      [98]: 1 transition_type 0x296-0x296.7 (1)
0x290|                     02                        |       .        |      [99]: 2 transition_type 0x297-0x297.7 (1)
0x290|                        01                     |        .       |      [100]: 1 transition_type 0x298-0x298.7 (1)
0x290|                           02                  |         .      |      [101]: 2 transition_type 0x299-0x299.7 (1)
0x290|                              01               |          .     |      [102]: 1 transition_type 0x29a-0x29a.7 (1)
0x290|                                 02            |           .    |      [103]: 2 transition_type 0x29b-0x29b.7 (1)
0x290|                                    01         |            .   |      [104]: 1 transition_type 0x29c-0x29c.7 (1)
0x290|                                       02      |             .  |      [105]: 2 transition_type 0x29d-0x29d.7 (1)
0x290|                                          01   |              . |      [106]: 1 transition_type 0x29e-0x29e.7 (1)
0x290|                                             02|               .|      [107]: 2 transition_type 0x29f-0x29f.7 (1)
0x2a0|01                                             |.               |      [108]: 1 transition_type 0x2a0-0x2a0.7 (1)
0x2a0|   02                                          | .              |      [109]: 2 transition_type 0x2a1-0x2a1.7 (1)
0x2a0|      01                                       |  .             |      [110]: 1 transition_type 0x2a2-0x2a2.7 (1)
0x2a0|         02                                    |   .            |      [111]: 2 transition_type 0x2a3-0x2a3.7 (1)
0x2a0|            01                                 |    .           |      [112]: 1 transition_type 0x2a4-0x2a4.7 (1)
0x2a0|               02                              |     .          |      [113]: 2 transition_type 0x2a5-0x2a5.7 (1)
0x2a0|                  01                           |      .         |      [114]: 1 transition_type 0x2a6-0x2a6.7 (1)
0x2a0|                     02                        |       .        |      [115]: 2 transition_type 0x2a7-0x2a7.7 (1)
0x2a0|                        01                     |        .       |      [116]: 1 transition_type 0x2a8-0x2a8.7 (1)
0x2a0|                           02                  |         .      |      [117]: 2 transition_type 0x2a9-0x2a9.7 (1)
0x2a0|                              01               |          .     |      [118]: 1 transition_type 0x2aa-0x2aa.7 (1)
0x2a0|                                 02            |           .    |      [119]: 2 transition_type 0x2ab-0x2ab.7 (1)
0x2a0|                                    01         |            .   |      [120]: 1 transition_type 0x2ac-0x2ac.7 (1)
0x2a0|                                       02      |             .  |      [121]: 2 transition_type 0x2ad-0x2ad.7 (1)
0x2a0|                                          01   |              . |      [122]: 1 transition_type 0x2ae-0x2ae.7 (1)
0x2a0|                                             02|               .|      [123]: 2 transition_type 0x2af-0x2af.7 (1)
0x2b0|01                                             |.               |      [124]: 1 transition_type 0x2b0-0x2b0.7 (1)
0x2b0|   02                                          | .              |      [125]: 2 transition_type 0x2b1-0x2b1.7 (1)
0x2b0|      01                                       |  .             |      [126]: 1 transition_type 0x2b2-0x2b2.7 (1)
0x2b0|         02                                    |   .            |      [127]: 2 transition_type 0x2b3-0x2b3.7 (1)
0x2b0|            01                                 |    .           |      [128]: 1 transition_type 0x2b4-0x2b4.7 (1)
0x2b0|               01                              |     .          |      [129]: 1 transition_type 0x2b5-0x2b5.7 (1)
     |                                               |                |    local_time_type_records[0:6]: 0x2b6-0x2d9.7 (36)
     |                                               |                |      [0]{}: local_time_type 0x2b6-0x2bb.7 (6)
0x2b0|                  ff ff 9d 94                  |      ....      |        utoff: -25196 (valid) 0x2b6-0x2b9.7 (4)
0x2b0|                              00               |          .     |        dst: 0 (valid) 0x2ba-0x2ba.7 (1)
0x2b0|                                 00            |           .    |        idx: 0 (valid) 0x2bb-0x2bb.7 (1)
     |                                               |                |      [1]{}: local_time_type 0x2bc-0x2c1.7 (6)
0x2b0|                                    ff ff ab a0|            ....|        utoff: -21600 (valid) 0x2bc-0x2bf.7 (4)
0x2c0|01                                             |.               |        dst: 1 (valid) 0x2c0-0x2c0.7 (1)
0x2c0|   04                                          | .              |        idx: 4 (valid) 0x2c1-0x2c1.7 (1)
     |                                               |                |      [2]{}: local_time_type 0x2c2-0x2c7.7 (6)
0x2c0|      ff ff 9d 90                              |  ....          |        utoff: -25200 (valid) 0x2c2-0x2c5.7 (4)
0x2c0|                  00                           |      .         |        dst: 0 (valid) 0x2c6-0x2c6.7 (1)
0x2c0|                     08                        |       .        |        idx: 8 (valid) 0x2c7-0x2c7.7 (1)
     |                                               |                |      [3]{}: local_time_type 0x2c8-0x2cd.7 (6)
0x2c0|                        ff ff 9d 90            |        ....    |        utoff: -25200 (valid) 0x2c8-0x2cb.7 (4)
0x2c0|                                    00         |            .   |        dst: 0 (valid) 0x2cc-0x2cc.7 (1)
0x2c0|                                       08      |             .  |        idx: 8 (valid) 0x2cd-0x2cd.7 (1)
     |                                               |                |      [4]{}: local_time_type 0x2ce-0x2d3.7 (6)
0x2c0|                                          ff ff|              ..|        utoff: -21600 (valid) 0x2ce-0x2d1.7 (4)
0x2d0|ab a0                                          |..              |
0x2d0|      01                                       |  .             |        dst: 1 (valid) 0x2d2-0x2d2.7 (1)
0x2d0|         0c                                    |   .            |        idx: 12 (valid) 0x2d3-0x2d3.7 (1)
     |                                               |                |      [5]{}: local_time_type 0x2d4-0x2d9.7 (6)
0x2d0|            ff ff ab a0                        |    ....        |        utoff: -21600 (valid) 0x2d4-0x2d7.7 (4)
0x2d0|                        01                     |        .       |        dst: 1 (valid) 0x2d8-0x2d8.7 (1)
0x2d0|                           10                  |         .      |        idx: 16 (valid) 0x2d9-0x2d9.7 (1)
     |                                               |                |    time_zone_designations[0:5]: 0x2da-0x2ed.7 (20)
0x2d0|                              4c 4d 54 00      |          LMT.  |      [0]: "LMT" time_zone_designation 0x2da-0x2dd.7 (4)
0x2d0|                                          4d 44|              MD|      [1]: "MDT" time_zone_designation 0x2de-0x2e1.7 (4)
0x2e0|54 00                                          |T.              |
0x2e0|      4d 53 54 00                              |  MST.          |      [2]: "MST" time_zone_designation 0x2e2-0x2e5.7 (4)
0x2e0|                  4d 57 54 00                  |      MWT.      |      [3]: "MWT" time_zone_designation 0x2e6-0x2e9.7 (4)
0x2e0|                              4d 50 54 00      |          MPT.  |      [4]: "MPT" time_zone_designation 0x2ea-0x2ed.7 (4)
     |                                               |                |    leap_second_records[0:27]: 0x2ee-0x3c5.7 (216)
     |                                               |                |      [0]{}: leap_second_record 0x2ee-0x2f5.7 (8)
0x2e0|                                          04 b2|              ..|        occur: "1972-07-01T00:00:00Z" (78796800) 0x2ee-0x2f1.7 (4)
0x2f0|58 00                                          |X.              |
0x2f0|      00 00 00 01                              |  ....          |        corr: 1 0x2f2-0x2f5.7 (4)
     |                                               |                |      [1]{}: leap_second_record 0x2f6-0x2fd.7 (8)
0x2f0|                  05 a4 ec 01                  |      ....      |        occur: "1973-01-01T00:00:01Z" (94694401) 0x2f6-0x2f9.7 (4)
0x2f0|                              00 00 00 02      |          ....  |        corr: 2 0x2fa-0x2fd.7 (4)
     |                                               |                |      [2]{}: leap_second_record 0x2fe-0x305.7 (8)
0x2f0|                                          07 86|              ..|        occur: "1974-01-01T00:00:02Z" (126230402) 0x2fe-0x301.7 (4)
0x300|1f 82                                          |..              |
0x300|      00 00 00 03                              |  ....          |        corr: 3 0x302-0x305.7 (4)
     |                                               |                |      [3]{}: leap_second_record 0x306-0x30d.7 (8)
0x300|                  09 67 53 03                  |      .gS.      |        occur: "1975-01-01T00:00:03Z" (157766403) 0x306-0x309.7 (4)
0x300|                              00 00 00 04      |          ....  |        corr: 4 0x30a-0x30d.7 (4)
     |                                               |                |      [4]{}: leap_second_record 0x30e-0x315.7 (8)
0x300|                                          0b 48|              .H|        occur: "1976-01-01T00:00:04Z" (189302404) 0x30e-0x311.7 (4)
0x310|86 84                                          |..              |
0x310|      00 00 00 05                              |  ....          |        corr: 5 0x312-0x315.7 (4)
     |                                               |                |      [5]{}: leap_second_record 0x316-0x31d.7 (8)
0x310|                  0d 2b 0b 85                  |      .+..      |        occur: "1977-01-01T00:00:05Z" (220924805) 0x316-0x319.7 (4)
0x310|                              00 00 00 06      |          ....  |        corr: 6 0x31a-0x31d.7 (4)
     |                                               |                |      [6]{}: leap_second_record 0x31e-0x325.7 (8)
0x310|                                          0f 0c|              ..|        occur: "1978-01-01T00:00:06Z" (252460806) 0x31e-0x321.7 (4)
0x320|3f 06                                          |?.              |
0x320|      00 00 00 07                              |  ....          |        corr: 7 0x322-0x325.7 (4)
     |                                               |                |      [7]{}: leap_second_record 0x326-0x32d.7 (8)
0x320|                  10 ed 72 87                  |      ..r.      |        occur: "1979-01-01T00:00:07Z" (283996807) 0x326-0x329.7 (4)
0x320|                              00 00 00 08      |          ....  |        corr: 8 0x32a-0x32d.7 (4)
     |                                               |                |      [8]{}: leap_second_record 0x32e-0x335.7 (8)
0x320|                                          12 ce|              ..|        occur: "1980-01-01T00:00:08Z" (315532808) 0x32e-0x331.7 (4)
0x330|a6 08                                          |..              |
0x330|      00 00 00 09                              |  ....          |        corr: 9 0x332-0x335.7 (4)
     |                                               |                |      [9]{}: leap_second_record 0x336-0x33d.7 (8)
0x330|                  15 9f ca 89                  |      ....      |        occur: "1981-07-01T00:00:09Z" (362793609) 0x336-0x339.7 (4)
0x330|                              00 00 00 0a      |          ....  |        corr: 10 0x33a-0x33d.7 (4)
     |                                               |                |      [10]{}: leap_second_record 0x33e-0x345.7 (8)
0x330|                                          17 80|              ..|        occur: "1982-07-01T00:00:10Z" (394329610) 0x33e-0x341.7 (4)
0x340|fe 0a                                          |..              |
0x340|      00 00 00 0b                              |  ....          |        corr: 11 0x342-0x345.7 (4)
     |                                               |                |      [11]{}: leap_second_record 0x346-0x34d.7 (8)
0x340|                  19 62 31 8b                  |      .b1.      |        occur: "1983-07-01T00:00:11Z" (425865611) 0x346-0x349.7 (4)
0x340|                              00 00 00 0c      |          ....  |        corr: 12 0x34a-0x34d.7 (4)
     |                                               |                |      [12]{}: leap_second_record 0x34e-0x355.7 (8)
0x340|                                          1d 25|              .%|        occur: "1985-07-01T00:00:12Z" (489024012) 0x34e-0x351.7 (4)
0x350|ea 0c                                          |..              |
0x350|      00 00 00 0d                              |  ....          |        corr: 13 0x352-0x355.7 (4)
     |                                               |                |      [13]{}: leap_second_record 0x356-0x35d.7 (8)
0x350|                  21 da e5 0d                  |      !...      |        occur: "1988-01-01T00:00:13Z" (567993613) 0x356-0x359.7 (4)
0x350|                              00 00 00 0e      |          ....  |        corr: 14 0x35a-0x35d.7 (4)
     |                                               |                |      [14]{}: leap_second_record 0x35e-0x365.7 (8)
0x350|                                          25 9e|              %.|        occur: "1990-01-01T00:00:14Z" (631152014) 0x35e-0x361.7 (4)
0x360|9d 8e                                          |..              |
0x360|      00 00 00 0f                              |  ....          |        corr: 15 0x362-0x365.7 (4)
     |                                               |                |      [15]{}: leap_second_record 0x366-0x36d.7 (8)
0x360|                  27 7f d1 0f                  |      '...      |        occur: "1991-01-01T00:00:15Z" (662688015) 0x366-0x369.7 (4)
0x360|                              00 00 00 10      |          ....  |        corr: 16 0x36a-0x36d.7 (4)
     |                                               |                |      [16]{}: leap_second_record 0x36e-0x375.7 (8)
0x360|                                          2a 50|              *P|        occur: "1992-07-01T00:00:16Z" (709948816) 0x36e-0x371.7 (4)
0x370|f5 90                                          |..              |
0x370|      00 00 00 11                              |  ....          |        corr: 17 0x372-0x375.7 (4)
     |                                               |                |      [17]{}: leap_second_record 0x376-0x37d.7 (8)
0x370|                  2c 32 29 11                  |      ,2).      |        occur: "1993-07-01T00:00:17Z" (741484817) 0x376-0x379.7 (4)
0x370|                              00 00 00 12      |          ....  |        corr: 18 0x37a-0x37d.7 (4)
     |                                               |                |      [18]{}: leap_second_record 0x37e-0x385.7 (8)
0x370|                                          2e 13|              ..|        occur: "1994-07-01T00:00:18Z" (773020818) 0x37e-0x381.7 (4)
0x380|5c 92                                          |\.              |
0x380|      00 00 00 13                              |  ....          |        corr: 19 0x382-0x385.7 (4)
     |                                               |                |      [19]{}: leap_second_record 0x386-0x38d.7 (8)
0x380|                  30 e7 24 13                  |      0.$.      |        occur: "1996-01-01T00:00:19Z" (820454419) 0x386-0x389.7 (4)
0x380|                              00 00 00 14      |          ....  |        corr: 20 0x38a-0x38d.7 (4)
     |                                               |                |      [20]{}: leap_second_record 0x38e-0x395.7 (8)
0x380|                                          33 b8|              3.|        occur: "1997-07-01T00:00:20Z" (867715220) 0x38e-0x391.7 (4)
0x390|48 94                                          |H.              |
0x390|      00 00 00 15                              |  ....          |        corr: 21 0x392-0x395.7 (4)
     |                                               |                |      [21]{}: leap_second_record 0x396-0x39d.7 (8)
0x390|                  36 8c 10 15                  |      6...      |        occur: "1999-01-01T00:00:21Z" (915148821) 0x396-0x399.7 (4)
0x390|                              00 00 00 16      |          ....  |        corr: 22 0x39a-0x39d.7 (4)
     |                                               |                |      [22]{}: leap_second_record 0x39e-0x3a5.7 (8)
0x390|                                          43 b7|              C.|        occur: "2006-01-01T00:00:22Z" (1136073622) 0x39e-0x3a1.7 (4)
0x3a0|1b 96                                          |..              |
0x3a0|      00 00 00 17                              |  ....          |        corr: 23 0x3a2-0x3a5.7 (4)
     |                                               |                |      [23]{}: leap_second_record 0x3a6-0x3ad.7 (8)
0x3a0|                  49 5c 07 97                  |      I\..      |        occur: "2009-01-01T00:00:23Z" (1230768023) 0x3a6-0x3a9.7 (4)
0x3a0|                              00 00 00 18      |          ....  |        corr: 24 0x3aa-0x3ad.7 (4)
     |                                               |                |      [24]{}: leap_second_record 0x3ae-0x3b5.7 (8)
0x3a0|                                          4f ef|              O.|        occur: "2012-07-01T00:00:24Z" (1341100824) 0x3ae-0x3b1.7 (4)
0x3b0|93 18                                          |..              |
0x3b0|      00 00 00 19                              |  ....          |        corr: 25 0x3b2-0x3b5.7 (4)
     |                                               |                |      [25]{}: leap_second_record 0x3b6-0x3bd.7 (8)
0x3b0|                  55 93 2d 99                  |      U.-.      |        occur: "2015-07-01T00:00:25Z" (1435708825) 0x3b6-0x3b9.7 (4)
0x3b0|                              00 00 00 1a      |          ....  |        corr: 26 0x3ba-0x3bd.7 (4)
     |                                               |                |      [26]{}: leap_second_record 0x3be-0x3c5.7 (8)
0x3b0|                                          58 68|              Xh|        occur: "2017-01-01T00:00:26Z" (1483228826) 0x3be-0x3c1.7 (4)
0x3c0|46 9a                                          |F.              |
0x3c0|      00 00 00 1b                              |  ....          |        corr: 27 0x3c2-0x3c5.7 (4)
     |                                               |                |    standard_wall_indicators[0:6]: 0x3c6-0x3cb.7 (6)
0x3c0|                  00                           |      .         |      [0]: 0 standard_wall_indicator (valid) 0x3c6-0x3c6.7 (1)
0x3c0|                     00                        |       .        |      [1]: 0 standard_wall_indicator (valid) 0x3c7-0x3c7.7 (1)
0x3c0|                        00                     |        .       |      [2]: 0 standard_wall_indicator (valid) 0x3c8-0x3c8.7 (1)
0x3c0|                           01                  |         .      |      [3]: 1 standard_wall_indicator (valid) 0x3c9-0x3c9.7 (1)
0x3c0|                              00               |          .     |      [4]: 0 standard_wall_indicator (valid) 0x3ca-0x3ca.7 (1)
0x3c0|                                 01            |           .    |      [5]: 1 standard_wall_indicator (valid) 0x3cb-0x3cb.7 (1)
     |                                               |                |    ut_local_indicators[0:6]: 0x3cc-0x3d1.7 (6)
0x3c0|                                    00         |            .   |      [0]: 0 ut_local_indicator (valid) 0x3cc-0x3cc.7 (1)
0x3c0|                                       00      |             .  |      [1]: 0 ut_local_indicator (valid) 0x3cd-0x3cd.7 (1)
0x3c0|                                          00   |              . |      [2]: 0 ut_local_indicator (valid) 0x3ce-0x3ce.7 (1)
0x3c0|                                             01|               .|      [3]: 1 ut_local_indicator (valid) 0x3cf-0x3cf.7 (1)
0x3d0|00                                             |.               |      [4]: 0 ut_local_indicator (valid) 0x3d0-0x3d0.7 (1)
0x3d0|   01                                          | .              |      [5]: 1 ut_local_indicator (valid) 0x3d1-0x3d1.7 (1)
     |                                               |                |  v2plusheader{}: 0x3d2-0x3fd.7 (44)
0x3d0|      54 5a 69 66                              |  TZif          |    magic: 0x545a6966 (valid) 0x3d2-0x3d5.7 (4)
0x3d0|                  32                           |      2         |    ver: "2" (0x32) (valid) 0x3d6-0x3d6.7 (1)
0x3d0|                     00 00 00 00 00 00 00 00 00|       .........|    reserved: raw bits 0x3d7-0x3e5.7 (15)
0x3e0|00 00 00 00 00 00                              |......          |
0x3e0|                  00 00 00 06                  |      ....      |    isutcnt: 6 0x3e6-0x3e9.7 (4)
0x3e0|                              00 00 00 06      |          ....  |    isstdcnt: 6 0x3ea-0x3ed.7 (4)
0x3e0|                                          00 00|              ..|    leapcnt: 27 0x3ee-0x3f1.7 (4)
0x3f0|00 1b                                          |..              |
0x3f0|      00 00 00 82                              |  ....          |    timecnt: 130 0x3f2-0x3f5.7 (4)
0x3f0|                  00 00 00 06                  |      ....      |    typecnt: 6 0x3f6-0x3f9.7 (4)
0x3f0|                              00 00 00 14      |          ....  |    charcnt: 20 0x3fa-0x3fd.7 (4)
     |                                               |                |  v2plusdatablock{}: 0x3fe-0xa17.7 (1562)
     |                                               |                |    transition_times[0:130]: 0x3fe-0x80d.7 (1040)
0x3f0|                                          ff ff|              ..|      [0]: "1883-11-18T19:00:00Z" (-2717643600) transition_time 0x3fe-0x405.7 (8)
0x400|ff ff 5e 04 0c b0                              |..^...          |
0x400|                  ff ff ff ff 9e a6 3a 90      |      ......:.  |      [1]: "1918-03-31T09:00:00Z" (-1633273200) transition_time 0x406-0x40d.7 (8)
0x400|                                          ff ff|              ..|      [2]: "1918-10-27T08:00:00Z" (-1615132800) transition_time 0x40e-0x415.7 (8)
0x410|ff ff 9f bb 07 80                              |......          |
0x410|                  ff ff ff ff a0 86 1c 90      |      ........  |      [3]: "1919-03-30T09:00:00Z" (-1601823600) transition_time 0x416-0x41d.7 (8)
0x410|                                          ff ff|              ..|      [4]: "1919-10-26T08:00:00Z" (-1583683200) transition_time 0x41e-0x425.7 (8)
0x420|ff ff a1 9a e9 80                              |......          |
0x420|                  ff ff ff ff a2 65 fe 90      |      .....e..  |      [5]: "1920-03-28T09:00:00Z" (-1570374000) transition_time 0x426-0x42d.7 (8)
0x420|                                          ff ff|              ..|      [6]: "1920-10-31T08:00:00Z" (-1551628800) transition_time 0x42e-0x435.7 (8)
0x430|ff ff a3 84 06 00                              |......          |
0x430|                  ff ff ff ff a4 45 e0 90      |      .....E..  |      [7]: "1921-03-27T09:00:00Z" (-1538924400) transition_time 0x436-0x43d.7 (8)
0x430|                                          ff ff|              ..|      [8]: "1921-05-22T08:00:00Z" (-1534089600) transition_time 0x43e-0x445.7 (8)
0x440|ff ff a4 8f a6 80                              |......          |
0x440|                  ff ff ff ff cb 89 0c 90      |      ........  |      [9]: "1942-02-09T09:00:00Z" (-880210800) transition_time 0x446-0x44d.7 (8)
0x440|                                          ff ff|              ..|      [10]: "1945-08-14T23:00:00Z" (-769395600) transition_time 0x44e-0x455.7 (8)
0x450|ff ff d2 23 f4 70                              |...#.p          |
0x450|                  ff ff ff ff d2 61 18 00      |      .....a..  |      [11]: "1945-09-30T08:00:00Z" (-765388800) transition_time 0x456-0x45d.7 (8)
0x450|                                          ff ff|              ..|      [12]: "1965-04-25T09:00:00Z" (-147884400) transition_time 0x45e-0x465.7 (8)
0x460|ff ff f7 2f 76 90                              |.../v.          |
0x460|                  ff ff ff ff f8 28 94 00      |      .....(..  |      [13]: "1965-10-31T08:00:00Z" (-131558400) transition_time 0x466-0x46d.7 (8)
0x460|                                          ff ff|              ..|      [14]: "1966-04-24T09:00:00Z" (-116434800) transition_time 0x46e-0x475.7 (8)
0x470|ff ff f9 0f 58 90                              |....X.          |
0x470|                  ff ff ff ff fa 08 76 00      |      ......v.  |      [15]: "1966-10-30T08:00:00Z" (-100108800) transition_time 0x476-0x47d.7 (8)
0x470|                                          ff ff|              ..|      [16]: "1967-04-30T09:00:00Z" (-84380400) transition_time 0x47e-0x485.7 (8)
0x480|ff ff fa f8 75 10                              |....u.          |
0x480|                  ff ff ff ff fb e8 58 00      |      ......X.  |      [17]: "1967-10-29T08:00:00Z" (-68659200) transition_time 0x486-0x48d.7 (8)
0x480|                                          ff ff|              ..|      [18]: "1968-04-28T09:00:00Z" (-52930800) transition_time 0x48e-0x495.7 (8)
0x490|ff ff fc d8 57 10                              |....W.          |
0x490|                  ff ff ff ff fd c8 3a 00      |      ......:.  |      [19]: "1968-10-27T08:00:00Z" (-37209600) transition_time 0x496-0x49d.7 (8)
0x490|                                          ff ff|              ..|      [20]: "1969-04-27T09:00:00Z" (-21481200) transition_time 0x49e-0x4a5.7 (8)
0x4a0|ff ff fe b8 39 10                              |....9.          |
0x4a0|                  ff ff ff ff ff a8 1c 00      |      ........  |      [21]: "1969-10-26T08:00:00Z" (-5760000) transition_time 0x4a6-0x4ad.7 (8)
0x4a0|                                          00 00|              ..|      [22]: "1970-04-26T09:00:00Z" (9968400) transition_time 0x4ae-0x4b5.7 (8)
0x4b0|00 00 00 98 1b 10                              |......          |
0x4b0|                  00 00 00 00 01 87 fe 00      |      ........  |      [23]: "1970-10-25T08:00:00Z" (25689600) transition_time 0x4b6-0x4bd.7 (8)
0x4b0|                                          00 00|              ..|      [24]: "1971-04-25T09:00:00Z" (41418000) transition_time 0x4be-0x4c5.7 (8)
0x4c0|00 00 02 77 fd 10                              |...w..          |
0x4c0|                  00 00 00 00 03 71 1a 80      |      .....q..  |      [25]: "1971-10-31T08:00:00Z" (57744000) transition_time 0x4c6-0x4cd.7 (8)
0x4c0|                                          00 00|              ..|      [26]: "1972-04-30T09:00:00Z" (73472400) transition_time 0x4ce-0x4d5.7 (8)
0x4d0|00 00 04 61 19 90                              |...a..          |
0x4d0|                  00 00 00 00 05 50 fc 81      |      .....P..  |      [27]: "1972-10-29T08:00:01Z" (89193601) transition_time 0x4d6-0x4dd.7 (8)
0x4d0|                                          00 00|              ..|      [28]: "1973-04-29T09:00:02Z" (104922002) transition_time 0x4de-0x4e5.7 (8)
0x4e0|00 00 06 40 fb 92                              |...@..          |
0x4e0|                  00 00 00 00 07 30 de 82      |      .....0..  |      [29]: "1973-10-28T08:00:02Z" (120643202) transition_time 0x4e6-0x4ed.7 (8)
0x4e0|                                          00 00|              ..|      [30]: "1974-01-06T09:00:03Z" (126694803) transition_time 0x4ee-0x4f5.7 (8)
0x4f0|00 00 07 8d 35 93                              |....5.          |
0x4f0|                  00 00 00 00 09 10 c0 83      |      ........  |      [31]: "1974-10-27T08:00:03Z" (152092803) transition_time 0x4f6-0x4fd.7 (8)
0x4f0|                                          00 00|              ..|      [32]: "1975-02-23T09:00:04Z" (162378004) transition_time 0x4fe-0x505.7 (8)
0x500|00 00 09 ad b1 14                              |......          |
0x500|                  00 00 00 00 0a f0 a2 84      |      ........  |      [33]: "1975-10-26T08:00:04Z" (183542404) transition_time 0x506-0x50d.7 (8)
0x500|                                          00 00|              ..|      [34]: "1976-04-25T09:00:05Z" (199270805) transition_time 0x50e-0x515.7 (8)
0x510|00 00 0b e0 a1 95                              |......          |
0x510|                  00 00 00 00 0c d9 bf 05      |      ........  |      [35]: "1976-10-31T08:00:05Z" (215596805) transition_time 0x516-0x51d.7 (8)
0x510|                                          00 00|              ..|      [36]: "1977-04-24T09:00:06Z" (230720406) transition_time 0x51e-0x525.7 (8)
0x520|00 00 0d c0 83 96                              |......          |
0x520|                  00 00 00 00 0e b9 a1 06      |      ........  |      [37]: "1977-10-30T08:00:06Z" (247046406) transition_time 0x526-0x52d.7 (8)
0x520|                                          00 00|              ..|      [38]: "1978-04-30T09:00:07Z" (262774807) transition_time 0x52e-0x535.7 (8)
0x530|00 00 0f a9 a0 17                              |......          |
0x530|                  00 00 00 00 10 99 83 07      |      ........  |      [39]: "1978-10-29T08:00:07Z" (278496007) transition_time 0x536-0x53d.7 (8)
0x530|                                          00 00|              ..|      [40]: "1979-04-29T09:00:08Z" (294224408) transition_time 0x53e-0x545.7 (8)
0x540|00 00 11 89 82 18                              |......          |
0x540|                  00 00 00 00 12 79 65 08      |      .....ye.  |      [41]: "1979-10-28T08:00:08Z" (309945608) transition_time 0x546-0x54d.7 (8)
0x540|                                          00 00|              ..|      [42]: "1980-04-27T09:00:09Z" (325674009) transition_time 0x54e-0x555.7 (8)
0x550|00 00 13 69 64 19                              |...id.          |
0x550|                  00 00 00 00 14 59 47 09      |      .....YG.  |      [43]: "1980-10-26T08:00:09Z" (341395209) transition_time 0x556-0x55d.7 (8)
0x550|                                          00 00|              ..|      [44]: "1981-04-26T09:00:09Z" (357123609) transition_time 0x55e-0x565.7 (8)
0x560|00 00 15 49 46 19                              |...IF.          |
0x560|                  00 00 00 00 16 39 29 0a      |      .....9).  |      [45]: "1981-10-25T08:00:10Z" (372844810) transition_time 0x566-0x56d.7 (8)
0x560|                                          00 00|              ..|      [46]: "1982-04-25T09:00:10Z" (388573210) transition_time 0x56e-0x575.7 (8)
0x570|00 00 17 29 28 1a                              |...)(.          |
0x570|                  00 00 00 00 18 22 45 8b      |      ....."E.  |      [47]: "1982-10-31T08:00:11Z" (404899211) transition_time 0x576-0x57d.7 (8)
0x570|                                          00 00|              ..|      [48]: "1983-04-24T09:00:11Z" (420022811) transition_time 0x57e-0x585.7 (8)
0x580|00 00 19 09 0a 1b                              |......          |
0x580|                  00 00 00 00 1a 02 27 8c      |      ......'.  |      [49]: "1983-10-30T08:00:12Z" (436348812) transition_time 0x586-0x58d.7 (8)
0x580|                                          00 00|              ..|      [50]: "1984-04-29T09:00:12Z" (452077212) transition_time 0x58e-0x595.7 (8)
0x590|00 00 1a f2 26 9c                              |....&.          |
0x590|                  00 00 00 00 1b e2 09 8c      |      ........  |      [51]: "1984-10-28T08:00:12Z" (467798412) transition_time 0x596-0x59d.7 (8)
0x590|                                          00 00|              ..|      [52]: "1985-04-28T09:00:12Z" (483526812) transition_time 0x59e-0x5a5.7 (8)
0x5a0|00 00 1c d2 08 9c                              |......          |
0x5a0|                  00 00 00 00 1d c1 eb 8d      |      ........  |      [53]: "1985-10-27T08:00:13Z" (499248013) transition_time 0x5a6-0x5ad.7 (8)
0x5a0|                                          00 00|              ..|      [54]: "1986-04-27T09:00:13Z" (514976413) transition_time 0x5ae-0x5b5.7 (8)
0x5b0|00 00 1e b1 ea 9d                              |......          |
0x5b0|                  00 00 00 00 1f a1 cd 8d      |      ........  |      [55]: "1986-10-26T08:00:13Z" (530697613) transition_time 0x5b6-0x5bd.7 (8)
0x5b0|                                          00 00|              ..|      [56]: "1987-04-05T09:00:13Z" (544611613) transition_time 0x5be-0x5c5.7 (8)
0x5c0|00 00 20 76 1d 1d                              |.. v..          |
0x5c0|                  00 00 00 00 21 81 af 8d      |      ....!...  |      [57]: "1987-10-25T08:00:13Z" (562147213) transition_time 0x5c6-0x5cd.7 (8)
0x5c0|                                          00 00|              ..|      [58]: "1988-04-03T09:00:14Z" (576061214) transition_time 0x5ce-0x5d5.7 (8)
0x5d0|00 00 22 55 ff 1e                              |.."U..          |
0x5d0|                  00 00 00 00 23 6a cc 0e      |      ....#j..  |      [59]: "1988-10-30T08:00:14Z" (594201614) transition_time 0x5d6-0x5dd.7 (8)
0x5d0|                                          00 00|              ..|      [60]: "1989-04-02T09:00:14Z" (607510814) transition_time 0x5de-0x5e5.7 (8)
0x5e0|00 00 24 35 e1 1e                              |..$5..          |
0x5e0|                  00 00 00 00 25 4a ae 0e      |      ....%J..  |      [61]: "1989-10-29T08:00:14Z" (625651214) transition_time 0x5e6-0x5ed.7 (8)
0x5e0|                                          00 00|              ..|      [62]: "1990-04-01T09:00:15Z" (638960415) transition_time 0x5ee-0x5f5.7 (8)
0x5f0|00 00 26 15 c3 1f                              |..&...          |
0x5f0|                  00 00 00 00 27 2a 90 0f      |      ....'*..  |      [63]: "1990-10-28T08:00:15Z" (657100815) transition_time 0x5f6-0x5fd.7 (8)
0x5f0|                                          00 00|              ..|      [64]: "1991-04-07T09:00:16Z" (671014816) transition_time 0x5fe-0x605.7 (8)
0x600|00 00 27 fe df a0                              |..'...          |
0x600|                  00 00 00 00 29 0a 72 10      |      ....).r.  |      [65]: "1991-10-27T08:00:16Z" (688550416) transition_time 0x606-0x60d.7 (8)
0x600|                                          00 00|              ..|      [66]: "1992-04-05T09:00:16Z" (702464416) transition_time 0x60e-0x615.7 (8)
0x610|00 00 29 de c1 a0                              |..)...          |
0x610|                  00 00 00 00 2a ea 54 11      |      ....*.T.  |      [67]: "1992-10-25T08:00:17Z" (720000017) transition_time 0x616-0x61d.7 (8)
0x610|                                          00 00|              ..|      [68]: "1993-04-04T09:00:17Z" (733914017) transition_time 0x61e-0x625.7 (8)
0x620|00 00 2b be a3 a1                              |..+...          |
0x620|                  00 00 00 00 2c d3 70 92      |      ....,.p.  |      [69]: "1993-10-31T08:00:18Z" (752054418) transition_time 0x626-0x62d.7 (8)
0x620|                                          00 00|              ..|      [70]: "1994-04-03T09:00:18Z" (765363618) transition_time 0x62e-0x635.7 (8)
0x630|00 00 2d 9e 85 a2                              |..-...          |
0x630|                  00 00 00 00 2e b3 52 93      |      ......R.  |      [71]: "1994-10-30T08:00:19Z" (783504019) transition_time 0x636-0x63d.7 (8)
0x630|                                          00 00|              ..|      [72]: "1995-04-02T09:00:19Z" (796813219) transition_time 0x63e-0x645.7 (8)
0x640|00 00 2f 7e 67 a3                              |../~g.          |
0x640|                  00 00 00 00 30 93 34 93      |      ....0.4.  |      [73]: "1995-10-29T08:00:19Z" (814953619) transition_time 0x646-0x64d.7 (8)
0x640|                                          00 00|              ..|      [74]: "1996-04-07T09:00:20Z" (828867620) transition_time 0x64e-0x655.7 (8)
0x650|00 00 31 67 84 24                              |..1g.$          |
0x650|                  00 00 00 00 32 73 16 94      |      ....2s..  |      [75]: "1996-10-27T08:00:20Z" (846403220) transition_time 0x656-0x65d.7 (8)
0x650|                                          00 00|              ..|      [76]: "1997-04-06T09:00:20Z" (860317220) transition_time 0x65e-0x665.7 (8)
0x660|00 00 33 47 66 24                              |..3Gf$          |
0x660|                  00 00 00 00 34 52 f8 95      |      ....4R..  |      [77]: "1997-10-26T08:00:21Z" (877852821) transition_time 0x666-0x66d.7 (8)
0x660|                                          00 00|              ..|      [78]: "1998-04-05T09:00:21Z" (891766821) transition_time 0x66e-0x675.7 (8)
0x670|00 00 35 27 48 25                              |..5'H%          |
0x670|                  00 00 00 00 36 32 da 95      |      ....62..  |      [79]: "1998-10-25T08:00:21Z" (909302421) transition_time 0x676-0x67d.7 (8)
0x670|                                          00 00|              ..|      [80]: "1999-04-04T09:00:22Z" (923216422) transition_time 0x67e-0x685.7 (8)
0x680|00 00 37 07 2a 26                              |..7.*&          |
0x680|                  00 00 00 00 38 1b f7 16      |      ....8...  |      [81]: "1999-10-31T08:00:22Z" (941356822) transition_time 0x686-0x68d.7 (8)
0x680|                                          00 00|              ..|      [82]: "2000-04-02T09:00:22Z" (954666022) transition_time 0x68e-0x695.7 (8)
0x690|00 00 38 e7 0c 26                              |..8..&          |
0x690|                  00 00 00 00 39 fb d9 16      |      ....9...  |      [83]: "2000-10-29T08:00:22Z" (972806422) transition_time 0x696-0x69d.7 (8)
0x690|                                          00 00|              ..|      [84]: "2001-04-01T09:00:22Z" (986115622) transition_time 0x69e-0x6a5.7 (8)
0x6a0|00 00 3a c6 ee 26                              |..:..&          |
0x6a0|                  00 00 00 00 3b db bb 16      |      ....;...  |      [85]: "2001-10-28T08:00:22Z" (1004256022) transition_time 0x6a6-0x6ad.7 (8)
0x6a0|                                          00 00|              ..|      [86]: "2002-04-07T09:00:22Z" (1018170022) transition_time 0x6ae-0x6b5.7 (8)
0x6b0|00 00 3c b0 0a a6                              |..<...          |
0x6b0|                  00 00 00 00 3d bb 9d 16      |      ....=...  |      [87]: "2002-10-27T08:00:22Z" (1035705622) transition_time 0x6b6-0x6bd.7 (8)
0x6b0|                                          00 00|              ..|      [88]: "2003-04-06T09:00:22Z" (1049619622) transition_time 0x6be-0x6c5.7 (8)
0x6c0|00 00 3e 8f ec a6                              |..>...          |
0x6c0|                  00 00 00 00 3f 9b 7f 16      |      ....?...  |      [89]: "2003-10-26T08:00:22Z" (1067155222) transition_time 0x6c6-0x6cd.7 (8)
0x6c0|                                          00 00|              ..|      [90]: "2004-04-04T09:00:22Z" (1081069222) transition_time 0x6ce-0x6d5.7 (8)
0x6d0|00 00 40 6f ce a6                              |..@o..          |
0x6d0|                  00 00 00 00 41 84 9b 96      |      ....A...  |      [91]: "2004-10-31T08:00:22Z" (1099209622) transition_time 0x6d6-0x6dd.7 (8)
0x6d0|                                          00 00|              ..|      [92]: "2005-04-03T09:00:22Z" (1112518822) transition_time 0x6de-0x6e5.7 (8)
0x6e0|00 00 42 4f b0 a6                              |..BO..          |
0x6e0|                  00 00 00 00 43 64 7d 96      |      ....Cd}.  |      [93]: "2005-10-30T08:00:22Z" (1130659222) transition_time 0x6e6-0x6ed.7 (8)
0x6e0|                                          00 00|              ..|      [94]: "2006-04-02T09:00:23Z" (1143968423) transition_time 0x6ee-0x6f5.7 (8)
0x6f0|00 00 44 2f 92 a7                              |..D/..          |
0x6f0|                  00 00 00 00 45 44 5f 97      |      ....ED_.  |      [95]: "2006-10-29T08:00:23Z" (1162108823) transition_time 0x6f6-0x6fd.7 (8)
0x6f0|                                          00 00|              ..|      [96]: "2007-03-11T09:00:23Z" (1173603623) transition_time 0x6fe-0x705.7 (8)
0x700|00 00 45 f3 c5 27                              |..E..'          |
0x700|                  00 00 00 00 47 2d 7c 17      |      ....G-|.  |      [97]: "2007-11-04T08:00:23Z" (1194163223) transition_time 0x706-0x70d.7 (8)
0x700|                                          00 00|              ..|      [98]: "2008-03-09T09:00:23Z" (1205053223) transition_time 0x70e-0x715.7 (8)
0x710|00 00 47 d3 a7 27                              |..G..'          |
0x710|                  00 00 00 00 49 0d 5e 17      |      ....I.^.  |      [99]: "2008-11-02T08:00:23Z" (1225612823) transition_time 0x716-0x71d.7 (8)
0x710|                                          00 00|              ..|      [100]: "2009-03-08T09:00:24Z" (1236502824) transition_time 0x71e-0x725.7 (8)
0x720|00 00 49 b3 89 28                              |..I..(          |
0x720|                  00 00 00 00 4a ed 40 18      |      ....J.@.  |      [101]: "2009-11-01T08:00:24Z" (1257062424) transition_time 0x726-0x72d.7 (8)
0x720|                                          00 00|              ..|      [102]: "2010-03-14T09:00:24Z" (1268557224) transition_time 0x72e-0x735.7 (8)
0x730|00 00 4b 9c a5 a8                              |..K...          |
0x730|                  00 00 00 00 4c d6 5c 98      |      ....L.\.  |      [103]: "2010-11-07T08:00:24Z" (1289116824) transition_time 0x736-0x73d.7 (8)
0x730|                                          00 00|              ..|      [104]: "2011-03-13T09:00:24Z" (1300006824) transition_time 0x73e-0x745.7 (8)
0x740|00 00 4d 7c 87 a8                              |..M|..          |
0x740|                  00 00 00 00 4e b6 3e 98      |      ....N.>.  |      [105]: "2011-11-06T08:00:24Z" (1320566424) transition_time 0x746-0x74d.7 (8)
0x740|                                          00 00|              ..|      [106]: "2012-03-11T09:00:24Z" (1331456424) transition_time 0x74e-0x755.7 (8)
0x750|00 00 4f 5c 69 a8                              |..O\i.          |
0x750|                  00 00 00 00 50 96 20 99      |      ....P. .  |      [107]: "2012-11-04T08:00:25Z" (1352016025) transition_time 0x756-0x75d.7 (8)
0x750|                                          00 00|              ..|      [108]: "2013-03-10T09:00:25Z" (1362906025) transition_time 0x75e-0x765.7 (8)
0x760|00 00 51 3c 4b a9                              |..Q<K.          |
0x760|                  00 00 00 00 52 76 02 99      |      ....Rv..  |      [109]: "2013-11-03T08:00:25Z" (1383465625) transition_time 0x766-0x76d.7 (8)
0x760|                                          00 00|              ..|      [110]: "2014-03-09T09:00:25Z" (1394355625) transition_time 0x76e-0x775.7 (8)
0x770|00 00 53 1c 2d a9                              |..S.-.          |
0x770|                  00 00 00 00 54 55 e4 99      |      ....TU..  |      [111]: "2014-11-02T08:00:25Z" (1414915225) transition_time 0x776-0x77d.7 (8)
0x770|                                          00 00|              ..|      [112]: "2015-03-08T09:00:25Z" (1425805225) transition_time 0x77e-0x785.7 (8)
0x780|00 00 54 fc 0f a9                              |..T...          |
0x780|                  00 00 00 00 56 35 c6 9a      |      ....V5..  |      [113]: "2015-11-01T08:00:26Z" (1446364826) transition_time 0x786-0x78d.7 (8)
0x780|                                          00 00|              ..|      [114]: "2016-03-13T09:00:26Z" (1457859626) transition_time 0x78e-0x795.7 (8)
0x790|00 00 56 e5 2c 2a                              |..V.,*          |
0x790|                  00 00 00 00 58 1e e3 1a      |      ....X...  |      [115]: "2016-11-06T08:00:26Z" (1478419226) transition_time 0x796-0x79d.7 (8)
0x790|                                          00 00|              ..|      [116]: "2017-03-12T09:00:27Z" (1489309227) transition_time 0x79e-0x7a5.7 (8)
0x7a0|00 00 58 c5 0e 2b                              |..X..+          |
0x7a0|                  00 00 00 00 59 fe c5 1b      |      ....Y...  |      [117]: "2017-11-05T08:00:27Z" (1509868827) transition_time 0x7a6-0x7ad.7 (8)
0x7a0|                                          00 00|              ..|      [118]: "2018-03-11T09:00:27Z" (1520758827) transition_time 0x7ae-0x7b5.7 (8)
0x7b0|00 00 5a a4 f0 2b                              |..Z..+          |
0x7b0|                  00 00 00 00 5b de a7 1b      |      ....[...  |      [119]: "2018-11-04T08:00:27Z" (1541318427) transition_time 0x7b6-0x7bd.7 (8)
0x7b0|                                          00 00|              ..|      [120]: "2019-03-10T09:00:27Z" (1552208427) transition_time 0x7be-0x7c5.7 (8)
0x7c0|00 00 5c 84 d2 2b                              |..\..+          |
0x7c0|                  00 00 00 00 5d be 89 1b      |      ....]...  |      [121]: "2019-11-03T08:00:27Z" (1572768027) transition_time 0x7c6-0x7cd.7 (8)
0x7c0|                                          00 00|              ..|      [122]: "2020-03-08T09:00:27Z" (1583658027) transition_time 0x7ce-0x7d5.7 (8)
0x7d0|00 00 5e 64 b4 2b                              |..^d.+          |
0x7d0|                  00 00 00 00 5f 9e 6b 1b      |      ...._.k.  |      [123]: "2020-11-01T08:00:27Z" (1604217627) transition_time 0x7d6-0x7dd.7 (8)
0x7d0|                                          00 00|              ..|      [124]: "2021-03-14T09:00:27Z" (1615712427) transition_time 0x7de-0x7e5.7 (8)
0x7e0|00 00 60 4d d0 ab                              |..`M..          |
0x7e0|                  00 00 00 00 61 87 87 9b      |      ....a...  |      [125]: "2021-11-07T08:00:27Z" (1636272027) transition_time 0x7e6-0x7ed.7 (8)
0x7e0|                                          00 00|              ..|      [126]: "2022-03-13T09:00:27Z" (1647162027) transition_time 0x7ee-0x7f5.7 (8)
0x7f0|00 00 62 2d b2 ab                              |..b-..          |
0x7f0|                  00 00 00 00 63 67 69 9b      |      ....cgi.  |      [127]: "2022-11-06T08:00:27Z" (1667721627) transition_time 0x7f6-0x7fd.7 (8)
0x7f0|                                          00 00|              ..|      [128]: "2023-03-12T09:00:27Z" (1678611627) transition_time 0x7fe-0x805.7 (8)
0x800|00 00 64 0d 94 ab                              |..d...          |
0x800|                  00 00 00 00 64 9b 78 1b      |      ....d.x.  |      [129]: "2023-06-28T00:00:27Z" (1687910427) transition_time 0x806-0x80d.7 (8)
     |                                               |                |    transition_types[0:130]: 0x80e-0x88f.7 (130)
0x800|                                          03   |              . |      [0]: 3 transition_type 0x80e-0x80e.7 (1)
0x800|                                             01|               .|      [1]: 1 transition_type 0x80f-0x80f.7 (1)
0x810|02                                             |.               |      [2]: 2 transition_type 0x810-0x810.7 (1)
0x810|   01                                          | .              |      [3]: 1 transition_type 0x811-0x811.7 (1)
0x810|      02                                       |  .             |      [4]: 2 transition_type 0x812-0x812.7 (1)
0x810|         01                                    |   .            |      [5]: 1 transition_type 0x813-0x813.7 (1)
0x810|            02                                 |    .           |      [6]: 2 transition_type 0x814-0x814.7 (1)
0x810|               01                              |     .          |      [7]: 1 transition_type 0x815-0x815.7 (1)
0x810|                  02                           |      .         |      [8]: 2 transition_type 0x816-0x816.7 (1)
0x810|                     04                        |       .        |      [9]: 4 transition_type 0x817-0x817.7 (1)
0x810|                        05                     |        .       |      [10]: 5 transition_type 0x818-0x818.7 (1)
0x810|                           02                  |         .      |      [11]: 2 transition_type 0x819-0x819.7 (1)
0x810|                              01               |          .     |      [12]: 1 transition_type 0x81a-0x81a.7 (1)
0x810|                                 02            |           .    |      [13]: 2 transition_type 0x81b-0x81b.7 (1)
0x810|                                    01         |            .   |      [14]: 1 transition_type 0x81c-0x81c.7 (1)
0x810|                                       02      |             .  |      [15]: 2 transition_type 0x81d-0x81d.7 (1)
0x810|                                          01   |              . |      [16]: 1 transition_type 0x81e-0x81e.7 (1)
0x810|                                             02|               .|      [17]: 2 transition_type 0x81f-0x81f.7 (1)
0x820|01                                             |.               |      [18]: 1 transition_type 0x820-0x820.7 (1)
0x820|   02                                          | .              |      [19]: 2 transition_type 0x821-0x821.7 (1)
0x820|      01                                       |  .             |      [20]: 1 transition_type 0x822-0x822.7 (1)
0x820|         02                                    |   .            |      [21]: 2 transition_type 0x823-0x823.7 (1)
0x820|            01                                 |    .           |      [22]: 1 transition_type 0x824-0x824.7 (1)
0x820|               02                              |     .          |      [23]: 2 transition_type 0x825-0x825.7 (1)
0x820|                  01                           |      .         |      [24]: 1 transition_type 0x826-0x826.7 (1)
0x820|                     02                        |       .        |      [25]: 2 transition_type 0x827-0x827.7 (1)
0x820|                        01                     |        .       |      [26]: 1 transition_type 0x828-0x828.7 (1)
0x820|                           02                  |         .      |      [27]: 2 transition_type 0x829-0x829.7 (1)
0x820|                              01               |          .     |      [28]: 1 transition_type 0x82a-0x82a.7 (1)
0x820|                                 02            |           .    |      [29]: 2 transition_type 0x82b-0x82b.7 (1)
0x820|                                    01         |            .   |      [30]: 1 transition_type 0x82c-0x82c.7 (1)
0x820|                                       02      |             .  |      [31]: 2 transition_type 0x82d-0x82d.7 (1)
0x820|                                          01   |              . |      [32]: 1 transition_type 0x82e-0x82e.7 (1)
0x820|                                             02|               .|      [33]: 2 transition_type 0x82f-0x82f.7 (1)
0x830|01                                             |.               |      [34]: 1 transition_type 0x830-0x830.7 (1)
0x830|   02                                          | .              |      [35]: 2 transition_type 0x831-0x831.7 (1)
0x830|      01                                       |  .             |      [36]: 1 transition_type 0x832-0x832.7 (1)
0x830|         02                                    |   .            |      [37]: 2 transition_type 0x833-0x833.7 (1)
0x830|            01                                 |    .           |      [38]: 1 transition_type 0x834-0x834.7 (1)
0x830|               02                              |     .          |      [39]: 2 transition_type 0x835-0x835.7 (1)
0x830|                  01                           |      .         |      [40]: 1 transition_type 0x836-0x836.7 (1)
0x830|                     02                        |       .        |      [41]: 2 transition_type 0x837-0x837.7 (1)
0x830|                        01                     |        .       |      [42]: 1 transition_type 0x838-0x838.7 (1)
0x830|                           02                  |         .      |      [43]: 2 transition_type 0x839-0x839.7 (1)
0x830|                              01               |          .     |      [44]: 1 transition_type 0x83a-0x83a.7 (1)
0x830|                                 02            |           .    |      [45]: 2 transition_type 0x83b-0x83b.7 (1)
0x830|                                    01         |            .   |      [46]: 1 transition_type 0x83c-0x83c.7 (1)
0x830|                                       02      |             .  |      [47]: 2 transition_type 0x83d-0x83d.7 (1)
0x830|                                          01   |              . |      [48]: 1 transition_type 0x83e-0x83e.7 (1)
0x830|                                             02|               .|      [49]: 2 transition_type 0x83f-0x83f.7 (1)
0x840|01                                             |.               |      [50]: 1 transition_type 0x840-0x840.7 (1)
0x840|   02                                          | .              |      [51]: 2 transition_type 0x841-0x841.7 (1)
0x840|      01                                       |  .             |      [52]: 1 transition_type 0x842-0x842.7 (1)
0x840|         02                                    |   .            |      [53]: 2 transition_type 0x843-0x843.7 (1)
0x840|            01                                 |    .           |      [54]: 1 transition_type 0x844-0x844.7 (1)
0x840|               02                              |     .          |      [55]: 2 transition_type 0x845-0x845.7 (1)
0x840|                  01                           |      .         |      [56]: 1 transition_type 0x846-0x846.7 (1)
0x840|                     02                        |       .        |      [57]: 2 transition_type 0x847-0x847.7 (1)
0x840|                        01                     |        .       |      [58]: 1 transition_type 0x848-0x848.7 (1)
0x840|                           02                  |         .      |      [59]: 2 transition_type 0x849-0x849.7 (1)
0x840|                              01               |          .     |      [60]: 1 transition_type 0x84a-0x84a.7 (1)
0x840|                                 02            |           .    |      [61]: 2 transition_type 0x84b-0x84b.7 (1)
0x840|                                    01         |            .   |      [62]: 1 transition_type 0x84c-0x84c.7 (1)
0x840|                                       02      |             .  |      [63]: 2 transition_type 0x84d-0x84d.7 (1)
0x840|                                          01   |              . |      [64]: 1 transition_type 0x84e-0x84e.7 (1)
0x840|                                             02|               .|      [65]: 2 transition_type 0x84f-0x84f.7 (1)
0x850|01                                             |.               |      [66]: 1 transition_type 0x850-0x850.7 (1)
0x850|   02                                          | .              |      [67]: 2 transition_type 0x851-0x851.7 (1)
0x850|      01                                       |  .             |      [68]: 1 transition_type 0x852-0x852.7 (1)
0x850|         02                                    |   .            |      [69]: 2 transition_type 0x853-0x853.7 (1)
0x850|            01                                 |    .           |      [70]: 1 transition_type 0x854-0x854.7 (1)
0x850|               02                              |     .          |      [71]: 2 transition_type 0x855-0x855.7 (1)
0x850|                  01                           |      .         |      [72]: 1 transition_type 0x856-0x856.7 (1)
0x850|                     02                        |       .        |      [73]: 2 transition_type 0x857-0x857.7 (1)
0x850|                        01                     |        .       |      [74]: 1 transition_type 0x858-0x858.7 (1)
0x850|                           02                  |         .      |      [75]: 2 transition_type 0x859-0x859.7 (1)
0x850|                              01               |          .     |      [76]: 1 transition_type 0x85a-0x85a.7 (1)
0x850|                                 02            |           .    |      [77]: 2 transition_type 0x85b-0x85b.7 (1)
0x850|                                    01         |            .   |      [78]: 1 transition_type 0x85c-0x85c.7 (1)
0x850|                                       02      |             .  |      [79]: 2 transition_type 0x85d-0x85d.7 (1)
0x850|                                          01   |              . |      [80]: 1 transition_type 0x85e-0x85e.7 (1)
0x850|                                             02|               .|      [81]: 2 transition_type 0x85f-0x85f.7 (1)
0x860|01                                             |.               |      [82]: 1 transition_type 0x860-0x860.7 (1)
0x860|   02                                          | .              |      [83]: 2 transition_type 0x861-0x861.7 (1)
0x860|      01                                       |  .             |      [84]: 1 transition_type 0x862-0x862.7 (1)
0x860|         02                                    |   .            |      [85]: 2 transition_type 0x863-0x863.7 (1)
0x860|            01                                 |    .           |      [86]: 1 transition_type 0x864-0x864.7 (1)
0x860|               02                              |     .          |      [87]: 2 transition_type 0x865-0x865.7 (1)
0x860|                  01                           |      .         |      [88]: 1 transition_type 0x866-0x866.7 (1)
0x860|                     02                        |       .        |      [89]: 2 transition_type 0x867-0x867.7 (1)
0x860|                        01                     |        .       |      [90]: 1 transition_type 0x868-0x868.7 (1)
0x860|                           02                  |         .      |      [91]: 2 transition_type 0x869-0x869.7 (1)
0x860|                              01               |          .     |      [92]: 1 transition_type 0x86a-0x86a.7 (1)
0x860|                                 02            |           .    |      [93]: 2 transition_type 0x86b-0x86b.7 (1)
0x860|                                    01         |            .   |      [94]: 1 transition_type 0x86c-0x86c.7 (1)
0x860|                                       02      |             .  |      [95]: 2 transition_type 0x86d-0x86d.7 (1)
0x860|                                          01   |              . |      [96]: 1 transition_type 0x86e-0x86e.7 (1)
0x860|                                             02|               .|      [97]: 2 transition_type 0x86f-0x86f.7 (1)
0x870|01                                             |.               |      [98]: 1 transition_type 0x870-0x870.7 (1)
0x870|   02                                          | .              |      [99]: 2 transition_type 0x871-0x871.7 (1)
0x870|      01                                       |  .             |      [100]: 1 transition_type 0x872-0x872.7 (1)
0x870|         02                                    |   .            |      [101]: 2 transition_type 0x873-0x873.7 (1)
0x870|            01                                 |    .           |      [102]: 1 transition_type 0x874-0x874.7 (1)
0x870|               02                              |     .          |      [103]: 2 transition_type 0x875-0x875.7 (1)
0x870|                  01                           |      .         |      [104]: 1 transition_type 0x876-0x876.7 (1)
0x870|                     02                        |       .        |      [105]: 2 transition_type 0x877-0x877.7 (1)
0x870|                        01                     |        .       |      [106]: 1 transition_type 0x878-0x878.7 (1)
0x870|                           02                  |         .      |      [107]: 2 transition_type 0x879-0x879.7 (1)
0x870|                              01               |          .     |      [108]: 1 transition_type 0x87a-0x87a.7 (1)
0x870|                                 02            |           .    |      [109]: 2 transition_type 0x87b-0x87b.7 (1)
0x870|                                    01         |            .   |      [110]: 1 transition_type 0x87c-0x87c.7 (1)
0x870|                                       02      |             .  |      [111]: 2 transition_type 0x87d-0x87d.7 (1)
0x870|                                          01   |              . |      [112]: 1 transition_type 0x87e-0x87e.7 (1)
0x870|                                             02|               .|      [113]: 2 transition_type 0x87f-0x87f.7 (1)
0x880|01                                             |.               |      [114]: 1 transition_type 0x880-0x880.7 (1)
0x880|   02                                          | .              |      [115]: 2 transition_type 0x881-0x881.7 (1)
0x880|      01                                       |  .             |      [116]: 1 transition_type 0x882-0x882.7 (1)
0x880|         02                                    |   .            |      [117]: 2 transition_type 0x883-0x883.7 (1)
0x880|            01                                 |    .           |      [118]: 1 transition_type 0x884-0x884.7 (1)
0x880|               02                              |     .          |      [119]: 2 transition_type 0x885-0x885.7 (1)
0x880|                  01                           |      .         |      [120]: 1 transition_type 0x886-0x886.7 (1)
0x880|                     02                        |       .        |      [121]: 2 transition_type 0x887-0x887.7 (1)
0x880|                        01                     |        .       |      [122]: 1 transition_type 0x888-0x888.7 (1)
0x880|                           02                  |         .      |      [123]: 2 transition_type 0x889-0x889.7 (1)
0x880|                              01               |          .     |      [124]: 1 transition_type 0x88a-0x88a.7 (1)
0x880|                                 02            |           .    |      [125]: 2 transition_type 0x88b-0x88b.7 (1)
0x880|                                    01         |            .   |      [126]: 1 transition_type 0x88c-0x88c.7 (1)
0x880|                                       02      |             .  |      [127]: 2 transition_type 0x88d-0x88d.7 (1)
0x880|                                          01   |              . |      [128]: 1 transition_type 0x88e-0x88e.7 (1)
0x880|                                             01|               .|      [129]: 1 transition_type 0x88f-0x88f.7 (1)
     |                                               |                |    local_time_type_records[0:6]: 0x890-0x8b3.7 (36)
     |                                               |                |      [0]{}: local_time_type 0x890-0x895.7 (6)
0x890|ff ff 9d 94                                    |....            |        utoff: -25196 (valid) 0x890-0x893.7 (4)
0x890|            00                                 |    .           |        dst: 0 (valid) 0x894-0x894.7 (1)
0x890|               00                              |     .          |        idx: 0 (valid) 0x895-0x895.7 (1)
     |                                               |                |      [1]{}: local_time_type 0x896-0x89b.7 (6)
0x890|                  ff ff ab a0                  |      ....      |        utoff: -21600 (valid) 0x896-0x899.7 (4)
0x890|                              01               |          .     |        dst: 1 (valid) 0x89a-0x89a.7 (1)
0x890|                                 04            |           .    |        idx: 4 (valid) 0x89b-0x89b.7 (1)
     |                                               |                |      [2]{}: local_time_type 0x89c-0x8a1.7 (6)
0x890|                                    ff ff 9d 90|            ....|        utoff: -25200 (valid) 0x89c-0x89f.7 (4)
0x8a0|00                                             |.               |        dst: 0 (valid) 0x8a0-0x8a0.7 (1)
0x8a0|   08                                          | .              |        idx: 8 (valid) 0x8a1-0x8a1.7 (1)
     |                                               |                |      [3]{}: local_time_type 0x8a2-0x8a7.7 (6)
0x8a0|      ff ff 9d 90                              |  ....          |        utoff: -25200 (valid) 0x8a2-0x8a5.7 (4)
0x8a0|                  00                           |      .         |        dst: 0 (valid) 0x8a6-0x8a6.7 (1)
0x8a0|                     08                        |       .        |        idx: 8 (valid) 0x8a7-0x8a7.7 (1)
     |                                               |                |      [4]{}: local_time_type 0x8a8-0x8ad.7 (6)
0x8a0|                        ff ff ab a0            |        ....    |        utoff: -21600 (valid) 0x8a8-0x8ab.7 (4)
0x8a0|                                    01         |            .   |        dst: 1 (valid) 0x8ac-0x8ac.7 (1)
0x8a0|                                       0c      |             .  |        idx: 12 (valid) 0x8ad-0x8ad.7 (1)
     |                                               |                |      [5]{}: local_time_type 0x8ae-0x8b3.7 (6)
0x8a0|                                          ff ff|              ..|        utoff: -21600 (valid) 0x8ae-0x8b1.7 (4)
0x8b0|ab a0                                          |..              |
0x8b0|      01                                       |  .             |        dst: 1 (valid) 0x8b2-0x8b2.7 (1)
0x8b0|         10                                    |   .            |        idx: 16 (valid) 0x8b3-0x8b3.7 (1)
     |                                               |                |    time_zone_designations[0:5]: 0x8b4-0x8c7.7 (20)
0x8b0|            4c 4d 54 00                        |    LMT.        |      [0]: "LMT" time_zone_designation 0x8b4-0x8b7.7 (4)
0x8b0|                        4d 44 54 00            |        MDT.    |      [1]: "MDT" time_zone_designation 0x8b8-0x8bb.7 (4)
0x8b0|                                    4d 53 54 00|            MST.|      [2]: "MST" time_zone_designation 0x8bc-0x8bf.7 (4)
0x8c0|4d 57 54 00                                    |MWT.            |      [3]: "MWT" time_zone_designation 0x8c0-0x8c3.7 (4)
0x8c0|            4d 50 54 00                        |    MPT.        |      [4]: "MPT" time_zone_designation 0x8c4-0x8c7.7 (4)
     |                                               |                |    leap_second_records[0:27]: 0x8c8-0xa0b.7 (324)
     |                                               |                |      [0]{}: leap_second_record 0x8c8-0x8d3.7 (12)
0x8c0|                        00 00 00 00 04 b2 58 00|        ......X.|        occur: "1972-07-01T00:00:00Z" (78796800) 0x8c8-0x8cf.7 (8)
0x8d0|00 00 00 01                                    |....            |        corr: 1 0x8d0-0x8d3.7 (4)
     |                                               |                |      [1]{}: leap_second_record 0x8d4-0x8df.7 (12)
0x8d0|            00 00 00 00 05 a4 ec 01            |    ........    |        occur: "1973-01-01T00:00:01Z" (94694401) 0x8d4-0x8db.7 (8)
0x8d0|                                    00 00 00 02|            ....|        corr: 2 0x8dc-0x8df.7 (4)
     |                                               |                |      [2]{}: leap_second_record 0x8e0-0x8eb.7 (12)
0x8e0|00 00 00 00 07 86 1f 82                        |........        |        occur: "1974-01-01T00:00:02Z" (126230402) 0x8e0-0x8e7.7 (8)
0x8e0|                        00 00 00 03            |        ....    |        corr: 3 0x8e8-0x8eb.7 (4)
     |                                               |                |      [3]{}: leap_second_record 0x8ec-0x8f7.7 (12)
0x8e0|                                    00 00 00 00|            ....|        occur: "1975-01-01T00:00:03Z" (157766403) 0x8ec-0x8f3.7 (8)
0x8f0|09 67 53 03                                    |.gS.            |
0x8f0|            00 00 00 04                        |    ....        |        corr: 4 0x8f4-0x8f7.7 (4)
     |                                               |                |      [4]{}: leap_second_record 0x8f8-0x903.7 (12)
0x8f0|                        00 00 00 00 0b 48 86 84|        .....H..|        occur: "1976-01-01T00:00:04Z" (189302404) 0x8f8-0x8ff.7 (8)
0x900|00 00 00 05                                    |....            |        corr: 5 0x900-0x903.7 (4)
     |                                               |                |      [5]{}: leap_second_record 0x904-0x90f.7 (12)
0x900|            00 00 00 00 0d 2b 0b 85            |    .....+..    |        occur: "1977-01-01T00:00:05Z" (220924805) 0x904-0x90b.7 (8)
0x900|                                    00 00 00 06|            ....|        corr: 6 0x90c-0x90f.7 (4)
     |                                               |                |      [6]{}: leap_second_record 0x910-0x91b.7 (12)
0x910|00 00 00 00 0f 0c 3f 06                        |......?.        |        occur: "1978-01-01T00:00:06Z" (252460806) 0x910-0x917.7 (8)
0x910|                        00 00 00 07            |        ....    |        corr: 7 0x918-0x91b.7 (4)
     |                                               |                |      [7]{}: leap_second_record 0x91c-0x927.7 (12)
0x910|                                    00 00 00 00|            ....|        occur: "1979-01-01T00:00:07Z" (283996807) 0x91c-0x923.7 (8)
0x920|10 ed 72 87                                    |..r.            |
0x920|            00 00 00 08                        |    ....        |        corr: 8 0x924-0x927.7 (4)
     |                                               |                |      [8]{}: leap_second_record 0x928-0x933.7 (12)
0x920|                        00 00 00 00 12 ce a6 08|        ........|        occur: "1980-01-01T00:00:08Z" (315532808) 0x928-0x92f.7 (8)
0x930|00 00 00 09                                    |....            |        corr: 9 0x930-0x933.7 (4)
     |                                               |                |      [9]{}: leap_second_record 0x934-0x93f.7 (12)
0x930|            00 00 00 00 15 9f ca 89            |    ........    |        occur: "1981-07-01T00:00:09Z" (362793609) 0x934-0x93b.7 (8)
0x930|                                    00 00 00 0a|            ....|        corr: 10 0x93c-0x93f.7 (4)
     |                                               |                |      [10]{}: leap_second_record 0x940-0x94b.7 (12)
0x940|00 00 00 00 17 80 fe 0a                        |........        |        occur: "1982-07-01T00:00:10Z" (394329610) 0x940-0x947.7 (8)
0x940|                        00 00 00 0b            |        ....    |        corr: 11 0x948-0x94b.7 (4)
     |                                               |                |      [11]{}: leap_second_record 0x94c-0x957.7 (12)
0x940|                                    00 00 00 00|            ....|        occur: "1983-07-01T00:00:11Z" (425865611) 0x94c-0x953.7 (8)
0x950|19 62 31 8b                                    |.b1.            |
0x950|            00 00 00 0c                        |    ....        |        corr: 12 0x954-0x957.7 (4)
     |                                               |                |      [12]{}: leap_second_record 0x958-0x963.7 (12)
0x950|                        00 00 00 00 1d 25 ea 0c|        .....%..|        occur: "1985-07-01T00:00:12Z" (489024012) 0x958-0x95f.7 (8)
0x960|00 00 00 0d                                    |....            |        corr: 13 0x960-0x963.7 (4)
     |                                               |                |      [13]{}: leap_second_record 0x964-0x96f.7 (12)
0x960|            00 00 00 00 21 da e5 0d            |    ....!...    |        occur: "1988-01-01T00:00:13Z" (567993613) 0x964-0x96b.7 (8)
0x960|                                    00 00 00 0e|            ....|        corr: 14 0x96c-0x96f.7 (4)
     |                                               |                |      [14]{}: leap_second_record 0x970-0x97b.7 (12)
0x970|00 00 00 00 25 9e 9d 8e                        |....%...        |        occur: "1990-01-01T00:00:14Z" (631152014) 0x970-0x977.7 (8)
0x970|                        00 00 00 0f            |        ....    |        corr: 15 0x978-0x97b.7 (4)
     |                                               |                |      [15]{}: leap_second_record 0x97c-0x987.7 (12)
0x970|                                    00 00 00 00|            ....|        occur: "1991-01-01T00:00:15Z" (662688015) 0x97c-0x983.7 (8)
0x980|27 7f d1 0f                                    |'...            |
0x980|            00 00 00 10                        |    ....        |        corr: 16 0x984-0x987.7 (4)
     |                                               |                |      [16]{}: leap_second_record 0x988-0x993.7 (12)
0x980|                        00 00 00 00 2a 50 f5 90|        ....*P..|        occur: "1992-07-01T00:00:16Z" (709948816) 0x988-0x98f.7 (8)
0x990|00 00 00 11                                    |....            |        corr: 17 0x990-0x993.7 (4)
     |                                               |                |      [17]{}: leap_second_record 0x994-0x99f.7 (12)
0x990|            00 00 00 00 2c 32 29 11            |    ....,2).    |        occur: "1993-07-01T00:00:17Z" (741484817) 0x994-0x99b.7 (8)
0x990|                                    00 00 00 12|            ....|        corr: 18 0x99c-0x99f.7 (4)
     |                                               |                |      [18]{}: leap_second_record 0x9a0-0x9ab.7 (12)
0x9a0|00 00 00 00 2e 13 5c 92                        |......\.        |        occur: "1994-07-01T00:00:18Z" (773020818) 0x9a0-0x9a7.7 (8)
0x9a0|                        00 00 00 13            |        ....    |        corr: 19 0x9a8-0x9ab.7 (4)
     |                                               |                |      [19]{}: leap_second_record 0x9ac-0x9b7.7 (12)
0x9a0|                                    00 00 00 00|            ....|        occur: "1996-01-01T00:00:19Z" (820454419) 0x9ac-0x9b3.7 (8)
0x9b0|30 e7 24 13                                    |0.$.            |
0x9b0|            00 00 00 14                        |    ....        |        corr: 20 0x9b4-0x9b7.7 (4)
     |                                               |                |      [20]{}: leap_second_record 0x9b8-0x9c3.7 (12)
0x9b0|                        00 00 00 00 33 b8 48 94|        ....3.H.|        occur: "1997-07-01T00:00:20Z" (867715220) 0x9b8-0x9bf.7 (8)
0x9c0|00 00 00 15                                    |....            |        corr: 21 0x9c0-0x9c3.7 (4)
     |                                               |                |      [21]{}: leap_second_record 0x9c4-0x9cf.7 (12)
0x9c0|            00 00 00 00 36 8c 10 15            |    ....6...    |        occur: "1999-01-01T00:00:21Z" (915148821) 0x9c4-0x9cb.7 (8)
0x9c0|                                    00 00 00 16|            ....|        corr: 22 0x9cc-0x9cf.7 (4)
     |                                               |                |      [22]{}: leap_second_record 0x9d0-0x9db.7 (12)
0x9d0|00 00 00 00 43 b7 1b 96                        |....C...        |        occur: "2006-01-01T00:00:22Z" (1136073622) 0x9d0-0x9d7.7 (8)
0x9d0|                        00 00 00 17            |        ....    |        corr: 23 0x9d8-0x9db.7 (4)
     |                                               |                |      [23]{}: leap_second_record 0x9dc-0x9e7.7 (12)
0x9d0|                                    00 00 00 00|            ....|        occur: "2009-01-01T00:00:23Z" (1230768023) 0x9dc-0x9e3.7 (8)
0x9e0|49 5c 07 97                                    |I\..            |
0x9e0|            00 00 00 18                        |    ....        |        corr: 24 0x9e4-0x9e7.7 (4)
     |                                               |                |      [24]{}: leap_second_record 0x9e8-0x9f3.7 (12)
0x9e0|                        00 00 00 00 4f ef 93 18|        ....O...|        occur: "2012-07-01T00:00:24Z" (1341100824) 0x9e8-0x9ef.7 (8)
0x9f0|00 00 00 19                                    |....            |        corr: 25 0x9f0-0x9f3.7 (4)
     |                                               |                |      [25]{}: leap_second_record 0x9f4-0x9ff.7 (12)
0x9f0|            00 00 00 00 55 93 2d 99            |    ....U.-.    |        occur: "2015-07-01T00:00:25Z" (1435708825) 0x9f4-0x9fb.7 (8)
0x9f0|                                    00 00 00 1a|            ....|        corr: 26 0x9fc-0x9ff.7 (4)
     |                                               |                |      [26]{}: leap_second_record 0xa00-0xa0b.7 (12)
0xa00|00 00 00 00 58 68 46 9a                        |....XhF.        |        occur: "2017-01-01T00:00:26Z" (1483228826) 0xa00-0xa07.7 (8)
0xa00|                        00 00 00 1b            |        ....    |        corr: 27 0xa08-0xa0b.7 (4)
     |                                               |                |    standard_wall_indicators[0:6]: 0xa0c-0xa11.7 (6)
0xa00|                                    00         |            .   |      [0]: 0 standard_wall_indicator (valid) 0xa0c-0xa0c.7 (1)
0xa00|                                       00      |             .  |      [1]: 0 standard_wall_indicator (valid) 0xa0d-0xa0d.7 (1)
0xa00|                                          00   |              . |      [2]: 0 standard_wall_indicator (valid) 0xa0e-0xa0e.7 (1)
0xa00|                                             01|               .|      [3]: 1 standard_wall_indicator (valid) 0xa0f-0xa0f.7 (1)
0xa10|00                                             |.               |      [4]: 0 standard_wall_indicator (valid) 0xa10-0xa10.7 (1)
0xa10|   01                                          | .              |      [5]: 1 standard_wall_indicator (valid) 0xa11-0xa11.7 (1)
     |                                               |                |    ut_local_indicators[0:6]: 0xa12-0xa17.7 (6)
0xa10|      00                                       |  .             |      [0]: 0 ut_local_indicator (valid) 0xa12-0xa12.7 (1)
0xa10|         00                                    |   .            |      [1]: 0 ut_local_indicator (valid) 0xa13-0xa13.7 (1)
0xa10|            00                                 |    .           |      [2]: 0 ut_local_indicator (valid) 0xa14-0xa14.7 (1)
0xa10|               01                              |     .          |      [3]: 1 ut_local_indicator (valid) 0xa15-0xa15.7 (1)
0xa10|                  00                           |      .         |      [4]: 0 ut_local_indicator (valid) 0xa16-0xa16.7 (1)
0xa10|                     01                        |       .        |      [5]: 1 ut_local_indicator (valid) 0xa17-0xa17.7 (1)
     |                                               |                |  footer{}: 0xa18-0xa19.7 (2)
0xa10|                        0a                     |        .       |    nl1: 10 (valid) 0xa18-0xa18.7 (1)
     |                                               |                |    tz_string: "" 0xa19-NA (0)
0xa10|                           0a|                 |         .|     |    nl2: 10 (valid) 0xa19-0xa19.7 (1)
