$ fq -d tzif dv Detroit
     |00 01 02 03 04 05 06 07 08 09 0a 0b 0c 0d 0e 0f|0123456789abcdef|.{}: Detroit (tzif) 0x0-0x934 (2356)
     |                                               |                |  v1header{}: 0x0-0x2c (44)
0x000|54 5a 69 66                                    |TZif            |    magic: 0x545a6966 (valid) 0x0-0x4 (4)
0x000|            32                                 |    2           |    ver: "2" (0x32) (valid) 0x4-0x5 (1)
0x000|               00 00 00 00 00 00 00 00 00 00 00|     ...........|    reserved: raw bits 0x5-0x14 (15)
0x010|00 00 00 00                                    |....            |
0x010|            00 00 00 06                        |    ....        |    isutcnt: 6 0x14-0x18 (4)
0x010|                        00 00 00 06            |        ....    |    isstdcnt: 6 0x18-0x1c (4)
0x010|                                    00 00 00 1b|            ....|    leapcnt: 27 0x1c-0x20 (4)
0x020|00 00 00 71                                    |...q            |    timecnt: 113 0x20-0x24 (4)
0x020|            00 00 00 06                        |    ....        |    typecnt: 6 0x24-0x28 (4)
0x020|                        00 00 00 18            |        ....    |    charcnt: 24 0x28-0x2c (4)
     |                                               |                |  v1datablock{}: 0x2c-0x381 (853)
     |                                               |                |    transition_times[0:113]: 0x2c-0x1f0 (452)
0x020|                                    85 bd 22 5b|            .."[|      [0]: "1905-01-01T05:32:11Z" (-2051202469) transition_time 0x2c-0x30 (4)
0x030|99 3c 94 00                                    |.<..            |      [1]: "1915-05-15T08:00:00Z" (-1724083200) transition_time 0x30-0x34 (4)
0x030|            cb 88 f0 70                        |    ...p        |      [2]: "1942-02-09T07:00:00Z" (-880218000) transition_time 0x34-0x38 (4)
0x030|                        d2 23 f4 70            |        .#.p    |      [3]: "1945-08-14T23:00:00Z" (-769395600) transition_time 0x38-0x3c (4)
0x030|                                    d2 60 fb e0|            .`..|      [4]: "1945-09-30T06:00:00Z" (-765396000) transition_time 0x3c-0x40 (4)
0x040|d7 35 a8 f0                                    |.5..            |      [5]: "1948-04-25T07:00:00Z" (-684349200) transition_time 0x40-0x44 (4)
0x040|            d8 00 a1 e0                        |    ....        |      [6]: "1948-09-26T06:00:00Z" (-671047200) transition_time 0x44-0x48 (4)
0x040|                        fb 33 90 8c            |        .3..    |      [7]: "1967-06-14T05:01:00Z" (-80506740) transition_time 0x48-0x4c (4)
0x040|                                    fb e8 3b e0|            ..;.|      [8]: "1967-10-29T06:00:00Z" (-68666400) transition_time 0x4c-0x50 (4)
0x050|fc d8 3a f0                                    |..:.            |      [9]: "1968-04-28T07:00:00Z" (-52938000) transition_time 0x50-0x54 (4)
0x050|            fd c8 1d e0                        |    ....        |      [10]: "1968-10-27T06:00:00Z" (-37216800) transition_time 0x54-0x58 (4)
0x050|                        06 40 df 72            |        .@.r    |      [11]: "1973-04-29T07:00:02Z" (104914802) transition_time 0x58-0x5c (4)
0x050|                                    07 30 c2 62|            .0.b|      [12]: "1973-10-28T06:00:02Z" (120636002) transition_time 0x5c-0x60 (4)
0x060|07 8d 19 73                                    |...s            |      [13]: "1974-01-06T07:00:03Z" (126687603) transition_time 0x60-0x64 (4)
0x060|            09 10 a4 63                        |    ...c        |      [14]: "1974-10-27T06:00:03Z" (152085603) transition_time 0x64-0x68 (4)
0x060|                        0a 00 a3 74            |        ...t    |      [15]: "1975-04-27T07:00:04Z" (167814004) transition_time 0x68-0x6c (4)
0x060|                                    0a f0 86 64|            ...d|      [16]: "1975-10-26T06:00:04Z" (183535204) transition_time 0x6c-0x70 (4)
0x070|0b e0 85 75                                    |...u            |      [17]: "1976-04-25T07:00:05Z" (199263605) transition_time 0x70-0x74 (4)
0x070|            0c d9 a2 e5                        |    ....        |      [18]: "1976-10-31T06:00:05Z" (215589605) transition_time 0x74-0x78 (4)
0x070|                        0d c0 67 76            |        ..gv    |      [19]: "1977-04-24T07:00:06Z" (230713206) transition_time 0x78-0x7c (4)
0x070|                                    0e b9 84 e6|            ....|      [20]: "1977-10-30T06:00:06Z" (247039206) transition_time 0x7c-0x80 (4)
0x080|0f a9 83 f7                                    |....            |      [21]: "1978-04-30T07:00:07Z" (262767607) transition_time 0x80-0x84 (4)
0x080|            10 99 66 e7                        |    ..f.        |      [22]: "1978-10-29T06:00:07Z" (278488807) transition_time 0x84-0x88 (4)
0x080|                        11 89 65 f8            |        ..e.    |      [23]: "1979-04-29T07:00:08Z" (294217208) transition_time 0x88-0x8c (4)
0x080|                                    12 79 48 e8|            .yH.|      [24]: "1979-10-28T06:00:08Z" (309938408) transition_time 0x8c-0x90 (4)
0x090|13 69 47 f9                                    |.iG.            |      [25]: "1980-04-27T07:00:09Z" (325666809) transition_time 0x90-0x94 (4)
0x090|            14 59 2a e9                        |    .Y*.        |      [26]: "1980-10-26T06:00:09Z" (341388009) transition_time 0x94-0x98 (4)
0x090|                        15 49 29 f9            |        .I).    |      [27]: "1981-04-26T07:00:09Z" (357116409) transition_time 0x98-0x9c (4)
0x090|                                    16 39 0c ea|            .9..|      [28]: "1981-10-25T06:00:10Z" (372837610) transition_time 0x9c-0xa0 (4)
0x0a0|17 29 0b fa                                    |.)..            |      [29]: "1982-04-25T07:00:10Z" (388566010) transition_time 0xa0-0xa4 (4)
0x0a0|            18 22 29 6b                        |    .")k        |      [30]: "1982-10-31T06:00:11Z" (404892011) transition_time 0xa4-0xa8 (4)
0x0a0|                        19 08 ed fb            |        ....    |      [31]: "1983-04-24T07:00:11Z" (420015611) transition_time 0xa8-0xac (4)
0x0a0|                                    1a 02 0b 6c|            ...l|      [32]: "1983-10-30T06:00:12Z" (436341612) transition_time 0xac-0xb0 (4)
0x0b0|1a f2 0a 7c                                    |...|            |      [33]: "1984-04-29T07:00:12Z" (452070012) transition_time 0xb0-0xb4 (4)
0x0b0|            1b e1 ed 6c                        |    ...l        |      [34]: "1984-10-28T06:00:12Z" (467791212) transition_time 0xb4-0xb8 (4)
0x0b0|                        1c d1 ec 7c            |        ...|    |      [35]: "1985-04-28T07:00:12Z" (483519612) transition_time 0xb8-0xbc (4)
0x0b0|                                    1d c1 cf 6d|            ...m|      [36]: "1985-10-27T06:00:13Z" (499240813) transition_time 0xbc-0xc0 (4)
0x0c0|1e b1 ce 7d                                    |...}            |      [37]: "1986-04-27T07:00:13Z" (514969213) transition_time 0xc0-0xc4 (4)
0x0c0|            1f a1 b1 6d                        |    ...m        |      [38]: "1986-10-26T06:00:13Z" (530690413) transition_time 0xc4-0xc8 (4)
0x0c0|                        20 76 00 fd            |         v..    |      [39]: "1987-04-05T07:00:13Z" (544604413) transition_time 0xc8-0xcc (4)
0x0c0|                                    21 81 93 6d|            !..m|      [40]: "1987-10-25T06:00:13Z" (562140013) transition_time 0xcc-0xd0 (4)
0x0d0|22 55 e2 fe                                    |"U..            |      [41]: "1988-04-03T07:00:14Z" (576054014) transition_time 0xd0-0xd4 (4)
0x0d0|            23 6a af ee                        |    #j..        |      [42]: "1988-10-30T06:00:14Z" (594194414) transition_time 0xd4-0xd8 (4)
0x0d0|                        24 35 c4 fe            |        $5..    |      [43]: "1989-04-02T07:00:14Z" (607503614) transition_time 0xd8-0xdc (4)
0x0d0|                                    25 4a 91 ee|            %J..|      [44]: "1989-10-29T06:00:14Z" (625644014) transition_time 0xdc-0xe0 (4)
0x0e0|26 15 a6 ff                                    |&...            |      [45]: "1990-04-01T07:00:15Z" (638953215) transition_time 0xe0-0xe4 (4)
0x0e0|            27 2a 73 ef                        |    '*s.        |      [46]: "1990-10-28T06:00:15Z" (657093615) transition_time 0xe4-0xe8 (4)
0x0e0|                        27 fe c3 80            |        '...    |      [47]: "1991-04-07T07:00:16Z" (671007616) transition_time 0xe8-0xec (4)
0x0e0|                                    29 0a 55 f0|            ).U.|      [48]: "1991-10-27T06:00:16Z" (688543216) transition_time 0xec-0xf0 (4)
0x0f0|29 de a5 80                                    |)...            |      [49]: "1992-04-05T07:00:16Z" (702457216) transition_time 0xf0-0xf4 (4)
0x0f0|            2a ea 37 f1                        |    *.7.        |      [50]: "1992-10-25T06:00:17Z" (719992817) transition_time 0xf4-0xf8 (4)
0x0f0|                        2b be 87 81            |        +...    |      [51]: "1993-04-04T07:00:17Z" (733906817) transition_time 0xf8-0xfc (4)
0x0f0|                                    2c d3 54 72|            ,.Tr|      [52]: "1993-10-31T06:00:18Z" (752047218) transition_time 0xfc-0x100 (4)
0x100|2d 9e 69 82                                    |-.i.            |      [53]: "1994-04-03T07:00:18Z" (765356418) transition_time 0x100-0x104 (4)
0x100|            2e b3 36 73                        |    ..6s        |      [54]: "1994-10-30T06:00:19Z" (783496819) transition_time 0x104-0x108 (4)
0x100|                        2f 7e 4b 83            |        /~K.    |      [55]: "1995-04-02T07:00:19Z" (796806019) transition_time 0x108-0x10c (4)
0x100|                                    30 93 18 73|            0..s|      [56]: "1995-10-29T06:00:19Z" (814946419) transition_time 0x10c-0x110 (4)
0x110|31 67 68 04                                    |1gh.            |      [57]: "1996-04-07T07:00:20Z" (828860420) transition_time 0x110-0x114 (4)
0x110|            32 72 fa 74                        |    2r.t        |      [58]: "1996-10-27T06:00:20Z" (846396020) transition_time 0x114-0x118 (4)
0x110|                        33 47 4a 04            |        3GJ.    |      [59]: "1997-04-06T07:00:20Z" (860310020) transition_time 0x118-0x11c (4)
0x110|                                    34 52 dc 75|            4R.u|      [60]: "1997-10-26T06:00:21Z" (877845621) transition_time 0x11c-0x120 (4)
0x120|35 27 2c 05                                    |5',.            |      [61]: "1998-04-05T07:00:21Z" (891759621) transition_time 0x120-0x124 (4)
0x120|            36 32 be 75                        |    62.u        |      [62]: "1998-10-25T06:00:21Z" (909295221) transition_time 0x124-0x128 (4)
0x120|                        37 07 0e 06            |        7...    |      [63]: "1999-04-04T07:00:22Z" (923209222) transition_time 0x128-0x12c (4)
0x120|                                    38 1b da f6|            8...|      [64]: "1999-10-31T06:00:22Z" (941349622) transition_time 0x12c-0x130 (4)
0x130|38 e6 f0 06                                    |8...            |      [65]: "2000-04-02T07:00:22Z" (954658822) transition_time 0x130-0x134 (4)
0x130|            39 fb bc f6                        |    9...        |      [66]: "2000-10-29T06:00:22Z" (972799222) transition_time 0x134-0x138 (4)
0x130|                        3a c6 d2 06            |        :...    |      [67]: "2001-04-01T07:00:22Z" (986108422) transition_time 0x138-0x13c (4)
0x130|                                    3b db 9e f6|            ;...|      [68]: "2001-10-28T06:00:22Z" (1004248822) transition_time 0x13c-0x140 (4)
0x140|3c af ee 86                                    |<...            |      [69]: "2002-04-07T07:00:22Z" (1018162822) transition_time 0x140-0x144 (4)
0x140|            3d bb 80 f6                        |    =...        |      [70]: "2002-10-27T06:00:22Z" (1035698422) transition_time 0x144-0x148 (4)
0x140|                        3e 8f d0 86            |        >...    |      [71]: "2003-04-06T07:00:22Z" (1049612422) transition_time 0x148-0x14c (4)
0x140|                                    3f 9b 62 f6|            ?.b.|      [72]: "2003-10-26T06:00:22Z" (1067148022) transition_time 0x14c-0x150 (4)
0x150|40 6f b2 86                                    |@o..            |      [73]: "2004-04-04T07:00:22Z" (1081062022) transition_time 0x150-0x154 (4)
0x150|            41 84 7f 76                        |    A..v        |      [74]: "2004-10-31T06:00:22Z" (1099202422) transition_time 0x154-0x158 (4)
0x150|                        42 4f 94 86            |        BO..    |      [75]: "2005-04-03T07:00:22Z" (1112511622) transition_time 0x158-0x15c (4)
0x150|                                    43 64 61 76|            Cdav|      [76]: "2005-10-30T06:00:22Z" (1130652022) transition_time 0x15c-0x160 (4)
0x160|44 2f 76 87                                    |D/v.            |      [77]: "2006-04-02T07:00:23Z" (1143961223) transition_time 0x160-0x164 (4)
0x160|            45 44 43 77                        |    EDCw        |      [78]: "2006-10-29T06:00:23Z" (1162101623) transition_time 0x164-0x168 (4)
0x160|                        45 f3 a9 07            |        E...    |      [79]: "2007-03-11T07:00:23Z" (1173596423) transition_time 0x168-0x16c (4)
0x160|                                    47 2d 5f f7|            G-_.|      [80]: "2007-11-04T06:00:23Z" (1194156023) transition_time 0x16c-0x170 (4)
0x170|47 d3 8b 07                                    |G...            |      [81]: "2008-03-09T07:00:23Z" (1205046023) transition_time 0x170-0x174 (4)
0x170|            49 0d 41 f7                        |    I.A.        |      [82]: "2008-11-02T06:00:23Z" (1225605623) transition_time 0x174-0x178 (4)
0x170|                        49 b3 6d 08            |        I.m.    |      [83]: "2009-03-08T07:00:24Z" (1236495624) transition_time 0x178-0x17c (4)
0x170|                                    4a ed 23 f8|            J.#.|      [84]: "2009-11-01T06:00:24Z" (1257055224) transition_time 0x17c-0x180 (4)
0x180|4b 9c 89 88                                    |K...            |      [85]: "2010-03-14T07:00:24Z" (1268550024) transition_time 0x180-0x184 (4)
0x180|            4c d6 40 78                        |    L.@x        |      [86]: "2010-11-07T06:00:24Z" (1289109624) transition_time 0x184-0x188 (4)
0x180|                        4d 7c 6b 88            |        M|k.    |      [87]: "2011-03-13T07:00:24Z" (1299999624) transition_time 0x188-0x18c (4)
0x180|                                    4e b6 22 78|            N."x|      [88]: "2011-11-06T06:00:24Z" (1320559224) transition_time 0x18c-0x190 (4)
0x190|4f 5c 4d 88                                    |O\M.            |      [89]: "2012-03-11T07:00:24Z" (1331449224) transition_time 0x190-0x194 (4)
0x190|            50 96 04 79                        |    P..y        |      [90]: "2012-11-04T06:00:25Z" (1352008825) transition_time 0x194-0x198 (4)
0x190|                        51 3c 2f 89            |        Q</.    |      [91]: "2013-03-10T07:00:25Z" (1362898825) transition_time 0x198-0x19c (4)
0x190|                                    52 75 e6 79|            Ru.y|      [92]: "2013-11-03T06:00:25Z" (1383458425) transition_time 0x19c-0x1a0 (4)
0x1a0|53 1c 11 89                                    |S...            |      [93]: "2014-03-09T07:00:25Z" (1394348425) transition_time 0x1a0-0x1a4 (4)
0x1a0|            54 55 c8 79                        |    TU.y        |      [94]: "2014-11-02T06:00:25Z" (1414908025) transition_time 0x1a4-0x1a8 (4)
0x1a0|                        54 fb f3 89            |        T...    |      [95]: "2015-03-08T07:00:25Z" (1425798025) transition_time 0x1a8-0x1ac (4)
0x1a0|                                    56 35 aa 7a|            V5.z|      [96]: "2015-11-01T06:00:26Z" (1446357626) transition_time 0x1ac-0x1b0 (4)
0x1b0|56 e5 10 0a                                    |V...            |      [97]: "2016-03-13T07:00:26Z" (1457852426) transition_time 0x1b0-0x1b4 (4)
0x1b0|            58 1e c6 fa                        |    X...        |      [98]: "2016-11-06T06:00:26Z" (1478412026) transition_time 0x1b4-0x1b8 (4)
0x1b0|                        58 c4 f2 0b            |        X...    |      [99]: "2017-03-12T07:00:27Z" (1489302027) transition_time 0x1b8-0x1bc (4)
0x1b0|                                    59 fe a8 fb|            Y...|      [100]: "2017-11-05T06:00:27Z" (1509861627) transition_time 0x1bc-0x1c0 (4)
0x1c0|5a a4 d4 0b                                    |Z...            |      [101]: "2018-03-11T07:00:27Z" (1520751627) transition_time 0x1c0-0x1c4 (4)
0x1c0|            5b de 8a fb                        |    [...        |      [102]: "2018-11-04T06:00:27Z" (1541311227) transition_time 0x1c4-0x1c8 (4)
0x1c0|                        5c 84 b6 0b            |        \...    |      [103]: "2019-03-10T07:00:27Z" (1552201227) transition_time 0x1c8-0x1cc (4)
0x1c0|                                    5d be 6c fb|            ].l.|      [104]: "2019-11-03T06:00:27Z" (1572760827) transition_time 0x1cc-0x1d0 (4)
0x1d0|5e 64 98 0b                                    |^d..            |      [105]: "2020-03-08T07:00:27Z" (1583650827) transition_time 0x1d0-0x1d4 (4)
0x1d0|            5f 9e 4e fb                        |    _.N.        |      [106]: "2020-11-01T06:00:27Z" (1604210427) transition_time 0x1d4-0x1d8 (4)
0x1d0|                        60 4d b4 8b            |        `M..    |      [107]: "2021-03-14T07:00:27Z" (1615705227) transition_time 0x1d8-0x1dc (4)
0x1d0|                                    61 87 6b 7b|            a.k{|      [108]: "2021-11-07T06:00:27Z" (1636264827) transition_time 0x1dc-0x1e0 (4)
0x1e0|62 2d 96 8b                                    |b-..            |      [109]: "2022-03-13T07:00:27Z" (1647154827) transition_time 0x1e0-0x1e4 (4)
0x1e0|            63 67 4d 7b                        |    cgM{        |      [110]: "2022-11-06T06:00:27Z" (1667714427) transition_time 0x1e4-0x1e8 (4)
0x1e0|                        64 0d 78 8b            |        d.x.    |      [111]: "2023-03-12T07:00:27Z" (1678604427) transition_time 0x1e8-0x1ec (4)
0x1e0|                                    64 9b 78 1b|            d.x.|      [112]: "2023-06-28T00:00:27Z" (1687910427) transition_time 0x1ec-0x1f0 (4)
     |                                               |                |    transition_types[0:113]: 0x1f0-0x261 (113)
0x1f0|01                                             |.               |      [0]: 1 transition_type 0x1f0-0x1f1 (1)
0x1f0|   02                                          | .              |      [1]: 2 transition_type 0x1f1-0x1f2 (1)
0x1f0|      03                                       |  .             |      [2]: 3 transition_type 0x1f2-0x1f3 (1)
0x1f0|         04                                    |   .            |      [3]: 4 transition_type 0x1f3-0x1f4 (1)
0x1f0|            02                                 |    .           |      [4]: 2 transition_type 0x1f4-0x1f5 (1)
0x1f0|               05                              |     .          |      [5]: 5 transition_type 0x1f5-0x1f6 (1)
0x1f0|                  02                           |      .         |      [6]: 2 transition_type 0x1f6-0x1f7 (1)
0x1f0|                     05                        |       .        |      [7]: 5 transition_type 0x1f7-0x1f8 (1)
0x1f0|                        02                     |        .       |      [8]: 2 transition_type 0x1f8-0x1f9 (1)
0x1f0|                           05                  |         .      |      [9]: 5 transition_type 0x1f9-0x1fa (1)
0x1f0|                              02               |          .     |      [10]: 2 transition_type 0x1fa-0x1fb (1)
0x1f0|                                 05            |           .    |      [11]: 5 transition_type 0x1fb-0x1fc (1)
0x1f0|                                    02         |            .   |      [12]: 2 transition_type 0x1fc-0x1fd (1)
0x1f0|                                       05      |             .  |      [13]: 5 transition_type 0x1fd-0x1fe (1)
0x1f0|                                          02   |              . |      [14]: 2 transition_type 0x1fe-0x1ff (1)
0x1f0|                                             05|               .|      [15]: 5 transition_type 0x1ff-0x200 (1)
0x200|02                                             |.               |      [16]: 2 transition_type 0x200-0x201 (1)
0x200|   05                                          | .              |      [17]: 5 transition_type 0x201-0x202 (1)
0x200|      02                                       |  .             |      [18]: 2 transition_type 0x202-0x203 (1)
0x200|         05                                    |   .            |      [19]: 5 transition_type 0x203-0x204 (1)
0x200|            02                                 |    .           |      [20]: 2 transition_type 0x204-0x205 (1)
0x200|               05                              |     .          |      [21]: 5 transition_type 0x205-0x206 (1)
0x200|                  02                           |      .         |      [22]: 2 transition_type 0x206-0x207 (1)
0x200|                     05                        |       .        |      [23]: 5 transition_type 0x207-0x208 (1)
0x200|                        02                     |        .       |      [24]: 2 transition_type 0x208-0x209 (1)
0x200|                           05                  |         .      |      [25]: 5 transition_type 0x209-0x20a (1)
0x200|                              02               |          .     |      [26]: 2 transition_type 0x20a-0x20b (1)
0x200|                                 05            |           .    |      [27]: 5 transition_type 0x20b-0x20c (1)
0x200|                                    02         |            .   |      [28]: 2 transition_type 0x20c-0x20d (1)
0x200|                                       05      |             .  |      [29]: 5 transition_type 0x20d-0x20e (1)
0x200|                                          02   |              . |      [30]: 2 transition_type 0x20e-0x20f (1)
0x200|                                             05|               .|      [31]: 5 transition_type 0x20f-0x210 (1)
0x210|02                                             |.               |      [32]: 2 transition_type 0x210-0x211 (1)
0x210|   05                                          | .              |      [33]: 5 transition_type 0x211-0x212 (1)
0x210|      02                                       |  .             |      [34]: 2 transition_type 0x212-0x213 (1)
0x210|         05                                    |   .            |      [35]: 5 transition_type 0x213-0x214 (1)
0x210|            02                                 |    .           |      [36]: 2 transition_type 0x214-0x215 (1)
0x210|               05                              |     .          |      [37]: 5 transition_type 0x215-0x216 (1)
0x210|                  02                           |      .         |      [38]: 2 transition_type 0x216-0x217 (1)
0x210|                     05                        |       .        |      [39]: 5 transition_type 0x217-0x218 (1)
0x210|                        02                     |        .       |      [40]: 2 transition_type 0x218-0x219 (1)
0x210|                           05                  |         .      |      [41]: 5 transition_type 0x219-0x21a (1)
0x210|                              02               |          .     |      [42]: 2 transition_type 0x21a-0x21b (1)
0x210|                                 05            |           .    |      [43]: 5 transition_type 0x21b-0x21c (1)
0x210|                                    02         |            .   |      [44]: 2 transition_type 0x21c-0x21d (1)
0x210|                                       05      |             .  |      [45]: 5 transition_type 0x21d-0x21e (1)
0x210|                                          02   |              . |      [46]: 2 transition_type 0x21e-0x21f (1)
0x210|                                             05|               .|      [47]: 5 transition_type 0x21f-0x220 (1)
0x220|02                                             |.               |      [48]: 2 transition_type 0x220-0x221 (1)
0x220|   05                                          | .              |      [49]: 5 transition_type 0x221-0x222 (1)
0x220|      02                                       |  .             |      [50]: 2 transition_type 0x222-0x223 (1)
0x220|         05                                    |   .            |      [51]: 5 transition_type 0x223-0x224 (1)
0x220|            02                                 |    .           |      [52]: 2 transition_type 0x224-0x225 (1)
0x220|               05                              |     .          |      [53]: 5 transition_type 0x225-0x226 (1)
0x220|                  02                           |      .         |      [54]: 2 transition_type 0x226-0x227 (1)
0x220|                     05                        |       .        |      [55]: 5 transition_type 0x227-0x228 (1)
0x220|                        02                     |        .       |      [56]: 2 transition_type 0x228-0x229 (1)
0x220|                           05                  |         .      |      [57]: 5 transition_type 0x229-0x22a (1)
0x220|                              02               |          .     |      [58]: 2 transition_type 0x22a-0x22b (1)
0x220|                                 05            |           .    |      [59]: 5 transition_type 0x22b-0x22c (1)
0x220|                                    02         |            .   |      [60]: 2 transition_type 0x22c-0x22d (1)
0x220|                                       05      |             .  |      [61]: 5 transition_type 0x22d-0x22e (1)
0x220|                                          02   |              . |      [62]: 2 transition_type 0x22e-0x22f (1)
0x220|                                             05|               .|      [63]: 5 transition_type 0x22f-0x230 (1)
0x230|02                                             |.               |      [64]: 2 transition_type 0x230-0x231 (1)
0x230|   05                                          | .              |      [65]: 5 transition_type 0x231-0x232 (1)
0x230|      02                                       |  .             |      [66]: 2 transition_type 0x232-0x233 (1)
0x230|         05                                    |   .            |      [67]: 5 transition_type 0x233-0x234 (1)
0x230|            02                                 |    .           |      [68]: 2 transition_type 0x234-0x235 (1)
0x230|               05                              |     .          |      [69]: 5 transition_type 0x235-0x236 (1)
0x230|                  02                           |      .         |      [70]: 2 transition_type 0x236-0x237 (1)
0x230|                     05                        |       .        |      [71]: 5 transition_type 0x237-0x238 (1)
0x230|                        02                     |        .       |      [72]: 2 transition_type 0x238-0x239 (1)
0x230|                           05                  |         .      |      [73]: 5 transition_type 0x239-0x23a (1)
0x230|                              02               |          .     |      [74]: 2 transition_type 0x23a-0x23b (1)
0x230|                                 05            |           .    |      [75]: 5 transition_type 0x23b-0x23c (1)
0x230|                                    02         |            .   |      [76]: 2 transition_type 0x23c-0x23d (1)
0x230|                                       05      |             .  |      [77]: 5 transition_type 0x23d-0x23e (1)
0x230|                                          02   |              . |      [78]: 2 transition_type 0x23e-0x23f (1)
0x230|                                             05|               .|      [79]: 5 transition_type 0x23f-0x240 (1)
0x240|02                                             |.               |      [80]: 2 transition_type 0x240-0x241 (1)
0x240|   05                                          | .              |      [81]: 5 transition_type 0x241-0x242 (1)
0x240|      02                                       |  .             |      [82]: 2 transition_type 0x242-0x243 (1)
0x240|         05                                    |   .            |      [83]: 5 transition_type 0x243-0x244 (1)
0x240|            02                                 |    .           |      [84]: 2 transition_type 0x244-0x245 (1)
0x240|               05                              |     .          |      [85]: 5 transition_type 0x245-0x246 (1)
0x240|                  02                           |      .         |      [86]: 2 transition_type 0x246-0x247 (1)
0x240|                     05                        |       .        |      [87]: 5 transition_type 0x247-0x248 (1)
0x240|                        02                     |        .       |      [88]: 2 transition_type 0x248-0x249 (1)
0x240|                           05                  |         .      |      [89]: 5 transition_type 0x249-0x24a (1)
0x240|                              02               |          .     |      [90]: 2 transition_type 0x24a-0x24b (1)
0x240|                                 05            |           .    |      [91]: 5 transition_type 0x24b-0x24c (1)
0x240|                                    02         |            .   |      [92]: 2 transition_type 0x24c-0x24d (1)
0x240|                                       05      |             .  |      [93]: 5 transition_type 0x24d-0x24e (1)
0x240|                                          02   |              . |      [94]: 2 transition_type 0x24e-0x24f (1)
0x240|                                             05|               .|      [95]: 5 transition_type 0x24f-0x250 (1)
0x250|02                                             |.               |      [96]: 2 transition_type 0x250-0x251 (1)
0x250|   05                                          | .              |      [97]: 5 transition_type 0x251-0x252 (1)
0x250|      02                                       |  .             |      [98]: 2 transition_type 0x252-0x253 (1)
0x250|         05                                    |   .            |      [99]: 5 transition_type 0x253-0x254 (1)
0x250|            02                                 |    .           |      [100]: 2 transition_type 0x254-0x255 (1)
0x250|               05                              |     .          |      [101]: 5 transition_type 0x255-0x256 (1)
0x250|                  02                           |      .         |      [102]: 2 transition_type 0x256-0x257 (1)
0x250|                     05                        |       .        |      [103]: 5 transition_type 0x257-0x258 (1)
0x250|                        02                     |        .       |      [104]: 2 transition_type 0x258-0x259 (1)
0x250|                           05                  |         .      |      [105]: 5 transition_type 0x259-0x25a (1)
0x250|                              02               |          .     |      [106]: 2 transition_type 0x25a-0x25b (1)
0x250|                                 05            |           .    |      [107]: 5 transition_type 0x25b-0x25c (1)
0x250|                                    02         |            .   |      [108]: 2 transition_type 0x25c-0x25d (1)
0x250|                                       05      |             .  |      [109]: 5 transition_type 0x25d-0x25e (1)
0x250|                                          02   |              . |      [110]: 2 transition_type 0x25e-0x25f (1)
0x250|                                             05|               .|      [111]: 5 transition_type 0x25f-0x260 (1)
0x260|05                                             |.               |      [112]: 5 transition_type 0x260-0x261 (1)
     |                                               |                |    local_time_type_records[0:6]: 0x261-0x285 (36)
     |                                               |                |      [0]{}: local_time_type 0x261-0x267 (6)
0x260|   ff ff b2 25                                 | ...%           |        utoff: -19931 (valid) 0x261-0x265 (4)
0x260|               00                              |     .          |        dst: 0 (valid) 0x265-0x266 (1)
0x260|                  00                           |      .         |        idx: 0 (valid) 0x266-0x267 (1)
     |                                               |                |      [1]{}: local_time_type 0x267-0x26d (6)
0x260|                     ff ff ab a0               |       ....     |        utoff: -21600 (valid) 0x267-0x26b (4)
0x260|                                 00            |           .    |        dst: 0 (valid) 0x26b-0x26c (1)
0x260|                                    04         |            .   |        idx: 4 (valid) 0x26c-0x26d (1)
     |                                               |                |      [2]{}: local_time_type 0x26d-0x273 (6)
0x260|                                       ff ff b9|             ...|        utoff: -18000 (valid) 0x26d-0x271 (4)
0x270|b0                                             |.               |
0x270|   00                                          | .              |        dst: 0 (valid) 0x271-0x272 (1)
0x270|      08                                       |  .             |        idx: 8 (valid) 0x272-0x273 (1)
     |                                               |                |      [3]{}: local_time_type 0x273-0x279 (6)
0x270|         ff ff c7 c0                           |   ....         |        utoff: -14400 (valid) 0x273-0x277 (4)
0x270|                     01                        |       .        |        dst: 1 (valid) 0x277-0x278 (1)
0x270|                        0c                     |        .       |        idx: 12 (valid) 0x278-0x279 (1)
     |                                               |                |      [4]{}: local_time_type 0x279-0x27f (6)
0x270|                           ff ff c7 c0         |         ....   |        utoff: -14400 (valid) 0x279-0x27d (4)
0x270|                                       01      |             .  |        dst: 1 (valid) 0x27d-0x27e (1)
0x270|                                          10   |              . |        idx: 16 (valid) 0x27e-0x27f (1)
     |                                               |                |      [5]{}: local_time_type 0x27f-0x285 (6)
0x270|                                             ff|               .|        utoff: -14400 (valid) 0x27f-0x283 (4)
0x280|ff c7 c0                                       |...             |
0x280|         01                                    |   .            |        dst: 1 (valid) 0x283-0x284 (1)
0x280|            14                                 |    .           |        idx: 20 (valid) 0x284-0x285 (1)
     |                                               |                |    time_zone_designations[0:6]: 0x285-0x29d (24)
0x280|               4c 4d 54 00                     |     LMT.       |      [0]: "LMT" time_zone_designation 0x285-0x289 (4)
0x280|                           43 53 54 00         |         CST.   |      [1]: "CST" time_zone_designation 0x289-0x28d (4)
0x280|                                       45 53 54|             EST|      [2]: "EST" time_zone_designation 0x28d-0x291 (4)
0x290|00                                             |.               |
0x290|   45 57 54 00                                 | EWT.           |      [3]: "EWT" time_zone_designation 0x291-0x295 (4)
0x290|               45 50 54 00                     |     EPT.       |      [4]: "EPT" time_zone_designation 0x295-0x299 (4)
0x290|                           45 44 54 00         |         EDT.   |      [5]: "EDT" time_zone_designation 0x299-0x29d (4)
     |                                               |                |    leap_second_records[0:27]: 0x29d-0x375 (216)
     |                                               |                |      [0]{}: leap_second_record 0x29d-0x2a5 (8)
0x290|                                       04 b2 58|             ..X|        occur: "1972-07-01T00:00:00Z" (78796800) 0x29d-0x2a1 (4)
0x2a0|00                                             |.               |
0x2a0|   00 00 00 01                                 | ....           |        corr: 1 0x2a1-0x2a5 (4)
     |                                               |                |      [1]{}: leap_second_record 0x2a5-0x2ad (8)
0x2a0|               05 a4 ec 01                     |     ....       |        occur: "1973-01-01T00:00:01Z" (94694401) 0x2a5-0x2a9 (4)
0x2a0|                           00 00 00 02         |         ....   |        corr: 2 0x2a9-0x2ad (4)
     |                                               |                |      [2]{}: leap_second_record 0x2ad-0x2b5 (8)
0x2a0|                                       07 86 1f|             ...|        occur: "1974-01-01T00:00:02Z" (126230402) 0x2ad-0x2b1 (4)
0x2b0|82                                             |.               |
0x2b0|   00 00 00 03                                 | ....           |        corr: 3 0x2b1-0x2b5 (4)
     |                                               |                |      [3]{}: leap_second_record 0x2b5-0x2bd (8)
0x2b0|               09 67 53 03                     |     .gS.       |        occur: "1975-01-01T00:00:03Z" (157766403) 0x2b5-0x2b9 (4)
0x2b0|                           00 00 00 04         |         ....   |        corr: 4 0x2b9-0x2bd (4)
     |                                               |                |      [4]{}: leap_second_record 0x2bd-0x2c5 (8)
0x2b0|                                       0b 48 86|             .H.|        occur: "1976-01-01T00:00:04Z" (189302404) 0x2bd-0x2c1 (4)
0x2c0|84                                             |.               |
0x2c0|   00 00 00 05                                 | ....           |        corr: 5 0x2c1-0x2c5 (4)
     |                                               |                |      [5]{}: leap_second_record 0x2c5-0x2cd (8)
0x2c0|               0d 2b 0b 85                     |     .+..       |        occur: "1977-01-01T00:00:05Z" (220924805) 0x2c5-0x2c9 (4)
0x2c0|                           00 00 00 06         |         ....   |        corr: 6 0x2c9-0x2cd (4)
     |                                               |                |      [6]{}: leap_second_record 0x2cd-0x2d5 (8)
0x2c0|                                       0f 0c 3f|             ..?|        occur: "1978-01-01T00:00:06Z" (252460806) 0x2cd-0x2d1 (4)
0x2d0|06                                             |.               |
0x2d0|   00 00 00 07                                 | ....           |        corr: 7 0x2d1-0x2d5 (4)
     |                                               |                |      [7]{}: leap_second_record 0x2d5-0x2dd (8)
0x2d0|               10 ed 72 87                     |     ..r.       |        occur: "1979-01-01T00:00:07Z" (283996807) 0x2d5-0x2d9 (4)
0x2d0|                           00 00 00 08         |         ....   |        corr: 8 0x2d9-0x2dd (4)
     |                                               |                |      [8]{}: leap_second_record 0x2dd-0x2e5 (8)
0x2d0|                                       12 ce a6|             ...|        occur: "1980-01-01T00:00:08Z" (315532808) 0x2dd-0x2e1 (4)
0x2e0|08                                             |.               |
0x2e0|   00 00 00 09                                 | ....           |        corr: 9 0x2e1-0x2e5 (4)
     |                                               |                |      [9]{}: leap_second_record 0x2e5-0x2ed (8)
0x2e0|               15 9f ca 89                     |     ....       |        occur: "1981-07-01T00:00:09Z" (362793609) 0x2e5-0x2e9 (4)
0x2e0|                           00 00 00 0a         |         ....   |        corr: 10 0x2e9-0x2ed (4)
     |                                               |                |      [10]{}: leap_second_record 0x2ed-0x2f5 (8)
0x2e0|                                       17 80 fe|             ...|        occur: "1982-07-01T00:00:10Z" (394329610) 0x2ed-0x2f1 (4)
0x2f0|0a                                             |.               |
0x2f0|   00 00 00 0b                                 | ....           |        corr: 11 0x2f1-0x2f5 (4)
     |                                               |                |      [11]{}: leap_second_record 0x2f5-0x2fd (8)
0x2f0|               19 62 31 8b                     |     .b1.       |        occur: "1983-07-01T00:00:11Z" (425865611) 0x2f5-0x2f9 (4)
0x2f0|                           00 00 00 0c         |         ....   |        corr: 12 0x2f9-0x2fd (4)
     |                                               |                |      [12]{}: leap_second_record 0x2fd-0x305 (8)
0x2f0|                                       1d 25 ea|             .%.|        occur: "1985-07-01T00:00:12Z" (489024012) 0x2fd-0x301 (4)
0x300|0c                                             |.               |
0x300|   00 00 00 0d                                 | ....           |        corr: 13 0x301-0x305 (4)
     |                                               |                |      [13]{}: leap_second_record 0x305-0x30d (8)
0x300|               21 da e5 0d                     |     !...       |        occur: "1988-01-01T00:00:13Z" (567993613) 0x305-0x309 (4)
0x300|                           00 00 00 0e         |         ....   |        corr: 14 0x309-0x30d (4)
     |                                               |                |      [14]{}: leap_second_record 0x30d-0x315 (8)
0x300|                                       25 9e 9d|             %..|        occur: "1990-01-01T00:00:14Z" (631152014) 0x30d-0x311 (4)
0x310|8e                                             |.               |
0x310|   00 00 00 0f                                 | ....           |        corr: 15 0x311-0x315 (4)
     |                                               |                |      [15]{}: leap_second_record 0x315-0x31d (8)
0x310|               27 7f d1 0f                     |     '...       |        occur: "1991-01-01T00:00:15Z" (662688015) 0x315-0x319 (4)
0x310|                           00 00 00 10         |         ....   |        corr: 16 0x319-0x31d (4)
     |                                               |                |      [16]{}: leap_second_record 0x31d-0x325 (8)
0x310|                                       2a 50 f5|             *P.|        occur: "1992-07-01T00:00:16Z" (709948816) 0x31d-0x321 (4)
0x320|90                                             |.               |
0x320|   00 00 00 11                                 | ....           |        corr: 17 0x321-0x325 (4)
     |                                               |                |      [17]{}: leap_second_record 0x325-0x32d (8)
0x320|               2c 32 29 11                     |     ,2).       |        occur: "1993-07-01T00:00:17Z" (741484817) 0x325-0x329 (4)
0x320|                           00 00 00 12         |         ....   |        corr: 18 0x329-0x32d (4)
     |                                               |                |      [18]{}: leap_second_record 0x32d-0x335 (8)
0x320|                                       2e 13 5c|             ..\|        occur: "1994-07-01T00:00:18Z" (773020818) 0x32d-0x331 (4)
0x330|92                                             |.               |
0x330|   00 00 00 13                                 | ....           |        corr: 19 0x331-0x335 (4)
     |                                               |                |      [19]{}: leap_second_record 0x335-0x33d (8)
0x330|               30 e7 24 13                     |     0.$.       |        occur: "1996-01-01T00:00:19Z" (820454419) 0x335-0x339 (4)
0x330|                           00 00 00 14         |         ....   |        corr: 20 0x339-0x33d (4)
     |                                               |                |      [20]{}: leap_second_record 0x33d-0x345 (8)
0x330|                                       33 b8 48|             3.H|        occur: "1997-07-01T00:00:20Z" (867715220) 0x33d-0x341 (4)
0x340|94                                             |.               |
0x340|   00 00 00 15                                 | ....           |        corr: 21 0x341-0x345 (4)
     |                                               |                |      [21]{}: leap_second_record 0x345-0x34d (8)
0x340|               36 8c 10 15                     |     6...       |        occur: "1999-01-01T00:00:21Z" (915148821) 0x345-0x349 (4)
0x340|                           00 00 00 16         |         ....   |        corr: 22 0x349-0x34d (4)
     |                                               |                |      [22]{}: leap_second_record 0x34d-0x355 (8)
0x340|                                       43 b7 1b|             C..|        occur: "2006-01-01T00:00:22Z" (1136073622) 0x34d-0x351 (4)
0x350|96                                             |.               |
0x350|   00 00 00 17                                 | ....           |        corr: 23 0x351-0x355 (4)
     |                                               |                |      [23]{}: leap_second_record 0x355-0x35d (8)
0x350|               49 5c 07 97                     |     I\..       |        occur: "2009-01-01T00:00:23Z" (1230768023) 0x355-0x359 (4)
0x350|                           00 00 00 18         |         ....   |        corr: 24 0x359-0x35d (4)
     |                                               |                |      [24]{}: leap_second_record 0x35d-0x365 (8)
0x350|                                       4f ef 93|             O..|        occur: "2012-07-01T00:00:24Z" (1341100824) 0x35d-0x361 (4)
0x360|18                                             |.               |
0x360|   00 00 00 19                                 | ....           |        corr: 25 0x361-0x365 (4)
     |                                               |                |      [25]{}: leap_second_record 0x365-0x36d (8)
0x360|               55 93 2d 99                     |     U.-.       |        occur: "2015-07-01T00:00:25Z" (1435708825) 0x365-0x369 (4)
0x360|                           00 00 00 1a         |         ....   |        corr: 26 0x369-0x36d (4)
     |                                               |                |      [26]{}: leap_second_record 0x36d-0x375 (8)
0x360|                                       58 68 46|             XhF|        occur: "2017-01-01T00:00:26Z" (1483228826) 0x36d-0x371 (4)
0x370|9a                                             |.               |
0x370|   00 00 00 1b                                 | ....           |        corr: 27 0x371-0x375 (4)
     |                                               |                |    standard_wall_indicators[0:6]: 0x375-0x37b (6)
0x370|               00                              |     .          |      [0]: 0 standard_wall_indicator (valid) 0x375-0x376 (1)
0x370|                  00                           |      .         |      [1]: 0 standard_wall_indicator (valid) 0x376-0x377 (1)
0x370|                     00                        |       .        |      [2]: 0 standard_wall_indicator (valid) 0x377-0x378 (1)
0x370|                        00                     |        .       |      [3]: 0 standard_wall_indicator (valid) 0x378-0x379 (1)
0x370|                           01                  |         .      |      [4]: 1 standard_wall_indicator (valid) 0x379-0x37a (1)
0x370|                              00               |          .     |      [5]: 0 standard_wall_indicator (valid) 0x37a-0x37b (1)
     |                                               |                |    ut_local_indicators[0:6]: 0x37b-0x381 (6)
0x370|                                 00            |           .    |      [0]: 0 ut_local_indicator (valid) 0x37b-0x37c (1)
0x370|                                    00         |            .   |      [1]: 0 ut_local_indicator (valid) 0x37c-0x37d (1)
0x370|                                       00      |             .  |      [2]: 0 ut_local_indicator (valid) 0x37d-0x37e (1)
0x370|                                          00   |              . |      [3]: 0 ut_local_indicator (valid) 0x37e-0x37f (1)
0x370|                                             01|               .|      [4]: 1 ut_local_indicator (valid) 0x37f-0x380 (1)
0x380|00                                             |.               |      [5]: 0 ut_local_indicator (valid) 0x380-0x381 (1)
     |                                               |                |  v2plusheader{}: 0x381-0x3ad (44)
0x380|   54 5a 69 66                                 | TZif           |    magic: 0x545a6966 (valid) 0x381-0x385 (4)
0x380|               32                              |     2          |    ver: "2" (0x32) (valid) 0x385-0x386 (1)
0x380|                  00 00 00 00 00 00 00 00 00 00|      ..........|    reserved: raw bits 0x386-0x395 (15)
0x390|00 00 00 00 00                                 |.....           |
0x390|               00 00 00 06                     |     ....       |    isutcnt: 6 0x395-0x399 (4)
0x390|                           00 00 00 06         |         ....   |    isstdcnt: 6 0x399-0x39d (4)
0x390|                                       00 00 00|             ...|    leapcnt: 27 0x39d-0x3a1 (4)
0x3a0|1b                                             |.               |
0x3a0|   00 00 00 71                                 | ...q           |    timecnt: 113 0x3a1-0x3a5 (4)
0x3a0|               00 00 00 06                     |     ....       |    typecnt: 6 0x3a5-0x3a9 (4)
0x3a0|                           00 00 00 18         |         ....   |    charcnt: 24 0x3a9-0x3ad (4)
     |                                               |                |  v2plusdatablock{}: 0x3ad-0x932 (1413)
     |                                               |                |    transition_times[0:113]: 0x3ad-0x735 (904)
0x3a0|                                       ff ff ff|             ...|      [0]: "1905-01-01T05:32:11Z" (-2051202469) transition_time 0x3ad-0x3b5 (8)
0x3b0|ff 85 bd 22 5b                                 |..."[           |
0x3b0|               ff ff ff ff 99 3c 94 00         |     .....<..   |      [1]: "1915-05-15T08:00:00Z" (-1724083200) transition_time 0x3b5-0x3bd (8)
0x3b0|                                       ff ff ff|             ...|      [2]: "1942-02-09T07:00:00Z" (-880218000) transition_time 0x3bd-0x3c5 (8)
0x3c0|ff cb 88 f0 70                                 |....p           |
0x3c0|               ff ff ff ff d2 23 f4 70         |     .....#.p   |      [3]: "1945-08-14T23:00:00Z" (-769395600) transition_time 0x3c5-0x3cd (8)
0x3c0|                                       ff ff ff|             ...|      [4]: "1945-09-30T06:00:00Z" (-765396000) transition_time 0x3cd-0x3d5 (8)
0x3d0|ff d2 60 fb e0                                 |..`..           |
0x3d0|               ff ff ff ff d7 35 a8 f0         |     .....5..   |      [5]: "1948-04-25T07:00:00Z" (-684349200) transition_time 0x3d5-0x3dd (8)
0x3d0|                                       ff ff ff|             ...|      [6]: "1948-09-26T06:00:00Z" (-671047200) transition_time 0x3dd-0x3e5 (8)
0x3e0|ff d8 00 a1 e0                                 |.....           |
0x3e0|               ff ff ff ff fb 33 90 8c         |     .....3..   |      [7]: "1967-06-14T05:01:00Z" (-80506740) transition_time 0x3e5-0x3ed (8)
0x3e0|                                       ff ff ff|             ...|      [8]: "1967-10-29T06:00:00Z" (-68666400) transition_time 0x3ed-0x3f5 (8)
0x3f0|ff fb e8 3b e0                                 |...;.           |
0x3f0|               ff ff ff ff fc d8 3a f0         |     ......:.   |      [9]: "1968-04-28T07:00:00Z" (-52938000) transition_time 0x3f5-0x3fd (8)
0x3f0|                                       ff ff ff|             ...|      [10]: "1968-10-27T06:00:00Z" (-37216800) transition_time 0x3fd-0x405 (8)
0x400|ff fd c8 1d e0                                 |.....           |
0x400|               00 00 00 00 06 40 df 72         |     .....@.r   |      [11]: "1973-04-29T07:00:02Z" (104914802) transition_time 0x405-0x40d (8)
0x400|                                       00 00 00|             ...|      [12]: "1973-10-28T06:00:02Z" (120636002) transition_time 0x40d-0x415 (8)
0x410|00 07 30 c2 62                                 |..0.b           |
0x410|               00 00 00 00 07 8d 19 73         |     .......s   |      [13]: "1974-01-06T07:00:03Z" (126687603) transition_time 0x415-0x41d (8)
0x410|                                       00 00 00|             ...|      [14]: "1974-10-27T06:00:03Z" (152085603) transition_time 0x41d-0x425 (8)
0x420|00 09 10 a4 63                                 |....c           |
0x420|               00 00 00 00 0a 00 a3 74         |     .......t   |      [15]: "1975-04-27T07:00:04Z" (167814004) transition_time 0x425-0x42d (8)
0x420|                                       00 00 00|             ...|      [16]: "1975-10-26T06:00:04Z" (183535204) transition_time 0x42d-0x435 (8)
0x430|00 0a f0 86 64                                 |....d           |
0x430|               00 00 00 00 0b e0 85 75         |     .......u   |      [17]: "1976-04-25T07:00:05Z" (199263605) transition_time 0x435-0x43d (8)
0x430|                                       00 00 00|             ...|      [18]: "1976-10-31T06:00:05Z" (215589605) transition_time 0x43d-0x445 (8)
0x440|00 0c d9 a2 e5                                 |.....           |
0x440|               00 00 00 00 0d c0 67 76         |     ......gv   |      [19]: "1977-04-24T07:00:06Z" (230713206) transition_time 0x445-0x44d (8)
0x440|                                       00 00 00|             ...|      [20]: "1977-10-30T06:00:06Z" (247039206) transition_time 0x44d-0x455 (8)
0x450|00 0e b9 84 e6                                 |.....           |
0x450|               00 00 00 00 0f a9 83 f7         |     ........   |      [21]: "1978-04-30T07:00:07Z" (262767607) transition_time 0x455-0x45d (8)
0x450|                                       00 00 00|             ...|      [22]: "1978-10-29T06:00:07Z" (278488807) transition_time 0x45d-0x465 (8)
0x460|00 10 99 66 e7                                 |...f.           |
0x460|               00 00 00 00 11 89 65 f8         |     ......e.   |      [23]: "1979-04-29T07:00:08Z" (294217208) transition_time 0x465-0x46d (8)
0x460|                                       00 00 00|             ...|      [24]: "1979-10-28T06:00:08Z" (309938408) transition_time 0x46d-0x475 (8)
0x470|00 12 79 48 e8                                 |..yH.           |
0x470|               00 00 00 00 13 69 47 f9         |     .....iG.   |      [25]: "1980-04-27T07:00:09Z" (325666809) transition_time 0x475-0x47d (8)
0x470|                                       00 00 00|             ...|      [26]: "1980-10-26T06:00:09Z" (341388009) transition_time 0x47d-0x485 (8)
0x480|00 14 59 2a e9                                 |..Y*.           |
0x480|               00 00 00 00 15 49 29 f9         |     .....I).   |      [27]: "1981-04-26T07:00:09Z" (357116409) transition_time 0x485-0x48d (8)
0x480|                                       00 00 00|             ...|      [28]: "1981-10-25T06:00:10Z" (372837610) transition_time 0x48d-0x495 (8)
0x490|00 16 39 0c ea                                 |..9..           |
0x490|               00 00 00 00 17 29 0b fa         |     .....)..   |      [29]: "1982-04-25T07:00:10Z" (388566010) transition_time 0x495-0x49d (8)
0x490|                                       00 00 00|             ...|      [30]: "1982-10-31T06:00:11Z" (404892011) transition_time 0x49d-0x4a5 (8)
0x4a0|00 18 22 29 6b                                 |..")k           |
0x4a0|               00 00 00 00 19 08 ed fb         |     ........   |      [31]: "1983-04-24T07:00:11Z" (420015611) transition_time 0x4a5-0x4ad (8)
0x4a0|                                       00 00 00|             ...|      [32]: "1983-10-30T06:00:12Z" (436341612) transition_time 0x4ad-0x4b5 (8)
0x4b0|00 1a 02 0b 6c                                 |....l           |
0x4b0|               00 00 00 00 1a f2 0a 7c         |     .......|   |      [33]: "1984-04-29T07:00:12Z" (452070012) transition_time 0x4b5-0x4bd (8)
0x4b0|                                       00 00 00|             ...|      [34]: "1984-10-28T06:00:12Z" (467791212) transition_time 0x4bd-0x4c5 (8)
0x4c0|00 1b e1 ed 6c                                 |....l           |
0x4c0|               00 00 00 00 1c d1 ec 7c         |     .......|   |      [35]: "1985-04-28T07:00:12Z" (483519612) transition_time 0x4c5-0x4cd (8)
0x4c0|                                       00 00 00|             ...|      [36]: "1985-10-27T06:00:13Z" (499240813) transition_time 0x4cd-0x4d5 (8)
0x4d0|00 1d c1 cf 6d                                 |....m           |
0x4d0|               00 00 00 00 1e b1 ce 7d         |     .......}   |      [37]: "1986-04-27T07:00:13Z" (514969213) transition_time 0x4d5-0x4dd (8)
0x4d0|                                       00 00 00|             ...|      [38]: "1986-10-26T06:00:13Z" (530690413) transition_time 0x4dd-0x4e5 (8)
0x4e0|00 1f a1 b1 6d                                 |....m           |
0x4e0|               00 00 00 00 20 76 00 fd         |     .... v..   |      [39]: "1987-04-05T07:00:13Z" (544604413) transition_time 0x4e5-0x4ed (8)
0x4e0|                                       00 00 00|             ...|      [40]: "1987-10-25T06:00:13Z" (562140013) transition_time 0x4ed-0x4f5 (8)
0x4f0|00 21 81 93 6d                                 |.!..m           |
0x4f0|               00 00 00 00 22 55 e2 fe         |     ...."U..   |      [41]: "1988-04-03T07:00:14Z" (576054014) transition_time 0x4f5-0x4fd (8)
0x4f0|                                       00 00 00|             ...|      [42]: "1988-10-30T06:00:14Z" (594194414) transition_time 0x4fd-0x505 (8)
0x500|00 23 6a af ee                                 |.#j..           |
0x500|               00 00 00 00 24 35 c4 fe         |     ....$5..   |      [43]: "1989-04-02T07:00:14Z" (607503614) transition_time 0x505-0x50d (8)
0x500|                                       00 00 00|             ...|      [44]: "1989-10-29T06:00:14Z" (625644014) transition_time 0x50d-0x515 (8)
0x510|00 25 4a 91 ee                                 |.%J..           |
0x510|               00 00 00 00 26 15 a6 ff         |     ....&...   |      [45]: "1990-04-01T07:00:15Z" (638953215) transition_time 0x515-0x51d (8)
0x510|                                       00 00 00|             ...|      [46]: "1990-10-28T06:00:15Z" (657093615) transition_time 0x51d-0x525 (8)
0x520|00 27 2a 73 ef                                 |.'*s.           |
0x520|               00 00 00 00 27 fe c3 80         |     ....'...   |      [47]: "1991-04-07T07:00:16Z" (671007616) transition_time 0x525-0x52d (8)
0x520|                                       00 00 00|             ...|      [48]: "1991-10-27T06:00:16Z" (688543216) transition_time 0x52d-0x535 (8)
0x530|00 29 0a 55 f0                                 |.).U.           |
0x530|               00 00 00 00 29 de a5 80         |     ....)...   |      [49]: "1992-04-05T07:00:16Z" (702457216) transition_time 0x535-0x53d (8)
0x530|                                       00 00 00|             ...|      [50]: "1992-10-25T06:00:17Z" (719992817) transition_time 0x53d-0x545 (8)
0x540|00 2a ea 37 f1                                 |.*.7.           |
0x540|               00 00 00 00 2b be 87 81         |     ....+...   |      [51]: "1993-04-04T07:00:17Z" (733906817) transition_time 0x545-0x54d (8)
0x540|                                       00 00 00|             ...|      [52]: "1993-10-31T06:00:18Z" (752047218) transition_time 0x54d-0x555 (8)
0x550|00 2c d3 54 72                                 |.,.Tr           |
0x550|               00 00 00 00 2d 9e 69 82         |     ....-.i.   |      [53]: "1994-04-03T07:00:18Z" (765356418) transition_time 0x555-0x55d (8)
0x550|                                       00 00 00|             ...|      [54]: "1994-10-30T06:00:19Z" (783496819) transition_time 0x55d-0x565 (8)
0x560|00 2e b3 36 73                                 |...6s           |
0x560|               00 00 00 00 2f 7e 4b 83         |     ..../~K.   |      [55]: "1995-04-02T07:00:19Z" (796806019) transition_time 0x565-0x56d (8)
0x560|                                       00 00 00|             ...|      [56]: "1995-10-29T06:00:19Z" (814946419) transition_time 0x56d-0x575 (8)
0x570|00 30 93 18 73                                 |.0..s           |
0x570|               00 00 00 00 31 67 68 04         |     ....1gh.   |      [57]: "1996-04-07T07:00:20Z" (828860420) transition_time 0x575-0x57d (8)
0x570|                                       00 00 00|             ...|      [58]: "1996-10-27T06:00:20Z" (846396020) transition_time 0x57d-0x585 (8)
0x580|00 32 72 fa 74                                 |.2r.t           |
0x580|               00 00 00 00 33 47 4a 04         |     ....3GJ.   |      [59]: "1997-04-06T07:00:20Z" (860310020) transition_time 0x585-0x58d (8)
0x580|                                       00 00 00|             ...|      [60]: "1997-10-26T06:00:21Z" (877845621) transition_time 0x58d-0x595 (8)
0x590|00 34 52 dc 75                                 |.4R.u           |
0x590|               00 00 00 00 35 27 2c 05         |     ....5',.   |      [61]: "1998-04-05T07:00:21Z" (891759621) transition_time 0x595-0x59d (8)
0x590|                                       00 00 00|             ...|      [62]: "1998-10-25T06:00:21Z" (909295221) transition_time 0x59d-0x5a5 (8)
0x5a0|00 36 32 be 75                                 |.62.u           |
0x5a0|               00 00 00 00 37 07 0e 06         |     ....7...   |      [63]: "1999-04-04T07:00:22Z" (923209222) transition_time 0x5a5-0x5ad (8)
0x5a0|                                       00 00 00|             ...|      [64]: "1999-10-31T06:00:22Z" (941349622) transition_time 0x5ad-0x5b5 (8)
0x5b0|00 38 1b da f6                                 |.8...           |
0x5b0|               00 00 00 00 38 e6 f0 06         |     ....8...   |      [65]: "2000-04-02T07:00:22Z" (954658822) transition_time 0x5b5-0x5bd (8)
0x5b0|                                       00 00 00|             ...|      [66]: "2000-10-29T06:00:22Z" (972799222) transition_time 0x5bd-0x5c5 (8)
0x5c0|00 39 fb bc f6                                 |.9...           |
0x5c0|               00 00 00 00 3a c6 d2 06         |     ....:...   |      [67]: "2001-04-01T07:00:22Z" (986108422) transition_time 0x5c5-0x5cd (8)
0x5c0|                                       00 00 00|             ...|      [68]: "2001-10-28T06:00:22Z" (1004248822) transition_time 0x5cd-0x5d5 (8)
0x5d0|00 3b db 9e f6                                 |.;...           |
0x5d0|               00 00 00 00 3c af ee 86         |     ....<...   |      [69]: "2002-04-07T07:00:22Z" (1018162822) transition_time 0x5d5-0x5dd (8)
0x5d0|                                       00 00 00|             ...|      [70]: "2002-10-27T06:00:22Z" (1035698422) transition_time 0x5dd-0x5e5 (8)
0x5e0|00 3d bb 80 f6                                 |.=...           |
0x5e0|               00 00 00 00 3e 8f d0 86         |     ....>...   |      [71]: "2003-04-06T07:00:22Z" (1049612422) transition_time 0x5e5-0x5ed (8)
0x5e0|                                       00 00 00|             ...|      [72]: "2003-10-26T06:00:22Z" (1067148022) transition_time 0x5ed-0x5f5 (8)
0x5f0|00 3f 9b 62 f6                                 |.?.b.           |
0x5f0|               00 00 00 00 40 6f b2 86         |     ....@o..   |      [73]: "2004-04-04T07:00:22Z" (1081062022) transition_time 0x5f5-0x5fd (8)
0x5f0|                                       00 00 00|             ...|      [74]: "2004-10-31T06:00:22Z" (1099202422) transition_time 0x5fd-0x605 (8)
0x600|00 41 84 7f 76                                 |.A..v           |
0x600|               00 00 00 00 42 4f 94 86         |     ....BO..   |      [75]: "2005-04-03T07:00:22Z" (1112511622) transition_time 0x605-0x60d (8)
0x600|                                       00 00 00|             ...|      [76]: "2005-10-30T06:00:22Z" (1130652022) transition_time 0x60d-0x615 (8)
0x610|00 43 64 61 76                                 |.Cdav           |
0x610|               00 00 00 00 44 2f 76 87         |     ....D/v.   |      [77]: "2006-04-02T07:00:23Z" (1143961223) transition_time 0x615-0x61d (8)
0x610|                                       00 00 00|             ...|      [78]: "2006-10-29T06:00:23Z" (1162101623) transition_time 0x61d-0x625 (8)
0x620|00 45 44 43 77                                 |.EDCw           |
0x620|               00 00 00 00 45 f3 a9 07         |     ....E...   |      [79]: "2007-03-11T07:00:23Z" (1173596423) transition_time 0x625-0x62d (8)
0x620|                                       00 00 00|             ...|      [80]: "2007-11-04T06:00:23Z" (1194156023) transition_time 0x62d-0x635 (8)
0x630|00 47 2d 5f f7                                 |.G-_.           |
0x630|               00 00 00 00 47 d3 8b 07         |     ....G...   |      [81]: "2008-03-09T07:00:23Z" (1205046023) transition_time 0x635-0x63d (8)
0x630|                                       00 00 00|             ...|      [82]: "2008-11-02T06:00:23Z" (1225605623) transition_time 0x63d-0x645 (8)
0x640|00 49 0d 41 f7                                 |.I.A.           |
0x640|               00 00 00 00 49 b3 6d 08         |     ....I.m.   |      [83]: "2009-03-08T07:00:24Z" (1236495624) transition_time 0x645-0x64d (8)
0x640|                                       00 00 00|             ...|      [84]: "2009-11-01T06:00:24Z" (1257055224) transition_time 0x64d-0x655 (8)
0x650|00 4a ed 23 f8                                 |.J.#.           |
0x650|               00 00 00 00 4b 9c 89 88         |     ....K...   |      [85]: "2010-03-14T07:00:24Z" (1268550024) transition_time 0x655-0x65d (8)
0x650|                                       00 00 00|             ...|      [86]: "2010-11-07T06:00:24Z" (1289109624) transition_time 0x65d-0x665 (8)
0x660|00 4c d6 40 78                                 |.L.@x           |
0x660|               00 00 00 00 4d 7c 6b 88         |     ....M|k.   |      [87]: "2011-03-13T07:00:24Z" (1299999624) transition_time 0x665-0x66d (8)
0x660|                                       00 00 00|             ...|      [88]: "2011-11-06T06:00:24Z" (1320559224) transition_time 0x66d-0x675 (8)
0x670|00 4e b6 22 78                                 |.N."x           |
0x670|               00 00 00 00 4f 5c 4d 88         |     ....O\M.   |      [89]: "2012-03-11T07:00:24Z" (1331449224) transition_time 0x675-0x67d (8)
0x670|                                       00 00 00|             ...|      [90]: "2012-11-04T06:00:25Z" (1352008825) transition_time 0x67d-0x685 (8)
0x680|00 50 96 04 79                                 |.P..y           |
0x680|               00 00 00 00 51 3c 2f 89         |     ....Q</.   |      [91]: "2013-03-10T07:00:25Z" (1362898825) transition_time 0x685-0x68d (8)
0x680|                                       00 00 00|             ...|      [92]: "2013-11-03T06:00:25Z" (1383458425) transition_time 0x68d-0x695 (8)
0x690|00 52 75 e6 79                                 |.Ru.y           |
0x690|               00 00 00 00 53 1c 11 89         |     ....S...   |      [93]: "2014-03-09T07:00:25Z" (1394348425) transition_time 0x695-0x69d (8)
0x690|                                       00 00 00|             ...|      [94]: "2014-11-02T06:00:25Z" (1414908025) transition_time 0x69d-0x6a5 (8)
0x6a0|00 54 55 c8 79                                 |.TU.y           |
0x6a0|               00 00 00 00 54 fb f3 89         |     ....T...   |      [95]: "2015-03-08T07:00:25Z" (1425798025) transition_time 0x6a5-0x6ad (8)
0x6a0|                                       00 00 00|             ...|      [96]: "2015-11-01T06:00:26Z" (1446357626) transition_time 0x6ad-0x6b5 (8)
0x6b0|00 56 35 aa 7a                                 |.V5.z           |
0x6b0|               00 00 00 00 56 e5 10 0a         |     ....V...   |      [97]: "2016-03-13T07:00:26Z" (1457852426) transition_time 0x6b5-0x6bd (8)
0x6b0|                                       00 00 00|             ...|      [98]: "2016-11-06T06:00:26Z" (1478412026) transition_time 0x6bd-0x6c5 (8)
0x6c0|00 58 1e c6 fa                                 |.X...           |
0x6c0|               00 00 00 00 58 c4 f2 0b         |     ....X...   |      [99]: "2017-03-12T07:00:27Z" (1489302027) transition_time 0x6c5-0x6cd (8)
0x6c0|                                       00 00 00|             ...|      [100]: "2017-11-05T06:00:27Z" (1509861627) transition_time 0x6cd-0x6d5 (8)
0x6d0|00 59 fe a8 fb                                 |.Y...           |
0x6d0|               00 00 00 00 5a a4 d4 0b         |     ....Z...   |      [101]: "2018-03-11T07:00:27Z" (1520751627) transition_time 0x6d5-0x6dd (8)
0x6d0|                                       00 00 00|             ...|      [102]: "2018-11-04T06:00:27Z" (1541311227) transition_time 0x6dd-0x6e5 (8)
0x6e0|00 5b de 8a fb                                 |.[...           |
0x6e0|               00 00 00 00 5c 84 b6 0b         |     ....\...   |      [103]: "2019-03-10T07:00:27Z" (1552201227) transition_time 0x6e5-0x6ed (8)
0x6e0|                                       00 00 00|             ...|      [104]: "2019-11-03T06:00:27Z" (1572760827) transition_time 0x6ed-0x6f5 (8)
0x6f0|00 5d be 6c fb                                 |.].l.           |
0x6f0|               00 00 00 00 5e 64 98 0b         |     ....^d..   |      [105]: "2020-03-08T07:00:27Z" (1583650827) transition_time 0x6f5-0x6fd (8)
0x6f0|                                       00 00 00|             ...|      [106]: "2020-11-01T06:00:27Z" (1604210427) transition_time 0x6fd-0x705 (8)
0x700|00 5f 9e 4e fb                                 |._.N.           |
0x700|               00 00 00 00 60 4d b4 8b         |     ....`M..   |      [107]: "2021-03-14T07:00:27Z" (1615705227) transition_time 0x705-0x70d (8)
0x700|                                       00 00 00|             ...|      [108]: "2021-11-07T06:00:27Z" (1636264827) transition_time 0x70d-0x715 (8)
0x710|00 61 87 6b 7b                                 |.a.k{           |
0x710|               00 00 00 00 62 2d 96 8b         |     ....b-..   |      [109]: "2022-03-13T07:00:27Z" (1647154827) transition_time 0x715-0x71d (8)
0x710|                                       00 00 00|             ...|      [110]: "2022-11-06T06:00:27Z" (1667714427) transition_time 0x71d-0x725 (8)
0x720|00 63 67 4d 7b                                 |.cgM{           |
0x720|               00 00 00 00 64 0d 78 8b         |     ....d.x.   |      [111]: "2023-03-12T07:00:27Z" (1678604427) transition_time 0x725-0x72d (8)
0x720|                                       00 00 00|             ...|      [112]: "2023-06-28T00:00:27Z" (1687910427) transition_time 0x72d-0x735 (8)
0x730|00 64 9b 78 1b                                 |.d.x.           |
     |                                               |                |    transition_types[0:113]: 0x735-0x7a6 (113)
0x730|               01                              |     .          |      [0]: 1 transition_type 0x735-0x736 (1)
0x730|                  02                           |      .         |      [1]: 2 transition_type 0x736-0x737 (1)
0x730|                     03                        |       .        |      [2]: 3 transition_type 0x737-0x738 (1)
0x730|                        04                     |        .       |      [3]: 4 transition_type 0x738-0x739 (1)
0x730|                           02                  |         .      |      [4]: 2 transition_type 0x739-0x73a (1)
0x730|                              05               |          .     |      [5]: 5 transition_type 0x73a-0x73b (1)
0x730|                                 02            |           .    |      [6]: 2 transition_type 0x73b-0x73c (1)
0x730|                                    05         |            .   |      [7]: 5 transition_type 0x73c-0x73d (1)
0x730|                                       02      |             .  |      [8]: 2 transition_type 0x73d-0x73e (1)
0x730|                                          05   |              . |      [9]: 5 transition_type 0x73e-0x73f (1)
0x730|                                             02|               .|      [10]: 2 transition_type 0x73f-0x740 (1)
0x740|05                                             |.               |      [11]: 5 transition_type 0x740-0x741 (1)
0x740|   02                                          | .              |      [12]: 2 transition_type 0x741-0x742 (1)
0x740|      05                                       |  .             |      [13]: 5 transition_type 0x742-0x743 (1)
0x740|         02                                    |   .            |      [14]: 2 transition_type 0x743-0x744 (1)
0x740|            05                                 |    .           |      [15]: 5 transition_type 0x744-0x745 (1)
0x740|               02                              |     .          |      [16]: 2 transition_type 0x745-0x746 (1)
0x740|                  05                           |      .         |      [17]: 5 transition_type 0x746-0x747 (1)
0x740|                     02                        |       .        |      [18]: 2 transition_type 0x747-0x748 (1)
0x740|                        05                     |        .       |      [19]: 5 transition_type 0x748-0x749 (1)
0x740|                           02                  |         .      |      [20]: 2 transition_type 0x749-0x74a (1)
0x740|                              05               |          .     |      [21]: 5 transition_type 0x74a-0x74b (1)
0x740|                                 02            |           .    |      [22]: 2 transition_type 0x74b-0x74c (1)
0x740|                                    05         |            .   |      [23]: 5 transition_type 0x74c-0x74d (1)
0x740|                                       02      |             .  |      [24]: 2 transition_type 0x74d-0x74e (1)
0x740|                                          05   |              . |      [25]: 5 transition_type 0x74e-0x74f (1)
0x740|                                             02|               .|      [26]: 2 transition_type 0x74f-0x750 (1)
0x750|05                                             |.               |      [27]: 5 transition_type 0x750-0x751 (1)
0x750|   02                                          | .              |      [28]: 2 transition_type 0x751-0x752 (1)
0x750|      05                                       |  .             |      [29]: 5 transition_type 0x752-0x753 (1)
0x750|         02                                    |   .            |      [30]: 2 transition_type 0x753-0x754 (1)
0x750|            05                                 |    .           |      [31]: 5 transition_type 0x754-0x755 (1)
0x750|               02                              |     .          |      [32]: 2 transition_type 0x755-0x756 (1)
0x750|                  05                           |      .         |      [33]: 5 transition_type 0x756-0x757 (1)
0x750|                     02                        |       .        |      [34]: 2 transition_type 0x757-0x758 (1)
0x750|                        05                     |        .       |      [35]: 5 transition_type 0x758-0x759 (1)
0x750|                           02                  |         .      |      [36]: 2 transition_type 0x759-0x75a (1)
0x750|                              05               |          .     |      [37]: 5 transition_type 0x75a-0x75b (1)
0x750|                                 02            |           .    |      [38]: 2 transition_type 0x75b-0x75c (1)
0x750|                                    05         |            .   |      [39]: 5 transition_type 0x75c-0x75d (1)
0x750|                                       02      |             .  |      [40]: 2 transition_type 0x75d-0x75e (1)
0x750|                                          05   |              . |      [41]: 5 transition_type 0x75e-0x75f (1)
0x750|                                             02|               .|      [42]: 2 transition_type 0x75f-0x760 (1)
0x760|05                                             |.               |      [43]: 5 transition_type 0x760-0x761 (1)
0x760|   02                                          | .              |      [44]: 2 transition_type 0x761-0x762 (1)
0x760|      05                                       |  .             |      [45]: 5 transition_type 0x762-0x763 (1)
0x760|         02                                    |   .            |      [46]: 2 transition_type 0x763-0x764 (1)
0x760|            05                                 |    .           |      [47]: 5 transition_type 0x764-0x765 (1)
0x760|               02                              |     .          |      [48]: 2 transition_type 0x765-0x766 (1)
0x760|                  05                           |      .         |      [49]: 5 transition_type 0x766-0x767 (1)
0x760|                     02                        |       .        |      [50]: 2 transition_type 0x767-0x768 (1)
0x760|                        05                     |        .       |      [51]: 5 transition_type 0x768-0x769 (1)
0x760|                           02                  |         .      |      [52]: 2 transition_type 0x769-0x76a (1)
0x760|                              05               |          .     |      [53]: 5 transition_type 0x76a-0x76b (1)
0x760|                                 02            |           .    |      [54]: 2 transition_type 0x76b-0x76c (1)
0x760|                                    05         |            .   |      [55]: 5 transition_type 0x76c-0x76d (1)
0x760|                                       02      |             .  |      [56]: 2 transition_type 0x76d-0x76e (1)
0x760|                                          05   |              . |      [57]: 5 transition_type 0x76e-0x76f (1)
0x760|                                             02|               .|      [58]: 2 transition_type 0x76f-0x770 (1)
0x770|05                                             |.               |      [59]: 5 transition_type 0x770-0x771 (1)
0x770|   02                                          | .              |      [60]: 2 transition_type 0x771-0x772 (1)
0x770|      05                                       |  .             |      [61]: 5 transition_type 0x772-0x773 (1)
0x770|         02                                    |   .            |      [62]: 2 transition_type 0x773-0x774 (1)
0x770|            05                                 |    .           |      [63]: 5 transition_type 0x774-0x775 (1)
0x770|               02                              |     .          |      [64]: 2 transition_type 0x775-0x776 (1)
0x770|                  05                           |      .         |      [65]: 5 transition_type 0x776-0x777 (1)
0x770|                     02                        |       .        |      [66]: 2 transition_type 0x777-0x778 (1)
0x770|                        05                     |        .       |      [67]: 5 transition_type 0x778-0x779 (1)
0x770|                           02                  |         .      |      [68]: 2 transition_type 0x779-0x77a (1)
0x770|                              05               |          .     |      [69]: 5 transition_type 0x77a-0x77b (1)
0x770|                                 02            |           .    |      [70]: 2 transition_type 0x77b-0x77c (1)
0x770|                                    05         |            .   |      [71]: 5 transition_type 0x77c-0x77d (1)
0x770|                                       02      |             .  |      [72]: 2 transition_type 0x77d-0x77e (1)
0x770|                                          05   |              . |      [73]: 5 transition_type 0x77e-0x77f (1)
0x770|                                             02|               .|      [74]: 2 transition_type 0x77f-0x780 (1)
0x780|05                                             |.               |      [75]: 5 transition_type 0x780-0x781 (1)
0x780|   02                                          | .              |      [76]: 2 transition_type 0x781-0x782 (1)
0x780|      05                                       |  .             |      [77]: 5 transition_type 0x782-0x783 (1)
0x780|         02                                    |   .            |      [78]: 2 transition_type 0x783-0x784 (1)
0x780|            05                                 |    .           |      [79]: 5 transition_type 0x784-0x785 (1)
0x780|               02                              |     .          |      [80]: 2 transition_type 0x785-0x786 (1)
0x780|                  05                           |      .         |      [81]: 5 transition_type 0x786-0x787 (1)
0x780|                     02                        |       .        |      [82]: 2 transition_type 0x787-0x788 (1)
0x780|                        05                     |        .       |      [83]: 5 transition_type 0x788-0x789 (1)
0x780|                           02                  |         .      |      [84]: 2 transition_type 0x789-0x78a (1)
0x780|                              05               |          .     |      [85]: 5 transition_type 0x78a-0x78b (1)
0x780|                                 02            |           .    |      [86]: 2 transition_type 0x78b-0x78c (1)
0x780|                                    05         |            .   |      [87]: 5 transition_type 0x78c-0x78d (1)
0x780|                                       02      |             .  |      [88]: 2 transition_type 0x78d-0x78e (1)
0x780|                                          05   |              . |      [89]: 5 transition_type 0x78e-0x78f (1)
0x780|                                             02|               .|      [90]: 2 transition_type 0x78f-0x790 (1)
0x790|05                                             |.               |      [91]: 5 transition_type 0x790-0x791 (1)
0x790|   02                                          | .              |      [92]: 2 transition_type 0x791-0x792 (1)
0x790|      05                                       |  .             |      [93]: 5 transition_type 0x792-0x793 (1)
0x790|         02                                    |   .            |      [94]: 2 transition_type 0x793-0x794 (1)
0x790|            05                                 |    .           |      [95]: 5 transition_type 0x794-0x795 (1)
0x790|               02                              |     .          |      [96]: 2 transition_type 0x795-0x796 (1)
0x790|                  05                           |      .         |      [97]: 5 transition_type 0x796-0x797 (1)
0x790|                     02                        |       .        |      [98]: 2 transition_type 0x797-0x798 (1)
0x790|                        05                     |        .       |      [99]: 5 transition_type 0x798-0x799 (1)
0x790|                           02                  |         .      |      [100]: 2 transition_type 0x799-0x79a (1)
0x790|                              05               |          .     |      [101]: 5 transition_type 0x79a-0x79b (1)
0x790|                                 02            |           .    |      [102]: 2 transition_type 0x79b-0x79c (1)
0x790|                                    05         |            .   |      [103]: 5 transition_type 0x79c-0x79d (1)
0x790|                                       02      |             .  |      [104]: 2 transition_type 0x79d-0x79e (1)
0x790|                                          05   |              . |      [105]: 5 transition_type 0x79e-0x79f (1)
0x790|                                             02|               .|      [106]: 2 transition_type 0x79f-0x7a0 (1)
0x7a0|05                                             |.               |      [107]: 5 transition_type 0x7a0-0x7a1 (1)
0x7a0|   02                                          | .              |      [108]: 2 transition_type 0x7a1-0x7a2 (1)
0x7a0|      05                                       |  .             |      [109]: 5 transition_type 0x7a2-0x7a3 (1)
0x7a0|         02                                    |   .            |      [110]: 2 transition_type 0x7a3-0x7a4 (1)
0x7a0|            05                                 |    .           |      [111]: 5 transition_type 0x7a4-0x7a5 (1)
0x7a0|               05                              |     .          |      [112]: 5 transition_type 0x7a5-0x7a6 (1)
     |                                               |                |    local_time_type_records[0:6]: 0x7a6-0x7ca (36)
     |                                               |                |      [0]{}: local_time_type 0x7a6-0x7ac (6)
0x7a0|                  ff ff b2 25                  |      ...%      |        utoff: -19931 (valid) 0x7a6-0x7aa (4)
0x7a0|                              00               |          .     |        dst: 0 (valid) 0x7aa-0x7ab (1)
0x7a0|                                 00            |           .    |        idx: 0 (valid) 0x7ab-0x7ac (1)
     |                                               |                |      [1]{}: local_time_type 0x7ac-0x7b2 (6)
0x7a0|                                    ff ff ab a0|            ....|        utoff: -21600 (valid) 0x7ac-0x7b0 (4)
0x7b0|00                                             |.               |        dst: 0 (valid) 0x7b0-0x7b1 (1)
0x7b0|   04                                          | .              |        idx: 4 (valid) 0x7b1-0x7b2 (1)
     |                                               |                |      [2]{}: local_time_type 0x7b2-0x7b8 (6)
0x7b0|      ff ff b9 b0                              |  ....          |        utoff: -18000 (valid) 0x7b2-0x7b6 (4)
0x7b0|                  00                           |      .         |        dst: 0 (valid) 0x7b6-0x7b7 (1)
0x7b0|                     08                        |       .        |        idx: 8 (valid) 0x7b7-0x7b8 (1)
     |                                               |                |      [3]{}: local_time_type 0x7b8-0x7be (6)
0x7b0|                        ff ff c7 c0            |        ....    |        utoff: -14400 (valid) 0x7b8-0x7bc (4)
0x7b0|                                    01         |            .   |        dst: 1 (valid) 0x7bc-0x7bd (1)
0x7b0|                                       0c      |             .  |        idx: 12 (valid) 0x7bd-0x7be (1)
     |                                               |                |      [4]{}: local_time_type 0x7be-0x7c4 (6)
0x7b0|                                          ff ff|              ..|        utoff: -14400 (valid) 0x7be-0x7c2 (4)
0x7c0|c7 c0                                          |..              |
0x7c0|      01                                       |  .             |        dst: 1 (valid) 0x7c2-0x7c3 (1)
0x7c0|         10                                    |   .            |        idx: 16 (valid) 0x7c3-0x7c4 (1)
     |                                               |                |      [5]{}: local_time_type 0x7c4-0x7ca (6)
0x7c0|            ff ff c7 c0                        |    ....        |        utoff: -14400 (valid) 0x7c4-0x7c8 (4)
0x7c0|                        01                     |        .       |        dst: 1 (valid) 0x7c8-0x7c9 (1)
0x7c0|                           14                  |         .      |        idx: 20 (valid) 0x7c9-0x7ca (1)
     |                                               |                |    time_zone_designations[0:6]: 0x7ca-0x7e2 (24)
0x7c0|                              4c 4d 54 00      |          LMT.  |      [0]: "LMT" time_zone_designation 0x7ca-0x7ce (4)
0x7c0|                                          43 53|              CS|      [1]: "CST" time_zone_designation 0x7ce-0x7d2 (4)
0x7d0|54 00                                          |T.              |
0x7d0|      45 53 54 00                              |  EST.          |      [2]: "EST" time_zone_designation 0x7d2-0x7d6 (4)
0x7d0|                  45 57 54 00                  |      EWT.      |      [3]: "EWT" time_zone_designation 0x7d6-0x7da (4)
0x7d0|                              45 50 54 00      |          EPT.  |      [4]: "EPT" time_zone_designation 0x7da-0x7de (4)
0x7d0|                                          45 44|              ED|      [5]: "EDT" time_zone_designation 0x7de-0x7e2 (4)
0x7e0|54 00                                          |T.              |
     |                                               |                |    leap_second_records[0:27]: 0x7e2-0x926 (324)
     |                                               |                |      [0]{}: leap_second_record 0x7e2-0x7ee (12)
0x7e0|      00 00 00 00 04 b2 58 00                  |  ......X.      |        occur: "1972-07-01T00:00:00Z" (78796800) 0x7e2-0x7ea (8)
0x7e0|                              00 00 00 01      |          ....  |        corr: 1 0x7ea-0x7ee (4)
     |                                               |                |      [1]{}: leap_second_record 0x7ee-0x7fa (12)
0x7e0|                                          00 00|              ..|        occur: "1973-01-01T00:00:01Z" (94694401) 0x7ee-0x7f6 (8)
0x7f0|00 00 05 a4 ec 01                              |......          |
0x7f0|                  00 00 00 02                  |      ....      |        corr: 2 0x7f6-0x7fa (4)
     |                                               |                |      [2]{}: leap_second_record 0x7fa-0x806 (12)
0x7f0|                              00 00 00 00 07 86|          ......|        occur: "1974-01-01T00:00:02Z" (126230402) 0x7fa-0x802 (8)
0x800|1f 82                                          |..              |
0x800|      00 00 00 03                              |  ....          |        corr: 3 0x802-0x806 (4)
     |                                               |                |      [3]{}: leap_second_record 0x806-0x812 (12)
0x800|                  00 00 00 00 09 67 53 03      |      .....gS.  |        occur: "1975-01-01T00:00:03Z" (157766403) 0x806-0x80e (8)
0x800|                                          00 00|              ..|        corr: 4 0x80e-0x812 (4)
0x810|00 04                                          |..              |
     |                                               |                |      [4]{}: leap_second_record 0x812-0x81e (12)
0x810|      00 00 00 00 0b 48 86 84                  |  .....H..      |        occur: "1976-01-01T00:00:04Z" (189302404) 0x812-0x81a (8)
0x810|                              00 00 00 05      |          ....  |        corr: 5 0x81a-0x81e (4)
     |                                               |                |      [5]{}: leap_second_record 0x81e-0x82a (12)
0x810|                                          00 00|              ..|        occur: "1977-01-01T00:00:05Z" (220924805) 0x81e-0x826 (8)
0x820|00 00 0d 2b 0b 85                              |...+..          |
0x820|                  00 00 00 06                  |      ....      |        corr: 6 0x826-0x82a (4)
     |                                               |                |      [6]{}: leap_second_record 0x82a-0x836 (12)
0x820|                              00 00 00 00 0f 0c|          ......|        occur: "1978-01-01T00:00:06Z" (252460806) 0x82a-0x832 (8)
0x830|3f 06                                          |?.              |
0x830|      00 00 00 07                              |  ....          |        corr: 7 0x832-0x836 (4)
     |                                               |                |      [7]{}: leap_second_record 0x836-0x842 (12)
0x830|                  00 00 00 00 10 ed 72 87      |      ......r.  |        occur: "1979-01-01T00:00:07Z" (283996807) 0x836-0x83e (8)
0x830|                                          00 00|              ..|        corr: 8 0x83e-0x842 (4)
0x840|00 08                                          |..              |
     |                                               |                |      [8]{}: leap_second_record 0x842-0x84e (12)
0x840|      00 00 00 00 12 ce a6 08                  |  ........      |        occur: "1980-01-01T00:00:08Z" (315532808) 0x842-0x84a (8)
0x840|                              00 00 00 09      |          ....  |        corr: 9 0x84a-0x84e (4)
     |                                               |                |      [9]{}: leap_second_record 0x84e-0x85a (12)
0x840|                                          00 00|              ..|        occur: "1981-07-01T00:00:09Z" (362793609) 0x84e-0x856 (8)
0x850|00 00 15 9f ca 89                              |......          |
0x850|                  00 00 00 0a                  |      ....      |        corr: 10 0x856-0x85a (4)
     |                                               |                |      [10]{}: leap_second_record 0x85a-0x866 (12)
0x850|                              00 00 00 00 17 80|          ......|        occur: "1982-07-01T00:00:10Z" (394329610) 0x85a-0x862 (8)
0x860|fe 0a                                          |..              |
0x860|      00 00 00 0b                              |  ....          |        corr: 11 0x862-0x866 (4)
     |                                               |                |      [11]{}: leap_second_record 0x866-0x872 (12)
0x860|                  00 00 00 00 19 62 31 8b      |      .....b1.  |        occur: "1983-07-01T00:00:11Z" (425865611) 0x866-0x86e (8)
0x860|                                          00 00|              ..|        corr: 12 0x86e-0x872 (4)
0x870|00 0c                                          |..              |
     |                                               |                |      [12]{}: leap_second_record 0x872-0x87e (12)
0x870|      00 00 00 00 1d 25 ea 0c                  |  .....%..      |        occur: "1985-07-01T00:00:12Z" (489024012) 0x872-0x87a (8)
0x870|                              00 00 00 0d      |          ....  |        corr: 13 0x87a-0x87e (4)
     |                                               |                |      [13]{}: leap_second_record 0x87e-0x88a (12)
0x870|                                          00 00|              ..|        occur: "1988-01-01T00:00:13Z" (567993613) 0x87e-0x886 (8)
0x880|00 00 21 da e5 0d                              |..!...          |
0x880|                  00 00 00 0e                  |      ....      |        corr: 14 0x886-0x88a (4)
     |                                               |                |      [14]{}: leap_second_record 0x88a-0x896 (12)
0x880|                              00 00 00 00 25 9e|          ....%.|        occur: "1990-01-01T00:00:14Z" (631152014) 0x88a-0x892 (8)
0x890|9d 8e                                          |..              |
0x890|      00 00 00 0f                              |  ....          |        corr: 15 0x892-0x896 (4)
     |                                               |                |      [15]{}: leap_second_record 0x896-0x8a2 (12)
0x890|                  00 00 00 00 27 7f d1 0f      |      ....'...  |        occur: "1991-01-01T00:00:15Z" (662688015) 0x896-0x89e (8)
0x890|                                          00 00|              ..|        corr: 16 0x89e-0x8a2 (4)
0x8a0|00 10                                          |..              |
     |                                               |                |      [16]{}: leap_second_record 0x8a2-0x8ae (12)
0x8a0|      00 00 00 00 2a 50 f5 90                  |  ....*P..      |        occur: "1992-07-01T00:00:16Z" (709948816) 0x8a2-0x8aa (8)
0x8a0|                              00 00 00 11      |          ....  |        corr: 17 0x8aa-0x8ae (4)
     |                                               |                |      [17]{}: leap_second_record 0x8ae-0x8ba (12)
0x8a0|                                          00 00|              ..|        occur: "1993-07-01T00:00:17Z" (741484817) 0x8ae-0x8b6 (8)
0x8b0|00 00 2c 32 29 11                              |..,2).          |
0x8b0|                  00 00 00 12                  |      ....      |        corr: 18 0x8b6-0x8ba (4)
     |                                               |                |      [18]{}: leap_second_record 0x8ba-0x8c6 (12)
0x8b0|                              00 00 00 00 2e 13|          ......|        occur: "1994-07-01T00:00:18Z" (773020818) 0x8ba-0x8c2 (8)
0x8c0|5c 92                                          |\.              |
0x8c0|      00 00 00 13                              |  ....          |        corr: 19 0x8c2-0x8c6 (4)
     |                                               |                |      [19]{}: leap_second_record 0x8c6-0x8d2 (12)
0x8c0|                  00 00 00 00 30 e7 24 13      |      ....0.$.  |        occur: "1996-01-01T00:00:19Z" (820454419) 0x8c6-0x8ce (8)
0x8c0|                                          00 00|              ..|        corr: 20 0x8ce-0x8d2 (4)
0x8d0|00 14                                          |..              |
     |                                               |                |      [20]{}: leap_second_record 0x8d2-0x8de (12)
0x8d0|      00 00 00 00 33 b8 48 94                  |  ....3.H.      |        occur: "1997-07-01T00:00:20Z" (867715220) 0x8d2-0x8da (8)
0x8d0|                              00 00 00 15      |          ....  |        corr: 21 0x8da-0x8de (4)
     |                                               |                |      [21]{}: leap_second_record 0x8de-0x8ea (12)
0x8d0|                                          00 00|              ..|        occur: "1999-01-01T00:00:21Z" (915148821) 0x8de-0x8e6 (8)
0x8e0|00 00 36 8c 10 15                              |..6...          |
0x8e0|                  00 00 00 16                  |      ....      |        corr: 22 0x8e6-0x8ea (4)
     |                                               |                |      [22]{}: leap_second_record 0x8ea-0x8f6 (12)
0x8e0|                              00 00 00 00 43 b7|          ....C.|        occur: "2006-01-01T00:00:22Z" (1136073622) 0x8ea-0x8f2 (8)
0x8f0|1b 96                                          |..              |
0x8f0|      00 00 00 17                              |  ....          |        corr: 23 0x8f2-0x8f6 (4)
     |                                               |                |      [23]{}: leap_second_record 0x8f6-0x902 (12)
0x8f0|                  00 00 00 00 49 5c 07 97      |      ....I\..  |        occur: "2009-01-01T00:00:23Z" (1230768023) 0x8f6-0x8fe (8)
0x8f0|                                          00 00|              ..|        corr: 24 0x8fe-0x902 (4)
0x900|00 18                                          |..              |
     |                                               |                |      [24]{}: leap_second_record 0x902-0x90e (12)
0x900|      00 00 00 00 4f ef 93 18                  |  ....O...      |        occur: "2012-07-01T00:00:24Z" (1341100824) 0x902-0x90a (8)
0x900|                              00 00 00 19      |          ....  |        corr: 25 0x90a-0x90e (4)
     |                                               |                |      [25]{}: leap_second_record 0x90e-0x91a (12)
0x900|                                          00 00|              ..|        occur: "2015-07-01T00:00:25Z" (1435708825) 0x90e-0x916 (8)
0x910|00 00 55 93 2d 99                              |..U.-.          |
0x910|                  00 00 00 1a                  |      ....      |        corr: 26 0x916-0x91a (4)
     |                                               |                |      [26]{}: leap_second_record 0x91a-0x926 (12)
0x910|                              00 00 00 00 58 68|          ....Xh|        occur: "2017-01-01T00:00:26Z" (1483228826) 0x91a-0x922 (8)
0x920|46 9a                                          |F.              |
0x920|      00 00 00 1b                              |  ....          |        corr: 27 0x922-0x926 (4)
     |                                               |                |    standard_wall_indicators[0:6]: 0x926-0x92c (6)
0x920|                  00                           |      .         |      [0]: 0 standard_wall_indicator (valid) 0x926-0x927 (1)
0x920|                     00                        |       .        |      [1]: 0 standard_wall_indicator (valid) 0x927-0x928 (1)
0x920|                        00                     |        .       |      [2]: 0 standard_wall_indicator (valid) 0x928-0x929 (1)
0x920|                           00                  |         .      |      [3]: 0 standard_wall_indicator (valid) 0x929-0x92a (1)
0x920|                              01               |          .     |      [4]: 1 standard_wall_indicator (valid) 0x92a-0x92b (1)
0x920|                                 00            |           .    |      [5]: 0 standard_wall_indicator (valid) 0x92b-0x92c (1)
     |                                               |                |    ut_local_indicators[0:6]: 0x92c-0x932 (6)
0x920|                                    00         |            .   |      [0]: 0 ut_local_indicator (valid) 0x92c-0x92d (1)
0x920|                                       00      |             .  |      [1]: 0 ut_local_indicator (valid) 0x92d-0x92e (1)
0x920|                                          00   |              . |      [2]: 0 ut_local_indicator (valid) 0x92e-0x92f (1)
0x920|                                             00|               .|      [3]: 0 ut_local_indicator (valid) 0x92f-0x930 (1)
0x930|01                                             |.               |      [4]: 1 ut_local_indicator (valid) 0x930-0x931 (1)
0x930|   00                                          | .              |      [5]: 0 ut_local_indicator (valid) 0x931-0x932 (1)
     |                                               |                |  footer{}: 0x932-0x934 (2)
0x930|      0a                                       |  .             |    nl1: 10 (valid) 0x932-0x933 (1)
     |                                               |                |    tz_string: "" 0x933-0x933 (0)
0x930|         0a|                                   |   .|           |    nl2: 10 (valid) 0x933-0x934 (1)
