$ fq -d tzif dv Dhaka
     |00 01 02 03 04 05 06 07 08 09 0a 0b 0c 0d 0e 0f|0123456789abcdef|.{}: Dhaka (tzif) 0x0-0x365.7 (870)
     |                                               |                |  v1header{}: 0x0-0x2b.7 (44)
0x000|54 5a 69 66                                    |TZif            |    magic: 0x545a6966 (valid) 0x0-0x3.7 (4)
0x000|            32                                 |    2           |    ver: "2" (0x32) (valid) 0x4-0x4.7 (1)
0x000|               00 00 00 00 00 00 00 00 00 00 00|     ...........|    reserved: raw bits 0x5-0x13.7 (15)
0x010|00 00 00 00                                    |....            |
0x010|            00 00 00 00                        |    ....        |    isutcnt: 0 0x14-0x17.7 (4)
0x010|                        00 00 00 00            |        ....    |    isstdcnt: 0 0x18-0x1b.7 (4)
0x010|                                    00 00 00 1b|            ....|    leapcnt: 27 0x1c-0x1f.7 (4)
0x020|00 00 00 08                                    |....            |    timecnt: 8 0x20-0x23.7 (4)
0x020|            00 00 00 06                        |    ....        |    typecnt: 6 0x24-0x27.7 (4)
0x020|                        00 00 00 1c            |        ....    |    charcnt: 28 0x28-0x2b.7 (4)
     |                                               |                |  v1datablock{}: 0x2c-0x16b.7 (320)
     |                                               |                |    transition_times[0:8]: 0x2c-0x4b.7 (32)
0x020|                                    80 00 00 00|            ....|      [0]: "1901-12-13T20:45:52Z" (-2147483648) transition_time 0x2c-0x2f.7 (4)
0x030|ca db 86 b0                                    |....            |      [1]: "1941-09-30T18:06:40Z" (-891582800) transition_time 0x30-0x33.7 (4)
0x030|            cc 05 71 18                        |    ..q.        |      [2]: "1942-05-14T17:30:00Z" (-872058600) transition_time 0x34-0x37.7 (4)
0x030|                        cc 95 32 a8            |        ..2.    |      [3]: "1942-08-31T18:30:00Z" (-862637400) transition_time 0x38-0x3b.7 (4)
0x030|                                    dd a8 d2 98|            ....|      [4]: "1951-09-29T17:30:00Z" (-576138600) transition_time 0x3c-0x3f.7 (4)
0x040|4a 3b c4 28                                    |J;.(            |      [5]: "2009-06-19T17:00:24Z" (1245430824) transition_time 0x40-0x43.7 (4)
0x040|            4b 3c d8 a8                        |    K<..        |      [6]: "2009-12-31T17:00:24Z" (1262278824) transition_time 0x44-0x47.7 (4)
0x040|                        64 9b 78 1b            |        d.x.    |      [7]: "2023-06-28T00:00:27Z" (1687910427) transition_time 0x48-0x4b.7 (4)
     |                                               |                |    transition_types[0:8]: 0x4c-0x53.7 (8)
0x040|                                    01         |            .   |      [0]: 1 transition_type 0x4c-0x4c.7 (1)
0x040|                                       02      |             .  |      [1]: 2 transition_type 0x4d-0x4d.7 (1)
0x040|                                          03   |              . |      [2]: 3 transition_type 0x4e-0x4e.7 (1)
0x040|                                             02|               .|      [3]: 2 transition_type 0x4f-0x4f.7 (1)
0x050|04                                             |.               |      [4]: 4 transition_type 0x50-0x50.7 (1)
0x050|   05                                          | .              |      [5]: 5 transition_type 0x51-0x51.7 (1)
0x050|      04                                       |  .             |      [6]: 4 transition_type 0x52-0x52.7 (1)
0x050|         04                                    |   .            |      [7]: 4 transition_type 0x53-0x53.7 (1)
     |                                               |                |    local_time_type_records[0:6]: 0x54-0x77.7 (36)
     |                                               |                |      [0]{}: local_time_type 0x54-0x59.7 (6)
0x050|            00 00 54 c4                        |    ..T.        |        utoff: 21700 (valid) 0x54-0x57.7 (4)
0x050|                        00                     |        .       |        dst: 0 (valid) 0x58-0x58.7 (1)
0x050|                           00                  |         .      |        idx: 0 (valid) 0x59-0x59.7 (1)
     |                                               |                |      [1]{}: local_time_type 0x5a-0x5f.7 (6)
0x050|                              00 00 52 d0      |          ..R.  |        utoff: 21200 (valid) 0x5a-0x5d.7 (4)
0x050|                                          00   |              . |        dst: 0 (valid) 0x5e-0x5e.7 (1)
0x050|                                             04|               .|        idx: 4 (valid) 0x5f-0x5f.7 (1)
     |                                               |                |      [2]{}: local_time_type 0x60-0x65.7 (6)
0x060|00 00 5b 68                                    |..[h            |        utoff: 23400 (valid) 0x60-0x63.7 (4)
0x060|            00                                 |    .           |        dst: 0 (valid) 0x64-0x64.7 (1)
0x060|               08                              |     .          |        idx: 8 (valid) 0x65-0x65.7 (1)
     |                                               |                |      [3]{}: local_time_type 0x66-0x6b.7 (6)
0x060|                  00 00 4d 58                  |      ..MX      |        utoff: 19800 (valid) 0x66-0x69.7 (4)
0x060|                              00               |          .     |        dst: 0 (valid) 0x6a-0x6a.7 (1)
0x060|                                 0e            |           .    |        idx: 14 (valid) 0x6b-0x6b.7 (1)
     |                                               |                |      [4]{}: local_time_type 0x6c-0x71.7 (6)
0x060|                                    00 00 54 60|            ..T`|        utoff: 21600 (valid) 0x6c-0x6f.7 (4)
0x070|00                                             |.               |        dst: 0 (valid) 0x70-0x70.7 (1)
0x070|   14                                          | .              |        idx: 20 (valid) 0x71-0x71.7 (1)
     |                                               |                |      [5]{}: local_time_type 0x72-0x77.7 (6)
0x070|      00 00 62 70                              |  ..bp          |        utoff: 25200 (valid) 0x72-0x75.7 (4)
0x070|                  01                           |      .         |        dst: 1 (valid) 0x76-0x76.7 (1)
0x070|                     18                        |       .        |        idx: 24 (valid) 0x77-0x77.7 (1)
     |                                               |                |    time_zone_designations[0:6]: 0x78-0x93.7 (28)
0x070|                        4c 4d 54 00            |        LMT.    |      [0]: "LMT" time_zone_designation 0x78-0x7b.7 (4)
0x070|                                    48 4d 54 00|            HMT.|      [1]: "HMT" time_zone_designation 0x7c-0x7f.7 (4)
0x080|2b 30 36 33 30 00                              |+0630.          |      [2]: "+0630" time_zone_designation 0x80-0x85.7 (6)
0x080|                  2b 30 35 33 30 00            |      +0530.    |      [3]: "+0530" time_zone_designation 0x86-0x8b.7 (6)
0x080|                                    2b 30 36 00|            +06.|      [4]: "+06" time_zone_designation 0x8c-0x8f.7 (4)
0x090|2b 30 37 00                                    |+07.            |      [5]: "+07" time_zone_designation 0x90-0x93.7 (4)
     |                                               |                |    leap_second_records[0:27]: 0x94-0x16b.7 (216)
     |                                               |                |      [0]{}: leap_second_record 0x94-0x9b.7 (8)
0x090|            04 b2 58 00                        |    ..X.        |        occur: "1972-07-01T00:00:00Z" (78796800) 0x94-0x97.7 (4)
0x090|                        00 00 00 01            |        ....    |        corr: 1 0x98-0x9b.7 (4)
     |                                               |                |      [1]{}: leap_second_record 0x9c-0xa3.7 (8)
0x090|                                    05 a4 ec 01|            ....|        occur: "1973-01-01T00:00:01Z" (94694401) 0x9c-0x9f.7 (4)
0x0a0|00 00 00 02                                    |....            |        corr: 2 0xa0-0xa3.7 (4)
     |                                               |                |      [2]{}: leap_second_record 0xa4-0xab.7 (8)
0x0a0|            07 86 1f 82                        |    ....        |        occur: "1974-01-01T00:00:02Z" (126230402) 0xa4-0xa7.7 (4)
0x0a0|                        00 00 00 03            |        ....    |        corr: 3 0xa8-0xab.7 (4)
     |                                               |                |      [3]{}: leap_second_record 0xac-0xb3.7 (8)
0x0a0|                                    09 67 53 03|            .gS.|        occur: "1975-01-01T00:00:03Z" (157766403) 0xac-0xaf.7 (4)
0x0b0|00 00 00 04                                    |....            |        corr: 4 0xb0-0xb3.7 (4)
     |                                               |                |      [4]{}: leap_second_record 0xb4-0xbb.7 (8)
0x0b0|            0b 48 86 84                        |    .H..        |        occur: "1976-01-01T00:00:04Z" (189302404) 0xb4-0xb7.7 (4)
0x0b0|                        00 00 00 05            |        ....    |        corr: 5 0xb8-0xbb.7 (4)
     |                                               |                |      [5]{}: leap_second_record 0xbc-0xc3.7 (8)
0x0b0|                                    0d 2b 0b 85|            .+..|        occur: "1977-01-01T00:00:05Z" (220924805) 0xbc-0xbf.7 (4)
0x0c0|00 00 00 06                                    |....            |        corr: 6 0xc0-0xc3.7 (4)
     |                                               |                |      [6]{}: leap_second_record 0xc4-0xcb.7 (8)
0x0c0|            0f 0c 3f 06                        |    ..?.        |        occur: "1978-01-01T00:00:06Z" (252460806) 0xc4-0xc7.7 (4)
0x0c0|                        00 00 00 07            |        ....    |        corr: 7 0xc8-0xcb.7 (4)
     |                                               |                |      [7]{}: leap_second_record 0xcc-0xd3.7 (8)
0x0c0|                                    10 ed 72 87|            ..r.|        occur: "1979-01-01T00:00:07Z" (283996807) 0xcc-0xcf.7 (4)
0x0d0|00 00 00 08                                    |....            |        corr: 8 0xd0-0xd3.7 (4)
     |                                               |                |      [8]{}: leap_second_record 0xd4-0xdb.7 (8)
0x0d0|            12 ce a6 08                        |    ....        |        occur: "1980-01-01T00:00:08Z" (315532808) 0xd4-0xd7.7 (4)
0x0d0|                        00 00 00 09            |        ....    |        corr: 9 0xd8-0xdb.7 (4)
     |                                               |                |      [9]{}: leap_second_record 0xdc-0xe3.7 (8)
0x0d0|                                    15 9f ca 89|            ....|        occur: "1981-07-01T00:00:09Z" (362793609) 0xdc-0xdf.7 (4)
0x0e0|00 00 00 0a                                    |....            |        corr: 10 0xe0-0xe3.7 (4)
     |                                               |                |      [10]{}: leap_second_record 0xe4-0xeb.7 (8)
0x0e0|            17 80 fe 0a                        |    ....        |        occur: "1982-07-01T00:00:10Z" (394329610) 0xe4-0xe7.7 (4)
0x0e0|                        00 00 00 0b            |        ....    |        corr: 11 0xe8-0xeb.7 (4)
     |                                               |                |      [11]{}: leap_second_record 0xec-0xf3.7 (8)
0x0e0|                                    19 62 31 8b|            .b1.|        occur: "1983-07-01T00:00:11Z" (425865611) 0xec-0xef.7 (4)
0x0f0|00 00 00 0c                                    |....            |        corr: 12 0xf0-0xf3.7 (4)
     |                                               |                |      [12]{}: leap_second_record 0xf4-0xfb.7 (8)
0x0f0|            1d 25 ea 0c                        |    .%..        |        occur: "1985-07-01T00:00:12Z" (489024012) 0xf4-0xf7.7 (4)
0x0f0|                        00 00 00 0d            |        ....    |        corr: 13 0xf8-0xfb.7 (4)
     |                                               |                |      [13]{}: leap_second_record 0xfc-0x103.7 (8)
0x0f0|                                    21 da e5 0d|            !...|        occur: "1988-01-01T00:00:13Z" (567993613) 0xfc-0xff.7 (4)
0x100|00 00 00 0e                                    |....            |        corr: 14 0x100-0x103.7 (4)
     |                                               |                |      [14]{}: leap_second_record 0x104-0x10b.7 (8)
0x100|            25 9e 9d 8e                        |    %...        |        occur: "1990-01-01T00:00:14Z" (631152014) 0x104-0x107.7 (4)
0x100|                        00 00 00 0f            |        ....    |        corr: 15 0x108-0x10b.7 (4)
     |                                               |                |      [15]{}: leap_second_record 0x10c-0x113.7 (8)
0x100|                                    27 7f d1 0f|            '...|        occur: "1991-01-01T00:00:15Z" (662688015) 0x10c-0x10f.7 (4)
0x110|00 00 00 10                                    |....            |        corr: 16 0x110-0x113.7 (4)
     |                                               |                |      [16]{}: leap_second_record 0x114-0x11b.7 (8)
0x110|            2a 50 f5 90                        |    *P..        |        occur: "1992-07-01T00:00:16Z" (709948816) 0x114-0x117.7 (4)
0x110|                        00 00 00 11            |        ....    |        corr: 17 0x118-0x11b.7 (4)
     |                                               |                |      [17]{}: leap_second_record 0x11c-0x123.7 (8)
0x110|                                    2c 32 29 11|            ,2).|        occur: "1993-07-01T00:00:17Z" (741484817) 0x11c-0x11f.7 (4)
0x120|00 00 00 12                                    |....            |        corr: 18 0x120-0x123.7 (4)
     |                                               |                |      [18]{}: leap_second_record 0x124-0x12b.7 (8)
0x120|            2e 13 5c 92                        |    ..\.        |        occur: "1994-07-01T00:00:18Z" (773020818) 0x124-0x127.7 (4)
0x120|                        00 00 00 13            |        ....    |        corr: 19 0x128-0x12b.7 (4)
     |                                               |                |      [19]{}: leap_second_record 0x12c-0x133.7 (8)
0x120|                                    30 e7 24 13|            0.$.|        occur: "1996-01-01T00:00:19Z" (820454419) 0x12c-0x12f.7 (4)
0x130|00 00 00 14                                    |....            |        corr: 20 0x130-0x133.7 (4)
     |                                               |                |      [20]{}: leap_second_record 0x134-0x13b.7 (8)
0x130|            33 b8 48 94                        |    3.H.        |        occur: "1997-07-01T00:00:20Z" (867715220) 0x134-0x137.7 (4)
0x130|                        00 00 00 15            |        ....    |        corr: 21 0x138-0x13b.7 (4)
     |                                               |                |      [21]{}: leap_second_record 0x13c-0x143.7 (8)
0x130|                                    36 8c 10 15|            6...|        occur: "1999-01-01T00:00:21Z" (915148821) 0x13c-0x13f.7 (4)
0x140|00 00 00 16                                    |....            |        corr: 22 0x140-0x143.7 (4)
     |                                               |                |      [22]{}: leap_second_record 0x144-0x14b.7 (8)
0x140|            43 b7 1b 96                        |    C...        |        occur: "2006-01-01T00:00:22Z" (1136073622) 0x144-0x147.7 (4)
0x140|                        00 00 00 17            |        ....    |        corr: 23 0x148-0x14b.7 (4)
     |                                               |                |      [23]{}: leap_second_record 0x14c-0x153.7 (8)
0x140|                                    49 5c 07 97|            I\..|        occur: "2009-01-01T00:00:23Z" (1230768023) 0x14c-0x14f.7 (4)
0x150|00 00 00 18                                    |....            |        corr: 24 0x150-0x153.7 (4)
     |                                               |                |      [24]{}: leap_second_record 0x154-0x15b.7 (8)
0x150|            4f ef 93 18                        |    O...        |        occur: "2012-07-01T00:00:24Z" (1341100824) 0x154-0x157.7 (4)
0x150|                        00 00 00 19            |        ....    |        corr: 25 0x158-0x15b.7 (4)
     |                                               |                |      [25]{}: leap_second_record 0x15c-0x163.7 (8)
0x150|                                    55 93 2d 99|            U.-.|        occur: "2015-07-01T00:00:25Z" (1435708825) 0x15c-0x15f.7 (4)
0x160|00 00 00 1a                                    |....            |        corr: 26 0x160-0x163.7 (4)
     |                                               |                |      [26]{}: leap_second_record 0x164-0x16b.7 (8)
0x160|            58 68 46 9a                        |    XhF.        |        occur: "2017-01-01T00:00:26Z" (1483228826) 0x164-0x167.7 (4)
0x160|                        00 00 00 1b            |        ....    |        corr: 27 0x168-0x16b.7 (4)
     |                                               |                |    standard_wall_indicators[0:0]: 0x16c-NA (0)
     |                                               |                |    ut_local_indicators[0:0]: 0x16c-NA (0)
     |                                               |                |  v2plusheader{}: 0x16c-0x197.7 (44)
0x160|                                    54 5a 69 66|            TZif|    magic: 0x545a6966 (valid) 0x16c-0x16f.7 (4)
0x170|32                                             |2               |    ver: "2" (0x32) (valid) 0x170-0x170.7 (1)
0x170|   00 00 00 00 00 00 00 00 00 00 00 00 00 00 00| ...............|    reserved: raw bits 0x171-0x17f.7 (15)
0x180|00 00 00 00                                    |....            |    isutcnt: 0 0x180-0x183.7 (4)
0x180|            00 00 00 00                        |    ....        |    isstdcnt: 0 0x184-0x187.7 (4)
0x180|                        00 00 00 1b            |        ....    |    leapcnt: 27 0x188-0x18b.7 (4)
0x180|                                    00 00 00 08|            ....|    timecnt: 8 0x18c-0x18f.7 (4)
0x190|00 00 00 06                                    |....            |    typecnt: 6 0x190-0x193.7 (4)
0x190|            00 00 00 1c                        |    ....        |    charcnt: 28 0x194-0x197.7 (4)
     |                                               |                |  v2plusdatablock{}: 0x198-0x363.7 (460)
     |                                               |                |    transition_times[0:8]: 0x198-0x1d7.7 (64)
0x190|                        ff ff ff ff 69 86 86 bc|        ....i...|      [0]: "1889-12-31T17:58:20Z" (-2524543300) transition_time 0x198-0x19f.7 (8)
0x1a0|ff ff ff ff ca db 86 b0                        |........        |      [1]: "1941-09-30T18:06:40Z" (-891582800) transition_time 0x1a0-0x1a7.7 (8)
0x1a0|                        ff ff ff ff cc 05 71 18|        ......q.|      [2]: "1942-05-14T17:30:00Z" (-872058600) transition_time 0x1a8-0x1af.7 (8)
0x1b0|ff ff ff ff cc 95 32 a8                        |......2.        |      [3]: "1942-08-31T18:30:00Z" (-862637400) transition_time 0x1b0-0x1b7.7 (8)
0x1b0|                        ff ff ff ff dd a8 d2 98|        ........|      [4]: "1951-09-29T17:30:00Z" (-576138600) transition_time 0x1b8-0x1bf.7 (8)
0x1c0|00 00 00 00 4a 3b c4 28                        |....J;.(        |      [5]: "2009-06-19T17:00:24Z" (1245430824) transition_time 0x1c0-0x1c7.7 (8)
0x1c0|                        00 00 00 00 4b 3c d8 a8|        ....K<..|      [6]: "2009-12-31T17:00:24Z" (1262278824) transition_time 0x1c8-0x1cf.7 (8)
0x1d0|00 00 00 00 64 9b 78 1b                        |....d.x.        |      [7]: "2023-06-28T00:00:27Z" (1687910427) transition_time 0x1d0-0x1d7.7 (8)
     |                                               |                |    transition_types[0:8]: 0x1d8-0x1df.7 (8)
0x1d0|                        01                     |        .       |      [0]: 1 transition_type 0x1d8-0x1d8.7 (1)
0x1d0|                           02                  |         .      |      [1]: 2 transition_type 0x1d9-0x1d9.7 (1)
0x1d0|                              03               |          .     |      [2]: 3 transition_type 0x1da-0x1da.7 (1)
0x1d0|                                 02            |           .    |      [3]: 2 transition_type 0x1db-0x1db.7 (1)
0x1d0|                                    04         |            .   |      [4]: 4 transition_type 0x1dc-0x1dc.7 (1)
0x1d0|                                       05      |             .  |      [5]: 5 transition_type 0x1dd-0x1dd.7 (1)
0x1d0|                                          04   |              . |      [6]: 4 transition_type 0x1de-0x1de.7 (1)
0x1d0|                                             04|               .|      [7]: 4 transition_type 0x1df-0x1df.7 (1)
     |                                               |                |    local_time_type_records[0:6]: 0x1e0-0x203.7 (36)
     |                                               |                |      [0]{}: local_time_type 0x1e0-0x1e5.7 (6)
0x1e0|00 00 54 c4                                    |..T.            |        utoff: 21700 (valid) 0x1e0-0x1e3.7 (4)
0x1e0|            00                                 |    .           |        dst: 0 (valid) 0x1e4-0x1e4.7 (1)
0x1e0|               00                              |     .          |        idx: 0 (valid) 0x1e5-0x1e5.7 (1)
     |                                               |                |      [1]{}: local_time_type 0x1e6-0x1eb.7 (6)
0x1e0|                  00 00 52 d0                  |      ..R.      |        utoff: 21200 (valid) 0x1e6-0x1e9.7 (4)
0x1e0|                              00               |          .     |        dst: 0 (valid) 0x1ea-0x1ea.7 (1)
0x1e0|                                 04            |           .    |        idx: 4 (valid) 0x1eb-0x1eb.7 (1)
     |                                               |                |      [2]{}: local_time_type 0x1ec-0x1f1.7 (6)
0x1e0|                                    00 00 5b 68|            ..[h|        utoff: 23400 (valid) 0x1ec-0x1ef.7 (4)
0x1f0|00                                             |.               |        dst: 0 (valid) 0x1f0-0x1f0.7 (1)
0x1f0|   08                                          | .              |        idx: 8 (valid) 0x1f1-0x1f1.7 (1)
     |                                               |                |      [3]{}: local_time_type 0x1f2-0x1f7.7 (6)
0x1f0|      00 00 4d 58                              |  ..MX          |        utoff: 19800 (valid) 0x1f2-0x1f5.7 (4)
0x1f0|                  00                           |      .         |        dst: 0 (valid) 0x1f6-0x1f6.7 (1)
0x1f0|                     0e                        |       .        |        idx: 14 (valid) 0x1f7-0x1f7.7 (1)
     |                                               |                |      [4]{}: local_time_type 0x1f8-0x1fd.7 (6)
0x1f0|                        00 00 54 60            |        ..T`    |        utoff: 21600 (valid) 0x1f8-0x1fb.7 (4)
0x1f0|                                    00         |            .   |        dst: 0 (valid) 0x1fc-0x1fc.7 (1)
0x1f0|                                       14      |             .  |        idx: 20 (valid) 0x1fd-0x1fd.7 (1)
     |                                               |                |      [5]{}: local_time_type 0x1fe-0x203.7 (6)
0x1f0|                                          00 00|              ..|        utoff: 25200 (valid) 0x1fe-0x201.7 (4)
0x200|62 70                                          |bp              |
0x200|      01                                       |  .             |        dst: 1 (valid) 0x202-0x202.7 (1)
0x200|         18                                    |   .            |        idx: 24 (valid) 0x203-0x203.7 (1)
     |                                               |                |    time_zone_designations[0:6]: 0x204-0x21f.7 (28)
0x200|            4c 4d 54 00                        |    LMT.        |      [0]: "LMT" time_zone_designation 0x204-0x207.7 (4)
0x200|                        48 4d 54 00            |        HMT.    |      [1]: "HMT" time_zone_designation 0x208-0x20b.7 (4)
0x200|                                    2b 30 36 33|            +063|      [2]: "+0630" time_zone_designation 0x20c-0x211.7 (6)
0x210|30 00                                          |0.              |
0x210|      2b 30 35 33 30 00                        |  +0530.        |      [3]: "+0530" time_zone_designation 0x212-0x217.7 (6)
0x210|                        2b 30 36 00            |        +06.    |      [4]: "+06" time_zone_designation 0x218-0x21b.7 (4)
0x210|                                    2b 30 37 00|            +07.|      [5]: "+07" time_zone_designation 0x21c-0x21f.7 (4)
     |                                               |                |    leap_second_records[0:27]: 0x220-0x363.7 (324)
     |                                               |                |      [0]{}: leap_second_record 0x220-0x22b.7 (12)
0x220|00 00 00 00 04 b2 58 00                        |......X.        |        occur: "1972-07-01T00:00:00Z" (78796800) 0x220-0x227.7 (8)
0x220|                        00 00 00 01            |        ....    |        corr: 1 0x228-0x22b.7 (4)
     |                                               |                |      [1]{}: leap_second_record 0x22c-0x237.7 (12)
0x220|                                    00 00 00 00|            ....|        occur: "1973-01-01T00:00:01Z" (94694401) 0x22c-0x233.7 (8)
0x230|05 a4 ec 01                                    |....            |
0x230|            00 00 00 02                        |    ....        |        corr: 2 0x234-0x237.7 (4)
     |                                               |                |      [2]{}: leap_second_record 0x238-0x243.7 (12)
0x230|                        00 00 00 00 07 86 1f 82|        ........|        occur: "1974-01-01T00:00:02Z" (126230402) 0x238-0x23f.7 (8)
0x240|00 00 00 03                                    |....            |        corr: 3 0x240-0x243.7 (4)
     |                                               |                |      [3]{}: leap_second_record 0x244-0x24f.7 (12)
0x240|            00 00 00 00 09 67 53 03            |    .....gS.    |        occur: "1975-01-01T00:00:03Z" (157766403) 0x244-0x24b.7 (8)
0x240|                                    00 00 00 04|            ....|        corr: 4 0x24c-0x24f.7 (4)
     |                                               |                |      [4]{}: leap_second_record 0x250-0x25b.7 (12)
0x250|00 00 00 00 0b 48 86 84                        |.....H..        |        occur: "1976-01-01T00:00:04Z" (189302404) 0x250-0x257.7 (8)
0x250|                        00 00 00 05            |        ....    |        corr: 5 0x258-0x25b.7 (4)
     |                                               |                |      [5]{}: leap_second_record 0x25c-0x267.7 (12)
0x250|                                    00 00 00 00|            ....|        occur: "1977-01-01T00:00:05Z" (220924805) 0x25c-0x263.7 (8)
0x260|0d 2b 0b 85                                    |.+..            |
0x260|            00 00 00 06                        |    ....        |        corr: 6 0x264-0x267.7 (4)
     |                                               |                |      [6]{}: leap_second_record 0x268-0x273.7 (12)
0x260|                        00 00 00 00 0f 0c 3f 06|        ......?.|        occur: "1978-01-01T00:00:06Z" (252460806) 0x268-0x26f.7 (8)
0x270|00 00 00 07                                    |....            |        corr: 7 0x270-0x273.7 (4)
     |                                               |                |      [7]{}: leap_second_record 0x274-0x27f.7 (12)
0x270|            00 00 00 00 10 ed 72 87            |    ......r.    |        occur: "1979-01-01T00:00:07Z" (283996807) 0x274-0x27b.7 (8)
0x270|                                    00 00 00 08|            ....|        corr: 8 0x27c-0x27f.7 (4)
     |                                               |                |      [8]{}: leap_second_record 0x280-0x28b.7 (12)
0x280|00 00 00 00 12 ce a6 08                        |........        |        occur: "1980-01-01T00:00:08Z" (315532808) 0x280-0x287.7 (8)
0x280|                        00 00 00 09            |        ....    |        corr: 9 0x288-0x28b.7 (4)
     |                                               |                |      [9]{}: leap_second_record 0x28c-0x297.7 (12)
0x280|                                    00 00 00 00|            ....|        occur: "1981-07-01T00:00:09Z" (362793609) 0x28c-0x293.7 (8)
0x290|15 9f ca 89                                    |....            |
0x290|            00 00 00 0a                        |    ....        |        corr: 10 0x294-0x297.7 (4)
     |                                               |                |      [10]{}: leap_second_record 0x298-0x2a3.7 (12)
0x290|                        00 00 00 00 17 80 fe 0a|        ........|        occur: "1982-07-01T00:00:10Z" (394329610) 0x298-0x29f.7 (8)
0x2a0|00 00 00 0b                                    |....            |        corr: 11 0x2a0-0x2a3.7 (4)
     |                                               |                |      [11]{}: leap_second_record 0x2a4-0x2af.7 (12)
0x2a0|            00 00 00 00 19 62 31 8b            |    .....b1.    |        occur: "1983-07-01T00:00:11Z" (425865611) 0x2a4-0x2ab.7 (8)
0x2a0|                                    00 00 00 0c|            ....|        corr: 12 0x2ac-0x2af.7 (4)
     |                                               |                |      [12]{}: leap_second_record 0x2b0-0x2bb.7 (12)
0x2b0|00 00 00 00 1d 25 ea 0c                        |.....%..        |        occur: "1985-07-01T00:00:12Z" (489024012) 0x2b0-0x2b7.7 (8)
0x2b0|                        00 00 00 0d            |        ....    |        corr: 13 0x2b8-0x2bb.7 (4)
     |                                               |                |      [13]{}: leap_second_record 0x2bc-0x2c7.7 (12)
0x2b0|                                    00 00 00 00|            ....|        occur: "1988-01-01T00:00:13Z" (567993613) 0x2bc-0x2c3.7 (8)
0x2c0|21 da e5 0d                                    |!...            |
0x2c0|            00 00 00 0e                        |    ....        |        corr: 14 0x2c4-0x2c7.7 (4)
     |                                               |                |      [14]{}: leap_second_record 0x2c8-0x2d3.7 (12)
0x2c0|                        00 00 00 00 25 9e 9d 8e|        ....%...|        occur: "1990-01-01T00:00:14Z" (631152014) 0x2c8-0x2cf.7 (8)
0x2d0|00 00 00 0f                                    |....            |        corr: 15 0x2d0-0x2d3.7 (4)
     |                                               |                |      [15]{}: leap_second_record 0x2d4-0x2df.7 (12)
0x2d0|            00 00 00 00 27 7f d1 0f            |    ....'...    |        occur: "1991-01-01T00:00:15Z" (662688015) 0x2d4-0x2db.7 (8)
0x2d0|                                    00 00 00 10|            ....|        corr: 16 0x2dc-0x2df.7 (4)
     |                                               |                |      [16]{}: leap_second_record 0x2e0-0x2eb.7 (12)
0x2e0|00 00 00 00 2a 50 f5 90                        |....*P..        |        occur: "1992-07-01T00:00:16Z" (709948816) 0x2e0-0x2e7.7 (8)
0x2e0|                        00 00 00 11            |        ....    |        corr: 17 0x2e8-0x2eb.7 (4)
     |                                               |                |      [17]{}: leap_second_record 0x2ec-0x2f7.7 (12)
0x2e0|                                    00 00 00 00|            ....|        occur: "1993-07-01T00:00:17Z" (741484817) 0x2ec-0x2f3.7 (8)
0x2f0|2c 32 29 11                                    |,2).            |
0x2f0|            00 00 00 12                        |    ....        |        corr: 18 0x2f4-0x2f7.7 (4)
     |                                               |                |      [18]{}: leap_second_record 0x2f8-0x303.7 (12)
0x2f0|                        00 00 00 00 2e 13 5c 92|        ......\.|        occur: "1994-07-01T00:00:18Z" (773020818) 0x2f8-0x2ff.7 (8)
0x300|00 00 00 13                                    |....            |        corr: 19 0x300-0x303.7 (4)
     |                                               |                |      [19]{}: leap_second_record 0x304-0x30f.7 (12)
0x300|            00 00 00 00 30 e7 24 13            |    ....0.$.    |        occur: "1996-01-01T00:00:19Z" (820454419) 0x304-0x30b.7 (8)
0x300|                                    00 00 00 14|            ....|        corr: 20 0x30c-0x30f.7 (4)
     |                                               |                |      [20]{}: leap_second_record 0x310-0x31b.7 (12)
0x310|00 00 00 00 33 b8 48 94                        |....3.H.        |        occur: "1997-07-01T00:00:20Z" (867715220) 0x310-0x317.7 (8)
0x310|                        00 00 00 15            |        ....    |        corr: 21 0x318-0x31b.7 (4)
     |                                               |                |      [21]{}: leap_second_record 0x31c-0x327.7 (12)
0x310|                                    00 00 00 00|            ....|        occur: "1999-01-01T00:00:21Z" (915148821) 0x31c-0x323.7 (8)
0x320|36 8c 10 15                                    |6...            |
0x320|            00 00 00 16                        |    ....        |        corr: 22 0x324-0x327.7 (4)
     |                                               |                |      [22]{}: leap_second_record 0x328-0x333.7 (12)
0x320|                        00 00 00 00 43 b7 1b 96|        ....C...|        occur: "2006-01-01T00:00:22Z" (1136073622) 0x328-0x32f.7 (8)
0x330|00 00 00 17                                    |....            |        corr: 23 0x330-0x333.7 (4)
     |                                               |                |      [23]{}: leap_second_record 0x334-0x33f.7 (12)
0x330|            00 00 00 00 49 5c 07 97            |    ....I\..    |        occur: "2009-01-01T00:00:23Z" (1230768023) 0x334-0x33b.7 (8)
0x330|                                    00 00 00 18|            ....|        corr: 24 0x33c-0x33f.7 (4)
     |                                               |                |      [24]{}: leap_second_record 0x340-0x34b.7 (12)
0x340|00 00 00 00 4f ef 93 18                        |....O...        |        occur: "2012-07-01T00:00:24Z" (1341100824) 0x340-0x347.7 (8)
0x340|                        00 00 00 19            |        ....    |        corr: 25 0x348-0x34b.7 (4)
     |                                               |                |      [25]{}: leap_second_record 0x34c-0x357.7 (12)
0x340|                                    00 00 00 00|            ....|        occur: "2015-07-01T00:00:25Z" (1435708825) 0x34c-0x353.7 (8)
0x350|55 93 2d 99                                    |U.-.            |
0x350|            00 00 00 1a                        |    ....        |        corr: 26 0x354-0x357.7 (4)
     |                                               |                |      [26]{}: leap_second_record 0x358-0x363.7 (12)
0x350|                        00 00 00 00 58 68 46 9a|        ....XhF.|        occur: "2017-01-01T00:00:26Z" (1483228826) 0x358-0x35f.7 (8)
0x360|00 00 00 1b                                    |....            |        corr: 27 0x360-0x363.7 (4)
     |                                               |                |    standard_wall_indicators[0:0]: 0x364-NA (0)
     |                                               |                |    ut_local_indicators[0:0]: 0x364-NA (0)
     |                                               |                |  footer{}: 0x364-0x365.7 (2)
0x360|            0a                                 |    .           |    nl1: 10 (valid) 0x364-0x364.7 (1)
     |                                               |                |    tz_string: "" 0x365-NA (0)
0x360|               0a|                             |     .|         |    nl2: 10 (valid) 0x365-0x365.7 (1)
