$ fq -d tzif dv Dhaka
     |00 01 02 03 04 05 06 07 08 09 0a 0b 0c 0d 0e 0f|0123456789abcdef|.{}: Dhaka (tzif) 0x0-0x366 (870)
     |                                               |                |  v1header{}: 0x0-0x2c (44)
0x000|54 5a 69 66                                    |TZif            |    magic: 0x545a6966 (valid) 0x0-0x4 (4)
0x000|            32                                 |    2           |    ver: "2" (0x32) (valid) 0x4-0x5 (1)
0x000|               00 00 00 00 00 00 00 00 00 00 00|     ...........|    reserved: raw bits 0x5-0x14 (15)
0x010|00 00 00 00                                    |....            |
0x010|            00 00 00 00                        |    ....        |    isutcnt: 0 0x14-0x18 (4)
0x010|                        00 00 00 00            |        ....    |    isstdcnt: 0 0x18-0x1c (4)
0x010|                                    00 00 00 1b|            ....|    leapcnt: 27 0x1c-0x20 (4)
0x020|00 00 00 08                                    |....            |    timecnt: 8 0x20-0x24 (4)
0x020|            00 00 00 06                        |    ....        |    typecnt: 6 0x24-0x28 (4)
0x020|                        00 00 00 1c            |        ....    |    charcnt: 28 0x28-0x2c (4)
     |                                               |                |  v1datablock{}: 0x2c-0x16c (320)
     |                                               |                |    transition_times[0:8]: 0x2c-0x4c (32)
0x020|                                    80 00 00 00|            ....|      [0]: "1901-12-13T20:45:52Z" (-2147483648) transition_time 0x2c-0x30 (4)
0x030|ca db 86 b0                                    |....            |      [1]: "1941-09-30T18:06:40Z" (-891582800) transition_time 0x30-0x34 (4)
0x030|            cc 05 71 18                        |    ..q.        |      [2]: "1942-05-14T17:30:00Z" (-872058600) transition_time 0x34-0x38 (4)
0x030|                        cc 95 32 a8            |        ..2.    |      [3]: "1942-08-31T18:30:00Z" (-862637400) transition_time 0x38-0x3c (4)
0x030|                                    dd a8 d2 98|            ....|      [4]: "1951-09-29T17:30:00Z" (-576138600) transition_time 0x3c-0x40 (4)
0x040|4a 3b c4 28                                    |J;.(            |      [5]: "2009-06-19T17:00:24Z" (1245430824) transition_time 0x40-0x44 (4)
0x040|            4b 3c d8 a8                        |    K<..        |      [6]: "2009-12-31T17:00:24Z" (1262278824) transition_time 0x44-0x48 (4)
0x040|                        64 9b 78 1b            |        d.x.    |      [7]: "2023-06-28T00:00:27Z" (1687910427) transition_time 0x48-0x4c (4)
     |                                               |                |    transition_types[0:8]: 0x4c-0x54 (8)
0x040|                                    01         |            .   |      [0]: 1 transition_type 0x4c-0x4d (1)
0x040|                                       02      |             .  |      [1]: 2 transition_type 0x4d-0x4e (1)
0x040|                                          03   |              . |      [2]: 3 transition_type 0x4e-0x4f (1)
0x040|                                             02|               .|      [3]: 2 transition_type 0x4f-0x50 (1)
0x050|04                                             |.               |      [4]: 4 transition_type 0x50-0x51 (1)
0x050|   05                                          | .              |      [5]: 5 transition_type 0x51-0x52 (1)
0x050|      04                                       |  .             |      [6]: 4 transition_type 0x52-0x53 (1)
0x050|         04                                    |   .            |      [7]: 4 transition_type 0x53-0x54 (1)
     |                                               |                |    local_time_type_records[0:6]: 0x54-0x78 (36)
     |                                               |                |      [0]{}: local_time_type 0x54-0x5a (6)
0x050|            00 00 54 c4                        |    ..T.        |        utoff: 21700 (valid) 0x54-0x58 (4)
0x050|                        00                     |        .       |        dst: 0 (valid) 0x58-0x59 (1)
0x050|                           00                  |         .      |        idx: 0 (valid) 0x59-0x5a (1)
     |                                               |                |      [1]{}: local_time_type 0x5a-0x60 (6)
0x050|                              00 00 52 d0      |          ..R.  |        utoff: 21200 (valid) 0x5a-0x5e (4)
0x050|                                          00   |              . |        dst: 0 (valid) 0x5e-0x5f (1)
0x050|                                             04|               .|        idx: 4 (valid) 0x5f-0x60 (1)
     |                                               |                |      [2]{}: local_time_type 0x60-0x66 (6)
0x060|00 00 5b 68                                    |..[h            |        utoff: 23400 (valid) 0x60-0x64 (4)
0x060|            00                                 |    .           |        dst: 0 (valid) 0x64-0x65 (1)
0x060|               08                              |     .          |        idx: 8 (valid) 0x65-0x66 (1)
     |                                               |                |      [3]{}: local_time_type 0x66-0x6c (6)
0x060|                  00 00 4d 58                  |      ..MX      |        utoff: 19800 (valid) 0x66-0x6a (4)
0x060|                              00               |          .     |        dst: 0 (valid) 0x6a-0x6b (1)
0x060|                                 0e            |           .    |        idx: 14 (valid) 0x6b-0x6c (1)
     |                                               |                |      [4]{}: local_time_type 0x6c-0x72 (6)
0x060|                                    00 00 54 60|            ..T`|        utoff: 21600 (valid) 0x6c-0x70 (4)
0x070|00                                             |.               |        dst: 0 (valid) 0x70-0x71 (1)
0x070|   14                                          | .              |        idx: 20 (valid) 0x71-0x72 (1)
     |                                               |                |      [5]{}: local_time_type 0x72-0x78 (6)
0x070|      00 00 62 70                              |  ..bp          |        utoff: 25200 (valid) 0x72-0x76 (4)
0x070|                  01                           |      .         |        dst: 1 (valid) 0x76-0x77 (1)
0x070|                     18                        |       .        |        idx: 24 (valid) 0x77-0x78 (1)
     |                                               |                |    time_zone_designations[0:6]: 0x78-0x94 (28)
0x070|                        4c 4d 54 00            |        LMT.    |      [0]: "LMT" time_zone_designation 0x78-0x7c (4)
0x070|                                    48 4d 54 00|            HMT.|      [1]: "HMT" time_zone_designation 0x7c-0x80 (4)
0x080|2b 30 36 33 30 00                              |+0630.          |      [2]: "+0630" time_zone_designation 0x80-0x86 (6)
0x080|                  2b 30 35 33 30 00            |      +0530.    |      [3]: "+0530" time_zone_designation 0x86-0x8c (6)
0x080|                                    2b 30 36 00|            +06.|      [4]: "+06" time_zone_designation 0x8c-0x90 (4)
0x090|2b 30 37 00                                    |+07.            |      [5]: "+07" time_zone_designation 0x90-0x94 (4)
     |                                               |                |    leap_second_records[0:27]: 0x94-0x16c (216)
     |                                               |                |      [0]{}: leap_second_record 0x94-0x9c (8)
0x090|            04 b2 58 00                        |    ..X.        |        occur: "1972-07-01T00:00:00Z" (78796800) 0x94-0x98 (4)
0x090|                        00 00 00 01            |        ....    |        corr: 1 0x98-0x9c (4)
     |                                               |                |      [1]{}: leap_second_record 0x9c-0xa4 (8)
0x090|                                    05 a4 ec 01|            ....|        occur: "1973-01-01T00:00:01Z" (94694401) 0x9c-0xa0 (4)
0x0a0|00 00 00 02                                    |....            |        corr: 2 0xa0-0xa4 (4)
     |                                               |                |      [2]{}: leap_second_record 0xa4-0xac (8)
0x0a0|            07 86 1f 82                        |    ....        |        occur: "1974-01-01T00:00:02Z" (126230402) 0xa4-0xa8 (4)
0x0a0|                        00 00 00 03            |        ....    |        corr: 3 0xa8-0xac (4)
     |                                               |                |      [3]{}: leap_second_record 0xac-0xb4 (8)
0x0a0|                                    09 67 53 03|            .gS.|        occur: "1975-01-01T00:00:03Z" (157766403) 0xac-0xb0 (4)
0x0b0|00 00 00 04                                    |....            |        corr: 4 0xb0-0xb4 (4)
     |                                               |                |      [4]{}: leap_second_record 0xb4-0xbc (8)
0x0b0|            0b 48 86 84                        |    .H..        |        occur: "1976-01-01T00:00:04Z" (189302404) 0xb4-0xb8 (4)
0x0b0|                        00 00 00 05            |        ....    |        corr: 5 0xb8-0xbc (4)
     |                                               |                |      [5]{}: leap_second_record 0xbc-0xc4 (8)
0x0b0|                                    0d 2b 0b 85|            .+..|        occur: "1977-01-01T00:00:05Z" (220924805) 0xbc-0xc0 (4)
0x0c0|00 00 00 06                                    |....            |        corr: 6 0xc0-0xc4 (4)
     |                                               |                |      [6]{}: leap_second_record 0xc4-0xcc (8)
0x0c0|            0f 0c 3f 06                        |    ..?.        |        occur: "1978-01-01T00:00:06Z" (252460806) 0xc4-0xc8 (4)
0x0c0|                        00 00 00 07            |        ....    |        corr: 7 0xc8-0xcc (4)
     |                                               |                |      [7]{}: leap_second_record 0xcc-0xd4 (8)
0x0c0|                                    10 ed 72 87|            ..r.|        occur: "1979-01-01T00:00:07Z" (283996807) 0xcc-0xd0 (4)
0x0d0|00 00 00 08                                    |....            |        corr: 8 0xd0-0xd4 (4)
     |                                               |                |      [8]{}: leap_second_record 0xd4-0xdc (8)
0x0d0|            12 ce a6 08                        |    ....        |        occur: "1980-01-01T00:00:08Z" (315532808) 0xd4-0xd8 (4)
0x0d0|                        00 00 00 09            |        ....    |        corr: 9 0xd8-0xdc (4)
     |                                               |                |      [9]{}: leap_second_record 0xdc-0xe4 (8)
0x0d0|                                    15 9f ca 89|            ....|        occur: "1981-07-01T00:00:09Z" (362793609) 0xdc-0xe0 (4)
0x0e0|00 00 00 0a                                    |....            |        corr: 10 0xe0-0xe4 (4)
     |                                               |                |      [10]{}: leap_second_record 0xe4-0xec (8)
0x0e0|            17 80 fe 0a                        |    ....        |        occur: "1982-07-01T00:00:10Z" (394329610) 0xe4-0xe8 (4)
0x0e0|                        00 00 00 0b            |        ....    |        corr: 11 0xe8-0xec (4)
     |                                               |                |      [11]{}: leap_second_record 0xec-0xf4 (8)
0x0e0|                                    19 62 31 8b|            .b1.|        occur: "1983-07-01T00:00:11Z" (425865611) 0xec-0xf0 (4)
0x0f0|00 00 00 0c                                    |....            |        corr: 12 0xf0-0xf4 (4)
     |                                               |                |      [12]{}: leap_second_record 0xf4-0xfc (8)
0x0f0|            1d 25 ea 0c                        |    .%..        |        occur: "1985-07-01T00:00:12Z" (489024012) 0xf4-0xf8 (4)
0x0f0|                        00 00 00 0d            |        ....    |        corr: 13 0xf8-0xfc (4)
     |                                               |                |      [13]{}: leap_second_record 0xfc-0x104 (8)
0x0f0|                                    21 da e5 0d|            !...|        occur: "1988-01-01T00:00:13Z" (567993613) 0xfc-0x100 (4)
0x100|00 00 00 0e                                    |....            |        corr: 14 0x100-0x104 (4)
     |                                               |                |      [14]{}: leap_second_record 0x104-0x10c (8)
0x100|            25 9e 9d 8e                        |    %...        |        occur: "1990-01-01T00:00:14Z" (631152014) 0x104-0x108 (4)
0x100|                        00 00 00 0f            |        ....    |        corr: 15 0x108-0x10c (4)
     |                                               |                |      [15]{}: leap_second_record 0x10c-0x114 (8)
0x100|                                    27 7f d1 0f|            '...|        occur: "1991-01-01T00:00:15Z" (662688015) 0x10c-0x110 (4)
0x110|00 00 00 10                                    |....            |        corr: 16 0x110-0x114 (4)
     |                                               |                |      [16]{}: leap_second_record 0x114-0x11c (8)
0x110|            2a 50 f5 90                        |    *P..        |        occur: "1992-07-01T00:00:16Z" (709948816) 0x114-0x118 (4)
0x110|                        00 00 00 11            |        ....    |        corr: 17 0x118-0x11c (4)
     |                                               |                |      [17]{}: leap_second_record 0x11c-0x124 (8)
0x110|                                    2c 32 29 11|            ,2).|        occur: "1993-07-01T00:00:17Z" (741484817) 0x11c-0x120 (4)
0x120|00 00 00 12                                    |....            |        corr: 18 0x120-0x124 (4)
     |                                               |                |      [18]{}: leap_second_record 0x124-0x12c (8)
0x120|            2e 13 5c 92                        |    ..\.        |        occur: "1994-07-01T00:00:18Z" (773020818) 0x124-0x128 (4)
0x120|                        00 00 00 13            |        ....    |        corr: 19 0x128-0x12c (4)
     |                                               |                |      [19]{}: leap_second_record 0x12c-0x134 (8)
0x120|                                    30 e7 24 13|            0.$.|        occur: "1996-01-01T00:00:19Z" (820454419) 0x12c-0x130 (4)
0x130|00 00 00 14                                    |....            |        corr: 20 0x130-0x134 (4)
     |                                               |                |      [20]{}: leap_second_record 0x134-0x13c (8)
0x130|            33 b8 48 94                        |    3.H.        |        occur: "1997-07-01T00:00:20Z" (867715220) 0x134-0x138 (4)
0x130|                        00 00 00 15            |        ....    |        corr: 21 0x138-0x13c (4)
     |                                               |                |      [21]{}: leap_second_record 0x13c-0x144 (8)
0x130|                                    36 8c 10 15|            6...|        occur: "1999-01-01T00:00:21Z" (915148821) 0x13c-0x140 (4)
0x140|00 00 00 16                                    |....            |        corr: 22 0x140-0x144 (4)
     |                                               |                |      [22]{}: leap_second_record 0x144-0x14c (8)
0x140|            43 b7 1b 96                        |    C...        |        occur: "2006-01-01T00:00:22Z" (1136073622) 0x144-0x148 (4)
0x140|                        00 00 00 17            |        ....    |        corr: 23 0x148-0x14c (4)
     |                                               |                |      [23]{}: leap_second_record 0x14c-0x154 (8)
0x140|                                    49 5c 07 97|            I\..|        occur: "2009-01-01T00:00:23Z" (1230768023) 0x14c-0x150 (4)
0x150|00 00 00 18                                    |....            |        corr: 24 0x150-0x154 (4)
     |                                               |                |      [24]{}: leap_second_record 0x154-0x15c (8)
0x150|            4f ef 93 18                        |    O...        |        occur: "2012-07-01T00:00:24Z" (1341100824) 0x154-0x158 (4)
0x150|                        00 00 00 19            |        ....    |        corr: 25 0x158-0x15c (4)
     |                                               |                |      [25]{}: leap_second_record 0x15c-0x164 (8)
0x150|                                    55 93 2d 99|            U.-.|        occur: "2015-07-01T00:00:25Z" (1435708825) 0x15c-0x160 (4)
0x160|00 00 00 1a                                    |....            |        corr: 26 0x160-0x164 (4)
     |                                               |                |      [26]{}: leap_second_record 0x164-0x16c (8)
0x160|            58 68 46 9a                        |    XhF.        |        occur: "2017-01-01T00:00:26Z" (1483228826) 0x164-0x168 (4)
0x160|                        00 00 00 1b            |        ....    |        corr: 27 0x168-0x16c (4)
     |                                               |                |    standard_wall_indicators[0:0]: 0x16c-0x16c (0)
     |                                               |                |    ut_local_indicators[0:0]: 0x16c-0x16c (0)
     |                                               |                |  v2plusheader{}: 0x16c-0x198 (44)
0x160|                                    54 5a 69 66|            TZif|    magic: 0x545a6966 (valid) 0x16c-0x170 (4)
0x170|32                                             |2               |    ver: "2" (0x32) (valid) 0x170-0x171 (1)
0x170|   00 00 00 00 00 00 00 00 00 00 00 00 00 00 00| ...............|    reserved: raw bits 0x171-0x180 (15)
0x180|00 00 00 00                                    |....            |    isutcnt: 0 0x180-0x184 (4)
0x180|            00 00 00 00                        |    ....        |    isstdcnt: 0 0x184-0x188 (4)
0x180|                        00 00 00 1b            |        ....    |    leapcnt: 27 0x188-0x18c (4)
0x180|                                    00 00 00 08|            ....|    timecnt: 8 0x18c-0x190 (4)
0x190|00 00 00 06                                    |....            |    typecnt: 6 0x190-0x194 (4)
0x190|            00 00 00 1c                        |    ....        |    charcnt: 28 0x194-0x198 (4)
     |                                               |                |  v2plusdatablock{}: 0x198-0x364 (460)
     |                                               |                |    transition_times[0:8]: 0x198-0x1d8 (64)
0x190|                        ff ff ff ff 69 86 86 bc|        ....i...|      [0]: "1889-12-31T17:58:20Z" (-2524543300) transition_time 0x198-0x1a0 (8)
0x1a0|ff ff ff ff ca db 86 b0                        |........        |      [1]: "1941-09-30T18:06:40Z" (-891582800) transition_time 0x1a0-0x1a8 (8)
0x1a0|                        ff ff ff ff cc 05 71 18|        ......q.|      [2]: "1942-05-14T17:30:00Z" (-872058600) transition_time 0x1a8-0x1b0 (8)
0x1b0|ff ff ff ff cc 95 32 a8                        |......2.        |      [3]: "1942-08-31T18:30:00Z" (-862637400) transition_time 0x1b0-0x1b8 (8)
0x1b0|                        ff ff ff ff dd a8 d2 98|        ........|      [4]: "1951-09-29T17:30:00Z" (-576138600) transition_time 0x1b8-0x1c0 (8)
0x1c0|00 00 00 00 4a 3b c4 28                        |....J;.(        |      [5]: "2009-06-19T17:00:24Z" (1245430824) transition_time 0x1c0-0x1c8 (8)
0x1c0|                        00 00 00 00 4b 3c d8 a8|        ....K<..|      [6]: "2009-12-31T17:00:24Z" (1262278824) transition_time 0x1c8-0x1d0 (8)
0x1d0|00 00 00 00 64 9b 78 1b                        |....d.x.        |      [7]: "2023-06-28T00:00:27Z" (1687910427) transition_time 0x1d0-0x1d8 (8)
     |                                               |                |    transition_types[0:8]: 0x1d8-0x1e0 (8)
0x1d0|                        01                     |        .       |      [0]: 1 transition_type 0x1d8-0x1d9 (1)
0x1d0|                           02                  |         .      |      [1]: 2 transition_type 0x1d9-0x1da (1)
0x1d0|                              03               |          .     |      [2]: 3 transition_type 0x1da-0x1db (1)
0x1d0|                                 02            |           .    |      [3]: 2 transition_type 0x1db-0x1dc (1)
0x1d0|                                    04         |            .   |      [4]: 4 transition_type 0x1dc-0x1dd (1)
0x1d0|                                       05      |             .  |      [5]: 5 transition_type 0x1dd-0x1de (1)
0x1d0|                                          04   |              . |      [6]: 4 transition_type 0x1de-0x1df (1)
0x1d0|                                             04|               .|      [7]: 4 transition_type 0x1df-0x1e0 (1)
     |                                               |                |    local_time_type_records[0:6]: 0x1e0-0x204 (36)
     |                                               |                |      [0]{}: local_time_type 0x1e0-0x1e6 (6)
0x1e0|00 00 54 c4                                    |..T.            |        utoff: 21700 (valid) 0x1e0-0x1e4 (4)
0x1e0|            00                                 |    .           |        dst: 0 (valid) 0x1e4-0x1e5 (1)
0x1e0|               00                              |     .          |        idx: 0 (valid) 0x1e5-0x1e6 (1)
     |                                               |                |      [1]{}: local_time_type 0x1e6-0x1ec (6)
0x1e0|                  00 00 52 d0                  |      ..R.      |        utoff: 21200 (valid) 0x1e6-0x1ea (4)
0x1e0|                              00               |          .     |        dst: 0 (valid) 0x1ea-0x1eb (1)
0x1e0|                                 04            |           .    |        idx: 4 (valid) 0x1eb-0x1ec (1)
     |                                               |                |      [2]{}: local_time_type 0x1ec-0x1f2 (6)
0x1e0|                                    00 00 5b 68|            ..[h|        utoff: 23400 (valid) 0x1ec-0x1f0 (4)
0x1f0|00                                             |.               |        dst: 0 (valid) 0x1f0-0x1f1 (1)
0x1f0|   08                                          | .              |        idx: 8 (valid) 0x1f1-0x1f2 (1)
     |                                               |                |      [3]{}: local_time_type 0x1f2-0x1f8 (6)
0x1f0|      00 00 4d 58                              |  ..MX          |        utoff: 19800 (valid) 0x1f2-0x1f6 (4)
0x1f0|                  00                           |      .         |        dst: 0 (valid) 0x1f6-0x1f7 (1)
0x1f0|                     0e                        |       .        |        idx: 14 (valid) 0x1f7-0x1f8 (1)
     |                                               |                |      [4]{}: local_time_type 0x1f8-0x1fe (6)
0x1f0|                        00 00 54 60            |        ..T`    |        utoff: 21600 (valid) 0x1f8-0x1fc (4)
0x1f0|                                    00         |            .   |        dst: 0 (valid) 0x1fc-0x1fd (1)
0x1f0|                                       14      |             .  |        idx: 20 (valid) 0x1fd-0x1fe (1)
     |                                               |                |      [5]{}: local_time_type 0x1fe-0x204 (6)
0x1f0|                                          00 00|              ..|        utoff: 25200 (valid) 0x1fe-0x202 (4)
0x200|62 70                                          |bp              |
0x200|      01                                       |  .             |        dst: 1 (valid) 0x202-0x203 (1)
0x200|         18                                    |   .            |        idx: 24 (valid) 0x203-0x204 (1)
     |                                               |                |    time_zone_designations[0:6]: 0x204-0x220 (28)
0x200|            4c 4d 54 00                        |    LMT.        |      [0]: "LMT" time_zone_designation 0x204-0x208 (4)
0x200|                        48 4d 54 00            |        HMT.    |      [1]: "HMT" time_zone_designation 0x208-0x20c (4)
0x200|                                    2b 30 36 33|            +063|      [2]: "+0630" time_zone_designation 0x20c-0x212 (6)
0x210|30 00                                          |0.              |
0x210|      2b 30 35 33 30 00                        |  +0530.        |      [3]: "+0530" time_zone_designation 0x212-0x218 (6)
0x210|                        2b 30 36 00            |        +06.    |      [4]: "+06" time_zone_designation 0x218-0x21c (4)
0x210|                                    2b 30 37 00|            +07.|      [5]: "+07" time_zone_designation 0x21c-0x220 (4)
     |                                               |                |    leap_second_records[0:27]: 0x220-0x364 (324)
     |                                               |                |      [0]{}: leap_second_record 0x220-0x22c (12)
0x220|00 00 00 00 04 b2 58 00                        |......X.        |        occur: "1972-07-01T00:00:00Z" (78796800) 0x220-0x228 (8)
0x220|                        00 00 00 01            |        ....    |        corr: 1 0x228-0x22c (4)
     |                                               |                |      [1]{}: leap_second_record 0x22c-0x238 (12)
0x220|                                    00 00 00 00|            ....|        occur: "1973-01-01T00:00:01Z" (94694401) 0x22c-0x234 (8)
0x230|05 a4 ec 01                                    |....            |
0x230|            00 00 00 02                        |    ....        |        corr: 2 0x234-0x238 (4)
     |                                               |                |      [2]{}: leap_second_record 0x238-0x244 (12)
0x230|                        00 00 00 00 07 86 1f 82|        ........|        occur: "1974-01-01T00:00:02Z" (126230402) 0x238-0x240 (8)
0x240|00 00 00 03                                    |....            |        corr: 3 0x240-0x244 (4)
     |                                               |                |      [3]{}: leap_second_record 0x244-0x250 (12)
0x240|            00 00 00 00 09 67 53 03            |    .....gS.    |        occur: "1975-01-01T00:00:03Z" (157766403) 0x244-0x24c (8)
0x240|                                    00 00 00 04|            ....|        corr: 4 0x24c-0x250 (4)
     |                                               |                |      [4]{}: leap_second_record 0x250-0x25c (12)
0x250|00 00 00 00 0b 48 86 84                        |.....H..        |        occur: "1976-01-01T00:00:04Z" (189302404) 0x250-0x258 (8)
0x250|                        00 00 00 05            |        ....    |        corr: 5 0x258-0x25c (4)
     |                                               |                |      [5]{}: leap_second_record 0x25c-0x268 (12)
0x250|                                    00 00 00 00|            ....|        occur: "1977-01-01T00:00:05Z" (220924805) 0x25c-0x264 (8)
0x260|0d 2b 0b 85                                    |.+..            |
0x260|            00 00 00 06                        |    ....        |        corr: 6 0x264-0x268 (4)
     |                                               |                |      [6]{}: leap_second_record 0x268-0x274 (12)
0x260|                        00 00 00 00 0f 0c 3f 06|        ......?.|        occur: "1978-01-01T00:00:06Z" (252460806) 0x268-0x270 (8)
0x270|00 00 00 07                                    |....            |        corr: 7 0x270-0x274 (4)
     |                                               |                |      [7]{}: leap_second_record 0x274-0x280 (12)
0x270|            00 00 00 00 10 ed 72 87            |    ......r.    |        occur: "1979-01-01T00:00:07Z" (283996807) 0x274-0x27c (8)
0x270|                                    00 00 00 08|            ....|        corr: 8 0x27c-0x280 (4)
     |                                               |                |      [8]{}: leap_second_record 0x280-0x28c (12)
0x280|00 00 00 00 12 ce a6 08                        |........        |        occur: "1980-01-01T00:00:08Z" (315532808) 0x280-0x288 (8)
0x280|                        00 00 00 09            |        ....    |        corr: 9 0x288-0x28c (4)
     |                                               |                |      [9]{}: leap_second_record 0x28c-0x298 (12)
0x280|                                    00 00 00 00|            ....|        occur: "1981-07-01T00:00:09Z" (362793609) 0x28c-0x294 (8)
0x290|15 9f ca 89                                    |....            |
0x290|            00 00 00 0a                        |    ....        |        corr: 10 0x294-0x298 (4)
     |                                               |                |      [10]{}: leap_second_record 0x298-0x2a4 (12)
0x290|                        00 00 00 00 17 80 fe 0a|        ........|        occur: "1982-07-01T00:00:10Z" (394329610) 0x298-0x2a0 (8)
0x2a0|00 00 00 0b                                    |....            |        corr: 11 0x2a0-0x2a4 (4)
     |                                               |                |      [11]{}: leap_second_record 0x2a4-0x2b0 (12)
0x2a0|            00 00 00 00 19 62 31 8b            |    .....b1.    |        occur: "1983-07-01T00:00:11Z" (425865611) 0x2a4-0x2ac (8)
0x2a0|                                    00 00 00 0c|            ....|        corr: 12 0x2ac-0x2b0 (4)
     |                                               |                |      [12]{}: leap_second_record 0x2b0-0x2bc (12)
0x2b0|00 00 00 00 1d 25 ea 0c                        |.....%..        |        occur: "1985-07-01T00:00:12Z" (489024012) 0x2b0-0x2b8 (8)
0x2b0|                        00 00 00 0d            |        ....    |        corr: 13 0x2b8-0x2bc (4)
     |                                               |                |      [13]{}: leap_second_record 0x2bc-0x2c8 (12)
0x2b0|                                    00 00 00 00|            ....|        occur: "1988-01-01T00:00:13Z" (567993613) 0x2bc-0x2c4 (8)
0x2c0|21 da e5 0d                                    |!...            |
0x2c0|            00 00 00 0e                        |    ....        |        corr: 14 0x2c4-0x2c8 (4)
     |                                               |                |      [14]{}: leap_second_record 0x2c8-0x2d4 (12)
0x2c0|                        00 00 00 00 25 9e 9d 8e|        ....%...|        occur: "1990-01-01T00:00:14Z" (631152014) 0x2c8-0x2d0 (8)
0x2d0|00 00 00 0f                                    |....            |        corr: 15 0x2d0-0x2d4 (4)
     |                                               |                |      [15]{}: leap_second_record 0x2d4-0x2e0 (12)
0x2d0|            00 00 00 00 27 7f d1 0f            |    ....'...    |        occur: "1991-01-01T00:00:15Z" (662688015) 0x2d4-0x2dc (8)
0x2d0|                                    00 00 00 10|            ....|        corr: 16 0x2dc-0x2e0 (4)
     |                                               |                |      [16]{}: leap_second_record 0x2e0-0x2ec (12)
0x2e0|00 00 00 00 2a 50 f5 90                        |....*P..        |        occur: "1992-07-01T00:00:16Z" (709948816) 0x2e0-0x2e8 (8)
0x2e0|                        00 00 00 11            |        ....    |        corr: 17 0x2e8-0x2ec (4)
     |                                               |                |      [17]{}: leap_second_record 0x2ec-0x2f8 (12)
0x2e0|                                    00 00 00 00|            ....|        occur: "1993-07-01T00:00:17Z" (741484817) 0x2ec-0x2f4 (8)
0x2f0|2c 32 29 11                                    |,2).            |
0x2f0|            00 00 00 12                        |    ....        |        corr: 18 0x2f4-0x2f8 (4)
     |                                               |                |      [18]{}: leap_second_record 0x2f8-0x304 (12)
0x2f0|                        00 00 00 00 2e 13 5c 92|        ......\.|        occur: "1994-07-01T00:00:18Z" (773020818) 0x2f8-0x300 (8)
0x300|00 00 00 13                                    |....            |        corr: 19 0x300-0x304 (4)
     |                                               |                |      [19]{}: leap_second_record 0x304-0x310 (12)
0x300|            00 00 00 00 30 e7 24 13            |    ....0.$.    |        occur: "1996-01-01T00:00:19Z" (820454419) 0x304-0x30c (8)
0x300|                                    00 00 00 14|            ....|        corr: 20 0x30c-0x310 (4)
     |                                               |                |      [20]{}: leap_second_record 0x310-0x31c (12)
0x310|00 00 00 00 33 b8 48 94                        |....3.H.        |        occur: "1997-07-01T00:00:20Z" (867715220) 0x310-0x318 (8)
0x310|                        00 00 00 15            |        ....    |        corr: 21 0x318-0x31c (4)
     |                                               |                |      [21]{}: leap_second_record 0x31c-0x328 (12)
0x310|                                    00 00 00 00|            ....|        occur: "1999-01-01T00:00:21Z" (915148821) 0x31c-0x324 (8)
0x320|36 8c 10 15                                    |6...            |
0x320|            00 00 00 16                        |    ....        |        corr: 22 0x324-0x328 (4)
     |                                               |                |      [22]{}: leap_second_record 0x328-0x334 (12)
0x320|                        00 00 00 00 43 b7 1b 96|        ....C...|        occur: "2006-01-01T00:00:22Z" (1136073622) 0x328-0x330 (8)
0x330|00 00 00 17                                    |....            |        corr: 23 0x330-0x334 (4)
     |                                               |                |      [23]{}: leap_second_record 0x334-0x340 (12)
0x330|            00 00 00 00 49 5c 07 97            |    ....I\..    |        occur: "2009-01-01T00:00:23Z" (1230768023) 0x334-0x33c (8)
0x330|                                    00 00 00 18|            ....|        corr: 24 0x33c-0x340 (4)
     |                                               |                |      [24]{}: leap_second_record 0x340-0x34c (12)
0x340|00 00 00 00 4f ef 93 18                        |....O...        |        occur: "2012-07-01T00:00:24Z" (1341100824) 0x340-0x348 (8)
0x340|                        00 00 00 19            |        ....    |        corr: 25 0x348-0x34c (4)
     |                                               |                |      [25]{}: leap_second_record 0x34c-0x358 (12)
0x340|                                    00 00 00 00|            ....|        occur: "2015-07-01T00:00:25Z" (1435708825) 0x34c-0x354 (8)
0x350|55 93 2d 99                                    |U.-.            |
0x350|            00 00 00 1a                        |    ....        |        corr: 26 0x354-0x358 (4)
     |                                               |                |      [26]{}: leap_second_record 0x358-0x364 (12)
0x350|                        00 00 00 00 58 68 46 9a|        ....XhF.|        occur: "2017-01-01T00:00:26Z" (1483228826) 0x358-0x360 (8)
0x360|00 00 00 1b                                    |....            |        corr: 27 0x360-0x364 (4)
     |                                               |                |    standard_wall_indicators[0:0]: 0x364-0x364 (0)
     |                                               |                |    ut_local_indicators[0:0]: 0x364-0x364 (0)
     |                                               |                |  footer{}: 0x364-0x366 (2)
0x360|            0a                                 |    .           |    nl1: 10 (valid) 0x364-0x365 (1)
     |                                               |                |    tz_string: "" 0x365-0x365 (0)
0x360|               0a|                             |     .|         |    nl2: 10 (valid) 0x365-0x366 (1)
