$ fq -d tzif dv Dili
     |00 01 02 03 04 05 06 07 08 09 0a 0b 0c 0d 0e 0f|0123456789abcdef|.{}: Dili (tzif) 0x0-0x2f7.7 (760)
     |                                               |                |  v1header{}: 0x0-0x2b.7 (44)
0x000|54 5a 69 66                                    |TZif            |    magic: 0x545a6966 (valid) 0x0-0x3.7 (4)
0x000|            32                                 |    2           |    ver: "2" (0x32) (valid) 0x4-0x4.7 (1)
0x000|               00 00 00 00 00 00 00 00 00 00 00|     ...........|    reserved: raw bits 0x5-0x13.7 (15)
0x010|00 00 00 00                                    |....            |
0x010|            00 00 00 00                        |    ....        |    isutcnt: 0 0x14-0x17.7 (4)
0x010|                        00 00 00 00            |        ....    |    isstdcnt: 0 0x18-0x1b.7 (4)
0x010|                                    00 00 00 1b|            ....|    leapcnt: 27 0x1c-0x1f.7 (4)
0x020|00 00 00 05                                    |....            |    timecnt: 5 0x20-0x23.7 (4)
0x020|            00 00 00 03                        |    ....        |    typecnt: 3 0x24-0x27.7 (4)
0x020|                        00 00 00 0c            |        ....    |    charcnt: 12 0x28-0x2b.7 (4)
     |                                               |                |  v1datablock{}: 0x2c-0x13a.7 (271)
     |                                               |                |    transition_times[0:5]: 0x2c-0x3f.7 (20)
0x020|                                    92 e6 18 c4|            ....|      [0]: "1911-12-31T15:37:40Z" (-1830414140) transition_time 0x2c-0x2f.7 (4)
0x030|cb 99 32 f0                                    |..2.            |      [1]: "1942-02-21T15:00:00Z" (-879152400) transition_time 0x30-0x33.7 (4)
0x030|            0b ea 30 75                        |    ..0u        |      [2]: "1976-05-02T15:00:05Z" (199897205) transition_time 0x34-0x37.7 (4)
0x030|                        39 c3 99 16            |        9...    |      [3]: "2000-09-16T16:00:22Z" (969120022) transition_time 0x38-0x3b.7 (4)
0x030|                                    64 9b 78 1b|            d.x.|      [4]: "2023-06-28T00:00:27Z" (1687910427) transition_time 0x3c-0x3f.7 (4)
     |                                               |                |    transition_types[0:5]: 0x40-0x44.7 (5)
0x040|01                                             |.               |      [0]: 1 transition_type 0x40-0x40.7 (1)
0x040|   02                                          | .              |      [1]: 2 transition_type 0x41-0x41.7 (1)
0x040|      01                                       |  .             |      [2]: 1 transition_type 0x42-0x42.7 (1)
0x040|         02                                    |   .            |      [3]: 2 transition_type 0x43-0x43.7 (1)
0x040|            02                                 |    .           |      [4]: 2 transition_type 0x44-0x44.7 (1)
     |                                               |                |    local_time_type_records[0:3]: 0x45-0x56.7 (18)
     |                                               |                |      [0]{}: local_time_type 0x45-0x4a.7 (6)
0x040|               00 00 75 bc                     |     ..u.       |        utoff: 30140 (valid) 0x45-0x48.7 (4)
0x040|                           00                  |         .      |        dst: 0 (valid) 0x49-0x49.7 (1)
0x040|                              00               |          .     |        idx: 0 (valid) 0x4a-0x4a.7 (1)
     |                                               |                |      [1]{}: local_time_type 0x4b-0x50.7 (6)
0x040|                                 00 00 70 80   |           ..p. |        utoff: 28800 (valid) 0x4b-0x4e.7 (4)
0x040|                                             00|               .|        dst: 0 (valid) 0x4f-0x4f.7 (1)
0x050|04                                             |.               |        idx: 4 (valid) 0x50-0x50.7 (1)
     |                                               |                |      [2]{}: local_time_type 0x51-0x56.7 (6)
0x050|   00 00 7e 90                                 | ..~.           |        utoff: 32400 (valid) 0x51-0x54.7 (4)
0x050|               00                              |     .          |        dst: 0 (valid) 0x55-0x55.7 (1)
0x050|                  08                           |      .         |        idx: 8 (valid) 0x56-0x56.7 (1)
     |                                               |                |    time_zone_designations[0:3]: 0x57-0x62.7 (12)
0x050|                     4c 4d 54 00               |       LMT.     |      [0]: "LMT" time_zone_designation 0x57-0x5a.7 (4)
0x050|                                 2b 30 38 00   |           +08. |      [1]: "+08" time_zone_designation 0x5b-0x5e.7 (4)
0x050|                                             2b|               +|      [2]: "+09" time_zone_designation 0x5f-0x62.7 (4)
0x060|30 39 00                                       |09.             |
     |                                               |                |    leap_second_records[0:27]: 0x63-0x13a.7 (216)
     |                                               |                |      [0]{}: leap_second_record 0x63-0x6a.7 (8)
0x060|         04 b2 58 00                           |   ..X.         |        occur: "1972-07-01T00:00:00Z" (78796800) 0x63-0x66.7 (4)
0x060|                     00 00 00 01               |       ....     |        corr: 1 0x67-0x6a.7 (4)
     |                                               |                |      [1]{}: leap_second_record 0x6b-0x72.7 (8)
0x060|                                 05 a4 ec 01   |           .... |        occur: "1973-01-01T00:00:01Z" (94694401) 0x6b-0x6e.7 (4)
0x060|                                             00|               .|        corr: 2 0x6f-0x72.7 (4)
0x070|00 00 02                                       |...             |
     |                                               |                |      [2]{}: leap_second_record 0x73-0x7a.7 (8)
0x070|         07 86 1f 82                           |   ....         |        occur: "1974-01-01T00:00:02Z" (126230402) 0x73-0x76.7 (4)
0x070|                     00 00 00 03               |       ....     |        corr: 3 0x77-0x7a.7 (4)
     |                                               |                |      [3]{}: leap_second_record 0x7b-0x82.7 (8)
0x070|                                 09 67 53 03   |           .gS. |        occur: "1975-01-01T00:00:03Z" (157766403) 0x7b-0x7e.7 (4)
0x070|                                             00|               .|        corr: 4 0x7f-0x82.7 (4)
0x080|00 00 04                                       |...             |
     |                                               |                |      [4]{}: leap_second_record 0x83-0x8a.7 (8)
0x080|         0b 48 86 84                           |   .H..         |        occur: "1976-01-01T00:00:04Z" (189302404) 0x83-0x86.7 (4)
0x080|                     00 00 00 05               |       ....     |        corr: 5 0x87-0x8a.7 (4)
     |                                               |                |      [5]{}: leap_second_record 0x8b-0x92.7 (8)
0x080|                                 0d 2b 0b 85   |           .+.. |        occur: "1977-01-01T00:00:05Z" (220924805) 0x8b-0x8e.7 (4)
0x080|                                             00|               .|        corr: 6 0x8f-0x92.7 (4)
0x090|00 00 06                                       |...             |
     |                                               |                |      [6]{}: leap_second_record 0x93-0x9a.7 (8)
0x090|         0f 0c 3f 06                           |   ..?.         |        occur: "1978-01-01T00:00:06Z" (252460806) 0x93-0x96.7 (4)
0x090|                     00 00 00 07               |       ....     |        corr: 7 0x97-0x9a.7 (4)
     |                                               |                |      [7]{}: leap_second_record 0x9b-0xa2.7 (8)
0x090|                                 10 ed 72 87   |           ..r. |        occur: "1979-01-01T00:00:07Z" (283996807) 0x9b-0x9e.7 (4)
0x090|                                             00|               .|        corr: 8 0x9f-0xa2.7 (4)
0x0a0|00 00 08                                       |...             |
     |                                               |                |      [8]{}: leap_second_record 0xa3-0xaa.7 (8)
0x0a0|         12 ce a6 08                           |   ....         |        occur: "1980-01-01T00:00:08Z" (315532808) 0xa3-0xa6.7 (4)
0x0a0|                     00 00 00 09               |       ....     |        corr: 9 0xa7-0xaa.7 (4)
     |                                               |                |      [9]{}: leap_second_record 0xab-0xb2.7 (8)
0x0a0|                                 15 9f ca 89   |           .... |        occur: "1981-07-01T00:00:09Z" (362793609) 0xab-0xae.7 (4)
0x0a0|                                             00|               .|        corr: 10 0xaf-0xb2.7 (4)
0x0b0|00 00 0a                                       |...             |
     |                                               |                |      [10]{}: leap_second_record 0xb3-0xba.7 (8)
0x0b0|         17 80 fe 0a                           |   ....         |        occur: "1982-07-01T00:00:10Z" (394329610) 0xb3-0xb6.7 (4)
0x0b0|                     00 00 00 0b               |       ....     |        corr: 11 0xb7-0xba.7 (4)
     |                                               |                |      [11]{}: leap_second_record 0xbb-0xc2.7 (8)
0x0b0|                                 19 62 31 8b   |           .b1. |        occur: "1983-07-01T00:00:11Z" (425865611) 0xbb-0xbe.7 (4)
0x0b0|                                             00|               .|        corr: 12 0xbf-0xc2.7 (4)
0x0c0|00 00 0c                                       |...             |
     |                                               |                |      [12]{}: leap_second_record 0xc3-0xca.7 (8)
0x0c0|         1d 25 ea 0c                           |   .%..         |        occur: "1985-07-01T00:00:12Z" (489024012) 0xc3-0xc6.7 (4)
0x0c0|                     00 00 00 0d               |       ....     |        corr: 13 0xc7-0xca.7 (4)
     |                                               |                |      [13]{}: leap_second_record 0xcb-0xd2.7 (8)
0x0c0|                                 21 da e5 0d   |           !... |        occur: "1988-01-01T00:00:13Z" (567993613) 0xcb-0xce.7 (4)
0x0c0|                                             00|               .|        corr: 14 0xcf-0xd2.7 (4)
0x0d0|00 00 0e                                       |...             |
     |                                               |                |      [14]{}: leap_second_record 0xd3-0xda.7 (8)
0x0d0|         25 9e 9d 8e                           |   %...         |        occur: "1990-01-01T00:00:14Z" (631152014) 0xd3-0xd6.7 (4)
0x0d0|                     00 00 00 0f               |       ....     |        corr: 15 0xd7-0xda.7 (4)
     |                                               |                |      [15]{}: leap_second_record 0xdb-0xe2.7 (8)
0x0d0|                                 27 7f d1 0f   |           '... |        occur: "1991-01-01T00:00:15Z" (662688015) 0xdb-0xde.7 (4)
0x0d0|                                             00|               .|        corr: 16 0xdf-0xe2.7 (4)
0x0e0|00 00 10                                       |...             |
     |                                               |                |      [16]{}: leap_second_record 0xe3-0xea.7 (8)
0x0e0|         2a 50 f5 90                           |   *P..         |        occur: "1992-07-01T00:00:16Z" (709948816) 0xe3-0xe6.7 (4)
0x0e0|                     00 00 00 11               |       ....     |        corr: 17 0xe7-0xea.7 (4)
     |                                               |                |      [17]{}: leap_second_record 0xeb-0xf2.7 (8)
0x0e0|                                 2c 32 29 11   |           ,2). |        occur: "1993-07-01T00:00:17Z" (741484817) 0xeb-0xee.7 (4)
0x0e0|                                             00|               .|        corr: 18 0xef-0xf2.7 (4)
0x0f0|00 00 12                                       |...             |
     |                                               |                |      [18]{}: leap_second_record 0xf3-0xfa.7 (8)
0x0f0|         2e 13 5c 92                           |   ..\.         |        occur: "1994-07-01T00:00:18Z" (773020818) 0xf3-0xf6.7 (4)
0x0f0|                     00 00 00 13               |       ....     |        corr: 19 0xf7-0xfa.7 (4)
     |                                               |                |      [19]{}: leap_second_record 0xfb-0x102.7 (8)
0x0f0|                                 30 e7 24 13   |           0.$. |        occur: "1996-01-01T00:00:19Z" (820454419) 0xfb-0xfe.7 (4)
0x0f0|                                             00|               .|        corr: 20 0xff-0x102.7 (4)
0x100|00 00 14                                       |...             |
     |                                               |                |      [20]{}: leap_second_record 0x103-0x10a.7 (8)
0x100|         33 b8 48 94                           |   3.H.         |        occur: "1997-07-01T00:00:20Z" (867715220) 0x103-0x106.7 (4)
0x100|                     00 00 00 15               |       ....     |        corr: 21 0x107-0x10a.7 (4)
     |                                               |                |      [21]{}: leap_second_record 0x10b-0x112.7 (8)
0x100|                                 36 8c 10 15   |           6... |        occur: "1999-01-01T00:00:21Z" (915148821) 0x10b-0x10e.7 (4)
0x100|                                             00|               .|        corr: 22 0x10f-0x112.7 (4)
0x110|00 00 16                                       |...             |
     |                                               |                |      [22]{}: leap_second_record 0x113-0x11a.7 (8)
0x110|         43 b7 1b 96                           |   C...         |        occur: "2006-01-01T00:00:22Z" (1136073622) 0x113-0x116.7 (4)
0x110|                     00 00 00 17               |       ....     |        corr: 23 0x117-0x11a.7 (4)
     |                                               |                |      [23]{}: leap_second_record 0x11b-0x122.7 (8)
0x110|                                 49 5c 07 97   |           I\.. |        occur: "2009-01-01T00:00:23Z" (1230768023) 0x11b-0x11e.7 (4)
0x110|                                             00|               .|        corr: 24 0x11f-0x122.7 (4)
0x120|00 00 18                                       |...             |
     |                                               |                |      [24]{}: leap_second_record 0x123-0x12a.7 (8)
0x120|         4f ef 93 18                           |   O...         |        occur: "2012-07-01T00:00:24Z" (1341100824) 0x123-0x126.7 (4)
0x120|                     00 00 00 19               |       ....     |        corr: 25 0x127-0x12a.7 (4)
     |                                               |                |      [25]{}: leap_second_record 0x12b-0x132.7 (8)
0x120|                                 55 93 2d 99   |           U.-. |        occur: "2015-07-01T00:00:25Z" (1435708825) 0x12b-0x12e.7 (4)
0x120|                                             00|               .|        corr: 26 0x12f-0x132.7 (4)
0x130|00 00 1a                                       |...             |
     |                                               |                |      [26]{}: leap_second_record 0x133-0x13a.7 (8)
0x130|         58 68 46 9a                           |   XhF.         |        occur: "2017-01-01T00:00:26Z" (1483228826) 0x133-0x136.7 (4)
0x130|                     00 00 00 1b               |       ....     |        corr: 27 0x137-0x13a.7 (4)
     |                                               |                |    standard_wall_indicators[0:0]: 0x13b-NA (0)
     |                                               |                |    ut_local_indicators[0:0]: 0x13b-NA (0)
     |                                               |                |  v2plusheader{}: 0x13b-0x166.7 (44)
0x130|                                 54 5a 69 66   |           TZif |    magic: 0x545a6966 (valid) 0x13b-0x13e.7 (4)
0x130|                                             32|               2|    ver: "2" (0x32) (valid) 0x13f-0x13f.7 (1)
0x140|00 00 00 00 00 00 00 00 00 00 00 00 00 00 00   |............... |    reserved: raw bits 0x140-0x14e.7 (15)
0x140|                                             00|               .|    isutcnt: 0 0x14f-0x152.7 (4)
0x150|00 00 00                                       |...             |
0x150|         00 00 00 00                           |   ....         |    isstdcnt: 0 0x153-0x156.7 (4)
0x150|                     00 00 00 1b               |       ....     |    leapcnt: 27 0x157-0x15a.7 (4)
0x150|                                 00 00 00 05   |           .... |    timecnt: 5 0x15b-0x15e.7 (4)
0x150|                                             00|               .|    typecnt: 3 0x15f-0x162.7 (4)
0x160|00 00 03                                       |...             |
0x160|         00 00 00 0c                           |   ....         |    charcnt: 12 0x163-0x166.7 (4)
     |                                               |                |  v2plusdatablock{}: 0x167-0x2f5.7 (399)
     |                                               |                |    transition_times[0:5]: 0x167-0x18e.7 (40)
0x160|                     ff ff ff ff 92 e6 18 c4   |       ........ |      [0]: "1911-12-31T15:37:40Z" (-1830414140) transition_time 0x167-0x16e.7 (8)
0x160|                                             ff|               .|      [1]: "1942-02-21T15:00:00Z" (-879152400) transition_time 0x16f-0x176.7 (8)
0x170|ff ff ff cb 99 32 f0                           |.....2.         |
0x170|                     00 00 00 00 0b ea 30 75   |       ......0u |      [2]: "1976-05-02T15:00:05Z" (199897205) transition_time 0x177-0x17e.7 (8)
0x170|                                             00|               .|      [3]: "2000-09-16T16:00:22Z" (969120022) transition_time 0x17f-0x186.7 (8)
0x180|00 00 00 39 c3 99 16                           |...9...         |
0x180|                     00 00 00 00 64 9b 78 1b   |       ....d.x. |      [4]: "2023-06-28T00:00:27Z" (1687910427) transition_time 0x187-0x18e.7 (8)
     |                                               |                |    transition_types[0:5]: 0x18f-0x193.7 (5)
0x180|                                             01|               .|      [0]: 1 transition_type 0x18f-0x18f.7 (1)
0x190|02                                             |.               |      [1]: 2 transition_type 0x190-0x190.7 (1)
0x190|   01                                          | .              |      [2]: 1 transition_type 0x191-0x191.7 (1)
0x190|      02                                       |  .             |      [3]: 2 transition_type 0x192-0x192.7 (1)
0x190|         02                                    |   .            |      [4]: 2 transition_type 0x193-0x193.7 (1)
     |                                               |                |    local_time_type_records[0:3]: 0x194-0x1a5.7 (18)
     |                                               |                |      [0]{}: local_time_type 0x194-0x199.7 (6)
0x190|            00 00 75 bc                        |    ..u.        |        utoff: 30140 (valid) 0x194-0x197.7 (4)
0x190|                        00                     |        .       |        dst: 0 (valid) 0x198-0x198.7 (1)
0x190|                           00                  |         .      |        idx: 0 (valid) 0x199-0x199.7 (1)
     |                                               |                |      [1]{}: local_time_type 0x19a-0x19f.7 (6)
0x190|                              00 00 70 80      |          ..p.  |        utoff: 28800 (valid) 0x19a-0x19d.7 (4)
0x190|                                          00   |              . |        dst: 0 (valid) 0x19e-0x19e.7 (1)
0x190|                                             04|               .|        idx: 4 (valid) 0x19f-0x19f.7 (1)
     |                                               |                |      [2]{}: local_time_type 0x1a0-0x1a5.7 (6)
0x1a0|00 00 7e 90                                    |..~.            |        utoff: 32400 (valid) 0x1a0-0x1a3.7 (4)
0x1a0|            00                                 |    .           |        dst: 0 (valid) 0x1a4-0x1a4.7 (1)
0x1a0|               08                              |     .          |        idx: 8 (valid) 0x1a5-0x1a5.7 (1)
     |                                               |                |    time_zone_designations[0:3]: 0x1a6-0x1b1.7 (12)
0x1a0|                  4c 4d 54 00                  |      LMT.      |      [0]: "LMT" time_zone_designation 0x1a6-0x1a9.7 (4)
0x1a0|                              2b 30 38 00      |          +08.  |      [1]: "+08" time_zone_designation 0x1aa-0x1ad.7 (4)
0x1a0|                                          2b 30|              +0|      [2]: "+09" time_zone_designation 0x1ae-0x1b1.7 (4)
0x1b0|39 00                                          |9.              |
     |                                               |                |    leap_second_records[0:27]: 0x1b2-0x2f5.7 (324)
     |                                               |                |      [0]{}: leap_second_record 0x1b2-0x1bd.7 (12)
0x1b0|      00 00 00 00 04 b2 58 00                  |  ......X.      |        occur: "1972-07-01T00:00:00Z" (78796800) 0x1b2-0x1b9.7 (8)
0x1b0|                              00 00 00 01      |          ....  |        corr: 1 0x1ba-0x1bd.7 (4)
     |                                               |                |      [1]{}: leap_second_record 0x1be-0x1c9.7 (12)
0x1b0|                                          00 00|              ..|        occur: "1973-01-01T00:00:01Z" (94694401) 0x1be-0x1c5.7 (8)
0x1c0|00 00 05 a4 ec 01                              |......          |
0x1c0|                  00 00 00 02                  |      ....      |        corr: 2 0x1c6-0x1c9.7 (4)
     |                                               |                |      [2]{}: leap_second_record 0x1ca-0x1d5.7 (12)
0x1c0|                              00 00 00 00 07 86|          ......|        occur: "1974-01-01T00:00:02Z" (126230402) 0x1ca-0x1d1.7 (8)
0x1d0|1f 82                                          |..              |
0x1d0|      00 00 00 03                              |  ....          |        corr: 3 0x1d2-0x1d5.7 (4)
     |                                               |                |      [3]{}: leap_second_record 0x1d6-0x1e1.7 (12)
0x1d0|                  00 00 00 00 09 67 53 03      |      .....gS.  |        occur: "1975-01-01T00:00:03Z" (157766403) 0x1d6-0x1dd.7 (8)
0x1d0|                                          00 00|              ..|        corr: 4 0x1de-0x1e1.7 (4)
0x1e0|00 04                                          |..              |
     |                                               |                |      [4]{}: leap_second_record 0x1e2-0x1ed.7 (12)
0x1e0|      00 00 00 00 0b 48 86 84                  |  .....H..      |        occur: "1976-01-01T00:00:04Z" (189302404) 0x1e2-0x1e9.7 (8)
0x1e0|                              00 00 00 05      |          ....  |        corr: 5 0x1ea-0x1ed.7 (4)
     |                                               |                |      [5]{}: leap_second_record 0x1ee-0x1f9.7 (12)
0x1e0|                                          00 00|              ..|        occur: "1977-01-01T00:00:05Z" (220924805) 0x1ee-0x1f5.7 (8)
0x1f0|00 00 0d 2b 0b 85                              |...+..          |
0x1f0|                  00 00 00 06                  |      ....      |        corr: 6 0x1f6-0x1f9.7 (4)
     |                                               |                |      [6]{}: leap_second_record 0x1fa-0x205.7 (12)
0x1f0|                              00 00 00 00 0f 0c|          ......|        occur: "1978-01-01T00:00:06Z" (252460806) 0x1fa-0x201.7 (8)
0x200|3f 06                                          |?.              |
0x200|      00 00 00 07                              |  ....          |        corr: 7 0x202-0x205.7 (4)
     |                                               |                |      [7]{}: leap_second_record 0x206-0x211.7 (12)
0x200|                  00 00 00 00 10 ed 72 87      |      ......r.  |        occur: "1979-01-01T00:00:07Z" (283996807) 0x206-0x20d.7 (8)
0x200|                                          00 00|              ..|        corr: 8 0x20e-0x211.7 (4)
0x210|00 08                                          |..              |
     |                                               |                |      [8]{}: leap_second_record 0x212-0x21d.7 (12)
0x210|      00 00 00 00 12 ce a6 08                  |  ........      |        occur: "1980-01-01T00:00:08Z" (315532808) 0x212-0x219.7 (8)
0x210|                              00 00 00 09      |          ....  |        corr: 9 0x21a-0x21d.7 (4)
     |                                               |                |      [9]{}: leap_second_record 0x21e-0x229.7 (12)
0x210|                                          00 00|              ..|        occur: "1981-07-01T00:00:09Z" (362793609) 0x21e-0x225.7 (8)
0x220|00 00 15 9f ca 89                              |......          |
0x220|                  00 00 00 0a                  |      ....      |        corr: 10 0x226-0x229.7 (4)
     |                                               |                |      [10]{}: leap_second_record 0x22a-0x235.7 (12)
0x220|                              00 00 00 00 17 80|          ......|        occur: "1982-07-01T00:00:10Z" (394329610) 0x22a-0x231.7 (8)
0x230|fe 0a                                          |..              |
0x230|      00 00 00 0b                              |  ....          |        corr: 11 0x232-0x235.7 (4)
     |                                               |                |      [11]{}: leap_second_record 0x236-0x241.7 (12)
0x230|                  00 00 00 00 19 62 31 8b      |      .....b1.  |        occur: "1983-07-01T00:00:11Z" (425865611) 0x236-0x23d.7 (8)
0x230|                                          00 00|              ..|        corr: 12 0x23e-0x241.7 (4)
0x240|00 0c                                          |..              |
     |                                               |                |      [12]{}: leap_second_record 0x242-0x24d.7 (12)
0x240|      00 00 00 00 1d 25 ea 0c                  |  .....%..      |        occur: "1985-07-01T00:00:12Z" (489024012) 0x242-0x249.7 (8)
0x240|                              00 00 00 0d      |          ....  |        corr: 13 0x24a-0x24d.7 (4)
     |                                               |                |      [13]{}: leap_second_record 0x24e-0x259.7 (12)
0x240|                                          00 00|              ..|        occur: "1988-01-01T00:00:13Z" (567993613) 0x24e-0x255.7 (8)
0x250|00 00 21 da e5 0d                              |..!...          |
0x250|                  00 00 00 0e                  |      ....      |        corr: 14 0x256-0x259.7 (4)
     |                                               |                |      [14]{}: leap_second_record 0x25a-0x265.7 (12)
0x250|                              00 00 00 00 25 9e|          ....%.|        occur: "1990-01-01T00:00:14Z" (631152014) 0x25a-0x261.7 (8)
0x260|9d 8e                                          |..              |
0x260|      00 00 00 0f                              |  ....          |        corr: 15 0x262-0x265.7 (4)
     |                                               |                |      [15]{}: leap_second_record 0x266-0x271.7 (12)
0x260|                  00 00 00 00 27 7f d1 0f      |      ....'...  |        occur: "1991-01-01T00:00:15Z" (662688015) 0x266-0x26d.7 (8)
0x260|                                          00 00|              ..|        corr: 16 0x26e-0x271.7 (4)
0x270|00 10                                          |..              |
     |                                               |                |      [16]{}: leap_second_record 0x272-0x27d.7 (12)
0x270|      00 00 00 00 2a 50 f5 90                  |  ....*P..      |        occur: "1992-07-01T00:00:16Z" (709948816) 0x272-0x279.7 (8)
0x270|                              00 00 00 11      |          ....  |        corr: 17 0x27a-0x27d.7 (4)
     |                                               |                |      [17]{}: leap_second_record 0x27e-0x289.7 (12)
0x270|                                          00 00|              ..|        occur: "1993-07-01T00:00:17Z" (741484817) 0x27e-0x285.7 (8)
0x280|00 00 2c 32 29 11                              |..,2).          |
0x280|                  00 00 00 12                  |      ....      |        corr: 18 0x286-0x289.7 (4)
     |                                               |                |      [18]{}: leap_second_record 0x28a-0x295.7 (12)
0x280|                              00 00 00 00 2e 13|          ......|        occur: "1994-07-01T00:00:18Z" (773020818) 0x28a-0x291.7 (8)
0x290|5c 92                                          |\.              |
0x290|      00 00 00 13                              |  ....          |        corr: 19 0x292-0x295.7 (4)
     |                                               |                |      [19]{}: leap_second_record 0x296-0x2a1.7 (12)
0x290|                  00 00 00 00 30 e7 24 13      |      ....0.$.  |        occur: "1996-01-01T00:00:19Z" (820454419) 0x296-0x29d.7 (8)
0x290|                                          00 00|              ..|        corr: 20 0x29e-0x2a1.7 (4)
0x2a0|00 14                                          |..              |
     |                                               |                |      [20]{}: leap_second_record 0x2a2-0x2ad.7 (12)
0x2a0|      00 00 00 00 33 b8 48 94                  |  ....3.H.      |        occur: "1997-07-01T00:00:20Z" (867715220) 0x2a2-0x2a9.7 (8)
0x2a0|                              00 00 00 15      |          ....  |        corr: 21 0x2aa-0x2ad.7 (4)
     |                                               |                |      [21]{}: leap_second_record 0x2ae-0x2b9.7 (12)
0x2a0|                                          00 00|              ..|        occur: "1999-01-01T00:00:21Z" (915148821) 0x2ae-0x2b5.7 (8)
0x2b0|00 00 36 8c 10 15                              |..6...          |
0x2b0|                  00 00 00 16                  |      ....      |        corr: 22 0x2b6-0x2b9.7 (4)
     |                                               |                |      [22]{}: leap_second_record 0x2ba-0x2c5.7 (12)
0x2b0|                              00 00 00 00 43 b7|          ....C.|        occur: "2006-01-01T00:00:22Z" (1136073622) 0x2ba-0x2c1.7 (8)
0x2c0|1b 96                                          |..              |
0x2c0|      00 00 00 17                              |  ....          |        corr: 23 0x2c2-0x2c5.7 (4)
     |                                               |                |      [23]{}: leap_second_record 0x2c6-0x2d1.7 (12)
0x2c0|                  00 00 00 00 49 5c 07 97      |      ....I\..  |        occur: "2009-01-01T00:00:23Z" (1230768023) 0x2c6-0x2cd.7 (8)
0x2c0|                                          00 00|              ..|        corr: 24 0x2ce-0x2d1.7 (4)
0x2d0|00 18                                          |..              |
     |                                               |                |      [24]{}: leap_second_record 0x2d2-0x2dd.7 (12)
0x2d0|      00 00 00 00 4f ef 93 18                  |  ....O...      |        occur: "2012-07-01T00:00:24Z" (1341100824) 0x2d2-0x2d9.7 (8)
0x2d0|                              00 00 00 19      |          ....  |        corr: 25 0x2da-0x2dd.7 (4)
     |                                               |                |      [25]{}: leap_second_record 0x2de-0x2e9.7 (12)
0x2d0|                                          00 00|              ..|        occur: "2015-07-01T00:00:25Z" (1435708825) 0x2de-0x2e5.7 (8)
0x2e0|00 00 55 93 2d 99                              |..U.-.          |
0x2e0|                  00 00 00 1a                  |      ....      |        corr: 26 0x2e6-0x2e9.7 (4)
     |                                               |                |      [26]{}: leap_second_record 0x2ea-0x2f5.7 (12)
0x2e0|                              00 00 00 00 58 68|          ....Xh|        occur: "2017-01-01T00:00:26Z" (1483228826) 0x2ea-0x2f1.7 (8)
0x2f0|46 9a                                          |F.              |
0x2f0|      00 00 00 1b                              |  ....          |        corr: 27 0x2f2-0x2f5.7 (4)
     |                                               |                |    standard_wall_indicators[0:0]: 0x2f6-NA (0)
     |                                               |                |    ut_local_indicators[0:0]: 0x2f6-NA (0)
     |                                               |                |  footer{}: 0x2f6-0x2f7.7 (2)
0x2f0|                  0a                           |      .         |    nl1: 10 (valid) 0x2f6-0x2f6.7 (1)
     |                                               |                |    tz_string: "" 0x2f7-NA (0)
0x2f0|                     0a|                       |       .|       |    nl2: 10 (valid) 0x2f7-0x2f7.7 (1)
