$ fq -d tzif dv Dublin
     |00 01 02 03 04 05 06 07 08 09 0a 0b 0c 0d 0e 0f|0123456789abcdef|.{}: Dublin (tzif) 0x0-0xda4 (3492)
     |                                               |                |  v1header{}: 0x0-0x2c (44)
0x000|54 5a 69 66                                    |TZif            |    magic: 0x545a6966 (valid) 0x0-0x4 (4)
0x000|            32                                 |    2           |    ver: "2" (0x32) (valid) 0x4-0x5 (1)
0x000|               00 00 00 00 00 00 00 00 00 00 00|     ...........|    reserved: raw bits 0x5-0x14 (15)
0x010|00 00 00 00                                    |....            |
0x010|            00 00 00 09                        |    ....        |    isutcnt: 9 0x14-0x18 (4)
0x010|                        00 00 00 09            |        ....    |    isstdcnt: 9 0x18-0x1c (4)
0x010|                                    00 00 00 00|            ....|    leapcnt: 0 0x1c-0x20 (4)
0x020|00 00 00 e4                                    |....            |    timecnt: 228 0x20-0x24 (4)
0x020|            00 00 00 09                        |    ....        |    typecnt: 9 0x24-0x28 (4)
0x020|                        00 00 00 14            |        ....    |    charcnt: 20 0x28-0x2c (4)
     |                                               |                |  v1datablock{}: 0x2c-0x4fc (1232)
     |                                               |                |    transition_times[0:228]: 0x2c-0x3bc (912)
0x020|                                    80 00 00 00|            ....|      [0]: "1901-12-13T20:45:52Z" (-2147483648) transition_time 0x2c-0x30 (4)
0x030|9b 26 b3 91                                    |.&..            |      [1]: "1916-05-21T02:25:21Z" (-1691962479) transition_time 0x30-0x34 (4)
0x030|            9b d6 0b 11                        |    ....        |      [2]: "1916-10-01T02:25:21Z" (-1680471279) transition_time 0x34-0x38 (4)
0x030|                        9c cf 30 a0            |        ..0.    |      [3]: "1917-04-08T02:00:00Z" (-1664143200) transition_time 0x38-0x3c (4)
0x030|                                    9d a4 c3 a0|            ....|      [4]: "1917-09-17T02:00:00Z" (-1650146400) transition_time 0x3c-0x40 (4)
0x040|9e 9c 9d a0                                    |....            |      [5]: "1918-03-24T02:00:00Z" (-1633903200) transition_time 0x40-0x44 (4)
0x040|            9f 97 1a a0                        |    ....        |      [6]: "1918-09-30T02:00:00Z" (-1617487200) transition_time 0x44-0x48 (4)
0x040|                        a0 85 ba 20            |        ...     |      [7]: "1919-03-30T02:00:00Z" (-1601848800) transition_time 0x48-0x4c (4)
0x040|                                    a1 76 fc a0|            .v..|      [8]: "1919-09-29T02:00:00Z" (-1586037600) transition_time 0x4c-0x50 (4)
0x050|a2 65 9c 20                                    |.e.             |      [9]: "1920-03-28T02:00:00Z" (-1570399200) transition_time 0x50-0x54 (4)
0x050|            a3 7b c8 a0                        |    .{..        |      [10]: "1920-10-25T02:00:00Z" (-1552168800) transition_time 0x54-0x58 (4)
0x050|                        a4 4e b8 a0            |        .N..    |      [11]: "1921-04-03T02:00:00Z" (-1538344800) transition_time 0x58-0x5c (4)
0x050|                                    a5 3f fb 20|            .?. |      [12]: "1921-10-03T02:00:00Z" (-1522533600) transition_time 0x5c-0x60 (4)
0x060|a6 25 60 20                                    |.%`             |      [13]: "1922-03-26T02:00:00Z" (-1507500000) transition_time 0x60-0x64 (4)
0x060|            a7 27 c6 20                        |    .'.         |      [14]: "1922-10-08T02:00:00Z" (-1490565600) transition_time 0x64-0x68 (4)
0x060|                        a8 2a 2c 20            |        .*,     |      [15]: "1923-04-22T02:00:00Z" (-1473631200) transition_time 0x68-0x6c (4)
0x060|                                    a8 eb f8 a0|            ....|      [16]: "1923-09-16T02:00:00Z" (-1460930400) transition_time 0x6c-0x70 (4)
0x070|aa 00 d3 a0                                    |....            |      [17]: "1924-04-13T02:00:00Z" (-1442786400) transition_time 0x70-0x74 (4)
0x070|            aa d5 15 20                        |    ...         |      [18]: "1924-09-21T02:00:00Z" (-1428876000) transition_time 0x74-0x78 (4)
0x070|                        ab e9 f0 20            |        ...     |      [19]: "1925-04-19T02:00:00Z" (-1410732000) transition_time 0x78-0x7c (4)
0x070|                                    ac c7 6c 20|            ..l |      [20]: "1925-10-04T02:00:00Z" (-1396216800) transition_time 0x7c-0x80 (4)
0x080|ad c9 d2 20                                    |...             |      [21]: "1926-04-18T02:00:00Z" (-1379282400) transition_time 0x80-0x84 (4)
0x080|            ae a7 4e 20                        |    ..N         |      [22]: "1926-10-03T02:00:00Z" (-1364767200) transition_time 0x84-0x88 (4)
0x080|                        af a0 79 a0            |        ..y.    |      [23]: "1927-04-10T02:00:00Z" (-1348437600) transition_time 0x88-0x8c (4)
0x080|                                    b0 87 30 20|            ..0 |      [24]: "1927-10-02T02:00:00Z" (-1333317600) transition_time 0x8c-0x90 (4)
0x090|b1 92 d0 a0                                    |....            |      [25]: "1928-04-22T02:00:00Z" (-1315778400) transition_time 0x90-0x94 (4)
0x090|            b2 70 4c a0                        |    .pL.        |      [26]: "1928-10-07T02:00:00Z" (-1301263200) transition_time 0x94-0x98 (4)
0x090|                        b3 72 b2 a0            |        .r..    |      [27]: "1929-04-21T02:00:00Z" (-1284328800) transition_time 0x98-0x9c (4)
0x090|                                    b4 50 2e a0|            .P..|      [28]: "1929-10-06T02:00:00Z" (-1269813600) transition_time 0x9c-0xa0 (4)
0x0a0|b5 49 5a 20                                    |.IZ             |      [29]: "1930-04-13T02:00:00Z" (-1253484000) transition_time 0xa0-0xa4 (4)
0x0a0|            b6 30 10 a0                        |    .0..        |      [30]: "1930-10-05T02:00:00Z" (-1238364000) transition_time 0xa4-0xa8 (4)
0x0a0|                        b7 32 76 a0            |        .2v.    |      [31]: "1931-04-19T02:00:00Z" (-1221429600) transition_time 0xa8-0xac (4)
0x0a0|                                    b8 0f f2 a0|            ....|      [32]: "1931-10-04T02:00:00Z" (-1206914400) transition_time 0xac-0xb0 (4)
0x0b0|b9 12 58 a0                                    |..X.            |      [33]: "1932-04-17T02:00:00Z" (-1189980000) transition_time 0xb0-0xb4 (4)
0x0b0|            b9 ef d4 a0                        |    ....        |      [34]: "1932-10-02T02:00:00Z" (-1175464800) transition_time 0xb4-0xb8 (4)
0x0b0|                        ba e9 00 20            |        ...     |      [35]: "1933-04-09T02:00:00Z" (-1159135200) transition_time 0xb8-0xbc (4)
0x0b0|                                    bb d8 f1 20|            ... |      [36]: "1933-10-08T02:00:00Z" (-1143410400) transition_time 0xbc-0xc0 (4)
0x0c0|bc db 57 20                                    |..W             |      [37]: "1934-04-22T02:00:00Z" (-1126476000) transition_time 0xc0-0xc4 (4)
0x0c0|            bd b8 d3 20                        |    ...         |      [38]: "1934-10-07T02:00:00Z" (-1111960800) transition_time 0xc4-0xc8 (4)
0x0c0|                        be b1 fe a0            |        ....    |      [39]: "1935-04-14T02:00:00Z" (-1095631200) transition_time 0xc8-0xcc (4)
0x0c0|                                    bf 98 b5 20|            ... |      [40]: "1935-10-06T02:00:00Z" (-1080511200) transition_time 0xcc-0xd0 (4)
0x0d0|c0 9b 1b 20                                    |...             |      [41]: "1936-04-19T02:00:00Z" (-1063576800) transition_time 0xd0-0xd4 (4)
0x0d0|            c1 78 97 20                        |    .x.         |      [42]: "1936-10-04T02:00:00Z" (-1049061600) transition_time 0xd4-0xd8 (4)
0x0d0|                        c2 7a fd 20            |        .z.     |      [43]: "1937-04-18T02:00:00Z" (-1032127200) transition_time 0xd8-0xdc (4)
0x0d0|                                    c3 58 79 20|            .Xy |      [44]: "1937-10-03T02:00:00Z" (-1017612000) transition_time 0xdc-0xe0 (4)
0x0e0|c4 51 a4 a0                                    |.Q..            |      [45]: "1938-04-10T02:00:00Z" (-1001282400) transition_time 0xe0-0xe4 (4)
0x0e0|            c5 38 5b 20                        |    .8[         |      [46]: "1938-10-02T02:00:00Z" (-986162400) transition_time 0xe4-0xe8 (4)
0x0e0|                        c6 3a c1 20            |        .:.     |      [47]: "1939-04-16T02:00:00Z" (-969228000) transition_time 0xe8-0xec (4)
0x0e0|                                    c7 58 d6 a0|            .X..|      [48]: "1939-11-19T02:00:00Z" (-950479200) transition_time 0xec-0xf0 (4)
0x0f0|c7 da 09 a0                                    |....            |      [49]: "1940-02-25T02:00:00Z" (-942012000) transition_time 0xf0-0xf4 (4)
0x0f0|            d4 49 e0 20                        |    .I.         |      [50]: "1946-10-06T02:00:00Z" (-733356000) transition_time 0xf4-0xf8 (4)
0x0f0|                        d5 1e 21 a0            |        ..!.    |      [51]: "1947-03-16T02:00:00Z" (-719445600) transition_time 0xf8-0xfc (4)
0x0f0|                                    d6 4e ac 20|            .N. |      [52]: "1947-11-02T02:00:00Z" (-699487200) transition_time 0xfc-0x100 (4)
0x100|d7 2c 28 20                                    |.,(             |      [53]: "1948-04-18T02:00:00Z" (-684972000) transition_time 0x100-0x104 (4)
0x100|            d8 2e 8e 20                        |    ...         |      [54]: "1948-10-31T02:00:00Z" (-668037600) transition_time 0x104-0x108 (4)
0x100|                        d8 f9 95 20            |        ...     |      [55]: "1949-04-03T02:00:00Z" (-654732000) transition_time 0x108-0x10c (4)
0x100|                                    da 0e 70 20|            ..p |      [56]: "1949-10-30T02:00:00Z" (-636588000) transition_time 0x10c-0x110 (4)
0x110|da eb ec 20                                    |...             |      [57]: "1950-04-16T02:00:00Z" (-622072800) transition_time 0x110-0x114 (4)
0x110|            db e5 17 a0                        |    ....        |      [58]: "1950-10-22T02:00:00Z" (-605743200) transition_time 0x114-0x118 (4)
0x110|                        dc cb ce 20            |        ...     |      [59]: "1951-04-15T02:00:00Z" (-590623200) transition_time 0x118-0x11c (4)
0x110|                                    dd c4 f9 a0|            ....|      [60]: "1951-10-21T02:00:00Z" (-574293600) transition_time 0x11c-0x120 (4)
0x120|de b4 ea a0                                    |....            |      [61]: "1952-04-20T02:00:00Z" (-558568800) transition_time 0x120-0x124 (4)
0x120|            df ae 16 20                        |    ...         |      [62]: "1952-10-26T02:00:00Z" (-542239200) transition_time 0x124-0x128 (4)
0x120|                        e0 94 cc a0            |        ....    |      [63]: "1953-04-19T02:00:00Z" (-527119200) transition_time 0x128-0x12c (4)
0x120|                                    e1 72 48 a0|            .rH.|      [64]: "1953-10-04T02:00:00Z" (-512604000) transition_time 0x12c-0x130 (4)
0x130|e2 6b 74 20                                    |.kt             |      [65]: "1954-04-11T02:00:00Z" (-496274400) transition_time 0x130-0x134 (4)
0x130|            e3 52 2a a0                        |    .R*.        |      [66]: "1954-10-03T02:00:00Z" (-481154400) transition_time 0x134-0x138 (4)
0x130|                        e4 54 90 a0            |        .T..    |      [67]: "1955-04-17T02:00:00Z" (-464220000) transition_time 0x138-0x13c (4)
0x130|                                    e5 32 0c a0|            .2..|      [68]: "1955-10-02T02:00:00Z" (-449704800) transition_time 0x13c-0x140 (4)
0x140|e6 3d ad 20                                    |.=.             |      [69]: "1956-04-22T02:00:00Z" (-432165600) transition_time 0x140-0x144 (4)
0x140|            e7 1b 29 20                        |    ..)         |      [70]: "1956-10-07T02:00:00Z" (-417650400) transition_time 0x144-0x148 (4)
0x140|                        e8 14 54 a0            |        ..T.    |      [71]: "1957-04-14T02:00:00Z" (-401320800) transition_time 0x148-0x14c (4)
0x140|                                    e8 fb 0b 20|            ... |      [72]: "1957-10-06T02:00:00Z" (-386200800) transition_time 0x14c-0x150 (4)
0x150|e9 fd 71 20                                    |..q             |      [73]: "1958-04-20T02:00:00Z" (-369266400) transition_time 0x150-0x154 (4)
0x150|            ea da ed 20                        |    ...         |      [74]: "1958-10-05T02:00:00Z" (-354751200) transition_time 0x154-0x158 (4)
0x150|                        eb dd 53 20            |        ..S     |      [75]: "1959-04-19T02:00:00Z" (-337816800) transition_time 0x158-0x15c (4)
0x150|                                    ec ba cf 20|            ... |      [76]: "1959-10-04T02:00:00Z" (-323301600) transition_time 0x15c-0x160 (4)
0x160|ed b3 fa a0                                    |....            |      [77]: "1960-04-10T02:00:00Z" (-306972000) transition_time 0x160-0x164 (4)
0x160|            ee 9a b1 20                        |    ...         |      [78]: "1960-10-02T02:00:00Z" (-291852000) transition_time 0x164-0x168 (4)
0x160|                        ef 81 67 a0            |        ..g.    |      [79]: "1961-03-26T02:00:00Z" (-276732000) transition_time 0x168-0x16c (4)
0x160|                                    f0 9f 7d 20|            ..} |      [80]: "1961-10-29T02:00:00Z" (-257983200) transition_time 0x16c-0x170 (4)
0x170|f1 61 49 a0                                    |.aI.            |      [81]: "1962-03-25T02:00:00Z" (-245282400) transition_time 0x170-0x174 (4)
0x170|            f2 7f 5f 20                        |    .._         |      [82]: "1962-10-28T02:00:00Z" (-226533600) transition_time 0x174-0x178 (4)
0x170|                        f3 4a 66 20            |        .Jf     |      [83]: "1963-03-31T02:00:00Z" (-213228000) transition_time 0x178-0x17c (4)
0x170|                                    f4 5f 41 20|            ._A |      [84]: "1963-10-27T02:00:00Z" (-195084000) transition_time 0x17c-0x180 (4)
0x180|f5 21 0d a0                                    |.!..            |      [85]: "1964-03-22T02:00:00Z" (-182383200) transition_time 0x180-0x184 (4)
0x180|            f6 3f 23 20                        |    .?#         |      [86]: "1964-10-25T02:00:00Z" (-163634400) transition_time 0x184-0x188 (4)
0x180|                        f7 00 ef a0            |        ....    |      [87]: "1965-03-21T02:00:00Z" (-150933600) transition_time 0x188-0x18c (4)
0x180|                                    f8 1f 05 20|            ... |      [88]: "1965-10-24T02:00:00Z" (-132184800) transition_time 0x18c-0x190 (4)
0x190|f8 e0 d1 a0                                    |....            |      [89]: "1966-03-20T02:00:00Z" (-119484000) transition_time 0x190-0x194 (4)
0x190|            f9 fe e7 20                        |    ...         |      [90]: "1966-10-23T02:00:00Z" (-100735200) transition_time 0x194-0x198 (4)
0x190|                        fa c0 b3 a0            |        ....    |      [91]: "1967-03-19T02:00:00Z" (-88034400) transition_time 0x198-0x19c (4)
0x190|                                    fb e8 03 a0|            ....|      [92]: "1967-10-29T02:00:00Z" (-68680800) transition_time 0x19c-0x1a0 (4)
0x1a0|fc 7b ab a0                                    |.{..            |      [93]: "1968-02-18T02:00:00Z" (-59004000) transition_time 0x1a0-0x1a4 (4)
0x1a0|            fd c7 bb 70                        |    ...p        |      [94]: "1968-10-26T23:00:00Z" (-37242000) transition_time 0x1a4-0x1a8 (4)
0x1a0|                        03 70 c6 20            |        .p.     |      [95]: "1971-10-31T02:00:00Z" (57722400) transition_time 0x1a8-0x1ac (4)
0x1a0|                                    04 29 58 20|            .)X |      [96]: "1972-03-19T02:00:00Z" (69818400) transition_time 0x1ac-0x1b0 (4)
0x1b0|05 50 a8 20                                    |.P.             |      [97]: "1972-10-29T02:00:00Z" (89172000) transition_time 0x1b0-0x1b4 (4)
0x1b0|            06 09 3a 20                        |    ..:         |      [98]: "1973-03-18T02:00:00Z" (101268000) transition_time 0x1b4-0x1b8 (4)
0x1b0|                        07 30 8a 20            |        .0.     |      [99]: "1973-10-28T02:00:00Z" (120621600) transition_time 0x1b8-0x1bc (4)
0x1b0|                                    07 e9 1c 20|            ... |      [100]: "1974-03-17T02:00:00Z" (132717600) transition_time 0x1bc-0x1c0 (4)
0x1c0|09 10 6c 20                                    |..l             |      [101]: "1974-10-27T02:00:00Z" (152071200) transition_time 0x1c0-0x1c4 (4)
0x1c0|            09 c8 fe 20                        |    ...         |      [102]: "1975-03-16T02:00:00Z" (164167200) transition_time 0x1c4-0x1c8 (4)
0x1c0|                        0a f0 4e 20            |        ..N     |      [103]: "1975-10-26T02:00:00Z" (183520800) transition_time 0x1c8-0x1cc (4)
0x1c0|                                    0b b2 1a a0|            ....|      [104]: "1976-03-21T02:00:00Z" (196221600) transition_time 0x1cc-0x1d0 (4)
0x1d0|0c d0 30 20                                    |..0             |      [105]: "1976-10-24T02:00:00Z" (214970400) transition_time 0x1d0-0x1d4 (4)
0x1d0|            0d 91 fc a0                        |    ....        |      [106]: "1977-03-20T02:00:00Z" (227671200) transition_time 0x1d4-0x1d8 (4)
0x1d0|                        0e b0 12 20            |        ...     |      [107]: "1977-10-23T02:00:00Z" (246420000) transition_time 0x1d8-0x1dc (4)
0x1d0|                                    0f 71 de a0|            .q..|      [108]: "1978-03-19T02:00:00Z" (259120800) transition_time 0x1dc-0x1e0 (4)
0x1e0|10 99 2e a0                                    |....            |      [109]: "1978-10-29T02:00:00Z" (278474400) transition_time 0x1e0-0x1e4 (4)
0x1e0|            11 51 c0 a0                        |    .Q..        |      [110]: "1979-03-18T02:00:00Z" (290570400) transition_time 0x1e4-0x1e8 (4)
0x1e0|                        12 79 10 a0            |        .y..    |      [111]: "1979-10-28T02:00:00Z" (309924000) transition_time 0x1e8-0x1ec (4)
0x1e0|                                    13 31 a2 a0|            .1..|      [112]: "1980-03-16T02:00:00Z" (322020000) transition_time 0x1ec-0x1f0 (4)
0x1f0|14 58 f2 a0                                    |.X..            |      [113]: "1980-10-26T02:00:00Z" (341373600) transition_time 0x1f0-0x1f4 (4)
0x1f0|            15 23 eb 90                        |    .#..        |      [114]: "1981-03-29T01:00:00Z" (354675600) transition_time 0x1f4-0x1f8 (4)
0x1f0|                        16 38 c6 90            |        .8..    |      [115]: "1981-10-25T01:00:00Z" (372819600) transition_time 0x1f8-0x1fc (4)
0x1f0|                                    17 03 cd 90|            ....|      [116]: "1982-03-28T01:00:00Z" (386125200) transition_time 0x1fc-0x200 (4)
0x200|18 18 a8 90                                    |....            |      [117]: "1982-10-24T01:00:00Z" (404269200) transition_time 0x200-0x204 (4)
0x200|            18 e3 af 90                        |    ....        |      [118]: "1983-03-27T01:00:00Z" (417574800) transition_time 0x204-0x208 (4)
0x200|                        19 f8 8a 90            |        ....    |      [119]: "1983-10-23T01:00:00Z" (435718800) transition_time 0x208-0x20c (4)
0x200|                                    1a c3 91 90|            ....|      [120]: "1984-03-25T01:00:00Z" (449024400) transition_time 0x20c-0x210 (4)
0x210|1b e1 a7 10                                    |....            |      [121]: "1984-10-28T01:00:00Z" (467773200) transition_time 0x210-0x214 (4)
0x210|            1c ac ae 10                        |    ....        |      [122]: "1985-03-31T01:00:00Z" (481078800) transition_time 0x214-0x218 (4)
0x210|                        1d c1 89 10            |        ....    |      [123]: "1985-10-27T01:00:00Z" (499222800) transition_time 0x218-0x21c (4)
0x210|                                    1e 8c 90 10|            ....|      [124]: "1986-03-30T01:00:00Z" (512528400) transition_time 0x21c-0x220 (4)
0x220|1f a1 6b 10                                    |..k.            |      [125]: "1986-10-26T01:00:00Z" (530672400) transition_time 0x220-0x224 (4)
0x220|            20 6c 72 10                        |     lr.        |      [126]: "1987-03-29T01:00:00Z" (543978000) transition_time 0x224-0x228 (4)
0x220|                        21 81 4d 10            |        !.M.    |      [127]: "1987-10-25T01:00:00Z" (562122000) transition_time 0x228-0x22c (4)
0x220|                                    22 4c 54 10|            "LT.|      [128]: "1988-03-27T01:00:00Z" (575427600) transition_time 0x22c-0x230 (4)
0x230|23 61 2f 10                                    |#a/.            |      [129]: "1988-10-23T01:00:00Z" (593571600) transition_time 0x230-0x234 (4)
0x230|            24 2c 36 10                        |    $,6.        |      [130]: "1989-03-26T01:00:00Z" (606877200) transition_time 0x234-0x238 (4)
0x230|                        25 4a 4b 90            |        %JK.    |      [131]: "1989-10-29T01:00:00Z" (625626000) transition_time 0x238-0x23c (4)
0x230|                                    26 0c 18 10|            &...|      [132]: "1990-03-25T01:00:00Z" (638326800) transition_time 0x23c-0x240 (4)
0x240|27 2a 2d 90                                    |'*-.            |      [133]: "1990-10-28T01:00:00Z" (657075600) transition_time 0x240-0x244 (4)
0x240|            27 f5 34 90                        |    '.4.        |      [134]: "1991-03-31T01:00:00Z" (670381200) transition_time 0x244-0x248 (4)
0x240|                        29 0a 0f 90            |        )...    |      [135]: "1991-10-27T01:00:00Z" (688525200) transition_time 0x248-0x24c (4)
0x240|                                    29 d5 16 90|            )...|      [136]: "1992-03-29T01:00:00Z" (701830800) transition_time 0x24c-0x250 (4)
0x250|2a e9 f1 90                                    |*...            |      [137]: "1992-10-25T01:00:00Z" (719974800) transition_time 0x250-0x254 (4)
0x250|            2b b4 f8 90                        |    +...        |      [138]: "1993-03-28T01:00:00Z" (733280400) transition_time 0x254-0x258 (4)
0x250|                        2c c9 d3 90            |        ,...    |      [139]: "1993-10-24T01:00:00Z" (751424400) transition_time 0x258-0x25c (4)
0x250|                                    2d 94 da 90|            -...|      [140]: "1994-03-27T01:00:00Z" (764730000) transition_time 0x25c-0x260 (4)
0x260|2e a9 b5 90                                    |....            |      [141]: "1994-10-23T01:00:00Z" (782874000) transition_time 0x260-0x264 (4)
0x260|            2f 74 bc 90                        |    /t..        |      [142]: "1995-03-26T01:00:00Z" (796179600) transition_time 0x264-0x268 (4)
0x260|                        30 89 97 90            |        0...    |      [143]: "1995-10-22T01:00:00Z" (814323600) transition_time 0x268-0x26c (4)
0x260|                                    31 5d d9 10|            1]..|      [144]: "1996-03-31T01:00:00Z" (828234000) transition_time 0x26c-0x270 (4)
0x270|32 72 b4 10                                    |2r..            |      [145]: "1996-10-27T01:00:00Z" (846378000) transition_time 0x270-0x274 (4)
0x270|            33 3d bb 10                        |    3=..        |      [146]: "1997-03-30T01:00:00Z" (859683600) transition_time 0x274-0x278 (4)
0x270|                        34 52 96 10            |        4R..    |      [147]: "1997-10-26T01:00:00Z" (877827600) transition_time 0x278-0x27c (4)
0x270|                                    35 1d 9d 10|            5...|      [148]: "1998-03-29T01:00:00Z" (891133200) transition_time 0x27c-0x280 (4)
0x280|36 32 78 10                                    |62x.            |      [149]: "1998-10-25T01:00:00Z" (909277200) transition_time 0x280-0x284 (4)
0x280|            36 fd 7f 10                        |    6...        |      [150]: "1999-03-28T01:00:00Z" (922582800) transition_time 0x284-0x288 (4)
0x280|                        38 1b 94 90            |        8...    |      [151]: "1999-10-31T01:00:00Z" (941331600) transition_time 0x288-0x28c (4)
0x280|                                    38 dd 61 10|            8.a.|      [152]: "2000-03-26T01:00:00Z" (954032400) transition_time 0x28c-0x290 (4)
0x290|39 fb 76 90                                    |9.v.            |      [153]: "2000-10-29T01:00:00Z" (972781200) transition_time 0x290-0x294 (4)
0x290|            3a bd 43 10                        |    :.C.        |      [154]: "2001-03-25T01:00:00Z" (985482000) transition_time 0x294-0x298 (4)
0x290|                        3b db 58 90            |        ;.X.    |      [155]: "2001-10-28T01:00:00Z" (1004230800) transition_time 0x298-0x29c (4)
0x290|                                    3c a6 5f 90|            <._.|      [156]: "2002-03-31T01:00:00Z" (1017536400) transition_time 0x29c-0x2a0 (4)
0x2a0|3d bb 3a 90                                    |=.:.            |      [157]: "2002-10-27T01:00:00Z" (1035680400) transition_time 0x2a0-0x2a4 (4)
0x2a0|            3e 86 41 90                        |    >.A.        |      [158]: "2003-03-30T01:00:00Z" (1048986000) transition_time 0x2a4-0x2a8 (4)
0x2a0|                        3f 9b 1c 90            |        ?...    |      [159]: "2003-10-26T01:00:00Z" (1067130000) transition_time 0x2a8-0x2ac (4)
0x2a0|                                    40 66 23 90|            @f#.|      [160]: "2004-03-28T01:00:00Z" (1080435600) transition_time 0x2ac-0x2b0 (4)
0x2b0|41 84 39 10                                    |A.9.            |      [161]: "2004-10-31T01:00:00Z" (1099184400) transition_time 0x2b0-0x2b4 (4)
0x2b0|            42 46 05 90                        |    BF..        |      [162]: "2005-03-27T01:00:00Z" (1111885200) transition_time 0x2b4-0x2b8 (4)
0x2b0|                        43 64 1b 10            |        Cd..    |      [163]: "2005-10-30T01:00:00Z" (1130634000) transition_time 0x2b8-0x2bc (4)
0x2b0|                                    44 25 e7 90|            D%..|      [164]: "2006-03-26T01:00:00Z" (1143334800) transition_time 0x2bc-0x2c0 (4)
0x2c0|45 43 fd 10                                    |EC..            |      [165]: "2006-10-29T01:00:00Z" (1162083600) transition_time 0x2c0-0x2c4 (4)
0x2c0|            46 05 c9 90                        |    F...        |      [166]: "2007-03-25T01:00:00Z" (1174784400) transition_time 0x2c4-0x2c8 (4)
0x2c0|                        47 23 df 10            |        G#..    |      [167]: "2007-10-28T01:00:00Z" (1193533200) transition_time 0x2c8-0x2cc (4)
0x2c0|                                    47 ee e6 10|            G...|      [168]: "2008-03-30T01:00:00Z" (1206838800) transition_time 0x2cc-0x2d0 (4)
0x2d0|49 03 c1 10                                    |I...            |      [169]: "2008-10-26T01:00:00Z" (1224982800) transition_time 0x2d0-0x2d4 (4)
0x2d0|            49 ce c8 10                        |    I...        |      [170]: "2009-03-29T01:00:00Z" (1238288400) transition_time 0x2d4-0x2d8 (4)
0x2d0|                        4a e3 a3 10            |        J...    |      [171]: "2009-10-25T01:00:00Z" (1256432400) transition_time 0x2d8-0x2dc (4)
0x2d0|                                    4b ae aa 10|            K...|      [172]: "2010-03-28T01:00:00Z" (1269738000) transition_time 0x2dc-0x2e0 (4)
0x2e0|4c cc bf 90                                    |L...            |      [173]: "2010-10-31T01:00:00Z" (1288486800) transition_time 0x2e0-0x2e4 (4)
0x2e0|            4d 8e 8c 10                        |    M...        |      [174]: "2011-03-27T01:00:00Z" (1301187600) transition_time 0x2e4-0x2e8 (4)
0x2e0|                        4e ac a1 90            |        N...    |      [175]: "2011-10-30T01:00:00Z" (1319936400) transition_time 0x2e8-0x2ec (4)
0x2e0|                                    4f 6e 6e 10|            Onn.|      [176]: "2012-03-25T01:00:00Z" (1332637200) transition_time 0x2ec-0x2f0 (4)
0x2f0|50 8c 83 90                                    |P...            |      [177]: "2012-10-28T01:00:00Z" (1351386000) transition_time 0x2f0-0x2f4 (4)
0x2f0|            51 57 8a 90                        |    QW..        |      [178]: "2013-03-31T01:00:00Z" (1364691600) transition_time 0x2f4-0x2f8 (4)
0x2f0|                        52 6c 65 90            |        Rle.    |      [179]: "2013-10-27T01:00:00Z" (1382835600) transition_time 0x2f8-0x2fc (4)
0x2f0|                                    53 37 6c 90|            S7l.|      [180]: "2014-03-30T01:00:00Z" (1396141200) transition_time 0x2fc-0x300 (4)
0x300|54 4c 47 90                                    |TLG.            |      [181]: "2014-10-26T01:00:00Z" (1414285200) transition_time 0x300-0x304 (4)
0x300|            55 17 4e 90                        |    U.N.        |      [182]: "2015-03-29T01:00:00Z" (1427590800) transition_time 0x304-0x308 (4)
0x300|                        56 2c 29 90            |        V,).    |      [183]: "2015-10-25T01:00:00Z" (1445734800) transition_time 0x308-0x30c (4)
0x300|                                    56 f7 30 90|            V.0.|      [184]: "2016-03-27T01:00:00Z" (1459040400) transition_time 0x30c-0x310 (4)
0x310|58 15 46 10                                    |X.F.            |      [185]: "2016-10-30T01:00:00Z" (1477789200) transition_time 0x310-0x314 (4)
0x310|            58 d7 12 90                        |    X...        |      [186]: "2017-03-26T01:00:00Z" (1490490000) transition_time 0x314-0x318 (4)
0x310|                        59 f5 28 10            |        Y.(.    |      [187]: "2017-10-29T01:00:00Z" (1509238800) transition_time 0x318-0x31c (4)
0x310|                                    5a b6 f4 90|            Z...|      [188]: "2018-03-25T01:00:00Z" (1521939600) transition_time 0x31c-0x320 (4)
0x320|5b d5 0a 10                                    |[...            |      [189]: "2018-10-28T01:00:00Z" (1540688400) transition_time 0x320-0x324 (4)
0x320|            5c a0 11 10                        |    \...        |      [190]: "2019-03-31T01:00:00Z" (1553994000) transition_time 0x324-0x328 (4)
0x320|                        5d b4 ec 10            |        ]...    |      [191]: "2019-10-27T01:00:00Z" (1572138000) transition_time 0x328-0x32c (4)
0x320|                                    5e 7f f3 10|            ^...|      [192]: "2020-03-29T01:00:00Z" (1585443600) transition_time 0x32c-0x330 (4)
0x330|5f 94 ce 10                                    |_...            |      [193]: "2020-10-25T01:00:00Z" (1603587600) transition_time 0x330-0x334 (4)
0x330|            60 5f d5 10                        |    `_..        |      [194]: "2021-03-28T01:00:00Z" (1616893200) transition_time 0x334-0x338 (4)
0x330|                        61 7d ea 90            |        a}..    |      [195]: "2021-10-31T01:00:00Z" (1635642000) transition_time 0x338-0x33c (4)
0x330|                                    62 3f b7 10|            b?..|      [196]: "2022-03-27T01:00:00Z" (1648342800) transition_time 0x33c-0x340 (4)
0x340|63 5d cc 90                                    |c]..            |      [197]: "2022-10-30T01:00:00Z" (1667091600) transition_time 0x340-0x344 (4)
0x340|            64 1f 99 10                        |    d...        |      [198]: "2023-03-26T01:00:00Z" (1679792400) transition_time 0x344-0x348 (4)
0x340|                        65 3d ae 90            |        e=..    |      [199]: "2023-10-29T01:00:00Z" (1698541200) transition_time 0x348-0x34c (4)
0x340|                                    66 08 b5 90|            f...|      [200]: "2024-03-31T01:00:00Z" (1711846800) transition_time 0x34c-0x350 (4)
0x350|67 1d 90 90                                    |g...            |      [201]: "2024-10-27T01:00:00Z" (1729990800) transition_time 0x350-0x354 (4)
0x350|            67 e8 97 90                        |    g...        |      [202]: "2025-03-30T01:00:00Z" (1743296400) transition_time 0x354-0x358 (4)
0x350|                        68 fd 72 90            |        h.r.    |      [203]: "2025-10-26T01:00:00Z" (1761440400) transition_time 0x358-0x35c (4)
0x350|                                    69 c8 79 90|            i.y.|      [204]: "2026-03-29T01:00:00Z" (1774746000) transition_time 0x35c-0x360 (4)
0x360|6a dd 54 90                                    |j.T.            |      [205]: "2026-10-25T01:00:00Z" (1792890000) transition_time 0x360-0x364 (4)
0x360|            6b a8 5b 90                        |    k.[.        |      [206]: "2027-03-28T01:00:00Z" (1806195600) transition_time 0x364-0x368 (4)
0x360|                        6c c6 71 10            |        l.q.    |      [207]: "2027-10-31T01:00:00Z" (1824944400) transition_time 0x368-0x36c (4)
0x360|                                    6d 88 3d 90|            m.=.|      [208]: "2028-03-26T01:00:00Z" (1837645200) transition_time 0x36c-0x370 (4)
0x370|6e a6 53 10                                    |n.S.            |      [209]: "2028-10-29T01:00:00Z" (1856394000) transition_time 0x370-0x374 (4)
0x370|            6f 68 1f 90                        |    oh..        |      [210]: "2029-03-25T01:00:00Z" (1869094800) transition_time 0x374-0x378 (4)
0x370|                        70 86 35 10            |        p.5.    |      [211]: "2029-10-28T01:00:00Z" (1887843600) transition_time 0x378-0x37c (4)
0x370|                                    71 51 3c 10|            qQ<.|      [212]: "2030-03-31T01:00:00Z" (1901149200) transition_time 0x37c-0x380 (4)
0x380|72 66 17 10                                    |rf..            |      [213]: "2030-10-27T01:00:00Z" (1919293200) transition_time 0x380-0x384 (4)
0x380|            73 31 1e 10                        |    s1..        |      [214]: "2031-03-30T01:00:00Z" (1932598800) transition_time 0x384-0x388 (4)
0x380|                        74 45 f9 10            |        tE..    |      [215]: "2031-10-26T01:00:00Z" (1950742800) transition_time 0x388-0x38c (4)
0x380|                                    75 11 00 10|            u...|      [216]: "2032-03-28T01:00:00Z" (1964048400) transition_time 0x38c-0x390 (4)
0x390|76 2f 15 90                                    |v/..            |      [217]: "2032-10-31T01:00:00Z" (1982797200) transition_time 0x390-0x394 (4)
0x390|            76 f0 e2 10                        |    v...        |      [218]: "2033-03-27T01:00:00Z" (1995498000) transition_time 0x394-0x398 (4)
0x390|                        78 0e f7 90            |        x...    |      [219]: "2033-10-30T01:00:00Z" (2014246800) transition_time 0x398-0x39c (4)
0x390|                                    78 d0 c4 10|            x...|      [220]: "2034-03-26T01:00:00Z" (2026947600) transition_time 0x39c-0x3a0 (4)
0x3a0|79 ee d9 90                                    |y...            |      [221]: "2034-10-29T01:00:00Z" (2045696400) transition_time 0x3a0-0x3a4 (4)
0x3a0|            7a b0 a6 10                        |    z...        |      [222]: "2035-03-25T01:00:00Z" (2058397200) transition_time 0x3a4-0x3a8 (4)
0x3a0|                        7b ce bb 90            |        {...    |      [223]: "2035-10-28T01:00:00Z" (2077146000) transition_time 0x3a8-0x3ac (4)
0x3a0|                                    7c 99 c2 90|            |...|      [224]: "2036-03-30T01:00:00Z" (2090451600) transition_time 0x3ac-0x3b0 (4)
0x3b0|7d ae 9d 90                                    |}...            |      [225]: "2036-10-26T01:00:00Z" (2108595600) transition_time 0x3b0-0x3b4 (4)
0x3b0|            7e 79 a4 90                        |    ~y..        |      [226]: "2037-03-29T01:00:00Z" (2121901200) transition_time 0x3b4-0x3b8 (4)
0x3b0|                        7f 8e 7f 90            |        ....    |      [227]: "2037-10-25T01:00:00Z" (2140045200) transition_time 0x3b8-0x3bc (4)
     |                                               |                |    transition_types[0:228]: 0x3bc-0x4a0 (228)
0x3b0|                                    01         |            .   |      [0]: 1 transition_type 0x3bc-0x3bd (1)
0x3b0|                                       02      |             .  |      [1]: 2 transition_type 0x3bd-0x3be (1)
0x3b0|                                          04   |              . |      [2]: 4 transition_type 0x3be-0x3bf (1)
0x3b0|                                             03|               .|      [3]: 3 transition_type 0x3bf-0x3c0 (1)
0x3c0|04                                             |.               |      [4]: 4 transition_type 0x3c0-0x3c1 (1)
0x3c0|   03                                          | .              |      [5]: 3 transition_type 0x3c1-0x3c2 (1)
0x3c0|      04                                       |  .             |      [6]: 4 transition_type 0x3c2-0x3c3 (1)
0x3c0|         03                                    |   .            |      [7]: 3 transition_type 0x3c3-0x3c4 (1)
0x3c0|            04                                 |    .           |      [8]: 4 transition_type 0x3c4-0x3c5 (1)
0x3c0|               03                              |     .          |      [9]: 3 transition_type 0x3c5-0x3c6 (1)
0x3c0|                  04                           |      .         |      [10]: 4 transition_type 0x3c6-0x3c7 (1)
0x3c0|                     03                        |       .        |      [11]: 3 transition_type 0x3c7-0x3c8 (1)
0x3c0|                        04                     |        .       |      [12]: 4 transition_type 0x3c8-0x3c9 (1)
0x3c0|                           05                  |         .      |      [13]: 5 transition_type 0x3c9-0x3ca (1)
0x3c0|                              04               |          .     |      [14]: 4 transition_type 0x3ca-0x3cb (1)
0x3c0|                                 05            |           .    |      [15]: 5 transition_type 0x3cb-0x3cc (1)
0x3c0|                                    04         |            .   |      [16]: 4 transition_type 0x3cc-0x3cd (1)
0x3c0|                                       05      |             .  |      [17]: 5 transition_type 0x3cd-0x3ce (1)
0x3c0|                                          04   |              . |      [18]: 4 transition_type 0x3ce-0x3cf (1)
0x3c0|                                             05|               .|      [19]: 5 transition_type 0x3cf-0x3d0 (1)
0x3d0|04                                             |.               |      [20]: 4 transition_type 0x3d0-0x3d1 (1)
0x3d0|   05                                          | .              |      [21]: 5 transition_type 0x3d1-0x3d2 (1)
0x3d0|      04                                       |  .             |      [22]: 4 transition_type 0x3d2-0x3d3 (1)
0x3d0|         05                                    |   .            |      [23]: 5 transition_type 0x3d3-0x3d4 (1)
0x3d0|            04                                 |    .           |      [24]: 4 transition_type 0x3d4-0x3d5 (1)
0x3d0|               05                              |     .          |      [25]: 5 transition_type 0x3d5-0x3d6 (1)
0x3d0|                  04                           |      .         |      [26]: 4 transition_type 0x3d6-0x3d7 (1)
0x3d0|                     05                        |       .        |      [27]: 5 transition_type 0x3d7-0x3d8 (1)
0x3d0|                        04                     |        .       |      [28]: 4 transition_type 0x3d8-0x3d9 (1)
0x3d0|                           05                  |         .      |      [29]: 5 transition_type 0x3d9-0x3da (1)
0x3d0|                              04               |          .     |      [30]: 4 transition_type 0x3da-0x3db (1)
0x3d0|                                 05            |           .    |      [31]: 5 transition_type 0x3db-0x3dc (1)
0x3d0|                                    04         |            .   |      [32]: 4 transition_type 0x3dc-0x3dd (1)
0x3d0|                                       05      |             .  |      [33]: 5 transition_type 0x3dd-0x3de (1)
0x3d0|                                          04   |              . |      [34]: 4 transition_type 0x3de-0x3df (1)
0x3d0|                                             05|               .|      [35]: 5 transition_type 0x3df-0x3e0 (1)
0x3e0|04                                             |.               |      [36]: 4 transition_type 0x3e0-0x3e1 (1)
0x3e0|   05                                          | .              |      [37]: 5 transition_type 0x3e1-0x3e2 (1)
0x3e0|      04                                       |  .             |      [38]: 4 transition_type 0x3e2-0x3e3 (1)
0x3e0|         05                                    |   .            |      [39]: 5 transition_type 0x3e3-0x3e4 (1)
0x3e0|            04                                 |    .           |      [40]: 4 transition_type 0x3e4-0x3e5 (1)
0x3e0|               05                              |     .          |      [41]: 5 transition_type 0x3e5-0x3e6 (1)
0x3e0|                  04                           |      .         |      [42]: 4 transition_type 0x3e6-0x3e7 (1)
0x3e0|                     05                        |       .        |      [43]: 5 transition_type 0x3e7-0x3e8 (1)
0x3e0|                        04                     |        .       |      [44]: 4 transition_type 0x3e8-0x3e9 (1)
0x3e0|                           05                  |         .      |      [45]: 5 transition_type 0x3e9-0x3ea (1)
0x3e0|                              04               |          .     |      [46]: 4 transition_type 0x3ea-0x3eb (1)
0x3e0|                                 05            |           .    |      [47]: 5 transition_type 0x3eb-0x3ec (1)
0x3e0|                                    04         |            .   |      [48]: 4 transition_type 0x3ec-0x3ed (1)
0x3e0|                                       05      |             .  |      [49]: 5 transition_type 0x3ed-0x3ee (1)
0x3e0|                                          04   |              . |      [50]: 4 transition_type 0x3ee-0x3ef (1)
0x3e0|                                             05|               .|      [51]: 5 transition_type 0x3ef-0x3f0 (1)
0x3f0|04                                             |.               |      [52]: 4 transition_type 0x3f0-0x3f1 (1)
0x3f0|   05                                          | .              |      [53]: 5 transition_type 0x3f1-0x3f2 (1)
0x3f0|      04                                       |  .             |      [54]: 4 transition_type 0x3f2-0x3f3 (1)
0x3f0|         05                                    |   .            |      [55]: 5 transition_type 0x3f3-0x3f4 (1)
0x3f0|            04                                 |    .           |      [56]: 4 transition_type 0x3f4-0x3f5 (1)
0x3f0|               05                              |     .          |      [57]: 5 transition_type 0x3f5-0x3f6 (1)
0x3f0|                  04                           |      .         |      [58]: 4 transition_type 0x3f6-0x3f7 (1)
0x3f0|                     05                        |       .        |      [59]: 5 transition_type 0x3f7-0x3f8 (1)
0x3f0|                        04                     |        .       |      [60]: 4 transition_type 0x3f8-0x3f9 (1)
0x3f0|                           05                  |         .      |      [61]: 5 transition_type 0x3f9-0x3fa (1)
0x3f0|                              04               |          .     |      [62]: 4 transition_type 0x3fa-0x3fb (1)
0x3f0|                                 05            |           .    |      [63]: 5 transition_type 0x3fb-0x3fc (1)
0x3f0|                                    04         |            .   |      [64]: 4 transition_type 0x3fc-0x3fd (1)
0x3f0|                                       05      |             .  |      [65]: 5 transition_type 0x3fd-0x3fe (1)
0x3f0|                                          04   |              . |      [66]: 4 transition_type 0x3fe-0x3ff (1)
0x3f0|                                             05|               .|      [67]: 5 transition_type 0x3ff-0x400 (1)
0x400|04                                             |.               |      [68]: 4 transition_type 0x400-0x401 (1)
0x400|   05                                          | .              |      [69]: 5 transition_type 0x401-0x402 (1)
0x400|      04                                       |  .             |      [70]: 4 transition_type 0x402-0x403 (1)
0x400|         05                                    |   .            |      [71]: 5 transition_type 0x403-0x404 (1)
0x400|            04                                 |    .           |      [72]: 4 transition_type 0x404-0x405 (1)
0x400|               05                              |     .          |      [73]: 5 transition_type 0x405-0x406 (1)
0x400|                  04                           |      .         |      [74]: 4 transition_type 0x406-0x407 (1)
0x400|                     05                        |       .        |      [75]: 5 transition_type 0x407-0x408 (1)
0x400|                        04                     |        .       |      [76]: 4 transition_type 0x408-0x409 (1)
0x400|                           05                  |         .      |      [77]: 5 transition_type 0x409-0x40a (1)
0x400|                              04               |          .     |      [78]: 4 transition_type 0x40a-0x40b (1)
0x400|                                 05            |           .    |      [79]: 5 transition_type 0x40b-0x40c (1)
0x400|                                    04         |            .   |      [80]: 4 transition_type 0x40c-0x40d (1)
0x400|                                       05      |             .  |      [81]: 5 transition_type 0x40d-0x40e (1)
0x400|                                          04   |              . |      [82]: 4 transition_type 0x40e-0x40f (1)
0x400|                                             05|               .|      [83]: 5 transition_type 0x40f-0x410 (1)
0x410|04                                             |.               |      [84]: 4 transition_type 0x410-0x411 (1)
0x410|   05                                          | .              |      [85]: 5 transition_type 0x411-0x412 (1)
0x410|      04                                       |  .             |      [86]: 4 transition_type 0x412-0x413 (1)
0x410|         05                                    |   .            |      [87]: 5 transition_type 0x413-0x414 (1)
0x410|            04                                 |    .           |      [88]: 4 transition_type 0x414-0x415 (1)
0x410|               05                              |     .          |      [89]: 5 transition_type 0x415-0x416 (1)
0x410|                  04                           |      .         |      [90]: 4 transition_type 0x416-0x417 (1)
0x410|                     05                        |       .        |      [91]: 5 transition_type 0x417-0x418 (1)
0x410|                        04                     |        .       |      [92]: 4 transition_type 0x418-0x419 (1)
0x410|                           05                  |         .      |      [93]: 5 transition_type 0x419-0x41a (1)
0x410|                              08               |          .     |      [94]: 8 transition_type 0x41a-0x41b (1)
0x410|                                 06            |           .    |      [95]: 6 transition_type 0x41b-0x41c (1)
0x410|                                    07         |            .   |      [96]: 7 transition_type 0x41c-0x41d (1)
0x410|                                       06      |             .  |      [97]: 6 transition_type 0x41d-0x41e (1)
0x410|                                          07   |              . |      [98]: 7 transition_type 0x41e-0x41f (1)
0x410|                                             06|               .|      [99]: 6 transition_type 0x41f-0x420 (1)
0x420|07                                             |.               |      [100]: 7 transition_type 0x420-0x421 (1)
0x420|   06                                          | .              |      [101]: 6 transition_type 0x421-0x422 (1)
0x420|      07                                       |  .             |      [102]: 7 transition_type 0x422-0x423 (1)
0x420|         06                                    |   .            |      [103]: 6 transition_type 0x423-0x424 (1)
0x420|            07                                 |    .           |      [104]: 7 transition_type 0x424-0x425 (1)
0x420|               06                              |     .          |      [105]: 6 transition_type 0x425-0x426 (1)
0x420|                  07                           |      .         |      [106]: 7 transition_type 0x426-0x427 (1)
0x420|                     06                        |       .        |      [107]: 6 transition_type 0x427-0x428 (1)
0x420|                        07                     |        .       |      [108]: 7 transition_type 0x428-0x429 (1)
0x420|                           06                  |         .      |      [109]: 6 transition_type 0x429-0x42a (1)
0x420|                              07               |          .     |      [110]: 7 transition_type 0x42a-0x42b (1)
0x420|                                 06            |           .    |      [111]: 6 transition_type 0x42b-0x42c (1)
0x420|                                    07         |            .   |      [112]: 7 transition_type 0x42c-0x42d (1)
0x420|                                       06      |             .  |      [113]: 6 transition_type 0x42d-0x42e (1)
0x420|                                          07   |              . |      [114]: 7 transition_type 0x42e-0x42f (1)
0x420|                                             06|               .|      [115]: 6 transition_type 0x42f-0x430 (1)
0x430|07                                             |.               |      [116]: 7 transition_type 0x430-0x431 (1)
0x430|   06                                          | .              |      [117]: 6 transition_type 0x431-0x432 (1)
0x430|      07                                       |  .             |      [118]: 7 transition_type 0x432-0x433 (1)
0x430|         06                                    |   .            |      [119]: 6 transition_type 0x433-0x434 (1)
0x430|            07                                 |    .           |      [120]: 7 transition_type 0x434-0x435 (1)
0x430|               06                              |     .          |      [121]: 6 transition_type 0x435-0x436 (1)
0x430|                  07                           |      .         |      [122]: 7 transition_type 0x436-0x437 (1)
0x430|                     06                        |       .        |      [123]: 6 transition_type 0x437-0x438 (1)
0x430|                        07                     |        .       |      [124]: 7 transition_type 0x438-0x439 (1)
0x430|                           06                  |         .      |      [125]: 6 transition_type 0x439-0x43a (1)
0x430|                              07               |          .     |      [126]: 7 transition_type 0x43a-0x43b (1)
0x430|                                 06            |           .    |      [127]: 6 transition_type 0x43b-0x43c (1)
0x430|                                    07         |            .   |      [128]: 7 transition_type 0x43c-0x43d (1)
0x430|                                       06      |             .  |      [129]: 6 transition_type 0x43d-0x43e (1)
0x430|                                          07   |              . |      [130]: 7 transition_type 0x43e-0x43f (1)
0x430|                                             06|               .|      [131]: 6 transition_type 0x43f-0x440 (1)
0x440|07                                             |.               |      [132]: 7 transition_type 0x440-0x441 (1)
0x440|   06                                          | .              |      [133]: 6 transition_type 0x441-0x442 (1)
0x440|      07                                       |  .             |      [134]: 7 transition_type 0x442-0x443 (1)
0x440|         06                                    |   .            |      [135]: 6 transition_type 0x443-0x444 (1)
0x440|            07                                 |    .           |      [136]: 7 transition_type 0x444-0x445 (1)
0x440|               06                              |     .          |      [137]: 6 transition_type 0x445-0x446 (1)
0x440|                  07                           |      .         |      [138]: 7 transition_type 0x446-0x447 (1)
0x440|                     06                        |       .        |      [139]: 6 transition_type 0x447-0x448 (1)
0x440|                        07                     |        .       |      [140]: 7 transition_type 0x448-0x449 (1)
0x440|                           06                  |         .      |      [141]: 6 transition_type 0x449-0x44a (1)
0x440|                              07               |          .     |      [142]: 7 transition_type 0x44a-0x44b (1)
0x440|                                 06            |           .    |      [143]: 6 transition_type 0x44b-0x44c (1)
0x440|                                    07         |            .   |      [144]: 7 transition_type 0x44c-0x44d (1)
0x440|                                       06      |             .  |      [145]: 6 transition_type 0x44d-0x44e (1)
0x440|                                          07   |              . |      [146]: 7 transition_type 0x44e-0x44f (1)
0x440|                                             06|               .|      [147]: 6 transition_type 0x44f-0x450 (1)
0x450|07                                             |.               |      [148]: 7 transition_type 0x450-0x451 (1)
0x450|   06                                          | .              |      [149]: 6 transition_type 0x451-0x452 (1)
0x450|      07                                       |  .             |      [150]: 7 transition_type 0x452-0x453 (1)
0x450|         06                                    |   .            |      [151]: 6 transition_type 0x453-0x454 (1)
0x450|            07                                 |    .           |      [152]: 7 transition_type 0x454-0x455 (1)
0x450|               06                              |     .          |      [153]: 6 transition_type 0x455-0x456 (1)
0x450|                  07                           |      .         |      [154]: 7 transition_type 0x456-0x457 (1)
0x450|                     06                        |       .        |      [155]: 6 transition_type 0x457-0x458 (1)
0x450|                        07                     |        .       |      [156]: 7 transition_type 0x458-0x459 (1)
0x450|                           06                  |         .      |      [157]: 6 transition_type 0x459-0x45a (1)
0x450|                              07               |          .     |      [158]: 7 transition_type 0x45a-0x45b (1)
0x450|                                 06            |           .    |      [159]: 6 transition_type 0x45b-0x45c (1)
0x450|                                    07         |            .   |      [160]: 7 transition_type 0x45c-0x45d (1)
0x450|                                       06      |             .  |      [161]: 6 transition_type 0x45d-0x45e (1)
0x450|                                          07   |              . |      [162]: 7 transition_type 0x45e-0x45f (1)
0x450|                                             06|               .|      [163]: 6 transition_type 0x45f-0x460 (1)
0x460|07                                             |.               |      [164]: 7 transition_type 0x460-0x461 (1)
0x460|   06                                          | .              |      [165]: 6 transition_type 0x461-0x462 (1)
0x460|      07                                       |  .             |      [166]: 7 transition_type 0x462-0x463 (1)
0x460|         06                                    |   .            |      [167]: 6 transition_type 0x463-0x464 (1)
0x460|            07                                 |    .           |      [168]: 7 transition_type 0x464-0x465 (1)
0x460|               06                              |     .          |      [169]: 6 transition_type 0x465-0x466 (1)
0x460|                  07                           |      .         |      [170]: 7 transition_type 0x466-0x467 (1)
0x460|                     06                        |       .        |      [171]: 6 transition_type 0x467-0x468 (1)
0x460|                        07                     |        .       |      [172]: 7 transition_type 0x468-0x469 (1)
0x460|                           06                  |         .      |      [173]: 6 transition_type 0x469-0x46a (1)
0x460|                              07               |          .     |      [174]: 7 transition_type 0x46a-0x46b (1)
0x460|                                 06            |           .    |      [175]: 6 transition_type 0x46b-0x46c (1)
0x460|                                    07         |            .   |      [176]: 7 transition_type 0x46c-0x46d (1)
0x460|                                       06      |             .  |      [177]: 6 transition_type 0x46d-0x46e (1)
0x460|                                          07   |              . |      [178]: 7 transition_type 0x46e-0x46f (1)
0x460|                                             06|               .|      [179]: 6 transition_type 0x46f-0x470 (1)
0x470|07                                             |.               |      [180]: 7 transition_type 0x470-0x471 (1)
0x470|   06                                          | .              |      [181]: 6 transition_type 0x471-0x472 (1)
0x470|      07                                       |  .             |      [182]: 7 transition_type 0x472-0x473 (1)
0x470|         06                                    |   .            |      [183]: 6 transition_type 0x473-0x474 (1)
0x470|            07                                 |    .           |      [184]: 7 transition_type 0x474-0x475 (1)
0x470|               06                              |     .          |      [185]: 6 transition_type 0x475-0x476 (1)
0x470|                  07                           |      .         |      [186]: 7 transition_type 0x476-0x477 (1)
0x470|                     06                        |       .        |      [187]: 6 transition_type 0x477-0x478 (1)
0x470|                        07                     |        .       |      [188]: 7 transition_type 0x478-0x479 (1)
0x470|                           06                  |         .      |      [189]: 6 transition_type 0x479-0x47a (1)
0x470|                              07               |          .     |      [190]: 7 transition_type 0x47a-0x47b (1)
0x470|                                 06            |           .    |      [191]: 6 transition_type 0x47b-0x47c (1)
0x470|                                    07         |            .   |      [192]: 7 transition_type 0x47c-0x47d (1)
0x470|                                       06      |             .  |      [193]: 6 transition_type 0x47d-0x47e (1)
0x470|                                          07   |              . |      [194]: 7 transition_type 0x47e-0x47f (1)
0x470|                                             06|               .|      [195]: 6 transition_type 0x47f-0x480 (1)
0x480|07                                             |.               |      [196]: 7 transition_type 0x480-0x481 (1)
0x480|   06                                          | .              |      [197]: 6 transition_type 0x481-0x482 (1)
0x480|      07                                       |  .             |      [198]: 7 transition_type 0x482-0x483 (1)
0x480|         06                                    |   .            |      [199]: 6 transition_type 0x483-0x484 (1)
0x480|            07                                 |    .           |      [200]: 7 transition_type 0x484-0x485 (1)
0x480|               06                              |     .          |      [201]: 6 transition_type 0x485-0x486 (1)
0x480|                  07                           |      .         |      [202]: 7 transition_type 0x486-0x487 (1)
0x480|                     06                        |       .        |      [203]: 6 transition_type 0x487-0x488 (1)
0x480|                        07                     |        .       |      [204]: 7 transition_type 0x488-0x489 (1)
0x480|                           06                  |         .      |      [205]: 6 transition_type 0x489-0x48a (1)
0x480|                              07               |          .     |      [206]: 7 transition_type 0x48a-0x48b (1)
0x480|                                 06            |           .    |      [207]: 6 transition_type 0x48b-0x48c (1)
0x480|                                    07         |            .   |      [208]: 7 transition_type 0x48c-0x48d (1)
0x480|                                       06      |             .  |      [209]: 6 transition_type 0x48d-0x48e (1)
0x480|                                          07   |              . |      [210]: 7 transition_type 0x48e-0x48f (1)
0x480|                                             06|               .|      [211]: 6 transition_type 0x48f-0x490 (1)
0x490|07                                             |.               |      [212]: 7 transition_type 0x490-0x491 (1)
0x490|   06                                          | .              |      [213]: 6 transition_type 0x491-0x492 (1)
0x490|      07                                       |  .             |      [214]: 7 transition_type 0x492-0x493 (1)
0x490|         06                                    |   .            |      [215]: 6 transition_type 0x493-0x494 (1)
0x490|            07                                 |    .           |      [216]: 7 transition_type 0x494-0x495 (1)
0x490|               06                              |     .          |      [217]: 6 transition_type 0x495-0x496 (1)
0x490|                  07                           |      .         |      [218]: 7 transition_type 0x496-0x497 (1)
0x490|                     06                        |       .        |      [219]: 6 transition_type 0x497-0x498 (1)
0x490|                        07                     |        .       |      [220]: 7 transition_type 0x498-0x499 (1)
0x490|                           06                  |         .      |      [221]: 6 transition_type 0x499-0x49a (1)
0x490|                              07               |          .     |      [222]: 7 transition_type 0x49a-0x49b (1)
0x490|                                 06            |           .    |      [223]: 6 transition_type 0x49b-0x49c (1)
0x490|                                    07         |            .   |      [224]: 7 transition_type 0x49c-0x49d (1)
0x490|                                       06      |             .  |      [225]: 6 transition_type 0x49d-0x49e (1)
0x490|                                          07   |              . |      [226]: 7 transition_type 0x49e-0x49f (1)
0x490|                                             06|               .|      [227]: 6 transition_type 0x49f-0x4a0 (1)
     |                                               |                |    local_time_type_records[0:9]: 0x4a0-0x4d6 (54)
     |                                               |                |      [0]{}: local_time_type 0x4a0-0x4a6 (6)
0x4a0|ff ff fa 0f                                    |....            |        utoff: -1521 (valid) 0x4a0-0x4a4 (4)
0x4a0|            00                                 |    .           |        dst: 0 (valid) 0x4a4-0x4a5 (1)
0x4a0|               00                              |     .          |        idx: 0 (valid) 0x4a5-0x4a6 (1)
     |                                               |                |      [1]{}: local_time_type 0x4a6-0x4ac (6)
0x4a0|                  ff ff fa 0f                  |      ....      |        utoff: -1521 (valid) 0x4a6-0x4aa (4)
0x4a0|                              00               |          .     |        dst: 0 (valid) 0x4aa-0x4ab (1)
0x4a0|                                 04            |           .    |        idx: 4 (valid) 0x4ab-0x4ac (1)
     |                                               |                |      [2]{}: local_time_type 0x4ac-0x4b2 (6)
0x4a0|                                    00 00 08 1f|            ....|        utoff: 2079 (valid) 0x4ac-0x4b0 (4)
0x4b0|01                                             |.               |        dst: 1 (valid) 0x4b0-0x4b1 (1)
0x4b0|   08                                          | .              |        idx: 8 (valid) 0x4b1-0x4b2 (1)
     |                                               |                |      [3]{}: local_time_type 0x4b2-0x4b8 (6)
0x4b0|      00 00 0e 10                              |  ....          |        utoff: 3600 (valid) 0x4b2-0x4b6 (4)
0x4b0|                  01                           |      .         |        dst: 1 (valid) 0x4b6-0x4b7 (1)
0x4b0|                     0c                        |       .        |        idx: 12 (valid) 0x4b7-0x4b8 (1)
     |                                               |                |      [4]{}: local_time_type 0x4b8-0x4be (6)
0x4b0|                        00 00 00 00            |        ....    |        utoff: 0 (valid) 0x4b8-0x4bc (4)
0x4b0|                                    00         |            .   |        dst: 0 (valid) 0x4bc-0x4bd (1)
0x4b0|                                       10      |             .  |        idx: 16 (valid) 0x4bd-0x4be (1)
     |                                               |                |      [5]{}: local_time_type 0x4be-0x4c4 (6)
0x4b0|                                          00 00|              ..|        utoff: 3600 (valid) 0x4be-0x4c2 (4)
0x4c0|0e 10                                          |..              |
0x4c0|      01                                       |  .             |        dst: 1 (valid) 0x4c2-0x4c3 (1)
0x4c0|         08                                    |   .            |        idx: 8 (valid) 0x4c3-0x4c4 (1)
     |                                               |                |      [6]{}: local_time_type 0x4c4-0x4ca (6)
0x4c0|            00 00 00 00                        |    ....        |        utoff: 0 (valid) 0x4c4-0x4c8 (4)
0x4c0|                        01                     |        .       |        dst: 1 (valid) 0x4c8-0x4c9 (1)
0x4c0|                           10                  |         .      |        idx: 16 (valid) 0x4c9-0x4ca (1)
     |                                               |                |      [7]{}: local_time_type 0x4ca-0x4d0 (6)
0x4c0|                              00 00 0e 10      |          ....  |        utoff: 3600 (valid) 0x4ca-0x4ce (4)
0x4c0|                                          00   |              . |        dst: 0 (valid) 0x4ce-0x4cf (1)
0x4c0|                                             08|               .|        idx: 8 (valid) 0x4cf-0x4d0 (1)
     |                                               |                |      [8]{}: local_time_type 0x4d0-0x4d6 (6)
0x4d0|00 00 0e 10                                    |....            |        utoff: 3600 (valid) 0x4d0-0x4d4 (4)
0x4d0|            00                                 |    .           |        dst: 0 (valid) 0x4d4-0x4d5 (1)
0x4d0|               08                              |     .          |        idx: 8 (valid) 0x4d5-0x4d6 (1)
     |                                               |                |    time_zone_designations[0:5]: 0x4d6-0x4ea (20)
0x4d0|                  4c 4d 54 00                  |      LMT.      |      [0]: "LMT" time_zone_designation 0x4d6-0x4da (4)
0x4d0|                              44 4d 54 00      |          DMT.  |      [1]: "DMT" time_zone_designation 0x4da-0x4de (4)
0x4d0|                                          49 53|              IS|      [2]: "IST" time_zone_designation 0x4de-0x4e2 (4)
0x4e0|54 00                                          |T.              |
0x4e0|      42 53 54 00                              |  BST.          |      [3]: "BST" time_zone_designation 0x4e2-0x4e6 (4)
0x4e0|                  47 4d 54 00                  |      GMT.      |      [4]: "GMT" time_zone_designation 0x4e6-0x4ea (4)
     |                                               |                |    leap_second_records[0:0]: 0x4ea-0x4ea (0)
     |                                               |                |    standard_wall_indicators[0:9]: 0x4ea-0x4f3 (9)
0x4e0|                              00               |          .     |      [0]: 0 standard_wall_indicator (valid) 0x4ea-0x4eb (1)
0x4e0|                                 00            |           .    |      [1]: 0 standard_wall_indicator (valid) 0x4eb-0x4ec (1)
0x4e0|                                    01         |            .   |      [2]: 1 standard_wall_indicator (valid) 0x4ec-0x4ed (1)
0x4e0|                                       01      |             .  |      [3]: 1 standard_wall_indicator (valid) 0x4ed-0x4ee (1)
0x4e0|                                          01   |              . |      [4]: 1 standard_wall_indicator (valid) 0x4ee-0x4ef (1)
0x4e0|                                             01|               .|      [5]: 1 standard_wall_indicator (valid) 0x4ef-0x4f0 (1)
0x4f0|01                                             |.               |      [6]: 1 standard_wall_indicator (valid) 0x4f0-0x4f1 (1)
0x4f0|   01                                          | .              |      [7]: 1 standard_wall_indicator (valid) 0x4f1-0x4f2 (1)
0x4f0|      00                                       |  .             |      [8]: 0 standard_wall_indicator (valid) 0x4f2-0x4f3 (1)
     |                                               |                |    ut_local_indicators[0:9]: 0x4f3-0x4fc (9)
0x4f0|         00                                    |   .            |      [0]: 0 ut_local_indicator (valid) 0x4f3-0x4f4 (1)
0x4f0|            00                                 |    .           |      [1]: 0 ut_local_indicator (valid) 0x4f4-0x4f5 (1)
0x4f0|               00                              |     .          |      [2]: 0 ut_local_indicator (valid) 0x4f5-0x4f6 (1)
0x4f0|                  00                           |      .         |      [3]: 0 ut_local_indicator (valid) 0x4f6-0x4f7 (1)
0x4f0|                     00                        |       .        |      [4]: 0 ut_local_indicator (valid) 0x4f7-0x4f8 (1)
0x4f0|                        00                     |        .       |      [5]: 0 ut_local_indicator (valid) 0x4f8-0x4f9 (1)
0x4f0|                           01                  |         .      |      [6]: 1 ut_local_indicator (valid) 0x4f9-0x4fa (1)
0x4f0|                              01               |          .     |      [7]: 1 ut_local_indicator (valid) 0x4fa-0x4fb (1)
0x4f0|                                 00            |           .    |      [8]: 0 ut_local_indicator (valid) 0x4fb-0x4fc (1)
     |                                               |                |  v2plusheader{}: 0x4fc-0x528 (44)
0x4f0|                                    54 5a 69 66|            TZif|    magic: 0x545a6966 (valid) 0x4fc-0x500 (4)
0x500|32                                             |2               |    ver: "2" (0x32) (valid) 0x500-0x501 (1)
0x500|   00 00 00 00 00 00 00 00 00 00 00 00 00 00 00| ...............|    reserved: raw bits 0x501-0x510 (15)
0x510|00 00 00 09                                    |....            |    isutcnt: 9 0x510-0x514 (4)
0x510|            00 00 00 09                        |    ....        |    isstdcnt: 9 0x514-0x518 (4)
0x510|                        00 00 00 00            |        ....    |    leapcnt: 0 0x518-0x51c (4)
0x510|                                    00 00 00 e4|            ....|    timecnt: 228 0x51c-0x520 (4)
0x520|00 00 00 09                                    |....            |    typecnt: 9 0x520-0x524 (4)
0x520|            00 00 00 14                        |    ....        |    charcnt: 20 0x524-0x528 (4)
     |                                               |                |  v2plusdatablock{}: 0x528-0xd88 (2144)
     |                                               |                |    transition_times[0:228]: 0x528-0xc48 (1824)
0x520|                        ff ff ff ff 57 d1 0a f1|        ....W...|      [0]: "1880-08-02T00:25:21Z" (-2821649679) transition_time 0x528-0x530 (8)
0x530|ff ff ff ff 9b 26 b3 91                        |.....&..        |      [1]: "1916-05-21T02:25:21Z" (-1691962479) transition_time 0x530-0x538 (8)
0x530|                        ff ff ff ff 9b d6 0b 11|        ........|      [2]: "1916-10-01T02:25:21Z" (-1680471279) transition_time 0x538-0x540 (8)
0x540|ff ff ff ff 9c cf 30 a0                        |......0.        |      [3]: "1917-04-08T02:00:00Z" (-1664143200) transition_time 0x540-0x548 (8)
0x540|                        ff ff ff ff 9d a4 c3 a0|        ........|      [4]: "1917-09-17T02:00:00Z" (-1650146400) transition_time 0x548-0x550 (8)
0x550|ff ff ff ff 9e 9c 9d a0                        |........        |      [5]: "1918-03-24T02:00:00Z" (-1633903200) transition_time 0x550-0x558 (8)
0x550|                        ff ff ff ff 9f 97 1a a0|        ........|      [6]: "1918-09-30T02:00:00Z" (-1617487200) transition_time 0x558-0x560 (8)
0x560|ff ff ff ff a0 85 ba 20                        |.......         |      [7]: "1919-03-30T02:00:00Z" (-1601848800) transition_time 0x560-0x568 (8)
0x560|                        ff ff ff ff a1 76 fc a0|        .....v..|      [8]: "1919-09-29T02:00:00Z" (-1586037600) transition_time 0x568-0x570 (8)
0x570|ff ff ff ff a2 65 9c 20                        |.....e.         |      [9]: "1920-03-28T02:00:00Z" (-1570399200) transition_time 0x570-0x578 (8)
0x570|                        ff ff ff ff a3 7b c8 a0|        .....{..|      [10]: "1920-10-25T02:00:00Z" (-1552168800) transition_time 0x578-0x580 (8)
0x580|ff ff ff ff a4 4e b8 a0                        |.....N..        |      [11]: "1921-04-03T02:00:00Z" (-1538344800) transition_time 0x580-0x588 (8)
0x580|                        ff ff ff ff a5 3f fb 20|        .....?. |      [12]: "1921-10-03T02:00:00Z" (-1522533600) transition_time 0x588-0x590 (8)
0x590|ff ff ff ff a6 25 60 20                        |.....%`         |      [13]: "1922-03-26T02:00:00Z" (-1507500000) transition_time 0x590-0x598 (8)
0x590|                        ff ff ff ff a7 27 c6 20|        .....'. |      [14]: "1922-10-08T02:00:00Z" (-1490565600) transition_time 0x598-0x5a0 (8)
0x5a0|ff ff ff ff a8 2a 2c 20                        |.....*,         |      [15]: "1923-04-22T02:00:00Z" (-1473631200) transition_time 0x5a0-0x5a8 (8)
0x5a0|                        ff ff ff ff a8 eb f8 a0|        ........|      [16]: "1923-09-16T02:00:00Z" (-1460930400) transition_time 0x5a8-0x5b0 (8)
0x5b0|ff ff ff ff aa 00 d3 a0                        |........        |      [17]: "1924-04-13T02:00:00Z" (-1442786400) transition_time 0x5b0-0x5b8 (8)
0x5b0|                        ff ff ff ff aa d5 15 20|        ....... |      [18]: "1924-09-21T02:00:00Z" (-1428876000) transition_time 0x5b8-0x5c0 (8)
0x5c0|ff ff ff ff ab e9 f0 20                        |.......         |      [19]: "1925-04-19T02:00:00Z" (-1410732000) transition_time 0x5c0-0x5c8 (8)
0x5c0|                        ff ff ff ff ac c7 6c 20|        ......l |      [20]: "1925-10-04T02:00:00Z" (-1396216800) transition_time 0x5c8-0x5d0 (8)
0x5d0|ff ff ff ff ad c9 d2 20                        |.......         |      [21]: "1926-04-18T02:00:00Z" (-1379282400) transition_time 0x5d0-0x5d8 (8)
0x5d0|                        ff ff ff ff ae a7 4e 20|        ......N |      [22]: "1926-10-03T02:00:00Z" (-1364767200) transition_time 0x5d8-0x5e0 (8)
0x5e0|ff ff ff ff af a0 79 a0                        |......y.        |      [23]: "1927-04-10T02:00:00Z" (-1348437600) transition_time 0x5e0-0x5e8 (8)
0x5e0|                        ff ff ff ff b0 87 30 20|        ......0 |      [24]: "1927-10-02T02:00:00Z" (-1333317600) transition_time 0x5e8-0x5f0 (8)
0x5f0|ff ff ff ff b1 92 d0 a0                        |........        |      [25]: "1928-04-22T02:00:00Z" (-1315778400) transition_time 0x5f0-0x5f8 (8)
0x5f0|                        ff ff ff ff b2 70 4c a0|        .....pL.|      [26]: "1928-10-07T02:00:00Z" (-1301263200) transition_time 0x5f8-0x600 (8)
0x600|ff ff ff ff b3 72 b2 a0                        |.....r..        |      [27]: "1929-04-21T02:00:00Z" (-1284328800) transition_time 0x600-0x608 (8)
0x600|                        ff ff ff ff b4 50 2e a0|        .....P..|      [28]: "1929-10-06T02:00:00Z" (-1269813600) transition_time 0x608-0x610 (8)
0x610|ff ff ff ff b5 49 5a 20                        |.....IZ         |      [29]: "1930-04-13T02:00:00Z" (-1253484000) transition_time 0x610-0x618 (8)
0x610|                        ff ff ff ff b6 30 10 a0|        .....0..|      [30]: "1930-10-05T02:00:00Z" (-1238364000) transition_time 0x618-0x620 (8)
0x620|ff ff ff ff b7 32 76 a0                        |.....2v.        |      [31]: "1931-04-19T02:00:00Z" (-1221429600) transition_time 0x620-0x628 (8)
0x620|                        ff ff ff ff b8 0f f2 a0|        ........|      [32]: "1931-10-04T02:00:00Z" (-1206914400) transition_time 0x628-0x630 (8)
0x630|ff ff ff ff b9 12 58 a0                        |......X.        |      [33]: "1932-04-17T02:00:00Z" (-1189980000) transition_time 0x630-0x638 (8)
0x630|                        ff ff ff ff b9 ef d4 a0|        ........|      [34]: "1932-10-02T02:00:00Z" (-1175464800) transition_time 0x638-0x640 (8)
0x640|ff ff ff ff ba e9 00 20                        |.......         |      [35]: "1933-04-09T02:00:00Z" (-1159135200) transition_time 0x640-0x648 (8)
0x640|                        ff ff ff ff bb d8 f1 20|        ....... |      [36]: "1933-10-08T02:00:00Z" (-1143410400) transition_time 0x648-0x650 (8)
0x650|ff ff ff ff bc db 57 20                        |......W         |      [37]: "1934-04-22T02:00:00Z" (-1126476000) transition_time 0x650-0x658 (8)
0x650|                        ff ff ff ff bd b8 d3 20|        ....... |      [38]: "1934-10-07T02:00:00Z" (-1111960800) transition_time 0x658-0x660 (8)
0x660|ff ff ff ff be b1 fe a0                        |........        |      [39]: "1935-04-14T02:00:00Z" (-1095631200) transition_time 0x660-0x668 (8)
0x660|                        ff ff ff ff bf 98 b5 20|        ....... |      [40]: "1935-10-06T02:00:00Z" (-1080511200) transition_time 0x668-0x670 (8)
0x670|ff ff ff ff c0 9b 1b 20                        |.......         |      [41]: "1936-04-19T02:00:00Z" (-1063576800) transition_time 0x670-0x678 (8)
0x670|                        ff ff ff ff c1 78 97 20|        .....x. |      [42]: "1936-10-04T02:00:00Z" (-1049061600) transition_time 0x678-0x680 (8)
0x680|ff ff ff ff c2 7a fd 20                        |.....z.         |      [43]: "1937-04-18T02:00:00Z" (-1032127200) transition_time 0x680-0x688 (8)
0x680|                        ff ff ff ff c3 58 79 20|        .....Xy |      [44]: "1937-10-03T02:00:00Z" (-1017612000) transition_time 0x688-0x690 (8)
0x690|ff ff ff ff c4 51 a4 a0                        |.....Q..        |      [45]: "1938-04-10T02:00:00Z" (-1001282400) transition_time 0x690-0x698 (8)
0x690|                        ff ff ff ff c5 38 5b 20|        .....8[ |      [46]: "1938-10-02T02:00:00Z" (-986162400) transition_time 0x698-0x6a0 (8)
0x6a0|ff ff ff ff c6 3a c1 20                        |.....:.         |      [47]: "1939-04-16T02:00:00Z" (-969228000) transition_time 0x6a0-0x6a8 (8)
0x6a0|                        ff ff ff ff c7 58 d6 a0|        .....X..|      [48]: "1939-11-19T02:00:00Z" (-950479200) transition_time 0x6a8-0x6b0 (8)
0x6b0|ff ff ff ff c7 da 09 a0                        |........        |      [49]: "1940-02-25T02:00:00Z" (-942012000) transition_time 0x6b0-0x6b8 (8)
0x6b0|                        ff ff ff ff d4 49 e0 20|        .....I. |      [50]: "1946-10-06T02:00:00Z" (-733356000) transition_time 0x6b8-0x6c0 (8)
0x6c0|ff ff ff ff d5 1e 21 a0                        |......!.        |      [51]: "1947-03-16T02:00:00Z" (-719445600) transition_time 0x6c0-0x6c8 (8)
0x6c0|                        ff ff ff ff d6 4e ac 20|        .....N. |      [52]: "1947-11-02T02:00:00Z" (-699487200) transition_time 0x6c8-0x6d0 (8)
0x6d0|ff ff ff ff d7 2c 28 20                        |.....,(         |      [53]: "1948-04-18T02:00:00Z" (-684972000) transition_time 0x6d0-0x6d8 (8)
0x6d0|                        ff ff ff ff d8 2e 8e 20|        ....... |      [54]: "1948-10-31T02:00:00Z" (-668037600) transition_time 0x6d8-0x6e0 (8)
0x6e0|ff ff ff ff d8 f9 95 20                        |.......         |      [55]: "1949-04-03T02:00:00Z" (-654732000) transition_time 0x6e0-0x6e8 (8)
0x6e0|                        ff ff ff ff da 0e 70 20|        ......p |      [56]: "1949-10-30T02:00:00Z" (-636588000) transition_time 0x6e8-0x6f0 (8)
0x6f0|ff ff ff ff da eb ec 20                        |.......         |      [57]: "1950-04-16T02:00:00Z" (-622072800) transition_time 0x6f0-0x6f8 (8)
0x6f0|                        ff ff ff ff db e5 17 a0|        ........|      [58]: "1950-10-22T02:00:00Z" (-605743200) transition_time 0x6f8-0x700 (8)
0x700|ff ff ff ff dc cb ce 20                        |.......         |      [59]: "1951-04-15T02:00:00Z" (-590623200) transition_time 0x700-0x708 (8)
0x700|                        ff ff ff ff dd c4 f9 a0|        ........|      [60]: "1951-10-21T02:00:00Z" (-574293600) transition_time 0x708-0x710 (8)
0x710|ff ff ff ff de b4 ea a0                        |........        |      [61]: "1952-04-20T02:00:00Z" (-558568800) transition_time 0x710-0x718 (8)
0x710|                        ff ff ff ff df ae 16 20|        ....... |      [62]: "1952-10-26T02:00:00Z" (-542239200) transition_time 0x718-0x720 (8)
0x720|ff ff ff ff e0 94 cc a0                        |........        |      [63]: "1953-04-19T02:00:00Z" (-527119200) transition_time 0x720-0x728 (8)
0x720|                        ff ff ff ff e1 72 48 a0|        .....rH.|      [64]: "1953-10-04T02:00:00Z" (-512604000) transition_time 0x728-0x730 (8)
0x730|ff ff ff ff e2 6b 74 20                        |.....kt         |      [65]: "1954-04-11T02:00:00Z" (-496274400) transition_time 0x730-0x738 (8)
0x730|                        ff ff ff ff e3 52 2a a0|        .....R*.|      [66]: "1954-10-03T02:00:00Z" (-481154400) transition_time 0x738-0x740 (8)
0x740|ff ff ff ff e4 54 90 a0                        |.....T..        |      [67]: "1955-04-17T02:00:00Z" (-464220000) transition_time 0x740-0x748 (8)
0x740|                        ff ff ff ff e5 32 0c a0|        .....2..|      [68]: "1955-10-02T02:00:00Z" (-449704800) transition_time 0x748-0x750 (8)
0x750|ff ff ff ff e6 3d ad 20                        |.....=.         |      [69]: "1956-04-22T02:00:00Z" (-432165600) transition_time 0x750-0x758 (8)
0x750|                        ff ff ff ff e7 1b 29 20|        ......) |      [70]: "1956-10-07T02:00:00Z" (-417650400) transition_time 0x758-0x760 (8)
0x760|ff ff ff ff e8 14 54 a0                        |......T.        |      [71]: "1957-04-14T02:00:00Z" (-401320800) transition_time 0x760-0x768 (8)
0x760|                        ff ff ff ff e8 fb 0b 20|        ....... |      [72]: "1957-10-06T02:00:00Z" (-386200800) transition_time 0x768-0x770 (8)
0x770|ff ff ff ff e9 fd 71 20                        |......q         |      [73]: "1958-04-20T02:00:00Z" (-369266400) transition_time 0x770-0x778 (8)
0x770|                        ff ff ff ff ea da ed 20|        ....... |      [74]: "1958-10-05T02:00:00Z" (-354751200) transition_time 0x778-0x780 (8)
0x780|ff ff ff ff eb dd 53 20                        |......S         |      [75]: "1959-04-19T02:00:00Z" (-337816800) transition_time 0x780-0x788 (8)
0x780|                        ff ff ff ff ec ba cf 20|        ....... |      [76]: "1959-10-04T02:00:00Z" (-323301600) transition_time 0x788-0x790 (8)
0x790|ff ff ff ff ed b3 fa a0                        |........        |      [77]: "1960-04-10T02:00:00Z" (-306972000) transition_time 0x790-0x798 (8)
0x790|                        ff ff ff ff ee 9a b1 20|        ....... |      [78]: "1960-10-02T02:00:00Z" (-291852000) transition_time 0x798-0x7a0 (8)
0x7a0|ff ff ff ff ef 81 67 a0                        |......g.        |      [79]: "1961-03-26T02:00:00Z" (-276732000) transition_time 0x7a0-0x7a8 (8)
0x7a0|                        ff ff ff ff f0 9f 7d 20|        ......} |      [80]: "1961-10-29T02:00:00Z" (-257983200) transition_time 0x7a8-0x7b0 (8)
0x7b0|ff ff ff ff f1 61 49 a0                        |.....aI.        |      [81]: "1962-03-25T02:00:00Z" (-245282400) transition_time 0x7b0-0x7b8 (8)
0x7b0|                        ff ff ff ff f2 7f 5f 20|        ......_ |      [82]: "1962-10-28T02:00:00Z" (-226533600) transition_time 0x7b8-0x7c0 (8)
0x7c0|ff ff ff ff f3 4a 66 20                        |.....Jf         |      [83]: "1963-03-31T02:00:00Z" (-213228000) transition_time 0x7c0-0x7c8 (8)
0x7c0|                        ff ff ff ff f4 5f 41 20|        ....._A |      [84]: "1963-10-27T02:00:00Z" (-195084000) transition_time 0x7c8-0x7d0 (8)
0x7d0|ff ff ff ff f5 21 0d a0                        |.....!..        |      [85]: "1964-03-22T02:00:00Z" (-182383200) transition_time 0x7d0-0x7d8 (8)
0x7d0|                        ff ff ff ff f6 3f 23 20|        .....?# |      [86]: "1964-10-25T02:00:00Z" (-163634400) transition_time 0x7d8-0x7e0 (8)
0x7e0|ff ff ff ff f7 00 ef a0                        |........        |      [87]: "1965-03-21T02:00:00Z" (-150933600) transition_time 0x7e0-0x7e8 (8)
0x7e0|                        ff ff ff ff f8 1f 05 20|        ....... |      [88]: "1965-10-24T02:00:00Z" (-132184800) transition_time 0x7e8-0x7f0 (8)
0x7f0|ff ff ff ff f8 e0 d1 a0                        |........        |      [89]: "1966-03-20T02:00:00Z" (-119484000) transition_time 0x7f0-0x7f8 (8)
0x7f0|                        ff ff ff ff f9 fe e7 20|        ....... |      [90]: "1966-10-23T02:00:00Z" (-100735200) transition_time 0x7f8-0x800 (8)
0x800|ff ff ff ff fa c0 b3 a0                        |........        |      [91]: "1967-03-19T02:00:00Z" (-88034400) transition_time 0x800-0x808 (8)
0x800|                        ff ff ff ff fb e8 03 a0|        ........|      [92]: "1967-10-29T02:00:00Z" (-68680800) transition_time 0x808-0x810 (8)
0x810|ff ff ff ff fc 7b ab a0                        |.....{..        |      [93]: "1968-02-18T02:00:00Z" (-59004000) transition_time 0x810-0x818 (8)
0x810|                        ff ff ff ff fd c7 bb 70|        .......p|      [94]: "1968-10-26T23:00:00Z" (-37242000) transition_time 0x818-0x820 (8)
0x820|00 00 00 00 03 70 c6 20                        |.....p.         |      [95]: "1971-10-31T02:00:00Z" (57722400) transition_time 0x820-0x828 (8)
0x820|                        00 00 00 00 04 29 58 20|        .....)X |      [96]: "1972-03-19T02:00:00Z" (69818400) transition_time 0x828-0x830 (8)
0x830|00 00 00 00 05 50 a8 20                        |.....P.         |      [97]: "1972-10-29T02:00:00Z" (89172000) transition_time 0x830-0x838 (8)
0x830|                        00 00 00 00 06 09 3a 20|        ......: |      [98]: "1973-03-18T02:00:00Z" (101268000) transition_time 0x838-0x840 (8)
0x840|00 00 00 00 07 30 8a 20                        |.....0.         |      [99]: "1973-10-28T02:00:00Z" (120621600) transition_time 0x840-0x848 (8)
0x840|                        00 00 00 00 07 e9 1c 20|        ....... |      [100]: "1974-03-17T02:00:00Z" (132717600) transition_time 0x848-0x850 (8)
0x850|00 00 00 00 09 10 6c 20                        |......l         |      [101]: "1974-10-27T02:00:00Z" (152071200) transition_time 0x850-0x858 (8)
0x850|                        00 00 00 00 09 c8 fe 20|        ....... |      [102]: "1975-03-16T02:00:00Z" (164167200) transition_time 0x858-0x860 (8)
0x860|00 00 00 00 0a f0 4e 20                        |......N         |      [103]: "1975-10-26T02:00:00Z" (183520800) transition_time 0x860-0x868 (8)
0x860|                        00 00 00 00 0b b2 1a a0|        ........|      [104]: "1976-03-21T02:00:00Z" (196221600) transition_time 0x868-0x870 (8)
0x870|00 00 00 00 0c d0 30 20                        |......0         |      [105]: "1976-10-24T02:00:00Z" (214970400) transition_time 0x870-0x878 (8)
0x870|                        00 00 00 00 0d 91 fc a0|        ........|      [106]: "1977-03-20T02:00:00Z" (227671200) transition_time 0x878-0x880 (8)
0x880|00 00 00 00 0e b0 12 20                        |.......         |      [107]: "1977-10-23T02:00:00Z" (246420000) transition_time 0x880-0x888 (8)
0x880|                        00 00 00 00 0f 71 de a0|        .....q..|      [108]: "1978-03-19T02:00:00Z" (259120800) transition_time 0x888-0x890 (8)
0x890|00 00 00 00 10 99 2e a0                        |........        |      [109]: "1978-10-29T02:00:00Z" (278474400) transition_time 0x890-0x898 (8)
0x890|                        00 00 00 00 11 51 c0 a0|        .....Q..|      [110]: "1979-03-18T02:00:00Z" (290570400) transition_time 0x898-0x8a0 (8)
0x8a0|00 00 00 00 12 79 10 a0                        |.....y..        |      [111]: "1979-10-28T02:00:00Z" (309924000) transition_time 0x8a0-0x8a8 (8)
0x8a0|                        00 00 00 00 13 31 a2 a0|        .....1..|      [112]: "1980-03-16T02:00:00Z" (322020000) transition_time 0x8a8-0x8b0 (8)
0x8b0|00 00 00 00 14 58 f2 a0                        |.....X..        |      [113]: "1980-10-26T02:00:00Z" (341373600) transition_time 0x8b0-0x8b8 (8)
0x8b0|                        00 00 00 00 15 23 eb 90|        .....#..|      [114]: "1981-03-29T01:00:00Z" (354675600) transition_time 0x8b8-0x8c0 (8)
0x8c0|00 00 00 00 16 38 c6 90                        |.....8..        |      [115]: "1981-10-25T01:00:00Z" (372819600) transition_time 0x8c0-0x8c8 (8)
0x8c0|                        00 00 00 00 17 03 cd 90|        ........|      [116]: "1982-03-28T01:00:00Z" (386125200) transition_time 0x8c8-0x8d0 (8)
0x8d0|00 00 00 00 18 18 a8 90                        |........        |      [117]: "1982-10-24T01:00:00Z" (404269200) transition_time 0x8d0-0x8d8 (8)
0x8d0|                        00 00 00 00 18 e3 af 90|        ........|      [118]: "1983-03-27T01:00:00Z" (417574800) transition_time 0x8d8-0x8e0 (8)
0x8e0|00 00 00 00 19 f8 8a 90                        |........        |      [119]: "1983-10-23T01:00:00Z" (435718800) transition_time 0x8e0-0x8e8 (8)
0x8e0|                        00 00 00 00 1a c3 91 90|        ........|      [120]: "1984-03-25T01:00:00Z" (449024400) transition_time 0x8e8-0x8f0 (8)
0x8f0|00 00 00 00 1b e1 a7 10                        |........        |      [121]: "1984-10-28T01:00:00Z" (467773200) transition_time 0x8f0-0x8f8 (8)
0x8f0|                        00 00 00 00 1c ac ae 10|        ........|      [122]: "1985-03-31T01:00:00Z" (481078800) transition_time 0x8f8-0x900 (8)
0x900|00 00 00 00 1d c1 89 10                        |........        |      [123]: "1985-10-27T01:00:00Z" (499222800) transition_time 0x900-0x908 (8)
0x900|                        00 00 00 00 1e 8c 90 10|        ........|      [124]: "1986-03-30T01:00:00Z" (512528400) transition_time 0x908-0x910 (8)
0x910|00 00 00 00 1f a1 6b 10                        |......k.        |      [125]: "1986-10-26T01:00:00Z" (530672400) transition_time 0x910-0x918 (8)
0x910|                        00 00 00 00 20 6c 72 10|        .... lr.|      [126]: "1987-03-29T01:00:00Z" (543978000) transition_time 0x918-0x920 (8)
0x920|00 00 00 00 21 81 4d 10                        |....!.M.        |      [127]: "1987-10-25T01:00:00Z" (562122000) transition_time 0x920-0x928 (8)
0x920|                        00 00 00 00 22 4c 54 10|        ...."LT.|      [128]: "1988-03-27T01:00:00Z" (575427600) transition_time 0x928-0x930 (8)
0x930|00 00 00 00 23 61 2f 10                        |....#a/.        |      [129]: "1988-10-23T01:00:00Z" (593571600) transition_time 0x930-0x938 (8)
0x930|                        00 00 00 00 24 2c 36 10|        ....$,6.|      [130]: "1989-03-26T01:00:00Z" (606877200) transition_time 0x938-0x940 (8)
0x940|00 00 00 00 25 4a 4b 90                        |....%JK.        |      [131]: "1989-10-29T01:00:00Z" (625626000) transition_time 0x940-0x948 (8)
0x940|                        00 00 00 00 26 0c 18 10|        ....&...|      [132]: "1990-03-25T01:00:00Z" (638326800) transition_time 0x948-0x950 (8)
0x950|00 00 00 00 27 2a 2d 90                        |....'*-.        |      [133]: "1990-10-28T01:00:00Z" (657075600) transition_time 0x950-0x958 (8)
0x950|                        00 00 00 00 27 f5 34 90|        ....'.4.|      [134]: "1991-03-31T01:00:00Z" (670381200) transition_time 0x958-0x960 (8)
0x960|00 00 00 00 29 0a 0f 90                        |....)...        |      [135]: "1991-10-27T01:00:00Z" (688525200) transition_time 0x960-0x968 (8)
0x960|                        00 00 00 00 29 d5 16 90|        ....)...|      [136]: "1992-03-29T01:00:00Z" (701830800) transition_time 0x968-0x970 (8)
0x970|00 00 00 00 2a e9 f1 90                        |....*...        |      [137]: "1992-10-25T01:00:00Z" (719974800) transition_time 0x970-0x978 (8)
0x970|                        00 00 00 00 2b b4 f8 90|        ....+...|      [138]: "1993-03-28T01:00:00Z" (733280400) transition_time 0x978-0x980 (8)
0x980|00 00 00 00 2c c9 d3 90                        |....,...        |      [139]: "1993-10-24T01:00:00Z" (751424400) transition_time 0x980-0x988 (8)
0x980|                        00 00 00 00 2d 94 da 90|        ....-...|      [140]: "1994-03-27T01:00:00Z" (764730000) transition_time 0x988-0x990 (8)
0x990|00 00 00 00 2e a9 b5 90                        |........        |      [141]: "1994-10-23T01:00:00Z" (782874000) transition_time 0x990-0x998 (8)
0x990|                        00 00 00 00 2f 74 bc 90|        ..../t..|      [142]: "1995-03-26T01:00:00Z" (796179600) transition_time 0x998-0x9a0 (8)
0x9a0|00 00 00 00 30 89 97 90                        |....0...        |      [143]: "1995-10-22T01:00:00Z" (814323600) transition_time 0x9a0-0x9a8 (8)
0x9a0|                        00 00 00 00 31 5d d9 10|        ....1]..|      [144]: "1996-03-31T01:00:00Z" (828234000) transition_time 0x9a8-0x9b0 (8)
0x9b0|00 00 00 00 32 72 b4 10                        |....2r..        |      [145]: "1996-10-27T01:00:00Z" (846378000) transition_time 0x9b0-0x9b8 (8)
0x9b0|                        00 00 00 00 33 3d bb 10|        ....3=..|      [146]: "1997-03-30T01:00:00Z" (859683600) transition_time 0x9b8-0x9c0 (8)
0x9c0|00 00 00 00 34 52 96 10                        |....4R..        |      [147]: "1997-10-26T01:00:00Z" (877827600) transition_time 0x9c0-0x9c8 (8)
0x9c0|                        00 00 00 00 35 1d 9d 10|        ....5...|      [148]: "1998-03-29T01:00:00Z" (891133200) transition_time 0x9c8-0x9d0 (8)
0x9d0|00 00 00 00 36 32 78 10                        |....62x.        |      [149]: "1998-10-25T01:00:00Z" (909277200) transition_time 0x9d0-0x9d8 (8)
0x9d0|                        00 00 00 00 36 fd 7f 10|        ....6...|      [150]: "1999-03-28T01:00:00Z" (922582800) transition_time 0x9d8-0x9e0 (8)
0x9e0|00 00 00 00 38 1b 94 90                        |....8...        |      [151]: "1999-10-31T01:00:00Z" (941331600) transition_time 0x9e0-0x9e8 (8)
0x9e0|                        00 00 00 00 38 dd 61 10|        ....8.a.|      [152]: "2000-03-26T01:00:00Z" (954032400) transition_time 0x9e8-0x9f0 (8)
0x9f0|00 00 00 00 39 fb 76 90                        |....9.v.        |      [153]: "2000-10-29T01:00:00Z" (972781200) transition_time 0x9f0-0x9f8 (8)
0x9f0|                        00 00 00 00 3a bd 43 10|        ....:.C.|      [154]: "2001-03-25T01:00:00Z" (985482000) transition_time 0x9f8-0xa00 (8)
0xa00|00 00 00 00 3b db 58 90                        |....;.X.        |      [155]: "2001-10-28T01:00:00Z" (1004230800) transition_time 0xa00-0xa08 (8)
0xa00|                        00 00 00 00 3c a6 5f 90|        ....<._.|      [156]: "2002-03-31T01:00:00Z" (1017536400) transition_time 0xa08-0xa10 (8)
0xa10|00 00 00 00 3d bb 3a 90                        |....=.:.        |      [157]: "2002-10-27T01:00:00Z" (1035680400) transition_time 0xa10-0xa18 (8)
0xa10|                        00 00 00 00 3e 86 41 90|        ....>.A.|      [158]: "2003-03-30T01:00:00Z" (1048986000) transition_time 0xa18-0xa20 (8)
0xa20|00 00 00 00 3f 9b 1c 90                        |....?...        |      [159]: "2003-10-26T01:00:00Z" (1067130000) transition_time 0xa20-0xa28 (8)
0xa20|                        00 00 00 00 40 66 23 90|        ....@f#.|      [160]: "2004-03-28T01:00:00Z" (1080435600) transition_time 0xa28-0xa30 (8)
0xa30|00 00 00 00 41 84 39 10                        |....A.9.        |      [161]: "2004-10-31T01:00:00Z" (1099184400) transition_time 0xa30-0xa38 (8)
0xa30|                        00 00 00 00 42 46 05 90|        ....BF..|      [162]: "2005-03-27T01:00:00Z" (1111885200) transition_time 0xa38-0xa40 (8)
0xa40|00 00 00 00 43 64 1b 10                        |....Cd..        |      [163]: "2005-10-30T01:00:00Z" (1130634000) transition_time 0xa40-0xa48 (8)
0xa40|                        00 00 00 00 44 25 e7 90|        ....D%..|      [164]: "2006-03-26T01:00:00Z" (1143334800) transition_time 0xa48-0xa50 (8)
0xa50|00 00 00 00 45 43 fd 10                        |....EC..        |      [165]: "2006-10-29T01:00:00Z" (1162083600) transition_time 0xa50-0xa58 (8)
0xa50|                        00 00 00 00 46 05 c9 90|        ....F...|      [166]: "2007-03-25T01:00:00Z" (1174784400) transition_time 0xa58-0xa60 (8)
0xa60|00 00 00 00 47 23 df 10                        |....G#..        |      [167]: "2007-10-28T01:00:00Z" (1193533200) transition_time 0xa60-0xa68 (8)
0xa60|                        00 00 00 00 47 ee e6 10|        ....G...|      [168]: "2008-03-30T01:00:00Z" (1206838800) transition_time 0xa68-0xa70 (8)
0xa70|00 00 00 00 49 03 c1 10                        |....I...        |      [169]: "2008-10-26T01:00:00Z" (1224982800) transition_time 0xa70-0xa78 (8)
0xa70|                        00 00 00 00 49 ce c8 10|        ....I...|      [170]: "2009-03-29T01:00:00Z" (1238288400) transition_time 0xa78-0xa80 (8)
0xa80|00 00 00 00 4a e3 a3 10                        |....J...        |      [171]: "2009-10-25T01:00:00Z" (1256432400) transition_time 0xa80-0xa88 (8)
0xa80|                        00 00 00 00 4b ae aa 10|        ....K...|      [172]: "2010-03-28T01:00:00Z" (1269738000) transition_time 0xa88-0xa90 (8)
0xa90|00 00 00 00 4c cc bf 90                        |....L...        |      [173]: "2010-10-31T01:00:00Z" (1288486800) transition_time 0xa90-0xa98 (8)
0xa90|                        00 00 00 00 4d 8e 8c 10|        ....M...|      [174]: "2011-03-27T01:00:00Z" (1301187600) transition_time 0xa98-0xaa0 (8)
0xaa0|00 00 00 00 4e ac a1 90                        |....N...        |      [175]: "2011-10-30T01:00:00Z" (1319936400) transition_time 0xaa0-0xaa8 (8)
0xaa0|                        00 00 00 00 4f 6e 6e 10|        ....Onn.|      [176]: "2012-03-25T01:00:00Z" (1332637200) transition_time 0xaa8-0xab0 (8)
0xab0|00 00 00 00 50 8c 83 90                        |....P...        |      [177]: "2012-10-28T01:00:00Z" (1351386000) transition_time 0xab0-0xab8 (8)
0xab0|                        00 00 00 00 51 57 8a 90|        ....QW..|      [178]: "2013-03-31T01:00:00Z" (1364691600) transition_time 0xab8-0xac0 (8)
0xac0|00 00 00 00 52 6c 65 90                        |....Rle.        |      [179]: "2013-10-27T01:00:00Z" (1382835600) transition_time 0xac0-0xac8 (8)
0xac0|                        00 00 00 00 53 37 6c 90|        ....S7l.|      [180]: "2014-03-30T01:00:00Z" (1396141200) transition_time 0xac8-0xad0 (8)
0xad0|00 00 00 00 54 4c 47 90                        |....TLG.        |      [181]: "2014-10-26T01:00:00Z" (1414285200) transition_time 0xad0-0xad8 (8)
0xad0|                        00 00 00 00 55 17 4e 90|        ....U.N.|      [182]: "2015-03-29T01:00:00Z" (1427590800) transition_time 0xad8-0xae0 (8)
0xae0|00 00 00 00 56 2c 29 90                        |....V,).        |      [183]: "2015-10-25T01:00:00Z" (1445734800) transition_time 0xae0-0xae8 (8)
0xae0|                        00 00 00 00 56 f7 30 90|        ....V.0.|      [184]: "2016-03-27T01:00:00Z" (1459040400) transition_time 0xae8-0xaf0 (8)
0xaf0|00 00 00 00 58 15 46 10                        |....X.F.        |      [185]: "2016-10-30T01:00:00Z" (1477789200) transition_time 0xaf0-0xaf8 (8)
0xaf0|                        00 00 00 00 58 d7 12 90|        ....X...|      [186]: "2017-03-26T01:00:00Z" (1490490000) transition_time 0xaf8-0xb00 (8)
0xb00|00 00 00 00 59 f5 28 10                        |....Y.(.        |      [187]: "2017-10-29T01:00:00Z" (1509238800) transition_time 0xb00-0xb08 (8)
0xb00|                        00 00 00 00 5a b6 f4 90|        ....Z...|      [188]: "2018-03-25T01:00:00Z" (1521939600) transition_time 0xb08-0xb10 (8)
0xb10|00 00 00 00 5b d5 0a 10                        |....[...        |      [189]: "2018-10-28T01:00:00Z" (1540688400) transition_time 0xb10-0xb18 (8)
0xb10|                        00 00 00 00 5c a0 11 10|        ....\...|      [190]: "2019-03-31T01:00:00Z" (1553994000) transition_time 0xb18-0xb20 (8)
0xb20|00 00 00 00 5d b4 ec 10                        |....]...        |      [191]: "2019-10-27T01:00:00Z" (1572138000) transition_time 0xb20-0xb28 (8)
0xb20|                        00 00 00 00 5e 7f f3 10|        ....^...|      [192]: "2020-03-29T01:00:00Z" (1585443600) transition_time 0xb28-0xb30 (8)
0xb30|00 00 00 00 5f 94 ce 10                        |...._...        |      [193]: "2020-10-25T01:00:00Z" (1603587600) transition_time 0xb30-0xb38 (8)
0xb30|                        00 00 00 00 60 5f d5 10|        ....`_..|      [194]: "2021-03-28T01:00:00Z" (1616893200) transition_time 0xb38-0xb40 (8)
0xb40|00 00 00 00 61 7d ea 90                        |....a}..        |      [195]: "2021-10-31T01:00:00Z" (1635642000) transition_time 0xb40-0xb48 (8)
0xb40|                        00 00 00 00 62 3f b7 10|        ....b?..|      [196]: "2022-03-27T01:00:00Z" (1648342800) transition_time 0xb48-0xb50 (8)
0xb50|00 00 00 00 63 5d cc 90                        |....c]..        |      [197]: "2022-10-30T01:00:00Z" (1667091600) transition_time 0xb50-0xb58 (8)
0xb50|                        00 00 00 00 64 1f 99 10|        ....d...|      [198]: "2023-03-26T01:00:00Z" (1679792400) transition_time 0xb58-0xb60 (8)
0xb60|00 00 00 00 65 3d ae 90                        |....e=..        |      [199]: "2023-10-29T01:00:00Z" (1698541200) transition_time 0xb60-0xb68 (8)
0xb60|                        00 00 00 00 66 08 b5 90|        ....f...|      [200]: "2024-03-31T01:00:00Z" (1711846800) transition_time 0xb68-0xb70 (8)
0xb70|00 00 00 00 67 1d 90 90                        |....g...        |      [201]: "2024-10-27T01:00:00Z" (1729990800) transition_time 0xb70-0xb78 (8)
0xb70|                        00 00 00 00 67 e8 97 90|        ....g...|      [202]: "2025-03-30T01:00:00Z" (1743296400) transition_time 0xb78-0xb80 (8)
0xb80|00 00 00 00 68 fd 72 90                        |....h.r.        |      [203]: "2025-10-26T01:00:00Z" (1761440400) transition_time 0xb80-0xb88 (8)
0xb80|                        00 00 00 00 69 c8 79 90|        ....i.y.|      [204]: "2026-03-29T01:00:00Z" (1774746000) transition_time 0xb88-0xb90 (8)
0xb90|00 00 00 00 6a dd 54 90                        |....j.T.        |      [205]: "2026-10-25T01:00:00Z" (1792890000) transition_time 0xb90-0xb98 (8)
0xb90|                        00 00 00 00 6b a8 5b 90|        ....k.[.|      [206]: "2027-03-28T01:00:00Z" (1806195600) transition_time 0xb98-0xba0 (8)
0xba0|00 00 00 00 6c c6 71 10                        |....l.q.        |      [207]: "2027-10-31T01:00:00Z" (1824944400) transition_time 0xba0-0xba8 (8)
0xba0|                        00 00 00 00 6d 88 3d 90|        ....m.=.|      [208]: "2028-03-26T01:00:00Z" (1837645200) transition_time 0xba8-0xbb0 (8)
0xbb0|00 00 00 00 6e a6 53 10                        |....n.S.        |      [209]: "2028-10-29T01:00:00Z" (1856394000) transition_time 0xbb0-0xbb8 (8)
0xbb0|                        00 00 00 00 6f 68 1f 90|        ....oh..|      [210]: "2029-03-25T01:00:00Z" (1869094800) transition_time 0xbb8-0xbc0 (8)
0xbc0|00 00 00 00 70 86 35 10                        |....p.5.        |      [211]: "2029-10-28T01:00:00Z" (1887843600) transition_time 0xbc0-0xbc8 (8)
0xbc0|                        00 00 00 00 71 51 3c 10|        ....qQ<.|      [212]: "2030-03-31T01:00:00Z" (1901149200) transition_time 0xbc8-0xbd0 (8)
0xbd0|00 00 00 00 72 66 17 10                        |....rf..        |      [213]: "2030-10-27T01:00:00Z" (1919293200) transition_time 0xbd0-0xbd8 (8)
0xbd0|                        00 00 00 00 73 31 1e 10|        ....s1..|      [214]: "2031-03-30T01:00:00Z" (1932598800) transition_time 0xbd8-0xbe0 (8)
0xbe0|00 00 00 00 74 45 f9 10                        |....tE..        |      [215]: "2031-10-26T01:00:00Z" (1950742800) transition_time 0xbe0-0xbe8 (8)
0xbe0|                        00 00 00 00 75 11 00 10|        ....u...|      [216]: "2032-03-28T01:00:00Z" (1964048400) transition_time 0xbe8-0xbf0 (8)
0xbf0|00 00 00 00 76 2f 15 90                        |....v/..        |      [217]: "2032-10-31T01:00:00Z" (1982797200) transition_time 0xbf0-0xbf8 (8)
0xbf0|                        00 00 00 00 76 f0 e2 10|        ....v...|      [218]: "2033-03-27T01:00:00Z" (1995498000) transition_time 0xbf8-0xc00 (8)
0xc00|00 00 00 00 78 0e f7 90                        |....x...        |      [219]: "2033-10-30T01:00:00Z" (2014246800) transition_time 0xc00-0xc08 (8)
0xc00|                        00 00 00 00 78 d0 c4 10|        ....x...|      [220]: "2034-03-26T01:00:00Z" (2026947600) transition_time 0xc08-0xc10 (8)
0xc10|00 00 00 00 79 ee d9 90                        |....y...        |      [221]: "2034-10-29T01:00:00Z" (2045696400) transition_time 0xc10-0xc18 (8)
0xc10|                        00 00 00 00 7a b0 a6 10|        ....z...|      [222]: "2035-03-25T01:00:00Z" (2058397200) transition_time 0xc18-0xc20 (8)
0xc20|00 00 00 00 7b ce bb 90                        |....{...        |      [223]: "2035-10-28T01:00:00Z" (2077146000) transition_time 0xc20-0xc28 (8)
0xc20|                        00 00 00 00 7c 99 c2 90|        ....|...|      [224]: "2036-03-30T01:00:00Z" (2090451600) transition_time 0xc28-0xc30 (8)
0xc30|00 00 00 00 7d ae 9d 90                        |....}...        |      [225]: "2036-10-26T01:00:00Z" (2108595600) transition_time 0xc30-0xc38 (8)
0xc30|                        00 00 00 00 7e 79 a4 90|        ....~y..|      [226]: "2037-03-29T01:00:00Z" (2121901200) transition_time 0xc38-0xc40 (8)
0xc40|00 00 00 00 7f 8e 7f 90                        |........        |      [227]: "2037-10-25T01:00:00Z" (2140045200) transition_time 0xc40-0xc48 (8)
     |                                               |                |    transition_types[0:228]: 0xc48-0xd2c (228)
0xc40|                        01                     |        .       |      [0]: 1 transition_type 0xc48-0xc49 (1)
0xc40|                           02                  |         .      |      [1]: 2 transition_type 0xc49-0xc4a (1)
0xc40|                              04               |          .     |      [2]: 4 transition_type 0xc4a-0xc4b (1)
0xc40|                                 03            |           .    |      [3]: 3 transition_type 0xc4b-0xc4c (1)
0xc40|                                    04         |            .   |      [4]: 4 transition_type 0xc4c-0xc4d (1)
0xc40|                                       03      |             .  |      [5]: 3 transition_type 0xc4d-0xc4e (1)
0xc40|                                          04   |              . |      [6]: 4 transition_type 0xc4e-0xc4f (1)
0xc40|                                             03|               .|      [7]: 3 transition_type 0xc4f-0xc50 (1)
0xc50|04                                             |.               |      [8]: 4 transition_type 0xc50-0xc51 (1)
0xc50|   03                                          | .              |      [9]: 3 transition_type 0xc51-0xc52 (1)
0xc50|      04                                       |  .             |      [10]: 4 transition_type 0xc52-0xc53 (1)
0xc50|         03                                    |   .            |      [11]: 3 transition_type 0xc53-0xc54 (1)
0xc50|            04                                 |    .           |      [12]: 4 transition_type 0xc54-0xc55 (1)
0xc50|               05                              |     .          |      [13]: 5 transition_type 0xc55-0xc56 (1)
0xc50|                  04                           |      .         |      [14]: 4 transition_type 0xc56-0xc57 (1)
0xc50|                     05                        |       .        |      [15]: 5 transition_type 0xc57-0xc58 (1)
0xc50|                        04                     |        .       |      [16]: 4 transition_type 0xc58-0xc59 (1)
0xc50|                           05                  |         .      |      [17]: 5 transition_type 0xc59-0xc5a (1)
0xc50|                              04               |          .     |      [18]: 4 transition_type 0xc5a-0xc5b (1)
0xc50|                                 05            |           .    |      [19]: 5 transition_type 0xc5b-0xc5c (1)
0xc50|                                    04         |            .   |      [20]: 4 transition_type 0xc5c-0xc5d (1)
0xc50|                                       05      |             .  |      [21]: 5 transition_type 0xc5d-0xc5e (1)
0xc50|                                          04   |              . |      [22]: 4 transition_type 0xc5e-0xc5f (1)
0xc50|                                             05|               .|      [23]: 5 transition_type 0xc5f-0xc60 (1)
0xc60|04                                             |.               |      [24]: 4 transition_type 0xc60-0xc61 (1)
0xc60|   05                                          | .              |      [25]: 5 transition_type 0xc61-0xc62 (1)
0xc60|      04                                       |  .             |      [26]: 4 transition_type 0xc62-0xc63 (1)
0xc60|         05                                    |   .            |      [27]: 5 transition_type 0xc63-0xc64 (1)
0xc60|            04                                 |    .           |      [28]: 4 transition_type 0xc64-0xc65 (1)
0xc60|               05                              |     .          |      [29]: 5 transition_type 0xc65-0xc66 (1)
0xc60|                  04                           |      .         |      [30]: 4 transition_type 0xc66-0xc67 (1)
0xc60|                     05                        |       .        |      [31]: 5 transition_type 0xc67-0xc68 (1)
0xc60|                        04                     |        .       |      [32]: 4 transition_type 0xc68-0xc69 (1)
0xc60|                           05                  |         .      |      [33]: 5 transition_type 0xc69-0xc6a (1)
0xc60|                              04               |          .     |      [34]: 4 transition_type 0xc6a-0xc6b (1)
0xc60|                                 05            |           .    |      [35]: 5 transition_type 0xc6b-0xc6c (1)
0xc60|                                    04         |            .   |      [36]: 4 transition_type 0xc6c-0xc6d (1)
0xc60|                                       05      |             .  |      [37]: 5 transition_type 0xc6d-0xc6e (1)
0xc60|                                          04   |              . |      [38]: 4 transition_type 0xc6e-0xc6f (1)
0xc60|                                             05|               .|      [39]: 5 transition_type 0xc6f-0xc70 (1)
0xc70|04                                             |.               |      [40]: 4 transition_type 0xc70-0xc71 (1)
0xc70|   05                                          | .              |      [41]: 5 transition_type 0xc71-0xc72 (1)
0xc70|      04                                       |  .             |      [42]: 4 transition_type 0xc72-0xc73 (1)
0xc70|         05                                    |   .            |      [43]: 5 transition_type 0xc73-0xc74 (1)
0xc70|            04                                 |    .           |      [44]: 4 transition_type 0xc74-0xc75 (1)
0xc70|               05                              |     .          |      [45]: 5 transition_type 0xc75-0xc76 (1)
0xc70|                  04                           |      .         |      [46]: 4 transition_type 0xc76-0xc77 (1)
0xc70|                     05                        |       .        |      [47]: 5 transition_type 0xc77-0xc78 (1)
0xc70|                        04                     |        .       |      [48]: 4 transition_type 0xc78-0xc79 (1)
0xc70|                           05                  |         .      |      [49]: 5 transition_type 0xc79-0xc7a (1)
0xc70|                              04               |          .     |      [50]: 4 transition_type 0xc7a-0xc7b (1)
0xc70|                                 05            |           .    |      [51]: 5 transition_type 0xc7b-0xc7c (1)
0xc70|                                    04         |            .   |      [52]: 4 transition_type 0xc7c-0xc7d (1)
0xc70|                                       05      |             .  |      [53]: 5 transition_type 0xc7d-0xc7e (1)
0xc70|                                          04   |              . |      [54]: 4 transition_type 0xc7e-0xc7f (1)
0xc70|                                             05|               .|      [55]: 5 transition_type 0xc7f-0xc80 (1)
0xc80|04                                             |.               |      [56]: 4 transition_type 0xc80-0xc81 (1)
0xc80|   05                                          | .              |      [57]: 5 transition_type 0xc81-0xc82 (1)
0xc80|      04                                       |  .             |      [58]: 4 transition_type 0xc82-0xc83 (1)
0xc80|         05                                    |   .            |      [59]: 5 transition_type 0xc83-0xc84 (1)
0xc80|            04                                 |    .           |      [60]: 4 transition_type 0xc84-0xc85 (1)
0xc80|               05                              |     .          |      [61]: 5 transition_type 0xc85-0xc86 (1)
0xc80|                  04                           |      .         |      [62]: 4 transition_type 0xc86-0xc87 (1)
0xc80|                     05                        |       .        |      [63]: 5 transition_type 0xc87-0xc88 (1)
0xc80|                        04                     |        .       |      [64]: 4 transition_type 0xc88-0xc89 (1)
0xc80|                           05                  |         .      |      [65]: 5 transition_type 0xc89-0xc8a (1)
0xc80|                              04               |          .     |      [66]: 4 transition_type 0xc8a-0xc8b (1)
0xc80|                                 05            |           .    |      [67]: 5 transition_type 0xc8b-0xc8c (1)
0xc80|                                    04         |            .   |      [68]: 4 transition_type 0xc8c-0xc8d (1)
0xc80|                                       05      |             .  |      [69]: 5 transition_type 0xc8d-0xc8e (1)
0xc80|                                          04   |              . |      [70]: 4 transition_type 0xc8e-0xc8f (1)
0xc80|                                             05|               .|      [71]: 5 transition_type 0xc8f-0xc90 (1)
0xc90|04                                             |.               |      [72]: 4 transition_type 0xc90-0xc91 (1)
0xc90|   05                                          | .              |      [73]: 5 transition_type 0xc91-0xc92 (1)
0xc90|      04                                       |  .             |      [74]: 4 transition_type 0xc92-0xc93 (1)
0xc90|         05                                    |   .            |      [75]: 5 transition_type 0xc93-0xc94 (1)
0xc90|            04                                 |    .           |      [76]: 4 transition_type 0xc94-0xc95 (1)
0xc90|               05                              |     .          |      [77]: 5 transition_type 0xc95-0xc96 (1)
0xc90|                  04                           |      .         |      [78]: 4 transition_type 0xc96-0xc97 (1)
0xc90|                     05                        |       .        |      [79]: 5 transition_type 0xc97-0xc98 (1)
0xc90|                        04                     |        .       |      [80]: 4 transition_type 0xc98-0xc99 (1)
0xc90|                           05                  |         .      |      [81]: 5 transition_type 0xc99-0xc9a (1)
0xc90|                              04               |          .     |      [82]: 4 transition_type 0xc9a-0xc9b (1)
0xc90|                                 05            |           .    |      [83]: 5 transition_type 0xc9b-0xc9c (1)
0xc90|                                    04         |            .   |      [84]: 4 transition_type 0xc9c-0xc9d (1)
0xc90|                                       05      |             .  |      [85]: 5 transition_type 0xc9d-0xc9e (1)
0xc90|                                          04   |              . |      [86]: 4 transition_type 0xc9e-0xc9f (1)
0xc90|                                             05|               .|      [87]: 5 transition_type 0xc9f-0xca0 (1)
0xca0|04                                             |.               |      [88]: 4 transition_type 0xca0-0xca1 (1)
0xca0|   05                                          | .              |      [89]: 5 transition_type 0xca1-0xca2 (1)
0xca0|      04                                       |  .             |      [90]: 4 transition_type 0xca2-0xca3 (1)
0xca0|         05                                    |   .            |      [91]: 5 transition_type 0xca3-0xca4 (1)
0xca0|            04                                 |    .           |      [92]: 4 transition_type 0xca4-0xca5 (1)
0xca0|               05                              |     .          |      [93]: 5 transition_type 0xca5-0xca6 (1)
0xca0|                  08                           |      .         |      [94]: 8 transition_type 0xca6-0xca7 (1)
0xca0|                     06                        |       .        |      [95]: 6 transition_type 0xca7-0xca8 (1)
0xca0|                        07                     |        .       |      [96]: 7 transition_type 0xca8-0xca9 (1)
0xca0|                           06                  |         .      |      [97]: 6 transition_type 0xca9-0xcaa (1)
0xca0|                              07               |          .     |      [98]: 7 transition_type 0xcaa-0xcab (1)
0xca0|                                 06            |           .    |      [99]: 6 transition_type 0xcab-0xcac (1)
0xca0|                                    07         |            .   |      [100]: 7 transition_type 0xcac-0xcad (1)
0xca0|                                       06      |             .  |      [101]: 6 transition_type 0xcad-0xcae (1)
0xca0|                                          07   |              . |      [102]: 7 transition_type 0xcae-0xcaf (1)
0xca0|                                             06|               .|      [103]: 6 transition_type 0xcaf-0xcb0 (1)
0xcb0|07                                             |.               |      [104]: 7 transition_type 0xcb0-0xcb1 (1)
0xcb0|   06                                          | .              |      [105]: 6 transition_type 0xcb1-0xcb2 (1)
0xcb0|      07                                       |  .             |      [106]: 7 transition_type 0xcb2-0xcb3 (1)
0xcb0|         06                                    |   .            |      [107]: 6 transition_type 0xcb3-0xcb4 (1)
0xcb0|            07                                 |    .           |      [108]: 7 transition_type 0xcb4-0xcb5 (1)
0xcb0|               06                              |     .          |      [109]: 6 transition_type 0xcb5-0xcb6 (1)
0xcb0|                  07                           |      .         |      [110]: 7 transition_type 0xcb6-0xcb7 (1)
0xcb0|                     06                        |       .        |      [111]: 6 transition_type 0xcb7-0xcb8 (1)
0xcb0|                        07                     |        .       |      [112]: 7 transition_type 0xcb8-0xcb9 (1)
0xcb0|                           06                  |         .      |      [113]: 6 transition_type 0xcb9-0xcba (1)
0xcb0|                              07               |          .     |      [114]: 7 transition_type 0xcba-0xcbb (1)
0xcb0|                                 06            |           .    |      [115]: 6 transition_type 0xcbb-0xcbc (1)
0xcb0|                                    07         |            .   |      [116]: 7 transition_type 0xcbc-0xcbd (1)
0xcb0|                                       06      |             .  |      [117]: 6 transition_type 0xcbd-0xcbe (1)
0xcb0|                                          07   |              . |      [118]: 7 transition_type 0xcbe-0xcbf (1)
0xcb0|                                             06|               .|      [119]: 6 transition_type 0xcbf-0xcc0 (1)
0xcc0|07                                             |.               |      [120]: 7 transition_type 0xcc0-0xcc1 (1)
0xcc0|   06                                          | .              |      [121]: 6 transition_type 0xcc1-0xcc2 (1)
0xcc0|      07                                       |  .             |      [122]: 7 transition_type 0xcc2-0xcc3 (1)
0xcc0|         06                                    |   .            |      [123]: 6 transition_type 0xcc3-0xcc4 (1)
0xcc0|            07                                 |    .           |      [124]: 7 transition_type 0xcc4-0xcc5 (1)
0xcc0|               06                              |     .          |      [125]: 6 transition_type 0xcc5-0xcc6 (1)
0xcc0|                  07                           |      .         |      [126]: 7 transition_type 0xcc6-0xcc7 (1)
0xcc0|                     06                        |       .        |      [127]: 6 transition_type 0xcc7-0xcc8 (1)
0xcc0|                        07                     |        .       |      [128]: 7 transition_type 0xcc8-0xcc9 (1)
0xcc0|                           06                  |         .      |      [129]: 6 transition_type 0xcc9-0xcca (1)
0xcc0|                              07               |          .     |      [130]: 7 transition_type 0xcca-0xccb (1)
0xcc0|                                 06            |           .    |      [131]: 6 transition_type 0xccb-0xccc (1)
0xcc0|                                    07         |            .   |      [132]: 7 transition_type 0xccc-0xccd (1)
0xcc0|                                       06      |             .  |      [133]: 6 transition_type 0xccd-0xcce (1)
0xcc0|                                          07   |              . |      [134]: 7 transition_type 0xcce-0xccf (1)
0xcc0|                                             06|               .|      [135]: 6 transition_type 0xccf-0xcd0 (1)
0xcd0|07                                             |.               |      [136]: 7 transition_type 0xcd0-0xcd1 (1)
0xcd0|   06                                          | .              |      [137]: 6 transition_type 0xcd1-0xcd2 (1)
0xcd0|      07                                       |  .             |      [138]: 7 transition_type 0xcd2-0xcd3 (1)
0xcd0|         06                                    |   .            |      [139]: 6 transition_type 0xcd3-0xcd4 (1)
0xcd0|            07                                 |    .           |      [140]: 7 transition_type 0xcd4-0xcd5 (1)
0xcd0|               06                              |     .          |      [141]: 6 transition_type 0xcd5-0xcd6 (1)
0xcd0|                  07                           |      .         |      [142]: 7 transition_type 0xcd6-0xcd7 (1)
0xcd0|                     06                        |       .        |      [143]: 6 transition_type 0xcd7-0xcd8 (1)
0xcd0|                        07                     |        .       |      [144]: 7 transition_type 0xcd8-0xcd9 (1)
0xcd0|                           06                  |         .      |      [145]: 6 transition_type 0xcd9-0xcda (1)
0xcd0|                              07               |          .     |      [146]: 7 transition_type 0xcda-0xcdb (1)
0xcd0|                                 06            |           .    |      [147]: 6 transition_type 0xcdb-0xcdc (1)
0xcd0|                                    07         |            .   |      [148]: 7 transition_type 0xcdc-0xcdd (1)
0xcd0|                                       06      |             .  |      [149]: 6 transition_type 0xcdd-0xcde (1)
0xcd0|                                          07   |              . |      [150]: 7 transition_type 0xcde-0xcdf (1)
0xcd0|                                             06|               .|      [151]: 6 transition_type 0xcdf-0xce0 (1)
0xce0|07                                             |.               |      [152]: 7 transition_type 0xce0-0xce1 (1)
0xce0|   06                                          | .              |      [153]: 6 transition_type 0xce1-0xce2 (1)
0xce0|      07                                       |  .             |      [154]: 7 transition_type 0xce2-0xce3 (1)
0xce0|         06                                    |   .            |      [155]: 6 transition_type 0xce3-0xce4 (1)
0xce0|            07                                 |    .           |      [156]: 7 transition_type 0xce4-0xce5 (1)
0xce0|               06                              |     .          |      [157]: 6 transition_type 0xce5-0xce6 (1)
0xce0|                  07                           |      .         |      [158]: 7 transition_type 0xce6-0xce7 (1)
0xce0|                     06                        |       .        |      [159]: 6 transition_type 0xce7-0xce8 (1)
0xce0|                        07                     |        .       |      [160]: 7 transition_type 0xce8-0xce9 (1)
0xce0|                           06                  |         .      |      [161]: 6 transition_type 0xce9-0xcea (1)
0xce0|                              07               |          .     |      [162]: 7 transition_type 0xcea-0xceb (1)
0xce0|                                 06            |           .    |      [163]: 6 transition_type 0xceb-0xcec (1)
0xce0|                                    07         |            .   |      [164]: 7 transition_type 0xcec-0xced (1)
0xce0|                                       06      |             .  |      [165]: 6 transition_type 0xced-0xcee (1)
0xce0|                                          07   |              . |      [166]: 7 transition_type 0xcee-0xcef (1)
0xce0|                                             06|               .|      [167]: 6 transition_type 0xcef-0xcf0 (1)
0xcf0|07                                             |.               |      [168]: 7 transition_type 0xcf0-0xcf1 (1)
0xcf0|   06                                          | .              |      [169]: 6 transition_type 0xcf1-0xcf2 (1)
0xcf0|      07                                       |  .             |      [170]: 7 transition_type 0xcf2-0xcf3 (1)
0xcf0|         06                                    |   .            |      [171]: 6 transition_type 0xcf3-0xcf4 (1)
0xcf0|            07                                 |    .           |      [172]: 7 transition_type 0xcf4-0xcf5 (1)
0xcf0|               06                              |     .          |      [173]: 6 transition_type 0xcf5-0xcf6 (1)
0xcf0|                  07                           |      .         |      [174]: 7 transition_type 0xcf6-0xcf7 (1)
0xcf0|                     06                        |       .        |      [175]: 6 transition_type 0xcf7-0xcf8 (1)
0xcf0|                        07                     |        .       |      [176]: 7 transition_type 0xcf8-0xcf9 (1)
0xcf0|                           06                  |         .      |      [177]: 6 transition_type 0xcf9-0xcfa (1)
0xcf0|                              07               |          .     |      [178]: 7 transition_type 0xcfa-0xcfb (1)
0xcf0|                                 06            |           .    |      [179]: 6 transition_type 0xcfb-0xcfc (1)
0xcf0|                                    07         |            .   |      [180]: 7 transition_type 0xcfc-0xcfd (1)
0xcf0|                                       06      |             .  |      [181]: 6 transition_type 0xcfd-0xcfe (1)
0xcf0|                                          07   |              . |      [182]: 7 transition_type 0xcfe-0xcff (1)
0xcf0|                                             06|               .|      [183]: 6 transition_type 0xcff-0xd00 (1)
0xd00|07                                             |.               |      [184]: 7 transition_type 0xd00-0xd01 (1)
0xd00|   06                                          | .              |      [185]: 6 transition_type 0xd01-0xd02 (1)
0xd00|      07                                       |  .             |      [186]: 7 transition_type 0xd02-0xd03 (1)
0xd00|         06                                    |   .            |      [187]: 6 transition_type 0xd03-0xd04 (1)
0xd00|            07                                 |    .           |      [188]: 7 transition_type 0xd04-0xd05 (1)
0xd00|               06                              |     .          |      [189]: 6 transition_type 0xd05-0xd06 (1)
0xd00|                  07                           |      .         |      [190]: 7 transition_type 0xd06-0xd07 (1)
0xd00|                     06                        |       .        |      [191]: 6 transition_type 0xd07-0xd08 (1)
0xd00|                        07                     |        .       |      [192]: 7 transition_type 0xd08-0xd09 (1)
0xd00|                           06                  |         .      |      [193]: 6 transition_type 0xd09-0xd0a (1)
0xd00|                              07               |          .     |      [194]: 7 transition_type 0xd0a-0xd0b (1)
0xd00|                                 06            |           .    |      [195]: 6 transition_type 0xd0b-0xd0c (1)
0xd00|                                    07         |            .   |      [196]: 7 transition_type 0xd0c-0xd0d (1)
0xd00|                                       06      |             .  |      [197]: 6 transition_type 0xd0d-0xd0e (1)
0xd00|                                          07   |              . |      [198]: 7 transition_type 0xd0e-0xd0f (1)
0xd00|                                             06|               .|      [199]: 6 transition_type 0xd0f-0xd10 (1)
0xd10|07                                             |.               |      [200]: 7 transition_type 0xd10-0xd11 (1)
0xd10|   06                                          | .              |      [201]: 6 transition_type 0xd11-0xd12 (1)
0xd10|      07                                       |  .             |      [202]: 7 transition_type 0xd12-0xd13 (1)
0xd10|         06                                    |   .            |      [203]: 6 transition_type 0xd13-0xd14 (1)
0xd10|            07                                 |    .           |      [204]: 7 transition_type 0xd14-0xd15 (1)
0xd10|               06                              |     .          |      [205]: 6 transition_type 0xd15-0xd16 (1)
0xd10|                  07                           |      .         |      [206]: 7 transition_type 0xd16-0xd17 (1)
0xd10|                     06                        |       .        |      [207]: 6 transition_type 0xd17-0xd18 (1)
0xd10|                        07                     |        .       |      [208]: 7 transition_type 0xd18-0xd19 (1)
0xd10|                           06                  |         .      |      [209]: 6 transition_type 0xd19-0xd1a (1)
0xd10|                              07               |          .     |      [210]: 7 transition_type 0xd1a-0xd1b (1)
0xd10|                                 06            |           .    |      [211]: 6 transition_type 0xd1b-0xd1c (1)
0xd10|                                    07         |            .   |      [212]: 7 transition_type 0xd1c-0xd1d (1)
0xd10|                                       06      |             .  |      [213]: 6 transition_type 0xd1d-0xd1e (1)
0xd10|                                          07   |              . |      [214]: 7 transition_type 0xd1e-0xd1f (1)
0xd10|                                             06|               .|      [215]: 6 transition_type 0xd1f-0xd20 (1)
0xd20|07                                             |.               |      [216]: 7 transition_type 0xd20-0xd21 (1)
0xd20|   06                                          | .              |      [217]: 6 transition_type 0xd21-0xd22 (1)
0xd20|      07                                       |  .             |      [218]: 7 transition_type 0xd22-0xd23 (1)
0xd20|         06                                    |   .            |      [219]: 6 transition_type 0xd23-0xd24 (1)
0xd20|            07                                 |    .           |      [220]: 7 transition_type 0xd24-0xd25 (1)
0xd20|               06                              |     .          |      [221]: 6 transition_type 0xd25-0xd26 (1)
0xd20|                  07                           |      .         |      [222]: 7 transition_type 0xd26-0xd27 (1)
0xd20|                     06                        |       .        |      [223]: 6 transition_type 0xd27-0xd28 (1)
0xd20|                        07                     |        .       |      [224]: 7 transition_type 0xd28-0xd29 (1)
0xd20|                           06                  |         .      |      [225]: 6 transition_type 0xd29-0xd2a (1)
0xd20|                              07               |          .     |      [226]: 7 transition_type 0xd2a-0xd2b (1)
0xd20|                                 06            |           .    |      [227]: 6 transition_type 0xd2b-0xd2c (1)
     |                                               |                |    local_time_type_records[0:9]: 0xd2c-0xd62 (54)
     |                                               |                |      [0]{}: local_time_type 0xd2c-0xd32 (6)
0xd20|                                    ff ff fa 0f|            ....|        utoff: -1521 (valid) 0xd2c-0xd30 (4)
0xd30|00                                             |.               |        dst: 0 (valid) 0xd30-0xd31 (1)
0xd30|   00                                          | .              |        idx: 0 (valid) 0xd31-0xd32 (1)
     |                                               |                |      [1]{}: local_time_type 0xd32-0xd38 (6)
0xd30|      ff ff fa 0f                              |  ....          |        utoff: -1521 (valid) 0xd32-0xd36 (4)
0xd30|                  00                           |      .         |        dst: 0 (valid) 0xd36-0xd37 (1)
0xd30|                     04                        |       .        |        idx: 4 (valid) 0xd37-0xd38 (1)
     |                                               |                |      [2]{}: local_time_type 0xd38-0xd3e (6)
0xd30|                        00 00 08 1f            |        ....    |        utoff: 2079 (valid) 0xd38-0xd3c (4)
0xd30|                                    01         |            .   |        dst: 1 (valid) 0xd3c-0xd3d (1)
0xd30|                                       08      |             .  |        idx: 8 (valid) 0xd3d-0xd3e (1)
     |                                               |                |      [3]{}: local_time_type 0xd3e-0xd44 (6)
0xd30|                                          00 00|              ..|        utoff: 3600 (valid) 0xd3e-0xd42 (4)
0xd40|0e 10                                          |..              |
0xd40|      01                                       |  .             |        dst: 1 (valid) 0xd42-0xd43 (1)
0xd40|         0c                                    |   .            |        idx: 12 (valid) 0xd43-0xd44 (1)
     |                                               |                |      [4]{}: local_time_type 0xd44-0xd4a (6)
0xd40|            00 00 00 00                        |    ....        |        utoff: 0 (valid) 0xd44-0xd48 (4)
0xd40|                        00                     |        .       |        dst: 0 (valid) 0xd48-0xd49 (1)
0xd40|                           10                  |         .      |        idx: 16 (valid) 0xd49-0xd4a (1)
     |                                               |                |      [5]{}: local_time_type 0xd4a-0xd50 (6)
0xd40|                              00 00 0e 10      |          ....  |        utoff: 3600 (valid) 0xd4a-0xd4e (4)
0xd40|                                          01   |              . |        dst: 1 (valid) 0xd4e-0xd4f (1)
0xd40|                                             08|               .|        idx: 8 (valid) 0xd4f-0xd50 (1)
     |                                               |                |      [6]{}: local_time_type 0xd50-0xd56 (6)
0xd50|00 00 00 00                                    |....            |        utoff: 0 (valid) 0xd50-0xd54 (4)
0xd50|            01                                 |    .           |        dst: 1 (valid) 0xd54-0xd55 (1)
0xd50|               10                              |     .          |        idx: 16 (valid) 0xd55-0xd56 (1)
     |                                               |                |      [7]{}: local_time_type 0xd56-0xd5c (6)
0xd50|                  00 00 0e 10                  |      ....      |        utoff: 3600 (valid) 0xd56-0xd5a (4)
0xd50|                              00               |          .     |        dst: 0 (valid) 0xd5a-0xd5b (1)
0xd50|                                 08            |           .    |        idx: 8 (valid) 0xd5b-0xd5c (1)
     |                                               |                |      [8]{}: local_time_type 0xd5c-0xd62 (6)
0xd50|                                    00 00 0e 10|            ....|        utoff: 3600 (valid) 0xd5c-0xd60 (4)
0xd60|00                                             |.               |        dst: 0 (valid) 0xd60-0xd61 (1)
0xd60|   08                                          | .              |        idx: 8 (valid) 0xd61-0xd62 (1)
     |                                               |                |    time_zone_designations[0:5]: 0xd62-0xd76 (20)
0xd60|      4c 4d 54 00                              |  LMT.          |      [0]: "LMT" time_zone_designation 0xd62-0xd66 (4)
0xd60|                  44 4d 54 00                  |      DMT.      |      [1]: "DMT" time_zone_designation 0xd66-0xd6a (4)
0xd60|                              49 53 54 00      |          IST.  |      [2]: "IST" time_zone_designation 0xd6a-0xd6e (4)
0xd60|                                          42 53|              BS|      [3]: "BST" time_zone_designation 0xd6e-0xd72 (4)
0xd70|54 00                                          |T.              |
0xd70|      47 4d 54 00                              |  GMT.          |      [4]: "GMT" time_zone_designation 0xd72-0xd76 (4)
     |                                               |                |    leap_second_records[0:0]: 0xd76-0xd76 (0)
     |                                               |                |    standard_wall_indicators[0:9]: 0xd76-0xd7f (9)
0xd70|                  00                           |      .         |      [0]: 0 standard_wall_indicator (valid) 0xd76-0xd77 (1)
0xd70|                     00                        |       .        |      [1]: 0 standard_wall_indicator (valid) 0xd77-0xd78 (1)
0xd70|                        01                     |        .       |      [2]: 1 standard_wall_indicator (valid) 0xd78-0xd79 (1)
0xd70|                           01                  |         .      |      [3]: 1 standard_wall_indicator (valid) 0xd79-0xd7a (1)
0xd70|                              01               |          .     |      [4]: 1 standard_wall_indicator (valid) 0xd7a-0xd7b (1)
0xd70|                                 01            |           .    |      [5]: 1 standard_wall_indicator (valid) 0xd7b-0xd7c (1)
0xd70|                                    01         |            .   |      [6]: 1 standard_wall_indicator (valid) 0xd7c-0xd7d (1)
0xd70|                                       01      |             .  |      [7]: 1 standard_wall_indicator (valid) 0xd7d-0xd7e (1)
0xd70|                                          00   |              . |      [8]: 0 standard_wall_indicator (valid) 0xd7e-0xd7f (1)
     |                                               |                |    ut_local_indicators[0:9]: 0xd7f-0xd88 (9)
0xd70|                                             00|               .|      [0]: 0 ut_local_indicator (valid) 0xd7f-0xd80 (1)
0xd80|00                                             |.               |      [1]: 0 ut_local_indicator (valid) 0xd80-0xd81 (1)
0xd80|   00                                          | .              |      [2]: 0 ut_local_indicator (valid) 0xd81-0xd82 (1)
0xd80|      00                                       |  .             |      [3]: 0 ut_local_indicator (valid) 0xd82-0xd83 (1)
0xd80|         00                                    |   .            |      [4]: 0 ut_local_indicator (valid) 0xd83-0xd84 (1)
0xd80|            00                                 |    .           |      [5]: 0 ut_local_indicator (valid) 0xd84-0xd85 (1)
0xd80|               01                              |     .          |      [6]: 1 ut_local_indicator (valid) 0xd85-0xd86 (1)
0xd80|                  01                           |      .         |      [7]: 1 ut_local_indicator (valid) 0xd86-0xd87 (1)
0xd80|                     00                        |       .        |      [8]: 0 ut_local_indicator (valid) 0xd87-0xd88 (1)
     |                                               |                |  footer{}: 0xd88-0xda4 (28)
0xd80|                        0a                     |        .       |    nl1: 10 (valid) 0xd88-0xd89 (1)
0xd80|                           49 53 54 2d 31 47 4d|         IST-1GM|    tz_string: "IST-1GMT0,M10.5.0,M3.5.0/1" 0xd89-0xda3 (26)
0xd90|54 30 2c 4d 31 30 2e 35 2e 30 2c 4d 33 2e 35 2e|T0,M10.5.0,M3.5.|
0xda0|30 2f 31                                       |0/1             |
0xda0|         0a|                                   |   .|           |    nl2: 10 (valid) 0xda3-0xda4 (1)
