$ fq -d tzif dv Easter
     |00 01 02 03 04 05 06 07 08 09 0a 0b 0c 0d 0e 0f|0123456789abcdef|.{}: Easter (tzif) 0x0-0x8b8.7 (2233)
     |                                               |                |  v1header{}: 0x0-0x2b.7 (44)
0x000|54 5a 69 66                                    |TZif            |    magic: 0x545a6966 (valid) 0x0-0x3.7 (4)
0x000|            33                                 |    3           |    ver: "3" (0x33) (valid) 0x4-0x4.7 (1)
0x000|               00 00 00 00 00 00 00 00 00 00 00|     ...........|    reserved: raw bits 0x5-0x13.7 (15)
0x010|00 00 00 00                                    |....            |
0x010|            00 00 00 07                        |    ....        |    isutcnt: 7 0x14-0x17.7 (4)
0x010|                        00 00 00 07            |        ....    |    isstdcnt: 7 0x18-0x1b.7 (4)
0x010|                                    00 00 00 00|            ....|    leapcnt: 0 0x1c-0x1f.7 (4)
0x020|00 00 00 8c                                    |....            |    timecnt: 140 0x20-0x23.7 (4)
0x020|            00 00 00 07                        |    ....        |    typecnt: 7 0x24-0x27.7 (4)
0x020|                        00 00 00 14            |        ....    |    charcnt: 20 0x28-0x2b.7 (4)
     |                                               |                |  v1datablock{}: 0x2c-0x333.7 (776)
     |                                               |                |    transition_times[0:140]: 0x2c-0x25b.7 (560)
0x020|                                    80 00 00 00|            ....|      [0]: "1901-12-13T20:45:52Z" (-2147483648) transition_time 0x2c-0x2f.7 (4)
0x030|b9 c7 40 88                                    |..@.            |      [1]: "1932-09-01T07:17:28Z" (-1178124152) transition_time 0x30-0x33.7 (4)
0x030|            fd d1 3c 40                        |    ..<@        |      [2]: "1968-11-03T04:00:00Z" (-36619200) transition_time 0x34-0x37.7 (4)
0x030|                        fe 92 fa b0            |        ....    |      [3]: "1969-03-30T03:00:00Z" (-23922000) transition_time 0x38-0x3b.7 (4)
0x030|                                    ff cc cd c0|            ....|      [4]: "1969-11-23T04:00:00Z" (-3355200) transition_time 0x3c-0x3f.7 (4)
0x040|00 72 dc b0                                    |.r..            |      [5]: "1970-03-29T03:00:00Z" (7527600) transition_time 0x40-0x43.7 (4)
0x040|            01 75 50 c0                        |    .uP.        |      [6]: "1970-10-11T04:00:00Z" (24465600) transition_time 0x44-0x47.7 (4)
0x040|                        02 40 49 b0            |        .@I.    |      [7]: "1971-03-14T03:00:00Z" (37767600) transition_time 0x48-0x4b.7 (4)
0x040|                                    03 55 32 c0|            .U2.|      [8]: "1971-10-10T04:00:00Z" (55915200) transition_time 0x4c-0x4f.7 (4)
0x050|04 20 2b b0                                    |. +.            |      [9]: "1972-03-12T03:00:00Z" (69217200) transition_time 0x50-0x53.7 (4)
0x050|            05 3e 4f 40                        |    .>O@        |      [10]: "1972-10-15T04:00:00Z" (87969600) transition_time 0x54-0x57.7 (4)
0x050|                        06 00 0d b0            |        ....    |      [11]: "1973-03-11T03:00:00Z" (100666800) transition_time 0x58-0x5b.7 (4)
0x050|                                    07 0b bc 40|            ...@|      [12]: "1973-09-30T04:00:00Z" (118209600) transition_time 0x5c-0x5f.7 (4)
0x060|07 df ef b0                                    |....            |      [13]: "1974-03-10T03:00:00Z" (132116400) transition_time 0x60-0x63.7 (4)
0x060|            08 fe 13 40                        |    ...@        |      [14]: "1974-10-13T04:00:00Z" (150868800) transition_time 0x64-0x67.7 (4)
0x060|                        09 bf d1 b0            |        ....    |      [15]: "1975-03-09T03:00:00Z" (163566000) transition_time 0x68-0x6b.7 (4)
0x060|                                    0a dd f5 40|            ...@|      [16]: "1975-10-12T04:00:00Z" (182318400) transition_time 0x6c-0x6f.7 (4)
0x070|0b a8 ee 30                                    |...0            |      [17]: "1976-03-14T03:00:00Z" (195620400) transition_time 0x70-0x73.7 (4)
0x070|            0c bd d7 40                        |    ...@        |      [18]: "1976-10-10T04:00:00Z" (213768000) transition_time 0x74-0x77.7 (4)
0x070|                        0d 88 d0 30            |        ...0    |      [19]: "1977-03-13T03:00:00Z" (227070000) transition_time 0x78-0x7b.7 (4)
0x070|                                    0e 9d b9 40|            ...@|      [20]: "1977-10-09T04:00:00Z" (245217600) transition_time 0x7c-0x7f.7 (4)
0x080|0f 68 b2 30                                    |.h.0            |      [21]: "1978-03-12T03:00:00Z" (258519600) transition_time 0x80-0x83.7 (4)
0x080|            10 86 d5 c0                        |    ....        |      [22]: "1978-10-15T04:00:00Z" (277272000) transition_time 0x84-0x87.7 (4)
0x080|                        11 48 94 30            |        .H.0    |      [23]: "1979-03-11T03:00:00Z" (289969200) transition_time 0x88-0x8b.7 (4)
0x080|                                    12 66 b7 c0|            .f..|      [24]: "1979-10-14T04:00:00Z" (308721600) transition_time 0x8c-0x8f.7 (4)
0x090|13 28 76 30                                    |.(v0            |      [25]: "1980-03-09T03:00:00Z" (321418800) transition_time 0x90-0x93.7 (4)
0x090|            14 46 99 c0                        |    .F..        |      [26]: "1980-10-12T04:00:00Z" (340171200) transition_time 0x94-0x97.7 (4)
0x090|                        15 11 92 b0            |        ....    |      [27]: "1981-03-15T03:00:00Z" (353473200) transition_time 0x98-0x9b.7 (4)
0x090|                                    16 26 7b c0|            .&{.|      [28]: "1981-10-11T04:00:00Z" (371620800) transition_time 0x9c-0x9f.7 (4)
0x0a0|16 f1 74 b0                                    |..t.            |      [29]: "1982-03-14T03:00:00Z" (384922800) transition_time 0xa0-0xa3.7 (4)
0x0a0|            18 06 5d c0                        |    ..].        |      [30]: "1982-10-10T04:00:00Z" (403070400) transition_time 0xa4-0xa7.7 (4)
0x0a0|                        18 d1 56 b0            |        ..V.    |      [31]: "1983-03-13T03:00:00Z" (416372400) transition_time 0xa8-0xab.7 (4)
0x0a0|                                    19 e6 3f c0|            ..?.|      [32]: "1983-10-09T04:00:00Z" (434520000) transition_time 0xac-0xaf.7 (4)
0x0b0|1a b1 38 b0                                    |..8.            |      [33]: "1984-03-11T03:00:00Z" (447822000) transition_time 0xb0-0xb3.7 (4)
0x0b0|            1b cf 5c 40                        |    ..\@        |      [34]: "1984-10-14T04:00:00Z" (466574400) transition_time 0xb4-0xb7.7 (4)
0x0b0|                        1c 91 1a b0            |        ....    |      [35]: "1985-03-10T03:00:00Z" (479271600) transition_time 0xb8-0xbb.7 (4)
0x0b0|                                    1d af 3e 40|            ..>@|      [36]: "1985-10-13T04:00:00Z" (498024000) transition_time 0xbc-0xbf.7 (4)
0x0c0|1e 70 fc b0                                    |.p..            |      [37]: "1986-03-09T03:00:00Z" (510721200) transition_time 0xc0-0xc3.7 (4)
0x0c0|            1f 8f 20 40                        |    .. @        |      [38]: "1986-10-12T04:00:00Z" (529473600) transition_time 0xc4-0xc7.7 (4)
0x0c0|                        20 7f 03 30            |         ..0    |      [39]: "1987-04-12T03:00:00Z" (545194800) transition_time 0xc8-0xcb.7 (4)
0x0c0|                                    21 6f 02 40|            !o.@|      [40]: "1987-10-11T04:00:00Z" (560923200) transition_time 0xcc-0xcf.7 (4)
0x0d0|22 39 fb 30                                    |"9.0            |      [41]: "1988-03-13T03:00:00Z" (574225200) transition_time 0xd0-0xd3.7 (4)
0x0d0|            23 4e e4 40                        |    #N.@        |      [42]: "1988-10-09T04:00:00Z" (592372800) transition_time 0xd4-0xd7.7 (4)
0x0d0|                        24 19 dd 30            |        $..0    |      [43]: "1989-03-12T03:00:00Z" (605674800) transition_time 0xd8-0xdb.7 (4)
0x0d0|                                    25 38 00 c0|            %8..|      [44]: "1989-10-15T04:00:00Z" (624427200) transition_time 0xdc-0xdf.7 (4)
0x0e0|25 f9 bf 30                                    |%..0            |      [45]: "1990-03-11T03:00:00Z" (637124400) transition_time 0xe0-0xe3.7 (4)
0x0e0|            26 f2 f8 c0                        |    &...        |      [46]: "1990-09-16T04:00:00Z" (653457600) transition_time 0xe4-0xe7.7 (4)
0x0e0|                        27 d9 a1 30            |        '..0    |      [47]: "1991-03-10T03:00:00Z" (668574000) transition_time 0xe8-0xeb.7 (4)
0x0e0|                                    28 f7 c4 c0|            (...|      [48]: "1991-10-13T04:00:00Z" (687326400) transition_time 0xec-0xef.7 (4)
0x0f0|29 c2 bd b0                                    |)...            |      [49]: "1992-03-15T03:00:00Z" (700628400) transition_time 0xf0-0xf3.7 (4)
0x0f0|            2a d7 a6 c0                        |    *...        |      [50]: "1992-10-11T04:00:00Z" (718776000) transition_time 0xf4-0xf7.7 (4)
0x0f0|                        2b a2 9f b0            |        +...    |      [51]: "1993-03-14T03:00:00Z" (732078000) transition_time 0xf8-0xfb.7 (4)
0x0f0|                                    2c b7 88 c0|            ,...|      [52]: "1993-10-10T04:00:00Z" (750225600) transition_time 0xfc-0xff.7 (4)
0x100|2d 82 81 b0                                    |-...            |      [53]: "1994-03-13T03:00:00Z" (763527600) transition_time 0x100-0x103.7 (4)
0x100|            2e 97 6a c0                        |    ..j.        |      [54]: "1994-10-09T04:00:00Z" (781675200) transition_time 0x104-0x107.7 (4)
0x100|                        2f 62 63 b0            |        /bc.    |      [55]: "1995-03-12T03:00:00Z" (794977200) transition_time 0x108-0x10b.7 (4)
0x100|                                    30 80 87 40|            0..@|      [56]: "1995-10-15T04:00:00Z" (813729600) transition_time 0x10c-0x10f.7 (4)
0x110|31 42 45 b0                                    |1BE.            |      [57]: "1996-03-10T03:00:00Z" (826426800) transition_time 0x110-0x113.7 (4)
0x110|            32 60 69 40                        |    2`i@        |      [58]: "1996-10-13T04:00:00Z" (845179200) transition_time 0x114-0x117.7 (4)
0x110|                        33 3d d7 30            |        3=.0    |      [59]: "1997-03-30T03:00:00Z" (859690800) transition_time 0x118-0x11b.7 (4)
0x110|                                    34 40 4b 40|            4@K@|      [60]: "1997-10-12T04:00:00Z" (876628800) transition_time 0x11c-0x11f.7 (4)
0x120|35 0b 44 30                                    |5.D0            |      [61]: "1998-03-15T03:00:00Z" (889930800) transition_time 0x120-0x123.7 (4)
0x120|            36 0d b8 40                        |    6..@        |      [62]: "1998-09-27T04:00:00Z" (906868800) transition_time 0x124-0x127.7 (4)
0x120|                        37 06 d5 b0            |        7...    |      [63]: "1999-04-04T03:00:00Z" (923194800) transition_time 0x128-0x12b.7 (4)
0x120|                                    38 00 0f 40|            8..@|      [64]: "1999-10-10T04:00:00Z" (939528000) transition_time 0x12c-0x12f.7 (4)
0x130|38 cb 08 30                                    |8..0            |      [65]: "2000-03-12T03:00:00Z" (952830000) transition_time 0x130-0x133.7 (4)
0x130|            39 e9 2b c0                        |    9.+.        |      [66]: "2000-10-15T04:00:00Z" (971582400) transition_time 0x134-0x137.7 (4)
0x130|                        3a aa ea 30            |        :..0    |      [67]: "2001-03-11T03:00:00Z" (984279600) transition_time 0x138-0x13b.7 (4)
0x130|                                    3b c9 0d c0|            ;...|      [68]: "2001-10-14T04:00:00Z" (1003032000) transition_time 0x13c-0x13f.7 (4)
0x140|3c 8a cc 30                                    |<..0            |      [69]: "2002-03-10T03:00:00Z" (1015729200) transition_time 0x140-0x143.7 (4)
0x140|            3d a8 ef c0                        |    =...        |      [70]: "2002-10-13T04:00:00Z" (1034481600) transition_time 0x144-0x147.7 (4)
0x140|                        3e 6a ae 30            |        >j.0    |      [71]: "2003-03-09T03:00:00Z" (1047178800) transition_time 0x148-0x14b.7 (4)
0x140|                                    3f 88 d1 c0|            ?...|      [72]: "2003-10-12T04:00:00Z" (1065931200) transition_time 0x14c-0x14f.7 (4)
0x150|40 53 ca b0                                    |@S..            |      [73]: "2004-03-14T03:00:00Z" (1079233200) transition_time 0x150-0x153.7 (4)
0x150|            41 68 b3 c0                        |    Ah..        |      [74]: "2004-10-10T04:00:00Z" (1097380800) transition_time 0x154-0x157.7 (4)
0x150|                        42 33 ac b0            |        B3..    |      [75]: "2005-03-13T03:00:00Z" (1110682800) transition_time 0x158-0x15b.7 (4)
0x150|                                    43 48 95 c0|            CH..|      [76]: "2005-10-09T04:00:00Z" (1128830400) transition_time 0x15c-0x15f.7 (4)
0x160|44 13 8e b0                                    |D...            |      [77]: "2006-03-12T03:00:00Z" (1142132400) transition_time 0x160-0x163.7 (4)
0x160|            45 31 b2 40                        |    E1.@        |      [78]: "2006-10-15T04:00:00Z" (1160884800) transition_time 0x164-0x167.7 (4)
0x160|                        45 f3 70 b0            |        E.p.    |      [79]: "2007-03-11T03:00:00Z" (1173582000) transition_time 0x168-0x16b.7 (4)
0x160|                                    47 11 94 40|            G..@|      [80]: "2007-10-14T04:00:00Z" (1192334400) transition_time 0x16c-0x16f.7 (4)
0x170|47 ef 02 30                                    |G..0            |      [81]: "2008-03-30T03:00:00Z" (1206846000) transition_time 0x170-0x173.7 (4)
0x170|            48 f1 76 40                        |    H.v@        |      [82]: "2008-10-12T04:00:00Z" (1223784000) transition_time 0x174-0x177.7 (4)
0x170|                        49 bc 6f 30            |        I.o0    |      [83]: "2009-03-15T03:00:00Z" (1237086000) transition_time 0x178-0x17b.7 (4)
0x170|                                    4a d1 58 40|            J.X@|      [84]: "2009-10-11T04:00:00Z" (1255233600) transition_time 0x17c-0x17f.7 (4)
0x180|4b b8 00 b0                                    |K...            |      [85]: "2010-04-04T03:00:00Z" (1270350000) transition_time 0x180-0x183.7 (4)
0x180|            4c b1 3a 40                        |    L.:@        |      [86]: "2010-10-10T04:00:00Z" (1286683200) transition_time 0x184-0x187.7 (4)
0x180|                        4d c6 07 30            |        M..0    |      [87]: "2011-05-08T03:00:00Z" (1304823600) transition_time 0x188-0x18b.7 (4)
0x180|                                    4e 50 82 c0|            NP..|      [88]: "2011-08-21T04:00:00Z" (1313899200) transition_time 0x18c-0x18f.7 (4)
0x190|4f 9c ae b0                                    |O...            |      [89]: "2012-04-29T03:00:00Z" (1335668400) transition_time 0x190-0x193.7 (4)
0x190|            50 42 d9 c0                        |    PB..        |      [90]: "2012-09-02T04:00:00Z" (1346558400) transition_time 0x194-0x197.7 (4)
0x190|                        51 7c 90 b0            |        Q|..    |      [91]: "2013-04-28T03:00:00Z" (1367118000) transition_time 0x198-0x19b.7 (4)
0x190|                                    52 2b f6 40|            R+.@|      [92]: "2013-09-08T04:00:00Z" (1378612800) transition_time 0x19c-0x19f.7 (4)
0x1a0|53 5c 72 b0                                    |S\r.            |      [93]: "2014-04-27T03:00:00Z" (1398567600) transition_time 0x1a0-0x1a3.7 (4)
0x1a0|            54 0b d8 40                        |    T..@        |      [94]: "2014-09-07T04:00:00Z" (1410062400) transition_time 0x1a4-0x1a7.7 (4)
0x1a0|                        57 37 e6 30            |        W7.0    |      [95]: "2016-05-15T03:00:00Z" (1463281200) transition_time 0x1a8-0x1ab.7 (4)
0x1a0|                                    57 af ec c0|            W...|      [96]: "2016-08-14T04:00:00Z" (1471147200) transition_time 0x1ac-0x1af.7 (4)
0x1b0|59 17 c8 30                                    |Y..0            |      [97]: "2017-05-14T03:00:00Z" (1494730800) transition_time 0x1b0-0x1b3.7 (4)
0x1b0|            59 8f ce c0                        |    Y...        |      [98]: "2017-08-13T04:00:00Z" (1502596800) transition_time 0x1b4-0x1b7.7 (4)
0x1b0|                        5a f7 aa 30            |        Z..0    |      [99]: "2018-05-13T03:00:00Z" (1526180400) transition_time 0x1b8-0x1bb.7 (4)
0x1b0|                                    5b 6f b0 c0|            [o..|      [100]: "2018-08-12T04:00:00Z" (1534046400) transition_time 0x1bc-0x1bf.7 (4)
0x1c0|5c a9 67 b0                                    |\.g.            |      [101]: "2019-04-07T03:00:00Z" (1554606000) transition_time 0x1c0-0x1c3.7 (4)
0x1c0|            5d 74 7c c0                        |    ]t|.        |      [102]: "2019-09-08T04:00:00Z" (1567915200) transition_time 0x1c4-0x1c7.7 (4)
0x1c0|                        5e 89 49 b0            |        ^.I.    |      [103]: "2020-04-05T03:00:00Z" (1586055600) transition_time 0x1c8-0x1cb.7 (4)
0x1c0|                                    5f 54 5e c0|            _T^.|      [104]: "2020-09-06T04:00:00Z" (1599364800) transition_time 0x1cc-0x1cf.7 (4)
0x1d0|60 69 2b b0                                    |`i+.            |      [105]: "2021-04-04T03:00:00Z" (1617505200) transition_time 0x1d0-0x1d3.7 (4)
0x1d0|            61 34 40 c0                        |    a4@.        |      [106]: "2021-09-05T04:00:00Z" (1630814400) transition_time 0x1d4-0x1d7.7 (4)
0x1d0|                        62 49 0d b0            |        bI..    |      [107]: "2022-04-03T03:00:00Z" (1648954800) transition_time 0x1d8-0x1db.7 (4)
0x1d0|                                    63 1d 5d 40|            c.]@|      [108]: "2022-09-11T04:00:00Z" (1662868800) transition_time 0x1dc-0x1df.7 (4)
0x1e0|64 28 ef b0                                    |d(..            |      [109]: "2023-04-02T03:00:00Z" (1680404400) transition_time 0x1e0-0x1e3.7 (4)
0x1e0|            64 f4 04 c0                        |    d...        |      [110]: "2023-09-03T04:00:00Z" (1693713600) transition_time 0x1e4-0x1e7.7 (4)
0x1e0|                        66 12 0c 30            |        f..0    |      [111]: "2024-04-07T03:00:00Z" (1712458800) transition_time 0x1e8-0x1eb.7 (4)
0x1e0|                                    66 dd 21 40|            f.!@|      [112]: "2024-09-08T04:00:00Z" (1725768000) transition_time 0x1ec-0x1ef.7 (4)
0x1f0|67 f1 ee 30                                    |g..0            |      [113]: "2025-04-06T03:00:00Z" (1743908400) transition_time 0x1f0-0x1f3.7 (4)
0x1f0|            68 bd 03 40                        |    h..@        |      [114]: "2025-09-07T04:00:00Z" (1757217600) transition_time 0x1f4-0x1f7.7 (4)
0x1f0|                        69 d1 d0 30            |        i..0    |      [115]: "2026-04-05T03:00:00Z" (1775358000) transition_time 0x1f8-0x1fb.7 (4)
0x1f0|                                    6a 9c e5 40|            j..@|      [116]: "2026-09-06T04:00:00Z" (1788667200) transition_time 0x1fc-0x1ff.7 (4)
0x200|6b b1 b2 30                                    |k..0            |      [117]: "2027-04-04T03:00:00Z" (1806807600) transition_time 0x200-0x203.7 (4)
0x200|            6c 7c c7 40                        |    l|.@        |      [118]: "2027-09-05T04:00:00Z" (1820116800) transition_time 0x204-0x207.7 (4)
0x200|                        6d 91 94 30            |        m..0    |      [119]: "2028-04-02T03:00:00Z" (1838257200) transition_time 0x208-0x20b.7 (4)
0x200|                                    6e 5c a9 40|            n\.@|      [120]: "2028-09-03T04:00:00Z" (1851566400) transition_time 0x20c-0x20f.7 (4)
0x210|6f 7a b0 b0                                    |oz..            |      [121]: "2029-04-08T03:00:00Z" (1870311600) transition_time 0x210-0x213.7 (4)
0x210|            70 3c 8b 40                        |    p<.@        |      [122]: "2029-09-02T04:00:00Z" (1883016000) transition_time 0x214-0x217.7 (4)
0x210|                        71 5a 92 b0            |        qZ..    |      [123]: "2030-04-07T03:00:00Z" (1901761200) transition_time 0x218-0x21b.7 (4)
0x210|                                    72 25 a7 c0|            r%..|      [124]: "2030-09-08T04:00:00Z" (1915070400) transition_time 0x21c-0x21f.7 (4)
0x220|73 3a 74 b0                                    |s:t.            |      [125]: "2031-04-06T03:00:00Z" (1933210800) transition_time 0x220-0x223.7 (4)
0x220|            74 05 89 c0                        |    t...        |      [126]: "2031-09-07T04:00:00Z" (1946520000) transition_time 0x224-0x227.7 (4)
0x220|                        75 1a 56 b0            |        u.V.    |      [127]: "2032-04-04T03:00:00Z" (1964660400) transition_time 0x228-0x22b.7 (4)
0x220|                                    75 e5 6b c0|            u.k.|      [128]: "2032-09-05T04:00:00Z" (1977969600) transition_time 0x22c-0x22f.7 (4)
0x230|76 fa 38 b0                                    |v.8.            |      [129]: "2033-04-03T03:00:00Z" (1996110000) transition_time 0x230-0x233.7 (4)
0x230|            77 c5 4d c0                        |    w.M.        |      [130]: "2033-09-04T04:00:00Z" (2009419200) transition_time 0x234-0x237.7 (4)
0x230|                        78 da 1a b0            |        x...    |      [131]: "2034-04-02T03:00:00Z" (2027559600) transition_time 0x238-0x23b.7 (4)
0x230|                                    79 a5 2f c0|            y./.|      [132]: "2034-09-03T04:00:00Z" (2040868800) transition_time 0x23c-0x23f.7 (4)
0x240|7a c3 37 30                                    |z.70            |      [133]: "2035-04-08T03:00:00Z" (2059614000) transition_time 0x240-0x243.7 (4)
0x240|            7b 85 11 c0                        |    {...        |      [134]: "2035-09-02T04:00:00Z" (2072318400) transition_time 0x244-0x247.7 (4)
0x240|                        7c a3 19 30            |        |..0    |      [135]: "2036-04-06T03:00:00Z" (2091063600) transition_time 0x248-0x24b.7 (4)
0x240|                                    7d 6e 2e 40|            }n.@|      [136]: "2036-09-07T04:00:00Z" (2104372800) transition_time 0x24c-0x24f.7 (4)
0x250|7e 82 fb 30                                    |~..0            |      [137]: "2037-04-05T03:00:00Z" (2122513200) transition_time 0x250-0x253.7 (4)
0x250|            7f 4e 10 40                        |    .N.@        |      [138]: "2037-09-06T04:00:00Z" (2135822400) transition_time 0x254-0x257.7 (4)
0x250|                        7f ff ff ff            |        ....    |      [139]: "2038-01-19T03:14:07Z" (2147483647) transition_time 0x258-0x25b.7 (4)
     |                                               |                |    transition_types[0:140]: 0x25c-0x2e7.7 (140)
0x250|                                    01         |            .   |      [0]: 1 transition_type 0x25c-0x25c.7 (1)
0x250|                                       04      |             .  |      [1]: 4 transition_type 0x25d-0x25d.7 (1)
0x250|                                          02   |              . |      [2]: 2 transition_type 0x25e-0x25e.7 (1)
0x250|                                             03|               .|      [3]: 3 transition_type 0x25f-0x25f.7 (1)
0x260|02                                             |.               |      [4]: 2 transition_type 0x260-0x260.7 (1)
0x260|   03                                          | .              |      [5]: 3 transition_type 0x261-0x261.7 (1)
0x260|      02                                       |  .             |      [6]: 2 transition_type 0x262-0x262.7 (1)
0x260|         03                                    |   .            |      [7]: 3 transition_type 0x263-0x263.7 (1)
0x260|            02                                 |    .           |      [8]: 2 transition_type 0x264-0x264.7 (1)
0x260|               03                              |     .          |      [9]: 3 transition_type 0x265-0x265.7 (1)
0x260|                  02                           |      .         |      [10]: 2 transition_type 0x266-0x266.7 (1)
0x260|                     03                        |       .        |      [11]: 3 transition_type 0x267-0x267.7 (1)
0x260|                        02                     |        .       |      [12]: 2 transition_type 0x268-0x268.7 (1)
0x260|                           03                  |         .      |      [13]: 3 transition_type 0x269-0x269.7 (1)
0x260|                              02               |          .     |      [14]: 2 transition_type 0x26a-0x26a.7 (1)
0x260|                                 03            |           .    |      [15]: 3 transition_type 0x26b-0x26b.7 (1)
0x260|                                    02         |            .   |      [16]: 2 transition_type 0x26c-0x26c.7 (1)
0x260|                                       03      |             .  |      [17]: 3 transition_type 0x26d-0x26d.7 (1)
0x260|                                          02   |              . |      [18]: 2 transition_type 0x26e-0x26e.7 (1)
0x260|                                             03|               .|      [19]: 3 transition_type 0x26f-0x26f.7 (1)
0x270|02                                             |.               |      [20]: 2 transition_type 0x270-0x270.7 (1)
0x270|   03                                          | .              |      [21]: 3 transition_type 0x271-0x271.7 (1)
0x270|      02                                       |  .             |      [22]: 2 transition_type 0x272-0x272.7 (1)
0x270|         03                                    |   .            |      [23]: 3 transition_type 0x273-0x273.7 (1)
0x270|            02                                 |    .           |      [24]: 2 transition_type 0x274-0x274.7 (1)
0x270|               03                              |     .          |      [25]: 3 transition_type 0x275-0x275.7 (1)
0x270|                  02                           |      .         |      [26]: 2 transition_type 0x276-0x276.7 (1)
0x270|                     03                        |       .        |      [27]: 3 transition_type 0x277-0x277.7 (1)
0x270|                        02                     |        .       |      [28]: 2 transition_type 0x278-0x278.7 (1)
0x270|                           05                  |         .      |      [29]: 5 transition_type 0x279-0x279.7 (1)
0x270|                              06               |          .     |      [30]: 6 transition_type 0x27a-0x27a.7 (1)
0x270|                                 05            |           .    |      [31]: 5 transition_type 0x27b-0x27b.7 (1)
0x270|                                    06         |            .   |      [32]: 6 transition_type 0x27c-0x27c.7 (1)
0x270|                                       05      |             .  |      [33]: 5 transition_type 0x27d-0x27d.7 (1)
0x270|                                          06   |              . |      [34]: 6 transition_type 0x27e-0x27e.7 (1)
0x270|                                             05|               .|      [35]: 5 transition_type 0x27f-0x27f.7 (1)
0x280|06                                             |.               |      [36]: 6 transition_type 0x280-0x280.7 (1)
0x280|   05                                          | .              |      [37]: 5 transition_type 0x281-0x281.7 (1)
0x280|      06                                       |  .             |      [38]: 6 transition_type 0x282-0x282.7 (1)
0x280|         05                                    |   .            |      [39]: 5 transition_type 0x283-0x283.7 (1)
0x280|            06                                 |    .           |      [40]: 6 transition_type 0x284-0x284.7 (1)
0x280|               05                              |     .          |      [41]: 5 transition_type 0x285-0x285.7 (1)
0x280|                  06                           |      .         |      [42]: 6 transition_type 0x286-0x286.7 (1)
0x280|                     05                        |       .        |      [43]: 5 transition_type 0x287-0x287.7 (1)
0x280|                        06                     |        .       |      [44]: 6 transition_type 0x288-0x288.7 (1)
0x280|                           05                  |         .      |      [45]: 5 transition_type 0x289-0x289.7 (1)
0x280|                              06               |          .     |      [46]: 6 transition_type 0x28a-0x28a.7 (1)
0x280|                                 05            |           .    |      [47]: 5 transition_type 0x28b-0x28b.7 (1)
0x280|                                    06         |            .   |      [48]: 6 transition_type 0x28c-0x28c.7 (1)
0x280|                                       05      |             .  |      [49]: 5 transition_type 0x28d-0x28d.7 (1)
0x280|                                          06   |              . |      [50]: 6 transition_type 0x28e-0x28e.7 (1)
0x280|                                             05|               .|      [51]: 5 transition_type 0x28f-0x28f.7 (1)
0x290|06                                             |.               |      [52]: 6 transition_type 0x290-0x290.7 (1)
0x290|   05                                          | .              |      [53]: 5 transition_type 0x291-0x291.7 (1)
0x290|      06                                       |  .             |      [54]: 6 transition_type 0x292-0x292.7 (1)
0x290|         05                                    |   .            |      [55]: 5 transition_type 0x293-0x293.7 (1)
0x290|            06                                 |    .           |      [56]: 6 transition_type 0x294-0x294.7 (1)
0x290|               05                              |     .          |      [57]: 5 transition_type 0x295-0x295.7 (1)
0x290|                  06                           |      .         |      [58]: 6 transition_type 0x296-0x296.7 (1)
0x290|                     05                        |       .        |      [59]: 5 transition_type 0x297-0x297.7 (1)
0x290|                        06                     |        .       |      [60]: 6 transition_type 0x298-0x298.7 (1)
0x290|                           05                  |         .      |      [61]: 5 transition_type 0x299-0x299.7 (1)
0x290|                              06               |          .     |      [62]: 6 transition_type 0x29a-0x29a.7 (1)
0x290|                                 05            |           .    |      [63]: 5 transition_type 0x29b-0x29b.7 (1)
0x290|                                    06         |            .   |      [64]: 6 transition_type 0x29c-0x29c.7 (1)
0x290|                                       05      |             .  |      [65]: 5 transition_type 0x29d-0x29d.7 (1)
0x290|                                          06   |              . |      [66]: 6 transition_type 0x29e-0x29e.7 (1)
0x290|                                             05|               .|      [67]: 5 transition_type 0x29f-0x29f.7 (1)
0x2a0|06                                             |.               |      [68]: 6 transition_type 0x2a0-0x2a0.7 (1)
0x2a0|   05                                          | .              |      [69]: 5 transition_type 0x2a1-0x2a1.7 (1)
0x2a0|      06                                       |  .             |      [70]: 6 transition_type 0x2a2-0x2a2.7 (1)
0x2a0|         05                                    |   .            |      [71]: 5 transition_type 0x2a3-0x2a3.7 (1)
0x2a0|            06                                 |    .           |      [72]: 6 transition_type 0x2a4-0x2a4.7 (1)
0x2a0|               05                              |     .          |      [73]: 5 transition_type 0x2a5-0x2a5.7 (1)
0x2a0|                  06                           |      .         |      [74]: 6 transition_type 0x2a6-0x2a6.7 (1)
0x2a0|                     05                        |       .        |      [75]: 5 transition_type 0x2a7-0x2a7.7 (1)
0x2a0|                        06                     |        .       |      [76]: 6 transition_type 0x2a8-0x2a8.7 (1)
0x2a0|                           05                  |         .      |      [77]: 5 transition_type 0x2a9-0x2a9.7 (1)
0x2a0|                              06               |          .     |      [78]: 6 transition_type 0x2aa-0x2aa.7 (1)
0x2a0|                                 05            |           .    |      [79]: 5 transition_type 0x2ab-0x2ab.7 (1)
0x2a0|                                    06         |            .   |      [80]: 6 transition_type 0x2ac-0x2ac.7 (1)
0x2a0|                                       05      |             .  |      [81]: 5 transition_type 0x2ad-0x2ad.7 (1)
0x2a0|                                          06   |              . |      [82]: 6 transition_type 0x2ae-0x2ae.7 (1)
0x2a0|                                             05|               .|      [83]: 5 transition_type 0x2af-0x2af.7 (1)
0x2b0|06                                             |.               |      [84]: 6 transition_type 0x2b0-0x2b0.7 (1)
0x2b0|   05                                          | .              |      [85]: 5 transition_type 0x2b1-0x2b1.7 (1)
0x2b0|      06                                       |  .             |      [86]: 6 transition_type 0x2b2-0x2b2.7 (1)
0x2b0|         05                                    |   .            |      [87]: 5 transition_type 0x2b3-0x2b3.7 (1)
0x2b0|            06                                 |    .           |      [88]: 6 transition_type 0x2b4-0x2b4.7 (1)
0x2b0|               05                              |     .          |      [89]: 5 transition_type 0x2b5-0x2b5.7 (1)
0x2b0|                  06                           |      .         |      [90]: 6 transition_type 0x2b6-0x2b6.7 (1)
0x2b0|                     05                        |       .        |      [91]: 5 transition_type 0x2b7-0x2b7.7 (1)
0x2b0|                        06                     |        .       |      [92]: 6 transition_type 0x2b8-0x2b8.7 (1)
0x2b0|                           05                  |         .      |      [93]: 5 transition_type 0x2b9-0x2b9.7 (1)
0x2b0|                              06               |          .     |      [94]: 6 transition_type 0x2ba-0x2ba.7 (1)
0x2b0|                                 05            |           .    |      [95]: 5 transition_type 0x2bb-0x2bb.7 (1)
0x2b0|                                    06         |            .   |      [96]: 6 transition_type 0x2bc-0x2bc.7 (1)
0x2b0|                                       05      |             .  |      [97]: 5 transition_type 0x2bd-0x2bd.7 (1)
0x2b0|                                          06   |              . |      [98]: 6 transition_type 0x2be-0x2be.7 (1)
0x2b0|                                             05|               .|      [99]: 5 transition_type 0x2bf-0x2bf.7 (1)
0x2c0|06                                             |.               |      [100]: 6 transition_type 0x2c0-0x2c0.7 (1)
0x2c0|   05                                          | .              |      [101]: 5 transition_type 0x2c1-0x2c1.7 (1)
0x2c0|      06                                       |  .             |      [102]: 6 transition_type 0x2c2-0x2c2.7 (1)
0x2c0|         05                                    |   .            |      [103]: 5 transition_type 0x2c3-0x2c3.7 (1)
0x2c0|            06                                 |    .           |      [104]: 6 transition_type 0x2c4-0x2c4.7 (1)
0x2c0|               05                              |     .          |      [105]: 5 transition_type 0x2c5-0x2c5.7 (1)
0x2c0|                  06                           |      .         |      [106]: 6 transition_type 0x2c6-0x2c6.7 (1)
0x2c0|                     05                        |       .        |      [107]: 5 transition_type 0x2c7-0x2c7.7 (1)
0x2c0|                        06                     |        .       |      [108]: 6 transition_type 0x2c8-0x2c8.7 (1)
0x2c0|                           05                  |         .      |      [109]: 5 transition_type 0x2c9-0x2c9.7 (1)
0x2c0|                              06               |          .     |      [110]: 6 transition_type 0x2ca-0x2ca.7 (1)
0x2c0|                                 05            |           .    |      [111]: 5 transition_type 0x2cb-0x2cb.7 (1)
0x2c0|                                    06         |            .   |      [112]: 6 transition_type 0x2cc-0x2cc.7 (1)
0x2c0|                                       05      |             .  |      [113]: 5 transition_type 0x2cd-0x2cd.7 (1)
0x2c0|                                          06   |              . |      [114]: 6 transition_type 0x2ce-0x2ce.7 (1)
0x2c0|                                             05|               .|      [115]: 5 transition_type 0x2cf-0x2cf.7 (1)
0x2d0|06                                             |.               |      [116]: 6 transition_type 0x2d0-0x2d0.7 (1)
0x2d0|   05                                          | .              |      [117]: 5 transition_type 0x2d1-0x2d1.7 (1)
0x2d0|      06                                       |  .             |      [118]: 6 transition_type 0x2d2-0x2d2.7 (1)
0x2d0|         05                                    |   .            |      [119]: 5 transition_type 0x2d3-0x2d3.7 (1)
0x2d0|            06                                 |    .           |      [120]: 6 transition_type 0x2d4-0x2d4.7 (1)
0x2d0|               05                              |     .          |      [121]: 5 transition_type 0x2d5-0x2d5.7 (1)
0x2d0|                  06                           |      .         |      [122]: 6 transition_type 0x2d6-0x2d6.7 (1)
0x2d0|                     05                        |       .        |      [123]: 5 transition_type 0x2d7-0x2d7.7 (1)
0x2d0|                        06                     |        .       |      [124]: 6 transition_type 0x2d8-0x2d8.7 (1)
0x2d0|                           05                  |         .      |      [125]: 5 transition_type 0x2d9-0x2d9.7 (1)
0x2d0|                              06               |          .     |      [126]: 6 transition_type 0x2da-0x2da.7 (1)
0x2d0|                                 05            |           .    |      [127]: 5 transition_type 0x2db-0x2db.7 (1)
0x2d0|                                    06         |            .   |      [128]: 6 transition_type 0x2dc-0x2dc.7 (1)
0x2d0|                                       05      |             .  |      [129]: 5 transition_type 0x2dd-0x2dd.7 (1)
0x2d0|                                          06   |              . |      [130]: 6 transition_type 0x2de-0x2de.7 (1)
0x2d0|                                             05|               .|      [131]: 5 transition_type 0x2df-0x2df.7 (1)
0x2e0|06                                             |.               |      [132]: 6 transition_type 0x2e0-0x2e0.7 (1)
0x2e0|   05                                          | .              |      [133]: 5 transition_type 0x2e1-0x2e1.7 (1)
0x2e0|      06                                       |  .             |      [134]: 6 transition_type 0x2e2-0x2e2.7 (1)
0x2e0|         05                                    |   .            |      [135]: 5 transition_type 0x2e3-0x2e3.7 (1)
0x2e0|            06                                 |    .           |      [136]: 6 transition_type 0x2e4-0x2e4.7 (1)
0x2e0|               05                              |     .          |      [137]: 5 transition_type 0x2e5-0x2e5.7 (1)
0x2e0|                  06                           |      .         |      [138]: 6 transition_type 0x2e6-0x2e6.7 (1)
0x2e0|                     06                        |       .        |      [139]: 6 transition_type 0x2e7-0x2e7.7 (1)
     |                                               |                |    local_time_type_records[0:7]: 0x2e8-0x311.7 (42)
     |                                               |                |      [0]{}: local_time_type 0x2e8-0x2ed.7 (6)
0x2e0|                        ff ff 99 78            |        ...x    |        utoff: -26248 (valid) 0x2e8-0x2eb.7 (4)
0x2e0|                                    00         |            .   |        dst: 0 (valid) 0x2ec-0x2ec.7 (1)
0x2e0|                                       00      |             .  |        idx: 0 (valid) 0x2ed-0x2ed.7 (1)
     |                                               |                |      [1]{}: local_time_type 0x2ee-0x2f3.7 (6)
0x2e0|                                          ff ff|              ..|        utoff: -26248 (valid) 0x2ee-0x2f1.7 (4)
0x2f0|99 78                                          |.x              |
0x2f0|      00                                       |  .             |        dst: 0 (valid) 0x2f2-0x2f2.7 (1)
0x2f0|         04                                    |   .            |        idx: 4 (valid) 0x2f3-0x2f3.7 (1)
     |                                               |                |      [2]{}: local_time_type 0x2f4-0x2f9.7 (6)
0x2f0|            ff ff ab a0                        |    ....        |        utoff: -21600 (valid) 0x2f4-0x2f7.7 (4)
0x2f0|                        01                     |        .       |        dst: 1 (valid) 0x2f8-0x2f8.7 (1)
0x2f0|                           08                  |         .      |        idx: 8 (valid) 0x2f9-0x2f9.7 (1)
     |                                               |                |      [3]{}: local_time_type 0x2fa-0x2ff.7 (6)
0x2f0|                              ff ff 9d 90      |          ....  |        utoff: -25200 (valid) 0x2fa-0x2fd.7 (4)
0x2f0|                                          00   |              . |        dst: 0 (valid) 0x2fe-0x2fe.7 (1)
0x2f0|                                             0c|               .|        idx: 12 (valid) 0x2ff-0x2ff.7 (1)
     |                                               |                |      [4]{}: local_time_type 0x300-0x305.7 (6)
0x300|ff ff 9d 90                                    |....            |        utoff: -25200 (valid) 0x300-0x303.7 (4)
0x300|            00                                 |    .           |        dst: 0 (valid) 0x304-0x304.7 (1)
0x300|               0c                              |     .          |        idx: 12 (valid) 0x305-0x305.7 (1)
     |                                               |                |      [5]{}: local_time_type 0x306-0x30b.7 (6)
0x300|                  ff ff ab a0                  |      ....      |        utoff: -21600 (valid) 0x306-0x309.7 (4)
0x300|                              00               |          .     |        dst: 0 (valid) 0x30a-0x30a.7 (1)
0x300|                                 08            |           .    |        idx: 8 (valid) 0x30b-0x30b.7 (1)
     |                                               |                |      [6]{}: local_time_type 0x30c-0x311.7 (6)
0x300|                                    ff ff b9 b0|            ....|        utoff: -18000 (valid) 0x30c-0x30f.7 (4)
0x310|01                                             |.               |        dst: 1 (valid) 0x310-0x310.7 (1)
0x310|   10                                          | .              |        idx: 16 (valid) 0x311-0x311.7 (1)
     |                                               |                |    time_zone_designations[0:5]: 0x312-0x325.7 (20)
0x310|      4c 4d 54 00                              |  LMT.          |      [0]: "LMT" time_zone_designation 0x312-0x315.7 (4)
0x310|                  45 4d 54 00                  |      EMT.      |      [1]: "EMT" time_zone_designation 0x316-0x319.7 (4)
0x310|                              2d 30 36 00      |          -06.  |      [2]: "-06" time_zone_designation 0x31a-0x31d.7 (4)
0x310|                                          2d 30|              -0|      [3]: "-07" time_zone_designation 0x31e-0x321.7 (4)
0x320|37 00                                          |7.              |
0x320|      2d 30 35 00                              |  -05.          |      [4]: "-05" time_zone_designation 0x322-0x325.7 (4)
     |                                               |                |    leap_second_records[0:0]: 0x326-NA (0)
     |                                               |                |    standard_wall_indicators[0:7]: 0x326-0x32c.7 (7)
0x320|                  00                           |      .         |      [0]: 0 standard_wall_indicator (valid) 0x326-0x326.7 (1)
0x320|                     00                        |       .        |      [1]: 0 standard_wall_indicator (valid) 0x327-0x327.7 (1)
0x320|                        01                     |        .       |      [2]: 1 standard_wall_indicator (valid) 0x328-0x328.7 (1)
0x320|                           01                  |         .      |      [3]: 1 standard_wall_indicator (valid) 0x329-0x329.7 (1)
0x320|                              00               |          .     |      [4]: 0 standard_wall_indicator (valid) 0x32a-0x32a.7 (1)
0x320|                                 01            |           .    |      [5]: 1 standard_wall_indicator (valid) 0x32b-0x32b.7 (1)
0x320|                                    01         |            .   |      [6]: 1 standard_wall_indicator (valid) 0x32c-0x32c.7 (1)
     |                                               |                |    ut_local_indicators[0:7]: 0x32d-0x333.7 (7)
0x320|                                       00      |             .  |      [0]: 0 ut_local_indicator (valid) 0x32d-0x32d.7 (1)
0x320|                                          00   |              . |      [1]: 0 ut_local_indicator (valid) 0x32e-0x32e.7 (1)
0x320|                                             01|               .|      [2]: 1 ut_local_indicator (valid) 0x32f-0x32f.7 (1)
0x330|01                                             |.               |      [3]: 1 ut_local_indicator (valid) 0x330-0x330.7 (1)
0x330|   00                                          | .              |      [4]: 0 ut_local_indicator (valid) 0x331-0x331.7 (1)
0x330|      01                                       |  .             |      [5]: 1 ut_local_indicator (valid) 0x332-0x332.7 (1)
0x330|         01                                    |   .            |      [6]: 1 ut_local_indicator (valid) 0x333-0x333.7 (1)
     |                                               |                |  v2plusheader{}: 0x334-0x35f.7 (44)
0x330|            54 5a 69 66                        |    TZif        |    magic: 0x545a6966 (valid) 0x334-0x337.7 (4)
0x330|                        33                     |        3       |    ver: "3" (0x33) (valid) 0x338-0x338.7 (1)
0x330|                           00 00 00 00 00 00 00|         .......|    reserved: raw bits 0x339-0x347.7 (15)
0x340|00 00 00 00 00 00 00 00                        |........        |
0x340|                        00 00 00 07            |        ....    |    isutcnt: 7 0x348-0x34b.7 (4)
0x340|                                    00 00 00 07|            ....|    isstdcnt: 7 0x34c-0x34f.7 (4)
0x350|00 00 00 00                                    |....            |    leapcnt: 0 0x350-0x353.7 (4)
0x350|            00 00 00 8c                        |    ....        |    timecnt: 140 0x354-0x357.7 (4)
0x350|                        00 00 00 07            |        ....    |    typecnt: 7 0x358-0x35b.7 (4)
0x350|                                    00 00 00 14|            ....|    charcnt: 20 0x35c-0x35f.7 (4)
     |                                               |                |  v2plusdatablock{}: 0x360-0x897.7 (1336)
     |                                               |                |    transition_times[0:140]: 0x360-0x7bf.7 (1120)
0x360|ff ff ff ff 69 87 42 08                        |....i.B.        |      [0]: "1890-01-01T07:17:28Z" (-2524495352) transition_time 0x360-0x367.7 (8)
0x360|                        ff ff ff ff b9 c7 40 88|        ......@.|      [1]: "1932-09-01T07:17:28Z" (-1178124152) transition_time 0x368-0x36f.7 (8)
0x370|ff ff ff ff fd d1 3c 40                        |......<@        |      [2]: "1968-11-03T04:00:00Z" (-36619200) transition_time 0x370-0x377.7 (8)
0x370|                        ff ff ff ff fe 92 fa b0|        ........|      [3]: "1969-03-30T03:00:00Z" (-23922000) transition_time 0x378-0x37f.7 (8)
0x380|ff ff ff ff ff cc cd c0                        |........        |      [4]: "1969-11-23T04:00:00Z" (-3355200) transition_time 0x380-0x387.7 (8)
0x380|                        00 00 00 00 00 72 dc b0|        .....r..|      [5]: "1970-03-29T03:00:00Z" (7527600) transition_time 0x388-0x38f.7 (8)
0x390|00 00 00 00 01 75 50 c0                        |.....uP.        |      [6]: "1970-10-11T04:00:00Z" (24465600) transition_time 0x390-0x397.7 (8)
0x390|                        00 00 00 00 02 40 49 b0|        .....@I.|      [7]: "1971-03-14T03:00:00Z" (37767600) transition_time 0x398-0x39f.7 (8)
0x3a0|00 00 00 00 03 55 32 c0                        |.....U2.        |      [8]: "1971-10-10T04:00:00Z" (55915200) transition_time 0x3a0-0x3a7.7 (8)
0x3a0|                        00 00 00 00 04 20 2b b0|        ..... +.|      [9]: "1972-03-12T03:00:00Z" (69217200) transition_time 0x3a8-0x3af.7 (8)
0x3b0|00 00 00 00 05 3e 4f 40                        |.....>O@        |      [10]: "1972-10-15T04:00:00Z" (87969600) transition_time 0x3b0-0x3b7.7 (8)
0x3b0|                        00 00 00 00 06 00 0d b0|        ........|      [11]: "1973-03-11T03:00:00Z" (100666800) transition_time 0x3b8-0x3bf.7 (8)
0x3c0|00 00 00 00 07 0b bc 40                        |.......@        |      [12]: "1973-09-30T04:00:00Z" (118209600) transition_time 0x3c0-0x3c7.7 (8)
0x3c0|                        00 00 00 00 07 df ef b0|        ........|      [13]: "1974-03-10T03:00:00Z" (132116400) transition_time 0x3c8-0x3cf.7 (8)
0x3d0|00 00 00 00 08 fe 13 40                        |.......@        |      [14]: "1974-10-13T04:00:00Z" (150868800) transition_time 0x3d0-0x3d7.7 (8)
0x3d0|                        00 00 00 00 09 bf d1 b0|        ........|      [15]: "1975-03-09T03:00:00Z" (163566000) transition_time 0x3d8-0x3df.7 (8)
0x3e0|00 00 00 00 0a dd f5 40                        |.......@        |      [16]: "1975-10-12T04:00:00Z" (182318400) transition_time 0x3e0-0x3e7.7 (8)
0x3e0|                        00 00 00 00 0b a8 ee 30|        .......0|      [17]: "1976-03-14T03:00:00Z" (195620400) transition_time 0x3e8-0x3ef.7 (8)
0x3f0|00 00 00 00 0c bd d7 40                        |.......@        |      [18]: "1976-10-10T04:00:00Z" (213768000) transition_time 0x3f0-0x3f7.7 (8)
0x3f0|                        00 00 00 00 0d 88 d0 30|        .......0|      [19]: "1977-03-13T03:00:00Z" (227070000) transition_time 0x3f8-0x3ff.7 (8)
0x400|00 00 00 00 0e 9d b9 40                        |.......@        |      [20]: "1977-10-09T04:00:00Z" (245217600) transition_time 0x400-0x407.7 (8)
0x400|                        00 00 00 00 0f 68 b2 30|        .....h.0|      [21]: "1978-03-12T03:00:00Z" (258519600) transition_time 0x408-0x40f.7 (8)
0x410|00 00 00 00 10 86 d5 c0                        |........        |      [22]: "1978-10-15T04:00:00Z" (277272000) transition_time 0x410-0x417.7 (8)
0x410|                        00 00 00 00 11 48 94 30|        .....H.0|      [23]: "1979-03-11T03:00:00Z" (289969200) transition_time 0x418-0x41f.7 (8)
0x420|00 00 00 00 12 66 b7 c0                        |.....f..        |      [24]: "1979-10-14T04:00:00Z" (308721600) transition_time 0x420-0x427.7 (8)
0x420|                        00 00 00 00 13 28 76 30|        .....(v0|      [25]: "1980-03-09T03:00:00Z" (321418800) transition_time 0x428-0x42f.7 (8)
0x430|00 00 00 00 14 46 99 c0                        |.....F..        |      [26]: "1980-10-12T04:00:00Z" (340171200) transition_time 0x430-0x437.7 (8)
0x430|                        00 00 00 00 15 11 92 b0|        ........|      [27]: "1981-03-15T03:00:00Z" (353473200) transition_time 0x438-0x43f.7 (8)
0x440|00 00 00 00 16 26 7b c0                        |.....&{.        |      [28]: "1981-10-11T04:00:00Z" (371620800) transition_time 0x440-0x447.7 (8)
0x440|                        00 00 00 00 16 f1 74 b0|        ......t.|      [29]: "1982-03-14T03:00:00Z" (384922800) transition_time 0x448-0x44f.7 (8)
0x450|00 00 00 00 18 06 5d c0                        |......].        |      [30]: "1982-10-10T04:00:00Z" (403070400) transition_time 0x450-0x457.7 (8)
0x450|                        00 00 00 00 18 d1 56 b0|        ......V.|      [31]: "1983-03-13T03:00:00Z" (416372400) transition_time 0x458-0x45f.7 (8)
0x460|00 00 00 00 19 e6 3f c0                        |......?.        |      [32]: "1983-10-09T04:00:00Z" (434520000) transition_time 0x460-0x467.7 (8)
0x460|                        00 00 00 00 1a b1 38 b0|        ......8.|      [33]: "1984-03-11T03:00:00Z" (447822000) transition_time 0x468-0x46f.7 (8)
0x470|00 00 00 00 1b cf 5c 40                        |......\@        |      [34]: "1984-10-14T04:00:00Z" (466574400) transition_time 0x470-0x477.7 (8)
0x470|                        00 00 00 00 1c 91 1a b0|        ........|      [35]: "1985-03-10T03:00:00Z" (479271600) transition_time 0x478-0x47f.7 (8)
0x480|00 00 00 00 1d af 3e 40                        |......>@        |      [36]: "1985-10-13T04:00:00Z" (498024000) transition_time 0x480-0x487.7 (8)
0x480|                        00 00 00 00 1e 70 fc b0|        .....p..|      [37]: "1986-03-09T03:00:00Z" (510721200) transition_time 0x488-0x48f.7 (8)
0x490|00 00 00 00 1f 8f 20 40                        |...... @        |      [38]: "1986-10-12T04:00:00Z" (529473600) transition_time 0x490-0x497.7 (8)
0x490|                        00 00 00 00 20 7f 03 30|        .... ..0|      [39]: "1987-04-12T03:00:00Z" (545194800) transition_time 0x498-0x49f.7 (8)
0x4a0|00 00 00 00 21 6f 02 40                        |....!o.@        |      [40]: "1987-10-11T04:00:00Z" (560923200) transition_time 0x4a0-0x4a7.7 (8)
0x4a0|                        00 00 00 00 22 39 fb 30|        ...."9.0|      [41]: "1988-03-13T03:00:00Z" (574225200) transition_time 0x4a8-0x4af.7 (8)
0x4b0|00 00 00 00 23 4e e4 40                        |....#N.@        |      [42]: "1988-10-09T04:00:00Z" (592372800) transition_time 0x4b0-0x4b7.7 (8)
0x4b0|                        00 00 00 00 24 19 dd 30|        ....$..0|      [43]: "1989-03-12T03:00:00Z" (605674800) transition_time 0x4b8-0x4bf.7 (8)
0x4c0|00 00 00 00 25 38 00 c0                        |....%8..        |      [44]: "1989-10-15T04:00:00Z" (624427200) transition_time 0x4c0-0x4c7.7 (8)
0x4c0|                        00 00 00 00 25 f9 bf 30|        ....%..0|      [45]: "1990-03-11T03:00:00Z" (637124400) transition_time 0x4c8-0x4cf.7 (8)
0x4d0|00 00 00 00 26 f2 f8 c0                        |....&...        |      [46]: "1990-09-16T04:00:00Z" (653457600) transition_time 0x4d0-0x4d7.7 (8)
0x4d0|                        00 00 00 00 27 d9 a1 30|        ....'..0|      [47]: "1991-03-10T03:00:00Z" (668574000) transition_time 0x4d8-0x4df.7 (8)
0x4e0|00 00 00 00 28 f7 c4 c0                        |....(...        |      [48]: "1991-10-13T04:00:00Z" (687326400) transition_time 0x4e0-0x4e7.7 (8)
0x4e0|                        00 00 00 00 29 c2 bd b0|        ....)...|      [49]: "1992-03-15T03:00:00Z" (700628400) transition_time 0x4e8-0x4ef.7 (8)
0x4f0|00 00 00 00 2a d7 a6 c0                        |....*...        |      [50]: "1992-10-11T04:00:00Z" (718776000) transition_time 0x4f0-0x4f7.7 (8)
0x4f0|                        00 00 00 00 2b a2 9f b0|        ....+...|      [51]: "1993-03-14T03:00:00Z" (732078000) transition_time 0x4f8-0x4ff.7 (8)
0x500|00 00 00 00 2c b7 88 c0                        |....,...        |      [52]: "1993-10-10T04:00:00Z" (750225600) transition_time 0x500-0x507.7 (8)
0x500|                        00 00 00 00 2d 82 81 b0|        ....-...|      [53]: "1994-03-13T03:00:00Z" (763527600) transition_time 0x508-0x50f.7 (8)
0x510|00 00 00 00 2e 97 6a c0                        |......j.        |      [54]: "1994-10-09T04:00:00Z" (781675200) transition_time 0x510-0x517.7 (8)
0x510|                        00 00 00 00 2f 62 63 b0|        ..../bc.|      [55]: "1995-03-12T03:00:00Z" (794977200) transition_time 0x518-0x51f.7 (8)
0x520|00 00 00 00 30 80 87 40                        |....0..@        |      [56]: "1995-10-15T04:00:00Z" (813729600) transition_time 0x520-0x527.7 (8)
0x520|                        00 00 00 00 31 42 45 b0|        ....1BE.|      [57]: "1996-03-10T03:00:00Z" (826426800) transition_time 0x528-0x52f.7 (8)
0x530|00 00 00 00 32 60 69 40                        |....2`i@        |      [58]: "1996-10-13T04:00:00Z" (845179200) transition_time 0x530-0x537.7 (8)
0x530|                        00 00 00 00 33 3d d7 30|        ....3=.0|      [59]: "1997-03-30T03:00:00Z" (859690800) transition_time 0x538-0x53f.7 (8)
0x540|00 00 00 00 34 40 4b 40                        |....4@K@        |      [60]: "1997-10-12T04:00:00Z" (876628800) transition_time 0x540-0x547.7 (8)
0x540|                        00 00 00 00 35 0b 44 30|        ....5.D0|      [61]: "1998-03-15T03:00:00Z" (889930800) transition_time 0x548-0x54f.7 (8)
0x550|00 00 00 00 36 0d b8 40                        |....6..@        |      [62]: "1998-09-27T04:00:00Z" (906868800) transition_time 0x550-0x557.7 (8)
0x550|                        00 00 00 00 37 06 d5 b0|        ....7...|      [63]: "1999-04-04T03:00:00Z" (923194800) transition_time 0x558-0x55f.7 (8)
0x560|00 00 00 00 38 00 0f 40                        |....8..@        |      [64]: "1999-10-10T04:00:00Z" (939528000) transition_time 0x560-0x567.7 (8)
0x560|                        00 00 00 00 38 cb 08 30|        ....8..0|      [65]: "2000-03-12T03:00:00Z" (952830000) transition_time 0x568-0x56f.7 (8)
0x570|00 00 00 00 39 e9 2b c0                        |....9.+.        |      [66]: "2000-10-15T04:00:00Z" (971582400) transition_time 0x570-0x577.7 (8)
0x570|                        00 00 00 00 3a aa ea 30|        ....:..0|      [67]: "2001-03-11T03:00:00Z" (984279600) transition_time 0x578-0x57f.7 (8)
0x580|00 00 00 00 3b c9 0d c0                        |....;...        |      [68]: "2001-10-14T04:00:00Z" (1003032000) transition_time 0x580-0x587.7 (8)
0x580|                        00 00 00 00 3c 8a cc 30|        ....<..0|      [69]: "2002-03-10T03:00:00Z" (1015729200) transition_time 0x588-0x58f.7 (8)
0x590|00 00 00 00 3d a8 ef c0                        |....=...        |      [70]: "2002-10-13T04:00:00Z" (1034481600) transition_time 0x590-0x597.7 (8)
0x590|                        00 00 00 00 3e 6a ae 30|        ....>j.0|      [71]: "2003-03-09T03:00:00Z" (1047178800) transition_time 0x598-0x59f.7 (8)
0x5a0|00 00 00 00 3f 88 d1 c0                        |....?...        |      [72]: "2003-10-12T04:00:00Z" (1065931200) transition_time 0x5a0-0x5a7.7 (8)
0x5a0|                        00 00 00 00 40 53 ca b0|        ....@S..|      [73]: "2004-03-14T03:00:00Z" (1079233200) transition_time 0x5a8-0x5af.7 (8)
0x5b0|00 00 00 00 41 68 b3 c0                        |....Ah..        |      [74]: "2004-10-10T04:00:00Z" (1097380800) transition_time 0x5b0-0x5b7.7 (8)
0x5b0|                        00 00 00 00 42 33 ac b0|        ....B3..|      [75]: "2005-03-13T03:00:00Z" (1110682800) transition_time 0x5b8-0x5bf.7 (8)
0x5c0|00 00 00 00 43 48 95 c0                        |....CH..        |      [76]: "2005-10-09T04:00:00Z" (1128830400) transition_time 0x5c0-0x5c7.7 (8)
0x5c0|                        00 00 00 00 44 13 8e b0|        ....D...|      [77]: "2006-03-12T03:00:00Z" (1142132400) transition_time 0x5c8-0x5cf.7 (8)
0x5d0|00 00 00 00 45 31 b2 40                        |....E1.@        |      [78]: "2006-10-15T04:00:00Z" (1160884800) transition_time 0x5d0-0x5d7.7 (8)
0x5d0|                        00 00 00 00 45 f3 70 b0|        ....E.p.|      [79]: "2007-03-11T03:00:00Z" (1173582000) transition_time 0x5d8-0x5df.7 (8)
0x5e0|00 00 00 00 47 11 94 40                        |....G..@        |      [80]: "2007-10-14T04:00:00Z" (1192334400) transition_time 0x5e0-0x5e7.7 (8)
0x5e0|                        00 00 00 00 47 ef 02 30|        ....G..0|      [81]: "2008-03-30T03:00:00Z" (1206846000) transition_time 0x5e8-0x5ef.7 (8)
0x5f0|00 00 00 00 48 f1 76 40                        |....H.v@        |      [82]: "2008-10-12T04:00:00Z" (1223784000) transition_time 0x5f0-0x5f7.7 (8)
0x5f0|                        00 00 00 00 49 bc 6f 30|        ....I.o0|      [83]: "2009-03-15T03:00:00Z" (1237086000) transition_time 0x5f8-0x5ff.7 (8)
0x600|00 00 00 00 4a d1 58 40                        |....J.X@        |      [84]: "2009-10-11T04:00:00Z" (1255233600) transition_time 0x600-0x607.7 (8)
0x600|                        00 00 00 00 4b b8 00 b0|        ....K...|      [85]: "2010-04-04T03:00:00Z" (1270350000) transition_time 0x608-0x60f.7 (8)
0x610|00 00 00 00 4c b1 3a 40                        |....L.:@        |      [86]: "2010-10-10T04:00:00Z" (1286683200) transition_time 0x610-0x617.7 (8)
0x610|                        00 00 00 00 4d c6 07 30|        ....M..0|      [87]: "2011-05-08T03:00:00Z" (1304823600) transition_time 0x618-0x61f.7 (8)
0x620|00 00 00 00 4e 50 82 c0                        |....NP..        |      [88]: "2011-08-21T04:00:00Z" (1313899200) transition_time 0x620-0x627.7 (8)
0x620|                        00 00 00 00 4f 9c ae b0|        ....O...|      [89]: "2012-04-29T03:00:00Z" (1335668400) transition_time 0x628-0x62f.7 (8)
0x630|00 00 00 00 50 42 d9 c0                        |....PB..        |      [90]: "2012-09-02T04:00:00Z" (1346558400) transition_time 0x630-0x637.7 (8)
0x630|                        00 00 00 00 51 7c 90 b0|        ....Q|..|      [91]: "2013-04-28T03:00:00Z" (1367118000) transition_time 0x638-0x63f.7 (8)
0x640|00 00 00 00 52 2b f6 40                        |....R+.@        |      [92]: "2013-09-08T04:00:00Z" (1378612800) transition_time 0x640-0x647.7 (8)
0x640|                        00 00 00 00 53 5c 72 b0|        ....S\r.|      [93]: "2014-04-27T03:00:00Z" (1398567600) transition_time 0x648-0x64f.7 (8)
0x650|00 00 00 00 54 0b d8 40                        |....T..@        |      [94]: "2014-09-07T04:00:00Z" (1410062400) transition_time 0x650-0x657.7 (8)
0x650|                        00 00 00 00 57 37 e6 30|        ....W7.0|      [95]: "2016-05-15T03:00:00Z" (1463281200) transition_time 0x658-0x65f.7 (8)
0x660|00 00 00 00 57 af ec c0                        |....W...        |      [96]: "2016-08-14T04:00:00Z" (1471147200) transition_time 0x660-0x667.7 (8)
0x660|                        00 00 00 00 59 17 c8 30|        ....Y..0|      [97]: "2017-05-14T03:00:00Z" (1494730800) transition_time 0x668-0x66f.7 (8)
0x670|00 00 00 00 59 8f ce c0                        |....Y...        |      [98]: "2017-08-13T04:00:00Z" (1502596800) transition_time 0x670-0x677.7 (8)
0x670|                        00 00 00 00 5a f7 aa 30|        ....Z..0|      [99]: "2018-05-13T03:00:00Z" (1526180400) transition_time 0x678-0x67f.7 (8)
0x680|00 00 00 00 5b 6f b0 c0                        |....[o..        |      [100]: "2018-08-12T04:00:00Z" (1534046400) transition_time 0x680-0x687.7 (8)
0x680|                        00 00 00 00 5c a9 67 b0|        ....\.g.|      [101]: "2019-04-07T03:00:00Z" (1554606000) transition_time 0x688-0x68f.7 (8)
0x690|00 00 00 00 5d 74 7c c0                        |....]t|.        |      [102]: "2019-09-08T04:00:00Z" (1567915200) transition_time 0x690-0x697.7 (8)
0x690|                        00 00 00 00 5e 89 49 b0|        ....^.I.|      [103]: "2020-04-05T03:00:00Z" (1586055600) transition_time 0x698-0x69f.7 (8)
0x6a0|00 00 00 00 5f 54 5e c0                        |...._T^.        |      [104]: "2020-09-06T04:00:00Z" (1599364800) transition_time 0x6a0-0x6a7.7 (8)
0x6a0|                        00 00 00 00 60 69 2b b0|        ....`i+.|      [105]: "2021-04-04T03:00:00Z" (1617505200) transition_time 0x6a8-0x6af.7 (8)
0x6b0|00 00 00 00 61 34 40 c0                        |....a4@.        |      [106]: "2021-09-05T04:00:00Z" (1630814400) transition_time 0x6b0-0x6b7.7 (8)
0x6b0|                        00 00 00 00 62 49 0d b0|        ....bI..|      [107]: "2022-04-03T03:00:00Z" (1648954800) transition_time 0x6b8-0x6bf.7 (8)
0x6c0|00 00 00 00 63 1d 5d 40                        |....c.]@        |      [108]: "2022-09-11T04:00:00Z" (1662868800) transition_time 0x6c0-0x6c7.7 (8)
0x6c0|                        00 00 00 00 64 28 ef b0|        ....d(..|      [109]: "2023-04-02T03:00:00Z" (1680404400) transition_time 0x6c8-0x6cf.7 (8)
0x6d0|00 00 00 00 64 f4 04 c0                        |....d...        |      [110]: "2023-09-03T04:00:00Z" (1693713600) transition_time 0x6d0-0x6d7.7 (8)
0x6d0|                        00 00 00 00 66 12 0c 30|        ....f..0|      [111]: "2024-04-07T03:00:00Z" (1712458800) transition_time 0x6d8-0x6df.7 (8)
0x6e0|00 00 00 00 66 dd 21 40                        |....f.!@        |      [112]: "2024-09-08T04:00:00Z" (1725768000) transition_time 0x6e0-0x6e7.7 (8)
0x6e0|                        00 00 00 00 67 f1 ee 30|        ....g..0|      [113]: "2025-04-06T03:00:00Z" (1743908400) transition_time 0x6e8-0x6ef.7 (8)
0x6f0|00 00 00 00 68 bd 03 40                        |....h..@        |      [114]: "2025-09-07T04:00:00Z" (1757217600) transition_time 0x6f0-0x6f7.7 (8)
0x6f0|                        00 00 00 00 69 d1 d0 30|        ....i..0|      [115]: "2026-04-05T03:00:00Z" (1775358000) transition_time 0x6f8-0x6ff.7 (8)
0x700|00 00 00 00 6a 9c e5 40                        |....j..@        |      [116]: "2026-09-06T04:00:00Z" (1788667200) transition_time 0x700-0x707.7 (8)
0x700|                        00 00 00 00 6b b1 b2 30|        ....k..0|      [117]: "2027-04-04T03:00:00Z" (1806807600) transition_time 0x708-0x70f.7 (8)
0x710|00 00 00 00 6c 7c c7 40                        |....l|.@        |      [118]: "2027-09-05T04:00:00Z" (1820116800) transition_time 0x710-0x717.7 (8)
0x710|                        00 00 00 00 6d 91 94 30|        ....m..0|      [119]: "2028-04-02T03:00:00Z" (1838257200) transition_time 0x718-0x71f.7 (8)
0x720|00 00 00 00 6e 5c a9 40                        |....n\.@        |      [120]: "2028-09-03T04:00:00Z" (1851566400) transition_time 0x720-0x727.7 (8)
0x720|                        00 00 00 00 6f 7a b0 b0|        ....oz..|      [121]: "2029-04-08T03:00:00Z" (1870311600) transition_time 0x728-0x72f.7 (8)
0x730|00 00 00 00 70 3c 8b 40                        |....p<.@        |      [122]: "2029-09-02T04:00:00Z" (1883016000) transition_time 0x730-0x737.7 (8)
0x730|                        00 00 00 00 71 5a 92 b0|        ....qZ..|      [123]: "2030-04-07T03:00:00Z" (1901761200) transition_time 0x738-0x73f.7 (8)
0x740|00 00 00 00 72 25 a7 c0                        |....r%..        |      [124]: "2030-09-08T04:00:00Z" (1915070400) transition_time 0x740-0x747.7 (8)
0x740|                        00 00 00 00 73 3a 74 b0|        ....s:t.|      [125]: "2031-04-06T03:00:00Z" (1933210800) transition_time 0x748-0x74f.7 (8)
0x750|00 00 00 00 74 05 89 c0                        |....t...        |      [126]: "2031-09-07T04:00:00Z" (1946520000) transition_time 0x750-0x757.7 (8)
0x750|                        00 00 00 00 75 1a 56 b0|        ....u.V.|      [127]: "2032-04-04T03:00:00Z" (1964660400) transition_time 0x758-0x75f.7 (8)
0x760|00 00 00 00 75 e5 6b c0                        |....u.k.        |      [128]: "2032-09-05T04:00:00Z" (1977969600) transition_time 0x760-0x767.7 (8)
0x760|                        00 00 00 00 76 fa 38 b0|        ....v.8.|      [129]: "2033-04-03T03:00:00Z" (1996110000) transition_time 0x768-0x76f.7 (8)
0x770|00 00 00 00 77 c5 4d c0                        |....w.M.        |      [130]: "2033-09-04T04:00:00Z" (2009419200) transition_time 0x770-0x777.7 (8)
0x770|                        00 00 00 00 78 da 1a b0|        ....x...|      [131]: "2034-04-02T03:00:00Z" (2027559600) transition_time 0x778-0x77f.7 (8)
0x780|00 00 00 00 79 a5 2f c0                        |....y./.        |      [132]: "2034-09-03T04:00:00Z" (2040868800) transition_time 0x780-0x787.7 (8)
0x780|                        00 00 00 00 7a c3 37 30|        ....z.70|      [133]: "2035-04-08T03:00:00Z" (2059614000) transition_time 0x788-0x78f.7 (8)
0x790|00 00 00 00 7b 85 11 c0                        |....{...        |      [134]: "2035-09-02T04:00:00Z" (2072318400) transition_time 0x790-0x797.7 (8)
0x790|                        00 00 00 00 7c a3 19 30|        ....|..0|      [135]: "2036-04-06T03:00:00Z" (2091063600) transition_time 0x798-0x79f.7 (8)
0x7a0|00 00 00 00 7d 6e 2e 40                        |....}n.@        |      [136]: "2036-09-07T04:00:00Z" (2104372800) transition_time 0x7a0-0x7a7.7 (8)
0x7a0|                        00 00 00 00 7e 82 fb 30|        ....~..0|      [137]: "2037-04-05T03:00:00Z" (2122513200) transition_time 0x7a8-0x7af.7 (8)
0x7b0|00 00 00 00 7f 4e 10 40                        |.....N.@        |      [138]: "2037-09-06T04:00:00Z" (2135822400) transition_time 0x7b0-0x7b7.7 (8)
0x7b0|                        00 00 00 00 7f ff ff ff|        ........|      [139]: "2038-01-19T03:14:07Z" (2147483647) transition_time 0x7b8-0x7bf.7 (8)
     |                                               |                |    transition_types[0:140]: 0x7c0-0x84b.7 (140)
0x7c0|01                                             |.               |      [0]: 1 transition_type 0x7c0-0x7c0.7 (1)
0x7c0|   04                                          | .              |      [1]: 4 transition_type 0x7c1-0x7c1.7 (1)
0x7c0|      02                                       |  .             |      [2]: 2 transition_type 0x7c2-0x7c2.7 (1)
0x7c0|         03                                    |   .            |      [3]: 3 transition_type 0x7c3-0x7c3.7 (1)
0x7c0|            02                                 |    .           |      [4]: 2 transition_type 0x7c4-0x7c4.7 (1)
0x7c0|               03                              |     .          |      [5]: 3 transition_type 0x7c5-0x7c5.7 (1)
0x7c0|                  02                           |      .         |      [6]: 2 transition_type 0x7c6-0x7c6.7 (1)
0x7c0|                     03                        |       .        |      [7]: 3 transition_type 0x7c7-0x7c7.7 (1)
0x7c0|                        02                     |        .       |      [8]: 2 transition_type 0x7c8-0x7c8.7 (1)
0x7c0|                           03                  |         .      |      [9]: 3 transition_type 0x7c9-0x7c9.7 (1)
0x7c0|                              02               |          .     |      [10]: 2 transition_type 0x7ca-0x7ca.7 (1)
0x7c0|                                 03            |           .    |      [11]: 3 transition_type 0x7cb-0x7cb.7 (1)
0x7c0|                                    02         |            .   |      [12]: 2 transition_type 0x7cc-0x7cc.7 (1)
0x7c0|                                       03      |             .  |      [13]: 3 transition_type 0x7cd-0x7cd.7 (1)
0x7c0|                                          02   |              . |      [14]: 2 transition_type 0x7ce-0x7ce.7 (1)
0x7c0|                                             03|               .|      [15]: 3 transition_type 0x7cf-0x7cf.7 (1)
0x7d0|02                                             |.               |      [16]: 2 transition_type 0x7d0-0x7d0.7 (1)
0x7d0|   03                                          | .              |      [17]: 3 transition_type 0x7d1-0x7d1.7 (1)
0x7d0|      02                                       |  .             |      [18]: 2 transition_type 0x7d2-0x7d2.7 (1)
0x7d0|         03                                    |   .            |      [19]: 3 transition_type 0x7d3-0x7d3.7 (1)
0x7d0|            02                                 |    .           |      [20]: 2 transition_type 0x7d4-0x7d4.7 (1)
0x7d0|               03                              |     .          |      [21]: 3 transition_type 0x7d5-0x7d5.7 (1)
0x7d0|                  02                           |      .         |      [22]: 2 transition_type 0x7d6-0x7d6.7 (1)
0x7d0|                     03                        |       .        |      [23]: 3 transition_type 0x7d7-0x7d7.7 (1)
0x7d0|                        02                     |        .       |      [24]: 2 transition_type 0x7d8-0x7d8.7 (1)
0x7d0|                           03                  |         .      |      [25]: 3 transition_type 0x7d9-0x7d9.7 (1)
0x7d0|                              02               |          .     |      [26]: 2 transition_type 0x7da-0x7da.7 (1)
0x7d0|                                 03            |           .    |      [27]: 3 transition_type 0x7db-0x7db.7 (1)
0x7d0|                                    02         |            .   |      [28]: 2 transition_type 0x7dc-0x7dc.7 (1)
0x7d0|                                       05      |             .  |      [29]: 5 transition_type 0x7dd-0x7dd.7 (1)
0x7d0|                                          06   |              . |      [30]: 6 transition_type 0x7de-0x7de.7 (1)
0x7d0|                                             05|               .|      [31]: 5 transition_type 0x7df-0x7df.7 (1)
0x7e0|06                                             |.               |      [32]: 6 transition_type 0x7e0-0x7e0.7 (1)
0x7e0|   05                                          | .              |      [33]: 5 transition_type 0x7e1-0x7e1.7 (1)
0x7e0|      06                                       |  .             |      [34]: 6 transition_type 0x7e2-0x7e2.7 (1)
0x7e0|         05                                    |   .            |      [35]: 5 transition_type 0x7e3-0x7e3.7 (1)
0x7e0|            06                                 |    .           |      [36]: 6 transition_type 0x7e4-0x7e4.7 (1)
0x7e0|               05                              |     .          |      [37]: 5 transition_type 0x7e5-0x7e5.7 (1)
0x7e0|                  06                           |      .         |      [38]: 6 transition_type 0x7e6-0x7e6.7 (1)
0x7e0|                     05                        |       .        |      [39]: 5 transition_type 0x7e7-0x7e7.7 (1)
0x7e0|                        06                     |        .       |      [40]: 6 transition_type 0x7e8-0x7e8.7 (1)
0x7e0|                           05                  |         .      |      [41]: 5 transition_type 0x7e9-0x7e9.7 (1)
0x7e0|                              06               |          .     |      [42]: 6 transition_type 0x7ea-0x7ea.7 (1)
0x7e0|                                 05            |           .    |      [43]: 5 transition_type 0x7eb-0x7eb.7 (1)
0x7e0|                                    06         |            .   |      [44]: 6 transition_type 0x7ec-0x7ec.7 (1)
0x7e0|                                       05      |             .  |      [45]: 5 transition_type 0x7ed-0x7ed.7 (1)
0x7e0|                                          06   |              . |      [46]: 6 transition_type 0x7ee-0x7ee.7 (1)
0x7e0|                                             05|               .|      [47]: 5 transition_type 0x7ef-0x7ef.7 (1)
0x7f0|06                                             |.               |      [48]: 6 transition_type 0x7f0-0x7f0.7 (1)
0x7f0|   05                                          | .              |      [49]: 5 transition_type 0x7f1-0x7f1.7 (1)
0x7f0|      06                                       |  .             |      [50]: 6 transition_type 0x7f2-0x7f2.7 (1)
0x7f0|         05                                    |   .            |      [51]: 5 transition_type 0x7f3-0x7f3.7 (1)
0x7f0|            06                                 |    .           |      [52]: 6 transition_type 0x7f4-0x7f4.7 (1)
0x7f0|               05                              |     .          |      [53]: 5 transition_type 0x7f5-0x7f5.7 (1)
0x7f0|                  06                           |      .         |      [54]: 6 transition_type 0x7f6-0x7f6.7 (1)
0x7f0|                     05                        |       .        |      [55]: 5 transition_type 0x7f7-0x7f7.7 (1)
0x7f0|                        06                     |        .       |      [56]: 6 transition_type 0x7f8-0x7f8.7 (1)
0x7f0|                           05                  |         .      |      [57]: 5 transition_type 0x7f9-0x7f9.7 (1)
0x7f0|                              06               |          .     |      [58]: 6 transition_type 0x7fa-0x7fa.7 (1)
0x7f0|                                 05            |           .    |      [59]: 5 transition_type 0x7fb-0x7fb.7 (1)
0x7f0|                                    06         |            .   |      [60]: 6 transition_type 0x7fc-0x7fc.7 (1)
0x7f0|                                       05      |             .  |      [61]: 5 transition_type 0x7fd-0x7fd.7 (1)
0x7f0|                                          06   |              . |      [62]: 6 transition_type 0x7fe-0x7fe.7 (1)
0x7f0|                                             05|               .|      [63]: 5 transition_type 0x7ff-0x7ff.7 (1)
0x800|06                                             |.               |      [64]: 6 transition_type 0x800-0x800.7 (1)
0x800|   05                                          | .              |      [65]: 5 transition_type 0x801-0x801.7 (1)
0x800|      06                                       |  .             |      [66]: 6 transition_type 0x802-0x802.7 (1)
0x800|         05                                    |   .            |      [67]: 5 transition_type 0x803-0x803.7 (1)
0x800|            06                                 |    .           |      [68]: 6 transition_type 0x804-0x804.7 (1)
0x800|               05                              |     .          |      [69]: 5 transition_type 0x805-0x805.7 (1)
0x800|                  06                           |      .         |      [70]: 6 transition_type 0x806-0x806.7 (1)
0x800|                     05                        |       .        |      [71]: 5 transition_type 0x807-0x807.7 (1)
0x800|                        06                     |        .       |      [72]: 6 transition_type 0x808-0x808.7 (1)
0x800|                           05                  |         .      |      [73]: 5 transition_type 0x809-0x809.7 (1)
0x800|                              06               |          .     |      [74]: 6 transition_type 0x80a-0x80a.7 (1)
0x800|                                 05            |           .    |      [75]: 5 transition_type 0x80b-0x80b.7 (1)
0x800|                                    06         |            .   |      [76]: 6 transition_type 0x80c-0x80c.7 (1)
0x800|                                       05      |             .  |      [77]: 5 transition_type 0x80d-0x80d.7 (1)
0x800|                                          06   |              . |      [78]: 6 transition_type 0x80e-0x80e.7 (1)
0x800|                                             05|               .|      [79]: 5 transition_type 0x80f-0x80f.7 (1)
0x810|06                                             |.               |      [80]: 6 transition_type 0x810-0x810.7 (1)
0x810|   05                                          | .              |      [81]: 5 transition_type 0x811-0x811.7 (1)
0x810|      06                                       |  .             |      [82]: 6 transition_type 0x812-0x812.7 (1)
0x810|         05                                    |   .            |      [83]: 5 transition_type 0x813-0x813.7 (1)
0x810|            06                                 |    .           |      [84]: 6 transition_type 0x814-0x814.7 (1)
0x810|               05                              |     .          |      [85]: 5 transition_type 0x815-0x815.7 (1)
0x810|                  06                           |      .         |      [86]: 6 transition_type 0x816-0x816.7 (1)
0x810|                     05                        |       .        |      [87]: 5 transition_type 0x817-0x817.7 (1)
0x810|                        06                     |        .       |      [88]: 6 transition_type 0x818-0x818.7 (1)
0x810|                           05                  |         .      |      [89]: 5 transition_type 0x819-0x819.7 (1)
0x810|                              06               |          .     |      [90]: 6 transition_type 0x81a-0x81a.7 (1)
0x810|                                 05            |           .    |      [91]: 5 transition_type 0x81b-0x81b.7 (1)
0x810|                                    06         |            .   |      [92]: 6 transition_type 0x81c-0x81c.7 (1)
0x810|                                       05      |             .  |      [93]: 5 transition_type 0x81d-0x81d.7 (1)
0x810|                                          06   |              . |      [94]: 6 transition_type 0x81e-0x81e.7 (1)
0x810|                                             05|               .|      [95]: 5 transition_type 0x81f-0x81f.7 (1)
0x820|06                                             |.               |      [96]: 6 transition_type 0x820-0x820.7 (1)
0x820|   05                                          | .              |      [97]: 5 transition_type 0x821-0x821.7 (1)
0x820|      06                                       |  .             |      [98]: 6 transition_type 0x822-0x822.7 (1)
0x820|         05                                    |   .            |      [99]: 5 transition_type 0x823-0x823.7 (1)
0x820|            06                                 |    .           |      [100]: 6 transition_type 0x824-0x824.7 (1)
0x820|               05                              |     .          |      [101]: 5 transition_type 0x825-0x825.7 (1)
0x820|                  06                           |      .         |      [102]: 6 transition_type 0x826-0x826.7 (1)
0x820|                     05                        |       .        |      [103]: 5 transition_type 0x827-0x827.7 (1)
0x820|                        06                     |        .       |      [104]: 6 transition_type 0x828-0x828.7 (1)
0x820|                           05                  |         .      |      [105]: 5 transition_type 0x829-0x829.7 (1)
0x820|                              06               |          .     |      [106]: 6 transition_type 0x82a-0x82a.7 (1)
0x820|                                 05            |           .    |      [107]: 5 transition_type 0x82b-0x82b.7 (1)
0x820|                                    06         |            .   |      [108]: 6 transition_type 0x82c-0x82c.7 (1)
0x820|                                       05      |             .  |      [109]: 5 transition_type 0x82d-0x82d.7 (1)
0x820|                                          06   |              . |      [110]: 6 transition_type 0x82e-0x82e.7 (1)
0x820|                                             05|               .|      [111]: 5 transition_type 0x82f-0x82f.7 (1)
0x830|06                                             |.               |      [112]: 6 transition_type 0x830-0x830.7 (1)
0x830|   05                                          | .              |      [113]: 5 transition_type 0x831-0x831.7 (1)
0x830|      06                                       |  .             |      [114]: 6 transition_type 0x832-0x832.7 (1)
0x830|         05                                    |   .            |      [115]: 5 transition_type 0x833-0x833.7 (1)
0x830|            06                                 |    .           |      [116]: 6 transition_type 0x834-0x834.7 (1)
0x830|               05                              |     .          |      [117]: 5 transition_type 0x835-0x835.7 (1)
0x830|                  06                           |      .         |      [118]: 6 transition_type 0x836-0x836.7 (1)
0x830|                     05                        |       .        |      [119]: 5 transition_type 0x837-0x837.7 (1)
0x830|                        06                     |        .       |      [120]: 6 transition_type 0x838-0x838.7 (1)
0x830|                           05                  |         .      |      [121]: 5 transition_type 0x839-0x839.7 (1)
0x830|                              06               |          .     |      [122]: 6 transition_type 0x83a-0x83a.7 (1)
0x830|                                 05            |           .    |      [123]: 5 transition_type 0x83b-0x83b.7 (1)
0x830|                                    06         |            .   |      [124]: 6 transition_type 0x83c-0x83c.7 (1)
0x830|                                       05      |             .  |      [125]: 5 transition_type 0x83d-0x83d.7 (1)
0x830|                                          06   |              . |      [126]: 6 transition_type 0x83e-0x83e.7 (1)
0x830|                                             05|               .|      [127]: 5 transition_type 0x83f-0x83f.7 (1)
0x840|06                                             |.               |      [128]: 6 transition_type 0x840-0x840.7 (1)
0x840|   05                                          | .              |      [129]: 5 transition_type 0x841-0x841.7 (1)
0x840|      06                                       |  .             |      [130]: 6 transition_type 0x842-0x842.7 (1)
0x840|         05                                    |   .            |      [131]: 5 transition_type 0x843-0x843.7 (1)
0x840|            06                                 |    .           |      [132]: 6 transition_type 0x844-0x844.7 (1)
0x840|               05                              |     .          |      [133]: 5 transition_type 0x845-0x845.7 (1)
0x840|                  06                           |      .         |      [134]: 6 transition_type 0x846-0x846.7 (1)
0x840|                     05                        |       .        |      [135]: 5 transition_type 0x847-0x847.7 (1)
0x840|                        06                     |        .       |      [136]: 6 transition_type 0x848-0x848.7 (1)
0x840|                           05                  |         .      |      [137]: 5 transition_type 0x849-0x849.7 (1)
0x840|                              06               |          .     |      [138]: 6 transition_type 0x84a-0x84a.7 (1)
0x840|                                 06            |           .    |      [139]: 6 transition_type 0x84b-0x84b.7 (1)
     |                                               |                |    local_time_type_records[0:7]: 0x84c-0x875.7 (42)
     |                                               |                |      [0]{}: local_time_type 0x84c-0x851.7 (6)
0x840|                                    ff ff 99 78|            ...x|        utoff: -26248 (valid) 0x84c-0x84f.7 (4)
0x850|00                                             |.               |        dst: 0 (valid) 0x850-0x850.7 (1)
0x850|   00                                          | .              |        idx: 0 (valid) 0x851-0x851.7 (1)
     |                                               |                |      [1]{}: local_time_type 0x852-0x857.7 (6)
0x850|      ff ff 99 78                              |  ...x          |        utoff: -26248 (valid) 0x852-0x855.7 (4)
0x850|                  00                           |      .         |        dst: 0 (valid) 0x856-0x856.7 (1)
0x850|                     04                        |       .        |        idx: 4 (valid) 0x857-0x857.7 (1)
     |                                               |                |      [2]{}: local_time_type 0x858-0x85d.7 (6)
0x850|                        ff ff ab a0            |        ....    |        utoff: -21600 (valid) 0x858-0x85b.7 (4)
0x850|                                    01         |            .   |        dst: 1 (valid) 0x85c-0x85c.7 (1)
0x850|                                       08      |             .  |        idx: 8 (valid) 0x85d-0x85d.7 (1)
     |                                               |                |      [3]{}: local_time_type 0x85e-0x863.7 (6)
0x850|                                          ff ff|              ..|        utoff: -25200 (valid) 0x85e-0x861.7 (4)
0x860|9d 90                                          |..              |
0x860|      00                                       |  .             |        dst: 0 (valid) 0x862-0x862.7 (1)
0x860|         0c                                    |   .            |        idx: 12 (valid) 0x863-0x863.7 (1)
     |                                               |                |      [4]{}: local_time_type 0x864-0x869.7 (6)
0x860|            ff ff 9d 90                        |    ....        |        utoff: -25200 (valid) 0x864-0x867.7 (4)
0x860|                        00                     |        .       |        dst: 0 (valid) 0x868-0x868.7 (1)
0x860|                           0c                  |         .      |        idx: 12 (valid) 0x869-0x869.7 (1)
     |                                               |                |      [5]{}: local_time_type 0x86a-0x86f.7 (6)
0x860|                              ff ff ab a0      |          ....  |        utoff: -21600 (valid) 0x86a-0x86d.7 (4)
0x860|                                          00   |              . |        dst: 0 (valid) 0x86e-0x86e.7 (1)
0x860|                                             08|               .|        idx: 8 (valid) 0x86f-0x86f.7 (1)
     |                                               |                |      [6]{}: local_time_type 0x870-0x875.7 (6)
0x870|ff ff b9 b0                                    |....            |        utoff: -18000 (valid) 0x870-0x873.7 (4)
0x870|            01                                 |    .           |        dst: 1 (valid) 0x874-0x874.7 (1)
0x870|               10                              |     .          |        idx: 16 (valid) 0x875-0x875.7 (1)
     |                                               |                |    time_zone_designations[0:5]: 0x876-0x889.7 (20)
0x870|                  4c 4d 54 00                  |      LMT.      |      [0]: "LMT" time_zone_designation 0x876-0x879.7 (4)
0x870|                              45 4d 54 00      |          EMT.  |      [1]: "EMT" time_zone_designation 0x87a-0x87d.7 (4)
0x870|                                          2d 30|              -0|      [2]: "-06" time_zone_designation 0x87e-0x881.7 (4)
0x880|36 00                                          |6.              |
0x880|      2d 30 37 00                              |  -07.          |      [3]: "-07" time_zone_designation 0x882-0x885.7 (4)
0x880|                  2d 30 35 00                  |      -05.      |      [4]: "-05" time_zone_designation 0x886-0x889.7 (4)
     |                                               |                |    leap_second_records[0:0]: 0x88a-NA (0)
     |                                               |                |    standard_wall_indicators[0:7]: 0x88a-0x890.7 (7)
0x880|                              00               |          .     |      [0]: 0 standard_wall_indicator (valid) 0x88a-0x88a.7 (1)
0x880|                                 00            |           .    |      [1]: 0 standard_wall_indicator (valid) 0x88b-0x88b.7 (1)
0x880|                                    01         |            .   |      [2]: 1 standard_wall_indicator (valid) 0x88c-0x88c.7 (1)
0x880|                                       01      |             .  |      [3]: 1 standard_wall_indicator (valid) 0x88d-0x88d.7 (1)
0x880|                                          00   |              . |      [4]: 0 standard_wall_indicator (valid) 0x88e-0x88e.7 (1)
0x880|                                             01|               .|      [5]: 1 standard_wall_indicator (valid) 0x88f-0x88f.7 (1)
0x890|01                                             |.               |      [6]: 1 standard_wall_indicator (valid) 0x890-0x890.7 (1)
     |                                               |                |    ut_local_indicators[0:7]: 0x891-0x897.7 (7)
0x890|   00                                          | .              |      [0]: 0 ut_local_indicator (valid) 0x891-0x891.7 (1)
0x890|      00                                       |  .             |      [1]: 0 ut_local_indicator (valid) 0x892-0x892.7 (1)
0x890|         01                                    |   .            |      [2]: 1 ut_local_indicator (valid) 0x893-0x893.7 (1)
0x890|            01                                 |    .           |      [3]: 1 ut_local_indicator (valid) 0x894-0x894.7 (1)
0x890|               00                              |     .          |      [4]: 0 ut_local_indicator (valid) 0x895-0x895.7 (1)
0x890|                  01                           |      .         |      [5]: 1 ut_local_indicator (valid) 0x896-0x896.7 (1)
0x890|                     01                        |       .        |      [6]: 1 ut_local_indicator (valid) 0x897-0x897.7 (1)
     |                                               |                |  footer{}: 0x898-0x8b8.7 (33)
0x890|                        0a                     |        .       |    nl1: 10 (valid) 0x898-0x898.7 (1)
0x890|                           3c 2d 30 36 3e 36 3c|         <-06>6<|    tz_string: "<-06>6<-05>,M9.1.6/22,M4.1.6/22" 0x899-0x8b7.7 (31)
0x8a0|2d 30 35 3e 2c 4d 39 2e 31 2e 36 2f 32 32 2c 4d|-05>,M9.1.6/22,M|
0x8b0|34 2e 31 2e 36 2f 32 32                        |4.1.6/22        |
0x8b0|                        0a|                    |        .|      |    nl2: 10 (valid) 0x8b8-0x8b8.7 (1)
