$ fq -d tzif dv Easter
     |00 01 02 03 04 05 06 07 08 09 0a 0b 0c 0d 0e 0f|0123456789abcdef|.{}: Easter (tzif) 0x0-0x8b9 (2233)
     |                                               |                |  v1header{}: 0x0-0x2c (44)
0x000|54 5a 69 66                                    |TZif            |    magic: 0x545a6966 (valid) 0x0-0x4 (4)
0x000|            33                                 |    3           |    ver: "3" (0x33) (valid) 0x4-0x5 (1)
0x000|               00 00 00 00 00 00 00 00 00 00 00|     ...........|    reserved: raw bits 0x5-0x14 (15)
0x010|00 00 00 00                                    |....            |
0x010|            00 00 00 07                        |    ....        |    isutcnt: 7 0x14-0x18 (4)
0x010|                        00 00 00 07            |        ....    |    isstdcnt: 7 0x18-0x1c (4)
0x010|                                    00 00 00 00|            ....|    leapcnt: 0 0x1c-0x20 (4)
0x020|00 00 00 8c                                    |....            |    timecnt: 140 0x20-0x24 (4)
0x020|            00 00 00 07                        |    ....        |    typecnt: 7 0x24-0x28 (4)
0x020|                        00 00 00 14            |        ....    |    charcnt: 20 0x28-0x2c (4)
     |                                               |                |  v1datablock{}: 0x2c-0x334 (776)
     |                                               |                |    transition_times[0:140]: 0x2c-0x25c (560)
0x020|                                    80 00 00 00|            ....|      [0]: "1901-12-13T20:45:52Z" (-2147483648) transition_time 0x2c-0x30 (4)
0x030|b9 c7 40 88                                    |..@.            |      [1]: "1932-09-01T07:17:28Z" (-1178124152) transition_time 0x30-0x34 (4)
0x030|            fd d1 3c 40                        |    ..<@        |      [2]: "1968-11-03T04:00:00Z" (-36619200) transition_time 0x34-0x38 (4)
0x030|                        fe 92 fa b0            |        ....    |      [3]: "1969-03-30T03:00:00Z" (-23922000) transition_time 0x38-0x3c (4)
0x030|                                    ff cc cd c0|            ....|      [4]: "1969-11-23T04:00:00Z" (-3355200) transition_time 0x3c-0x40 (4)
0x040|00 72 dc b0                                    |.r..            |      [5]: "1970-03-29T03:00:00Z" (7527600) transition_time 0x40-0x44 (4)
0x040|            01 75 50 c0                        |    .uP.        |      [6]: "1970-10-11T04:00:00Z" (24465600) transition_time 0x44-0x48 (4)
0x040|                        02 40 49 b0            |        .@I.    |      [7]: "1971-03-14T03:00:00Z" (37767600) transition_time 0x48-0x4c (4)
0x040|                                    03 55 32 c0|            .U2.|      [8]: "1971-10-10T04:00:00Z" (55915200) transition_time 0x4c-0x50 (4)
0x050|04 20 2b b0                                    |. +.            |      [9]: "1972-03-12T03:00:00Z" (69217200) transition_time 0x50-0x54 (4)
0x050|            05 3e 4f 40                        |    .>O@        |      [10]: "1972-10-15T04:00:00Z" (87969600) transition_time 0x54-0x58 (4)
0x050|                        06 00 0d b0            |        ....    |      [11]: "1973-03-11T03:00:00Z" (100666800) transition_time 0x58-0x5c (4)
0x050|                                    07 0b bc 40|            ...@|      [12]: "1973-09-30T04:00:00Z" (118209600) transition_time 0x5c-0x60 (4)
0x060|07 df ef b0                                    |....            |      [13]: "1974-03-10T03:00:00Z" (132116400) transition_time 0x60-0x64 (4)
0x060|            08 fe 13 40                        |    ...@        |      [14]: "1974-10-13T04:00:00Z" (150868800) transition_time 0x64-0x68 (4)
0x060|                        09 bf d1 b0            |        ....    |      [15]: "1975-03-09T03:00:00Z" (163566000) transition_time 0x68-0x6c (4)
0x060|                                    0a dd f5 40|            ...@|      [16]: "1975-10-12T04:00:00Z" (182318400) transition_time 0x6c-0x70 (4)
0x070|0b a8 ee 30                                    |...0            |      [17]: "1976-03-14T03:00:00Z" (195620400) transition_time 0x70-0x74 (4)
0x070|            0c bd d7 40                        |    ...@        |      [18]: "1976-10-10T04:00:00Z" (213768000) transition_time 0x74-0x78 (4)
0x070|                        0d 88 d0 30            |        ...0    |      [19]: "1977-03-13T03:00:00Z" (227070000) transition_time 0x78-0x7c (4)
0x070|                                    0e 9d b9 40|            ...@|      [20]: "1977-10-09T04:00:00Z" (245217600) transition_time 0x7c-0x80 (4)
0x080|0f 68 b2 30                                    |.h.0            |      [21]: "1978-03-12T03:00:00Z" (258519600) transition_time 0x80-0x84 (4)
0x080|            10 86 d5 c0                        |    ....        |      [22]: "1978-10-15T04:00:00Z" (277272000) transition_time 0x84-0x88 (4)
0x080|                        11 48 94 30            |        .H.0    |      [23]: "1979-03-11T03:00:00Z" (289969200) transition_time 0x88-0x8c (4)
0x080|                                    12 66 b7 c0|            .f..|      [24]: "1979-10-14T04:00:00Z" (308721600) transition_time 0x8c-0x90 (4)
0x090|13 28 76 30                                    |.(v0            |      [25]: "1980-03-09T03:00:00Z" (321418800) transition_time 0x90-0x94 (4)
0x090|            14 46 99 c0                        |    .F..        |      [26]: "1980-10-12T04:00:00Z" (340171200) transition_time 0x94-0x98 (4)
0x090|                        15 11 92 b0            |        ....    |      [27]: "1981-03-15T03:00:00Z" (353473200) transition_time 0x98-0x9c (4)
0x090|                                    16 26 7b c0|            .&{.|      [28]: "1981-10-11T04:00:00Z" (371620800) transition_time 0x9c-0xa0 (4)
0x0a0|16 f1 74 b0                                    |..t.            |      [29]: "1982-03-14T03:00:00Z" (384922800) transition_time 0xa0-0xa4 (4)
0x0a0|            18 06 5d c0                        |    ..].        |      [30]: "1982-10-10T04:00:00Z" (403070400) transition_time 0xa4-0xa8 (4)
0x0a0|                        18 d1 56 b0            |        ..V.    |      [31]: "1983-03-13T03:00:00Z" (416372400) transition_time 0xa8-0xac (4)
0x0a0|                                    19 e6 3f c0|            ..?.|      [32]: "1983-10-09T04:00:00Z" (434520000) transition_time 0xac-0xb0 (4)
0x0b0|1a b1 38 b0                                    |..8.            |      [33]: "1984-03-11T03:00:00Z" (447822000) transition_time 0xb0-0xb4 (4)
0x0b0|            1b cf 5c 40                        |    ..\@        |      [34]: "1984-10-14T04:00:00Z" (466574400) transition_time 0xb4-0xb8 (4)
0x0b0|                        1c 91 1a b0            |        ....    |      [35]: "1985-03-10T03:00:00Z" (479271600) transition_time 0xb8-0xbc (4)
0x0b0|                                    1d af 3e 40|            ..>@|      [36]: "1985-10-13T04:00:00Z" (498024000) transition_time 0xbc-0xc0 (4)
0x0c0|1e 70 fc b0                                    |.p..            |      [37]: "1986-03-09T03:00:00Z" (510721200) transition_time 0xc0-0xc4 (4)
0x0c0|            1f 8f 20 40                        |    .. @        |      [38]: "1986-10-12T04:00:00Z" (529473600) transition_time 0xc4-0xc8 (4)
0x0c0|                        20 7f 03 30            |         ..0    |      [39]: "1987-04-12T03:00:00Z" (545194800) transition_time 0xc8-0xcc (4)
0x0c0|                                    21 6f 02 40|            !o.@|      [40]: "1987-10-11T04:00:00Z" (560923200) transition_time 0xcc-0xd0 (4)
0x0d0|22 39 fb 30                                    |"9.0            |      [41]: "1988-03-13T03:00:00Z" (574225200) transition_time 0xd0-0xd4 (4)
0x0d0|            23 4e e4 40                        |    #N.@        |      [42]: "1988-10-09T04:00:00Z" (592372800) transition_time 0xd4-0xd8 (4)
0x0d0|                        24 19 dd 30            |        $..0    |      [43]: "1989-03-12T03:00:00Z" (605674800) transition_time 0xd8-0xdc (4)
0x0d0|                                    25 38 00 c0|            %8..|      [44]: "1989-10-15T04:00:00Z" (624427200) transition_time 0xdc-0xe0 (4)
0x0e0|25 f9 bf 30                                    |%..0            |      [45]: "1990-03-11T03:00:00Z" (637124400) transition_time 0xe0-0xe4 (4)
0x0e0|            26 f2 f8 c0                        |    &...        |      [46]: "1990-09-16T04:00:00Z" (653457600) transition_time 0xe4-0xe8 (4)
0x0e0|                        27 d9 a1 30            |        '..0    |      [47]: "1991-03-10T03:00:00Z" (668574000) transition_time 0xe8-0xec (4)
0x0e0|                                    28 f7 c4 c0|            (...|      [48]: "1991-10-13T04:00:00Z" (687326400) transition_time 0xec-0xf0 (4)
0x0f0|29 c2 bd b0                                    |)...            |      [49]: "1992-03-15T03:00:00Z" (700628400) transition_time 0xf0-0xf4 (4)
0x0f0|            2a d7 a6 c0                        |    *...        |      [50]: "1992-10-11T04:00:00Z" (718776000) transition_time 0xf4-0xf8 (4)
0x0f0|                        2b a2 9f b0            |        +...    |      [51]: "1993-03-14T03:00:00Z" (732078000) transition_time 0xf8-0xfc (4)
0x0f0|                                    2c b7 88 c0|            ,...|      [52]: "1993-10-10T04:00:00Z" (750225600) transition_time 0xfc-0x100 (4)
0x100|2d 82 81 b0                                    |-...            |      [53]: "1994-03-13T03:00:00Z" (763527600) transition_time 0x100-0x104 (4)
0x100|            2e 97 6a c0                        |    ..j.        |      [54]: "1994-10-09T04:00:00Z" (781675200) transition_time 0x104-0x108 (4)
0x100|                        2f 62 63 b0            |        /bc.    |      [55]: "1995-03-12T03:00:00Z" (794977200) transition_time 0x108-0x10c (4)
0x100|                                    30 80 87 40|            0..@|      [56]: "1995-10-15T04:00:00Z" (813729600) transition_time 0x10c-0x110 (4)
0x110|31 42 45 b0                                    |1BE.            |      [57]: "1996-03-10T03:00:00Z" (826426800) transition_time 0x110-0x114 (4)
0x110|            32 60 69 40                        |    2`i@        |      [58]: "1996-10-13T04:00:00Z" (845179200) transition_time 0x114-0x118 (4)
0x110|                        33 3d d7 30            |        3=.0    |      [59]: "1997-03-30T03:00:00Z" (859690800) transition_time 0x118-0x11c (4)
0x110|                                    34 40 4b 40|            4@K@|      [60]: "1997-10-12T04:00:00Z" (876628800) transition_time 0x11c-0x120 (4)
0x120|35 0b 44 30                                    |5.D0            |      [61]: "1998-03-15T03:00:00Z" (889930800) transition_time 0x120-0x124 (4)
0x120|            36 0d b8 40                        |    6..@        |      [62]: "1998-09-27T04:00:00Z" (906868800) transition_time 0x124-0x128 (4)
0x120|                        37 06 d5 b0            |        7...    |      [63]: "1999-04-04T03:00:00Z" (923194800) transition_time 0x128-0x12c (4)
0x120|                                    38 00 0f 40|            8..@|      [64]: "1999-10-10T04:00:00Z" (939528000) transition_time 0x12c-0x130 (4)
0x130|38 cb 08 30                                    |8..0            |      [65]: "2000-03-12T03:00:00Z" (952830000) transition_time 0x130-0x134 (4)
0x130|            39 e9 2b c0                        |    9.+.        |      [66]: "2000-10-15T04:00:00Z" (971582400) transition_time 0x134-0x138 (4)
0x130|                        3a aa ea 30            |        :..0    |      [67]: "2001-03-11T03:00:00Z" (984279600) transition_time 0x138-0x13c (4)
0x130|                                    3b c9 0d c0|            ;...|      [68]: "2001-10-14T04:00:00Z" (1003032000) transition_time 0x13c-0x140 (4)
0x140|3c 8a cc 30                                    |<..0            |      [69]: "2002-03-10T03:00:00Z" (1015729200) transition_time 0x140-0x144 (4)
0x140|            3d a8 ef c0                        |    =...        |      [70]: "2002-10-13T04:00:00Z" (1034481600) transition_time 0x144-0x148 (4)
0x140|                        3e 6a ae 30            |        >j.0    |      [71]: "2003-03-09T03:00:00Z" (1047178800) transition_time 0x148-0x14c (4)
0x140|                                    3f 88 d1 c0|            ?...|      [72]: "2003-10-12T04:00:00Z" (1065931200) transition_time 0x14c-0x150 (4)
0x150|40 53 ca b0                                    |@S..            |      [73]: "2004-03-14T03:00:00Z" (1079233200) transition_time 0x150-0x154 (4)
0x150|            41 68 b3 c0                        |    Ah..        |      [74]: "2004-10-10T04:00:00Z" (1097380800) transition_time 0x154-0x158 (4)
0x150|                        42 33 ac b0            |        B3..    |      [75]: "2005-03-13T03:00:00Z" (1110682800) transition_time 0x158-0x15c (4)
0x150|                                    43 48 95 c0|            CH..|      [76]: "2005-10-09T04:00:00Z" (1128830400) transition_time 0x15c-0x160 (4)
0x160|44 13 8e b0                                    |D...            |      [77]: "2006-03-12T03:00:00Z" (1142132400) transition_time 0x160-0x164 (4)
0x160|            45 31 b2 40                        |    E1.@        |      [78]: "2006-10-15T04:00:00Z" (1160884800) transition_time 0x164-0x168 (4)
0x160|                        45 f3 70 b0            |        E.p.    |      [79]: "2007-03-11T03:00:00Z" (1173582000) transition_time 0x168-0x16c (4)
0x160|                                    47 11 94 40|            G..@|      [80]: "2007-10-14T04:00:00Z" (1192334400) transition_time 0x16c-0x170 (4)
0x170|47 ef 02 30                                    |G..0            |      [81]: "2008-03-30T03:00:00Z" (1206846000) transition_time 0x170-0x174 (4)
0x170|            48 f1 76 40                        |    H.v@        |      [82]: "2008-10-12T04:00:00Z" (1223784000) transition_time 0x174-0x178 (4)
0x170|                        49 bc 6f 30            |        I.o0    |      [83]: "2009-03-15T03:00:00Z" (1237086000) transition_time 0x178-0x17c (4)
0x170|                                    4a d1 58 40|            J.X@|      [84]: "2009-10-11T04:00:00Z" (1255233600) transition_time 0x17c-0x180 (4)
0x180|4b b8 00 b0                                    |K...            |      [85]: "2010-04-04T03:00:00Z" (1270350000) transition_time 0x180-0x184 (4)
0x180|            4c b1 3a 40                        |    L.:@        |      [86]: "2010-10-10T04:00:00Z" (1286683200) transition_time 0x184-0x188 (4)
0x180|                        4d c6 07 30            |        M..0    |      [87]: "2011-05-08T03:00:00Z" (1304823600) transition_time 0x188-0x18c (4)
0x180|                                    4e 50 82 c0|            NP..|      [88]: "2011-08-21T04:00:00Z" (1313899200) transition_time 0x18c-0x190 (4)
0x190|4f 9c ae b0                                    |O...            |      [89]: "2012-04-29T03:00:00Z" (1335668400) transition_time 0x190-0x194 (4)
0x190|            50 42 d9 c0                        |    PB..        |      [90]: "2012-09-02T04:00:00Z" (1346558400) transition_time 0x194-0x198 (4)
0x190|                        51 7c 90 b0            |        Q|..    |      [91]: "2013-04-28T03:00:00Z" (1367118000) transition_time 0x198-0x19c (4)
0x190|                                    52 2b f6 40|            R+.@|      [92]: "2013-09-08T04:00:00Z" (1378612800) transition_time 0x19c-0x1a0 (4)
0x1a0|53 5c 72 b0                                    |S\r.            |      [93]: "2014-04-27T03:00:00Z" (1398567600) transition_time 0x1a0-0x1a4 (4)
0x1a0|            54 0b d8 40                        |    T..@        |      [94]: "2014-09-07T04:00:00Z" (1410062400) transition_time 0x1a4-0x1a8 (4)
0x1a0|                        57 37 e6 30            |        W7.0    |      [95]: "2016-05-15T03:00:00Z" (1463281200) transition_time 0x1a8-0x1ac (4)
0x1a0|                                    57 af ec c0|            W...|      [96]: "2016-08-14T04:00:00Z" (1471147200) transition_time 0x1ac-0x1b0 (4)
0x1b0|59 17 c8 30                                    |Y..0            |      [97]: "2017-05-14T03:00:00Z" (1494730800) transition_time 0x1b0-0x1b4 (4)
0x1b0|            59 8f ce c0                        |    Y...        |      [98]: "2017-08-13T04:00:00Z" (1502596800) transition_time 0x1b4-0x1b8 (4)
0x1b0|                        5a f7 aa 30            |        Z..0    |      [99]: "2018-05-13T03:00:00Z" (1526180400) transition_time 0x1b8-0x1bc (4)
0x1b0|                                    5b 6f b0 c0|            [o..|      [100]: "2018-08-12T04:00:00Z" (1534046400) transition_time 0x1bc-0x1c0 (4)
0x1c0|5c a9 67 b0                                    |\.g.            |      [101]: "2019-04-07T03:00:00Z" (1554606000) transition_time 0x1c0-0x1c4 (4)
0x1c0|            5d 74 7c c0                        |    ]t|.        |      [102]: "2019-09-08T04:00:00Z" (1567915200) transition_time 0x1c4-0x1c8 (4)
0x1c0|                        5e 89 49 b0            |        ^.I.    |      [103]: "2020-04-05T03:00:00Z" (1586055600) transition_time 0x1c8-0x1cc (4)
0x1c0|                                    5f 54 5e c0|            _T^.|      [104]: "2020-09-06T04:00:00Z" (1599364800) transition_time 0x1cc-0x1d0 (4)
0x1d0|60 69 2b b0                                    |`i+.            |      [105]: "2021-04-04T03:00:00Z" (1617505200) transition_time 0x1d0-0x1d4 (4)
0x1d0|            61 34 40 c0                        |    a4@.        |      [106]: "2021-09-05T04:00:00Z" (1630814400) transition_time 0x1d4-0x1d8 (4)
0x1d0|                        62 49 0d b0            |        bI..    |      [107]: "2022-04-03T03:00:00Z" (1648954800) transition_time 0x1d8-0x1dc (4)
0x1d0|                                    63 1d 5d 40|            c.]@|      [108]: "2022-09-11T04:00:00Z" (1662868800) transition_time 0x1dc-0x1e0 (4)
0x1e0|64 28 ef b0                                    |d(..            |      [109]: "2023-04-02T03:00:00Z" (1680404400) transition_time 0x1e0-0x1e4 (4)
0x1e0|            64 f4 04 c0                        |    d...        |      [110]: "2023-09-03T04:00:00Z" (1693713600) transition_time 0x1e4-0x1e8 (4)
0x1e0|                        66 12 0c 30            |        f..0    |      [111]: "2024-04-07T03:00:00Z" (1712458800) transition_time 0x1e8-0x1ec (4)
0x1e0|                                    66 dd 21 40|            f.!@|      [112]: "2024-09-08T04:00:00Z" (1725768000) transition_time 0x1ec-0x1f0 (4)
0x1f0|67 f1 ee 30                                    |g..0            |      [113]: "2025-04-06T03:00:00Z" (1743908400) transition_time 0x1f0-0x1f4 (4)
0x1f0|            68 bd 03 40                        |    h..@        |      [114]: "2025-09-07T04:00:00Z" (1757217600) transition_time 0x1f4-0x1f8 (4)
0x1f0|                        69 d1 d0 30            |        i..0    |      [115]: "2026-04-05T03:00:00Z" (1775358000) transition_time 0x1f8-0x1fc (4)
0x1f0|                                    6a 9c e5 40|            j..@|      [116]: "2026-09-06T04:00:00Z" (1788667200) transition_time 0x1fc-0x200 (4)
0x200|6b b1 b2 30                                    |k..0            |      [117]: "2027-04-04T03:00:00Z" (1806807600) transition_time 0x200-0x204 (4)
0x200|            6c 7c c7 40                        |    l|.@        |      [118]: "2027-09-05T04:00:00Z" (1820116800) transition_time 0x204-0x208 (4)
0x200|                        6d 91 94 30            |        m..0    |      [119]: "2028-04-02T03:00:00Z" (1838257200) transition_time 0x208-0x20c (4)
0x200|                                    6e 5c a9 40|            n\.@|      [120]: "2028-09-03T04:00:00Z" (1851566400) transition_time 0x20c-0x210 (4)
0x210|6f 7a b0 b0                                    |oz..            |      [121]: "2029-04-08T03:00:00Z" (1870311600) transition_time 0x210-0x214 (4)
0x210|            70 3c 8b 40                        |    p<.@        |      [122]: "2029-09-02T04:00:00Z" (1883016000) transition_time 0x214-0x218 (4)
0x210|                        71 5a 92 b0            |        qZ..    |      [123]: "2030-04-07T03:00:00Z" (1901761200) transition_time 0x218-0x21c (4)
0x210|                                    72 25 a7 c0|            r%..|      [124]: "2030-09-08T04:00:00Z" (1915070400) transition_time 0x21c-0x220 (4)
0x220|73 3a 74 b0                                    |s:t.            |      [125]: "2031-04-06T03:00:00Z" (1933210800) transition_time 0x220-0x224 (4)
0x220|            74 05 89 c0                        |    t...        |      [126]: "2031-09-07T04:00:00Z" (1946520000) transition_time 0x224-0x228 (4)
0x220|                        75 1a 56 b0            |        u.V.    |      [127]: "2032-04-04T03:00:00Z" (1964660400) transition_time 0x228-0x22c (4)
0x220|                                    75 e5 6b c0|            u.k.|      [128]: "2032-09-05T04:00:00Z" (1977969600) transition_time 0x22c-0x230 (4)
0x230|76 fa 38 b0                                    |v.8.            |      [129]: "2033-04-03T03:00:00Z" (1996110000) transition_time 0x230-0x234 (4)
0x230|            77 c5 4d c0                        |    w.M.        |      [130]: "2033-09-04T04:00:00Z" (2009419200) transition_time 0x234-0x238 (4)
0x230|                        78 da 1a b0            |        x...    |      [131]: "2034-04-02T03:00:00Z" (2027559600) transition_time 0x238-0x23c (4)
0x230|                                    79 a5 2f c0|            y./.|      [132]: "2034-09-03T04:00:00Z" (2040868800) transition_time 0x23c-0x240 (4)
0x240|7a c3 37 30                                    |z.70            |      [133]: "2035-04-08T03:00:00Z" (2059614000) transition_time 0x240-0x244 (4)
0x240|            7b 85 11 c0                        |    {...        |      [134]: "2035-09-02T04:00:00Z" (2072318400) transition_time 0x244-0x248 (4)
0x240|                        7c a3 19 30            |        |..0    |      [135]: "2036-04-06T03:00:00Z" (2091063600) transition_time 0x248-0x24c (4)
0x240|                                    7d 6e 2e 40|            }n.@|      [136]: "2036-09-07T04:00:00Z" (2104372800) transition_time 0x24c-0x250 (4)
0x250|7e 82 fb 30                                    |~..0            |      [137]: "2037-04-05T03:00:00Z" (2122513200) transition_time 0x250-0x254 (4)
0x250|            7f 4e 10 40                        |    .N.@        |      [138]: "2037-09-06T04:00:00Z" (2135822400) transition_time 0x254-0x258 (4)
0x250|                        7f ff ff ff            |        ....    |      [139]: "2038-01-19T03:14:07Z" (2147483647) transition_time 0x258-0x25c (4)
     |                                               |                |    transition_types[0:140]: 0x25c-0x2e8 (140)
0x250|                                    01         |            .   |      [0]: 1 transition_type 0x25c-0x25d (1)
0x250|                                       04      |             .  |      [1]: 4 transition_type 0x25d-0x25e (1)
0x250|                                          02   |              . |      [2]: 2 transition_type 0x25e-0x25f (1)
0x250|                                             03|               .|      [3]: 3 transition_type 0x25f-0x260 (1)
0x260|02                                             |.               |      [4]: 2 transition_type 0x260-0x261 (1)
0x260|   03                                          | .              |      [5]: 3 transition_type 0x261-0x262 (1)
0x260|      02                                       |  .             |      [6]: 2 transition_type 0x262-0x263 (1)
0x260|         03                                    |   .            |      [7]: 3 transition_type 0x263-0x264 (1)
0x260|            02                                 |    .           |      [8]: 2 transition_type 0x264-0x265 (1)
0x260|               03                              |     .          |      [9]: 3 transition_type 0x265-0x266 (1)
0x260|                  02                           |      .         |      [10]: 2 transition_type 0x266-0x267 (1)
0x260|                     03                        |       .        |      [11]: 3 transition_type 0x267-0x268 (1)
0x260|                        02                     |        .       |      [12]: 2 transition_type 0x268-0x269 (1)
0x260|                           03                  |         .      |      [13]: 3 transition_type 0x269-0x26a (1)
0x260|                              02               |          .     |      [14]: 2 transition_type 0x26a-0x26b (1)
0x260|                                 03            |           .    |      [15]: 3 transition_type 0x26b-0x26c (1)
0x260|                                    02         |            .   |      [16]: 2 transition_type 0x26c-0x26d (1)
0x260|                                       03      |             .  |      [17]: 3 transition_type 0x26d-0x26e (1)
0x260|                                          02   |              . |      [18]: 2 transition_type 0x26e-0x26f (1)
0x260|                                             03|               .|      [19]: 3 transition_type 0x26f-0x270 (1)
0x270|02                                             |.               |      [20]: 2 transition_type 0x270-0x271 (1)
0x270|   03                                          | .              |      [21]: 3 transition_type 0x271-0x272 (1)
0x270|      02                                       |  .             |      [22]: 2 transition_type 0x272-0x273 (1)
0x270|         03                                    |   .            |      [23]: 3 transition_type 0x273-0x274 (1)
0x270|            02                                 |    .           |      [24]: 2 transition_type 0x274-0x275 (1)
0x270|               03                              |     .          |      [25]: 3 transition_type 0x275-0x276 (1)
0x270|                  02                           |      .         |      [26]: 2 transition_type 0x276-0x277 (1)
0x270|                     03                        |       .        |      [27]: 3 transition_type 0x277-0x278 (1)
0x270|                        02                     |        .       |      [28]: 2 transition_type 0x278-0x279 (1)
0x270|                           05                  |         .      |      [29]: 5 transition_type 0x279-0x27a (1)
0x270|                              06               |          .     |      [30]: 6 transition_type 0x27a-0x27b (1)
0x270|                                 05            |           .    |      [31]: 5 transition_type 0x27b-0x27c (1)
0x270|                                    06         |            .   |      [32]: 6 transition_type 0x27c-0x27d (1)
0x270|                                       05      |             .  |      [33]: 5 transition_type 0x27d-0x27e (1)
0x270|                                          06   |              . |      [34]: 6 transition_type 0x27e-0x27f (1)
0x270|                                             05|               .|      [35]: 5 transition_type 0x27f-0x280 (1)
0x280|06                                             |.               |      [36]: 6 transition_type 0x280-0x281 (1)
0x280|   05                                          | .              |      [37]: 5 transition_type 0x281-0x282 (1)
0x280|      06                                       |  .             |      [38]: 6 transition_type 0x282-0x283 (1)
0x280|         05                                    |   .            |      [39]: 5 transition_type 0x283-0x284 (1)
0x280|            06                                 |    .           |      [40]: 6 transition_type 0x284-0x285 (1)
0x280|               05                              |     .          |      [41]: 5 transition_type 0x285-0x286 (1)
0x280|                  06                           |      .         |      [42]: 6 transition_type 0x286-0x287 (1)
0x280|                     05                        |       .        |      [43]: 5 transition_type 0x287-0x288 (1)
0x280|                        06                     |        .       |      [44]: 6 transition_type 0x288-0x289 (1)
0x280|                           05                  |         .      |      [45]: 5 transition_type 0x289-0x28a (1)
0x280|                              06               |          .     |      [46]: 6 transition_type 0x28a-0x28b (1)
0x280|                                 05            |           .    |      [47]: 5 transition_type 0x28b-0x28c (1)
0x280|                                    06         |            .   |      [48]: 6 transition_type 0x28c-0x28d (1)
0x280|                                       05      |             .  |      [49]: 5 transition_type 0x28d-0x28e (1)
0x280|                                          06   |              . |      [50]: 6 transition_type 0x28e-0x28f (1)
0x280|                                             05|               .|      [51]: 5 transition_type 0x28f-0x290 (1)
0x290|06                                             |.               |      [52]: 6 transition_type 0x290-0x291 (1)
0x290|   05                                          | .              |      [53]: 5 transition_type 0x291-0x292 (1)
0x290|      06                                       |  .             |      [54]: 6 transition_type 0x292-0x293 (1)
0x290|         05                                    |   .            |      [55]: 5 transition_type 0x293-0x294 (1)
0x290|            06                                 |    .           |      [56]: 6 transition_type 0x294-0x295 (1)
0x290|               05                              |     .          |      [57]: 5 transition_type 0x295-0x296 (1)
0x290|                  06                           |      .         |      [58]: 6 transition_type 0x296-0x297 (1)
0x290|                     05                        |       .        |      [59]: 5 transition_type 0x297-0x298 (1)
0x290|                        06                     |        .       |      [60]: 6 transition_type 0x298-0x299 (1)
0x290|                           05                  |         .      |      [61]: 5 transition_type 0x299-0x29a (1)
0x290|                              06               |          .     |      [62]: 6 transition_type 0x29a-0x29b (1)
0x290|                                 05            |           .    |      [63]: 5 transition_type 0x29b-0x29c (1)
0x290|                                    06         |            .   |      [64]: 6 transition_type 0x29c-0x29d (1)
0x290|                                       05      |             .  |      [65]: 5 transition_type 0x29d-0x29e (1)
0x290|                                          06   |              . |      [66]: 6 transition_type 0x29e-0x29f (1)
0x290|                                             05|               .|      [67]: 5 transition_type 0x29f-0x2a0 (1)
0x2a0|06                                             |.               |      [68]: 6 transition_type 0x2a0-0x2a1 (1)
0x2a0|   05                                          | .              |      [69]: 5 transition_type 0x2a1-0x2a2 (1)
0x2a0|      06                                       |  .             |      [70]: 6 transition_type 0x2a2-0x2a3 (1)
0x2a0|         05                                    |   .            |      [71]: 5 transition_type 0x2a3-0x2a4 (1)
0x2a0|            06                                 |    .           |      [72]: 6 transition_type 0x2a4-0x2a5 (1)
0x2a0|               05                              |     .          |      [73]: 5 transition_type 0x2a5-0x2a6 (1)
0x2a0|                  06                           |      .         |      [74]: 6 transition_type 0x2a6-0x2a7 (1)
0x2a0|                     05                        |       .        |      [75]: 5 transition_type 0x2a7-0x2a8 (1)
0x2a0|                        06                     |        .       |      [76]: 6 transition_type 0x2a8-0x2a9 (1)
0x2a0|                           05                  |         .      |      [77]: 5 transition_type 0x2a9-0x2aa (1)
0x2a0|                              06               |          .     |      [78]: 6 transition_type 0x2aa-0x2ab (1)
0x2a0|                                 05            |           .    |      [79]: 5 transition_type 0x2ab-0x2ac (1)
0x2a0|                                    06         |            .   |      [80]: 6 transition_type 0x2ac-0x2ad (1)
0x2a0|                                       05      |             .  |      [81]: 5 transition_type 0x2ad-0x2ae (1)
0x2a0|                                          06   |              . |      [82]: 6 transition_type 0x2ae-0x2af (1)
0x2a0|                                             05|               .|      [83]: 5 transition_type 0x2af-0x2b0 (1)
0x2b0|06                                             |.               |      [84]: 6 transition_type 0x2b0-0x2b1 (1)
0x2b0|   05                                          | .              |      [85]: 5 transition_type 0x2b1-0x2b2 (1)
0x2b0|      06                                       |  .             |      [86]: 6 transition_type 0x2b2-0x2b3 (1)
0x2b0|         05                                    |   .            |      [87]: 5 transition_type 0x2b3-0x2b4 (1)
0x2b0|            06                                 |    .           |      [88]: 6 transition_type 0x2b4-0x2b5 (1)
0x2b0|               05                              |     .          |      [89]: 5 transition_type 0x2b5-0x2b6 (1)
0x2b0|                  06                           |      .         |      [90]: 6 transition_type 0x2b6-0x2b7 (1)
0x2b0|                     05                        |       .        |      [91]: 5 transition_type 0x2b7-0x2b8 (1)
0x2b0|                        06                     |        .       |      [92]: 6 transition_type 0x2b8-0x2b9 (1)
0x2b0|                           05                  |         .      |      [93]: 5 transition_type 0x2b9-0x2ba (1)
0x2b0|                              06               |          .     |      [94]: 6 transition_type 0x2ba-0x2bb (1)
0x2b0|                                 05            |           .    |      [95]: 5 transition_type 0x2bb-0x2bc (1)
0x2b0|                                    06         |            .   |      [96]: 6 transition_type 0x2bc-0x2bd (1)
0x2b0|                                       05      |             .  |      [97]: 5 transition_type 0x2bd-0x2be (1)
0x2b0|                                          06   |              . |      [98]: 6 transition_type 0x2be-0x2bf (1)
0x2b0|                                             05|               .|      [99]: 5 transition_type 0x2bf-0x2c0 (1)
0x2c0|06                                             |.               |      [100]: 6 transition_type 0x2c0-0x2c1 (1)
0x2c0|   05                                          | .              |      [101]: 5 transition_type 0x2c1-0x2c2 (1)
0x2c0|      06                                       |  .             |      [102]: 6 transition_type 0x2c2-0x2c3 (1)
0x2c0|         05                                    |   .            |      [103]: 5 transition_type 0x2c3-0x2c4 (1)
0x2c0|            06                                 |    .           |      [104]: 6 transition_type 0x2c4-0x2c5 (1)
0x2c0|               05                              |     .          |      [105]: 5 transition_type 0x2c5-0x2c6 (1)
0x2c0|                  06                           |      .         |      [106]: 6 transition_type 0x2c6-0x2c7 (1)
0x2c0|                     05                        |       .        |      [107]: 5 transition_type 0x2c7-0x2c8 (1)
0x2c0|                        06                     |        .       |      [108]: 6 transition_type 0x2c8-0x2c9 (1)
0x2c0|                           05                  |         .      |      [109]: 5 transition_type 0x2c9-0x2ca (1)
0x2c0|                              06               |          .     |      [110]: 6 transition_type 0x2ca-0x2cb (1)
0x2c0|                                 05            |           .    |      [111]: 5 transition_type 0x2cb-0x2cc (1)
0x2c0|                                    06         |            .   |      [112]: 6 transition_type 0x2cc-0x2cd (1)
0x2c0|                                       05      |             .  |      [113]: 5 transition_type 0x2cd-0x2ce (1)
0x2c0|                                          06   |              . |      [114]: 6 transition_type 0x2ce-0x2cf (1)
0x2c0|                                             05|               .|      [115]: 5 transition_type 0x2cf-0x2d0 (1)
0x2d0|06                                             |.               |      [116]: 6 transition_type 0x2d0-0x2d1 (1)
0x2d0|   05                                          | .              |      [117]: 5 transition_type 0x2d1-0x2d2 (1)
0x2d0|      06                                       |  .             |      [118]: 6 transition_type 0x2d2-0x2d3 (1)
0x2d0|         05                                    |   .            |      [119]: 5 transition_type 0x2d3-0x2d4 (1)
0x2d0|            06                                 |    .           |      [120]: 6 transition_type 0x2d4-0x2d5 (1)
0x2d0|               05                              |     .          |      [121]: 5 transition_type 0x2d5-0x2d6 (1)
0x2d0|                  06                           |      .         |      [122]: 6 transition_type 0x2d6-0x2d7 (1)
0x2d0|                     05                        |       .        |      [123]: 5 transition_type 0x2d7-0x2d8 (1)
0x2d0|                        06                     |        .       |      [124]: 6 transition_type 0x2d8-0x2d9 (1)
0x2d0|                           05                  |         .      |      [125]: 5 transition_type 0x2d9-0x2da (1)
0x2d0|                              06               |          .     |      [126]: 6 transition_type 0x2da-0x2db (1)
0x2d0|                                 05            |           .    |      [127]: 5 transition_type 0x2db-0x2dc (1)
0x2d0|                                    06         |            .   |      [128]: 6 transition_type 0x2dc-0x2dd (1)
0x2d0|                                       05      |             .  |      [129]: 5 transition_type 0x2dd-0x2de (1)
0x2d0|                                          06   |              . |      [130]: 6 transition_type 0x2de-0x2df (1)
0x2d0|                                             05|               .|      [131]: 5 transition_type 0x2df-0x2e0 (1)
0x2e0|06                                             |.               |      [132]: 6 transition_type 0x2e0-0x2e1 (1)
0x2e0|   05                                          | .              |      [133]: 5 transition_type 0x2e1-0x2e2 (1)
0x2e0|      06                                       |  .             |      [134]: 6 transition_type 0x2e2-0x2e3 (1)
0x2e0|         05                                    |   .            |      [135]: 5 transition_type 0x2e3-0x2e4 (1)
0x2e0|            06                                 |    .           |      [136]: 6 transition_type 0x2e4-0x2e5 (1)
0x2e0|               05                              |     .          |      [137]: 5 transition_type 0x2e5-0x2e6 (1)
0x2e0|                  06                           |      .         |      [138]: 6 transition_type 0x2e6-0x2e7 (1)
0x2e0|                     06                        |       .        |      [139]: 6 transition_type 0x2e7-0x2e8 (1)
     |                                               |                |    local_time_type_records[0:7]: 0x2e8-0x312 (42)
     |                                               |                |      [0]{}: local_time_type 0x2e8-0x2ee (6)
0x2e0|                        ff ff 99 78            |        ...x    |        utoff: -26248 (valid) 0x2e8-0x2ec (4)
0x2e0|                                    00         |            .   |        dst: 0 (valid) 0x2ec-0x2ed (1)
0x2e0|                                       00      |             .  |        idx: 0 (valid) 0x2ed-0x2ee (1)
     |                                               |                |      [1]{}: local_time_type 0x2ee-0x2f4 (6)
0x2e0|                                          ff ff|              ..|        utoff: -26248 (valid) 0x2ee-0x2f2 (4)
0x2f0|99 78                                          |.x              |
0x2f0|      00                                       |  .             |        dst: 0 (valid) 0x2f2-0x2f3 (1)
0x2f0|         04                                    |   .            |        idx: 4 (valid) 0x2f3-0x2f4 (1)
     |                                               |                |      [2]{}: local_time_type 0x2f4-0x2fa (6)
0x2f0|            ff ff ab a0                        |    ....        |        utoff: -21600 (valid) 0x2f4-0x2f8 (4)
0x2f0|                        01                     |        .       |        dst: 1 (valid) 0x2f8-0x2f9 (1)
0x2f0|                           08                  |         .      |        idx: 8 (valid) 0x2f9-0x2fa (1)
     |                                               |                |      [3]{}: local_time_type 0x2fa-0x300 (6)
0x2f0|                              ff ff 9d 90      |          ....  |        utoff: -25200 (valid) 0x2fa-0x2fe (4)
0x2f0|                                          00   |              . |        dst: 0 (valid) 0x2fe-0x2ff (1)
0x2f0|                                             0c|               .|        idx: 12 (valid) 0x2ff-0x300 (1)
     |                                               |                |      [4]{}: local_time_type 0x300-0x306 (6)
0x300|ff ff 9d 90                                    |....            |        utoff: -25200 (valid) 0x300-0x304 (4)
0x300|            00                                 |    .           |        dst: 0 (valid) 0x304-0x305 (1)
0x300|               0c                              |     .          |        idx: 12 (valid) 0x305-0x306 (1)
     |                                               |                |      [5]{}: local_time_type 0x306-0x30c (6)
0x300|                  ff ff ab a0                  |      ....      |        utoff: -21600 (valid) 0x306-0x30a (4)
0x300|                              00               |          .     |        dst: 0 (valid) 0x30a-0x30b (1)
0x300|                                 08            |           .    |        idx: 8 (valid) 0x30b-0x30c (1)
     |                                               |                |      [6]{}: local_time_type 0x30c-0x312 (6)
0x300|                                    ff ff b9 b0|            ....|        utoff: -18000 (valid) 0x30c-0x310 (4)
0x310|01                                             |.               |        dst: 1 (valid) 0x310-0x311 (1)
0x310|   10                                          | .              |        idx: 16 (valid) 0x311-0x312 (1)
     |                                               |                |    time_zone_designations[0:5]: 0x312-0x326 (20)
0x310|      4c 4d 54 00                              |  LMT.          |      [0]: "LMT" time_zone_designation 0x312-0x316 (4)
0x310|                  45 4d 54 00                  |      EMT.      |      [1]: "EMT" time_zone_designation 0x316-0x31a (4)
0x310|                              2d 30 36 00      |          -06.  |      [2]: "-06" time_zone_designation 0x31a-0x31e (4)
0x310|                                          2d 30|              -0|      [3]: "-07" time_zone_designation 0x31e-0x322 (4)
0x320|37 00                                          |7.              |
0x320|      2d 30 35 00                              |  -05.          |      [4]: "-05" time_zone_designation 0x322-0x326 (4)
     |                                               |                |    leap_second_records[0:0]: 0x326-0x326 (0)
     |                                               |                |    standard_wall_indicators[0:7]: 0x326-0x32d (7)
0x320|                  00                           |      .         |      [0]: 0 standard_wall_indicator (valid) 0x326-0x327 (1)
0x320|                     00                        |       .        |      [1]: 0 standard_wall_indicator (valid) 0x327-0x328 (1)
0x320|                        01                     |        .       |      [2]: 1 standard_wall_indicator (valid) 0x328-0x329 (1)
0x320|                           01                  |         .      |      [3]: 1 standard_wall_indicator (valid) 0x329-0x32a (1)
0x320|                              00               |          .     |      [4]: 0 standard_wall_indicator (valid) 0x32a-0x32b (1)
0x320|                                 01            |           .    |      [5]: 1 standard_wall_indicator (valid) 0x32b-0x32c (1)
0x320|                                    01         |            .   |      [6]: 1 standard_wall_indicator (valid) 0x32c-0x32d (1)
     |                                               |                |    ut_local_indicators[0:7]: 0x32d-0x334 (7)
0x320|                                       00      |             .  |      [0]: 0 ut_local_indicator (valid) 0x32d-0x32e (1)
0x320|                                          00   |              . |      [1]: 0 ut_local_indicator (valid) 0x32e-0x32f (1)
0x320|                                             01|               .|      [2]: 1 ut_local_indicator (valid) 0x32f-0x330 (1)
0x330|01                                             |.               |      [3]: 1 ut_local_indicator (valid) 0x330-0x331 (1)
0x330|   00                                          | .              |      [4]: 0 ut_local_indicator (valid) 0x331-0x332 (1)
0x330|      01                                       |  .             |      [5]: 1 ut_local_indicator (valid) 0x332-0x333 (1)
0x330|         01                                    |   .            |      [6]: 1 ut_local_indicator (valid) 0x333-0x334 (1)
     |                                               |                |  v2plusheader{}: 0x334-0x360 (44)
0x330|            54 5a 69 66                        |    TZif        |    magic: 0x545a6966 (valid) 0x334-0x338 (4)
0x330|                        33                     |        3       |    ver: "3" (0x33) (valid) 0x338-0x339 (1)
0x330|                           00 00 00 00 00 00 00|         .......|    reserved: raw bits 0x339-0x348 (15)
0x340|00 00 00 00 00 00 00 00                        |........        |
0x340|                        00 00 00 07            |        ....    |    isutcnt: 7 0x348-0x34c (4)
0x340|                                    00 00 00 07|            ....|    isstdcnt: 7 0x34c-0x350 (4)
0x350|00 00 00 00                                    |....            |    leapcnt: 0 0x350-0x354 (4)
0x350|            00 00 00 8c                        |    ....        |    timecnt: 140 0x354-0x358 (4)
0x350|                        00 00 00 07            |        ....    |    typecnt: 7 0x358-0x35c (4)
0x350|                                    00 00 00 14|            ....|    charcnt: 20 0x35c-0x360 (4)
     |                                               |                |  v2plusdatablock{}: 0x360-0x898 (1336)
     |                                               |                |    transition_times[0:140]: 0x360-0x7c0 (1120)
0x360|ff ff ff ff 69 87 42 08                        |....i.B.        |      [0]: "1890-01-01T07:17:28Z" (-2524495352) transition_time 0x360-0x368 (8)
0x360|                        ff ff ff ff b9 c7 40 88|        ......@.|      [1]: "1932-09-01T07:17:28Z" (-1178124152) transition_time 0x368-0x370 (8)
0x370|ff ff ff ff fd d1 3c 40                        |......<@        |      [2]: "1968-11-03T04:00:00Z" (-36619200) transition_time 0x370-0x378 (8)
0x370|                        ff ff ff ff fe 92 fa b0|        ........|      [3]: "1969-03-30T03:00:00Z" (-23922000) transition_time 0x378-0x380 (8)
0x380|ff ff ff ff ff cc cd c0                        |........        |      [4]: "1969-11-23T04:00:00Z" (-3355200) transition_time 0x380-0x388 (8)
0x380|                        00 00 00 00 00 72 dc b0|        .....r..|      [5]: "1970-03-29T03:00:00Z" (7527600) transition_time 0x388-0x390 (8)
0x390|00 00 00 00 01 75 50 c0                        |.....uP.        |      [6]: "1970-10-11T04:00:00Z" (24465600) transition_time 0x390-0x398 (8)
0x390|                        00 00 00 00 02 40 49 b0|        .....@I.|      [7]: "1971-03-14T03:00:00Z" (37767600) transition_time 0x398-0x3a0 (8)
0x3a0|00 00 00 00 03 55 32 c0                        |.....U2.        |      [8]: "1971-10-10T04:00:00Z" (55915200) transition_time 0x3a0-0x3a8 (8)
0x3a0|                        00 00 00 00 04 20 2b b0|        ..... +.|      [9]: "1972-03-12T03:00:00Z" (69217200) transition_time 0x3a8-0x3b0 (8)
0x3b0|00 00 00 00 05 3e 4f 40                        |.....>O@        |      [10]: "1972-10-15T04:00:00Z" (87969600) transition_time 0x3b0-0x3b8 (8)
0x3b0|                        00 00 00 00 06 00 0d b0|        ........|      [11]: "1973-03-11T03:00:00Z" (100666800) transition_time 0x3b8-0x3c0 (8)
0x3c0|00 00 00 00 07 0b bc 40                        |.......@        |      [12]: "1973-09-30T04:00:00Z" (118209600) transition_time 0x3c0-0x3c8 (8)
0x3c0|                        00 00 00 00 07 df ef b0|        ........|      [13]: "1974-03-10T03:00:00Z" (132116400) transition_time 0x3c8-0x3d0 (8)
0x3d0|00 00 00 00 08 fe 13 40                        |.......@        |      [14]: "1974-10-13T04:00:00Z" (150868800) transition_time 0x3d0-0x3d8 (8)
0x3d0|                        00 00 00 00 09 bf d1 b0|        ........|      [15]: "1975-03-09T03:00:00Z" (163566000) transition_time 0x3d8-0x3e0 (8)
0x3e0|00 00 00 00 0a dd f5 40                        |.......@        |      [16]: "1975-10-12T04:00:00Z" (182318400) transition_time 0x3e0-0x3e8 (8)
0x3e0|                        00 00 00 00 0b a8 ee 30|        .......0|      [17]: "1976-03-14T03:00:00Z" (195620400) transition_time 0x3e8-0x3f0 (8)
0x3f0|00 00 00 00 0c bd d7 40                        |.......@        |      [18]: "1976-10-10T04:00:00Z" (213768000) transition_time 0x3f0-0x3f8 (8)
0x3f0|                        00 00 00 00 0d 88 d0 30|        .......0|      [19]: "1977-03-13T03:00:00Z" (227070000) transition_time 0x3f8-0x400 (8)
0x400|00 00 00 00 0e 9d b9 40                        |.......@        |      [20]: "1977-10-09T04:00:00Z" (245217600) transition_time 0x400-0x408 (8)
0x400|                        00 00 00 00 0f 68 b2 30|        .....h.0|      [21]: "1978-03-12T03:00:00Z" (258519600) transition_time 0x408-0x410 (8)
0x410|00 00 00 00 10 86 d5 c0                        |........        |      [22]: "1978-10-15T04:00:00Z" (277272000) transition_time 0x410-0x418 (8)
0x410|                        00 00 00 00 11 48 94 30|        .....H.0|      [23]: "1979-03-11T03:00:00Z" (289969200) transition_time 0x418-0x420 (8)
0x420|00 00 00 00 12 66 b7 c0                        |.....f..        |      [24]: "1979-10-14T04:00:00Z" (308721600) transition_time 0x420-0x428 (8)
0x420|                        00 00 00 00 13 28 76 30|        .....(v0|      [25]: "1980-03-09T03:00:00Z" (321418800) transition_time 0x428-0x430 (8)
0x430|00 00 00 00 14 46 99 c0                        |.....F..        |      [26]: "1980-10-12T04:00:00Z" (340171200) transition_time 0x430-0x438 (8)
0x430|                        00 00 00 00 15 11 92 b0|        ........|      [27]: "1981-03-15T03:00:00Z" (353473200) transition_time 0x438-0x440 (8)
0x440|00 00 00 00 16 26 7b c0                        |.....&{.        |      [28]: "1981-10-11T04:00:00Z" (371620800) transition_time 0x440-0x448 (8)
0x440|                        00 00 00 00 16 f1 74 b0|        ......t.|      [29]: "1982-03-14T03:00:00Z" (384922800) transition_time 0x448-0x450 (8)
0x450|00 00 00 00 18 06 5d c0                        |......].        |      [30]: "1982-10-10T04:00:00Z" (403070400) transition_time 0x450-0x458 (8)
0x450|                        00 00 00 00 18 d1 56 b0|        ......V.|      [31]: "1983-03-13T03:00:00Z" (416372400) transition_time 0x458-0x460 (8)
0x460|00 00 00 00 19 e6 3f c0                        |......?.        |      [32]: "1983-10-09T04:00:00Z" (434520000) transition_time 0x460-0x468 (8)
0x460|                        00 00 00 00 1a b1 38 b0|        ......8.|      [33]: "1984-03-11T03:00:00Z" (447822000) transition_time 0x468-0x470 (8)
0x470|00 00 00 00 1b cf 5c 40                        |......\@        |      [34]: "1984-10-14T04:00:00Z" (466574400) transition_time 0x470-0x478 (8)
0x470|                        00 00 00 00 1c 91 1a b0|        ........|      [35]: "1985-03-10T03:00:00Z" (479271600) transition_time 0x478-0x480 (8)
0x480|00 00 00 00 1d af 3e 40                        |......>@        |      [36]: "1985-10-13T04:00:00Z" (498024000) transition_time 0x480-0x488 (8)
0x480|                        00 00 00 00 1e 70 fc b0|        .....p..|      [37]: "1986-03-09T03:00:00Z" (510721200) transition_time 0x488-0x490 (8)
0x490|00 00 00 00 1f 8f 20 40                        |...... @        |      [38]: "1986-10-12T04:00:00Z" (529473600) transition_time 0x490-0x498 (8)
0x490|                        00 00 00 00 20 7f 03 30|        .... ..0|      [39]: "1987-04-12T03:00:00Z" (545194800) transition_time 0x498-0x4a0 (8)
0x4a0|00 00 00 00 21 6f 02 40                        |....!o.@        |      [40]: "1987-10-11T04:00:00Z" (560923200) transition_time 0x4a0-0x4a8 (8)
0x4a0|                        00 00 00 00 22 39 fb 30|        ...."9.0|      [41]: "1988-03-13T03:00:00Z" (574225200) transition_time 0x4a8-0x4b0 (8)
0x4b0|00 00 00 00 23 4e e4 40                        |....#N.@        |      [42]: "1988-10-09T04:00:00Z" (592372800) transition_time 0x4b0-0x4b8 (8)
0x4b0|                        00 00 00 00 24 19 dd 30|        ....$..0|      [43]: "1989-03-12T03:00:00Z" (605674800) transition_time 0x4b8-0x4c0 (8)
0x4c0|00 00 00 00 25 38 00 c0                        |....%8..        |      [44]: "1989-10-15T04:00:00Z" (624427200) transition_time 0x4c0-0x4c8 (8)
0x4c0|                        00 00 00 00 25 f9 bf 30|        ....%..0|      [45]: "1990-03-11T03:00:00Z" (637124400) transition_time 0x4c8-0x4d0 (8)
0x4d0|00 00 00 00 26 f2 f8 c0                        |....&...        |      [46]: "1990-09-16T04:00:00Z" (653457600) transition_time 0x4d0-0x4d8 (8)
0x4d0|                        00 00 00 00 27 d9 a1 30|        ....'..0|      [47]: "1991-03-10T03:00:00Z" (668574000) transition_time 0x4d8-0x4e0 (8)
0x4e0|00 00 00 00 28 f7 c4 c0                        |....(...        |      [48]: "1991-10-13T04:00:00Z" (687326400) transition_time 0x4e0-0x4e8 (8)
0x4e0|                        00 00 00 00 29 c2 bd b0|        ....)...|      [49]: "1992-03-15T03:00:00Z" (700628400) transition_time 0x4e8-0x4f0 (8)
0x4f0|00 00 00 00 2a d7 a6 c0                        |....*...        |      [50]: "1992-10-11T04:00:00Z" (718776000) transition_time 0x4f0-0x4f8 (8)
0x4f0|                        00 00 00 00 2b a2 9f b0|        ....+...|      [51]: "1993-03-14T03:00:00Z" (732078000) transition_time 0x4f8-0x500 (8)
0x500|00 00 00 00 2c b7 88 c0                        |....,...        |      [52]: "1993-10-10T04:00:00Z" (750225600) transition_time 0x500-0x508 (8)
0x500|                        00 00 00 00 2d 82 81 b0|        ....-...|      [53]: "1994-03-13T03:00:00Z" (763527600) transition_time 0x508-0x510 (8)
0x510|00 00 00 00 2e 97 6a c0                        |......j.        |      [54]: "1994-10-09T04:00:00Z" (781675200) transition_time 0x510-0x518 (8)
0x510|                        00 00 00 00 2f 62 63 b0|        ..../bc.|      [55]: "1995-03-12T03:00:00Z" (794977200) transition_time 0x518-0x520 (8)
0x520|00 00 00 00 30 80 87 40                        |....0..@        |      [56]: "1995-10-15T04:00:00Z" (813729600) transition_time 0x520-0x528 (8)
0x520|                        00 00 00 00 31 42 45 b0|        ....1BE.|      [57]: "1996-03-10T03:00:00Z" (826426800) transition_time 0x528-0x530 (8)
0x530|00 00 00 00 32 60 69 40                        |....2`i@        |      [58]: "1996-10-13T04:00:00Z" (845179200) transition_time 0x530-0x538 (8)
0x530|                        00 00 00 00 33 3d d7 30|        ....3=.0|      [59]: "1997-03-30T03:00:00Z" (859690800) transition_time 0x538-0x540 (8)
0x540|00 00 00 00 34 40 4b 40                        |....4@K@        |      [60]: "1997-10-12T04:00:00Z" (876628800) transition_time 0x540-0x548 (8)
0x540|                        00 00 00 00 35 0b 44 30|        ....5.D0|      [61]: "1998-03-15T03:00:00Z" (889930800) transition_time 0x548-0x550 (8)
0x550|00 00 00 00 36 0d b8 40                        |....6..@        |      [62]: "1998-09-27T04:00:00Z" (906868800) transition_time 0x550-0x558 (8)
0x550|                        00 00 00 00 37 06 d5 b0|        ....7...|      [63]: "1999-04-04T03:00:00Z" (923194800) transition_time 0x558-0x560 (8)
0x560|00 00 00 00 38 00 0f 40                        |....8..@        |      [64]: "1999-10-10T04:00:00Z" (939528000) transition_time 0x560-0x568 (8)
0x560|                        00 00 00 00 38 cb 08 30|        ....8..0|      [65]: "2000-03-12T03:00:00Z" (952830000) transition_time 0x568-0x570 (8)
0x570|00 00 00 00 39 e9 2b c0                        |....9.+.        |      [66]: "2000-10-15T04:00:00Z" (971582400) transition_time 0x570-0x578 (8)
0x570|                        00 00 00 00 3a aa ea 30|        ....:..0|      [67]: "2001-03-11T03:00:00Z" (984279600) transition_time 0x578-0x580 (8)
0x580|00 00 00 00 3b c9 0d c0                        |....;...        |      [68]: "2001-10-14T04:00:00Z" (1003032000) transition_time 0x580-0x588 (8)
0x580|                        00 00 00 00 3c 8a cc 30|        ....<..0|      [69]: "2002-03-10T03:00:00Z" (1015729200) transition_time 0x588-0x590 (8)
0x590|00 00 00 00 3d a8 ef c0                        |....=...        |      [70]: "2002-10-13T04:00:00Z" (1034481600) transition_time 0x590-0x598 (8)
0x590|                        00 00 00 00 3e 6a ae 30|        ....>j.0|      [71]: "2003-03-09T03:00:00Z" (1047178800) transition_time 0x598-0x5a0 (8)
0x5a0|00 00 00 00 3f 88 d1 c0                        |....?...        |      [72]: "2003-10-12T04:00:00Z" (1065931200) transition_time 0x5a0-0x5a8 (8)
0x5a0|                        00 00 00 00 40 53 ca b0|        ....@S..|      [73]: "2004-03-14T03:00:00Z" (1079233200) transition_time 0x5a8-0x5b0 (8)
0x5b0|00 00 00 00 41 68 b3 c0                        |....Ah..        |      [74]: "2004-10-10T04:00:00Z" (1097380800) transition_time 0x5b0-0x5b8 (8)
0x5b0|                        00 00 00 00 42 33 ac b0|        ....B3..|      [75]: "2005-03-13T03:00:00Z" (1110682800) transition_time 0x5b8-0x5c0 (8)
0x5c0|00 00 00 00 43 48 95 c0                        |....CH..        |      [76]: "2005-10-09T04:00:00Z" (1128830400) transition_time 0x5c0-0x5c8 (8)
0x5c0|                        00 00 00 00 44 13 8e b0|        ....D...|      [77]: "2006-03-12T03:00:00Z" (1142132400) transition_time 0x5c8-0x5d0 (8)
0x5d0|00 00 00 00 45 31 b2 40                        |....E1.@        |      [78]: "2006-10-15T04:00:00Z" (1160884800) transition_time 0x5d0-0x5d8 (8)
0x5d0|                        00 00 00 00 45 f3 70 b0|        ....E.p.|      [79]: "2007-03-11T03:00:00Z" (1173582000) transition_time 0x5d8-0x5e0 (8)
0x5e0|00 00 00 00 47 11 94 40                        |....G..@        |      [80]: "2007-10-14T04:00:00Z" (1192334400) transition_time 0x5e0-0x5e8 (8)
0x5e0|                        00 00 00 00 47 ef 02 30|        ....G..0|      [81]: "2008-03-30T03:00:00Z" (1206846000) transition_time 0x5e8-0x5f0 (8)
0x5f0|00 00 00 00 48 f1 76 40                        |....H.v@        |      [82]: "2008-10-12T04:00:00Z" (1223784000) transition_time 0x5f0-0x5f8 (8)
0x5f0|                        00 00 00 00 49 bc 6f 30|        ....I.o0|      [83]: "2009-03-15T03:00:00Z" (1237086000) transition_time 0x5f8-0x600 (8)
0x600|00 00 00 00 4a d1 58 40                        |....J.X@        |      [84]: "2009-10-11T04:00:00Z" (1255233600) transition_time 0x600-0x608 (8)
0x600|                        00 00 00 00 4b b8 00 b0|        ....K...|      [85]: "2010-04-04T03:00:00Z" (1270350000) transition_time 0x608-0x610 (8)
0x610|00 00 00 00 4c b1 3a 40                        |....L.:@        |      [86]: "2010-10-10T04:00:00Z" (1286683200) transition_time 0x610-0x618 (8)
0x610|                        00 00 00 00 4d c6 07 30|        ....M..0|      [87]: "2011-05-08T03:00:00Z" (1304823600) transition_time 0x618-0x620 (8)
0x620|00 00 00 00 4e 50 82 c0                        |....NP..        |      [88]: "2011-08-21T04:00:00Z" (1313899200) transition_time 0x620-0x628 (8)
0x620|                        00 00 00 00 4f 9c ae b0|        ....O...|      [89]: "2012-04-29T03:00:00Z" (1335668400) transition_time 0x628-0x630 (8)
0x630|00 00 00 00 50 42 d9 c0                        |....PB..        |      [90]: "2012-09-02T04:00:00Z" (1346558400) transition_time 0x630-0x638 (8)
0x630|                        00 00 00 00 51 7c 90 b0|        ....Q|..|      [91]: "2013-04-28T03:00:00Z" (1367118000) transition_time 0x638-0x640 (8)
0x640|00 00 00 00 52 2b f6 40                        |....R+.@        |      [92]: "2013-09-08T04:00:00Z" (1378612800) transition_time 0x640-0x648 (8)
0x640|                        00 00 00 00 53 5c 72 b0|        ....S\r.|      [93]: "2014-04-27T03:00:00Z" (1398567600) transition_time 0x648-0x650 (8)
0x650|00 00 00 00 54 0b d8 40                        |....T..@        |      [94]: "2014-09-07T04:00:00Z" (1410062400) transition_time 0x650-0x658 (8)
0x650|                        00 00 00 00 57 37 e6 30|        ....W7.0|      [95]: "2016-05-15T03:00:00Z" (1463281200) transition_time 0x658-0x660 (8)
0x660|00 00 00 00 57 af ec c0                        |....W...        |      [96]: "2016-08-14T04:00:00Z" (1471147200) transition_time 0x660-0x668 (8)
0x660|                        00 00 00 00 59 17 c8 30|        ....Y..0|      [97]: "2017-05-14T03:00:00Z" (1494730800) transition_time 0x668-0x670 (8)
0x670|00 00 00 00 59 8f ce c0                        |....Y...        |      [98]: "2017-08-13T04:00:00Z" (1502596800) transition_time 0x670-0x678 (8)
0x670|                        00 00 00 00 5a f7 aa 30|        ....Z..0|      [99]: "2018-05-13T03:00:00Z" (1526180400) transition_time 0x678-0x680 (8)
0x680|00 00 00 00 5b 6f b0 c0                        |....[o..        |      [100]: "2018-08-12T04:00:00Z" (1534046400) transition_time 0x680-0x688 (8)
0x680|                        00 00 00 00 5c a9 67 b0|        ....\.g.|      [101]: "2019-04-07T03:00:00Z" (1554606000) transition_time 0x688-0x690 (8)
0x690|00 00 00 00 5d 74 7c c0                        |....]t|.        |      [102]: "2019-09-08T04:00:00Z" (1567915200) transition_time 0x690-0x698 (8)
0x690|                        00 00 00 00 5e 89 49 b0|        ....^.I.|      [103]: "2020-04-05T03:00:00Z" (1586055600) transition_time 0x698-0x6a0 (8)
0x6a0|00 00 00 00 5f 54 5e c0                        |...._T^.        |      [104]: "2020-09-06T04:00:00Z" (1599364800) transition_time 0x6a0-0x6a8 (8)
0x6a0|                        00 00 00 00 60 69 2b b0|        ....`i+.|      [105]: "2021-04-04T03:00:00Z" (1617505200) transition_time 0x6a8-0x6b0 (8)
0x6b0|00 00 00 00 61 34 40 c0                        |....a4@.        |      [106]: "2021-09-05T04:00:00Z" (1630814400) transition_time 0x6b0-0x6b8 (8)
0x6b0|                        00 00 00 00 62 49 0d b0|        ....bI..|      [107]: "2022-04-03T03:00:00Z" (1648954800) transition_time 0x6b8-0x6c0 (8)
0x6c0|00 00 00 00 63 1d 5d 40                        |....c.]@        |      [108]: "2022-09-11T04:00:00Z" (1662868800) transition_time 0x6c0-0x6c8 (8)
0x6c0|                        00 00 00 00 64 28 ef b0|        ....d(..|      [109]: "2023-04-02T03:00:00Z" (1680404400) transition_time 0x6c8-0x6d0 (8)
0x6d0|00 00 00 00 64 f4 04 c0                        |....d...        |      [110]: "2023-09-03T04:00:00Z" (1693713600) transition_time 0x6d0-0x6d8 (8)
0x6d0|                        00 00 00 00 66 12 0c 30|        ....f..0|      [111]: "2024-04-07T03:00:00Z" (1712458800) transition_time 0x6d8-0x6e0 (8)
0x6e0|00 00 00 00 66 dd 21 40                        |....f.!@        |      [112]: "2024-09-08T04:00:00Z" (1725768000) transition_time 0x6e0-0x6e8 (8)
0x6e0|                        00 00 00 00 67 f1 ee 30|        ....g..0|      [113]: "2025-04-06T03:00:00Z" (1743908400) transition_time 0x6e8-0x6f0 (8)
0x6f0|00 00 00 00 68 bd 03 40                        |....h..@        |      [114]: "2025-09-07T04:00:00Z" (1757217600) transition_time 0x6f0-0x6f8 (8)
0x6f0|                        00 00 00 00 69 d1 d0 30|        ....i..0|      [115]: "2026-04-05T03:00:00Z" (1775358000) transition_time 0x6f8-0x700 (8)
0x700|00 00 00 00 6a 9c e5 40                        |....j..@        |      [116]: "2026-09-06T04:00:00Z" (1788667200) transition_time 0x700-0x708 (8)
0x700|                        00 00 00 00 6b b1 b2 30|        ....k..0|      [117]: "2027-04-04T03:00:00Z" (1806807600) transition_time 0x708-0x710 (8)
0x710|00 00 00 00 6c 7c c7 40                        |....l|.@        |      [118]: "2027-09-05T04:00:00Z" (1820116800) transition_time 0x710-0x718 (8)
0x710|                        00 00 00 00 6d 91 94 30|        ....m..0|      [119]: "2028-04-02T03:00:00Z" (1838257200) transition_time 0x718-0x720 (8)
0x720|00 00 00 00 6e 5c a9 40                        |....n\.@        |      [120]: "2028-09-03T04:00:00Z" (1851566400) transition_time 0x720-0x728 (8)
0x720|                        00 00 00 00 6f 7a b0 b0|        ....oz..|      [121]: "2029-04-08T03:00:00Z" (1870311600) transition_time 0x728-0x730 (8)
0x730|00 00 00 00 70 3c 8b 40                        |....p<.@        |      [122]: "2029-09-02T04:00:00Z" (1883016000) transition_time 0x730-0x738 (8)
0x730|                        00 00 00 00 71 5a 92 b0|        ....qZ..|      [123]: "2030-04-07T03:00:00Z" (1901761200) transition_time 0x738-0x740 (8)
0x740|00 00 00 00 72 25 a7 c0                        |....r%..        |      [124]: "2030-09-08T04:00:00Z" (1915070400) transition_time 0x740-0x748 (8)
0x740|                        00 00 00 00 73 3a 74 b0|        ....s:t.|      [125]: "2031-04-06T03:00:00Z" (1933210800) transition_time 0x748-0x750 (8)
0x750|00 00 00 00 74 05 89 c0                        |....t...        |      [126]: "2031-09-07T04:00:00Z" (1946520000) transition_time 0x750-0x758 (8)
0x750|                        00 00 00 00 75 1a 56 b0|        ....u.V.|      [127]: "2032-04-04T03:00:00Z" (1964660400) transition_time 0x758-0x760 (8)
0x760|00 00 00 00 75 e5 6b c0                        |....u.k.        |      [128]: "2032-09-05T04:00:00Z" (1977969600) transition_time 0x760-0x768 (8)
0x760|                        00 00 00 00 76 fa 38 b0|        ....v.8.|      [129]: "2033-04-03T03:00:00Z" (1996110000) transition_time 0x768-0x770 (8)
0x770|00 00 00 00 77 c5 4d c0                        |....w.M.        |      [130]: "2033-09-04T04:00:00Z" (2009419200) transition_time 0x770-0x778 (8)
0x770|                        00 00 00 00 78 da 1a b0|        ....x...|      [131]: "2034-04-02T03:00:00Z" (2027559600) transition_time 0x778-0x780 (8)
0x780|00 00 00 00 79 a5 2f c0                        |....y./.        |      [132]: "2034-09-03T04:00:00Z" (2040868800) transition_time 0x780-0x788 (8)
0x780|                        00 00 00 00 7a c3 37 30|        ....z.70|      [133]: "2035-04-08T03:00:00Z" (2059614000) transition_time 0x788-0x790 (8)
0x790|00 00 00 00 7b 85 11 c0                        |....{...        |      [134]: "2035-09-02T04:00:00Z" (2072318400) transition_time 0x790-0x798 (8)
0x790|                        00 00 00 00 7c a3 19 30|        ....|..0|      [135]: "2036-04-06T03:00:00Z" (2091063600) transition_time 0x798-0x7a0 (8)
0x7a0|00 00 00 00 7d 6e 2e 40                        |....}n.@        |      [136]: "2036-09-07T04:00:00Z" (2104372800) transition_time 0x7a0-0x7a8 (8)
0x7a0|                        00 00 00 00 7e 82 fb 30|        ....~..0|      [137]: "2037-04-05T03:00:00Z" (2122513200) transition_time 0x7a8-0x7b0 (8)
0x7b0|00 00 00 00 7f 4e 10 40                        |.....N.@        |      [138]: "2037-09-06T04:00:00Z" (2135822400) transition_time 0x7b0-0x7b8 (8)
0x7b0|                        00 00 00 00 7f ff ff ff|        ........|      [139]: "2038-01-19T03:14:07Z" (2147483647) transition_time 0x7b8-0x7c0 (8)
     |                                               |                |    transition_types[0:140]: 0x7c0-0x84c (140)
0x7c0|01                                             |.               |      [0]: 1 transition_type 0x7c0-0x7c1 (1)
0x7c0|   04                                          | .              |      [1]: 4 transition_type 0x7c1-0x7c2 (1)
0x7c0|      02                                       |  .             |      [2]: 2 transition_type 0x7c2-0x7c3 (1)
0x7c0|         03                                    |   .            |      [3]: 3 transition_type 0x7c3-0x7c4 (1)
0x7c0|            02                                 |    .           |      [4]: 2 transition_type 0x7c4-0x7c5 (1)
0x7c0|               03                              |     .          |      [5]: 3 transition_type 0x7c5-0x7c6 (1)
0x7c0|                  02                           |      .         |      [6]: 2 transition_type 0x7c6-0x7c7 (1)
0x7c0|                     03                        |       .        |      [7]: 3 transition_type 0x7c7-0x7c8 (1)
0x7c0|                        02                     |        .       |      [8]: 2 transition_type 0x7c8-0x7c9 (1)
0x7c0|                           03                  |         .      |      [9]: 3 transition_type 0x7c9-0x7ca (1)
0x7c0|                              02               |          .     |      [10]: 2 transition_type 0x7ca-0x7cb (1)
0x7c0|                                 03            |           .    |      [11]: 3 transition_type 0x7cb-0x7cc (1)
0x7c0|                                    02         |            .   |      [12]: 2 transition_type 0x7cc-0x7cd (1)
0x7c0|                                       03      |             .  |      [13]: 3 transition_type 0x7cd-0x7ce (1)
0x7c0|                                          02   |              . |      [14]: 2 transition_type 0x7ce-0x7cf (1)
0x7c0|                                             03|               .|      [15]: 3 transition_type 0x7cf-0x7d0 (1)
0x7d0|02                                             |.               |      [16]: 2 transition_type 0x7d0-0x7d1 (1)
0x7d0|   03                                          | .              |      [17]: 3 transition_type 0x7d1-0x7d2 (1)
0x7d0|      02                                       |  .             |      [18]: 2 transition_type 0x7d2-0x7d3 (1)
0x7d0|         03                                    |   .            |      [19]: 3 transition_type 0x7d3-0x7d4 (1)
0x7d0|            02                                 |    .           |      [20]: 2 transition_type 0x7d4-0x7d5 (1)
0x7d0|               03                              |     .          |      [21]: 3 transition_type 0x7d5-0x7d6 (1)
0x7d0|                  02                           |      .         |      [22]: 2 transition_type 0x7d6-0x7d7 (1)
0x7d0|                     03                        |       .        |      [23]: 3 transition_type 0x7d7-0x7d8 (1)
0x7d0|                        02                     |        .       |      [24]: 2 transition_type 0x7d8-0x7d9 (1)
0x7d0|                           03                  |         .      |      [25]: 3 transition_type 0x7d9-0x7da (1)
0x7d0|                              02               |          .     |      [26]: 2 transition_type 0x7da-0x7db (1)
0x7d0|                                 03            |           .    |      [27]: 3 transition_type 0x7db-0x7dc (1)
0x7d0|                                    02         |            .   |      [28]: 2 transition_type 0x7dc-0x7dd (1)
0x7d0|                                       05      |             .  |      [29]: 5 transition_type 0x7dd-0x7de (1)
0x7d0|                                          06   |              . |      [30]: 6 transition_type 0x7de-0x7df (1)
0x7d0|                                             05|               .|      [31]: 5 transition_type 0x7df-0x7e0 (1)
0x7e0|06                                             |.               |      [32]: 6 transition_type 0x7e0-0x7e1 (1)
0x7e0|   05                                          | .              |      [33]: 5 transition_type 0x7e1-0x7e2 (1)
0x7e0|      06                                       |  .             |      [34]: 6 transition_type 0x7e2-0x7e3 (1)
0x7e0|         05                                    |   .            |      [35]: 5 transition_type 0x7e3-0x7e4 (1)
0x7e0|            06                                 |    .           |      [36]: 6 transition_type 0x7e4-0x7e5 (1)
0x7e0|               05                              |     .          |      [37]: 5 transition_type 0x7e5-0x7e6 (1)
0x7e0|                  06                           |      .         |      [38]: 6 transition_type 0x7e6-0x7e7 (1)
0x7e0|                     05                        |       .        |      [39]: 5 transition_type 0x7e7-0x7e8 (1)
0x7e0|                        06                     |        .       |      [40]: 6 transition_type 0x7e8-0x7e9 (1)
0x7e0|                           05                  |         .      |      [41]: 5 transition_type 0x7e9-0x7ea (1)
0x7e0|                              06               |          .     |      [42]: 6 transition_type 0x7ea-0x7eb (1)
0x7e0|                                 05            |           .    |      [43]: 5 transition_type 0x7eb-0x7ec (1)
0x7e0|                                    06         |            .   |      [44]: 6 transition_type 0x7ec-0x7ed (1)
0x7e0|                                       05      |             .  |      [45]: 5 transition_type 0x7ed-0x7ee (1)
0x7e0|                                          06   |              . |      [46]: 6 transition_type 0x7ee-0x7ef (1)
0x7e0|                                             05|               .|      [47]: 5 transition_type 0x7ef-0x7f0 (1)
0x7f0|06                                             |.               |      [48]: 6 transition_type 0x7f0-0x7f1 (1)
0x7f0|   05                                          | .              |      [49]: 5 transition_type 0x7f1-0x7f2 (1)
0x7f0|      06                                       |  .             |      [50]: 6 transition_type 0x7f2-0x7f3 (1)
0x7f0|         05                                    |   .            |      [51]: 5 transition_type 0x7f3-0x7f4 (1)
0x7f0|            06                                 |    .           |      [52]: 6 transition_type 0x7f4-0x7f5 (1)
0x7f0|               05                              |     .          |      [53]: 5 transition_type 0x7f5-0x7f6 (1)
0x7f0|                  06                           |      .         |      [54]: 6 transition_type 0x7f6-0x7f7 (1)
0x7f0|                     05                        |       .        |      [55]: 5 transition_type 0x7f7-0x7f8 (1)
0x7f0|                        06                     |        .       |      [56]: 6 transition_type 0x7f8-0x7f9 (1)
0x7f0|                           05                  |         .      |      [57]: 5 transition_type 0x7f9-0x7fa (1)
0x7f0|                              06               |          .     |      [58]: 6 transition_type 0x7fa-0x7fb (1)
0x7f0|                                 05            |           .    |      [59]: 5 transition_type 0x7fb-0x7fc (1)
0x7f0|                                    06         |            .   |      [60]: 6 transition_type 0x7fc-0x7fd (1)
0x7f0|                                       05      |             .  |      [61]: 5 transition_type 0x7fd-0x7fe (1)
0x7f0|                                          06   |              . |      [62]: 6 transition_type 0x7fe-0x7ff (1)
0x7f0|                                             05|               .|      [63]: 5 transition_type 0x7ff-0x800 (1)
0x800|06                                             |.               |      [64]: 6 transition_type 0x800-0x801 (1)
0x800|   05                                          | .              |      [65]: 5 transition_type 0x801-0x802 (1)
0x800|      06                                       |  .             |      [66]: 6 transition_type 0x802-0x803 (1)
0x800|         05                                    |   .            |      [67]: 5 transition_type 0x803-0x804 (1)
0x800|            06                                 |    .           |      [68]: 6 transition_type 0x804-0x805 (1)
0x800|               05                              |     .          |      [69]: 5 transition_type 0x805-0x806 (1)
0x800|                  06                           |      .         |      [70]: 6 transition_type 0x806-0x807 (1)
0x800|                     05                        |       .        |      [71]: 5 transition_type 0x807-0x808 (1)
0x800|                        06                     |        .       |      [72]: 6 transition_type 0x808-0x809 (1)
0x800|                           05                  |         .      |      [73]: 5 transition_type 0x809-0x80a (1)
0x800|                              06               |          .     |      [74]: 6 transition_type 0x80a-0x80b (1)
0x800|                                 05            |           .    |      [75]: 5 transition_type 0x80b-0x80c (1)
0x800|                                    06         |            .   |      [76]: 6 transition_type 0x80c-0x80d (1)
0x800|                                       05      |             .  |      [77]: 5 transition_type 0x80d-0x80e (1)
0x800|                                          06   |              . |      [78]: 6 transition_type 0x80e-0x80f (1)
0x800|                                             05|               .|      [79]: 5 transition_type 0x80f-0x810 (1)
0x810|06                                             |.               |      [80]: 6 transition_type 0x810-0x811 (1)
0x810|   05                                          | .              |      [81]: 5 transition_type 0x811-0x812 (1)
0x810|      06                                       |  .             |      [82]: 6 transition_type 0x812-0x813 (1)
0x810|         05                                    |   .            |      [83]: 5 transition_type 0x813-0x814 (1)
0x810|            06                                 |    .           |      [84]: 6 transition_type 0x814-0x815 (1)
0x810|               05                              |     .          |      [85]: 5 transition_type 0x815-0x816 (1)
0x810|                  06                           |      .         |      [86]: 6 transition_type 0x816-0x817 (1)
0x810|                     05                        |       .        |      [87]: 5 transition_type 0x817-0x818 (1)
0x810|                        06                     |        .       |      [88]: 6 transition_type 0x818-0x819 (1)
0x810|                           05                  |         .      |      [89]: 5 transition_type 0x819-0x81a (1)
0x810|                              06               |          .     |      [90]: 6 transition_type 0x81a-0x81b (1)
0x810|                                 05            |           .    |      [91]: 5 transition_type 0x81b-0x81c (1)
0x810|                                    06         |            .   |      [92]: 6 transition_type 0x81c-0x81d (1)
0x810|                                       05      |             .  |      [93]: 5 transition_type 0x81d-0x81e (1)
0x810|                                          06   |              . |      [94]: 6 transition_type 0x81e-0x81f (1)
0x810|                                             05|               .|      [95]: 5 transition_type 0x81f-0x820 (1)
0x820|06                                             |.               |      [96]: 6 transition_type 0x820-0x821 (1)
0x820|   05                                          | .              |      [97]: 5 transition_type 0x821-0x822 (1)
0x820|      06                                       |  .             |      [98]: 6 transition_type 0x822-0x823 (1)
0x820|         05                                    |   .            |      [99]: 5 transition_type 0x823-0x824 (1)
0x820|            06                                 |    .           |      [100]: 6 transition_type 0x824-0x825 (1)
0x820|               05                              |     .          |      [101]: 5 transition_type 0x825-0x826 (1)
0x820|                  06                           |      .         |      [102]: 6 transition_type 0x826-0x827 (1)
0x820|                     05                        |       .        |      [103]: 5 transition_type 0x827-0x828 (1)
0x820|                        06                     |        .       |      [104]: 6 transition_type 0x828-0x829 (1)
0x820|                           05                  |         .      |      [105]: 5 transition_type 0x829-0x82a (1)
0x820|                              06               |          .     |      [106]: 6 transition_type 0x82a-0x82b (1)
0x820|                                 05            |           .    |      [107]: 5 transition_type 0x82b-0x82c (1)
0x820|                                    06         |            .   |      [108]: 6 transition_type 0x82c-0x82d (1)
0x820|                                       05      |             .  |      [109]: 5 transition_type 0x82d-0x82e (1)
0x820|                                          06   |              . |      [110]: 6 transition_type 0x82e-0x82f (1)
0x820|                                             05|               .|      [111]: 5 transition_type 0x82f-0x830 (1)
0x830|06                                             |.               |      [112]: 6 transition_type 0x830-0x831 (1)
0x830|   05                                          | .              |      [113]: 5 transition_type 0x831-0x832 (1)
0x830|      06                                       |  .             |      [114]: 6 transition_type 0x832-0x833 (1)
0x830|         05                                    |   .            |      [115]: 5 transition_type 0x833-0x834 (1)
0x830|            06                                 |    .           |      [116]: 6 transition_type 0x834-0x835 (1)
0x830|               05                              |     .          |      [117]: 5 transition_type 0x835-0x836 (1)
0x830|                  06                           |      .         |      [118]: 6 transition_type 0x836-0x837 (1)
0x830|                     05                        |       .        |      [119]: 5 transition_type 0x837-0x838 (1)
0x830|                        06                     |        .       |      [120]: 6 transition_type 0x838-0x839 (1)
0x830|                           05                  |         .      |      [121]: 5 transition_type 0x839-0x83a (1)
0x830|                              06               |          .     |      [122]: 6 transition_type 0x83a-0x83b (1)
0x830|                                 05            |           .    |      [123]: 5 transition_type 0x83b-0x83c (1)
0x830|                                    06         |            .   |      [124]: 6 transition_type 0x83c-0x83d (1)
0x830|                                       05      |             .  |      [125]: 5 transition_type 0x83d-0x83e (1)
0x830|                                          06   |              . |      [126]: 6 transition_type 0x83e-0x83f (1)
0x830|                                             05|               .|      [127]: 5 transition_type 0x83f-0x840 (1)
0x840|06                                             |.               |      [128]: 6 transition_type 0x840-0x841 (1)
0x840|   05                                          | .              |      [129]: 5 transition_type 0x841-0x842 (1)
0x840|      06                                       |  .             |      [130]: 6 transition_type 0x842-0x843 (1)
0x840|         05                                    |   .            |      [131]: 5 transition_type 0x843-0x844 (1)
0x840|            06                                 |    .           |      [132]: 6 transition_type 0x844-0x845 (1)
0x840|               05                              |     .          |      [133]: 5 transition_type 0x845-0x846 (1)
0x840|                  06                           |      .         |      [134]: 6 transition_type 0x846-0x847 (1)
0x840|                     05                        |       .        |      [135]: 5 transition_type 0x847-0x848 (1)
0x840|                        06                     |        .       |      [136]: 6 transition_type 0x848-0x849 (1)
0x840|                           05                  |         .      |      [137]: 5 transition_type 0x849-0x84a (1)
0x840|                              06               |          .     |      [138]: 6 transition_type 0x84a-0x84b (1)
0x840|                                 06            |           .    |      [139]: 6 transition_type 0x84b-0x84c (1)
     |                                               |                |    local_time_type_records[0:7]: 0x84c-0x876 (42)
     |                                               |                |      [0]{}: local_time_type 0x84c-0x852 (6)
0x840|                                    ff ff 99 78|            ...x|        utoff: -26248 (valid) 0x84c-0x850 (4)
0x850|00                                             |.               |        dst: 0 (valid) 0x850-0x851 (1)
0x850|   00                                          | .              |        idx: 0 (valid) 0x851-0x852 (1)
     |                                               |                |      [1]{}: local_time_type 0x852-0x858 (6)
0x850|      ff ff 99 78                              |  ...x          |        utoff: -26248 (valid) 0x852-0x856 (4)
0x850|                  00                           |      .         |        dst: 0 (valid) 0x856-0x857 (1)
0x850|                     04                        |       .        |        idx: 4 (valid) 0x857-0x858 (1)
     |                                               |                |      [2]{}: local_time_type 0x858-0x85e (6)
0x850|                        ff ff ab a0            |        ....    |        utoff: -21600 (valid) 0x858-0x85c (4)
0x850|                                    01         |            .   |        dst: 1 (valid) 0x85c-0x85d (1)
0x850|                                       08      |             .  |        idx: 8 (valid) 0x85d-0x85e (1)
     |                                               |                |      [3]{}: local_time_type 0x85e-0x864 (6)
0x850|                                          ff ff|              ..|        utoff: -25200 (valid) 0x85e-0x862 (4)
0x860|9d 90                                          |..              |
0x860|      00                                       |  .             |        dst: 0 (valid) 0x862-0x863 (1)
0x860|         0c                                    |   .            |        idx: 12 (valid) 0x863-0x864 (1)
     |                                               |                |      [4]{}: local_time_type 0x864-0x86a (6)
0x860|            ff ff 9d 90                        |    ....        |        utoff: -25200 (valid) 0x864-0x868 (4)
0x860|                        00                     |        .       |        dst: 0 (valid) 0x868-0x869 (1)
0x860|                           0c                  |         .      |        idx: 12 (valid) 0x869-0x86a (1)
     |                                               |                |      [5]{}: local_time_type 0x86a-0x870 (6)
0x860|                              ff ff ab a0      |          ....  |        utoff: -21600 (valid) 0x86a-0x86e (4)
0x860|                                          00   |              . |        dst: 0 (valid) 0x86e-0x86f (1)
0x860|                                             08|               .|        idx: 8 (valid) 0x86f-0x870 (1)
     |                                               |                |      [6]{}: local_time_type 0x870-0x876 (6)
0x870|ff ff b9 b0                                    |....            |        utoff: -18000 (valid) 0x870-0x874 (4)
0x870|            01                                 |    .           |        dst: 1 (valid) 0x874-0x875 (1)
0x870|               10                              |     .          |        idx: 16 (valid) 0x875-0x876 (1)
     |                                               |                |    time_zone_designations[0:5]: 0x876-0x88a (20)
0x870|                  4c 4d 54 00                  |      LMT.      |      [0]: "LMT" time_zone_designation 0x876-0x87a (4)
0x870|                              45 4d 54 00      |          EMT.  |      [1]: "EMT" time_zone_designation 0x87a-0x87e (4)
0x870|                                          2d 30|              -0|      [2]: "-06" time_zone_designation 0x87e-0x882 (4)
0x880|36 00                                          |6.              |
0x880|      2d 30 37 00                              |  -07.          |      [3]: "-07" time_zone_designation 0x882-0x886 (4)
0x880|                  2d 30 35 00                  |      -05.      |      [4]: "-05" time_zone_designation 0x886-0x88a (4)
     |                                               |                |    leap_second_records[0:0]: 0x88a-0x88a (0)
     |                                               |                |    standard_wall_indicators[0:7]: 0x88a-0x891 (7)
0x880|                              00               |          .     |      [0]: 0 standard_wall_indicator (valid) 0x88a-0x88b (1)
0x880|                                 00            |           .    |      [1]: 0 standard_wall_indicator (valid) 0x88b-0x88c (1)
0x880|                                    01         |            .   |      [2]: 1 standard_wall_indicator (valid) 0x88c-0x88d (1)
0x880|                                       01      |             .  |      [3]: 1 standard_wall_indicator (valid) 0x88d-0x88e (1)
0x880|                                          00   |              . |      [4]: 0 standard_wall_indicator (valid) 0x88e-0x88f (1)
0x880|                                             01|               .|      [5]: 1 standard_wall_indicator (valid) 0x88f-0x890 (1)
0x890|01                                             |.               |      [6]: 1 standard_wall_indicator (valid) 0x890-0x891 (1)
     |                                               |                |    ut_local_indicators[0:7]: 0x891-0x898 (7)
0x890|   00                                          | .              |      [0]: 0 ut_local_indicator (valid) 0x891-0x892 (1)
0x890|      00                                       |  .             |      [1]: 0 ut_local_indicator (valid) 0x892-0x893 (1)
0x890|         01                                    |   .            |      [2]: 1 ut_local_indicator (valid) 0x893-0x894 (1)
0x890|            01                                 |    .           |      [3]: 1 ut_local_indicator (valid) 0x894-0x895 (1)
0x890|               00                              |     .          |      [4]: 0 ut_local_indicator (valid) 0x895-0x896 (1)
0x890|                  01                           |      .         |      [5]: 1 ut_local_indicator (valid) 0x896-0x897 (1)
0x890|                     01                        |       .        |      [6]: 1 ut_local_indicator (valid) 0x897-0x898 (1)
     |                                               |                |  footer{}: 0x898-0x8b9 (33)
0x890|                        0a                     |        .       |    nl1: 10 (valid) 0x898-0x899 (1)
0x890|                           3c 2d 30 36 3e 36 3c|         <-06>6<|    tz_string: "<-06>6<-05>,M9.1.6/22,M4.1.6/22" 0x899-0x8b8 (31)
0x8a0|2d 30 35 3e 2c 4d 39 2e 31 2e 36 2f 32 32 2c 4d|-05>,M9.1.6/22,M|
0x8b0|34 2e 31 2e 36 2f 32 32                        |4.1.6/22        |
0x8b0|                        0a|                    |        .|      |    nl2: 10 (valid) 0x8b8-0x8b9 (1)
