$ fq -d tzif dv Edmonton
     |00 01 02 03 04 05 06 07 08 09 0a 0b 0c 0d 0e 0f|0123456789abcdef|.{}: Edmonton (tzif) 0x0-0x99a (2458)
     |                                               |                |  v1header{}: 0x0-0x2c (44)
0x000|54 5a 69 66                                    |TZif            |    magic: 0x545a6966 (valid) 0x0-0x4 (4)
0x000|            32                                 |    2           |    ver: "2" (0x32) (valid) 0x4-0x5 (1)
0x000|               00 00 00 00 00 00 00 00 00 00 00|     ...........|    reserved: raw bits 0x5-0x14 (15)
0x010|00 00 00 00                                    |....            |
0x010|            00 00 00 05                        |    ....        |    isutcnt: 5 0x14-0x18 (4)
0x010|                        00 00 00 05            |        ....    |    isstdcnt: 5 0x18-0x1c (4)
0x010|                                    00 00 00 1b|            ....|    leapcnt: 27 0x1c-0x20 (4)
0x020|00 00 00 7a                                    |...z            |    timecnt: 122 0x20-0x24 (4)
0x020|            00 00 00 05                        |    ....        |    typecnt: 5 0x24-0x28 (4)
0x020|                        00 00 00 14            |        ....    |    charcnt: 20 0x28-0x2c (4)
     |                                               |                |  v1datablock{}: 0x2c-0x3a2 (886)
     |                                               |                |    transition_times[0:122]: 0x2c-0x214 (488)
0x020|                                    88 de ce e0|            ....|      [0]: "1906-09-01T07:33:52Z" (-1998663968) transition_time 0x2c-0x30 (4)
0x030|9e b8 af 90                                    |....            |      [1]: "1918-04-14T09:00:00Z" (-1632063600) transition_time 0x30-0x34 (4)
0x030|            9f bb 07 80                        |    ....        |      [2]: "1918-10-27T08:00:00Z" (-1615132800) transition_time 0x34-0x38 (4)
0x030|                        a0 98 91 90            |        ....    |      [3]: "1919-04-13T09:00:00Z" (-1600614000) transition_time 0x38-0x3c (4)
0x030|                                    a0 d2 85 80|            ....|      [4]: "1919-05-27T08:00:00Z" (-1596816000) transition_time 0x3c-0x40 (4)
0x040|a2 8a e8 90                                    |....            |      [5]: "1920-04-25T09:00:00Z" (-1567954800) transition_time 0x40-0x44 (4)
0x040|            a3 84 06 00                        |    ....        |      [6]: "1920-10-31T08:00:00Z" (-1551628800) transition_time 0x44-0x48 (4)
0x040|                        a4 6a ca 90            |        .j..    |      [7]: "1921-04-24T09:00:00Z" (-1536505200) transition_time 0x48-0x4c (4)
0x040|                                    a5 35 c3 80|            .5..|      [8]: "1921-09-25T08:00:00Z" (-1523203200) transition_time 0x4c-0x50 (4)
0x050|a6 53 e7 10                                    |.S..            |      [9]: "1922-04-30T09:00:00Z" (-1504450800) transition_time 0x50-0x54 (4)
0x050|            a7 15 a5 80                        |    ....        |      [10]: "1922-09-24T08:00:00Z" (-1491753600) transition_time 0x54-0x58 (4)
0x050|                        a8 33 c9 10            |        .3..    |      [11]: "1923-04-29T09:00:00Z" (-1473001200) transition_time 0x58-0x5c (4)
0x050|                                    a8 fe c2 00|            ....|      [12]: "1923-09-30T08:00:00Z" (-1459699200) transition_time 0x5c-0x60 (4)
0x060|cb 89 0c 90                                    |....            |      [13]: "1942-02-09T09:00:00Z" (-880210800) transition_time 0x60-0x64 (4)
0x060|            d2 23 f4 70                        |    .#.p        |      [14]: "1945-08-14T23:00:00Z" (-769395600) transition_time 0x64-0x68 (4)
0x060|                        d2 61 18 00            |        .a..    |      [15]: "1945-09-30T08:00:00Z" (-765388800) transition_time 0x68-0x6c (4)
0x060|                                    d5 55 e3 10|            .U..|      [16]: "1947-04-27T09:00:00Z" (-715791600) transition_time 0x6c-0x70 (4)
0x070|d6 20 dc 00                                    |. ..            |      [17]: "1947-09-28T08:00:00Z" (-702489600) transition_time 0x70-0x74 (4)
0x070|            04 61 19 90                        |    .a..        |      [18]: "1972-04-30T09:00:00Z" (73472400) transition_time 0x74-0x78 (4)
0x070|                        05 50 fc 81            |        .P..    |      [19]: "1972-10-29T08:00:01Z" (89193601) transition_time 0x78-0x7c (4)
0x070|                                    06 40 fb 92|            .@..|      [20]: "1973-04-29T09:00:02Z" (104922002) transition_time 0x7c-0x80 (4)
0x080|07 30 de 82                                    |.0..            |      [21]: "1973-10-28T08:00:02Z" (120643202) transition_time 0x80-0x84 (4)
0x080|            08 20 dd 93                        |    . ..        |      [22]: "1974-04-28T09:00:03Z" (136371603) transition_time 0x84-0x88 (4)
0x080|                        09 10 c0 83            |        ....    |      [23]: "1974-10-27T08:00:03Z" (152092803) transition_time 0x88-0x8c (4)
0x080|                                    0a 00 bf 94|            ....|      [24]: "1975-04-27T09:00:04Z" (167821204) transition_time 0x8c-0x90 (4)
0x090|0a f0 a2 84                                    |....            |      [25]: "1975-10-26T08:00:04Z" (183542404) transition_time 0x90-0x94 (4)
0x090|            0b e0 a1 95                        |    ....        |      [26]: "1976-04-25T09:00:05Z" (199270805) transition_time 0x94-0x98 (4)
0x090|                        0c d9 bf 05            |        ....    |      [27]: "1976-10-31T08:00:05Z" (215596805) transition_time 0x98-0x9c (4)
0x090|                                    0d c0 83 96|            ....|      [28]: "1977-04-24T09:00:06Z" (230720406) transition_time 0x9c-0xa0 (4)
0x0a0|0e b9 a1 06                                    |....            |      [29]: "1977-10-30T08:00:06Z" (247046406) transition_time 0xa0-0xa4 (4)
0x0a0|            0f a9 a0 17                        |    ....        |      [30]: "1978-04-30T09:00:07Z" (262774807) transition_time 0xa4-0xa8 (4)
0x0a0|                        10 99 83 07            |        ....    |      [31]: "1978-10-29T08:00:07Z" (278496007) transition_time 0xa8-0xac (4)
0x0a0|                                    11 89 82 18|            ....|      [32]: "1979-04-29T09:00:08Z" (294224408) transition_time 0xac-0xb0 (4)
0x0b0|12 79 65 08                                    |.ye.            |      [33]: "1979-10-28T08:00:08Z" (309945608) transition_time 0xb0-0xb4 (4)
0x0b0|            13 69 64 19                        |    .id.        |      [34]: "1980-04-27T09:00:09Z" (325674009) transition_time 0xb4-0xb8 (4)
0x0b0|                        14 59 47 09            |        .YG.    |      [35]: "1980-10-26T08:00:09Z" (341395209) transition_time 0xb8-0xbc (4)
0x0b0|                                    15 49 46 19|            .IF.|      [36]: "1981-04-26T09:00:09Z" (357123609) transition_time 0xbc-0xc0 (4)
0x0c0|16 39 29 0a                                    |.9).            |      [37]: "1981-10-25T08:00:10Z" (372844810) transition_time 0xc0-0xc4 (4)
0x0c0|            17 29 28 1a                        |    .)(.        |      [38]: "1982-04-25T09:00:10Z" (388573210) transition_time 0xc4-0xc8 (4)
0x0c0|                        18 22 45 8b            |        ."E.    |      [39]: "1982-10-31T08:00:11Z" (404899211) transition_time 0xc8-0xcc (4)
0x0c0|                                    19 09 0a 1b|            ....|      [40]: "1983-04-24T09:00:11Z" (420022811) transition_time 0xcc-0xd0 (4)
0x0d0|1a 02 27 8c                                    |..'.            |      [41]: "1983-10-30T08:00:12Z" (436348812) transition_time 0xd0-0xd4 (4)
0x0d0|            1a f2 26 9c                        |    ..&.        |      [42]: "1984-04-29T09:00:12Z" (452077212) transition_time 0xd4-0xd8 (4)
0x0d0|                        1b e2 09 8c            |        ....    |      [43]: "1984-10-28T08:00:12Z" (467798412) transition_time 0xd8-0xdc (4)
0x0d0|                                    1c d2 08 9c|            ....|      [44]: "1985-04-28T09:00:12Z" (483526812) transition_time 0xdc-0xe0 (4)
0x0e0|1d c1 eb 8d                                    |....            |      [45]: "1985-10-27T08:00:13Z" (499248013) transition_time 0xe0-0xe4 (4)
0x0e0|            1e b1 ea 9d                        |    ....        |      [46]: "1986-04-27T09:00:13Z" (514976413) transition_time 0xe4-0xe8 (4)
0x0e0|                        1f a1 cd 8d            |        ....    |      [47]: "1986-10-26T08:00:13Z" (530697613) transition_time 0xe8-0xec (4)
0x0e0|                                    20 76 1d 1d|             v..|      [48]: "1987-04-05T09:00:13Z" (544611613) transition_time 0xec-0xf0 (4)
0x0f0|21 81 af 8d                                    |!...            |      [49]: "1987-10-25T08:00:13Z" (562147213) transition_time 0xf0-0xf4 (4)
0x0f0|            22 55 ff 1e                        |    "U..        |      [50]: "1988-04-03T09:00:14Z" (576061214) transition_time 0xf4-0xf8 (4)
0x0f0|                        23 6a cc 0e            |        #j..    |      [51]: "1988-10-30T08:00:14Z" (594201614) transition_time 0xf8-0xfc (4)
0x0f0|                                    24 35 e1 1e|            $5..|      [52]: "1989-04-02T09:00:14Z" (607510814) transition_time 0xfc-0x100 (4)
0x100|25 4a ae 0e                                    |%J..            |      [53]: "1989-10-29T08:00:14Z" (625651214) transition_time 0x100-0x104 (4)
0x100|            26 15 c3 1f                        |    &...        |      [54]: "1990-04-01T09:00:15Z" (638960415) transition_time 0x104-0x108 (4)
0x100|                        27 2a 90 0f            |        '*..    |      [55]: "1990-10-28T08:00:15Z" (657100815) transition_time 0x108-0x10c (4)
0x100|                                    27 fe df a0|            '...|      [56]: "1991-04-07T09:00:16Z" (671014816) transition_time 0x10c-0x110 (4)
0x110|29 0a 72 10                                    |).r.            |      [57]: "1991-10-27T08:00:16Z" (688550416) transition_time 0x110-0x114 (4)
0x110|            29 de c1 a0                        |    )...        |      [58]: "1992-04-05T09:00:16Z" (702464416) transition_time 0x114-0x118 (4)
0x110|                        2a ea 54 11            |        *.T.    |      [59]: "1992-10-25T08:00:17Z" (720000017) transition_time 0x118-0x11c (4)
0x110|                                    2b be a3 a1|            +...|      [60]: "1993-04-04T09:00:17Z" (733914017) transition_time 0x11c-0x120 (4)
0x120|2c d3 70 92                                    |,.p.            |      [61]: "1993-10-31T08:00:18Z" (752054418) transition_time 0x120-0x124 (4)
0x120|            2d 9e 85 a2                        |    -...        |      [62]: "1994-04-03T09:00:18Z" (765363618) transition_time 0x124-0x128 (4)
0x120|                        2e b3 52 93            |        ..R.    |      [63]: "1994-10-30T08:00:19Z" (783504019) transition_time 0x128-0x12c (4)
0x120|                                    2f 7e 67 a3|            /~g.|      [64]: "1995-04-02T09:00:19Z" (796813219) transition_time 0x12c-0x130 (4)
0x130|30 93 34 93                                    |0.4.            |      [65]: "1995-10-29T08:00:19Z" (814953619) transition_time 0x130-0x134 (4)
0x130|            31 67 84 24                        |    1g.$        |      [66]: "1996-04-07T09:00:20Z" (828867620) transition_time 0x134-0x138 (4)
0x130|                        32 73 16 94            |        2s..    |      [67]: "1996-10-27T08:00:20Z" (846403220) transition_time 0x138-0x13c (4)
0x130|                                    33 47 66 24|            3Gf$|      [68]: "1997-04-06T09:00:20Z" (860317220) transition_time 0x13c-0x140 (4)
0x140|34 52 f8 95                                    |4R..            |      [69]: "1997-10-26T08:00:21Z" (877852821) transition_time 0x140-0x144 (4)
0x140|            35 27 48 25                        |    5'H%        |      [70]: "1998-04-05T09:00:21Z" (891766821) transition_time 0x144-0x148 (4)
0x140|                        36 32 da 95            |        62..    |      [71]: "1998-10-25T08:00:21Z" (909302421) transition_time 0x148-0x14c (4)
0x140|                                    37 07 2a 26|            7.*&|      [72]: "1999-04-04T09:00:22Z" (923216422) transition_time 0x14c-0x150 (4)
0x150|38 1b f7 16                                    |8...            |      [73]: "1999-10-31T08:00:22Z" (941356822) transition_time 0x150-0x154 (4)
0x150|            38 e7 0c 26                        |    8..&        |      [74]: "2000-04-02T09:00:22Z" (954666022) transition_time 0x154-0x158 (4)
0x150|                        39 fb d9 16            |        9...    |      [75]: "2000-10-29T08:00:22Z" (972806422) transition_time 0x158-0x15c (4)
0x150|                                    3a c6 ee 26|            :..&|      [76]: "2001-04-01T09:00:22Z" (986115622) transition_time 0x15c-0x160 (4)
0x160|3b db bb 16                                    |;...            |      [77]: "2001-10-28T08:00:22Z" (1004256022) transition_time 0x160-0x164 (4)
0x160|            3c b0 0a a6                        |    <...        |      [78]: "2002-04-07T09:00:22Z" (1018170022) transition_time 0x164-0x168 (4)
0x160|                        3d bb 9d 16            |        =...    |      [79]: "2002-10-27T08:00:22Z" (1035705622) transition_time 0x168-0x16c (4)
0x160|                                    3e 8f ec a6|            >...|      [80]: "2003-04-06T09:00:22Z" (1049619622) transition_time 0x16c-0x170 (4)
0x170|3f 9b 7f 16                                    |?...            |      [81]: "2003-10-26T08:00:22Z" (1067155222) transition_time 0x170-0x174 (4)
0x170|            40 6f ce a6                        |    @o..        |      [82]: "2004-04-04T09:00:22Z" (1081069222) transition_time 0x174-0x178 (4)
0x170|                        41 84 9b 96            |        A...    |      [83]: "2004-10-31T08:00:22Z" (1099209622) transition_time 0x178-0x17c (4)
0x170|                                    42 4f b0 a6|            BO..|      [84]: "2005-04-03T09:00:22Z" (1112518822) transition_time 0x17c-0x180 (4)
0x180|43 64 7d 96                                    |Cd}.            |      [85]: "2005-10-30T08:00:22Z" (1130659222) transition_time 0x180-0x184 (4)
0x180|            44 2f 92 a7                        |    D/..        |      [86]: "2006-04-02T09:00:23Z" (1143968423) transition_time 0x184-0x188 (4)
0x180|                        45 44 5f 97            |        ED_.    |      [87]: "2006-10-29T08:00:23Z" (1162108823) transition_time 0x188-0x18c (4)
0x180|                                    45 f3 c5 27|            E..'|      [88]: "2007-03-11T09:00:23Z" (1173603623) transition_time 0x18c-0x190 (4)
0x190|47 2d 7c 17                                    |G-|.            |      [89]: "2007-11-04T08:00:23Z" (1194163223) transition_time 0x190-0x194 (4)
0x190|            47 d3 a7 27                        |    G..'        |      [90]: "2008-03-09T09:00:23Z" (1205053223) transition_time 0x194-0x198 (4)
0x190|                        49 0d 5e 17            |        I.^.    |      [91]: "2008-11-02T08:00:23Z" (1225612823) transition_time 0x198-0x19c (4)
0x190|                                    49 b3 89 28|            I..(|      [92]: "2009-03-08T09:00:24Z" (1236502824) transition_time 0x19c-0x1a0 (4)
0x1a0|4a ed 40 18                                    |J.@.            |      [93]: "2009-11-01T08:00:24Z" (1257062424) transition_time 0x1a0-0x1a4 (4)
0x1a0|            4b 9c a5 a8                        |    K...        |      [94]: "2010-03-14T09:00:24Z" (1268557224) transition_time 0x1a4-0x1a8 (4)
0x1a0|                        4c d6 5c 98            |        L.\.    |      [95]: "2010-11-07T08:00:24Z" (1289116824) transition_time 0x1a8-0x1ac (4)
0x1a0|                                    4d 7c 87 a8|            M|..|      [96]: "2011-03-13T09:00:24Z" (1300006824) transition_time 0x1ac-0x1b0 (4)
0x1b0|4e b6 3e 98                                    |N.>.            |      [97]: "2011-11-06T08:00:24Z" (1320566424) transition_time 0x1b0-0x1b4 (4)
0x1b0|            4f 5c 69 a8                        |    O\i.        |      [98]: "2012-03-11T09:00:24Z" (1331456424) transition_time 0x1b4-0x1b8 (4)
0x1b0|                        50 96 20 99            |        P. .    |      [99]: "2012-11-04T08:00:25Z" (1352016025) transition_time 0x1b8-0x1bc (4)
0x1b0|                                    51 3c 4b a9|            Q<K.|      [100]: "2013-03-10T09:00:25Z" (1362906025) transition_time 0x1bc-0x1c0 (4)
0x1c0|52 76 02 99                                    |Rv..            |      [101]: "2013-11-03T08:00:25Z" (1383465625) transition_time 0x1c0-0x1c4 (4)
0x1c0|            53 1c 2d a9                        |    S.-.        |      [102]: "2014-03-09T09:00:25Z" (1394355625) transition_time 0x1c4-0x1c8 (4)
0x1c0|                        54 55 e4 99            |        TU..    |      [103]: "2014-11-02T08:00:25Z" (1414915225) transition_time 0x1c8-0x1cc (4)
0x1c0|                                    54 fc 0f a9|            T...|      [104]: "2015-03-08T09:00:25Z" (1425805225) transition_time 0x1cc-0x1d0 (4)
0x1d0|56 35 c6 9a                                    |V5..            |      [105]: "2015-11-01T08:00:26Z" (1446364826) transition_time 0x1d0-0x1d4 (4)
0x1d0|            56 e5 2c 2a                        |    V.,*        |      [106]: "2016-03-13T09:00:26Z" (1457859626) transition_time 0x1d4-0x1d8 (4)
0x1d0|                        58 1e e3 1a            |        X...    |      [107]: "2016-11-06T08:00:26Z" (1478419226) transition_time 0x1d8-0x1dc (4)
0x1d0|                                    58 c5 0e 2b|            X..+|      [108]: "2017-03-12T09:00:27Z" (1489309227) transition_time 0x1dc-0x1e0 (4)
0x1e0|59 fe c5 1b                                    |Y...            |      [109]: "2017-11-05T08:00:27Z" (1509868827) transition_time 0x1e0-0x1e4 (4)
0x1e0|            5a a4 f0 2b                        |    Z..+        |      [110]: "2018-03-11T09:00:27Z" (1520758827) transition_time 0x1e4-0x1e8 (4)
0x1e0|                        5b de a7 1b            |        [...    |      [111]: "2018-11-04T08:00:27Z" (1541318427) transition_time 0x1e8-0x1ec (4)
0x1e0|                                    5c 84 d2 2b|            \..+|      [112]: "2019-03-10T09:00:27Z" (1552208427) transition_time 0x1ec-0x1f0 (4)
0x1f0|5d be 89 1b                                    |]...            |      [113]: "2019-11-03T08:00:27Z" (1572768027) transition_time 0x1f0-0x1f4 (4)
0x1f0|            5e 64 b4 2b                        |    ^d.+        |      [114]: "2020-03-08T09:00:27Z" (1583658027) transition_time 0x1f4-0x1f8 (4)
0x1f0|                        5f 9e 6b 1b            |        _.k.    |      [115]: "2020-11-01T08:00:27Z" (1604217627) transition_time 0x1f8-0x1fc (4)
0x1f0|                                    60 4d d0 ab|            `M..|      [116]: "2021-03-14T09:00:27Z" (1615712427) transition_time 0x1fc-0x200 (4)
0x200|61 87 87 9b                                    |a...            |      [117]: "2021-11-07T08:00:27Z" (1636272027) transition_time 0x200-0x204 (4)
0x200|            62 2d b2 ab                        |    b-..        |      [118]: "2022-03-13T09:00:27Z" (1647162027) transition_time 0x204-0x208 (4)
0x200|                        63 67 69 9b            |        cgi.    |      [119]: "2022-11-06T08:00:27Z" (1667721627) transition_time 0x208-0x20c (4)
0x200|                                    64 0d 94 ab|            d...|      [120]: "2023-03-12T09:00:27Z" (1678611627) transition_time 0x20c-0x210 (4)
0x210|64 9b 78 1b                                    |d.x.            |      [121]: "2023-06-28T00:00:27Z" (1687910427) transition_time 0x210-0x214 (4)
     |                                               |                |    transition_types[0:122]: 0x214-0x28e (122)
0x210|            02                                 |    .           |      [0]: 2 transition_type 0x214-0x215 (1)
0x210|               01                              |     .          |      [1]: 1 transition_type 0x215-0x216 (1)
0x210|                  02                           |      .         |      [2]: 2 transition_type 0x216-0x217 (1)
0x210|                     01                        |       .        |      [3]: 1 transition_type 0x217-0x218 (1)
0x210|                        02                     |        .       |      [4]: 2 transition_type 0x218-0x219 (1)
0x210|                           01                  |         .      |      [5]: 1 transition_type 0x219-0x21a (1)
0x210|                              02               |          .     |      [6]: 2 transition_type 0x21a-0x21b (1)
0x210|                                 01            |           .    |      [7]: 1 transition_type 0x21b-0x21c (1)
0x210|                                    02         |            .   |      [8]: 2 transition_type 0x21c-0x21d (1)
0x210|                                       01      |             .  |      [9]: 1 transition_type 0x21d-0x21e (1)
0x210|                                          02   |              . |      [10]: 2 transition_type 0x21e-0x21f (1)
0x210|                                             01|               .|      [11]: 1 transition_type 0x21f-0x220 (1)
0x220|02                                             |.               |      [12]: 2 transition_type 0x220-0x221 (1)
0x220|   03                                          | .              |      [13]: 3 transition_type 0x221-0x222 (1)
0x220|      04                                       |  .             |      [14]: 4 transition_type 0x222-0x223 (1)
0x220|         02                                    |   .            |      [15]: 2 transition_type 0x223-0x224 (1)
0x220|            01                                 |    .           |      [16]: 1 transition_type 0x224-0x225 (1)
0x220|               02                              |     .          |      [17]: 2 transition_type 0x225-0x226 (1)
0x220|                  01                           |      .         |      [18]: 1 transition_type 0x226-0x227 (1)
0x220|                     02                        |       .        |      [19]: 2 transition_type 0x227-0x228 (1)
0x220|                        01                     |        .       |      [20]: 1 transition_type 0x228-0x229 (1)
0x220|                           02                  |         .      |      [21]: 2 transition_type 0x229-0x22a (1)
0x220|                              01               |          .     |      [22]: 1 transition_type 0x22a-0x22b (1)
0x220|                                 02            |           .    |      [23]: 2 transition_type 0x22b-0x22c (1)
0x220|                                    01         |            .   |      [24]: 1 transition_type 0x22c-0x22d (1)
0x220|                                       02      |             .  |      [25]: 2 transition_type 0x22d-0x22e (1)
0x220|                                          01   |              . |      [26]: 1 transition_type 0x22e-0x22f (1)
0x220|                                             02|               .|      [27]: 2 transition_type 0x22f-0x230 (1)
0x230|01                                             |.               |      [28]: 1 transition_type 0x230-0x231 (1)
0x230|   02                                          | .              |      [29]: 2 transition_type 0x231-0x232 (1)
0x230|      01                                       |  .             |      [30]: 1 transition_type 0x232-0x233 (1)
0x230|         02                                    |   .            |      [31]: 2 transition_type 0x233-0x234 (1)
0x230|            01                                 |    .           |      [32]: 1 transition_type 0x234-0x235 (1)
0x230|               02                              |     .          |      [33]: 2 transition_type 0x235-0x236 (1)
0x230|                  01                           |      .         |      [34]: 1 transition_type 0x236-0x237 (1)
0x230|                     02                        |       .        |      [35]: 2 transition_type 0x237-0x238 (1)
0x230|                        01                     |        .       |      [36]: 1 transition_type 0x238-0x239 (1)
0x230|                           02                  |         .      |      [37]: 2 transition_type 0x239-0x23a (1)
0x230|                              01               |          .     |      [38]: 1 transition_type 0x23a-0x23b (1)
0x230|                                 02            |           .    |      [39]: 2 transition_type 0x23b-0x23c (1)
0x230|                                    01         |            .   |      [40]: 1 transition_type 0x23c-0x23d (1)
0x230|                                       02      |             .  |      [41]: 2 transition_type 0x23d-0x23e (1)
0x230|                                          01   |              . |      [42]: 1 transition_type 0x23e-0x23f (1)
0x230|                                             02|               .|      [43]: 2 transition_type 0x23f-0x240 (1)
0x240|01                                             |.               |      [44]: 1 transition_type 0x240-0x241 (1)
0x240|   02                                          | .              |      [45]: 2 transition_type 0x241-0x242 (1)
0x240|      01                                       |  .             |      [46]: 1 transition_type 0x242-0x243 (1)
0x240|         02                                    |   .            |      [47]: 2 transition_type 0x243-0x244 (1)
0x240|            01                                 |    .           |      [48]: 1 transition_type 0x244-0x245 (1)
0x240|               02                              |     .          |      [49]: 2 transition_type 0x245-0x246 (1)
0x240|                  01                           |      .         |      [50]: 1 transition_type 0x246-0x247 (1)
0x240|                     02                        |       .        |      [51]: 2 transition_type 0x247-0x248 (1)
0x240|                        01                     |        .       |      [52]: 1 transition_type 0x248-0x249 (1)
0x240|                           02                  |         .      |      [53]: 2 transition_type 0x249-0x24a (1)
0x240|                              01               |          .     |      [54]: 1 transition_type 0x24a-0x24b (1)
0x240|                                 02            |           .    |      [55]: 2 transition_type 0x24b-0x24c (1)
0x240|                                    01         |            .   |      [56]: 1 transition_type 0x24c-0x24d (1)
0x240|                                       02      |             .  |      [57]: 2 transition_type 0x24d-0x24e (1)
0x240|                                          01   |              . |      [58]: 1 transition_type 0x24e-0x24f (1)
0x240|                                             02|               .|      [59]: 2 transition_type 0x24f-0x250 (1)
0x250|01                                             |.               |      [60]: 1 transition_type 0x250-0x251 (1)
0x250|   02                                          | .              |      [61]: 2 transition_type 0x251-0x252 (1)
0x250|      01                                       |  .             |      [62]: 1 transition_type 0x252-0x253 (1)
0x250|         02                                    |   .            |      [63]: 2 transition_type 0x253-0x254 (1)
0x250|            01                                 |    .           |      [64]: 1 transition_type 0x254-0x255 (1)
0x250|               02                              |     .          |      [65]: 2 transition_type 0x255-0x256 (1)
0x250|                  01                           |      .         |      [66]: 1 transition_type 0x256-0x257 (1)
0x250|                     02                        |       .        |      [67]: 2 transition_type 0x257-0x258 (1)
0x250|                        01                     |        .       |      [68]: 1 transition_type 0x258-0x259 (1)
0x250|                           02                  |         .      |      [69]: 2 transition_type 0x259-0x25a (1)
0x250|                              01               |          .     |      [70]: 1 transition_type 0x25a-0x25b (1)
0x250|                                 02            |           .    |      [71]: 2 transition_type 0x25b-0x25c (1)
0x250|                                    01         |            .   |      [72]: 1 transition_type 0x25c-0x25d (1)
0x250|                                       02      |             .  |      [73]: 2 transition_type 0x25d-0x25e (1)
0x250|                                          01   |              . |      [74]: 1 transition_type 0x25e-0x25f (1)
0x250|                                             02|               .|      [75]: 2 transition_type 0x25f-0x260 (1)
0x260|01                                             |.               |      [76]: 1 transition_type 0x260-0x261 (1)
0x260|   02                                          | .              |      [77]: 2 transition_type 0x261-0x262 (1)
0x260|      01                                       |  .             |      [78]: 1 transition_type 0x262-0x263 (1)
0x260|         02                                    |   .            |      [79]: 2 transition_type 0x263-0x264 (1)
0x260|            01                                 |    .           |      [80]: 1 transition_type 0x264-0x265 (1)
0x260|               02                              |     .          |      [81]: 2 transition_type 0x265-0x266 (1)
0x260|                  01                           |      .         |      [82]: 1 transition_type 0x266-0x267 (1)
0x260|                     02                        |       .        |      [83]: 2 transition_type 0x267-0x268 (1)
0x260|                        01                     |        .       |      [84]: 1 transition_type 0x268-0x269 (1)
0x260|                           02                  |         .      |      [85]: 2 transition_type 0x269-0x26a (1)
0x260|                              01               |          .     |      [86]: 1 transition_type 0x26a-0x26b (1)
0x260|                                 02            |           .    |      [87]: 2 transition_type 0x26b-0x26c (1)
0x260|                                    01         |            .   |      [88]: 1 transition_type 0x26c-0x26d (1)
0x260|                                       02      |             .  |      [89]: 2 transition_type 0x26d-0x26e (1)
0x260|                                          01   |              . |      [90]: 1 transition_type 0x26e-0x26f (1)
0x260|                                             02|               .|      [91]: 2 transition_type 0x26f-0x270 (1)
0x270|01                                             |.               |      [92]: 1 transition_type 0x270-0x271 (1)
0x270|   02                                          | .              |      [93]: 2 transition_type 0x271-0x272 (1)
0x270|      01                                       |  .             |      [94]: 1 transition_type 0x272-0x273 (1)
0x270|         02                                    |   .            |      [95]: 2 transition_type 0x273-0x274 (1)
0x270|            01                                 |    .           |      [96]: 1 transition_type 0x274-0x275 (1)
0x270|               02                              |     .          |      [97]: 2 transition_type 0x275-0x276 (1)
0x270|                  01                           |      .         |      [98]: 1 transition_type 0x276-0x277 (1)
0x270|                     02                        |       .        |      [99]: 2 transition_type 0x277-0x278 (1)
0x270|                        01                     |        .       |      [100]: 1 transition_type 0x278-0x279 (1)
0x270|                           02                  |         .      |      [101]: 2 transition_type 0x279-0x27a (1)
0x270|                              01               |          .     |      [102]: 1 transition_type 0x27a-0x27b (1)
0x270|                                 02            |           .    |      [103]: 2 transition_type 0x27b-0x27c (1)
0x270|                                    01         |            .   |      [104]: 1 transition_type 0x27c-0x27d (1)
0x270|                                       02      |             .  |      [105]: 2 transition_type 0x27d-0x27e (1)
0x270|                                          01   |              . |      [106]: 1 transition_type 0x27e-0x27f (1)
0x270|                                             02|               .|      [107]: 2 transition_type 0x27f-0x280 (1)
0x280|01                                             |.               |      [108]: 1 transition_type 0x280-0x281 (1)
0x280|   02                                          | .              |      [109]: 2 transition_type 0x281-0x282 (1)
0x280|      01                                       |  .             |      [110]: 1 transition_type 0x282-0x283 (1)
0x280|         02                                    |   .            |      [111]: 2 transition_type 0x283-0x284 (1)
0x280|            01                                 |    .           |      [112]: 1 transition_type 0x284-0x285 (1)
0x280|               02                              |     .          |      [113]: 2 transition_type 0x285-0x286 (1)
0x280|                  01                           |      .         |      [114]: 1 transition_type 0x286-0x287 (1)
0x280|                     02                        |       .        |      [115]: 2 transition_type 0x287-0x288 (1)
0x280|                        01                     |        .       |      [116]: 1 transition_type 0x288-0x289 (1)
0x280|                           02                  |         .      |      [117]: 2 transition_type 0x289-0x28a (1)
0x280|                              01               |          .     |      [118]: 1 transition_type 0x28a-0x28b (1)
0x280|                                 02            |           .    |      [119]: 2 transition_type 0x28b-0x28c (1)
0x280|                                    01         |            .   |      [120]: 1 transition_type 0x28c-0x28d (1)
0x280|                                       01      |             .  |      [121]: 1 transition_type 0x28d-0x28e (1)
     |                                               |                |    local_time_type_records[0:5]: 0x28e-0x2ac (30)
     |                                               |                |      [0]{}: local_time_type 0x28e-0x294 (6)
0x280|                                          ff ff|              ..|        utoff: -27232 (valid) 0x28e-0x292 (4)
0x290|95 a0                                          |..              |
0x290|      00                                       |  .             |        dst: 0 (valid) 0x292-0x293 (1)
0x290|         00                                    |   .            |        idx: 0 (valid) 0x293-0x294 (1)
     |                                               |                |      [1]{}: local_time_type 0x294-0x29a (6)
0x290|            ff ff ab a0                        |    ....        |        utoff: -21600 (valid) 0x294-0x298 (4)
0x290|                        01                     |        .       |        dst: 1 (valid) 0x298-0x299 (1)
0x290|                           04                  |         .      |        idx: 4 (valid) 0x299-0x29a (1)
     |                                               |                |      [2]{}: local_time_type 0x29a-0x2a0 (6)
0x290|                              ff ff 9d 90      |          ....  |        utoff: -25200 (valid) 0x29a-0x29e (4)
0x290|                                          00   |              . |        dst: 0 (valid) 0x29e-0x29f (1)
0x290|                                             08|               .|        idx: 8 (valid) 0x29f-0x2a0 (1)
     |                                               |                |      [3]{}: local_time_type 0x2a0-0x2a6 (6)
0x2a0|ff ff ab a0                                    |....            |        utoff: -21600 (valid) 0x2a0-0x2a4 (4)
0x2a0|            01                                 |    .           |        dst: 1 (valid) 0x2a4-0x2a5 (1)
0x2a0|               0c                              |     .          |        idx: 12 (valid) 0x2a5-0x2a6 (1)
     |                                               |                |      [4]{}: local_time_type 0x2a6-0x2ac (6)
0x2a0|                  ff ff ab a0                  |      ....      |        utoff: -21600 (valid) 0x2a6-0x2aa (4)
0x2a0|                              01               |          .     |        dst: 1 (valid) 0x2aa-0x2ab (1)
0x2a0|                                 10            |           .    |        idx: 16 (valid) 0x2ab-0x2ac (1)
     |                                               |                |    time_zone_designations[0:5]: 0x2ac-0x2c0 (20)
0x2a0|                                    4c 4d 54 00|            LMT.|      [0]: "LMT" time_zone_designation 0x2ac-0x2b0 (4)
0x2b0|4d 44 54 00                                    |MDT.            |      [1]: "MDT" time_zone_designation 0x2b0-0x2b4 (4)
0x2b0|            4d 53 54 00                        |    MST.        |      [2]: "MST" time_zone_designation 0x2b4-0x2b8 (4)
0x2b0|                        4d 57 54 00            |        MWT.    |      [3]: "MWT" time_zone_designation 0x2b8-0x2bc (4)
0x2b0|                                    4d 50 54 00|            MPT.|      [4]: "MPT" time_zone_designation 0x2bc-0x2c0 (4)
     |                                               |                |    leap_second_records[0:27]: 0x2c0-0x398 (216)
     |                                               |                |      [0]{}: leap_second_record 0x2c0-0x2c8 (8)
0x2c0|04 b2 58 00                                    |..X.            |        occur: "1972-07-01T00:00:00Z" (78796800) 0x2c0-0x2c4 (4)
0x2c0|            00 00 00 01                        |    ....        |        corr: 1 0x2c4-0x2c8 (4)
     |                                               |                |      [1]{}: leap_second_record 0x2c8-0x2d0 (8)
0x2c0|                        05 a4 ec 01            |        ....    |        occur: "1973-01-01T00:00:01Z" (94694401) 0x2c8-0x2cc (4)
0x2c0|                                    00 00 00 02|            ....|        corr: 2 0x2cc-0x2d0 (4)
     |                                               |                |      [2]{}: leap_second_record 0x2d0-0x2d8 (8)
0x2d0|07 86 1f 82                                    |....            |        occur: "1974-01-01T00:00:02Z" (126230402) 0x2d0-0x2d4 (4)
0x2d0|            00 00 00 03                        |    ....        |        corr: 3 0x2d4-0x2d8 (4)
     |                                               |                |      [3]{}: leap_second_record 0x2d8-0x2e0 (8)
0x2d0|                        09 67 53 03            |        .gS.    |        occur: "1975-01-01T00:00:03Z" (157766403) 0x2d8-0x2dc (4)
0x2d0|                                    00 00 00 04|            ....|        corr: 4 0x2dc-0x2e0 (4)
     |                                               |                |      [4]{}: leap_second_record 0x2e0-0x2e8 (8)
0x2e0|0b 48 86 84                                    |.H..            |        occur: "1976-01-01T00:00:04Z" (189302404) 0x2e0-0x2e4 (4)
0x2e0|            00 00 00 05                        |    ....        |        corr: 5 0x2e4-0x2e8 (4)
     |                                               |                |      [5]{}: leap_second_record 0x2e8-0x2f0 (8)
0x2e0|                        0d 2b 0b 85            |        .+..    |        occur: "1977-01-01T00:00:05Z" (220924805) 0x2e8-0x2ec (4)
0x2e0|                                    00 00 00 06|            ....|        corr: 6 0x2ec-0x2f0 (4)
     |                                               |                |      [6]{}: leap_second_record 0x2f0-0x2f8 (8)
0x2f0|0f 0c 3f 06                                    |..?.            |        occur: "1978-01-01T00:00:06Z" (252460806) 0x2f0-0x2f4 (4)
0x2f0|            00 00 00 07                        |    ....        |        corr: 7 0x2f4-0x2f8 (4)
     |                                               |                |      [7]{}: leap_second_record 0x2f8-0x300 (8)
0x2f0|                        10 ed 72 87            |        ..r.    |        occur: "1979-01-01T00:00:07Z" (283996807) 0x2f8-0x2fc (4)
0x2f0|                                    00 00 00 08|            ....|        corr: 8 0x2fc-0x300 (4)
     |                                               |                |      [8]{}: leap_second_record 0x300-0x308 (8)
0x300|12 ce a6 08                                    |....            |        occur: "1980-01-01T00:00:08Z" (315532808) 0x300-0x304 (4)
0x300|            00 00 00 09                        |    ....        |        corr: 9 0x304-0x308 (4)
     |                                               |                |      [9]{}: leap_second_record 0x308-0x310 (8)
0x300|                        15 9f ca 89            |        ....    |        occur: "1981-07-01T00:00:09Z" (362793609) 0x308-0x30c (4)
0x300|                                    00 00 00 0a|            ....|        corr: 10 0x30c-0x310 (4)
     |                                               |                |      [10]{}: leap_second_record 0x310-0x318 (8)
0x310|17 80 fe 0a                                    |....            |        occur: "1982-07-01T00:00:10Z" (394329610) 0x310-0x314 (4)
0x310|            00 00 00 0b                        |    ....        |        corr: 11 0x314-0x318 (4)
     |                                               |                |      [11]{}: leap_second_record 0x318-0x320 (8)
0x310|                        19 62 31 8b            |        .b1.    |        occur: "1983-07-01T00:00:11Z" (425865611) 0x318-0x31c (4)
0x310|                                    00 00 00 0c|            ....|        corr: 12 0x31c-0x320 (4)
     |                                               |                |      [12]{}: leap_second_record 0x320-0x328 (8)
0x320|1d 25 ea 0c                                    |.%..            |        occur: "1985-07-01T00:00:12Z" (489024012) 0x320-0x324 (4)
0x320|            00 00 00 0d                        |    ....        |        corr: 13 0x324-0x328 (4)
     |                                               |                |      [13]{}: leap_second_record 0x328-0x330 (8)
0x320|                        21 da e5 0d            |        !...    |        occur: "1988-01-01T00:00:13Z" (567993613) 0x328-0x32c (4)
0x320|                                    00 00 00 0e|            ....|        corr: 14 0x32c-0x330 (4)
     |                                               |                |      [14]{}: leap_second_record 0x330-0x338 (8)
0x330|25 9e 9d 8e                                    |%...            |        occur: "1990-01-01T00:00:14Z" (631152014) 0x330-0x334 (4)
0x330|            00 00 00 0f                        |    ....        |        corr: 15 0x334-0x338 (4)
     |                                               |                |      [15]{}: leap_second_record 0x338-0x340 (8)
0x330|                        27 7f d1 0f            |        '...    |        occur: "1991-01-01T00:00:15Z" (662688015) 0x338-0x33c (4)
0x330|                                    00 00 00 10|            ....|        corr: 16 0x33c-0x340 (4)
     |                                               |                |      [16]{}: leap_second_record 0x340-0x348 (8)
0x340|2a 50 f5 90                                    |*P..            |        occur: "1992-07-01T00:00:16Z" (709948816) 0x340-0x344 (4)
0x340|            00 00 00 11                        |    ....        |        corr: 17 0x344-0x348 (4)
     |                                               |                |      [17]{}: leap_second_record 0x348-0x350 (8)
0x340|                        2c 32 29 11            |        ,2).    |        occur: "1993-07-01T00:00:17Z" (741484817) 0x348-0x34c (4)
0x340|                                    00 00 00 12|            ....|        corr: 18 0x34c-0x350 (4)
     |                                               |                |      [18]{}: leap_second_record 0x350-0x358 (8)
0x350|2e 13 5c 92                                    |..\.            |        occur: "1994-07-01T00:00:18Z" (773020818) 0x350-0x354 (4)
0x350|            00 00 00 13                        |    ....        |        corr: 19 0x354-0x358 (4)
     |                                               |                |      [19]{}: leap_second_record 0x358-0x360 (8)
0x350|                        30 e7 24 13            |        0.$.    |        occur: "1996-01-01T00:00:19Z" (820454419) 0x358-0x35c (4)
0x350|                                    00 00 00 14|            ....|        corr: 20 0x35c-0x360 (4)
     |                                               |                |      [20]{}: leap_second_record 0x360-0x368 (8)
0x360|33 b8 48 94                                    |3.H.            |        occur: "1997-07-01T00:00:20Z" (867715220) 0x360-0x364 (4)
0x360|            00 00 00 15                        |    ....        |        corr: 21 0x364-0x368 (4)
     |                                               |                |      [21]{}: leap_second_record 0x368-0x370 (8)
0x360|                        36 8c 10 15            |        6...    |        occur: "1999-01-01T00:00:21Z" (915148821) 0x368-0x36c (4)
0x360|                                    00 00 00 16|            ....|        corr: 22 0x36c-0x370 (4)
     |                                               |                |      [22]{}: leap_second_record 0x370-0x378 (8)
0x370|43 b7 1b 96                                    |C...            |        occur: "2006-01-01T00:00:22Z" (1136073622) 0x370-0x374 (4)
0x370|            00 00 00 17                        |    ....        |        corr: 23 0x374-0x378 (4)
     |                                               |                |      [23]{}: leap_second_record 0x378-0x380 (8)
0x370|                        49 5c 07 97            |        I\..    |        occur: "2009-01-01T00:00:23Z" (1230768023) 0x378-0x37c (4)
0x370|                                    00 00 00 18|            ....|        corr: 24 0x37c-0x380 (4)
     |                                               |                |      [24]{}: leap_second_record 0x380-0x388 (8)
0x380|4f ef 93 18                                    |O...            |        occur: "2012-07-01T00:00:24Z" (1341100824) 0x380-0x384 (4)
0x380|            00 00 00 19                        |    ....        |        corr: 25 0x384-0x388 (4)
     |                                               |                |      [25]{}: leap_second_record 0x388-0x390 (8)
0x380|                        55 93 2d 99            |        U.-.    |        occur: "2015-07-01T00:00:25Z" (1435708825) 0x388-0x38c (4)
0x380|                                    00 00 00 1a|            ....|        corr: 26 0x38c-0x390 (4)
     |                                               |                |      [26]{}: leap_second_record 0x390-0x398 (8)
0x390|58 68 46 9a                                    |XhF.            |        occur: "2017-01-01T00:00:26Z" (1483228826) 0x390-0x394 (4)
0x390|            00 00 00 1b                        |    ....        |        corr: 27 0x394-0x398 (4)
     |                                               |                |    standard_wall_indicators[0:5]: 0x398-0x39d (5)
0x390|                        00                     |        .       |      [0]: 0 standard_wall_indicator (valid) 0x398-0x399 (1)
0x390|                           00                  |         .      |      [1]: 0 standard_wall_indicator (valid) 0x399-0x39a (1)
0x390|                              00               |          .     |      [2]: 0 standard_wall_indicator (valid) 0x39a-0x39b (1)
0x390|                                 00            |           .    |      [3]: 0 standard_wall_indicator (valid) 0x39b-0x39c (1)
0x390|                                    01         |            .   |      [4]: 1 standard_wall_indicator (valid) 0x39c-0x39d (1)
     |                                               |                |    ut_local_indicators[0:5]: 0x39d-0x3a2 (5)
0x390|                                       00      |             .  |      [0]: 0 ut_local_indicator (valid) 0x39d-0x39e (1)
0x390|                                          00   |              . |      [1]: 0 ut_local_indicator (valid) 0x39e-0x39f (1)
0x390|                                             00|               .|      [2]: 0 ut_local_indicator (valid) 0x39f-0x3a0 (1)
0x3a0|00                                             |.               |      [3]: 0 ut_local_indicator (valid) 0x3a0-0x3a1 (1)
0x3a0|   01                                          | .              |      [4]: 1 ut_local_indicator (valid) 0x3a1-0x3a2 (1)
     |                                               |                |  v2plusheader{}: 0x3a2-0x3ce (44)
0x3a0|      54 5a 69 66                              |  TZif          |    magic: 0x545a6966 (valid) 0x3a2-0x3a6 (4)
0x3a0|                  32                           |      2         |    ver: "2" (0x32) (valid) 0x3a6-0x3a7 (1)
0x3a0|                     00 00 00 00 00 00 00 00 00|       .........|    reserved: raw bits 0x3a7-0x3b6 (15)
0x3b0|00 00 00 00 00 00                              |......          |
0x3b0|                  00 00 00 05                  |      ....      |    isutcnt: 5 0x3b6-0x3ba (4)
0x3b0|                              00 00 00 05      |          ....  |    isstdcnt: 5 0x3ba-0x3be (4)
0x3b0|                                          00 00|              ..|    leapcnt: 27 0x3be-0x3c2 (4)
0x3c0|00 1b                                          |..              |
0x3c0|      00 00 00 7a                              |  ...z          |    timecnt: 122 0x3c2-0x3c6 (4)
0x3c0|                  00 00 00 05                  |      ....      |    typecnt: 5 0x3c6-0x3ca (4)
0x3c0|                              00 00 00 14      |          ....  |    charcnt: 20 0x3ca-0x3ce (4)
     |                                               |                |  v2plusdatablock{}: 0x3ce-0x998 (1482)
     |                                               |                |    transition_times[0:122]: 0x3ce-0x79e (976)
0x3c0|                                          ff ff|              ..|      [0]: "1906-09-01T07:33:52Z" (-1998663968) transition_time 0x3ce-0x3d6 (8)
0x3d0|ff ff 88 de ce e0                              |......          |
0x3d0|                  ff ff ff ff 9e b8 af 90      |      ........  |      [1]: "1918-04-14T09:00:00Z" (-1632063600) transition_time 0x3d6-0x3de (8)
0x3d0|                                          ff ff|              ..|      [2]: "1918-10-27T08:00:00Z" (-1615132800) transition_time 0x3de-0x3e6 (8)
0x3e0|ff ff 9f bb 07 80                              |......          |
0x3e0|                  ff ff ff ff a0 98 91 90      |      ........  |      [3]: "1919-04-13T09:00:00Z" (-1600614000) transition_time 0x3e6-0x3ee (8)
0x3e0|                                          ff ff|              ..|      [4]: "1919-05-27T08:00:00Z" (-1596816000) transition_time 0x3ee-0x3f6 (8)
0x3f0|ff ff a0 d2 85 80                              |......          |
0x3f0|                  ff ff ff ff a2 8a e8 90      |      ........  |      [5]: "1920-04-25T09:00:00Z" (-1567954800) transition_time 0x3f6-0x3fe (8)
0x3f0|                                          ff ff|              ..|      [6]: "1920-10-31T08:00:00Z" (-1551628800) transition_time 0x3fe-0x406 (8)
0x400|ff ff a3 84 06 00                              |......          |
0x400|                  ff ff ff ff a4 6a ca 90      |      .....j..  |      [7]: "1921-04-24T09:00:00Z" (-1536505200) transition_time 0x406-0x40e (8)
0x400|                                          ff ff|              ..|      [8]: "1921-09-25T08:00:00Z" (-1523203200) transition_time 0x40e-0x416 (8)
0x410|ff ff a5 35 c3 80                              |...5..          |
0x410|                  ff ff ff ff a6 53 e7 10      |      .....S..  |      [9]: "1922-04-30T09:00:00Z" (-1504450800) transition_time 0x416-0x41e (8)
0x410|                                          ff ff|              ..|      [10]: "1922-09-24T08:00:00Z" (-1491753600) transition_time 0x41e-0x426 (8)
0x420|ff ff a7 15 a5 80                              |......          |
0x420|                  ff ff ff ff a8 33 c9 10      |      .....3..  |      [11]: "1923-04-29T09:00:00Z" (-1473001200) transition_time 0x426-0x42e (8)
0x420|                                          ff ff|              ..|      [12]: "1923-09-30T08:00:00Z" (-1459699200) transition_time 0x42e-0x436 (8)
0x430|ff ff a8 fe c2 00                              |......          |
0x430|                  ff ff ff ff cb 89 0c 90      |      ........  |      [13]: "1942-02-09T09:00:00Z" (-880210800) transition_time 0x436-0x43e (8)
0x430|                                          ff ff|              ..|      [14]: "1945-08-14T23:00:00Z" (-769395600) transition_time 0x43e-0x446 (8)
0x440|ff ff d2 23 f4 70                              |...#.p          |
0x440|                  ff ff ff ff d2 61 18 00      |      .....a..  |      [15]: "1945-09-30T08:00:00Z" (-765388800) transition_time 0x446-0x44e (8)
0x440|                                          ff ff|              ..|      [16]: "1947-04-27T09:00:00Z" (-715791600) transition_time 0x44e-0x456 (8)
0x450|ff ff d5 55 e3 10                              |...U..          |
0x450|                  ff ff ff ff d6 20 dc 00      |      ..... ..  |      [17]: "1947-09-28T08:00:00Z" (-702489600) transition_time 0x456-0x45e (8)
0x450|                                          00 00|              ..|      [18]: "1972-04-30T09:00:00Z" (73472400) transition_time 0x45e-0x466 (8)
0x460|00 00 04 61 19 90                              |...a..          |
0x460|                  00 00 00 00 05 50 fc 81      |      .....P..  |      [19]: "1972-10-29T08:00:01Z" (89193601) transition_time 0x466-0x46e (8)
0x460|                                          00 00|              ..|      [20]: "1973-04-29T09:00:02Z" (104922002) transition_time 0x46e-0x476 (8)
0x470|00 00 06 40 fb 92                              |...@..          |
0x470|                  00 00 00 00 07 30 de 82      |      .....0..  |      [21]: "1973-10-28T08:00:02Z" (120643202) transition_time 0x476-0x47e (8)
0x470|                                          00 00|              ..|      [22]: "1974-04-28T09:00:03Z" (136371603) transition_time 0x47e-0x486 (8)
0x480|00 00 08 20 dd 93                              |... ..          |
0x480|                  00 00 00 00 09 10 c0 83      |      ........  |      [23]: "1974-10-27T08:00:03Z" (152092803) transition_time 0x486-0x48e (8)
0x480|                                          00 00|              ..|      [24]: "1975-04-27T09:00:04Z" (167821204) transition_time 0x48e-0x496 (8)
0x490|00 00 0a 00 bf 94                              |......          |
0x490|                  00 00 00 00 0a f0 a2 84      |      ........  |      [25]: "1975-10-26T08:00:04Z" (183542404) transition_time 0x496-0x49e (8)
0x490|                                          00 00|              ..|      [26]: "1976-04-25T09:00:05Z" (199270805) transition_time 0x49e-0x4a6 (8)
0x4a0|00 00 0b e0 a1 95                              |......          |
0x4a0|                  00 00 00 00 0c d9 bf 05      |      ........  |      [27]: "1976-10-31T08:00:05Z" (215596805) transition_time 0x4a6-0x4ae (8)
0x4a0|                                          00 00|              ..|      [28]: "1977-04-24T09:00:06Z" (230720406) transition_time 0x4ae-0x4b6 (8)
0x4b0|00 00 0d c0 83 96                              |......          |
0x4b0|                  00 00 00 00 0e b9 a1 06      |      ........  |      [29]: "1977-10-30T08:00:06Z" (247046406) transition_time 0x4b6-0x4be (8)
0x4b0|                                          00 00|              ..|      [30]: "1978-04-30T09:00:07Z" (262774807) transition_time 0x4be-0x4c6 (8)
0x4c0|00 00 0f a9 a0 17                              |......          |
0x4c0|                  00 00 00 00 10 99 83 07      |      ........  |      [31]: "1978-10-29T08:00:07Z" (278496007) transition_time 0x4c6-0x4ce (8)
0x4c0|                                          00 00|              ..|      [32]: "1979-04-29T09:00:08Z" (294224408) transition_time 0x4ce-0x4d6 (8)
0x4d0|00 00 11 89 82 18                              |......          |
0x4d0|                  00 00 00 00 12 79 65 08      |      .....ye.  |      [33]: "1979-10-28T08:00:08Z" (309945608) transition_time 0x4d6-0x4de (8)
0x4d0|                                          00 00|              ..|      [34]: "1980-04-27T09:00:09Z" (325674009) transition_time 0x4de-0x4e6 (8)
0x4e0|00 00 13 69 64 19                              |...id.          |
0x4e0|                  00 00 00 00 14 59 47 09      |      .....YG.  |      [35]: "1980-10-26T08:00:09Z" (341395209) transition_time 0x4e6-0x4ee (8)
0x4e0|                                          00 00|              ..|      [36]: "1981-04-26T09:00:09Z" (357123609) transition_time 0x4ee-0x4f6 (8)
0x4f0|00 00 15 49 46 19                              |...IF.          |
0x4f0|                  00 00 00 00 16 39 29 0a      |      .....9).  |      [37]: "1981-10-25T08:00:10Z" (372844810) transition_time 0x4f6-0x4fe (8)
0x4f0|                                          00 00|              ..|      [38]: "1982-04-25T09:00:10Z" (388573210) transition_time 0x4fe-0x506 (8)
0x500|00 00 17 29 28 1a                              |...)(.          |
0x500|                  00 00 00 00 18 22 45 8b      |      ....."E.  |      [39]: "1982-10-31T08:00:11Z" (404899211) transition_time 0x506-0x50e (8)
0x500|                                          00 00|              ..|      [40]: "1983-04-24T09:00:11Z" (420022811) transition_time 0x50e-0x516 (8)
0x510|00 00 19 09 0a 1b                              |......          |
0x510|                  00 00 00 00 1a 02 27 8c      |      ......'.  |      [41]: "1983-10-30T08:00:12Z" (436348812) transition_time 0x516-0x51e (8)
0x510|                                          00 00|              ..|      [42]: "1984-04-29T09:00:12Z" (452077212) transition_time 0x51e-0x526 (8)
0x520|00 00 1a f2 26 9c                              |....&.          |
0x520|                  00 00 00 00 1b e2 09 8c      |      ........  |      [43]: "1984-10-28T08:00:12Z" (467798412) transition_time 0x526-0x52e (8)
0x520|                                          00 00|              ..|      [44]: "1985-04-28T09:00:12Z" (483526812) transition_time 0x52e-0x536 (8)
0x530|00 00 1c d2 08 9c                              |......          |
0x530|                  00 00 00 00 1d c1 eb 8d      |      ........  |      [45]: "1985-10-27T08:00:13Z" (499248013) transition_time 0x536-0x53e (8)
0x530|                                          00 00|              ..|      [46]: "1986-04-27T09:00:13Z" (514976413) transition_time 0x53e-0x546 (8)
0x540|00 00 1e b1 ea 9d                              |......          |
0x540|                  00 00 00 00 1f a1 cd 8d      |      ........  |      [47]: "1986-10-26T08:00:13Z" (530697613) transition_time 0x546-0x54e (8)
0x540|                                          00 00|              ..|      [48]: "1987-04-05T09:00:13Z" (544611613) transition_time 0x54e-0x556 (8)
0x550|00 00 20 76 1d 1d                              |.. v..          |
0x550|                  00 00 00 00 21 81 af 8d      |      ....!...  |      [49]: "1987-10-25T08:00:13Z" (562147213) transition_time 0x556-0x55e (8)
0x550|                                          00 00|              ..|      [50]: "1988-04-03T09:00:14Z" (576061214) transition_time 0x55e-0x566 (8)
0x560|00 00 22 55 ff 1e                              |.."U..          |
0x560|                  00 00 00 00 23 6a cc 0e      |      ....#j..  |      [51]: "1988-10-30T08:00:14Z" (594201614) transition_time 0x566-0x56e (8)
0x560|                                          00 00|              ..|      [52]: "1989-04-02T09:00:14Z" (607510814) transition_time 0x56e-0x576 (8)
0x570|00 00 24 35 e1 1e                              |..$5..          |
0x570|                  00 00 00 00 25 4a ae 0e      |      ....%J..  |      [53]: "1989-10-29T08:00:14Z" (625651214) transition_time 0x576-0x57e (8)
0x570|                                          00 00|              ..|      [54]: "1990-04-01T09:00:15Z" (638960415) transition_time 0x57e-0x586 (8)
0x580|00 00 26 15 c3 1f                              |..&...          |
0x580|                  00 00 00 00 27 2a 90 0f      |      ....'*..  |      [55]: "1990-10-28T08:00:15Z" (657100815) transition_time 0x586-0x58e (8)
0x580|                                          00 00|              ..|      [56]: "1991-04-07T09:00:16Z" (671014816) transition_time 0x58e-0x596 (8)
0x590|00 00 27 fe df a0                              |..'...          |
0x590|                  00 00 00 00 29 0a 72 10      |      ....).r.  |      [57]: "1991-10-27T08:00:16Z" (688550416) transition_time 0x596-0x59e (8)
0x590|                                          00 00|              ..|      [58]: "1992-04-05T09:00:16Z" (702464416) transition_time 0x59e-0x5a6 (8)
0x5a0|00 00 29 de c1 a0                              |..)...          |
0x5a0|                  00 00 00 00 2a ea 54 11      |      ....*.T.  |      [59]: "1992-10-25T08:00:17Z" (720000017) transition_time 0x5a6-0x5ae (8)
0x5a0|                                          00 00|              ..|      [60]: "1993-04-04T09:00:17Z" (733914017) transition_time 0x5ae-0x5b6 (8)
0x5b0|00 00 2b be a3 a1                              |..+...          |
0x5b0|                  00 00 00 00 2c d3 70 92      |      ....,.p.  |      [61]: "1993-10-31T08:00:18Z" (752054418) transition_time 0x5b6-0x5be (8)
0x5b0|                                          00 00|              ..|      [62]: "1994-04-03T09:00:18Z" (765363618) transition_time 0x5be-0x5c6 (8)
0x5c0|00 00 2d 9e 85 a2                              |..-...          |
0x5c0|                  00 00 00 00 2e b3 52 93      |      ......R.  |      [63]: "1994-10-30T08:00:19Z" (783504019) transition_time 0x5c6-0x5ce (8)
0x5c0|                                          00 00|              ..|      [64]: "1995-04-02T09:00:19Z" (796813219) transition_time 0x5ce-0x5d6 (8)
0x5d0|00 00 2f 7e 67 a3                              |../~g.          |
0x5d0|                  00 00 00 00 30 93 34 93      |      ....0.4.  |      [65]: "1995-10-29T08:00:19Z" (814953619) transition_time 0x5d6-0x5de (8)
0x5d0|                                          00 00|              ..|      [66]: "1996-04-07T09:00:20Z" (828867620) transition_time 0x5de-0x5e6 (8)
0x5e0|00 00 31 67 84 24                              |..1g.$          |
0x5e0|                  00 00 00 00 32 73 16 94      |      ....2s..  |      [67]: "1996-10-27T08:00:20Z" (846403220) transition_time 0x5e6-0x5ee (8)
0x5e0|                                          00 00|              ..|      [68]: "1997-04-06T09:00:20Z" (860317220) transition_time 0x5ee-0x5f6 (8)
0x5f0|00 00 33 47 66 24                              |..3Gf$          |
0x5f0|                  00 00 00 00 34 52 f8 95      |      ....4R..  |      [69]: "1997-10-26T08:00:21Z" (877852821) transition_time 0x5f6-0x5fe (8)
0x5f0|                                          00 00|              ..|      [70]: "1998-04-05T09:00:21Z" (891766821) transition_time 0x5fe-0x606 (8)
0x600|00 00 35 27 48 25                              |..5'H%          |
0x600|                  00 00 00 00 36 32 da 95      |      ....62..  |      [71]: "1998-10-25T08:00:21Z" (909302421) transition_time 0x606-0x60e (8)
0x600|                                          00 00|              ..|      [72]: "1999-04-04T09:00:22Z" (923216422) transition_time 0x60e-0x616 (8)
0x610|00 00 37 07 2a 26                              |..7.*&          |
0x610|                  00 00 00 00 38 1b f7 16      |      ....8...  |      [73]: "1999-10-31T08:00:22Z" (941356822) transition_time 0x616-0x61e (8)
0x610|                                          00 00|              ..|      [74]: "2000-04-02T09:00:22Z" (954666022) transition_time 0x61e-0x626 (8)
0x620|00 00 38 e7 0c 26                              |..8..&          |
0x620|                  00 00 00 00 39 fb d9 16      |      ....9...  |      [75]: "2000-10-29T08:00:22Z" (972806422) transition_time 0x626-0x62e (8)
0x620|                                          00 00|              ..|      [76]: "2001-04-01T09:00:22Z" (986115622) transition_time 0x62e-0x636 (8)
0x630|00 00 3a c6 ee 26                              |..:..&          |
0x630|                  00 00 00 00 3b db bb 16      |      ....;...  |      [77]: "2001-10-28T08:00:22Z" (1004256022) transition_time 0x636-0x63e (8)
0x630|                                          00 00|              ..|      [78]: "2002-04-07T09:00:22Z" (1018170022) transition_time 0x63e-0x646 (8)
0x640|00 00 3c b0 0a a6                              |..<...          |
0x640|                  00 00 00 00 3d bb 9d 16      |      ....=...  |      [79]: "2002-10-27T08:00:22Z" (1035705622) transition_time 0x646-0x64e (8)
0x640|                                          00 00|              ..|      [80]: "2003-04-06T09:00:22Z" (1049619622) transition_time 0x64e-0x656 (8)
0x650|00 00 3e 8f ec a6                              |..>...          |
0x650|                  00 00 00 00 3f 9b 7f 16      |      ....?...  |      [81]: "2003-10-26T08:00:22Z" (1067155222) transition_time 0x656-0x65e (8)
0x650|                                          00 00|              ..|      [82]: "2004-04-04T09:00:22Z" (1081069222) transition_time 0x65e-0x666 (8)
0x660|00 00 40 6f ce a6                              |..@o..          |
0x660|                  00 00 00 00 41 84 9b 96      |      ....A...  |      [83]: "2004-10-31T08:00:22Z" (1099209622) transition_time 0x666-0x66e (8)
0x660|                                          00 00|              ..|      [84]: "2005-04-03T09:00:22Z" (1112518822) transition_time 0x66e-0x676 (8)
0x670|00 00 42 4f b0 a6                              |..BO..          |
0x670|                  00 00 00 00 43 64 7d 96      |      ....Cd}.  |      [85]: "2005-10-30T08:00:22Z" (1130659222) transition_time 0x676-0x67e (8)
0x670|                                          00 00|              ..|      [86]: "2006-04-02T09:00:23Z" (1143968423) transition_time 0x67e-0x686 (8)
0x680|00 00 44 2f 92 a7                              |..D/..          |
0x680|                  00 00 00 00 45 44 5f 97      |      ....ED_.  |      [87]: "2006-10-29T08:00:23Z" (1162108823) transition_time 0x686-0x68e (8)
0x680|                                          00 00|              ..|      [88]: "2007-03-11T09:00:23Z" (1173603623) transition_time 0x68e-0x696 (8)
0x690|00 00 45 f3 c5 27                              |..E..'          |
0x690|                  00 00 00 00 47 2d 7c 17      |      ....G-|.  |      [89]: "2007-11-04T08:00:23Z" (1194163223) transition_time 0x696-0x69e (8)
0x690|                                          00 00|              ..|      [90]: "2008-03-09T09:00:23Z" (1205053223) transition_time 0x69e-0x6a6 (8)
0x6a0|00 00 47 d3 a7 27                              |..G..'          |
0x6a0|                  00 00 00 00 49 0d 5e 17      |      ....I.^.  |      [91]: "2008-11-02T08:00:23Z" (1225612823) transition_time 0x6a6-0x6ae (8)
0x6a0|                                          00 00|              ..|      [92]: "2009-03-08T09:00:24Z" (1236502824) transition_time 0x6ae-0x6b6 (8)
0x6b0|00 00 49 b3 89 28                              |..I..(          |
0x6b0|                  00 00 00 00 4a ed 40 18      |      ....J.@.  |      [93]: "2009-11-01T08:00:24Z" (1257062424) transition_time 0x6b6-0x6be (8)
0x6b0|                                          00 00|              ..|      [94]: "2010-03-14T09:00:24Z" (1268557224) transition_time 0x6be-0x6c6 (8)
0x6c0|00 00 4b 9c a5 a8                              |..K...          |
0x6c0|                  00 00 00 00 4c d6 5c 98      |      ....L.\.  |      [95]: "2010-11-07T08:00:24Z" (1289116824) transition_time 0x6c6-0x6ce (8)
0x6c0|                                          00 00|              ..|      [96]: "2011-03-13T09:00:24Z" (1300006824) transition_time 0x6ce-0x6d6 (8)
0x6d0|00 00 4d 7c 87 a8                              |..M|..          |
0x6d0|                  00 00 00 00 4e b6 3e 98      |      ....N.>.  |      [97]: "2011-11-06T08:00:24Z" (1320566424) transition_time 0x6d6-0x6de (8)
0x6d0|                                          00 00|              ..|      [98]: "2012-03-11T09:00:24Z" (1331456424) transition_time 0x6de-0x6e6 (8)
0x6e0|00 00 4f 5c 69 a8                              |..O\i.          |
0x6e0|                  00 00 00 00 50 96 20 99      |      ....P. .  |      [99]: "2012-11-04T08:00:25Z" (1352016025) transition_time 0x6e6-0x6ee (8)
0x6e0|                                          00 00|              ..|      [100]: "2013-03-10T09:00:25Z" (1362906025) transition_time 0x6ee-0x6f6 (8)
0x6f0|00 00 51 3c 4b a9                              |..Q<K.          |
0x6f0|                  00 00 00 00 52 76 02 99      |      ....Rv..  |      [101]: "2013-11-03T08:00:25Z" (1383465625) transition_time 0x6f6-0x6fe (8)
0x6f0|                                          00 00|              ..|      [102]: "2014-03-09T09:00:25Z" (1394355625) transition_time 0x6fe-0x706 (8)
0x700|00 00 53 1c 2d a9                              |..S.-.          |
0x700|                  00 00 00 00 54 55 e4 99      |      ....TU..  |      [103]: "2014-11-02T08:00:25Z" (1414915225) transition_time 0x706-0x70e (8)
0x700|                                          00 00|              ..|      [104]: "2015-03-08T09:00:25Z" (1425805225) transition_time 0x70e-0x716 (8)
0x710|00 00 54 fc 0f a9                              |..T...          |
0x710|                  00 00 00 00 56 35 c6 9a      |      ....V5..  |      [105]: "2015-11-01T08:00:26Z" (1446364826) transition_time 0x716-0x71e (8)
0x710|                                          00 00|              ..|      [106]: "2016-03-13T09:00:26Z" (1457859626) transition_time 0x71e-0x726 (8)
0x720|00 00 56 e5 2c 2a                              |..V.,*          |
0x720|                  00 00 00 00 58 1e e3 1a      |      ....X...  |      [107]: "2016-11-06T08:00:26Z" (1478419226) transition_time 0x726-0x72e (8)
0x720|                                          00 00|              ..|      [108]: "2017-03-12T09:00:27Z" (1489309227) transition_time 0x72e-0x736 (8)
0x730|00 00 58 c5 0e 2b                              |..X..+          |
0x730|                  00 00 00 00 59 fe c5 1b      |      ....Y...  |      [109]: "2017-11-05T08:00:27Z" (1509868827) transition_time 0x736-0x73e (8)
0x730|                                          00 00|              ..|      [110]: "2018-03-11T09:00:27Z" (1520758827) transition_time 0x73e-0x746 (8)
0x740|00 00 5a a4 f0 2b                              |..Z..+          |
0x740|                  00 00 00 00 5b de a7 1b      |      ....[...  |      [111]: "2018-11-04T08:00:27Z" (1541318427) transition_time 0x746-0x74e (8)
0x740|                                          00 00|              ..|      [112]: "2019-03-10T09:00:27Z" (1552208427) transition_time 0x74e-0x756 (8)
0x750|00 00 5c 84 d2 2b                              |..\..+          |
0x750|                  00 00 00 00 5d be 89 1b      |      ....]...  |      [113]: "2019-11-03T08:00:27Z" (1572768027) transition_time 0x756-0x75e (8)
0x750|                                          00 00|              ..|      [114]: "2020-03-08T09:00:27Z" (1583658027) transition_time 0x75e-0x766 (8)
0x760|00 00 5e 64 b4 2b                              |..^d.+          |
0x760|                  00 00 00 00 5f 9e 6b 1b      |      ...._.k.  |      [115]: "2020-11-01T08:00:27Z" (1604217627) transition_time 0x766-0x76e (8)
0x760|                                          00 00|              ..|      [116]: "2021-03-14T09:00:27Z" (1615712427) transition_time 0x76e-0x776 (8)
0x770|00 00 60 4d d0 ab                              |..`M..          |
0x770|                  00 00 00 00 61 87 87 9b      |      ....a...  |      [117]: "2021-11-07T08:00:27Z" (1636272027) transition_time 0x776-0x77e (8)
0x770|                                          00 00|              ..|      [118]: "2022-03-13T09:00:27Z" (1647162027) transition_time 0x77e-0x786 (8)
0x780|00 00 62 2d b2 ab                              |..b-..          |
0x780|                  00 00 00 00 63 67 69 9b      |      ....cgi.  |      [119]: "2022-11-06T08:00:27Z" (1667721627) transition_time 0x786-0x78e (8)
0x780|                                          00 00|              ..|      [120]: "2023-03-12T09:00:27Z" (1678611627) transition_time 0x78e-0x796 (8)
0x790|00 00 64 0d 94 ab                              |..d...          |
0x790|                  00 00 00 00 64 9b 78 1b      |      ....d.x.  |      [121]: "2023-06-28T00:00:27Z" (1687910427) transition_time 0x796-0x79e (8)
     |                                               |                |    transition_types[0:122]: 0x79e-0x818 (122)
0x790|                                          02   |              . |      [0]: 2 transition_type 0x79e-0x79f (1)
0x790|                                             01|               .|      [1]: 1 transition_type 0x79f-0x7a0 (1)
0x7a0|02                                             |.               |      [2]: 2 transition_type 0x7a0-0x7a1 (1)
0x7a0|   01                                          | .              |      [3]: 1 transition_type 0x7a1-0x7a2 (1)
0x7a0|      02                                       |  .             |      [4]: 2 transition_type 0x7a2-0x7a3 (1)
0x7a0|         01                                    |   .            |      [5]: 1 transition_type 0x7a3-0x7a4 (1)
0x7a0|            02                                 |    .           |      [6]: 2 transition_type 0x7a4-0x7a5 (1)
0x7a0|               01                              |     .          |      [7]: 1 transition_type 0x7a5-0x7a6 (1)
0x7a0|                  02                           |      .         |      [8]: 2 transition_type 0x7a6-0x7a7 (1)
0x7a0|                     01                        |       .        |      [9]: 1 transition_type 0x7a7-0x7a8 (1)
0x7a0|                        02                     |        .       |      [10]: 2 transition_type 0x7a8-0x7a9 (1)
0x7a0|                           01                  |         .      |      [11]: 1 transition_type 0x7a9-0x7aa (1)
0x7a0|                              02               |          .     |      [12]: 2 transition_type 0x7aa-0x7ab (1)
0x7a0|                                 03            |           .    |      [13]: 3 transition_type 0x7ab-0x7ac (1)
0x7a0|                                    04         |            .   |      [14]: 4 transition_type 0x7ac-0x7ad (1)
0x7a0|                                       02      |             .  |      [15]: 2 transition_type 0x7ad-0x7ae (1)
0x7a0|                                          01   |              . |      [16]: 1 transition_type 0x7ae-0x7af (1)
0x7a0|                                             02|               .|      [17]: 2 transition_type 0x7af-0x7b0 (1)
0x7b0|01                                             |.               |      [18]: 1 transition_type 0x7b0-0x7b1 (1)
0x7b0|   02                                          | .              |      [19]: 2 transition_type 0x7b1-0x7b2 (1)
0x7b0|      01                                       |  .             |      [20]: 1 transition_type 0x7b2-0x7b3 (1)
0x7b0|         02                                    |   .            |      [21]: 2 transition_type 0x7b3-0x7b4 (1)
0x7b0|            01                                 |    .           |      [22]: 1 transition_type 0x7b4-0x7b5 (1)
0x7b0|               02                              |     .          |      [23]: 2 transition_type 0x7b5-0x7b6 (1)
0x7b0|                  01                           |      .         |      [24]: 1 transition_type 0x7b6-0x7b7 (1)
0x7b0|                     02                        |       .        |      [25]: 2 transition_type 0x7b7-0x7b8 (1)
0x7b0|                        01                     |        .       |      [26]: 1 transition_type 0x7b8-0x7b9 (1)
0x7b0|                           02                  |         .      |      [27]: 2 transition_type 0x7b9-0x7ba (1)
0x7b0|                              01               |          .     |      [28]: 1 transition_type 0x7ba-0x7bb (1)
0x7b0|                                 02            |           .    |      [29]: 2 transition_type 0x7bb-0x7bc (1)
0x7b0|                                    01         |            .   |      [30]: 1 transition_type 0x7bc-0x7bd (1)
0x7b0|                                       02      |             .  |      [31]: 2 transition_type 0x7bd-0x7be (1)
0x7b0|                                          01   |              . |      [32]: 1 transition_type 0x7be-0x7bf (1)
0x7b0|                                             02|               .|      [33]: 2 transition_type 0x7bf-0x7c0 (1)
0x7c0|01                                             |.               |      [34]: 1 transition_type 0x7c0-0x7c1 (1)
0x7c0|   02                                          | .              |      [35]: 2 transition_type 0x7c1-0x7c2 (1)
0x7c0|      01                                       |  .             |      [36]: 1 transition_type 0x7c2-0x7c3 (1)
0x7c0|         02                                    |   .            |      [37]: 2 transition_type 0x7c3-0x7c4 (1)
0x7c0|            01                                 |    .           |      [38]: 1 transition_type 0x7c4-0x7c5 (1)
0x7c0|               02                              |     .          |      [39]: 2 transition_type 0x7c5-0x7c6 (1)
0x7c0|                  01                           |      .         |      [40]: 1 transition_type 0x7c6-0x7c7 (1)
0x7c0|                     02                        |       .        |      [41]: 2 transition_type 0x7c7-0x7c8 (1)
0x7c0|                        01                     |        .       |      [42]: 1 transition_type 0x7c8-0x7c9 (1)
0x7c0|                           02                  |         .      |      [43]: 2 transition_type 0x7c9-0x7ca (1)
0x7c0|                              01               |          .     |      [44]: 1 transition_type 0x7ca-0x7cb (1)
0x7c0|                                 02            |           .    |      [45]: 2 transition_type 0x7cb-0x7cc (1)
0x7c0|                                    01         |            .   |      [46]: 1 transition_type 0x7cc-0x7cd (1)
0x7c0|                                       02      |             .  |      [47]: 2 transition_type 0x7cd-0x7ce (1)
0x7c0|                                          01   |              . |      [48]: 1 transition_type 0x7ce-0x7cf (1)
0x7c0|                                             02|               .|      [49]: 2 transition_type 0x7cf-0x7d0 (1)
0x7d0|01                                             |.               |      [50]: 1 transition_type 0x7d0-0x7d1 (1)
0x7d0|   02                                          | .              |      [51]: 2 transition_type 0x7d1-0x7d2 (1)
0x7d0|      01                                       |  .             |      [52]: 1 transition_type 0x7d2-0x7d3 (1)
0x7d0|         02                                    |   .            |      [53]: 2 transition_type 0x7d3-0x7d4 (1)
0x7d0|            01                                 |    .           |      [54]: 1 transition_type 0x7d4-0x7d5 (1)
0x7d0|               02                              |     .          |      [55]: 2 transition_type 0x7d5-0x7d6 (1)
0x7d0|                  01                           |      .         |      [56]: 1 transition_type 0x7d6-0x7d7 (1)
0x7d0|                     02                        |       .        |      [57]: 2 transition_type 0x7d7-0x7d8 (1)
0x7d0|                        01                     |        .       |      [58]: 1 transition_type 0x7d8-0x7d9 (1)
0x7d0|                           02                  |         .      |      [59]: 2 transition_type 0x7d9-0x7da (1)
0x7d0|                              01               |          .     |      [60]: 1 transition_type 0x7da-0x7db (1)
0x7d0|                                 02            |           .    |      [61]: 2 transition_type 0x7db-0x7dc (1)
0x7d0|                                    01         |            .   |      [62]: 1 transition_type 0x7dc-0x7dd (1)
0x7d0|                                       02      |             .  |      [63]: 2 transition_type 0x7dd-0x7de (1)
0x7d0|                                          01   |              . |      [64]: 1 transition_type 0x7de-0x7df (1)
0x7d0|                                             02|               .|      [65]: 2 transition_type 0x7df-0x7e0 (1)
0x7e0|01                                             |.               |      [66]: 1 transition_type 0x7e0-0x7e1 (1)
0x7e0|   02                                          | .              |      [67]: 2 transition_type 0x7e1-0x7e2 (1)
0x7e0|      01                                       |  .             |      [68]: 1 transition_type 0x7e2-0x7e3 (1)
0x7e0|         02                                    |   .            |      [69]: 2 transition_type 0x7e3-0x7e4 (1)
0x7e0|            01                                 |    .           |      [70]: 1 transition_type 0x7e4-0x7e5 (1)
0x7e0|               02                              |     .          |      [71]: 2 transition_type 0x7e5-0x7e6 (1)
0x7e0|                  01                           |      .         |      [72]: 1 transition_type 0x7e6-0x7e7 (1)
0x7e0|                     02                        |       .        |      [73]: 2 transition_type 0x7e7-0x7e8 (1)
0x7e0|                        01                     |        .       |      [74]: 1 transition_type 0x7e8-0x7e9 (1)
0x7e0|                           02                  |         .      |      [75]: 2 transition_type 0x7e9-0x7ea (1)
0x7e0|                              01               |          .     |      [76]: 1 transition_type 0x7ea-0x7eb (1)
0x7e0|                                 02            |           .    |      [77]: 2 transition_type 0x7eb-0x7ec (1)
0x7e0|                                    01         |            .   |      [78]: 1 transition_type 0x7ec-0x7ed (1)
0x7e0|                                       02      |             .  |      [79]: 2 transition_type 0x7ed-0x7ee (1)
0x7e0|                                          01   |              . |      [80]: 1 transition_type 0x7ee-0x7ef (1)
0x7e0|                                             02|               .|      [81]: 2 transition_type 0x7ef-0x7f0 (1)
0x7f0|01                                             |.               |      [82]: 1 transition_type 0x7f0-0x7f1 (1)
0x7f0|   02                                          | .              |      [83]: 2 transition_type 0x7f1-0x7f2 (1)
0x7f0|      01                                       |  .             |      [84]: 1 transition_type 0x7f2-0x7f3 (1)
0x7f0|         02                                    |   .            |      [85]: 2 transition_type 0x7f3-0x7f4 (1)
0x7f0|            01                                 |    .           |      [86]: 1 transition_type 0x7f4-0x7f5 (1)
0x7f0|               02                              |     .          |      [87]: 2 transition_type 0x7f5-0x7f6 (1)
0x7f0|                  01                           |      .         |      [88]: 1 transition_type 0x7f6-0x7f7 (1)
0x7f0|                     02                        |       .        |      [89]: 2 transition_type 0x7f7-0x7f8 (1)
0x7f0|                        01                     |        .       |      [90]: 1 transition_type 0x7f8-0x7f9 (1)
0x7f0|                           02                  |         .      |      [91]: 2 transition_type 0x7f9-0x7fa (1)
0x7f0|                              01               |          .     |      [92]: 1 transition_type 0x7fa-0x7fb (1)
0x7f0|                                 02            |           .    |      [93]: 2 transition_type 0x7fb-0x7fc (1)
0x7f0|                                    01         |            .   |      [94]: 1 transition_type 0x7fc-0x7fd (1)
0x7f0|                                       02      |             .  |      [95]: 2 transition_type 0x7fd-0x7fe (1)
0x7f0|                                          01   |              . |      [96]: 1 transition_type 0x7fe-0x7ff (1)
0x7f0|                                             02|               .|      [97]: 2 transition_type 0x7ff-0x800 (1)
0x800|01                                             |.               |      [98]: 1 transition_type 0x800-0x801 (1)
0x800|   02                                          | .              |      [99]: 2 transition_type 0x801-0x802 (1)
0x800|      01                                       |  .             |      [100]: 1 transition_type 0x802-0x803 (1)
0x800|         02                                    |   .            |      [101]: 2 transition_type 0x803-0x804 (1)
0x800|            01                                 |    .           |      [102]: 1 transition_type 0x804-0x805 (1)
0x800|               02                              |     .          |      [103]: 2 transition_type 0x805-0x806 (1)
0x800|                  01                           |      .         |      [104]: 1 transition_type 0x806-0x807 (1)
0x800|                     02                        |       .        |      [105]: 2 transition_type 0x807-0x808 (1)
0x800|                        01                     |        .       |      [106]: 1 transition_type 0x808-0x809 (1)
0x800|                           02                  |         .      |      [107]: 2 transition_type 0x809-0x80a (1)
0x800|                              01               |          .     |      [108]: 1 transition_type 0x80a-0x80b (1)
0x800|                                 02            |           .    |      [109]: 2 transition_type 0x80b-0x80c (1)
0x800|                                    01         |            .   |      [110]: 1 transition_type 0x80c-0x80d (1)
0x800|                                       02      |             .  |      [111]: 2 transition_type 0x80d-0x80e (1)
0x800|                                          01   |              . |      [112]: 1 transition_type 0x80e-0x80f (1)
0x800|                                             02|               .|      [113]: 2 transition_type 0x80f-0x810 (1)
0x810|01                                             |.               |      [114]: 1 transition_type 0x810-0x811 (1)
0x810|   02                                          | .              |      [115]: 2 transition_type 0x811-0x812 (1)
0x810|      01                                       |  .             |      [116]: 1 transition_type 0x812-0x813 (1)
0x810|         02                                    |   .            |      [117]: 2 transition_type 0x813-0x814 (1)
0x810|            01                                 |    .           |      [118]: 1 transition_type 0x814-0x815 (1)
0x810|               02                              |     .          |      [119]: 2 transition_type 0x815-0x816 (1)
0x810|                  01                           |      .         |      [120]: 1 transition_type 0x816-0x817 (1)
0x810|                     01                        |       .        |      [121]: 1 transition_type 0x817-0x818 (1)
     |                                               |                |    local_time_type_records[0:5]: 0x818-0x836 (30)
     |                                               |                |      [0]{}: local_time_type 0x818-0x81e (6)
0x810|                        ff ff 95 a0            |        ....    |        utoff: -27232 (valid) 0x818-0x81c (4)
0x810|                                    00         |            .   |        dst: 0 (valid) 0x81c-0x81d (1)
0x810|                                       00      |             .  |        idx: 0 (valid) 0x81d-0x81e (1)
     |                                               |                |      [1]{}: local_time_type 0x81e-0x824 (6)
0x810|                                          ff ff|              ..|        utoff: -21600 (valid) 0x81e-0x822 (4)
0x820|ab a0                                          |..              |
0x820|      01                                       |  .             |        dst: 1 (valid) 0x822-0x823 (1)
0x820|         04                                    |   .            |        idx: 4 (valid) 0x823-0x824 (1)
     |                                               |                |      [2]{}: local_time_type 0x824-0x82a (6)
0x820|            ff ff 9d 90                        |    ....        |        utoff: -25200 (valid) 0x824-0x828 (4)
0x820|                        00                     |        .       |        dst: 0 (valid) 0x828-0x829 (1)
0x820|                           08                  |         .      |        idx: 8 (valid) 0x829-0x82a (1)
     |                                               |                |      [3]{}: local_time_type 0x82a-0x830 (6)
0x820|                              ff ff ab a0      |          ....  |        utoff: -21600 (valid) 0x82a-0x82e (4)
0x820|                                          01   |              . |        dst: 1 (valid) 0x82e-0x82f (1)
0x820|                                             0c|               .|        idx: 12 (valid) 0x82f-0x830 (1)
     |                                               |                |      [4]{}: local_time_type 0x830-0x836 (6)
0x830|ff ff ab a0                                    |....            |        utoff: -21600 (valid) 0x830-0x834 (4)
0x830|            01                                 |    .           |        dst: 1 (valid) 0x834-0x835 (1)
0x830|               10                              |     .          |        idx: 16 (valid) 0x835-0x836 (1)
     |                                               |                |    time_zone_designations[0:5]: 0x836-0x84a (20)
0x830|                  4c 4d 54 00                  |      LMT.      |      [0]: "LMT" time_zone_designation 0x836-0x83a (4)
0x830|                              4d 44 54 00      |          MDT.  |      [1]: "MDT" time_zone_designation 0x83a-0x83e (4)
0x830|                                          4d 53|              MS|      [2]: "MST" time_zone_designation 0x83e-0x842 (4)
0x840|54 00                                          |T.              |
0x840|      4d 57 54 00                              |  MWT.          |      [3]: "MWT" time_zone_designation 0x842-0x846 (4)
0x840|                  4d 50 54 00                  |      MPT.      |      [4]: "MPT" time_zone_designation 0x846-0x84a (4)
     |                                               |                |    leap_second_records[0:27]: 0x84a-0x98e (324)
     |                                               |                |      [0]{}: leap_second_record 0x84a-0x856 (12)
0x840|                              00 00 00 00 04 b2|          ......|        occur: "1972-07-01T00:00:00Z" (78796800) 0x84a-0x852 (8)
0x850|58 00                                          |X.              |
0x850|      00 00 00 01                              |  ....          |        corr: 1 0x852-0x856 (4)
     |                                               |                |      [1]{}: leap_second_record 0x856-0x862 (12)
0x850|                  00 00 00 00 05 a4 ec 01      |      ........  |        occur: "1973-01-01T00:00:01Z" (94694401) 0x856-0x85e (8)
0x850|                                          00 00|              ..|        corr: 2 0x85e-0x862 (4)
0x860|00 02                                          |..              |
     |                                               |                |      [2]{}: leap_second_record 0x862-0x86e (12)
0x860|      00 00 00 00 07 86 1f 82                  |  ........      |        occur: "1974-01-01T00:00:02Z" (126230402) 0x862-0x86a (8)
0x860|                              00 00 00 03      |          ....  |        corr: 3 0x86a-0x86e (4)
     |                                               |                |      [3]{}: leap_second_record 0x86e-0x87a (12)
0x860|                                          00 00|              ..|        occur: "1975-01-01T00:00:03Z" (157766403) 0x86e-0x876 (8)
0x870|00 00 09 67 53 03                              |...gS.          |
0x870|                  00 00 00 04                  |      ....      |        corr: 4 0x876-0x87a (4)
     |                                               |                |      [4]{}: leap_second_record 0x87a-0x886 (12)
0x870|                              00 00 00 00 0b 48|          .....H|        occur: "1976-01-01T00:00:04Z" (189302404) 0x87a-0x882 (8)
0x880|86 84                                          |..              |
0x880|      00 00 00 05                              |  ....          |        corr: 5 0x882-0x886 (4)
     |                                               |                |      [5]{}: leap_second_record 0x886-0x892 (12)
0x880|                  00 00 00 00 0d 2b 0b 85      |      .....+..  |        occur: "1977-01-01T00:00:05Z" (220924805) 0x886-0x88e (8)
0x880|                                          00 00|              ..|        corr: 6 0x88e-0x892 (4)
0x890|00 06                                          |..              |
     |                                               |                |      [6]{}: leap_second_record 0x892-0x89e (12)
0x890|      00 00 00 00 0f 0c 3f 06                  |  ......?.      |        occur: "1978-01-01T00:00:06Z" (252460806) 0x892-0x89a (8)
0x890|                              00 00 00 07      |          ....  |        corr: 7 0x89a-0x89e (4)
     |                                               |                |      [7]{}: leap_second_record 0x89e-0x8aa (12)
0x890|                                          00 00|              ..|        occur: "1979-01-01T00:00:07Z" (283996807) 0x89e-0x8a6 (8)
0x8a0|00 00 10 ed 72 87                              |....r.          |
0x8a0|                  00 00 00 08                  |      ....      |        corr: 8 0x8a6-0x8aa (4)
     |                                               |                |      [8]{}: leap_second_record 0x8aa-0x8b6 (12)
0x8a0|                              00 00 00 00 12 ce|          ......|        occur: "1980-01-01T00:00:08Z" (315532808) 0x8aa-0x8b2 (8)
0x8b0|a6 08                                          |..              |
0x8b0|      00 00 00 09                              |  ....          |        corr: 9 0x8b2-0x8b6 (4)
     |                                               |                |      [9]{}: leap_second_record 0x8b6-0x8c2 (12)
0x8b0|                  00 00 00 00 15 9f ca 89      |      ........  |        occur: "1981-07-01T00:00:09Z" (362793609) 0x8b6-0x8be (8)
0x8b0|                                          00 00|              ..|        corr: 10 0x8be-0x8c2 (4)
0x8c0|00 0a                                          |..              |
     |                                               |                |      [10]{}: leap_second_record 0x8c2-0x8ce (12)
0x8c0|      00 00 00 00 17 80 fe 0a                  |  ........      |        occur: "1982-07-01T00:00:10Z" (394329610) 0x8c2-0x8ca (8)
0x8c0|                              00 00 00 0b      |          ....  |        corr: 11 0x8ca-0x8ce (4)
     |                                               |                |      [11]{}: leap_second_record 0x8ce-0x8da (12)
0x8c0|                                          00 00|              ..|        occur: "1983-07-01T00:00:11Z" (425865611) 0x8ce-0x8d6 (8)
0x8d0|00 00 19 62 31 8b                              |...b1.          |
0x8d0|                  00 00 00 0c                  |      ....      |        corr: 12 0x8d6-0x8da (4)
     |                                               |                |      [12]{}: leap_second_record 0x8da-0x8e6 (12)
0x8d0|                              00 00 00 00 1d 25|          .....%|        occur: "1985-07-01T00:00:12Z" (489024012) 0x8da-0x8e2 (8)
0x8e0|ea 0c                                          |..              |
0x8e0|      00 00 00 0d                              |  ....          |        corr: 13 0x8e2-0x8e6 (4)
     |                                               |                |      [13]{}: leap_second_record 0x8e6-0x8f2 (12)
0x8e0|                  00 00 00 00 21 da e5 0d      |      ....!...  |        occur: "1988-01-01T00:00:13Z" (567993613) 0x8e6-0x8ee (8)
0x8e0|                                          00 00|              ..|        corr: 14 0x8ee-0x8f2 (4)
0x8f0|00 0e                                          |..              |
     |                                               |                |      [14]{}: leap_second_record 0x8f2-0x8fe (12)
0x8f0|      00 00 00 00 25 9e 9d 8e                  |  ....%...      |        occur: "1990-01-01T00:00:14Z" (631152014) 0x8f2-0x8fa (8)
0x8f0|                              00 00 00 0f      |          ....  |        corr: 15 0x8fa-0x8fe (4)
     |                                               |                |      [15]{}: leap_second_record 0x8fe-0x90a (12)
0x8f0|                                          00 00|              ..|        occur: "1991-01-01T00:00:15Z" (662688015) 0x8fe-0x906 (8)
0x900|00 00 27 7f d1 0f                              |..'...          |
0x900|                  00 00 00 10                  |      ....      |        corr: 16 0x906-0x90a (4)
     |                                               |                |      [16]{}: leap_second_record 0x90a-0x916 (12)
0x900|                              00 00 00 00 2a 50|          ....*P|        occur: "1992-07-01T00:00:16Z" (709948816) 0x90a-0x912 (8)
0x910|f5 90                                          |..              |
0x910|      00 00 00 11                              |  ....          |        corr: 17 0x912-0x916 (4)
     |                                               |                |      [17]{}: leap_second_record 0x916-0x922 (12)
0x910|                  00 00 00 00 2c 32 29 11      |      ....,2).  |        occur: "1993-07-01T00:00:17Z" (741484817) 0x916-0x91e (8)
0x910|                                          00 00|              ..|        corr: 18 0x91e-0x922 (4)
0x920|00 12                                          |..              |
     |                                               |                |      [18]{}: leap_second_record 0x922-0x92e (12)
0x920|      00 00 00 00 2e 13 5c 92                  |  ......\.      |        occur: "1994-07-01T00:00:18Z" (773020818) 0x922-0x92a (8)
0x920|                              00 00 00 13      |          ....  |        corr: 19 0x92a-0x92e (4)
     |                                               |                |      [19]{}: leap_second_record 0x92e-0x93a (12)
0x920|                                          00 00|              ..|        occur: "1996-01-01T00:00:19Z" (820454419) 0x92e-0x936 (8)
0x930|00 00 30 e7 24 13                              |..0.$.          |
0x930|                  00 00 00 14                  |      ....      |        corr: 20 0x936-0x93a (4)
     |                                               |                |      [20]{}: leap_second_record 0x93a-0x946 (12)
0x930|                              00 00 00 00 33 b8|          ....3.|        occur: "1997-07-01T00:00:20Z" (867715220) 0x93a-0x942 (8)
0x940|48 94                                          |H.              |
0x940|      00 00 00 15                              |  ....          |        corr: 21 0x942-0x946 (4)
     |                                               |                |      [21]{}: leap_second_record 0x946-0x952 (12)
0x940|                  00 00 00 00 36 8c 10 15      |      ....6...  |        occur: "1999-01-01T00:00:21Z" (915148821) 0x946-0x94e (8)
0x940|                                          00 00|              ..|        corr: 22 0x94e-0x952 (4)
0x950|00 16                                          |..              |
     |                                               |                |      [22]{}: leap_second_record 0x952-0x95e (12)
0x950|      00 00 00 00 43 b7 1b 96                  |  ....C...      |        occur: "2006-01-01T00:00:22Z" (1136073622) 0x952-0x95a (8)
0x950|                              00 00 00 17      |          ....  |        corr: 23 0x95a-0x95e (4)
     |                                               |                |      [23]{}: leap_second_record 0x95e-0x96a (12)
0x950|                                          00 00|              ..|        occur: "2009-01-01T00:00:23Z" (1230768023) 0x95e-0x966 (8)
0x960|00 00 49 5c 07 97                              |..I\..          |
0x960|                  00 00 00 18                  |      ....      |        corr: 24 0x966-0x96a (4)
     |                                               |                |      [24]{}: leap_second_record 0x96a-0x976 (12)
0x960|                              00 00 00 00 4f ef|          ....O.|        occur: "2012-07-01T00:00:24Z" (1341100824) 0x96a-0x972 (8)
0x970|93 18                                          |..              |
0x970|      00 00 00 19                              |  ....          |        corr: 25 0x972-0x976 (4)
     |                                               |                |      [25]{}: leap_second_record 0x976-0x982 (12)
0x970|                  00 00 00 00 55 93 2d 99      |      ....U.-.  |        occur: "2015-07-01T00:00:25Z" (1435708825) 0x976-0x97e (8)
0x970|                                          00 00|              ..|        corr: 26 0x97e-0x982 (4)
0x980|00 1a                                          |..              |
     |                                               |                |      [26]{}: leap_second_record 0x982-0x98e (12)
0x980|      00 00 00 00 58 68 46 9a                  |  ....XhF.      |        occur: "2017-01-01T00:00:26Z" (1483228826) 0x982-0x98a (8)
0x980|                              00 00 00 1b      |          ....  |        corr: 27 0x98a-0x98e (4)
     |                                               |                |    standard_wall_indicators[0:5]: 0x98e-0x993 (5)
0x980|                                          00   |              . |      [0]: 0 standard_wall_indicator (valid) 0x98e-0x98f (1)
0x980|                                             00|               .|      [1]: 0 standard_wall_indicator (valid) 0x98f-0x990 (1)
0x990|00                                             |.               |      [2]: 0 standard_wall_indicator (valid) 0x990-0x991 (1)
0x990|   00                                          | .              |      [3]: 0 standard_wall_indicator (valid) 0x991-0x992 (1)
0x990|      01                                       |  .             |      [4]: 1 standard_wall_indicator (valid) 0x992-0x993 (1)
     |                                               |                |    ut_local_indicators[0:5]: 0x993-0x998 (5)
0x990|         00                                    |   .            |      [0]: 0 ut_local_indicator (valid) 0x993-0x994 (1)
0x990|            00                                 |    .           |      [1]: 0 ut_local_indicator (valid) 0x994-0x995 (1)
0x990|               00                              |     .          |      [2]: 0 ut_local_indicator (valid) 0x995-0x996 (1)
0x990|                  00                           |      .         |      [3]: 0 ut_local_indicator (valid) 0x996-0x997 (1)
0x990|                     01                        |       .        |      [4]: 1 ut_local_indicator (valid) 0x997-0x998 (1)
     |                                               |                |  footer{}: 0x998-0x99a (2)
0x990|                        0a                     |        .       |    nl1: 10 (valid) 0x998-0x999 (1)
     |                                               |                |    tz_string: "" 0x999-0x999 (0)
0x990|                           0a|                 |         .|     |    nl2: 10 (valid) 0x999-0x99a (1)
