$ fq -d tzif dv Eirunepe
     |00 01 02 03 04 05 06 07 08 09 0a 0b 0c 0d 0e 0f|0123456789abcdef|.{}: Eirunepe (tzif) 0x0-0x4a6 (1190)
     |                                               |                |  v1header{}: 0x0-0x2c (44)
0x000|54 5a 69 66                                    |TZif            |    magic: 0x545a6966 (valid) 0x0-0x4 (4)
0x000|            32                                 |    2           |    ver: "2" (0x32) (valid) 0x4-0x5 (1)
0x000|               00 00 00 00 00 00 00 00 00 00 00|     ...........|    reserved: raw bits 0x5-0x14 (15)
0x010|00 00 00 00                                    |....            |
0x010|            00 00 00 00                        |    ....        |    isutcnt: 0 0x14-0x18 (4)
0x010|                        00 00 00 00            |        ....    |    isstdcnt: 0 0x18-0x1c (4)
0x010|                                    00 00 00 1b|            ....|    leapcnt: 27 0x1c-0x20 (4)
0x020|00 00 00 22                                    |..."            |    timecnt: 34 0x20-0x24 (4)
0x020|            00 00 00 05                        |    ....        |    typecnt: 5 0x24-0x28 (4)
0x020|                        00 00 00 0c            |        ....    |    charcnt: 12 0x28-0x2c (4)
     |                                               |                |  v1datablock{}: 0x2c-0x1d8 (428)
     |                                               |                |    transition_times[0:34]: 0x2c-0xb4 (136)
0x020|                                    96 aa 88 80|            ....|      [0]: "1914-01-01T04:39:28Z" (-1767208832) transition_time 0x2c-0x30 (4)
0x030|b8 0f 66 00                                    |..f.            |      [1]: "1931-10-03T16:00:00Z" (-1206950400) transition_time 0x30-0x34 (4)
0x030|            b8 fd 5c c0                        |    ..\.        |      [2]: "1932-04-01T04:00:00Z" (-1191355200) transition_time 0x34-0x38 (4)
0x030|                        b9 f1 50 50            |        ..PP    |      [3]: "1932-10-03T05:00:00Z" (-1175367600) transition_time 0x38-0x3c (4)
0x030|                                    ba de 90 40|            ...@|      [4]: "1933-04-01T04:00:00Z" (-1159819200) transition_time 0x3c-0x40 (4)
0x040|da 38 ca 50                                    |.8.P            |      [5]: "1949-12-01T05:00:00Z" (-633812400) transition_time 0x40-0x44 (4)
0x040|            da ec 16 50                        |    ...P        |      [6]: "1950-04-16T05:00:00Z" (-622062000) transition_time 0x44-0x48 (4)
0x040|                        dc 19 fd d0            |        ....    |      [7]: "1950-12-01T05:00:00Z" (-602276400) transition_time 0x48-0x4c (4)
0x040|                                    dc b9 75 40|            ..u@|      [8]: "1951-04-01T04:00:00Z" (-591825600) transition_time 0x4c-0x50 (4)
0x050|dd fb 31 50                                    |..1P            |      [9]: "1951-12-01T05:00:00Z" (-570740400) transition_time 0x50-0x54 (4)
0x050|            de 9b fa 40                        |    ...@        |      [10]: "1952-04-01T04:00:00Z" (-560203200) transition_time 0x54-0x58 (4)
0x050|                        df dd b6 50            |        ...P    |      [11]: "1952-12-01T05:00:00Z" (-539118000) transition_time 0x58-0x5c (4)
0x050|                                    e0 54 4f 40|            .TO@|      [12]: "1953-03-01T04:00:00Z" (-531345600) transition_time 0x5c-0x60 (4)
0x060|f4 98 1b d0                                    |....            |      [13]: "1963-12-09T05:00:00Z" (-191358000) transition_time 0x60-0x64 (4)
0x060|            f5 05 7a 40                        |    ..z@        |      [14]: "1964-03-01T04:00:00Z" (-184190400) transition_time 0x64-0x68 (4)
0x060|                        f6 c0 80 50            |        ...P    |      [15]: "1965-01-31T05:00:00Z" (-155156400) transition_time 0x68-0x6c (4)
0x060|                                    f7 0e 3a c0|            ..:.|      [16]: "1965-03-31T04:00:00Z" (-150062400) transition_time 0x6c-0x70 (4)
0x070|f8 51 48 50                                    |.QHP            |      [17]: "1965-12-01T05:00:00Z" (-128890800) transition_time 0x70-0x74 (4)
0x070|            f8 c7 e1 40                        |    ...@        |      [18]: "1966-03-01T04:00:00Z" (-121118400) transition_time 0x74-0x78 (4)
0x070|                        fa 0a ee d0            |        ....    |      [19]: "1966-11-01T05:00:00Z" (-99946800) transition_time 0x78-0x7c (4)
0x070|                                    fa a9 14 c0|            ....|      [20]: "1967-03-01T04:00:00Z" (-89582400) transition_time 0x7c-0x80 (4)
0x080|fb ec 22 50                                    |.."P            |      [21]: "1967-11-01T05:00:00Z" (-68410800) transition_time 0x80-0x84 (4)
0x080|            fc 8b 99 c0                        |    ....        |      [22]: "1968-03-01T04:00:00Z" (-57960000) transition_time 0x84-0x88 (4)
0x080|                        1d c9 aa 5d            |        ...]    |      [23]: "1985-11-02T05:00:13Z" (499755613) transition_time 0x88-0x8c (4)
0x080|                                    1e 78 f3 cd|            .x..|      [24]: "1986-03-15T04:00:13Z" (511243213) transition_time 0x8c-0x90 (4)
0x090|1f a0 51 dd                                    |..Q.            |      [25]: "1986-10-25T05:00:13Z" (530600413) transition_time 0x90-0x94 (4)
0x090|            20 33 eb cd                        |     3..        |      [26]: "1987-02-14T04:00:13Z" (540273613) transition_time 0x94-0x98 (4)
0x090|                        21 81 85 5d            |        !..]    |      [27]: "1987-10-25T05:00:13Z" (562136413) transition_time 0x98-0x9c (4)
0x090|                                    22 0b e4 ce|            "...|      [28]: "1988-02-07T04:00:14Z" (571204814) transition_time 0x9c-0xa0 (4)
0x0a0|2c c0 d1 62                                    |,..b            |      [29]: "1993-10-17T05:00:18Z" (750834018) transition_time 0xa0-0xa4 (4)
0x0a0|            2d 66 e0 52                        |    -f.R        |      [30]: "1994-02-20T04:00:18Z" (761716818) transition_time 0xa4-0xa8 (4)
0x0a0|                        48 60 7f 67            |        H`.g    |      [31]: "2008-06-24T05:00:23Z" (1214283623) transition_time 0xa8-0xac (4)
0x0a0|                                    52 7f 04 d9|            R...|      [32]: "2013-11-10T04:00:25Z" (1384056025) transition_time 0xac-0xb0 (4)
0x0b0|64 9b 78 1b                                    |d.x.            |      [33]: "2023-06-28T00:00:27Z" (1687910427) transition_time 0xb0-0xb4 (4)
     |                                               |                |    transition_types[0:34]: 0xb4-0xd6 (34)
0x0b0|            02                                 |    .           |      [0]: 2 transition_type 0xb4-0xb5 (1)
0x0b0|               01                              |     .          |      [1]: 1 transition_type 0xb5-0xb6 (1)
0x0b0|                  02                           |      .         |      [2]: 2 transition_type 0xb6-0xb7 (1)
0x0b0|                     01                        |       .        |      [3]: 1 transition_type 0xb7-0xb8 (1)
0x0b0|                        02                     |        .       |      [4]: 2 transition_type 0xb8-0xb9 (1)
0x0b0|                           01                  |         .      |      [5]: 1 transition_type 0xb9-0xba (1)
0x0b0|                              02               |          .     |      [6]: 2 transition_type 0xba-0xbb (1)
0x0b0|                                 01            |           .    |      [7]: 1 transition_type 0xbb-0xbc (1)
0x0b0|                                    02         |            .   |      [8]: 2 transition_type 0xbc-0xbd (1)
0x0b0|                                       01      |             .  |      [9]: 1 transition_type 0xbd-0xbe (1)
0x0b0|                                          02   |              . |      [10]: 2 transition_type 0xbe-0xbf (1)
0x0b0|                                             01|               .|      [11]: 1 transition_type 0xbf-0xc0 (1)
0x0c0|02                                             |.               |      [12]: 2 transition_type 0xc0-0xc1 (1)
0x0c0|   01                                          | .              |      [13]: 1 transition_type 0xc1-0xc2 (1)
0x0c0|      02                                       |  .             |      [14]: 2 transition_type 0xc2-0xc3 (1)
0x0c0|         01                                    |   .            |      [15]: 1 transition_type 0xc3-0xc4 (1)
0x0c0|            02                                 |    .           |      [16]: 2 transition_type 0xc4-0xc5 (1)
0x0c0|               01                              |     .          |      [17]: 1 transition_type 0xc5-0xc6 (1)
0x0c0|                  02                           |      .         |      [18]: 2 transition_type 0xc6-0xc7 (1)
0x0c0|                     01                        |       .        |      [19]: 1 transition_type 0xc7-0xc8 (1)
0x0c0|                        02                     |        .       |      [20]: 2 transition_type 0xc8-0xc9 (1)
0x0c0|                           01                  |         .      |      [21]: 1 transition_type 0xc9-0xca (1)
0x0c0|                              02               |          .     |      [22]: 2 transition_type 0xca-0xcb (1)
0x0c0|                                 01            |           .    |      [23]: 1 transition_type 0xcb-0xcc (1)
0x0c0|                                    02         |            .   |      [24]: 2 transition_type 0xcc-0xcd (1)
0x0c0|                                       01      |             .  |      [25]: 1 transition_type 0xcd-0xce (1)
0x0c0|                                          02   |              . |      [26]: 2 transition_type 0xce-0xcf (1)
0x0c0|                                             01|               .|      [27]: 1 transition_type 0xcf-0xd0 (1)
0x0d0|02                                             |.               |      [28]: 2 transition_type 0xd0-0xd1 (1)
0x0d0|   01                                          | .              |      [29]: 1 transition_type 0xd1-0xd2 (1)
0x0d0|      02                                       |  .             |      [30]: 2 transition_type 0xd2-0xd3 (1)
0x0d0|         03                                    |   .            |      [31]: 3 transition_type 0xd3-0xd4 (1)
0x0d0|            02                                 |    .           |      [32]: 2 transition_type 0xd4-0xd5 (1)
0x0d0|               02                              |     .          |      [33]: 2 transition_type 0xd5-0xd6 (1)
     |                                               |                |    local_time_type_records[0:5]: 0xd6-0xf4 (30)
     |                                               |                |      [0]{}: local_time_type 0xd6-0xdc (6)
0x0d0|                  ff ff be 80                  |      ....      |        utoff: -16768 (valid) 0xd6-0xda (4)
0x0d0|                              00               |          .     |        dst: 0 (valid) 0xda-0xdb (1)
0x0d0|                                 00            |           .    |        idx: 0 (valid) 0xdb-0xdc (1)
     |                                               |                |      [1]{}: local_time_type 0xdc-0xe2 (6)
0x0d0|                                    ff ff c7 c0|            ....|        utoff: -14400 (valid) 0xdc-0xe0 (4)
0x0e0|01                                             |.               |        dst: 1 (valid) 0xe0-0xe1 (1)
0x0e0|   04                                          | .              |        idx: 4 (valid) 0xe1-0xe2 (1)
     |                                               |                |      [2]{}: local_time_type 0xe2-0xe8 (6)
0x0e0|      ff ff b9 b0                              |  ....          |        utoff: -18000 (valid) 0xe2-0xe6 (4)
0x0e0|                  00                           |      .         |        dst: 0 (valid) 0xe6-0xe7 (1)
0x0e0|                     08                        |       .        |        idx: 8 (valid) 0xe7-0xe8 (1)
     |                                               |                |      [3]{}: local_time_type 0xe8-0xee (6)
0x0e0|                        ff ff c7 c0            |        ....    |        utoff: -14400 (valid) 0xe8-0xec (4)
0x0e0|                                    00         |            .   |        dst: 0 (valid) 0xec-0xed (1)
0x0e0|                                       04      |             .  |        idx: 4 (valid) 0xed-0xee (1)
     |                                               |                |      [4]{}: local_time_type 0xee-0xf4 (6)
0x0e0|                                          ff ff|              ..|        utoff: -18000 (valid) 0xee-0xf2 (4)
0x0f0|b9 b0                                          |..              |
0x0f0|      00                                       |  .             |        dst: 0 (valid) 0xf2-0xf3 (1)
0x0f0|         08                                    |   .            |        idx: 8 (valid) 0xf3-0xf4 (1)
     |                                               |                |    time_zone_designations[0:3]: 0xf4-0x100 (12)
0x0f0|            4c 4d 54 00                        |    LMT.        |      [0]: "LMT" time_zone_designation 0xf4-0xf8 (4)
0x0f0|                        2d 30 34 00            |        -04.    |      [1]: "-04" time_zone_designation 0xf8-0xfc (4)
0x0f0|                                    2d 30 35 00|            -05.|      [2]: "-05" time_zone_designation 0xfc-0x100 (4)
     |                                               |                |    leap_second_records[0:27]: 0x100-0x1d8 (216)
     |                                               |                |      [0]{}: leap_second_record 0x100-0x108 (8)
0x100|04 b2 58 00                                    |..X.            |        occur: "1972-07-01T00:00:00Z" (78796800) 0x100-0x104 (4)
0x100|            00 00 00 01                        |    ....        |        corr: 1 0x104-0x108 (4)
     |                                               |                |      [1]{}: leap_second_record 0x108-0x110 (8)
0x100|                        05 a4 ec 01            |        ....    |        occur: "1973-01-01T00:00:01Z" (94694401) 0x108-0x10c (4)
0x100|                                    00 00 00 02|            ....|        corr: 2 0x10c-0x110 (4)
     |                                               |                |      [2]{}: leap_second_record 0x110-0x118 (8)
0x110|07 86 1f 82                                    |....            |        occur: "1974-01-01T00:00:02Z" (126230402) 0x110-0x114 (4)
0x110|            00 00 00 03                        |    ....        |        corr: 3 0x114-0x118 (4)
     |                                               |                |      [3]{}: leap_second_record 0x118-0x120 (8)
0x110|                        09 67 53 03            |        .gS.    |        occur: "1975-01-01T00:00:03Z" (157766403) 0x118-0x11c (4)
0x110|                                    00 00 00 04|            ....|        corr: 4 0x11c-0x120 (4)
     |                                               |                |      [4]{}: leap_second_record 0x120-0x128 (8)
0x120|0b 48 86 84                                    |.H..            |        occur: "1976-01-01T00:00:04Z" (189302404) 0x120-0x124 (4)
0x120|            00 00 00 05                        |    ....        |        corr: 5 0x124-0x128 (4)
     |                                               |                |      [5]{}: leap_second_record 0x128-0x130 (8)
0x120|                        0d 2b 0b 85            |        .+..    |        occur: "1977-01-01T00:00:05Z" (220924805) 0x128-0x12c (4)
0x120|                                    00 00 00 06|            ....|        corr: 6 0x12c-0x130 (4)
     |                                               |                |      [6]{}: leap_second_record 0x130-0x138 (8)
0x130|0f 0c 3f 06                                    |..?.            |        occur: "1978-01-01T00:00:06Z" (252460806) 0x130-0x134 (4)
0x130|            00 00 00 07                        |    ....        |        corr: 7 0x134-0x138 (4)
     |                                               |                |      [7]{}: leap_second_record 0x138-0x140 (8)
0x130|                        10 ed 72 87            |        ..r.    |        occur: "1979-01-01T00:00:07Z" (283996807) 0x138-0x13c (4)
0x130|                                    00 00 00 08|            ....|        corr: 8 0x13c-0x140 (4)
     |                                               |                |      [8]{}: leap_second_record 0x140-0x148 (8)
0x140|12 ce a6 08                                    |....            |        occur: "1980-01-01T00:00:08Z" (315532808) 0x140-0x144 (4)
0x140|            00 00 00 09                        |    ....        |        corr: 9 0x144-0x148 (4)
     |                                               |                |      [9]{}: leap_second_record 0x148-0x150 (8)
0x140|                        15 9f ca 89            |        ....    |        occur: "1981-07-01T00:00:09Z" (362793609) 0x148-0x14c (4)
0x140|                                    00 00 00 0a|            ....|        corr: 10 0x14c-0x150 (4)
     |                                               |                |      [10]{}: leap_second_record 0x150-0x158 (8)
0x150|17 80 fe 0a                                    |....            |        occur: "1982-07-01T00:00:10Z" (394329610) 0x150-0x154 (4)
0x150|            00 00 00 0b                        |    ....        |        corr: 11 0x154-0x158 (4)
     |                                               |                |      [11]{}: leap_second_record 0x158-0x160 (8)
0x150|                        19 62 31 8b            |        .b1.    |        occur: "1983-07-01T00:00:11Z" (425865611) 0x158-0x15c (4)
0x150|                                    00 00 00 0c|            ....|        corr: 12 0x15c-0x160 (4)
     |                                               |                |      [12]{}: leap_second_record 0x160-0x168 (8)
0x160|1d 25 ea 0c                                    |.%..            |        occur: "1985-07-01T00:00:12Z" (489024012) 0x160-0x164 (4)
0x160|            00 00 00 0d                        |    ....        |        corr: 13 0x164-0x168 (4)
     |                                               |                |      [13]{}: leap_second_record 0x168-0x170 (8)
0x160|                        21 da e5 0d            |        !...    |        occur: "1988-01-01T00:00:13Z" (567993613) 0x168-0x16c (4)
0x160|                                    00 00 00 0e|            ....|        corr: 14 0x16c-0x170 (4)
     |                                               |                |      [14]{}: leap_second_record 0x170-0x178 (8)
0x170|25 9e 9d 8e                                    |%...            |        occur: "1990-01-01T00:00:14Z" (631152014) 0x170-0x174 (4)
0x170|            00 00 00 0f                        |    ....        |        corr: 15 0x174-0x178 (4)
     |                                               |                |      [15]{}: leap_second_record 0x178-0x180 (8)
0x170|                        27 7f d1 0f            |        '...    |        occur: "1991-01-01T00:00:15Z" (662688015) 0x178-0x17c (4)
0x170|                                    00 00 00 10|            ....|        corr: 16 0x17c-0x180 (4)
     |                                               |                |      [16]{}: leap_second_record 0x180-0x188 (8)
0x180|2a 50 f5 90                                    |*P..            |        occur: "1992-07-01T00:00:16Z" (709948816) 0x180-0x184 (4)
0x180|            00 00 00 11                        |    ....        |        corr: 17 0x184-0x188 (4)
     |                                               |                |      [17]{}: leap_second_record 0x188-0x190 (8)
0x180|                        2c 32 29 11            |        ,2).    |        occur: "1993-07-01T00:00:17Z" (741484817) 0x188-0x18c (4)
0x180|                                    00 00 00 12|            ....|        corr: 18 0x18c-0x190 (4)
     |                                               |                |      [18]{}: leap_second_record 0x190-0x198 (8)
0x190|2e 13 5c 92                                    |..\.            |        occur: "1994-07-01T00:00:18Z" (773020818) 0x190-0x194 (4)
0x190|            00 00 00 13                        |    ....        |        corr: 19 0x194-0x198 (4)
     |                                               |                |      [19]{}: leap_second_record 0x198-0x1a0 (8)
0x190|                        30 e7 24 13            |        0.$.    |        occur: "1996-01-01T00:00:19Z" (820454419) 0x198-0x19c (4)
0x190|                                    00 00 00 14|            ....|        corr: 20 0x19c-0x1a0 (4)
     |                                               |                |      [20]{}: leap_second_record 0x1a0-0x1a8 (8)
0x1a0|33 b8 48 94                                    |3.H.            |        occur: "1997-07-01T00:00:20Z" (867715220) 0x1a0-0x1a4 (4)
0x1a0|            00 00 00 15                        |    ....        |        corr: 21 0x1a4-0x1a8 (4)
     |                                               |                |      [21]{}: leap_second_record 0x1a8-0x1b0 (8)
0x1a0|                        36 8c 10 15            |        6...    |        occur: "1999-01-01T00:00:21Z" (915148821) 0x1a8-0x1ac (4)
0x1a0|                                    00 00 00 16|            ....|        corr: 22 0x1ac-0x1b0 (4)
     |                                               |                |      [22]{}: leap_second_record 0x1b0-0x1b8 (8)
0x1b0|43 b7 1b 96                                    |C...            |        occur: "2006-01-01T00:00:22Z" (1136073622) 0x1b0-0x1b4 (4)
0x1b0|            00 00 00 17                        |    ....        |        corr: 23 0x1b4-0x1b8 (4)
     |                                               |                |      [23]{}: leap_second_record 0x1b8-0x1c0 (8)
0x1b0|                        49 5c 07 97            |        I\..    |        occur: "2009-01-01T00:00:23Z" (1230768023) 0x1b8-0x1bc (4)
0x1b0|                                    00 00 00 18|            ....|        corr: 24 0x1bc-0x1c0 (4)
     |                                               |                |      [24]{}: leap_second_record 0x1c0-0x1c8 (8)
0x1c0|4f ef 93 18                                    |O...            |        occur: "2012-07-01T00:00:24Z" (1341100824) 0x1c0-0x1c4 (4)
0x1c0|            00 00 00 19                        |    ....        |        corr: 25 0x1c4-0x1c8 (4)
     |                                               |                |      [25]{}: leap_second_record 0x1c8-0x1d0 (8)
0x1c0|                        55 93 2d 99            |        U.-.    |        occur: "2015-07-01T00:00:25Z" (1435708825) 0x1c8-0x1cc (4)
0x1c0|                                    00 00 00 1a|            ....|        corr: 26 0x1cc-0x1d0 (4)
     |                                               |                |      [26]{}: leap_second_record 0x1d0-0x1d8 (8)
0x1d0|58 68 46 9a                                    |XhF.            |        occur: "2017-01-01T00:00:26Z" (1483228826) 0x1d0-0x1d4 (4)
0x1d0|            00 00 00 1b                        |    ....        |        corr: 27 0x1d4-0x1d8 (4)
     |                                               |                |    standard_wall_indicators[0:0]: 0x1d8-0x1d8 (0)
     |                                               |                |    ut_local_indicators[0:0]: 0x1d8-0x1d8 (0)
     |                                               |                |  v2plusheader{}: 0x1d8-0x204 (44)
0x1d0|                        54 5a 69 66            |        TZif    |    magic: 0x545a6966 (valid) 0x1d8-0x1dc (4)
0x1d0|                                    32         |            2   |    ver: "2" (0x32) (valid) 0x1dc-0x1dd (1)
0x1d0|                                       00 00 00|             ...|    reserved: raw bits 0x1dd-0x1ec (15)
0x1e0|00 00 00 00 00 00 00 00 00 00 00 00            |............    |
0x1e0|                                    00 00 00 00|            ....|    isutcnt: 0 0x1ec-0x1f0 (4)
0x1f0|00 00 00 00                                    |....            |    isstdcnt: 0 0x1f0-0x1f4 (4)
0x1f0|            00 00 00 1b                        |    ....        |    leapcnt: 27 0x1f4-0x1f8 (4)
0x1f0|                        00 00 00 22            |        ..."    |    timecnt: 34 0x1f8-0x1fc (4)
0x1f0|                                    00 00 00 05|            ....|    typecnt: 5 0x1fc-0x200 (4)
0x200|00 00 00 0c                                    |....            |    charcnt: 12 0x200-0x204 (4)
     |                                               |                |  v2plusdatablock{}: 0x204-0x4a4 (672)
     |                                               |                |    transition_times[0:34]: 0x204-0x314 (272)
0x200|            ff ff ff ff 96 aa 88 80            |    ........    |      [0]: "1914-01-01T04:39:28Z" (-1767208832) transition_time 0x204-0x20c (8)
0x200|                                    ff ff ff ff|            ....|      [1]: "1931-10-03T16:00:00Z" (-1206950400) transition_time 0x20c-0x214 (8)
0x210|b8 0f 66 00                                    |..f.            |
0x210|            ff ff ff ff b8 fd 5c c0            |    ......\.    |      [2]: "1932-04-01T04:00:00Z" (-1191355200) transition_time 0x214-0x21c (8)
0x210|                                    ff ff ff ff|            ....|      [3]: "1932-10-03T05:00:00Z" (-1175367600) transition_time 0x21c-0x224 (8)
0x220|b9 f1 50 50                                    |..PP            |
0x220|            ff ff ff ff ba de 90 40            |    .......@    |      [4]: "1933-04-01T04:00:00Z" (-1159819200) transition_time 0x224-0x22c (8)
0x220|                                    ff ff ff ff|            ....|      [5]: "1949-12-01T05:00:00Z" (-633812400) transition_time 0x22c-0x234 (8)
0x230|da 38 ca 50                                    |.8.P            |
0x230|            ff ff ff ff da ec 16 50            |    .......P    |      [6]: "1950-04-16T05:00:00Z" (-622062000) transition_time 0x234-0x23c (8)
0x230|                                    ff ff ff ff|            ....|      [7]: "1950-12-01T05:00:00Z" (-602276400) transition_time 0x23c-0x244 (8)
0x240|dc 19 fd d0                                    |....            |
0x240|            ff ff ff ff dc b9 75 40            |    ......u@    |      [8]: "1951-04-01T04:00:00Z" (-591825600) transition_time 0x244-0x24c (8)
0x240|                                    ff ff ff ff|            ....|      [9]: "1951-12-01T05:00:00Z" (-570740400) transition_time 0x24c-0x254 (8)
0x250|dd fb 31 50                                    |..1P            |
0x250|            ff ff ff ff de 9b fa 40            |    .......@    |      [10]: "1952-04-01T04:00:00Z" (-560203200) transition_time 0x254-0x25c (8)
0x250|                                    ff ff ff ff|            ....|      [11]: "1952-12-01T05:00:00Z" (-539118000) transition_time 0x25c-0x264 (8)
0x260|df dd b6 50                                    |...P            |
0x260|            ff ff ff ff e0 54 4f 40            |    .....TO@    |      [12]: "1953-03-01T04:00:00Z" (-531345600) transition_time 0x264-0x26c (8)
0x260|                                    ff ff ff ff|            ....|      [13]: "1963-12-09T05:00:00Z" (-191358000) transition_time 0x26c-0x274 (8)
0x270|f4 98 1b d0                                    |....            |
0x270|            ff ff ff ff f5 05 7a 40            |    ......z@    |      [14]: "1964-03-01T04:00:00Z" (-184190400) transition_time 0x274-0x27c (8)
0x270|                                    ff ff ff ff|            ....|      [15]: "1965-01-31T05:00:00Z" (-155156400) transition_time 0x27c-0x284 (8)
0x280|f6 c0 80 50                                    |...P            |
0x280|            ff ff ff ff f7 0e 3a c0            |    ......:.    |      [16]: "1965-03-31T04:00:00Z" (-150062400) transition_time 0x284-0x28c (8)
0x280|                                    ff ff ff ff|            ....|      [17]: "1965-12-01T05:00:00Z" (-128890800) transition_time 0x28c-0x294 (8)
0x290|f8 51 48 50                                    |.QHP            |
0x290|            ff ff ff ff f8 c7 e1 40            |    .......@    |      [18]: "1966-03-01T04:00:00Z" (-121118400) transition_time 0x294-0x29c (8)
0x290|                                    ff ff ff ff|            ....|      [19]: "1966-11-01T05:00:00Z" (-99946800) transition_time 0x29c-0x2a4 (8)
0x2a0|fa 0a ee d0                                    |....            |
0x2a0|            ff ff ff ff fa a9 14 c0            |    ........    |      [20]: "1967-03-01T04:00:00Z" (-89582400) transition_time 0x2a4-0x2ac (8)
0x2a0|                                    ff ff ff ff|            ....|      [21]: "1967-11-01T05:00:00Z" (-68410800) transition_time 0x2ac-0x2b4 (8)
0x2b0|fb ec 22 50                                    |.."P            |
0x2b0|            ff ff ff ff fc 8b 99 c0            |    ........    |      [22]: "1968-03-01T04:00:00Z" (-57960000) transition_time 0x2b4-0x2bc (8)
0x2b0|                                    00 00 00 00|            ....|      [23]: "1985-11-02T05:00:13Z" (499755613) transition_time 0x2bc-0x2c4 (8)
0x2c0|1d c9 aa 5d                                    |...]            |
0x2c0|            00 00 00 00 1e 78 f3 cd            |    .....x..    |      [24]: "1986-03-15T04:00:13Z" (511243213) transition_time 0x2c4-0x2cc (8)
0x2c0|                                    00 00 00 00|            ....|      [25]: "1986-10-25T05:00:13Z" (530600413) transition_time 0x2cc-0x2d4 (8)
0x2d0|1f a0 51 dd                                    |..Q.            |
0x2d0|            00 00 00 00 20 33 eb cd            |    .... 3..    |      [26]: "1987-02-14T04:00:13Z" (540273613) transition_time 0x2d4-0x2dc (8)
0x2d0|                                    00 00 00 00|            ....|      [27]: "1987-10-25T05:00:13Z" (562136413) transition_time 0x2dc-0x2e4 (8)
0x2e0|21 81 85 5d                                    |!..]            |
0x2e0|            00 00 00 00 22 0b e4 ce            |    ...."...    |      [28]: "1988-02-07T04:00:14Z" (571204814) transition_time 0x2e4-0x2ec (8)
0x2e0|                                    00 00 00 00|            ....|      [29]: "1993-10-17T05:00:18Z" (750834018) transition_time 0x2ec-0x2f4 (8)
0x2f0|2c c0 d1 62                                    |,..b            |
0x2f0|            00 00 00 00 2d 66 e0 52            |    ....-f.R    |      [30]: "1994-02-20T04:00:18Z" (761716818) transition_time 0x2f4-0x2fc (8)
0x2f0|                                    00 00 00 00|            ....|      [31]: "2008-06-24T05:00:23Z" (1214283623) transition_time 0x2fc-0x304 (8)
0x300|48 60 7f 67                                    |H`.g            |
0x300|            00 00 00 00 52 7f 04 d9            |    ....R...    |      [32]: "2013-11-10T04:00:25Z" (1384056025) transition_time 0x304-0x30c (8)
0x300|                                    00 00 00 00|            ....|      [33]: "2023-06-28T00:00:27Z" (1687910427) transition_time 0x30c-0x314 (8)
0x310|64 9b 78 1b                                    |d.x.            |
     |                                               |                |    transition_types[0:34]: 0x314-0x336 (34)
0x310|            02                                 |    .           |      [0]: 2 transition_type 0x314-0x315 (1)
0x310|               01                              |     .          |      [1]: 1 transition_type 0x315-0x316 (1)
0x310|                  02                           |      .         |      [2]: 2 transition_type 0x316-0x317 (1)
0x310|                     01                        |       .        |      [3]: 1 transition_type 0x317-0x318 (1)
0x310|                        02                     |        .       |      [4]: 2 transition_type 0x318-0x319 (1)
0x310|                           01                  |         .      |      [5]: 1 transition_type 0x319-0x31a (1)
0x310|                              02               |          .     |      [6]: 2 transition_type 0x31a-0x31b (1)
0x310|                                 01            |           .    |      [7]: 1 transition_type 0x31b-0x31c (1)
0x310|                                    02         |            .   |      [8]: 2 transition_type 0x31c-0x31d (1)
0x310|                                       01      |             .  |      [9]: 1 transition_type 0x31d-0x31e (1)
0x310|                                          02   |              . |      [10]: 2 transition_type 0x31e-0x31f (1)
0x310|                                             01|               .|      [11]: 1 transition_type 0x31f-0x320 (1)
0x320|02                                             |.               |      [12]: 2 transition_type 0x320-0x321 (1)
0x320|   01                                          | .              |      [13]: 1 transition_type 0x321-0x322 (1)
0x320|      02                                       |  .             |      [14]: 2 transition_type 0x322-0x323 (1)
0x320|         01                                    |   .            |      [15]: 1 transition_type 0x323-0x324 (1)
0x320|            02                                 |    .           |      [16]: 2 transition_type 0x324-0x325 (1)
0x320|               01                              |     .          |      [17]: 1 transition_type 0x325-0x326 (1)
0x320|                  02                           |      .         |      [18]: 2 transition_type 0x326-0x327 (1)
0x320|                     01                        |       .        |      [19]: 1 transition_type 0x327-0x328 (1)
0x320|                        02                     |        .       |      [20]: 2 transition_type 0x328-0x329 (1)
0x320|                           01                  |         .      |      [21]: 1 transition_type 0x329-0x32a (1)
0x320|                              02               |          .     |      [22]: 2 transition_type 0x32a-0x32b (1)
0x320|                                 01            |           .    |      [23]: 1 transition_type 0x32b-0x32c (1)
0x320|                                    02         |            .   |      [24]: 2 transition_type 0x32c-0x32d (1)
0x320|                                       01      |             .  |      [25]: 1 transition_type 0x32d-0x32e (1)
0x320|                                          02   |              . |      [26]: 2 transition_type 0x32e-0x32f (1)
0x320|                                             01|               .|      [27]: 1 transition_type 0x32f-0x330 (1)
0x330|02                                             |.               |      [28]: 2 transition_type 0x330-0x331 (1)
0x330|   01                                          | .              |      [29]: 1 transition_type 0x331-0x332 (1)
0x330|      02                                       |  .             |      [30]: 2 transition_type 0x332-0x333 (1)
0x330|         03                                    |   .            |      [31]: 3 transition_type 0x333-0x334 (1)
0x330|            02                                 |    .           |      [32]: 2 transition_type 0x334-0x335 (1)
0x330|               02                              |     .          |      [33]: 2 transition_type 0x335-0x336 (1)
     |                                               |                |    local_time_type_records[0:5]: 0x336-0x354 (30)
     |                                               |                |      [0]{}: local_time_type 0x336-0x33c (6)
0x330|                  ff ff be 80                  |      ....      |        utoff: -16768 (valid) 0x336-0x33a (4)
0x330|                              00               |          .     |        dst: 0 (valid) 0x33a-0x33b (1)
0x330|                                 00            |           .    |        idx: 0 (valid) 0x33b-0x33c (1)
     |                                               |                |      [1]{}: local_time_type 0x33c-0x342 (6)
0x330|                                    ff ff c7 c0|            ....|        utoff: -14400 (valid) 0x33c-0x340 (4)
0x340|01                                             |.               |        dst: 1 (valid) 0x340-0x341 (1)
0x340|   04                                          | .              |        idx: 4 (valid) 0x341-0x342 (1)
     |                                               |                |      [2]{}: local_time_type 0x342-0x348 (6)
0x340|      ff ff b9 b0                              |  ....          |        utoff: -18000 (valid) 0x342-0x346 (4)
0x340|                  00                           |      .         |        dst: 0 (valid) 0x346-0x347 (1)
0x340|                     08                        |       .        |        idx: 8 (valid) 0x347-0x348 (1)
     |                                               |                |      [3]{}: local_time_type 0x348-0x34e (6)
0x340|                        ff ff c7 c0            |        ....    |        utoff: -14400 (valid) 0x348-0x34c (4)
0x340|                                    00         |            .   |        dst: 0 (valid) 0x34c-0x34d (1)
0x340|                                       04      |             .  |        idx: 4 (valid) 0x34d-0x34e (1)
     |                                               |                |      [4]{}: local_time_type 0x34e-0x354 (6)
0x340|                                          ff ff|              ..|        utoff: -18000 (valid) 0x34e-0x352 (4)
0x350|b9 b0                                          |..              |
0x350|      00                                       |  .             |        dst: 0 (valid) 0x352-0x353 (1)
0x350|         08                                    |   .            |        idx: 8 (valid) 0x353-0x354 (1)
     |                                               |                |    time_zone_designations[0:3]: 0x354-0x360 (12)
0x350|            4c 4d 54 00                        |    LMT.        |      [0]: "LMT" time_zone_designation 0x354-0x358 (4)
0x350|                        2d 30 34 00            |        -04.    |      [1]: "-04" time_zone_designation 0x358-0x35c (4)
0x350|                                    2d 30 35 00|            -05.|      [2]: "-05" time_zone_designation 0x35c-0x360 (4)
     |                                               |                |    leap_second_records[0:27]: 0x360-0x4a4 (324)
     |                                               |                |      [0]{}: leap_second_record 0x360-0x36c (12)
0x360|00 00 00 00 04 b2 58 00                        |......X.        |        occur: "1972-07-01T00:00:00Z" (78796800) 0x360-0x368 (8)
0x360|                        00 00 00 01            |        ....    |        corr: 1 0x368-0x36c (4)
     |                                               |                |      [1]{}: leap_second_record 0x36c-0x378 (12)
0x360|                                    00 00 00 00|            ....|        occur: "1973-01-01T00:00:01Z" (94694401) 0x36c-0x374 (8)
0x370|05 a4 ec 01                                    |....            |
0x370|            00 00 00 02                        |    ....        |        corr: 2 0x374-0x378 (4)
     |                                               |                |      [2]{}: leap_second_record 0x378-0x384 (12)
0x370|                        00 00 00 00 07 86 1f 82|        ........|        occur: "1974-01-01T00:00:02Z" (126230402) 0x378-0x380 (8)
0x380|00 00 00 03                                    |....            |        corr: 3 0x380-0x384 (4)
     |                                               |                |      [3]{}: leap_second_record 0x384-0x390 (12)
0x380|            00 00 00 00 09 67 53 03            |    .....gS.    |        occur: "1975-01-01T00:00:03Z" (157766403) 0x384-0x38c (8)
0x380|                                    00 00 00 04|            ....|        corr: 4 0x38c-0x390 (4)
     |                                               |                |      [4]{}: leap_second_record 0x390-0x39c (12)
0x390|00 00 00 00 0b 48 86 84                        |.....H..        |        occur: "1976-01-01T00:00:04Z" (189302404) 0x390-0x398 (8)
0x390|                        00 00 00 05            |        ....    |        corr: 5 0x398-0x39c (4)
     |                                               |                |      [5]{}: leap_second_record 0x39c-0x3a8 (12)
0x390|                                    00 00 00 00|            ....|        occur: "1977-01-01T00:00:05Z" (220924805) 0x39c-0x3a4 (8)
0x3a0|0d 2b 0b 85                                    |.+..            |
0x3a0|            00 00 00 06                        |    ....        |        corr: 6 0x3a4-0x3a8 (4)
     |                                               |                |      [6]{}: leap_second_record 0x3a8-0x3b4 (12)
0x3a0|                        00 00 00 00 0f 0c 3f 06|        ......?.|        occur: "1978-01-01T00:00:06Z" (252460806) 0x3a8-0x3b0 (8)
0x3b0|00 00 00 07                                    |....            |        corr: 7 0x3b0-0x3b4 (4)
     |                                               |                |      [7]{}: leap_second_record 0x3b4-0x3c0 (12)
0x3b0|            00 00 00 00 10 ed 72 87            |    ......r.    |        occur: "1979-01-01T00:00:07Z" (283996807) 0x3b4-0x3bc (8)
0x3b0|                                    00 00 00 08|            ....|        corr: 8 0x3bc-0x3c0 (4)
     |                                               |                |      [8]{}: leap_second_record 0x3c0-0x3cc (12)
0x3c0|00 00 00 00 12 ce a6 08                        |........        |        occur: "1980-01-01T00:00:08Z" (315532808) 0x3c0-0x3c8 (8)
0x3c0|                        00 00 00 09            |        ....    |        corr: 9 0x3c8-0x3cc (4)
     |                                               |                |      [9]{}: leap_second_record 0x3cc-0x3d8 (12)
0x3c0|                                    00 00 00 00|            ....|        occur: "1981-07-01T00:00:09Z" (362793609) 0x3cc-0x3d4 (8)
0x3d0|15 9f ca 89                                    |....            |
0x3d0|            00 00 00 0a                        |    ....        |        corr: 10 0x3d4-0x3d8 (4)
     |                                               |                |      [10]{}: leap_second_record 0x3d8-0x3e4 (12)
0x3d0|                        00 00 00 00 17 80 fe 0a|        ........|        occur: "1982-07-01T00:00:10Z" (394329610) 0x3d8-0x3e0 (8)
0x3e0|00 00 00 0b                                    |....            |        corr: 11 0x3e0-0x3e4 (4)
     |                                               |                |      [11]{}: leap_second_record 0x3e4-0x3f0 (12)
0x3e0|            00 00 00 00 19 62 31 8b            |    .....b1.    |        occur: "1983-07-01T00:00:11Z" (425865611) 0x3e4-0x3ec (8)
0x3e0|                                    00 00 00 0c|            ....|        corr: 12 0x3ec-0x3f0 (4)
     |                                               |                |      [12]{}: leap_second_record 0x3f0-0x3fc (12)
0x3f0|00 00 00 00 1d 25 ea 0c                        |.....%..        |        occur: "1985-07-01T00:00:12Z" (489024012) 0x3f0-0x3f8 (8)
0x3f0|                        00 00 00 0d            |        ....    |        corr: 13 0x3f8-0x3fc (4)
     |                                               |                |      [13]{}: leap_second_record 0x3fc-0x408 (12)
0x3f0|                                    00 00 00 00|            ....|        occur: "1988-01-01T00:00:13Z" (567993613) 0x3fc-0x404 (8)
0x400|21 da e5 0d                                    |!...            |
0x400|            00 00 00 0e                        |    ....        |        corr: 14 0x404-0x408 (4)
     |                                               |                |      [14]{}: leap_second_record 0x408-0x414 (12)
0x400|                        00 00 00 00 25 9e 9d 8e|        ....%...|        occur: "1990-01-01T00:00:14Z" (631152014) 0x408-0x410 (8)
0x410|00 00 00 0f                                    |....            |        corr: 15 0x410-0x414 (4)
     |                                               |                |      [15]{}: leap_second_record 0x414-0x420 (12)
0x410|            00 00 00 00 27 7f d1 0f            |    ....'...    |        occur: "1991-01-01T00:00:15Z" (662688015) 0x414-0x41c (8)
0x410|                                    00 00 00 10|            ....|        corr: 16 0x41c-0x420 (4)
     |                                               |                |      [16]{}: leap_second_record 0x420-0x42c (12)
0x420|00 00 00 00 2a 50 f5 90                        |....*P..        |        occur: "1992-07-01T00:00:16Z" (709948816) 0x420-0x428 (8)
0x420|                        00 00 00 11            |        ....    |        corr: 17 0x428-0x42c (4)
     |                                               |                |      [17]{}: leap_second_record 0x42c-0x438 (12)
0x420|                                    00 00 00 00|            ....|        occur: "1993-07-01T00:00:17Z" (741484817) 0x42c-0x434 (8)
0x430|2c 32 29 11                                    |,2).            |
0x430|            00 00 00 12                        |    ....        |        corr: 18 0x434-0x438 (4)
     |                                               |                |      [18]{}: leap_second_record 0x438-0x444 (12)
0x430|                        00 00 00 00 2e 13 5c 92|        ......\.|        occur: "1994-07-01T00:00:18Z" (773020818) 0x438-0x440 (8)
0x440|00 00 00 13                                    |....            |        corr: 19 0x440-0x444 (4)
     |                                               |                |      [19]{}: leap_second_record 0x444-0x450 (12)
0x440|            00 00 00 00 30 e7 24 13            |    ....0.$.    |        occur: "1996-01-01T00:00:19Z" (820454419) 0x444-0x44c (8)
0x440|                                    00 00 00 14|            ....|        corr: 20 0x44c-0x450 (4)
     |                                               |                |      [20]{}: leap_second_record 0x450-0x45c (12)
0x450|00 00 00 00 33 b8 48 94                        |....3.H.        |        occur: "1997-07-01T00:00:20Z" (867715220) 0x450-0x458 (8)
0x450|                        00 00 00 15            |        ....    |        corr: 21 0x458-0x45c (4)
     |                                               |                |      [21]{}: leap_second_record 0x45c-0x468 (12)
0x450|                                    00 00 00 00|            ....|        occur: "1999-01-01T00:00:21Z" (915148821) 0x45c-0x464 (8)
0x460|36 8c 10 15                                    |6...            |
0x460|            00 00 00 16                        |    ....        |        corr: 22 0x464-0x468 (4)
     |                                               |                |      [22]{}: leap_second_record 0x468-0x474 (12)
0x460|                        00 00 00 00 43 b7 1b 96|        ....C...|        occur: "2006-01-01T00:00:22Z" (1136073622) 0x468-0x470 (8)
0x470|00 00 00 17                                    |....            |        corr: 23 0x470-0x474 (4)
     |                                               |                |      [23]{}: leap_second_record 0x474-0x480 (12)
0x470|            00 00 00 00 49 5c 07 97            |    ....I\..    |        occur: "2009-01-01T00:00:23Z" (1230768023) 0x474-0x47c (8)
0x470|                                    00 00 00 18|            ....|        corr: 24 0x47c-0x480 (4)
     |                                               |                |      [24]{}: leap_second_record 0x480-0x48c (12)
0x480|00 00 00 00 4f ef 93 18                        |....O...        |        occur: "2012-07-01T00:00:24Z" (1341100824) 0x480-0x488 (8)
0x480|                        00 00 00 19            |        ....    |        corr: 25 0x488-0x48c (4)
     |                                               |                |      [25]{}: leap_second_record 0x48c-0x498 (12)
0x480|                                    00 00 00 00|            ....|        occur: "2015-07-01T00:00:25Z" (1435708825) 0x48c-0x494 (8)
0x490|55 93 2d 99                                    |U.-.            |
0x490|            00 00 00 1a                        |    ....        |        corr: 26 0x494-0x498 (4)
     |                                               |                |      [26]{}: leap_second_record 0x498-0x4a4 (12)
0x490|                        00 00 00 00 58 68 46 9a|        ....XhF.|        occur: "2017-01-01T00:00:26Z" (1483228826) 0x498-0x4a0 (8)
0x4a0|00 00 00 1b                                    |....            |        corr: 27 0x4a0-0x4a4 (4)
     |                                               |                |    standard_wall_indicators[0:0]: 0x4a4-0x4a4 (0)
     |                                               |                |    ut_local_indicators[0:0]: 0x4a4-0x4a4 (0)
     |                                               |                |  footer{}: 0x4a4-0x4a6 (2)
0x4a0|            0a                                 |    .           |    nl1: 10 (valid) 0x4a4-0x4a5 (1)
     |                                               |                |    tz_string: "" 0x4a5-0x4a5 (0)
0x4a0|               0a|                             |     .|         |    nl2: 10 (valid) 0x4a5-0x4a6 (1)
