$ fq -d tzif dv El_Aaiun
     |00 01 02 03 04 05 06 07 08 09 0a 0b 0c 0d 0e 0f|0123456789abcdef|.{}: El_Aaiun (tzif) 0x0-0x8f7 (2295)
     |                                               |                |  v1header{}: 0x0-0x2c (44)
0x000|54 5a 69 66                                    |TZif            |    magic: 0x545a6966 (valid) 0x0-0x4 (4)
0x000|            32                                 |    2           |    ver: "2" (0x32) (valid) 0x4-0x5 (1)
0x000|               00 00 00 00 00 00 00 00 00 00 00|     ...........|    reserved: raw bits 0x5-0x14 (15)
0x010|00 00 00 00                                    |....            |
0x010|            00 00 00 00                        |    ....        |    isutcnt: 0 0x14-0x18 (4)
0x010|                        00 00 00 00            |        ....    |    isstdcnt: 0 0x18-0x1c (4)
0x010|                                    00 00 00 00|            ....|    leapcnt: 0 0x1c-0x20 (4)
0x020|00 00 00 54                                    |...T            |    timecnt: 84 0x20-0x24 (4)
0x020|            00 00 00 06                        |    ....        |    typecnt: 6 0x24-0x28 (4)
0x020|                        00 00 00 10            |        ....    |    charcnt: 16 0x28-0x2c (4)
     |                                               |                |  v1datablock{}: 0x2c-0x204 (472)
     |                                               |                |    transition_times[0:84]: 0x2c-0x17c (336)
0x020|                                    bc 48 f0 e0|            .H..|      [0]: "1934-01-01T00:52:48Z" (-1136070432) transition_time 0x2c-0x30 (4)
0x030|0b d1 b0 90                                    |....            |      [1]: "1976-04-14T01:00:00Z" (198291600) transition_time 0x30-0x34 (4)
0x030|            0b e8 0c 00                        |    ....        |      [2]: "1976-05-01T00:00:00Z" (199756800) transition_time 0x34-0x38 (4)
0x030|                        0c 61 47 f0            |        .aG.    |      [3]: "1976-07-31T23:00:00Z" (207702000) transition_time 0x38-0x3c (4)
0x030|                                    0d c9 3f 80|            ..?.|      [4]: "1977-05-01T00:00:00Z" (231292800) transition_time 0x3c-0x40 (4)
0x040|0e 8e f2 70                                    |...p            |      [5]: "1977-09-27T23:00:00Z" (244249200) transition_time 0x40-0x44 (4)
0x040|            0f d3 51 80                        |    ..Q.        |      [6]: "1978-06-01T00:00:00Z" (265507200) transition_time 0x44-0x48 (4)
0x040|                        10 27 a3 70            |        .'.p    |      [7]: "1978-08-03T23:00:00Z" (271033200) transition_time 0x48-0x4c (4)
0x040|                                    48 41 e6 80|            HA..|      [8]: "2008-06-01T00:00:00Z" (1212278400) transition_time 0x4c-0x50 (4)
0x050|48 bb 22 70                                    |H."p            |      [9]: "2008-08-31T23:00:00Z" (1220223600) transition_time 0x50-0x54 (4)
0x050|            4a 23 1a 00                        |    J#..        |      [10]: "2009-06-01T00:00:00Z" (1243814400) transition_time 0x54-0x58 (4)
0x050|                        4a 8d d5 70            |        J..p    |      [11]: "2009-08-20T23:00:00Z" (1250809200) transition_time 0x58-0x5c (4)
0x050|                                    4b dc c0 80|            K...|      [12]: "2010-05-02T00:00:00Z" (1272758400) transition_time 0x5c-0x60 (4)
0x060|4c 5d e5 70                                    |L].p            |      [13]: "2010-08-07T23:00:00Z" (1281222000) transition_time 0x60-0x64 (4)
0x060|            4d 97 b8 80                        |    M...        |      [14]: "2011-04-03T00:00:00Z" (1301788800) transition_time 0x64-0x68 (4)
0x060|                        4e 34 8c f0            |        N4..    |      [15]: "2011-07-30T23:00:00Z" (1312066800) transition_time 0x68-0x6c (4)
0x060|                                    4f 9c a0 a0|            O...|      [16]: "2012-04-29T02:00:00Z" (1335664800) transition_time 0x6c-0x70 (4)
0x070|50 08 bb a0                                    |P...            |      [17]: "2012-07-20T02:00:00Z" (1342749600) transition_time 0x70-0x74 (4)
0x070|            50 31 9a 20                        |    P1.         |      [18]: "2012-08-20T02:00:00Z" (1345428000) transition_time 0x74-0x78 (4)
0x070|                        50 67 a7 a0            |        Pg..    |      [19]: "2012-09-30T02:00:00Z" (1348970400) transition_time 0x78-0x7c (4)
0x070|                                    51 7c 82 a0|            Q|..|      [20]: "2013-04-28T02:00:00Z" (1367114400) transition_time 0x7c-0x80 (4)
0x080|51 d8 cb a0                                    |Q...            |      [21]: "2013-07-07T02:00:00Z" (1373162400) transition_time 0x80-0x84 (4)
0x080|            52 05 9e a0                        |    R...        |      [22]: "2013-08-10T02:00:00Z" (1376100000) transition_time 0x84-0x88 (4)
0x080|                        52 6c 73 a0            |        Rls.    |      [23]: "2013-10-27T02:00:00Z" (1382839200) transition_time 0x88-0x8c (4)
0x080|                                    53 37 7a a0|            S7z.|      [24]: "2014-03-30T02:00:00Z" (1396144800) transition_time 0x8c-0x90 (4)
0x090|53 ae 21 a0                                    |S.!.            |      [25]: "2014-06-28T02:00:00Z" (1403920800) transition_time 0x90-0x94 (4)
0x090|            53 dc 46 20                        |    S.F         |      [26]: "2014-08-02T02:00:00Z" (1406944800) transition_time 0x94-0x98 (4)
0x090|                        54 4c 55 a0            |        TLU.    |      [27]: "2014-10-26T02:00:00Z" (1414288800) transition_time 0x98-0x9c (4)
0x090|                                    55 17 5c a0|            U.\.|      [28]: "2015-03-29T02:00:00Z" (1427594400) transition_time 0x9c-0xa0 (4)
0x0a0|55 7c e0 20                                    |U|.             |      [29]: "2015-06-14T02:00:00Z" (1434247200) transition_time 0xa0-0xa4 (4)
0x0a0|            55 ab 04 a0                        |    U...        |      [30]: "2015-07-19T02:00:00Z" (1437271200) transition_time 0xa4-0xa8 (4)
0x0a0|                        56 2c 37 a0            |        V,7.    |      [31]: "2015-10-25T02:00:00Z" (1445738400) transition_time 0xa8-0xac (4)
0x0a0|                                    56 f7 3e a0|            V.>.|      [32]: "2016-03-27T02:00:00Z" (1459044000) transition_time 0xac-0xb0 (4)
0x0b0|57 53 87 a0                                    |WS..            |      [33]: "2016-06-05T02:00:00Z" (1465092000) transition_time 0xb0-0xb4 (4)
0x0b0|            57 81 ac 20                        |    W..         |      [34]: "2016-07-10T02:00:00Z" (1468116000) transition_time 0xb4-0xb8 (4)
0x0b0|                        58 15 54 20            |        X.T     |      [35]: "2016-10-30T02:00:00Z" (1477792800) transition_time 0xb8-0xbc (4)
0x0b0|                                    58 d7 20 a0|            X. .|      [36]: "2017-03-26T02:00:00Z" (1490493600) transition_time 0xbc-0xc0 (4)
0x0c0|59 20 f4 a0                                    |Y ..            |      [37]: "2017-05-21T02:00:00Z" (1495332000) transition_time 0xc0-0xc4 (4)
0x0c0|            59 58 53 a0                        |    YXS.        |      [38]: "2017-07-02T02:00:00Z" (1498960800) transition_time 0xc4-0xc8 (4)
0x0c0|                        59 f5 36 20            |        Y.6     |      [39]: "2017-10-29T02:00:00Z" (1509242400) transition_time 0xc8-0xcc (4)
0x0c0|                                    5a b7 02 a0|            Z...|      [40]: "2018-03-25T02:00:00Z" (1521943200) transition_time 0xcc-0xd0 (4)
0x0d0|5a f7 9c 20                                    |Z..             |      [41]: "2018-05-13T02:00:00Z" (1526176800) transition_time 0xd0-0xd4 (4)
0x0d0|            5b 25 c0 a0                        |    [%..        |      [42]: "2018-06-17T02:00:00Z" (1529200800) transition_time 0xd4-0xd8 (4)
0x0d0|                        5b d5 18 20            |        [..     |      [43]: "2018-10-28T02:00:00Z" (1540692000) transition_time 0xd8-0xdc (4)
0x0d0|                                    5c ce 43 a0|            \.C.|      [44]: "2019-05-05T02:00:00Z" (1557021600) transition_time 0xdc-0xe0 (4)
0x0e0|5c fc 68 20                                    |\.h             |      [45]: "2019-06-09T02:00:00Z" (1560045600) transition_time 0xe0-0xe4 (4)
0x0e0|            5e 9b b0 a0                        |    ^...        |      [46]: "2020-04-19T02:00:00Z" (1587261600) transition_time 0xe4-0xe8 (4)
0x0e0|                        5e d3 0f a0            |        ^...    |      [47]: "2020-05-31T02:00:00Z" (1590890400) transition_time 0xe8-0xec (4)
0x0e0|                                    60 72 58 20|            `rX |      [48]: "2021-04-11T02:00:00Z" (1618106400) transition_time 0xec-0xf0 (4)
0x0f0|60 a0 7c a0                                    |`.|.            |      [49]: "2021-05-16T02:00:00Z" (1621130400) transition_time 0xf0-0xf4 (4)
0x0f0|            62 3f c5 20                        |    b?.         |      [50]: "2022-03-27T02:00:00Z" (1648346400) transition_time 0xf4-0xf8 (4)
0x0f0|                        62 77 24 20            |        bw$     |      [51]: "2022-05-08T02:00:00Z" (1651975200) transition_time 0xf8-0xfc (4)
0x0f0|                                    64 16 6c a0|            d.l.|      [52]: "2023-03-19T02:00:00Z" (1679191200) transition_time 0xfc-0x100 (4)
0x100|64 4d cb a0                                    |dM..            |      [53]: "2023-04-30T02:00:00Z" (1682820000) transition_time 0x100-0x104 (4)
0x100|            65 ed 14 20                        |    e..         |      [54]: "2024-03-10T02:00:00Z" (1710036000) transition_time 0x104-0x108 (4)
0x100|                        66 1b 38 a0            |        f.8.    |      [55]: "2024-04-14T02:00:00Z" (1713060000) transition_time 0x108-0x10c (4)
0x100|                                    67 ba 81 20|            g.. |      [56]: "2025-02-23T02:00:00Z" (1740276000) transition_time 0x10c-0x110 (4)
0x110|67 f1 e0 20                                    |g..             |      [57]: "2025-04-06T02:00:00Z" (1743904800) transition_time 0x110-0x114 (4)
0x110|            69 91 28 a0                        |    i.(.        |      [58]: "2026-02-15T02:00:00Z" (1771120800) transition_time 0x114-0x118 (4)
0x110|                        69 bf 4d 20            |        i.M     |      [59]: "2026-03-22T02:00:00Z" (1774144800) transition_time 0x118-0x11c (4)
0x110|                                    6b 67 d0 20|            kg. |      [60]: "2027-02-07T02:00:00Z" (1801965600) transition_time 0x11c-0x120 (4)
0x120|6b 95 f4 a0                                    |k...            |      [61]: "2027-03-14T02:00:00Z" (1804989600) transition_time 0x120-0x124 (4)
0x120|            6d 35 3d 20                        |    m5=         |      [62]: "2028-01-23T02:00:00Z" (1832205600) transition_time 0x124-0x128 (4)
0x120|                        6d 6c 9c 20            |        ml.     |      [63]: "2028-03-05T02:00:00Z" (1835834400) transition_time 0x128-0x12c (4)
0x120|                                    6f 0b e4 a0|            o...|      [64]: "2029-01-14T02:00:00Z" (1863050400) transition_time 0x12c-0x130 (4)
0x130|6f 3a 09 20                                    |o:.             |      [65]: "2029-02-18T02:00:00Z" (1866074400) transition_time 0x130-0x134 (4)
0x130|            70 d9 51 a0                        |    p.Q.        |      [66]: "2029-12-30T02:00:00Z" (1893290400) transition_time 0x134-0x138 (4)
0x130|                        71 10 b0 a0            |        q...    |      [67]: "2030-02-10T02:00:00Z" (1896919200) transition_time 0x138-0x13c (4)
0x130|                                    72 af f9 20|            r.. |      [68]: "2030-12-22T02:00:00Z" (1924135200) transition_time 0x13c-0x140 (4)
0x140|72 e7 58 20                                    |r.X             |      [69]: "2031-02-02T02:00:00Z" (1927764000) transition_time 0x140-0x144 (4)
0x140|            74 86 a0 a0                        |    t...        |      [70]: "2031-12-14T02:00:00Z" (1954980000) transition_time 0x144-0x148 (4)
0x140|                        74 b4 c5 20            |        t..     |      [71]: "2032-01-18T02:00:00Z" (1958004000) transition_time 0x148-0x14c (4)
0x140|                                    76 54 0d a0|            vT..|      [72]: "2032-11-28T02:00:00Z" (1985220000) transition_time 0x14c-0x150 (4)
0x150|76 8b 6c a0                                    |v.l.            |      [73]: "2033-01-09T02:00:00Z" (1988848800) transition_time 0x150-0x154 (4)
0x150|            78 2a b5 20                        |    x*.         |      [74]: "2033-11-20T02:00:00Z" (2016064800) transition_time 0x154-0x158 (4)
0x150|                        78 58 d9 a0            |        xX..    |      [75]: "2033-12-25T02:00:00Z" (2019088800) transition_time 0x158-0x15c (4)
0x150|                                    79 f8 22 20|            y." |      [76]: "2034-11-05T02:00:00Z" (2046304800) transition_time 0x15c-0x160 (4)
0x160|7a 2f 81 20                                    |z/.             |      [77]: "2034-12-17T02:00:00Z" (2049933600) transition_time 0x160-0x164 (4)
0x160|            7b ce c9 a0                        |    {...        |      [78]: "2035-10-28T02:00:00Z" (2077149600) transition_time 0x164-0x168 (4)
0x160|                        7c 06 28 a0            |        |.(.    |      [79]: "2035-12-09T02:00:00Z" (2080778400) transition_time 0x168-0x16c (4)
0x160|                                    7d a5 71 20|            }.q |      [80]: "2036-10-19T02:00:00Z" (2107994400) transition_time 0x16c-0x170 (4)
0x170|7d d3 95 a0                                    |}...            |      [81]: "2036-11-23T02:00:00Z" (2111018400) transition_time 0x170-0x174 (4)
0x170|            7f 72 de 20                        |    .r.         |      [82]: "2037-10-04T02:00:00Z" (2138234400) transition_time 0x174-0x178 (4)
0x170|                        7f aa 3d 20            |        ..=     |      [83]: "2037-11-15T02:00:00Z" (2141863200) transition_time 0x178-0x17c (4)
     |                                               |                |    transition_types[0:84]: 0x17c-0x1d0 (84)
0x170|                                    01         |            .   |      [0]: 1 transition_type 0x17c-0x17d (1)
0x170|                                       03      |             .  |      [1]: 3 transition_type 0x17d-0x17e (1)
0x170|                                          02   |              . |      [2]: 2 transition_type 0x17e-0x17f (1)
0x170|                                             03|               .|      [3]: 3 transition_type 0x17f-0x180 (1)
0x180|02                                             |.               |      [4]: 2 transition_type 0x180-0x181 (1)
0x180|   03                                          | .              |      [5]: 3 transition_type 0x181-0x182 (1)
0x180|      02                                       |  .             |      [6]: 2 transition_type 0x182-0x183 (1)
0x180|         03                                    |   .            |      [7]: 3 transition_type 0x183-0x184 (1)
0x180|            02                                 |    .           |      [8]: 2 transition_type 0x184-0x185 (1)
0x180|               03                              |     .          |      [9]: 3 transition_type 0x185-0x186 (1)
0x180|                  02                           |      .         |      [10]: 2 transition_type 0x186-0x187 (1)
0x180|                     03                        |       .        |      [11]: 3 transition_type 0x187-0x188 (1)
0x180|                        02                     |        .       |      [12]: 2 transition_type 0x188-0x189 (1)
0x180|                           03                  |         .      |      [13]: 3 transition_type 0x189-0x18a (1)
0x180|                              02               |          .     |      [14]: 2 transition_type 0x18a-0x18b (1)
0x180|                                 03            |           .    |      [15]: 3 transition_type 0x18b-0x18c (1)
0x180|                                    02         |            .   |      [16]: 2 transition_type 0x18c-0x18d (1)
0x180|                                       03      |             .  |      [17]: 3 transition_type 0x18d-0x18e (1)
0x180|                                          02   |              . |      [18]: 2 transition_type 0x18e-0x18f (1)
0x180|                                             03|               .|      [19]: 3 transition_type 0x18f-0x190 (1)
0x190|02                                             |.               |      [20]: 2 transition_type 0x190-0x191 (1)
0x190|   03                                          | .              |      [21]: 3 transition_type 0x191-0x192 (1)
0x190|      02                                       |  .             |      [22]: 2 transition_type 0x192-0x193 (1)
0x190|         03                                    |   .            |      [23]: 3 transition_type 0x193-0x194 (1)
0x190|            02                                 |    .           |      [24]: 2 transition_type 0x194-0x195 (1)
0x190|               03                              |     .          |      [25]: 3 transition_type 0x195-0x196 (1)
0x190|                  02                           |      .         |      [26]: 2 transition_type 0x196-0x197 (1)
0x190|                     03                        |       .        |      [27]: 3 transition_type 0x197-0x198 (1)
0x190|                        02                     |        .       |      [28]: 2 transition_type 0x198-0x199 (1)
0x190|                           03                  |         .      |      [29]: 3 transition_type 0x199-0x19a (1)
0x190|                              02               |          .     |      [30]: 2 transition_type 0x19a-0x19b (1)
0x190|                                 03            |           .    |      [31]: 3 transition_type 0x19b-0x19c (1)
0x190|                                    02         |            .   |      [32]: 2 transition_type 0x19c-0x19d (1)
0x190|                                       03      |             .  |      [33]: 3 transition_type 0x19d-0x19e (1)
0x190|                                          02   |              . |      [34]: 2 transition_type 0x19e-0x19f (1)
0x190|                                             03|               .|      [35]: 3 transition_type 0x19f-0x1a0 (1)
0x1a0|02                                             |.               |      [36]: 2 transition_type 0x1a0-0x1a1 (1)
0x1a0|   03                                          | .              |      [37]: 3 transition_type 0x1a1-0x1a2 (1)
0x1a0|      02                                       |  .             |      [38]: 2 transition_type 0x1a2-0x1a3 (1)
0x1a0|         03                                    |   .            |      [39]: 3 transition_type 0x1a3-0x1a4 (1)
0x1a0|            02                                 |    .           |      [40]: 2 transition_type 0x1a4-0x1a5 (1)
0x1a0|               03                              |     .          |      [41]: 3 transition_type 0x1a5-0x1a6 (1)
0x1a0|                  02                           |      .         |      [42]: 2 transition_type 0x1a6-0x1a7 (1)
0x1a0|                     05                        |       .        |      [43]: 5 transition_type 0x1a7-0x1a8 (1)
0x1a0|                        04                     |        .       |      [44]: 4 transition_type 0x1a8-0x1a9 (1)
0x1a0|                           05                  |         .      |      [45]: 5 transition_type 0x1a9-0x1aa (1)
0x1a0|                              04               |          .     |      [46]: 4 transition_type 0x1aa-0x1ab (1)
0x1a0|                                 05            |           .    |      [47]: 5 transition_type 0x1ab-0x1ac (1)
0x1a0|                                    04         |            .   |      [48]: 4 transition_type 0x1ac-0x1ad (1)
0x1a0|                                       05      |             .  |      [49]: 5 transition_type 0x1ad-0x1ae (1)
0x1a0|                                          04   |              . |      [50]: 4 transition_type 0x1ae-0x1af (1)
0x1a0|                                             05|               .|      [51]: 5 transition_type 0x1af-0x1b0 (1)
0x1b0|04                                             |.               |      [52]: 4 transition_type 0x1b0-0x1b1 (1)
0x1b0|   05                                          | .              |      [53]: 5 transition_type 0x1b1-0x1b2 (1)
0x1b0|      04                                       |  .             |      [54]: 4 transition_type 0x1b2-0x1b3 (1)
0x1b0|         05                                    |   .            |      [55]: 5 transition_type 0x1b3-0x1b4 (1)
0x1b0|            04                                 |    .           |      [56]: 4 transition_type 0x1b4-0x1b5 (1)
0x1b0|               05                              |     .          |      [57]: 5 transition_type 0x1b5-0x1b6 (1)
0x1b0|                  04                           |      .         |      [58]: 4 transition_type 0x1b6-0x1b7 (1)
0x1b0|                     05                        |       .        |      [59]: 5 transition_type 0x1b7-0x1b8 (1)
0x1b0|                        04                     |        .       |      [60]: 4 transition_type 0x1b8-0x1b9 (1)
0x1b0|                           05                  |         .      |      [61]: 5 transition_type 0x1b9-0x1ba (1)
0x1b0|                              04               |          .     |      [62]: 4 transition_type 0x1ba-0x1bb (1)
0x1b0|                                 05            |           .    |      [63]: 5 transition_type 0x1bb-0x1bc (1)
0x1b0|                                    04         |            .   |      [64]: 4 transition_type 0x1bc-0x1bd (1)
0x1b0|                                       05      |             .  |      [65]: 5 transition_type 0x1bd-0x1be (1)
0x1b0|                                          04   |              . |      [66]: 4 transition_type 0x1be-0x1bf (1)
0x1b0|                                             05|               .|      [67]: 5 transition_type 0x1bf-0x1c0 (1)
0x1c0|04                                             |.               |      [68]: 4 transition_type 0x1c0-0x1c1 (1)
0x1c0|   05                                          | .              |      [69]: 5 transition_type 0x1c1-0x1c2 (1)
0x1c0|      04                                       |  .             |      [70]: 4 transition_type 0x1c2-0x1c3 (1)
0x1c0|         05                                    |   .            |      [71]: 5 transition_type 0x1c3-0x1c4 (1)
0x1c0|            04                                 |    .           |      [72]: 4 transition_type 0x1c4-0x1c5 (1)
0x1c0|               05                              |     .          |      [73]: 5 transition_type 0x1c5-0x1c6 (1)
0x1c0|                  04                           |      .         |      [74]: 4 transition_type 0x1c6-0x1c7 (1)
0x1c0|                     05                        |       .        |      [75]: 5 transition_type 0x1c7-0x1c8 (1)
0x1c0|                        04                     |        .       |      [76]: 4 transition_type 0x1c8-0x1c9 (1)
0x1c0|                           05                  |         .      |      [77]: 5 transition_type 0x1c9-0x1ca (1)
0x1c0|                              04               |          .     |      [78]: 4 transition_type 0x1ca-0x1cb (1)
0x1c0|                                 05            |           .    |      [79]: 5 transition_type 0x1cb-0x1cc (1)
0x1c0|                                    04         |            .   |      [80]: 4 transition_type 0x1cc-0x1cd (1)
0x1c0|                                       05      |             .  |      [81]: 5 transition_type 0x1cd-0x1ce (1)
0x1c0|                                          04   |              . |      [82]: 4 transition_type 0x1ce-0x1cf (1)
0x1c0|                                             05|               .|      [83]: 5 transition_type 0x1cf-0x1d0 (1)
     |                                               |                |    local_time_type_records[0:6]: 0x1d0-0x1f4 (36)
     |                                               |                |      [0]{}: local_time_type 0x1d0-0x1d6 (6)
0x1d0|ff ff f3 a0                                    |....            |        utoff: -3168 (valid) 0x1d0-0x1d4 (4)
0x1d0|            00                                 |    .           |        dst: 0 (valid) 0x1d4-0x1d5 (1)
0x1d0|               00                              |     .          |        idx: 0 (valid) 0x1d5-0x1d6 (1)
     |                                               |                |      [1]{}: local_time_type 0x1d6-0x1dc (6)
0x1d0|                  ff ff f1 f0                  |      ....      |        utoff: -3600 (valid) 0x1d6-0x1da (4)
0x1d0|                              00               |          .     |        dst: 0 (valid) 0x1da-0x1db (1)
0x1d0|                                 04            |           .    |        idx: 4 (valid) 0x1db-0x1dc (1)
     |                                               |                |      [2]{}: local_time_type 0x1dc-0x1e2 (6)
0x1d0|                                    00 00 0e 10|            ....|        utoff: 3600 (valid) 0x1dc-0x1e0 (4)
0x1e0|01                                             |.               |        dst: 1 (valid) 0x1e0-0x1e1 (1)
0x1e0|   08                                          | .              |        idx: 8 (valid) 0x1e1-0x1e2 (1)
     |                                               |                |      [3]{}: local_time_type 0x1e2-0x1e8 (6)
0x1e0|      00 00 00 00                              |  ....          |        utoff: 0 (valid) 0x1e2-0x1e6 (4)
0x1e0|                  00                           |      .         |        dst: 0 (valid) 0x1e6-0x1e7 (1)
0x1e0|                     0c                        |       .        |        idx: 12 (valid) 0x1e7-0x1e8 (1)
     |                                               |                |      [4]{}: local_time_type 0x1e8-0x1ee (6)
0x1e0|                        00 00 00 00            |        ....    |        utoff: 0 (valid) 0x1e8-0x1ec (4)
0x1e0|                                    01         |            .   |        dst: 1 (valid) 0x1ec-0x1ed (1)
0x1e0|                                       0c      |             .  |        idx: 12 (valid) 0x1ed-0x1ee (1)
     |                                               |                |      [5]{}: local_time_type 0x1ee-0x1f4 (6)
0x1e0|                                          00 00|              ..|        utoff: 3600 (valid) 0x1ee-0x1f2 (4)
0x1f0|0e 10                                          |..              |
0x1f0|      00                                       |  .             |        dst: 0 (valid) 0x1f2-0x1f3 (1)
0x1f0|         08                                    |   .            |        idx: 8 (valid) 0x1f3-0x1f4 (1)
     |                                               |                |    time_zone_designations[0:4]: 0x1f4-0x204 (16)
0x1f0|            4c 4d 54 00                        |    LMT.        |      [0]: "LMT" time_zone_designation 0x1f4-0x1f8 (4)
0x1f0|                        2d 30 31 00            |        -01.    |      [1]: "-01" time_zone_designation 0x1f8-0x1fc (4)
0x1f0|                                    2b 30 31 00|            +01.|      [2]: "+01" time_zone_designation 0x1fc-0x200 (4)
0x200|2b 30 30 00                                    |+00.            |      [3]: "+00" time_zone_designation 0x200-0x204 (4)
     |                                               |                |    leap_second_records[0:0]: 0x204-0x204 (0)
     |                                               |                |    standard_wall_indicators[0:0]: 0x204-0x204 (0)
     |                                               |                |    ut_local_indicators[0:0]: 0x204-0x204 (0)
     |                                               |                |  v2plusheader{}: 0x204-0x230 (44)
0x200|            54 5a 69 66                        |    TZif        |    magic: 0x545a6966 (valid) 0x204-0x208 (4)
0x200|                        32                     |        2       |    ver: "2" (0x32) (valid) 0x208-0x209 (1)
0x200|                           00 00 00 00 00 00 00|         .......|    reserved: raw bits 0x209-0x218 (15)
0x210|00 00 00 00 00 00 00 00                        |........        |
0x210|                        00 00 00 00            |        ....    |    isutcnt: 0 0x218-0x21c (4)
0x210|                                    00 00 00 00|            ....|    isstdcnt: 0 0x21c-0x220 (4)
0x220|00 00 00 00                                    |....            |    leapcnt: 0 0x220-0x224 (4)
0x220|            00 00 00 ba                        |    ....        |    timecnt: 186 0x224-0x228 (4)
0x220|                        00 00 00 06            |        ....    |    typecnt: 6 0x228-0x22c (4)
0x220|                                    00 00 00 10|            ....|    charcnt: 16 0x22c-0x230 (4)
     |                                               |                |  v2plusdatablock{}: 0x230-0x8ee (1726)
     |                                               |                |    transition_times[0:186]: 0x230-0x800 (1488)
0x230|ff ff ff ff bc 48 f0 e0                        |.....H..        |      [0]: "1934-01-01T00:52:48Z" (-1136070432) transition_time 0x230-0x238 (8)
0x230|                        00 00 00 00 0b d1 b0 90|        ........|      [1]: "1976-04-14T01:00:00Z" (198291600) transition_time 0x238-0x240 (8)
0x240|00 00 00 00 0b e8 0c 00                        |........        |      [2]: "1976-05-01T00:00:00Z" (199756800) transition_time 0x240-0x248 (8)
0x240|                        00 00 00 00 0c 61 47 f0|        .....aG.|      [3]: "1976-07-31T23:00:00Z" (207702000) transition_time 0x248-0x250 (8)
0x250|00 00 00 00 0d c9 3f 80                        |......?.        |      [4]: "1977-05-01T00:00:00Z" (231292800) transition_time 0x250-0x258 (8)
0x250|                        00 00 00 00 0e 8e f2 70|        .......p|      [5]: "1977-09-27T23:00:00Z" (244249200) transition_time 0x258-0x260 (8)
0x260|00 00 00 00 0f d3 51 80                        |......Q.        |      [6]: "1978-06-01T00:00:00Z" (265507200) transition_time 0x260-0x268 (8)
0x260|                        00 00 00 00 10 27 a3 70|        .....'.p|      [7]: "1978-08-03T23:00:00Z" (271033200) transition_time 0x268-0x270 (8)
0x270|00 00 00 00 48 41 e6 80                        |....HA..        |      [8]: "2008-06-01T00:00:00Z" (1212278400) transition_time 0x270-0x278 (8)
0x270|                        00 00 00 00 48 bb 22 70|        ....H."p|      [9]: "2008-08-31T23:00:00Z" (1220223600) transition_time 0x278-0x280 (8)
0x280|00 00 00 00 4a 23 1a 00                        |....J#..        |      [10]: "2009-06-01T00:00:00Z" (1243814400) transition_time 0x280-0x288 (8)
0x280|                        00 00 00 00 4a 8d d5 70|        ....J..p|      [11]: "2009-08-20T23:00:00Z" (1250809200) transition_time 0x288-0x290 (8)
0x290|00 00 00 00 4b dc c0 80                        |....K...        |      [12]: "2010-05-02T00:00:00Z" (1272758400) transition_time 0x290-0x298 (8)
0x290|                        00 00 00 00 4c 5d e5 70|        ....L].p|      [13]: "2010-08-07T23:00:00Z" (1281222000) transition_time 0x298-0x2a0 (8)
0x2a0|00 00 00 00 4d 97 b8 80                        |....M...        |      [14]: "2011-04-03T00:00:00Z" (1301788800) transition_time 0x2a0-0x2a8 (8)
0x2a0|                        00 00 00 00 4e 34 8c f0|        ....N4..|      [15]: "2011-07-30T23:00:00Z" (1312066800) transition_time 0x2a8-0x2b0 (8)
0x2b0|00 00 00 00 4f 9c a0 a0                        |....O...        |      [16]: "2012-04-29T02:00:00Z" (1335664800) transition_time 0x2b0-0x2b8 (8)
0x2b0|                        00 00 00 00 50 08 bb a0|        ....P...|      [17]: "2012-07-20T02:00:00Z" (1342749600) transition_time 0x2b8-0x2c0 (8)
0x2c0|00 00 00 00 50 31 9a 20                        |....P1.         |      [18]: "2012-08-20T02:00:00Z" (1345428000) transition_time 0x2c0-0x2c8 (8)
0x2c0|                        00 00 00 00 50 67 a7 a0|        ....Pg..|      [19]: "2012-09-30T02:00:00Z" (1348970400) transition_time 0x2c8-0x2d0 (8)
0x2d0|00 00 00 00 51 7c 82 a0                        |....Q|..        |      [20]: "2013-04-28T02:00:00Z" (1367114400) transition_time 0x2d0-0x2d8 (8)
0x2d0|                        00 00 00 00 51 d8 cb a0|        ....Q...|      [21]: "2013-07-07T02:00:00Z" (1373162400) transition_time 0x2d8-0x2e0 (8)
0x2e0|00 00 00 00 52 05 9e a0                        |....R...        |      [22]: "2013-08-10T02:00:00Z" (1376100000) transition_time 0x2e0-0x2e8 (8)
0x2e0|                        00 00 00 00 52 6c 73 a0|        ....Rls.|      [23]: "2013-10-27T02:00:00Z" (1382839200) transition_time 0x2e8-0x2f0 (8)
0x2f0|00 00 00 00 53 37 7a a0                        |....S7z.        |      [24]: "2014-03-30T02:00:00Z" (1396144800) transition_time 0x2f0-0x2f8 (8)
0x2f0|                        00 00 00 00 53 ae 21 a0|        ....S.!.|      [25]: "2014-06-28T02:00:00Z" (1403920800) transition_time 0x2f8-0x300 (8)
0x300|00 00 00 00 53 dc 46 20                        |....S.F         |      [26]: "2014-08-02T02:00:00Z" (1406944800) transition_time 0x300-0x308 (8)
0x300|                        00 00 00 00 54 4c 55 a0|        ....TLU.|      [27]: "2014-10-26T02:00:00Z" (1414288800) transition_time 0x308-0x310 (8)
0x310|00 00 00 00 55 17 5c a0                        |....U.\.        |      [28]: "2015-03-29T02:00:00Z" (1427594400) transition_time 0x310-0x318 (8)
0x310|                        00 00 00 00 55 7c e0 20|        ....U|. |      [29]: "2015-06-14T02:00:00Z" (1434247200) transition_time 0x318-0x320 (8)
0x320|00 00 00 00 55 ab 04 a0                        |....U...        |      [30]: "2015-07-19T02:00:00Z" (1437271200) transition_time 0x320-0x328 (8)
0x320|                        00 00 00 00 56 2c 37 a0|        ....V,7.|      [31]: "2015-10-25T02:00:00Z" (1445738400) transition_time 0x328-0x330 (8)
0x330|00 00 00 00 56 f7 3e a0                        |....V.>.        |      [32]: "2016-03-27T02:00:00Z" (1459044000) transition_time 0x330-0x338 (8)
0x330|                        00 00 00 00 57 53 87 a0|        ....WS..|      [33]: "2016-06-05T02:00:00Z" (1465092000) transition_time 0x338-0x340 (8)
0x340|00 00 00 00 57 81 ac 20                        |....W..         |      [34]: "2016-07-10T02:00:00Z" (1468116000) transition_time 0x340-0x348 (8)
0x340|                        00 00 00 00 58 15 54 20|        ....X.T |      [35]: "2016-10-30T02:00:00Z" (1477792800) transition_time 0x348-0x350 (8)
0x350|00 00 00 00 58 d7 20 a0                        |....X. .        |      [36]: "2017-03-26T02:00:00Z" (1490493600) transition_time 0x350-0x358 (8)
0x350|                        00 00 00 00 59 20 f4 a0|        ....Y ..|      [37]: "2017-05-21T02:00:00Z" (1495332000) transition_time 0x358-0x360 (8)
0x360|00 00 00 00 59 58 53 a0                        |....YXS.        |      [38]: "2017-07-02T02:00:00Z" (1498960800) transition_time 0x360-0x368 (8)
0x360|                        00 00 00 00 59 f5 36 20|        ....Y.6 |      [39]: "2017-10-29T02:00:00Z" (1509242400) transition_time 0x368-0x370 (8)
0x370|00 00 00 00 5a b7 02 a0                        |....Z...        |      [40]: "2018-03-25T02:00:00Z" (1521943200) transition_time 0x370-0x378 (8)
0x370|                        00 00 00 00 5a f7 9c 20|        ....Z.. |      [41]: "2018-05-13T02:00:00Z" (1526176800) transition_time 0x378-0x380 (8)
0x380|00 00 00 00 5b 25 c0 a0                        |....[%..        |      [42]: "2018-06-17T02:00:00Z" (1529200800) transition_time 0x380-0x388 (8)
0x380|                        00 00 00 00 5b d5 18 20|        ....[.. |      [43]: "2018-10-28T02:00:00Z" (1540692000) transition_time 0x388-0x390 (8)
0x390|00 00 00 00 5c ce 43 a0                        |....\.C.        |      [44]: "2019-05-05T02:00:00Z" (1557021600) transition_time 0x390-0x398 (8)
0x390|                        00 00 00 00 5c fc 68 20|        ....\.h |      [45]: "2019-06-09T02:00:00Z" (1560045600) transition_time 0x398-0x3a0 (8)
0x3a0|00 00 00 00 5e 9b b0 a0                        |....^...        |      [46]: "2020-04-19T02:00:00Z" (1587261600) transition_time 0x3a0-0x3a8 (8)
0x3a0|                        00 00 00 00 5e d3 0f a0|        ....^...|      [47]: "2020-05-31T02:00:00Z" (1590890400) transition_time 0x3a8-0x3b0 (8)
0x3b0|00 00 00 00 60 72 58 20                        |....`rX         |      [48]: "2021-04-11T02:00:00Z" (1618106400) transition_time 0x3b0-0x3b8 (8)
0x3b0|                        00 00 00 00 60 a0 7c a0|        ....`.|.|      [49]: "2021-05-16T02:00:00Z" (1621130400) transition_time 0x3b8-0x3c0 (8)
0x3c0|00 00 00 00 62 3f c5 20                        |....b?.         |      [50]: "2022-03-27T02:00:00Z" (1648346400) transition_time 0x3c0-0x3c8 (8)
0x3c0|                        00 00 00 00 62 77 24 20|        ....bw$ |      [51]: "2022-05-08T02:00:00Z" (1651975200) transition_time 0x3c8-0x3d0 (8)
0x3d0|00 00 00 00 64 16 6c a0                        |....d.l.        |      [52]: "2023-03-19T02:00:00Z" (1679191200) transition_time 0x3d0-0x3d8 (8)
0x3d0|                        00 00 00 00 64 4d cb a0|        ....dM..|      [53]: "2023-04-30T02:00:00Z" (1682820000) transition_time 0x3d8-0x3e0 (8)
0x3e0|00 00 00 00 65 ed 14 20                        |....e..         |      [54]: "2024-03-10T02:00:00Z" (1710036000) transition_time 0x3e0-0x3e8 (8)
0x3e0|                        00 00 00 00 66 1b 38 a0|        ....f.8.|      [55]: "2024-04-14T02:00:00Z" (1713060000) transition_time 0x3e8-0x3f0 (8)
0x3f0|00 00 00 00 67 ba 81 20                        |....g..         |      [56]: "2025-02-23T02:00:00Z" (1740276000) transition_time 0x3f0-0x3f8 (8)
0x3f0|                        00 00 00 00 67 f1 e0 20|        ....g.. |      [57]: "2025-04-06T02:00:00Z" (1743904800) transition_time 0x3f8-0x400 (8)
0x400|00 00 00 00 69 91 28 a0                        |....i.(.        |      [58]: "2026-02-15T02:00:00Z" (1771120800) transition_time 0x400-0x408 (8)
0x400|                        00 00 00 00 69 bf 4d 20|        ....i.M |      [59]: "2026-03-22T02:00:00Z" (1774144800) transition_time 0x408-0x410 (8)
0x410|00 00 00 00 6b 67 d0 20                        |....kg.         |      [60]: "2027-02-07T02:00:00Z" (1801965600) transition_time 0x410-0x418 (8)
0x410|                        00 00 00 00 6b 95 f4 a0|        ....k...|      [61]: "2027-03-14T02:00:00Z" (1804989600) transition_time 0x418-0x420 (8)
0x420|00 00 00 00 6d 35 3d 20                        |....m5=         |      [62]: "2028-01-23T02:00:00Z" (1832205600) transition_time 0x420-0x428 (8)
0x420|                        00 00 00 00 6d 6c 9c 20|        ....ml. |      [63]: "2028-03-05T02:00:00Z" (1835834400) transition_time 0x428-0x430 (8)
0x430|00 00 00 00 6f 0b e4 a0                        |....o...        |      [64]: "2029-01-14T02:00:00Z" (1863050400) transition_time 0x430-0x438 (8)
0x430|                        00 00 00 00 6f 3a 09 20|        ....o:. |      [65]: "2029-02-18T02:00:00Z" (1866074400) transition_time 0x438-0x440 (8)
0x440|00 00 00 00 70 d9 51 a0                        |....p.Q.        |      [66]: "2029-12-30T02:00:00Z" (1893290400) transition_time 0x440-0x448 (8)
0x440|                        00 00 00 00 71 10 b0 a0|        ....q...|      [67]: "2030-02-10T02:00:00Z" (1896919200) transition_time 0x448-0x450 (8)
0x450|00 00 00 00 72 af f9 20                        |....r..         |      [68]: "2030-12-22T02:00:00Z" (1924135200) transition_time 0x450-0x458 (8)
0x450|                        00 00 00 00 72 e7 58 20|        ....r.X |      [69]: "2031-02-02T02:00:00Z" (1927764000) transition_time 0x458-0x460 (8)
0x460|00 00 00 00 74 86 a0 a0                        |....t...        |      [70]: "2031-12-14T02:00:00Z" (1954980000) transition_time 0x460-0x468 (8)
0x460|                        00 00 00 00 74 b4 c5 20|        ....t.. |      [71]: "2032-01-18T02:00:00Z" (1958004000) transition_time 0x468-0x470 (8)
0x470|00 00 00 00 76 54 0d a0                        |....vT..        |      [72]: "2032-11-28T02:00:00Z" (1985220000) transition_time 0x470-0x478 (8)
0x470|                        00 00 00 00 76 8b 6c a0|        ....v.l.|      [73]: "2033-01-09T02:00:00Z" (1988848800) transition_time 0x478-0x480 (8)
0x480|00 00 00 00 78 2a b5 20                        |....x*.         |      [74]: "2033-11-20T02:00:00Z" (2016064800) transition_time 0x480-0x488 (8)
0x480|                        00 00 00 00 78 58 d9 a0|        ....xX..|      [75]: "2033-12-25T02:00:00Z" (2019088800) transition_time 0x488-0x490 (8)
0x490|00 00 00 00 79 f8 22 20                        |....y."         |      [76]: "2034-11-05T02:00:00Z" (2046304800) transition_time 0x490-0x498 (8)
0x490|                        00 00 00 00 7a 2f 81 20|        ....z/. |      [77]: "2034-12-17T02:00:00Z" (2049933600) transition_time 0x498-0x4a0 (8)
0x4a0|00 00 00 00 7b ce c9 a0                        |....{...        |      [78]: "2035-10-28T02:00:00Z" (2077149600) transition_time 0x4a0-0x4a8 (8)
0x4a0|                        00 00 00 00 7c 06 28 a0|        ....|.(.|      [79]: "2035-12-09T02:00:00Z" (2080778400) transition_time 0x4a8-0x4b0 (8)
0x4b0|00 00 00 00 7d a5 71 20                        |....}.q         |      [80]: "2036-10-19T02:00:00Z" (2107994400) transition_time 0x4b0-0x4b8 (8)
0x4b0|                        00 00 00 00 7d d3 95 a0|        ....}...|      [81]: "2036-11-23T02:00:00Z" (2111018400) transition_time 0x4b8-0x4c0 (8)
0x4c0|00 00 00 00 7f 72 de 20                        |.....r.         |      [82]: "2037-10-04T02:00:00Z" (2138234400) transition_time 0x4c0-0x4c8 (8)
0x4c0|                        00 00 00 00 7f aa 3d 20|        ......= |      [83]: "2037-11-15T02:00:00Z" (2141863200) transition_time 0x4c8-0x4d0 (8)
0x4d0|00 00 00 00 81 49 85 a0                        |.....I..        |      [84]: "2038-09-26T02:00:00Z" (2169079200) transition_time 0x4d0-0x4d8 (8)
0x4d0|                        00 00 00 00 81 80 e4 a0|        ........|      [85]: "2038-11-07T02:00:00Z" (2172708000) transition_time 0x4d8-0x4e0 (8)
0x4e0|00 00 00 00 83 20 2d 20                        |..... -         |      [86]: "2039-09-18T02:00:00Z" (2199924000) transition_time 0x4e0-0x4e8 (8)
0x4e0|                        00 00 00 00 83 4e 51 a0|        .....NQ.|      [87]: "2039-10-23T02:00:00Z" (2202948000) transition_time 0x4e8-0x4f0 (8)
0x4f0|00 00 00 00 84 ed 9a 20                        |.......         |      [88]: "2040-09-02T02:00:00Z" (2230164000) transition_time 0x4f0-0x4f8 (8)
0x4f0|                        00 00 00 00 85 24 f9 20|        .....$. |      [89]: "2040-10-14T02:00:00Z" (2233792800) transition_time 0x4f8-0x500 (8)
0x500|00 00 00 00 86 c4 41 a0                        |......A.        |      [90]: "2041-08-25T02:00:00Z" (2261008800) transition_time 0x500-0x508 (8)
0x500|                        00 00 00 00 86 f2 66 20|        ......f |      [91]: "2041-09-29T02:00:00Z" (2264032800) transition_time 0x508-0x510 (8)
0x510|00 00 00 00 88 91 ae a0                        |........        |      [92]: "2042-08-10T02:00:00Z" (2291248800) transition_time 0x510-0x518 (8)
0x510|                        00 00 00 00 88 c9 0d a0|        ........|      [93]: "2042-09-21T02:00:00Z" (2294877600) transition_time 0x518-0x520 (8)
0x520|00 00 00 00 8a 68 56 20                        |.....hV         |      [94]: "2043-08-02T02:00:00Z" (2322093600) transition_time 0x520-0x528 (8)
0x520|                        00 00 00 00 8a 9f b5 20|        ....... |      [95]: "2043-09-13T02:00:00Z" (2325722400) transition_time 0x528-0x530 (8)
0x530|00 00 00 00 8c 3e fd a0                        |.....>..        |      [96]: "2044-07-24T02:00:00Z" (2352938400) transition_time 0x530-0x538 (8)
0x530|                        00 00 00 00 8c 6d 22 20|        .....m" |      [97]: "2044-08-28T02:00:00Z" (2355962400) transition_time 0x538-0x540 (8)
0x540|00 00 00 00 8e 0c 6a a0                        |......j.        |      [98]: "2045-07-09T02:00:00Z" (2383178400) transition_time 0x540-0x548 (8)
0x540|                        00 00 00 00 8e 43 c9 a0|        .....C..|      [99]: "2045-08-20T02:00:00Z" (2386807200) transition_time 0x548-0x550 (8)
0x550|00 00 00 00 8f e3 12 20                        |.......         |      [100]: "2046-07-01T02:00:00Z" (2414023200) transition_time 0x550-0x558 (8)
0x550|                        00 00 00 00 90 1a 71 20|        ......q |      [101]: "2046-08-12T02:00:00Z" (2417652000) transition_time 0x558-0x560 (8)
0x560|00 00 00 00 91 b9 b9 a0                        |........        |      [102]: "2047-06-23T02:00:00Z" (2444868000) transition_time 0x560-0x568 (8)
0x560|                        00 00 00 00 91 e7 de 20|        ....... |      [103]: "2047-07-28T02:00:00Z" (2447892000) transition_time 0x568-0x570 (8)
0x570|00 00 00 00 93 87 26 a0                        |......&.        |      [104]: "2048-06-07T02:00:00Z" (2475108000) transition_time 0x570-0x578 (8)
0x570|                        00 00 00 00 93 be 85 a0|        ........|      [105]: "2048-07-19T02:00:00Z" (2478736800) transition_time 0x578-0x580 (8)
0x580|00 00 00 00 95 5d ce 20                        |.....].         |      [106]: "2049-05-30T02:00:00Z" (2505952800) transition_time 0x580-0x588 (8)
0x580|                        00 00 00 00 95 8b f2 a0|        ........|      [107]: "2049-07-04T02:00:00Z" (2508976800) transition_time 0x588-0x590 (8)
0x590|00 00 00 00 97 2b 3b 20                        |.....+;         |      [108]: "2050-05-15T02:00:00Z" (2536192800) transition_time 0x590-0x598 (8)
0x590|                        00 00 00 00 97 62 9a 20|        .....b. |      [109]: "2050-06-26T02:00:00Z" (2539821600) transition_time 0x598-0x5a0 (8)
0x5a0|00 00 00 00 99 01 e2 a0                        |........        |      [110]: "2051-05-07T02:00:00Z" (2567037600) transition_time 0x5a0-0x5a8 (8)
0x5a0|                        00 00 00 00 99 39 41 a0|        .....9A.|      [111]: "2051-06-18T02:00:00Z" (2570666400) transition_time 0x5a8-0x5b0 (8)
0x5b0|00 00 00 00 9a d8 8a 20                        |.......         |      [112]: "2052-04-28T02:00:00Z" (2597882400) transition_time 0x5b0-0x5b8 (8)
0x5b0|                        00 00 00 00 9b 06 ae a0|        ........|      [113]: "2052-06-02T02:00:00Z" (2600906400) transition_time 0x5b8-0x5c0 (8)
0x5c0|00 00 00 00 9c a5 f7 20                        |.......         |      [114]: "2053-04-13T02:00:00Z" (2628122400) transition_time 0x5c0-0x5c8 (8)
0x5c0|                        00 00 00 00 9c dd 56 20|        ......V |      [115]: "2053-05-25T02:00:00Z" (2631751200) transition_time 0x5c8-0x5d0 (8)
0x5d0|00 00 00 00 9e 7c 9e a0                        |.....|..        |      [116]: "2054-04-05T02:00:00Z" (2658967200) transition_time 0x5d0-0x5d8 (8)
0x5d0|                        00 00 00 00 9e b3 fd a0|        ........|      [117]: "2054-05-17T02:00:00Z" (2662596000) transition_time 0x5d8-0x5e0 (8)
0x5e0|00 00 00 00 a0 53 46 20                        |.....SF         |      [118]: "2055-03-28T02:00:00Z" (2689812000) transition_time 0x5e0-0x5e8 (8)
0x5e0|                        00 00 00 00 a0 81 6a a0|        ......j.|      [119]: "2055-05-02T02:00:00Z" (2692836000) transition_time 0x5e8-0x5f0 (8)
0x5f0|00 00 00 00 a2 20 b3 20                        |..... .         |      [120]: "2056-03-12T02:00:00Z" (2720052000) transition_time 0x5f0-0x5f8 (8)
0x5f0|                        00 00 00 00 a2 58 12 20|        .....X. |      [121]: "2056-04-23T02:00:00Z" (2723680800) transition_time 0x5f8-0x600 (8)
0x600|00 00 00 00 a3 f7 5a a0                        |......Z.        |      [122]: "2057-03-04T02:00:00Z" (2750896800) transition_time 0x600-0x608 (8)
0x600|                        00 00 00 00 a4 25 7f 20|        .....%. |      [123]: "2057-04-08T02:00:00Z" (2753920800) transition_time 0x608-0x610 (8)
0x610|00 00 00 00 a5 c4 c7 a0                        |........        |      [124]: "2058-02-17T02:00:00Z" (2781136800) transition_time 0x610-0x618 (8)
0x610|                        00 00 00 00 a5 fc 26 a0|        ......&.|      [125]: "2058-03-31T02:00:00Z" (2784765600) transition_time 0x618-0x620 (8)
0x620|00 00 00 00 a7 9b 6f 20                        |......o         |      [126]: "2059-02-09T02:00:00Z" (2811981600) transition_time 0x620-0x628 (8)
0x620|                        00 00 00 00 a7 d2 ce 20|        ....... |      [127]: "2059-03-23T02:00:00Z" (2815610400) transition_time 0x628-0x630 (8)
0x630|00 00 00 00 a9 72 16 a0                        |.....r..        |      [128]: "2060-02-01T02:00:00Z" (2842826400) transition_time 0x630-0x638 (8)
0x630|                        00 00 00 00 a9 a0 3b 20|        ......; |      [129]: "2060-03-07T02:00:00Z" (2845850400) transition_time 0x638-0x640 (8)
0x640|00 00 00 00 ab 3f 83 a0                        |.....?..        |      [130]: "2061-01-16T02:00:00Z" (2873066400) transition_time 0x640-0x648 (8)
0x640|                        00 00 00 00 ab 76 e2 a0|        .....v..|      [131]: "2061-02-27T02:00:00Z" (2876695200) transition_time 0x648-0x650 (8)
0x650|00 00 00 00 ad 16 2b 20                        |......+         |      [132]: "2062-01-08T02:00:00Z" (2903911200) transition_time 0x650-0x658 (8)
0x650|                        00 00 00 00 ad 4d 8a 20|        .....M. |      [133]: "2062-02-19T02:00:00Z" (2907540000) transition_time 0x658-0x660 (8)
0x660|00 00 00 00 ae ec d2 a0                        |........        |      [134]: "2062-12-31T02:00:00Z" (2934756000) transition_time 0x660-0x668 (8)
0x660|                        00 00 00 00 af 1a f7 20|        ....... |      [135]: "2063-02-04T02:00:00Z" (2937780000) transition_time 0x668-0x670 (8)
0x670|00 00 00 00 b0 ba 3f a0                        |......?.        |      [136]: "2063-12-16T02:00:00Z" (2964996000) transition_time 0x670-0x678 (8)
0x670|                        00 00 00 00 b0 f1 9e a0|        ........|      [137]: "2064-01-27T02:00:00Z" (2968624800) transition_time 0x678-0x680 (8)
0x680|00 00 00 00 b2 90 e7 20                        |.......         |      [138]: "2064-12-07T02:00:00Z" (2995840800) transition_time 0x680-0x688 (8)
0x680|                        00 00 00 00 b2 bf 0b a0|        ........|      [139]: "2065-01-11T02:00:00Z" (2998864800) transition_time 0x688-0x690 (8)
0x690|00 00 00 00 b4 5e 54 20                        |.....^T         |      [140]: "2065-11-22T02:00:00Z" (3026080800) transition_time 0x690-0x698 (8)
0x690|                        00 00 00 00 b4 95 b3 20|        ....... |      [141]: "2066-01-03T02:00:00Z" (3029709600) transition_time 0x698-0x6a0 (8)
0x6a0|00 00 00 00 b6 34 fb a0                        |.....4..        |      [142]: "2066-11-14T02:00:00Z" (3056925600) transition_time 0x6a0-0x6a8 (8)
0x6a0|                        00 00 00 00 b6 6c 5a a0|        .....lZ.|      [143]: "2066-12-26T02:00:00Z" (3060554400) transition_time 0x6a8-0x6b0 (8)
0x6b0|00 00 00 00 b8 0b a3 20                        |.......         |      [144]: "2067-11-06T02:00:00Z" (3087770400) transition_time 0x6b0-0x6b8 (8)
0x6b0|                        00 00 00 00 b8 39 c7 a0|        .....9..|      [145]: "2067-12-11T02:00:00Z" (3090794400) transition_time 0x6b8-0x6c0 (8)
0x6c0|00 00 00 00 b9 d9 10 20                        |.......         |      [146]: "2068-10-21T02:00:00Z" (3118010400) transition_time 0x6c0-0x6c8 (8)
0x6c0|                        00 00 00 00 ba 10 6f 20|        ......o |      [147]: "2068-12-02T02:00:00Z" (3121639200) transition_time 0x6c8-0x6d0 (8)
0x6d0|00 00 00 00 bb af b7 a0                        |........        |      [148]: "2069-10-13T02:00:00Z" (3148855200) transition_time 0x6d0-0x6d8 (8)
0x6d0|                        00 00 00 00 bb e7 16 a0|        ........|      [149]: "2069-11-24T02:00:00Z" (3152484000) transition_time 0x6d8-0x6e0 (8)
0x6e0|00 00 00 00 bd 86 5f 20                        |......_         |      [150]: "2070-10-05T02:00:00Z" (3179700000) transition_time 0x6e0-0x6e8 (8)
0x6e0|                        00 00 00 00 bd b4 83 a0|        ........|      [151]: "2070-11-09T02:00:00Z" (3182724000) transition_time 0x6e8-0x6f0 (8)
0x6f0|00 00 00 00 bf 53 cc 20                        |.....S.         |      [152]: "2071-09-20T02:00:00Z" (3209940000) transition_time 0x6f0-0x6f8 (8)
0x6f0|                        00 00 00 00 bf 8b 2b 20|        ......+ |      [153]: "2071-11-01T02:00:00Z" (3213568800) transition_time 0x6f8-0x700 (8)
0x700|00 00 00 00 c1 2a 73 a0                        |.....*s.        |      [154]: "2072-09-11T02:00:00Z" (3240784800) transition_time 0x700-0x708 (8)
0x700|                        00 00 00 00 c1 58 98 20|        .....X. |      [155]: "2072-10-16T02:00:00Z" (3243808800) transition_time 0x708-0x710 (8)
0x710|00 00 00 00 c2 f7 e0 a0                        |........        |      [156]: "2073-08-27T02:00:00Z" (3271024800) transition_time 0x710-0x718 (8)
0x710|                        00 00 00 00 c3 2f 3f a0|        ...../?.|      [157]: "2073-10-08T02:00:00Z" (3274653600) transition_time 0x718-0x720 (8)
0x720|00 00 00 00 c4 ce 88 20                        |.......         |      [158]: "2074-08-19T02:00:00Z" (3301869600) transition_time 0x720-0x728 (8)
0x720|                        00 00 00 00 c5 05 e7 20|        ....... |      [159]: "2074-09-30T02:00:00Z" (3305498400) transition_time 0x728-0x730 (8)
0x730|00 00 00 00 c6 a5 2f a0                        |....../.        |      [160]: "2075-08-11T02:00:00Z" (3332714400) transition_time 0x730-0x738 (8)
0x730|                        00 00 00 00 c6 d3 54 20|        ......T |      [161]: "2075-09-15T02:00:00Z" (3335738400) transition_time 0x738-0x740 (8)
0x740|00 00 00 00 c8 72 9c a0                        |.....r..        |      [162]: "2076-07-26T02:00:00Z" (3362954400) transition_time 0x740-0x748 (8)
0x740|                        00 00 00 00 c8 a9 fb a0|        ........|      [163]: "2076-09-06T02:00:00Z" (3366583200) transition_time 0x748-0x750 (8)
0x750|00 00 00 00 ca 49 44 20                        |.....ID         |      [164]: "2077-07-18T02:00:00Z" (3393799200) transition_time 0x750-0x758 (8)
0x750|                        00 00 00 00 ca 80 a3 20|        ....... |      [165]: "2077-08-29T02:00:00Z" (3397428000) transition_time 0x758-0x760 (8)
0x760|00 00 00 00 cc 1f eb a0                        |........        |      [166]: "2078-07-10T02:00:00Z" (3424644000) transition_time 0x760-0x768 (8)
0x760|                        00 00 00 00 cc 4e 10 20|        .....N. |      [167]: "2078-08-14T02:00:00Z" (3427668000) transition_time 0x768-0x770 (8)
0x770|00 00 00 00 cd ed 58 a0                        |......X.        |      [168]: "2079-06-25T02:00:00Z" (3454884000) transition_time 0x770-0x778 (8)
0x770|                        00 00 00 00 ce 24 b7 a0|        .....$..|      [169]: "2079-08-06T02:00:00Z" (3458512800) transition_time 0x778-0x780 (8)
0x780|00 00 00 00 cf c4 00 20                        |.......         |      [170]: "2080-06-16T02:00:00Z" (3485728800) transition_time 0x780-0x788 (8)
0x780|                        00 00 00 00 cf f2 24 a0|        ......$.|      [171]: "2080-07-21T02:00:00Z" (3488752800) transition_time 0x788-0x790 (8)
0x790|00 00 00 00 d1 91 6d 20                        |......m         |      [172]: "2081-06-01T02:00:00Z" (3515968800) transition_time 0x790-0x798 (8)
0x790|                        00 00 00 00 d1 c8 cc 20|        ....... |      [173]: "2081-07-13T02:00:00Z" (3519597600) transition_time 0x798-0x7a0 (8)
0x7a0|00 00 00 00 d3 68 14 a0                        |.....h..        |      [174]: "2082-05-24T02:00:00Z" (3546813600) transition_time 0x7a0-0x7a8 (8)
0x7a0|                        00 00 00 00 d3 9f 73 a0|        ......s.|      [175]: "2082-07-05T02:00:00Z" (3550442400) transition_time 0x7a8-0x7b0 (8)
0x7b0|00 00 00 00 d5 3e bc 20                        |.....>.         |      [176]: "2083-05-16T02:00:00Z" (3577658400) transition_time 0x7b0-0x7b8 (8)
0x7b0|                        00 00 00 00 d5 6c e0 a0|        .....l..|      [177]: "2083-06-20T02:00:00Z" (3580682400) transition_time 0x7b8-0x7c0 (8)
0x7c0|00 00 00 00 d7 0c 29 20                        |......)         |      [178]: "2084-04-30T02:00:00Z" (3607898400) transition_time 0x7c0-0x7c8 (8)
0x7c0|                        00 00 00 00 d7 43 88 20|        .....C. |      [179]: "2084-06-11T02:00:00Z" (3611527200) transition_time 0x7c8-0x7d0 (8)
0x7d0|00 00 00 00 d8 e2 d0 a0                        |........        |      [180]: "2085-04-22T02:00:00Z" (3638743200) transition_time 0x7d0-0x7d8 (8)
0x7d0|                        00 00 00 00 d9 1a 2f a0|        ....../.|      [181]: "2085-06-03T02:00:00Z" (3642372000) transition_time 0x7d8-0x7e0 (8)
0x7e0|00 00 00 00 da b9 78 20                        |......x         |      [182]: "2086-04-14T02:00:00Z" (3669588000) transition_time 0x7e0-0x7e8 (8)
0x7e0|                        00 00 00 00 da e7 9c a0|        ........|      [183]: "2086-05-19T02:00:00Z" (3672612000) transition_time 0x7e8-0x7f0 (8)
0x7f0|00 00 00 00 dc 86 e5 20                        |.......         |      [184]: "2087-03-30T02:00:00Z" (3699828000) transition_time 0x7f0-0x7f8 (8)
0x7f0|                        00 00 00 00 dc be 44 20|        ......D |      [185]: "2087-05-11T02:00:00Z" (3703456800) transition_time 0x7f8-0x800 (8)
     |                                               |                |    transition_types[0:186]: 0x800-0x8ba (186)
0x800|01                                             |.               |      [0]: 1 transition_type 0x800-0x801 (1)
0x800|   03                                          | .              |      [1]: 3 transition_type 0x801-0x802 (1)
0x800|      02                                       |  .             |      [2]: 2 transition_type 0x802-0x803 (1)
0x800|         03                                    |   .            |      [3]: 3 transition_type 0x803-0x804 (1)
0x800|            02                                 |    .           |      [4]: 2 transition_type 0x804-0x805 (1)
0x800|               03                              |     .          |      [5]: 3 transition_type 0x805-0x806 (1)
0x800|                  02                           |      .         |      [6]: 2 transition_type 0x806-0x807 (1)
0x800|                     03                        |       .        |      [7]: 3 transition_type 0x807-0x808 (1)
0x800|                        02                     |        .       |      [8]: 2 transition_type 0x808-0x809 (1)
0x800|                           03                  |         .      |      [9]: 3 transition_type 0x809-0x80a (1)
0x800|                              02               |          .     |      [10]: 2 transition_type 0x80a-0x80b (1)
0x800|                                 03            |           .    |      [11]: 3 transition_type 0x80b-0x80c (1)
0x800|                                    02         |            .   |      [12]: 2 transition_type 0x80c-0x80d (1)
0x800|                                       03      |             .  |      [13]: 3 transition_type 0x80d-0x80e (1)
0x800|                                          02   |              . |      [14]: 2 transition_type 0x80e-0x80f (1)
0x800|                                             03|               .|      [15]: 3 transition_type 0x80f-0x810 (1)
0x810|02                                             |.               |      [16]: 2 transition_type 0x810-0x811 (1)
0x810|   03                                          | .              |      [17]: 3 transition_type 0x811-0x812 (1)
0x810|      02                                       |  .             |      [18]: 2 transition_type 0x812-0x813 (1)
0x810|         03                                    |   .            |      [19]: 3 transition_type 0x813-0x814 (1)
0x810|            02                                 |    .           |      [20]: 2 transition_type 0x814-0x815 (1)
0x810|               03                              |     .          |      [21]: 3 transition_type 0x815-0x816 (1)
0x810|                  02                           |      .         |      [22]: 2 transition_type 0x816-0x817 (1)
0x810|                     03                        |       .        |      [23]: 3 transition_type 0x817-0x818 (1)
0x810|                        02                     |        .       |      [24]: 2 transition_type 0x818-0x819 (1)
0x810|                           03                  |         .      |      [25]: 3 transition_type 0x819-0x81a (1)
0x810|                              02               |          .     |      [26]: 2 transition_type 0x81a-0x81b (1)
0x810|                                 03            |           .    |      [27]: 3 transition_type 0x81b-0x81c (1)
0x810|                                    02         |            .   |      [28]: 2 transition_type 0x81c-0x81d (1)
0x810|                                       03      |             .  |      [29]: 3 transition_type 0x81d-0x81e (1)
0x810|                                          02   |              . |      [30]: 2 transition_type 0x81e-0x81f (1)
0x810|                                             03|               .|      [31]: 3 transition_type 0x81f-0x820 (1)
0x820|02                                             |.               |      [32]: 2 transition_type 0x820-0x821 (1)
0x820|   03                                          | .              |      [33]: 3 transition_type 0x821-0x822 (1)
0x820|      02                                       |  .             |      [34]: 2 transition_type 0x822-0x823 (1)
0x820|         03                                    |   .            |      [35]: 3 transition_type 0x823-0x824 (1)
0x820|            02                                 |    .           |      [36]: 2 transition_type 0x824-0x825 (1)
0x820|               03                              |     .          |      [37]: 3 transition_type 0x825-0x826 (1)
0x820|                  02                           |      .         |      [38]: 2 transition_type 0x826-0x827 (1)
0x820|                     03                        |       .        |      [39]: 3 transition_type 0x827-0x828 (1)
0x820|                        02                     |        .       |      [40]: 2 transition_type 0x828-0x829 (1)
0x820|                           03                  |         .      |      [41]: 3 transition_type 0x829-0x82a (1)
0x820|                              02               |          .     |      [42]: 2 transition_type 0x82a-0x82b (1)
0x820|                                 05            |           .    |      [43]: 5 transition_type 0x82b-0x82c (1)
0x820|                                    04         |            .   |      [44]: 4 transition_type 0x82c-0x82d (1)
0x820|                                       05      |             .  |      [45]: 5 transition_type 0x82d-0x82e (1)
0x820|                                          04   |              . |      [46]: 4 transition_type 0x82e-0x82f (1)
0x820|                                             05|               .|      [47]: 5 transition_type 0x82f-0x830 (1)
0x830|04                                             |.               |      [48]: 4 transition_type 0x830-0x831 (1)
0x830|   05                                          | .              |      [49]: 5 transition_type 0x831-0x832 (1)
0x830|      04                                       |  .             |      [50]: 4 transition_type 0x832-0x833 (1)
0x830|         05                                    |   .            |      [51]: 5 transition_type 0x833-0x834 (1)
0x830|            04                                 |    .           |      [52]: 4 transition_type 0x834-0x835 (1)
0x830|               05                              |     .          |      [53]: 5 transition_type 0x835-0x836 (1)
0x830|                  04                           |      .         |      [54]: 4 transition_type 0x836-0x837 (1)
0x830|                     05                        |       .        |      [55]: 5 transition_type 0x837-0x838 (1)
0x830|                        04                     |        .       |      [56]: 4 transition_type 0x838-0x839 (1)
0x830|                           05                  |         .      |      [57]: 5 transition_type 0x839-0x83a (1)
0x830|                              04               |          .     |      [58]: 4 transition_type 0x83a-0x83b (1)
0x830|                                 05            |           .    |      [59]: 5 transition_type 0x83b-0x83c (1)
0x830|                                    04         |            .   |      [60]: 4 transition_type 0x83c-0x83d (1)
0x830|                                       05      |             .  |      [61]: 5 transition_type 0x83d-0x83e (1)
0x830|                                          04   |              . |      [62]: 4 transition_type 0x83e-0x83f (1)
0x830|                                             05|               .|      [63]: 5 transition_type 0x83f-0x840 (1)
0x840|04                                             |.               |      [64]: 4 transition_type 0x840-0x841 (1)
0x840|   05                                          | .              |      [65]: 5 transition_type 0x841-0x842 (1)
0x840|      04                                       |  .             |      [66]: 4 transition_type 0x842-0x843 (1)
0x840|         05                                    |   .            |      [67]: 5 transition_type 0x843-0x844 (1)
0x840|            04                                 |    .           |      [68]: 4 transition_type 0x844-0x845 (1)
0x840|               05                              |     .          |      [69]: 5 transition_type 0x845-0x846 (1)
0x840|                  04                           |      .         |      [70]: 4 transition_type 0x846-0x847 (1)
0x840|                     05                        |       .        |      [71]: 5 transition_type 0x847-0x848 (1)
0x840|                        04                     |        .       |      [72]: 4 transition_type 0x848-0x849 (1)
0x840|                           05                  |         .      |      [73]: 5 transition_type 0x849-0x84a (1)
0x840|                              04               |          .     |      [74]: 4 transition_type 0x84a-0x84b (1)
0x840|                                 05            |           .    |      [75]: 5 transition_type 0x84b-0x84c (1)
0x840|                                    04         |            .   |      [76]: 4 transition_type 0x84c-0x84d (1)
0x840|                                       05      |             .  |      [77]: 5 transition_type 0x84d-0x84e (1)
0x840|                                          04   |              . |      [78]: 4 transition_type 0x84e-0x84f (1)
0x840|                                             05|               .|      [79]: 5 transition_type 0x84f-0x850 (1)
0x850|04                                             |.               |      [80]: 4 transition_type 0x850-0x851 (1)
0x850|   05                                          | .              |      [81]: 5 transition_type 0x851-0x852 (1)
0x850|      04                                       |  .             |      [82]: 4 transition_type 0x852-0x853 (1)
0x850|         05                                    |   .            |      [83]: 5 transition_type 0x853-0x854 (1)
0x850|            04                                 |    .           |      [84]: 4 transition_type 0x854-0x855 (1)
0x850|               05                              |     .          |      [85]: 5 transition_type 0x855-0x856 (1)
0x850|                  04                           |      .         |      [86]: 4 transition_type 0x856-0x857 (1)
0x850|                     05                        |       .        |      [87]: 5 transition_type 0x857-0x858 (1)
0x850|                        04                     |        .       |      [88]: 4 transition_type 0x858-0x859 (1)
0x850|                           05                  |         .      |      [89]: 5 transition_type 0x859-0x85a (1)
0x850|                              04               |          .     |      [90]: 4 transition_type 0x85a-0x85b (1)
0x850|                                 05            |           .    |      [91]: 5 transition_type 0x85b-0x85c (1)
0x850|                                    04         |            .   |      [92]: 4 transition_type 0x85c-0x85d (1)
0x850|                                       05      |             .  |      [93]: 5 transition_type 0x85d-0x85e (1)
0x850|                                          04   |              . |      [94]: 4 transition_type 0x85e-0x85f (1)
0x850|                                             05|               .|      [95]: 5 transition_type 0x85f-0x860 (1)
0x860|04                                             |.               |      [96]: 4 transition_type 0x860-0x861 (1)
0x860|   05                                          | .              |      [97]: 5 transition_type 0x861-0x862 (1)
0x860|      04                                       |  .             |      [98]: 4 transition_type 0x862-0x863 (1)
0x860|         05                                    |   .            |      [99]: 5 transition_type 0x863-0x864 (1)
0x860|            04                                 |    .           |      [100]: 4 transition_type 0x864-0x865 (1)
0x860|               05                              |     .          |      [101]: 5 transition_type 0x865-0x866 (1)
0x860|                  04                           |      .         |      [102]: 4 transition_type 0x866-0x867 (1)
0x860|                     05                        |       .        |      [103]: 5 transition_type 0x867-0x868 (1)
0x860|                        04                     |        .       |      [104]: 4 transition_type 0x868-0x869 (1)
0x860|                           05                  |         .      |      [105]: 5 transition_type 0x869-0x86a (1)
0x860|                              04               |          .     |      [106]: 4 transition_type 0x86a-0x86b (1)
0x860|                                 05            |           .    |      [107]: 5 transition_type 0x86b-0x86c (1)
0x860|                                    04         |            .   |      [108]: 4 transition_type 0x86c-0x86d (1)
0x860|                                       05      |             .  |      [109]: 5 transition_type 0x86d-0x86e (1)
0x860|                                          04   |              . |      [110]: 4 transition_type 0x86e-0x86f (1)
0x860|                                             05|               .|      [111]: 5 transition_type 0x86f-0x870 (1)
0x870|04                                             |.               |      [112]: 4 transition_type 0x870-0x871 (1)
0x870|   05                                          | .              |      [113]: 5 transition_type 0x871-0x872 (1)
0x870|      04                                       |  .             |      [114]: 4 transition_type 0x872-0x873 (1)
0x870|         05                                    |   .            |      [115]: 5 transition_type 0x873-0x874 (1)
0x870|            04                                 |    .           |      [116]: 4 transition_type 0x874-0x875 (1)
0x870|               05                              |     .          |      [117]: 5 transition_type 0x875-0x876 (1)
0x870|                  04                           |      .         |      [118]: 4 transition_type 0x876-0x877 (1)
0x870|                     05                        |       .        |      [119]: 5 transition_type 0x877-0x878 (1)
0x870|                        04                     |        .       |      [120]: 4 transition_type 0x878-0x879 (1)
0x870|                           05                  |         .      |      [121]: 5 transition_type 0x879-0x87a (1)
0x870|                              04               |          .     |      [122]: 4 transition_type 0x87a-0x87b (1)
0x870|                                 05            |           .    |      [123]: 5 transition_type 0x87b-0x87c (1)
0x870|                                    04         |            .   |      [124]: 4 transition_type 0x87c-0x87d (1)
0x870|                                       05      |             .  |      [125]: 5 transition_type 0x87d-0x87e (1)
0x870|                                          04   |              . |      [126]: 4 transition_type 0x87e-0x87f (1)
0x870|                                             05|               .|      [127]: 5 transition_type 0x87f-0x880 (1)
0x880|04                                             |.               |      [128]: 4 transition_type 0x880-0x881 (1)
0x880|   05                                          | .              |      [129]: 5 transition_type 0x881-0x882 (1)
0x880|      04                                       |  .             |      [130]: 4 transition_type 0x882-0x883 (1)
0x880|         05                                    |   .            |      [131]: 5 transition_type 0x883-0x884 (1)
0x880|            04                                 |    .           |      [132]: 4 transition_type 0x884-0x885 (1)
0x880|               05                              |     .          |      [133]: 5 transition_type 0x885-0x886 (1)
0x880|                  04                           |      .         |      [134]: 4 transition_type 0x886-0x887 (1)
0x880|                     05                        |       .        |      [135]: 5 transition_type 0x887-0x888 (1)
0x880|                        04                     |        .       |      [136]: 4 transition_type 0x888-0x889 (1)
0x880|                           05                  |         .      |      [137]: 5 transition_type 0x889-0x88a (1)
0x880|                              04               |          .     |      [138]: 4 transition_type 0x88a-0x88b (1)
0x880|                                 05            |           .    |      [139]: 5 transition_type 0x88b-0x88c (1)
0x880|                                    04         |            .   |      [140]: 4 transition_type 0x88c-0x88d (1)
0x880|                                       05      |             .  |      [141]: 5 transition_type 0x88d-0x88e (1)
0x880|                                          04   |              . |      [142]: 4 transition_type 0x88e-0x88f (1)
0x880|                                             05|               .|      [143]: 5 transition_type 0x88f-0x890 (1)
0x890|04                                             |.               |      [144]: 4 transition_type 0x890-0x891 (1)
0x890|   05                                          | .              |      [145]: 5 transition_type 0x891-0x892 (1)
0x890|      04                                       |  .             |      [146]: 4 transition_type 0x892-0x893 (1)
0x890|         05                                    |   .            |      [147]: 5 transition_type 0x893-0x894 (1)
0x890|            04                                 |    .           |      [148]: 4 transition_type 0x894-0x895 (1)
0x890|               05                              |     .          |      [149]: 5 transition_type 0x895-0x896 (1)
0x890|                  04                           |      .         |      [150]: 4 transition_type 0x896-0x897 (1)
0x890|                     05                        |       .        |      [151]: 5 transition_type 0x897-0x898 (1)
0x890|                        04                     |        .       |      [152]: 4 transition_type 0x898-0x899 (1)
0x890|                           05                  |         .      |      [153]: 5 transition_type 0x899-0x89a (1)
0x890|                              04               |          .     |      [154]: 4 transition_type 0x89a-0x89b (1)
0x890|                                 05            |           .    |      [155]: 5 transition_type 0x89b-0x89c (1)
0x890|                                    04         |            .   |      [156]: 4 transition_type 0x89c-0x89d (1)
0x890|                                       05      |             .  |      [157]: 5 transition_type 0x89d-0x89e (1)
0x890|                                          04   |              . |      [158]: 4 transition_type 0x89e-0x89f (1)
0x890|                                             05|               .|      [159]: 5 transition_type 0x89f-0x8a0 (1)
0x8a0|04                                             |.               |      [160]: 4 transition_type 0x8a0-0x8a1 (1)
0x8a0|   05                                          | .              |      [161]: 5 transition_type 0x8a1-0x8a2 (1)
0x8a0|      04                                       |  .             |      [162]: 4 transition_type 0x8a2-0x8a3 (1)
0x8a0|         05                                    |   .            |      [163]: 5 transition_type 0x8a3-0x8a4 (1)
0x8a0|            04                                 |    .           |      [164]: 4 transition_type 0x8a4-0x8a5 (1)
0x8a0|               05                              |     .          |      [165]: 5 transition_type 0x8a5-0x8a6 (1)
0x8a0|                  04                           |      .         |      [166]: 4 transition_type 0x8a6-0x8a7 (1)
0x8a0|                     05                        |       .        |      [167]: 5 transition_type 0x8a7-0x8a8 (1)
0x8a0|                        04                     |        .       |      [168]: 4 transition_type 0x8a8-0x8a9 (1)
0x8a0|                           05                  |         .      |      [169]: 5 transition_type 0x8a9-0x8aa (1)
0x8a0|                              04               |          .     |      [170]: 4 transition_type 0x8aa-0x8ab (1)
0x8a0|                                 05            |           .    |      [171]: 5 transition_type 0x8ab-0x8ac (1)
0x8a0|                                    04         |            .   |      [172]: 4 transition_type 0x8ac-0x8ad (1)
0x8a0|                                       05      |             .  |      [173]: 5 transition_type 0x8ad-0x8ae (1)
0x8a0|                                          04   |              . |      [174]: 4 transition_type 0x8ae-0x8af (1)
0x8a0|                                             05|               .|      [175]: 5 transition_type 0x8af-0x8b0 (1)
0x8b0|04                                             |.               |      [176]: 4 transition_type 0x8b0-0x8b1 (1)
0x8b0|   05                                          | .              |      [177]: 5 transition_type 0x8b1-0x8b2 (1)
0x8b0|      04                                       |  .             |      [178]: 4 transition_type 0x8b2-0x8b3 (1)
0x8b0|         05                                    |   .            |      [179]: 5 transition_type 0x8b3-0x8b4 (1)
0x8b0|            04                                 |    .           |      [180]: 4 transition_type 0x8b4-0x8b5 (1)
0x8b0|               05                              |     .          |      [181]: 5 transition_type 0x8b5-0x8b6 (1)
0x8b0|                  04                           |      .         |      [182]: 4 transition_type 0x8b6-0x8b7 (1)
0x8b0|                     05                        |       .        |      [183]: 5 transition_type 0x8b7-0x8b8 (1)
0x8b0|                        04                     |        .       |      [184]: 4 transition_type 0x8b8-0x8b9 (1)
0x8b0|                           05                  |         .      |      [185]: 5 transition_type 0x8b9-0x8ba (1)
     |                                               |                |    local_time_type_records[0:6]: 0x8ba-0x8de (36)
     |                                               |                |      [0]{}: local_time_type 0x8ba-0x8c0 (6)
0x8b0|                              ff ff f3 a0      |          ....  |        utoff: -3168 (valid) 0x8ba-0x8be (4)
0x8b0|                                          00   |              . |        dst: 0 (valid) 0x8be-0x8bf (1)
0x8b0|                                             00|               .|        idx: 0 (valid) 0x8bf-0x8c0 (1)
     |                                               |                |      [1]{}: local_time_type 0x8c0-0x8c6 (6)
0x8c0|ff ff f1 f0                                    |....            |        utoff: -3600 (valid) 0x8c0-0x8c4 (4)
0x8c0|            00                                 |    .           |        dst: 0 (valid) 0x8c4-0x8c5 (1)
0x8c0|               04                              |     .          |        idx: 4 (valid) 0x8c5-0x8c6 (1)
     |                                               |                |      [2]{}: local_time_type 0x8c6-0x8cc (6)
0x8c0|                  00 00 0e 10                  |      ....      |        utoff: 3600 (valid) 0x8c6-0x8ca (4)
0x8c0|                              01               |          .     |        dst: 1 (valid) 0x8ca-0x8cb (1)
0x8c0|                                 08            |           .    |        idx: 8 (valid) 0x8cb-0x8cc (1)
     |                                               |                |      [3]{}: local_time_type 0x8cc-0x8d2 (6)
0x8c0|                                    00 00 00 00|            ....|        utoff: 0 (valid) 0x8cc-0x8d0 (4)
0x8d0|00                                             |.               |        dst: 0 (valid) 0x8d0-0x8d1 (1)
0x8d0|   0c                                          | .              |        idx: 12 (valid) 0x8d1-0x8d2 (1)
     |                                               |                |      [4]{}: local_time_type 0x8d2-0x8d8 (6)
0x8d0|      00 00 00 00                              |  ....          |        utoff: 0 (valid) 0x8d2-0x8d6 (4)
0x8d0|                  01                           |      .         |        dst: 1 (valid) 0x8d6-0x8d7 (1)
0x8d0|                     0c                        |       .        |        idx: 12 (valid) 0x8d7-0x8d8 (1)
     |                                               |                |      [5]{}: local_time_type 0x8d8-0x8de (6)
0x8d0|                        00 00 0e 10            |        ....    |        utoff: 3600 (valid) 0x8d8-0x8dc (4)
0x8d0|                                    00         |            .   |        dst: 0 (valid) 0x8dc-0x8dd (1)
0x8d0|                                       08      |             .  |        idx: 8 (valid) 0x8dd-0x8de (1)
     |                                               |                |    time_zone_designations[0:4]: 0x8de-0x8ee (16)
0x8d0|                                          4c 4d|              LM|      [0]: "LMT" time_zone_designation 0x8de-0x8e2 (4)
0x8e0|54 00                                          |T.              |
0x8e0|      2d 30 31 00                              |  -01.          |      [1]: "-01" time_zone_designation 0x8e2-0x8e6 (4)
0x8e0|                  2b 30 31 00                  |      +01.      |      [2]: "+01" time_zone_designation 0x8e6-0x8ea (4)
0x8e0|                              2b 30 30 00      |          +00.  |      [3]: "+00" time_zone_designation 0x8ea-0x8ee (4)
     |                                               |                |    leap_second_records[0:0]: 0x8ee-0x8ee (0)
     |                                               |                |    standard_wall_indicators[0:0]: 0x8ee-0x8ee (0)
     |                                               |                |    ut_local_indicators[0:0]: 0x8ee-0x8ee (0)
     |                                               |                |  footer{}: 0x8ee-0x8f7 (9)
0x8e0|                                          0a   |              . |    nl1: 10 (valid) 0x8ee-0x8ef (1)
0x8e0|                                             3c|               <|    tz_string: "<+01>-1" 0x8ef-0x8f6 (7)
0x8f0|2b 30 31 3e 2d 31                              |+01>-1          |
0x8f0|                  0a|                          |      .|        |    nl2: 10 (valid) 0x8f6-0x8f7 (1)
