$ fq -d tzif dv El_Salvador
     |00 01 02 03 04 05 06 07 08 09 0a 0b 0c 0d 0e 0f|0123456789abcdef|.{}: El_Salvador (tzif) 0x0-0x305.7 (774)
     |                                               |                |  v1header{}: 0x0-0x2b.7 (44)
0x000|54 5a 69 66                                    |TZif            |    magic: 0x545a6966 (valid) 0x0-0x3.7 (4)
0x000|            32                                 |    2           |    ver: "2" (0x32) (valid) 0x4-0x4.7 (1)
0x000|               00 00 00 00 00 00 00 00 00 00 00|     ...........|    reserved: raw bits 0x5-0x13.7 (15)
0x010|00 00 00 00                                    |....            |
0x010|            00 00 00 00                        |    ....        |    isutcnt: 0 0x14-0x17.7 (4)
0x010|                        00 00 00 00            |        ....    |    isstdcnt: 0 0x18-0x1b.7 (4)
0x010|                                    00 00 00 1b|            ....|    leapcnt: 27 0x1c-0x1f.7 (4)
0x020|00 00 00 06                                    |....            |    timecnt: 6 0x20-0x23.7 (4)
0x020|            00 00 00 03                        |    ....        |    typecnt: 3 0x24-0x27.7 (4)
0x020|                        00 00 00 0c            |        ....    |    charcnt: 12 0x28-0x2b.7 (4)
     |                                               |                |  v1datablock{}: 0x2c-0x13f.7 (276)
     |                                               |                |    transition_times[0:6]: 0x2c-0x43.7 (24)
0x020|                                    a3 d5 a6 20|            ... |      [0]: "1921-01-01T05:56:48Z" (-1546279392) transition_time 0x2c-0x2f.7 (4)
0x030|20 9a dc ed                                    | ...            |      [1]: "1987-05-03T06:00:13Z" (547020013) transition_time 0x30-0x33.7 (4)
0x030|            21 5c 9b 5d                        |    !\.]        |      [2]: "1987-09-27T05:00:13Z" (559717213) transition_time 0x34-0x37.7 (4)
0x030|                        22 7a be ee            |        "z..    |      [3]: "1988-05-01T06:00:14Z" (578469614) transition_time 0x38-0x3b.7 (4)
0x030|                                    23 3c 7d 5e|            #<}^|      [4]: "1988-09-25T05:00:14Z" (591166814) transition_time 0x3c-0x3f.7 (4)
0x040|64 9b 78 1b                                    |d.x.            |      [5]: "2023-06-28T00:00:27Z" (1687910427) transition_time 0x40-0x43.7 (4)
     |                                               |                |    transition_types[0:6]: 0x44-0x49.7 (6)
0x040|            02                                 |    .           |      [0]: 2 transition_type 0x44-0x44.7 (1)
0x040|               01                              |     .          |      [1]: 1 transition_type 0x45-0x45.7 (1)
0x040|                  02                           |      .         |      [2]: 2 transition_type 0x46-0x46.7 (1)
0x040|                     01                        |       .        |      [3]: 1 transition_type 0x47-0x47.7 (1)
0x040|                        02                     |        .       |      [4]: 2 transition_type 0x48-0x48.7 (1)
0x040|                           02                  |         .      |      [5]: 2 transition_type 0x49-0x49.7 (1)
     |                                               |                |    local_time_type_records[0:3]: 0x4a-0x5b.7 (18)
     |                                               |                |      [0]{}: local_time_type 0x4a-0x4f.7 (6)
0x040|                              ff ff ac 60      |          ...`  |        utoff: -21408 (valid) 0x4a-0x4d.7 (4)
0x040|                                          00   |              . |        dst: 0 (valid) 0x4e-0x4e.7 (1)
0x040|                                             00|               .|        idx: 0 (valid) 0x4f-0x4f.7 (1)
     |                                               |                |      [1]{}: local_time_type 0x50-0x55.7 (6)
0x050|ff ff b9 b0                                    |....            |        utoff: -18000 (valid) 0x50-0x53.7 (4)
0x050|            01                                 |    .           |        dst: 1 (valid) 0x54-0x54.7 (1)
0x050|               04                              |     .          |        idx: 4 (valid) 0x55-0x55.7 (1)
     |                                               |                |      [2]{}: local_time_type 0x56-0x5b.7 (6)
0x050|                  ff ff ab a0                  |      ....      |        utoff: -21600 (valid) 0x56-0x59.7 (4)
0x050|                              00               |          .     |        dst: 0 (valid) 0x5a-0x5a.7 (1)
0x050|                                 08            |           .    |        idx: 8 (valid) 0x5b-0x5b.7 (1)
     |                                               |                |    time_zone_designations[0:3]: 0x5c-0x67.7 (12)
0x050|                                    4c 4d 54 00|            LMT.|      [0]: "LMT" time_zone_designation 0x5c-0x5f.7 (4)
0x060|43 44 54 00                                    |CDT.            |      [1]: "CDT" time_zone_designation 0x60-0x63.7 (4)
0x060|            43 53 54 00                        |    CST.        |      [2]: "CST" time_zone_designation 0x64-0x67.7 (4)
     |                                               |                |    leap_second_records[0:27]: 0x68-0x13f.7 (216)
     |                                               |                |      [0]{}: leap_second_record 0x68-0x6f.7 (8)
0x060|                        04 b2 58 00            |        ..X.    |        occur: "1972-07-01T00:00:00Z" (78796800) 0x68-0x6b.7 (4)
0x060|                                    00 00 00 01|            ....|        corr: 1 0x6c-0x6f.7 (4)
     |                                               |                |      [1]{}: leap_second_record 0x70-0x77.7 (8)
0x070|05 a4 ec 01                                    |....            |        occur: "1973-01-01T00:00:01Z" (94694401) 0x70-0x73.7 (4)
0x070|            00 00 00 02                        |    ....        |        corr: 2 0x74-0x77.7 (4)
     |                                               |                |      [2]{}: leap_second_record 0x78-0x7f.7 (8)
0x070|                        07 86 1f 82            |        ....    |        occur: "1974-01-01T00:00:02Z" (126230402) 0x78-0x7b.7 (4)
0x070|                                    00 00 00 03|            ....|        corr: 3 0x7c-0x7f.7 (4)
     |                                               |                |      [3]{}: leap_second_record 0x80-0x87.7 (8)
0x080|09 67 53 03                                    |.gS.            |        occur: "1975-01-01T00:00:03Z" (157766403) 0x80-0x83.7 (4)
0x080|            00 00 00 04                        |    ....        |        corr: 4 0x84-0x87.7 (4)
     |                                               |                |      [4]{}: leap_second_record 0x88-0x8f.7 (8)
0x080|                        0b 48 86 84            |        .H..    |        occur: "1976-01-01T00:00:04Z" (189302404) 0x88-0x8b.7 (4)
0x080|                                    00 00 00 05|            ....|        corr: 5 0x8c-0x8f.7 (4)
     |                                               |                |      [5]{}: leap_second_record 0x90-0x97.7 (8)
0x090|0d 2b 0b 85                                    |.+..            |        occur: "1977-01-01T00:00:05Z" (220924805) 0x90-0x93.7 (4)
0x090|            00 00 00 06                        |    ....        |        corr: 6 0x94-0x97.7 (4)
     |                                               |                |      [6]{}: leap_second_record 0x98-0x9f.7 (8)
0x090|                        0f 0c 3f 06            |        ..?.    |        occur: "1978-01-01T00:00:06Z" (252460806) 0x98-0x9b.7 (4)
0x090|                                    00 00 00 07|            ....|        corr: 7 0x9c-0x9f.7 (4)
     |                                               |                |      [7]{}: leap_second_record 0xa0-0xa7.7 (8)
0x0a0|10 ed 72 87                                    |..r.            |        occur: "1979-01-01T00:00:07Z" (283996807) 0xa0-0xa3.7 (4)
0x0a0|            00 00 00 08                        |    ....        |        corr: 8 0xa4-0xa7.7 (4)
     |                                               |                |      [8]{}: leap_second_record 0xa8-0xaf.7 (8)
0x0a0|                        12 ce a6 08            |        ....    |        occur: "1980-01-01T00:00:08Z" (315532808) 0xa8-0xab.7 (4)
0x0a0|                                    00 00 00 09|            ....|        corr: 9 0xac-0xaf.7 (4)
     |                                               |                |      [9]{}: leap_second_record 0xb0-0xb7.7 (8)
0x0b0|15 9f ca 89                                    |....            |        occur: "1981-07-01T00:00:09Z" (362793609) 0xb0-0xb3.7 (4)
0x0b0|            00 00 00 0a                        |    ....        |        corr: 10 0xb4-0xb7.7 (4)
     |                                               |                |      [10]{}: leap_second_record 0xb8-0xbf.7 (8)
0x0b0|                        17 80 fe 0a            |        ....    |        occur: "1982-07-01T00:00:10Z" (394329610) 0xb8-0xbb.7 (4)
0x0b0|                                    00 00 00 0b|            ....|        corr: 11 0xbc-0xbf.7 (4)
     |                                               |                |      [11]{}: leap_second_record 0xc0-0xc7.7 (8)
0x0c0|19 62 31 8b                                    |.b1.            |        occur: "1983-07-01T00:00:11Z" (425865611) 0xc0-0xc3.7 (4)
0x0c0|            00 00 00 0c                        |    ....        |        corr: 12 0xc4-0xc7.7 (4)
     |                                               |                |      [12]{}: leap_second_record 0xc8-0xcf.7 (8)
0x0c0|                        1d 25 ea 0c            |        .%..    |        occur: "1985-07-01T00:00:12Z" (489024012) 0xc8-0xcb.7 (4)
0x0c0|                                    00 00 00 0d|            ....|        corr: 13 0xcc-0xcf.7 (4)
     |                                               |                |      [13]{}: leap_second_record 0xd0-0xd7.7 (8)
0x0d0|21 da e5 0d                                    |!...            |        occur: "1988-01-01T00:00:13Z" (567993613) 0xd0-0xd3.7 (4)
0x0d0|            00 00 00 0e                        |    ....        |        corr: 14 0xd4-0xd7.7 (4)
     |                                               |                |      [14]{}: leap_second_record 0xd8-0xdf.7 (8)
0x0d0|                        25 9e 9d 8e            |        %...    |        occur: "1990-01-01T00:00:14Z" (631152014) 0xd8-0xdb.7 (4)
0x0d0|                                    00 00 00 0f|            ....|        corr: 15 0xdc-0xdf.7 (4)
     |                                               |                |      [15]{}: leap_second_record 0xe0-0xe7.7 (8)
0x0e0|27 7f d1 0f                                    |'...            |        occur: "1991-01-01T00:00:15Z" (662688015) 0xe0-0xe3.7 (4)
0x0e0|            00 00 00 10                        |    ....        |        corr: 16 0xe4-0xe7.7 (4)
     |                                               |                |      [16]{}: leap_second_record 0xe8-0xef.7 (8)
0x0e0|                        2a 50 f5 90            |        *P..    |        occur: "1992-07-01T00:00:16Z" (709948816) 0xe8-0xeb.7 (4)
0x0e0|                                    00 00 00 11|            ....|        corr: 17 0xec-0xef.7 (4)
     |                                               |                |      [17]{}: leap_second_record 0xf0-0xf7.7 (8)
0x0f0|2c 32 29 11                                    |,2).            |        occur: "1993-07-01T00:00:17Z" (741484817) 0xf0-0xf3.7 (4)
0x0f0|            00 00 00 12                        |    ....        |        corr: 18 0xf4-0xf7.7 (4)
     |                                               |                |      [18]{}: leap_second_record 0xf8-0xff.7 (8)
0x0f0|                        2e 13 5c 92            |        ..\.    |        occur: "1994-07-01T00:00:18Z" (773020818) 0xf8-0xfb.7 (4)
0x0f0|                                    00 00 00 13|            ....|        corr: 19 0xfc-0xff.7 (4)
     |                                               |                |      [19]{}: leap_second_record 0x100-0x107.7 (8)
0x100|30 e7 24 13                                    |0.$.            |        occur: "1996-01-01T00:00:19Z" (820454419) 0x100-0x103.7 (4)
0x100|            00 00 00 14                        |    ....        |        corr: 20 0x104-0x107.7 (4)
     |                                               |                |      [20]{}: leap_second_record 0x108-0x10f.7 (8)
0x100|                        33 b8 48 94            |        3.H.    |        occur: "1997-07-01T00:00:20Z" (867715220) 0x108-0x10b.7 (4)
0x100|                                    00 00 00 15|            ....|        corr: 21 0x10c-0x10f.7 (4)
     |                                               |                |      [21]{}: leap_second_record 0x110-0x117.7 (8)
0x110|36 8c 10 15                                    |6...            |        occur: "1999-01-01T00:00:21Z" (915148821) 0x110-0x113.7 (4)
0x110|            00 00 00 16                        |    ....        |        corr: 22 0x114-0x117.7 (4)
     |                                               |                |      [22]{}: leap_second_record 0x118-0x11f.7 (8)
0x110|                        43 b7 1b 96            |        C...    |        occur: "2006-01-01T00:00:22Z" (1136073622) 0x118-0x11b.7 (4)
0x110|                                    00 00 00 17|            ....|        corr: 23 0x11c-0x11f.7 (4)
     |                                               |                |      [23]{}: leap_second_record 0x120-0x127.7 (8)
0x120|49 5c 07 97                                    |I\..            |        occur: "2009-01-01T00:00:23Z" (1230768023) 0x120-0x123.7 (4)
0x120|            00 00 00 18                        |    ....        |        corr: 24 0x124-0x127.7 (4)
     |                                               |                |      [24]{}: leap_second_record 0x128-0x12f.7 (8)
0x120|                        4f ef 93 18            |        O...    |        occur: "2012-07-01T00:00:24Z" (1341100824) 0x128-0x12b.7 (4)
0x120|                                    00 00 00 19|            ....|        corr: 25 0x12c-0x12f.7 (4)
     |                                               |                |      [25]{}: leap_second_record 0x130-0x137.7 (8)
0x130|55 93 2d 99                                    |U.-.            |        occur: "2015-07-01T00:00:25Z" (1435708825) 0x130-0x133.7 (4)
0x130|            00 00 00 1a                        |    ....        |        corr: 26 0x134-0x137.7 (4)
     |                                               |                |      [26]{}: leap_second_record 0x138-0x13f.7 (8)
0x130|                        58 68 46 9a            |        XhF.    |        occur: "2017-01-01T00:00:26Z" (1483228826) 0x138-0x13b.7 (4)
0x130|                                    00 00 00 1b|            ....|        corr: 27 0x13c-0x13f.7 (4)
     |                                               |                |    standard_wall_indicators[0:0]: 0x140-NA (0)
     |                                               |                |    ut_local_indicators[0:0]: 0x140-NA (0)
     |                                               |                |  v2plusheader{}: 0x140-0x16b.7 (44)
0x140|54 5a 69 66                                    |TZif            |    magic: 0x545a6966 (valid) 0x140-0x143.7 (4)
0x140|            32                                 |    2           |    ver: "2" (0x32) (valid) 0x144-0x144.7 (1)
0x140|               00 00 00 00 00 00 00 00 00 00 00|     ...........|    reserved: raw bits 0x145-0x153.7 (15)
0x150|00 00 00 00                                    |....            |
0x150|            00 00 00 00                        |    ....        |    isutcnt: 0 0x154-0x157.7 (4)
0x150|                        00 00 00 00            |        ....    |    isstdcnt: 0 0x158-0x15b.7 (4)
0x150|                                    00 00 00 1b|            ....|    leapcnt: 27 0x15c-0x15f.7 (4)
0x160|00 00 00 06                                    |....            |    timecnt: 6 0x160-0x163.7 (4)
0x160|            00 00 00 03                        |    ....        |    typecnt: 3 0x164-0x167.7 (4)
0x160|                        00 00 00 0c            |        ....    |    charcnt: 12 0x168-0x16b.7 (4)
     |                                               |                |  v2plusdatablock{}: 0x16c-0x303.7 (408)
     |                                               |                |    transition_times[0:6]: 0x16c-0x19b.7 (48)
0x160|                                    ff ff ff ff|            ....|      [0]: "1921-01-01T05:56:48Z" (-1546279392) transition_time 0x16c-0x173.7 (8)
0x170|a3 d5 a6 20                                    |...             |
0x170|            00 00 00 00 20 9a dc ed            |    .... ...    |      [1]: "1987-05-03T06:00:13Z" (547020013) transition_time 0x174-0x17b.7 (8)
0x170|                                    00 00 00 00|            ....|      [2]: "1987-09-27T05:00:13Z" (559717213) transition_time 0x17c-0x183.7 (8)
0x180|21 5c 9b 5d                                    |!\.]            |
0x180|            00 00 00 00 22 7a be ee            |    ...."z..    |      [3]: "1988-05-01T06:00:14Z" (578469614) transition_time 0x184-0x18b.7 (8)
0x180|                                    00 00 00 00|            ....|      [4]: "1988-09-25T05:00:14Z" (591166814) transition_time 0x18c-0x193.7 (8)
0x190|23 3c 7d 5e                                    |#<}^            |
0x190|            00 00 00 00 64 9b 78 1b            |    ....d.x.    |      [5]: "2023-06-28T00:00:27Z" (1687910427) transition_time 0x194-0x19b.7 (8)
     |                                               |                |    transition_types[0:6]: 0x19c-0x1a1.7 (6)
0x190|                                    02         |            .   |      [0]: 2 transition_type 0x19c-0x19c.7 (1)
0x190|                                       01      |             .  |      [1]: 1 transition_type 0x19d-0x19d.7 (1)
0x190|                                          02   |              . |      [2]: 2 transition_type 0x19e-0x19e.7 (1)
0x190|                                             01|               .|      [3]: 1 transition_type 0x19f-0x19f.7 (1)
0x1a0|02                                             |.               |      [4]: 2 transition_type 0x1a0-0x1a0.7 (1)
0x1a0|   02                                          | .              |      [5]: 2 transition_type 0x1a1-0x1a1.7 (1)
     |                                               |                |    local_time_type_records[0:3]: 0x1a2-0x1b3.7 (18)
     |                                               |                |      [0]{}: local_time_type 0x1a2-0x1a7.7 (6)
0x1a0|      ff ff ac 60                              |  ...`          |        utoff: -21408 (valid) 0x1a2-0x1a5.7 (4)
0x1a0|                  00                           |      .         |        dst: 0 (valid) 0x1a6-0x1a6.7 (1)
0x1a0|                     00                        |       .        |        idx: 0 (valid) 0x1a7-0x1a7.7 (1)
     |                                               |                |      [1]{}: local_time_type 0x1a8-0x1ad.7 (6)
0x1a0|                        ff ff b9 b0            |        ....    |        utoff: -18000 (valid) 0x1a8-0x1ab.7 (4)
0x1a0|                                    01         |            .   |        dst: 1 (valid) 0x1ac-0x1ac.7 (1)
0x1a0|                                       04      |             .  |        idx: 4 (valid) 0x1ad-0x1ad.7 (1)
     |                                               |                |      [2]{}: local_time_type 0x1ae-0x1b3.7 (6)
0x1a0|                                          ff ff|              ..|        utoff: -21600 (valid) 0x1ae-0x1b1.7 (4)
0x1b0|ab a0                                          |..              |
0x1b0|      00                                       |  .             |        dst: 0 (valid) 0x1b2-0x1b2.7 (1)
0x1b0|         08                                    |   .            |        idx: 8 (valid) 0x1b3-0x1b3.7 (1)
     |                                               |                |    time_zone_designations[0:3]: 0x1b4-0x1bf.7 (12)
0x1b0|            4c 4d 54 00                        |    LMT.        |      [0]: "LMT" time_zone_designation 0x1b4-0x1b7.7 (4)
0x1b0|                        43 44 54 00            |        CDT.    |      [1]: "CDT" time_zone_designation 0x1b8-0x1bb.7 (4)
0x1b0|                                    43 53 54 00|            CST.|      [2]: "CST" time_zone_designation 0x1bc-0x1bf.7 (4)
     |                                               |                |    leap_second_records[0:27]: 0x1c0-0x303.7 (324)
     |                                               |                |      [0]{}: leap_second_record 0x1c0-0x1cb.7 (12)
0x1c0|00 00 00 00 04 b2 58 00                        |......X.        |        occur: "1972-07-01T00:00:00Z" (78796800) 0x1c0-0x1c7.7 (8)
0x1c0|                        00 00 00 01            |        ....    |        corr: 1 0x1c8-0x1cb.7 (4)
     |                                               |                |      [1]{}: leap_second_record 0x1cc-0x1d7.7 (12)
0x1c0|                                    00 00 00 00|            ....|        occur: "1973-01-01T00:00:01Z" (94694401) 0x1cc-0x1d3.7 (8)
0x1d0|05 a4 ec 01                                    |....            |
0x1d0|            00 00 00 02                        |    ....        |        corr: 2 0x1d4-0x1d7.7 (4)
     |                                               |                |      [2]{}: leap_second_record 0x1d8-0x1e3.7 (12)
0x1d0|                        00 00 00 00 07 86 1f 82|        ........|        occur: "1974-01-01T00:00:02Z" (126230402) 0x1d8-0x1df.7 (8)
0x1e0|00 00 00 03                                    |....            |        corr: 3 0x1e0-0x1e3.7 (4)
     |                                               |                |      [3]{}: leap_second_record 0x1e4-0x1ef.7 (12)
0x1e0|            00 00 00 00 09 67 53 03            |    .....gS.    |        occur: "1975-01-01T00:00:03Z" (157766403) 0x1e4-0x1eb.7 (8)
0x1e0|                                    00 00 00 04|            ....|        corr: 4 0x1ec-0x1ef.7 (4)
     |                                               |                |      [4]{}: leap_second_record 0x1f0-0x1fb.7 (12)
0x1f0|00 00 00 00 0b 48 86 84                        |.....H..        |        occur: "1976-01-01T00:00:04Z" (189302404) 0x1f0-0x1f7.7 (8)
0x1f0|                        00 00 00 05            |        ....    |        corr: 5 0x1f8-0x1fb.7 (4)
     |                                               |                |      [5]{}: leap_second_record 0x1fc-0x207.7 (12)
0x1f0|                                    00 00 00 00|            ....|        occur: "1977-01-01T00:00:05Z" (220924805) 0x1fc-0x203.7 (8)
0x200|0d 2b 0b 85                                    |.+..            |
0x200|            00 00 00 06                        |    ....        |        corr: 6 0x204-0x207.7 (4)
     |                                               |                |      [6]{}: leap_second_record 0x208-0x213.7 (12)
0x200|                        00 00 00 00 0f 0c 3f 06|        ......?.|        occur: "1978-01-01T00:00:06Z" (252460806) 0x208-0x20f.7 (8)
0x210|00 00 00 07                                    |....            |        corr: 7 0x210-0x213.7 (4)
     |                                               |                |      [7]{}: leap_second_record 0x214-0x21f.7 (12)
0x210|            00 00 00 00 10 ed 72 87            |    ......r.    |        occur: "1979-01-01T00:00:07Z" (283996807) 0x214-0x21b.7 (8)
0x210|                                    00 00 00 08|            ....|        corr: 8 0x21c-0x21f.7 (4)
     |                                               |                |      [8]{}: leap_second_record 0x220-0x22b.7 (12)
0x220|00 00 00 00 12 ce a6 08                        |........        |        occur: "1980-01-01T00:00:08Z" (315532808) 0x220-0x227.7 (8)
0x220|                        00 00 00 09            |        ....    |        corr: 9 0x228-0x22b.7 (4)
     |                                               |                |      [9]{}: leap_second_record 0x22c-0x237.7 (12)
0x220|                                    00 00 00 00|            ....|        occur: "1981-07-01T00:00:09Z" (362793609) 0x22c-0x233.7 (8)
0x230|15 9f ca 89                                    |....            |
0x230|            00 00 00 0a                        |    ....        |        corr: 10 0x234-0x237.7 (4)
     |                                               |                |      [10]{}: leap_second_record 0x238-0x243.7 (12)
0x230|                        00 00 00 00 17 80 fe 0a|        ........|        occur: "1982-07-01T00:00:10Z" (394329610) 0x238-0x23f.7 (8)
0x240|00 00 00 0b                                    |....            |        corr: 11 0x240-0x243.7 (4)
     |                                               |                |      [11]{}: leap_second_record 0x244-0x24f.7 (12)
0x240|            00 00 00 00 19 62 31 8b            |    .....b1.    |        occur: "1983-07-01T00:00:11Z" (425865611) 0x244-0x24b.7 (8)
0x240|                                    00 00 00 0c|            ....|        corr: 12 0x24c-0x24f.7 (4)
     |                                               |                |      [12]{}: leap_second_record 0x250-0x25b.7 (12)
0x250|00 00 00 00 1d 25 ea 0c                        |.....%..        |        occur: "1985-07-01T00:00:12Z" (489024012) 0x250-0x257.7 (8)
0x250|                        00 00 00 0d            |        ....    |        corr: 13 0x258-0x25b.7 (4)
     |                                               |                |      [13]{}: leap_second_record 0x25c-0x267.7 (12)
0x250|                                    00 00 00 00|            ....|        occur: "1988-01-01T00:00:13Z" (567993613) 0x25c-0x263.7 (8)
0x260|21 da e5 0d                                    |!...            |
0x260|            00 00 00 0e                        |    ....        |        corr: 14 0x264-0x267.7 (4)
     |                                               |                |      [14]{}: leap_second_record 0x268-0x273.7 (12)
0x260|                        00 00 00 00 25 9e 9d 8e|        ....%...|        occur: "1990-01-01T00:00:14Z" (631152014) 0x268-0x26f.7 (8)
0x270|00 00 00 0f                                    |....            |        corr: 15 0x270-0x273.7 (4)
     |                                               |                |      [15]{}: leap_second_record 0x274-0x27f.7 (12)
0x270|            00 00 00 00 27 7f d1 0f            |    ....'...    |        occur: "1991-01-01T00:00:15Z" (662688015) 0x274-0x27b.7 (8)
0x270|                                    00 00 00 10|            ....|        corr: 16 0x27c-0x27f.7 (4)
     |                                               |                |      [16]{}: leap_second_record 0x280-0x28b.7 (12)
0x280|00 00 00 00 2a 50 f5 90                        |....*P..        |        occur: "1992-07-01T00:00:16Z" (709948816) 0x280-0x287.7 (8)
0x280|                        00 00 00 11            |        ....    |        corr: 17 0x288-0x28b.7 (4)
     |                                               |                |      [17]{}: leap_second_record 0x28c-0x297.7 (12)
0x280|                                    00 00 00 00|            ....|        occur: "1993-07-01T00:00:17Z" (741484817) 0x28c-0x293.7 (8)
0x290|2c 32 29 11                                    |,2).            |
0x290|            00 00 00 12                        |    ....        |        corr: 18 0x294-0x297.7 (4)
     |                                               |                |      [18]{}: leap_second_record 0x298-0x2a3.7 (12)
0x290|                        00 00 00 00 2e 13 5c 92|        ......\.|        occur: "1994-07-01T00:00:18Z" (773020818) 0x298-0x29f.7 (8)
0x2a0|00 00 00 13                                    |....            |        corr: 19 0x2a0-0x2a3.7 (4)
     |                                               |                |      [19]{}: leap_second_record 0x2a4-0x2af.7 (12)
0x2a0|            00 00 00 00 30 e7 24 13            |    ....0.$.    |        occur: "1996-01-01T00:00:19Z" (820454419) 0x2a4-0x2ab.7 (8)
0x2a0|                                    00 00 00 14|            ....|        corr: 20 0x2ac-0x2af.7 (4)
     |                                               |                |      [20]{}: leap_second_record 0x2b0-0x2bb.7 (12)
0x2b0|00 00 00 00 33 b8 48 94                        |....3.H.        |        occur: "1997-07-01T00:00:20Z" (867715220) 0x2b0-0x2b7.7 (8)
0x2b0|                        00 00 00 15            |        ....    |        corr: 21 0x2b8-0x2bb.7 (4)
     |                                               |                |      [21]{}: leap_second_record 0x2bc-0x2c7.7 (12)
0x2b0|                                    00 00 00 00|            ....|        occur: "1999-01-01T00:00:21Z" (915148821) 0x2bc-0x2c3.7 (8)
0x2c0|36 8c 10 15                                    |6...            |
0x2c0|            00 00 00 16                        |    ....        |        corr: 22 0x2c4-0x2c7.7 (4)
     |                                               |                |      [22]{}: leap_second_record 0x2c8-0x2d3.7 (12)
0x2c0|                        00 00 00 00 43 b7 1b 96|        ....C...|        occur: "2006-01-01T00:00:22Z" (1136073622) 0x2c8-0x2cf.7 (8)
0x2d0|00 00 00 17                                    |....            |        corr: 23 0x2d0-0x2d3.7 (4)
     |                                               |                |      [23]{}: leap_second_record 0x2d4-0x2df.7 (12)
0x2d0|            00 00 00 00 49 5c 07 97            |    ....I\..    |        occur: "2009-01-01T00:00:23Z" (1230768023) 0x2d4-0x2db.7 (8)
0x2d0|                                    00 00 00 18|            ....|        corr: 24 0x2dc-0x2df.7 (4)
     |                                               |                |      [24]{}: leap_second_record 0x2e0-0x2eb.7 (12)
0x2e0|00 00 00 00 4f ef 93 18                        |....O...        |        occur: "2012-07-01T00:00:24Z" (1341100824) 0x2e0-0x2e7.7 (8)
0x2e0|                        00 00 00 19            |        ....    |        corr: 25 0x2e8-0x2eb.7 (4)
     |                                               |                |      [25]{}: leap_second_record 0x2ec-0x2f7.7 (12)
0x2e0|                                    00 00 00 00|            ....|        occur: "2015-07-01T00:00:25Z" (1435708825) 0x2ec-0x2f3.7 (8)
0x2f0|55 93 2d 99                                    |U.-.            |
0x2f0|            00 00 00 1a                        |    ....        |        corr: 26 0x2f4-0x2f7.7 (4)
     |                                               |                |      [26]{}: leap_second_record 0x2f8-0x303.7 (12)
0x2f0|                        00 00 00 00 58 68 46 9a|        ....XhF.|        occur: "2017-01-01T00:00:26Z" (1483228826) 0x2f8-0x2ff.7 (8)
0x300|00 00 00 1b                                    |....            |        corr: 27 0x300-0x303.7 (4)
     |                                               |                |    standard_wall_indicators[0:0]: 0x304-NA (0)
     |                                               |                |    ut_local_indicators[0:0]: 0x304-NA (0)
     |                                               |                |  footer{}: 0x304-0x305.7 (2)
0x300|            0a                                 |    .           |    nl1: 10 (valid) 0x304-0x304.7 (1)
     |                                               |                |    tz_string: "" 0x305-NA (0)
0x300|               0a|                             |     .|         |    nl2: 10 (valid) 0x305-0x305.7 (1)
