$ fq -d tzif dv Eucla
     |00 01 02 03 04 05 06 07 08 09 0a 0b 0c 0d 0e 0f|0123456789abcdef|.{}: Eucla (tzif) 0x0-0x1d6 (470)
     |                                               |                |  v1header{}: 0x0-0x2c (44)
0x000|54 5a 69 66                                    |TZif            |    magic: 0x545a6966 (valid) 0x0-0x4 (4)
0x000|            32                                 |    2           |    ver: "2" (0x32) (valid) 0x4-0x5 (1)
0x000|               00 00 00 00 00 00 00 00 00 00 00|     ...........|    reserved: raw bits 0x5-0x14 (15)
0x010|00 00 00 00                                    |....            |
0x010|            00 00 00 00                        |    ....        |    isutcnt: 0 0x14-0x18 (4)
0x010|                        00 00 00 04            |        ....    |    isstdcnt: 4 0x18-0x1c (4)
0x010|                                    00 00 00 00|            ....|    leapcnt: 0 0x1c-0x20 (4)
0x020|00 00 00 14                                    |....            |    timecnt: 20 0x20-0x24 (4)
0x020|            00 00 00 04                        |    ....        |    typecnt: 4 0x24-0x28 (4)
0x020|                        00 00 00 10            |        ....    |    charcnt: 16 0x28-0x2c (4)
     |                                               |                |  v1datablock{}: 0x2c-0xbc (144)
     |                                               |                |    transition_times[0:20]: 0x2c-0x7c (80)
0x020|                                    80 00 00 00|            ....|      [0]: "1901-12-13T20:45:52Z" (-2147483648) transition_time 0x2c-0x30 (4)
0x030|9c 4e d4 14                                    |.N..            |      [1]: "1916-12-31T17:15:00Z" (-1672555500) transition_time 0x30-0x34 (4)
0x030|            9c bc 40 94                        |    ..@.        |      [2]: "1917-03-24T17:15:00Z" (-1665384300) transition_time 0x34-0x38 (4)
0x030|                        cb 54 c4 94            |        .T..    |      [3]: "1941-12-31T17:15:00Z" (-883637100) transition_time 0x38-0x3c (4)
0x030|                                    cb c7 77 14|            ..w.|      [4]: "1942-03-28T17:15:00Z" (-876120300) transition_time 0x3c-0x40 (4)
0x040|cc b7 68 14                                    |..h.            |      [5]: "1942-09-26T17:15:00Z" (-860395500) transition_time 0x40-0x44 (4)
0x040|            cd a7 59 14                        |    ..Y.        |      [6]: "1943-03-27T17:15:00Z" (-844670700) transition_time 0x44-0x48 (4)
0x040|                        09 0f f1 14            |        ....    |      [7]: "1974-10-26T17:15:00Z" (152039700) transition_time 0x48-0x4c (4)
0x040|                                    09 b6 0e 14|            ....|      [8]: "1975-03-01T17:15:00Z" (162926100) transition_time 0x4c-0x50 (4)
0x050|1a 01 58 14                                    |..X.            |      [9]: "1983-10-29T17:15:00Z" (436295700) transition_time 0x50-0x54 (4)
0x050|            1a a7 75 14                        |    ..u.        |      [10]: "1984-03-03T17:15:00Z" (447182100) transition_time 0x54-0x58 (4)
0x050|                        29 25 52 14            |        )%R.    |      [11]: "1991-11-16T17:15:00Z" (690311700) transition_time 0x58-0x5c (4)
0x050|                                    29 af bf 94|            )...|      [12]: "1992-02-29T17:15:00Z" (699383700) transition_time 0x5c-0x60 (4)
0x060|45 71 b4 94                                    |Eq..            |      [13]: "2006-12-02T17:15:00Z" (1165079700) transition_time 0x60-0x64 (4)
0x060|            46 05 5c 94                        |    F.\.        |      [14]: "2007-03-24T17:15:00Z" (1174756500) transition_time 0x64-0x68 (4)
0x060|                        47 23 72 14            |        G#r.    |      [15]: "2007-10-27T17:15:00Z" (1193505300) transition_time 0x68-0x6c (4)
0x060|                                    47 ee 79 14|            G.y.|      [16]: "2008-03-29T17:15:00Z" (1206810900) transition_time 0x6c-0x70 (4)
0x070|49 03 54 14                                    |I.T.            |      [17]: "2008-10-25T17:15:00Z" (1224954900) transition_time 0x70-0x74 (4)
0x070|            49 ce 5b 14                        |    I.[.        |      [18]: "2009-03-28T17:15:00Z" (1238260500) transition_time 0x74-0x78 (4)
0x070|                        7f ff ff ff            |        ....    |      [19]: "2038-01-19T03:14:07Z" (2147483647) transition_time 0x78-0x7c (4)
     |                                               |                |    transition_types[0:20]: 0x7c-0x90 (20)
0x070|                                    03         |            .   |      [0]: 3 transition_type 0x7c-0x7d (1)
0x070|                                       01      |             .  |      [1]: 1 transition_type 0x7d-0x7e (1)
0x070|                                          02   |              . |      [2]: 2 transition_type 0x7e-0x7f (1)
0x070|                                             01|               .|      [3]: 1 transition_type 0x7f-0x80 (1)
0x080|02                                             |.               |      [4]: 2 transition_type 0x80-0x81 (1)
0x080|   01                                          | .              |      [5]: 1 transition_type 0x81-0x82 (1)
0x080|      02                                       |  .             |      [6]: 2 transition_type 0x82-0x83 (1)
0x080|         01                                    |   .            |      [7]: 1 transition_type 0x83-0x84 (1)
0x080|            02                                 |    .           |      [8]: 2 transition_type 0x84-0x85 (1)
0x080|               01                              |     .          |      [9]: 1 transition_type 0x85-0x86 (1)
0x080|                  02                           |      .         |      [10]: 2 transition_type 0x86-0x87 (1)
0x080|                     01                        |       .        |      [11]: 1 transition_type 0x87-0x88 (1)
0x080|                        02                     |        .       |      [12]: 2 transition_type 0x88-0x89 (1)
0x080|                           01                  |         .      |      [13]: 1 transition_type 0x89-0x8a (1)
0x080|                              02               |          .     |      [14]: 2 transition_type 0x8a-0x8b (1)
0x080|                                 01            |           .    |      [15]: 1 transition_type 0x8b-0x8c (1)
0x080|                                    02         |            .   |      [16]: 2 transition_type 0x8c-0x8d (1)
0x080|                                       01      |             .  |      [17]: 1 transition_type 0x8d-0x8e (1)
0x080|                                          02   |              . |      [18]: 2 transition_type 0x8e-0x8f (1)
0x080|                                             02|               .|      [19]: 2 transition_type 0x8f-0x90 (1)
     |                                               |                |    local_time_type_records[0:4]: 0x90-0xa8 (24)
     |                                               |                |      [0]{}: local_time_type 0x90-0x96 (6)
0x090|00 00 78 d0                                    |..x.            |        utoff: 30928 (valid) 0x90-0x94 (4)
0x090|            00                                 |    .           |        dst: 0 (valid) 0x94-0x95 (1)
0x090|               00                              |     .          |        idx: 0 (valid) 0x95-0x96 (1)
     |                                               |                |      [1]{}: local_time_type 0x96-0x9c (6)
0x090|                  00 00 89 1c                  |      ....      |        utoff: 35100 (valid) 0x96-0x9a (4)
0x090|                              01               |          .     |        dst: 1 (valid) 0x9a-0x9b (1)
0x090|                                 04            |           .    |        idx: 4 (valid) 0x9b-0x9c (1)
     |                                               |                |      [2]{}: local_time_type 0x9c-0xa2 (6)
0x090|                                    00 00 7b 0c|            ..{.|        utoff: 31500 (valid) 0x9c-0xa0 (4)
0x0a0|00                                             |.               |        dst: 0 (valid) 0xa0-0xa1 (1)
0x0a0|   0a                                          | .              |        idx: 10 (valid) 0xa1-0xa2 (1)
     |                                               |                |      [3]{}: local_time_type 0xa2-0xa8 (6)
0x0a0|      00 00 7b 0c                              |  ..{.          |        utoff: 31500 (valid) 0xa2-0xa6 (4)
0x0a0|                  00                           |      .         |        dst: 0 (valid) 0xa6-0xa7 (1)
0x0a0|                     0a                        |       .        |        idx: 10 (valid) 0xa7-0xa8 (1)
     |                                               |                |    time_zone_designations[0:3]: 0xa8-0xb8 (16)
0x0a0|                        4c 4d 54 00            |        LMT.    |      [0]: "LMT" time_zone_designation 0xa8-0xac (4)
0x0a0|                                    2b 30 39 34|            +094|      [1]: "+0945" time_zone_designation 0xac-0xb2 (6)
0x0b0|35 00                                          |5.              |
0x0b0|      2b 30 38 34 35 00                        |  +0845.        |      [2]: "+0845" time_zone_designation 0xb2-0xb8 (6)
     |                                               |                |    leap_second_records[0:0]: 0xb8-0xb8 (0)
     |                                               |                |    standard_wall_indicators[0:4]: 0xb8-0xbc (4)
0x0b0|                        00                     |        .       |      [0]: 0 standard_wall_indicator (valid) 0xb8-0xb9 (1)
0x0b0|                           01                  |         .      |      [1]: 1 standard_wall_indicator (valid) 0xb9-0xba (1)
0x0b0|                              01               |          .     |      [2]: 1 standard_wall_indicator (valid) 0xba-0xbb (1)
0x0b0|                                 00            |           .    |      [3]: 0 standard_wall_indicator (valid) 0xbb-0xbc (1)
     |                                               |                |    ut_local_indicators[0:0]: 0xbc-0xbc (0)
     |                                               |                |  v2plusheader{}: 0xbc-0xe8 (44)
0x0b0|                                    54 5a 69 66|            TZif|    magic: 0x545a6966 (valid) 0xbc-0xc0 (4)
0x0c0|32                                             |2               |    ver: "2" (0x32) (valid) 0xc0-0xc1 (1)
0x0c0|   00 00 00 00 00 00 00 00 00 00 00 00 00 00 00| ...............|    reserved: raw bits 0xc1-0xd0 (15)
0x0d0|00 00 00 00                                    |....            |    isutcnt: 0 0xd0-0xd4 (4)
0x0d0|            00 00 00 04                        |    ....        |    isstdcnt: 4 0xd4-0xd8 (4)
0x0d0|                        00 00 00 00            |        ....    |    leapcnt: 0 0xd8-0xdc (4)
0x0d0|                                    00 00 00 14|            ....|    timecnt: 20 0xdc-0xe0 (4)
0x0e0|00 00 00 04                                    |....            |    typecnt: 4 0xe0-0xe4 (4)
0x0e0|            00 00 00 10                        |    ....        |    charcnt: 16 0xe4-0xe8 (4)
     |                                               |                |  v2plusdatablock{}: 0xe8-0x1c8 (224)
     |                                               |                |    transition_times[0:20]: 0xe8-0x188 (160)
0x0e0|                        ff ff ff ff 74 a6 0a b0|        ....t...|      [0]: "1895-11-30T15:24:32Z" (-2337928528) transition_time 0xe8-0xf0 (8)
0x0f0|ff ff ff ff 9c 4e d4 14                        |.....N..        |      [1]: "1916-12-31T17:15:00Z" (-1672555500) transition_time 0xf0-0xf8 (8)
0x0f0|                        ff ff ff ff 9c bc 40 94|        ......@.|      [2]: "1917-03-24T17:15:00Z" (-1665384300) transition_time 0xf8-0x100 (8)
0x100|ff ff ff ff cb 54 c4 94                        |.....T..        |      [3]: "1941-12-31T17:15:00Z" (-883637100) transition_time 0x100-0x108 (8)
0x100|                        ff ff ff ff cb c7 77 14|        ......w.|      [4]: "1942-03-28T17:15:00Z" (-876120300) transition_time 0x108-0x110 (8)
0x110|ff ff ff ff cc b7 68 14                        |......h.        |      [5]: "1942-09-26T17:15:00Z" (-860395500) transition_time 0x110-0x118 (8)
0x110|                        ff ff ff ff cd a7 59 14|        ......Y.|      [6]: "1943-03-27T17:15:00Z" (-844670700) transition_time 0x118-0x120 (8)
0x120|00 00 00 00 09 0f f1 14                        |........        |      [7]: "1974-10-26T17:15:00Z" (152039700) transition_time 0x120-0x128 (8)
0x120|                        00 00 00 00 09 b6 0e 14|        ........|      [8]: "1975-03-01T17:15:00Z" (162926100) transition_time 0x128-0x130 (8)
0x130|00 00 00 00 1a 01 58 14                        |......X.        |      [9]: "1983-10-29T17:15:00Z" (436295700) transition_time 0x130-0x138 (8)
0x130|                        00 00 00 00 1a a7 75 14|        ......u.|      [10]: "1984-03-03T17:15:00Z" (447182100) transition_time 0x138-0x140 (8)
0x140|00 00 00 00 29 25 52 14                        |....)%R.        |      [11]: "1991-11-16T17:15:00Z" (690311700) transition_time 0x140-0x148 (8)
0x140|                        00 00 00 00 29 af bf 94|        ....)...|      [12]: "1992-02-29T17:15:00Z" (699383700) transition_time 0x148-0x150 (8)
0x150|00 00 00 00 45 71 b4 94                        |....Eq..        |      [13]: "2006-12-02T17:15:00Z" (1165079700) transition_time 0x150-0x158 (8)
0x150|                        00 00 00 00 46 05 5c 94|        ....F.\.|      [14]: "2007-03-24T17:15:00Z" (1174756500) transition_time 0x158-0x160 (8)
0x160|00 00 00 00 47 23 72 14                        |....G#r.        |      [15]: "2007-10-27T17:15:00Z" (1193505300) transition_time 0x160-0x168 (8)
0x160|                        00 00 00 00 47 ee 79 14|        ....G.y.|      [16]: "2008-03-29T17:15:00Z" (1206810900) transition_time 0x168-0x170 (8)
0x170|00 00 00 00 49 03 54 14                        |....I.T.        |      [17]: "2008-10-25T17:15:00Z" (1224954900) transition_time 0x170-0x178 (8)
0x170|                        00 00 00 00 49 ce 5b 14|        ....I.[.|      [18]: "2009-03-28T17:15:00Z" (1238260500) transition_time 0x178-0x180 (8)
0x180|00 00 00 00 7f ff ff ff                        |........        |      [19]: "2038-01-19T03:14:07Z" (2147483647) transition_time 0x180-0x188 (8)
     |                                               |                |    transition_types[0:20]: 0x188-0x19c (20)
0x180|                        03                     |        .       |      [0]: 3 transition_type 0x188-0x189 (1)
0x180|                           01                  |         .      |      [1]: 1 transition_type 0x189-0x18a (1)
0x180|                              02               |          .     |      [2]: 2 transition_type 0x18a-0x18b (1)
0x180|                                 01            |           .    |      [3]: 1 transition_type 0x18b-0x18c (1)
0x180|                                    02         |            .   |      [4]: 2 transition_type 0x18c-0x18d (1)
0x180|                                       01      |             .  |      [5]: 1 transition_type 0x18d-0x18e (1)
0x180|                                          02   |              . |      [6]: 2 transition_type 0x18e-0x18f (1)
0x180|                                             01|               .|      [7]: 1 transition_type 0x18f-0x190 (1)
0x190|02                                             |.               |      [8]: 2 transition_type 0x190-0x191 (1)
0x190|   01                                          | .              |      [9]: 1 transition_type 0x191-0x192 (1)
0x190|      02                                       |  .             |      [10]: 2 transition_type 0x192-0x193 (1)
0x190|         01                                    |   .            |      [11]: 1 transition_type 0x193-0x194 (1)
0x190|            02                                 |    .           |      [12]: 2 transition_type 0x194-0x195 (1)
0x190|               01                              |     .          |      [13]: 1 transition_type 0x195-0x196 (1)
0x190|                  02                           |      .         |      [14]: 2 transition_type 0x196-0x197 (1)
0x190|                     01                        |       .        |      [15]: 1 transition_type 0x197-0x198 (1)
0x190|                        02                     |        .       |      [16]: 2 transition_type 0x198-0x199 (1)
0x190|                           01                  |         .      |      [17]: 1 transition_type 0x199-0x19a (1)
0x190|                              02               |          .     |      [18]: 2 transition_type 0x19a-0x19b (1)
0x190|                                 02            |           .    |      [19]: 2 transition_type 0x19b-0x19c (1)
     |                                               |                |    local_time_type_records[0:4]: 0x19c-0x1b4 (24)
     |                                               |                |      [0]{}: local_time_type 0x19c-0x1a2 (6)
0x190|                                    00 00 78 d0|            ..x.|        utoff: 30928 (valid) 0x19c-0x1a0 (4)
0x1a0|00                                             |.               |        dst: 0 (valid) 0x1a0-0x1a1 (1)
0x1a0|   00                                          | .              |        idx: 0 (valid) 0x1a1-0x1a2 (1)
     |                                               |                |      [1]{}: local_time_type 0x1a2-0x1a8 (6)
0x1a0|      00 00 89 1c                              |  ....          |        utoff: 35100 (valid) 0x1a2-0x1a6 (4)
0x1a0|                  01                           |      .         |        dst: 1 (valid) 0x1a6-0x1a7 (1)
0x1a0|                     04                        |       .        |        idx: 4 (valid) 0x1a7-0x1a8 (1)
     |                                               |                |      [2]{}: local_time_type 0x1a8-0x1ae (6)
0x1a0|                        00 00 7b 0c            |        ..{.    |        utoff: 31500 (valid) 0x1a8-0x1ac (4)
0x1a0|                                    00         |            .   |        dst: 0 (valid) 0x1ac-0x1ad (1)
0x1a0|                                       0a      |             .  |        idx: 10 (valid) 0x1ad-0x1ae (1)
     |                                               |                |      [3]{}: local_time_type 0x1ae-0x1b4 (6)
0x1a0|                                          00 00|              ..|        utoff: 31500 (valid) 0x1ae-0x1b2 (4)
0x1b0|7b 0c                                          |{.              |
0x1b0|      00                                       |  .             |        dst: 0 (valid) 0x1b2-0x1b3 (1)
0x1b0|         0a                                    |   .            |        idx: 10 (valid) 0x1b3-0x1b4 (1)
     |                                               |                |    time_zone_designations[0:3]: 0x1b4-0x1c4 (16)
0x1b0|            4c 4d 54 00                        |    LMT.        |      [0]: "LMT" time_zone_designation 0x1b4-0x1b8 (4)
0x1b0|                        2b 30 39 34 35 00      |        +0945.  |      [1]: "+0945" time_zone_designation 0x1b8-0x1be (6)
0x1b0|                                          2b 30|              +0|      [2]: "+0845" time_zone_designation 0x1be-0x1c4 (6)
0x1c0|38 34 35 00                                    |845.            |
     |                                               |                |    leap_second_records[0:0]: 0x1c4-0x1c4 (0)
     |                                               |                |    standard_wall_indicators[0:4]: 0x1c4-0x1c8 (4)
0x1c0|            00                                 |    .           |      [0]: 0 standard_wall_indicator (valid) 0x1c4-0x1c5 (1)
0x1c0|               01                              |     .          |      [1]: 1 standard_wall_indicator (valid) 0x1c5-0x1c6 (1)
0x1c0|                  01                           |      .         |      [2]: 1 standard_wall_indicator (valid) 0x1c6-0x1c7 (1)
0x1c0|                     00                        |       .        |      [3]: 0 standard_wall_indicator (valid) 0x1c7-0x1c8 (1)
     |                                               |                |    ut_local_indicators[0:0]: 0x1c8-0x1c8 (0)
     |                                               |                |  footer{}: 0x1c8-0x1d6 (14)
0x1c0|                        0a                     |        .       |    nl1: 10 (valid) 0x1c8-0x1c9 (1)
0x1c0|                           3c 2b 30 38 34 35 3e|         <+0845>|    tz_string: "<+0845>-8:45" 0x1c9-0x1d5 (12)
0x1d0|2d 38 3a 34 35                                 |-8:45           |
0x1d0|               0a|                             |     .|         |    nl2: 10 (valid) 0x1d5-0x1d6 (1)
