$ fq -d tzif dv Fakaofo
    |00 01 02 03 04 05 06 07 08 09 0a 0b 0c 0d 0e 0f|0123456789abcdef|.{}: Fakaofo (tzif) 0x0-0xc7.7 (200)
    |                                               |                |  v1header{}: 0x0-0x2b.7 (44)
0x00|54 5a 69 66                                    |TZif            |    magic: 0x545a6966 (valid) 0x0-0x3.7 (4)
0x00|            32                                 |    2           |    ver: "2" (0x32) (valid) 0x4-0x4.7 (1)
0x00|               00 00 00 00 00 00 00 00 00 00 00|     ...........|    reserved: raw bits 0x5-0x13.7 (15)
0x10|00 00 00 00                                    |....            |
0x10|            00 00 00 00                        |    ....        |    isutcnt: 0 0x14-0x17.7 (4)
0x10|                        00 00 00 00            |        ....    |    isstdcnt: 0 0x18-0x1b.7 (4)
0x10|                                    00 00 00 00|            ....|    leapcnt: 0 0x1c-0x1f.7 (4)
0x20|00 00 00 03                                    |....            |    timecnt: 3 0x20-0x23.7 (4)
0x20|            00 00 00 03                        |    ....        |    typecnt: 3 0x24-0x27.7 (4)
0x20|                        00 00 00 0c            |        ....    |    charcnt: 12 0x28-0x2b.7 (4)
    |                                               |                |  v1datablock{}: 0x2c-0x58.7 (45)
    |                                               |                |    transition_times[0:3]: 0x2c-0x37.7 (12)
0x20|                                    80 00 00 00|            ....|      [0]: "1901-12-13T20:45:52Z" (-2147483648) transition_time 0x2c-0x2f.7 (4)
0x30|4e fd 99 b0                                    |N...            |      [1]: "2011-12-30T11:00:00Z" (1325242800) transition_time 0x30-0x33.7 (4)
0x30|            7f ff ff ff                        |    ....        |      [2]: "2038-01-19T03:14:07Z" (2147483647) transition_time 0x34-0x37.7 (4)
    |                                               |                |    transition_types[0:3]: 0x38-0x3a.7 (3)
0x30|                        01                     |        .       |      [0]: 1 transition_type 0x38-0x38.7 (1)
0x30|                           02                  |         .      |      [1]: 2 transition_type 0x39-0x39.7 (1)
0x30|                              02               |          .     |      [2]: 2 transition_type 0x3a-0x3a.7 (1)
    |                                               |                |    local_time_type_records[0:3]: 0x3b-0x4c.7 (18)
    |                                               |                |      [0]{}: local_time_type 0x3b-0x40.7 (6)
0x30|                                 ff ff 5f 78   |           .._x |        utoff: -41096 (valid) 0x3b-0x3e.7 (4)
0x30|                                             00|               .|        dst: 0 (valid) 0x3f-0x3f.7 (1)
0x40|00                                             |.               |        idx: 0 (valid) 0x40-0x40.7 (1)
    |                                               |                |      [1]{}: local_time_type 0x41-0x46.7 (6)
0x40|   ff ff 65 50                                 | ..eP           |        utoff: -39600 (valid) 0x41-0x44.7 (4)
0x40|               00                              |     .          |        dst: 0 (valid) 0x45-0x45.7 (1)
0x40|                  04                           |      .         |        idx: 4 (valid) 0x46-0x46.7 (1)
    |                                               |                |      [2]{}: local_time_type 0x47-0x4c.7 (6)
0x40|                     00 00 b6 d0               |       ....     |        utoff: 46800 (valid) 0x47-0x4a.7 (4)
0x40|                                 00            |           .    |        dst: 0 (valid) 0x4b-0x4b.7 (1)
0x40|                                    08         |            .   |        idx: 8 (valid) 0x4c-0x4c.7 (1)
    |                                               |                |    time_zone_designations[0:3]: 0x4d-0x58.7 (12)
0x40|                                       4c 4d 54|             LMT|      [0]: "LMT" time_zone_designation 0x4d-0x50.7 (4)
0x50|00                                             |.               |
0x50|   2d 31 31 00                                 | -11.           |      [1]: "-11" time_zone_designation 0x51-0x54.7 (4)
0x50|               2b 31 33 00                     |     +13.       |      [2]: "+13" time_zone_designation 0x55-0x58.7 (4)
    |                                               |                |    leap_second_records[0:0]: 0x59-NA (0)
    |                                               |                |    standard_wall_indicators[0:0]: 0x59-NA (0)
    |                                               |                |    ut_local_indicators[0:0]: 0x59-NA (0)
    |                                               |                |  v2plusheader{}: 0x59-0x84.7 (44)
0x50|                           54 5a 69 66         |         TZif   |    magic: 0x545a6966 (valid) 0x59-0x5c.7 (4)
0x50|                                       32      |             2  |    ver: "2" (0x32) (valid) 0x5d-0x5d.7 (1)
0x50|                                          00 00|              ..|    reserved: raw bits 0x5e-0x6c.7 (15)
0x60|00 00 00 00 00 00 00 00 00 00 00 00 00         |.............   |
0x60|                                       00 00 00|             ...|    isutcnt: 0 0x6d-0x70.7 (4)
0x70|00                                             |.               |
0x70|   00 00 00 00                                 | ....           |    isstdcnt: 0 0x71-0x74.7 (4)
0x70|               00 00 00 00                     |     ....       |    leapcnt: 0 0x75-0x78.7 (4)
0x70|                           00 00 00 03         |         ....   |    timecnt: 3 0x79-0x7c.7 (4)
0x70|                                       00 00 00|             ...|    typecnt: 3 0x7d-0x80.7 (4)
0x80|03                                             |.               |
0x80|   00 00 00 0c                                 | ....           |    charcnt: 12 0x81-0x84.7 (4)
    |                                               |                |  v2plusdatablock{}: 0x85-0xbd.7 (57)
    |                                               |                |    transition_times[0:3]: 0x85-0x9c.7 (24)
0x80|               ff ff ff ff 7e 37 55 88         |     ....~7U.   |      [0]: "1901-01-01T11:24:56Z" (-2177411704) transition_time 0x85-0x8c.7 (8)
0x80|                                       00 00 00|             ...|      [1]: "2011-12-30T11:00:00Z" (1325242800) transition_time 0x8d-0x94.7 (8)
0x90|00 4e fd 99 b0                                 |.N...           |
0x90|               00 00 00 00 7f ff ff ff         |     ........   |      [2]: "2038-01-19T03:14:07Z" (2147483647) transition_time 0x95-0x9c.7 (8)
    |                                               |                |    transition_types[0:3]: 0x9d-0x9f.7 (3)
0x90|                                       01      |             .  |      [0]: 1 transition_type 0x9d-0x9d.7 (1)
0x90|                                          02   |              . |      [1]: 2 transition_type 0x9e-0x9e.7 (1)
0x90|                                             02|               .|      [2]: 2 transition_type 0x9f-0x9f.7 (1)
    |                                               |                |    local_time_type_records[0:3]: 0xa0-0xb1.7 (18)
    |                                               |                |      [0]{}: local_time_type 0xa0-0xa5.7 (6)
0xa0|ff ff 5f 78                                    |.._x            |        utoff: -41096 (valid) 0xa0-0xa3.7 (4)
0xa0|            00                                 |    .           |        dst: 0 (valid) 0xa4-0xa4.7 (1)
0xa0|               00                              |     .          |        idx: 0 (valid) 0xa5-0xa5.7 (1)
    |                                               |                |      [1]{}: local_time_type 0xa6-0xab.7 (6)
0xa0|                  ff ff 65 50                  |      ..eP      |        utoff: -39600 (valid) 0xa6-0xa9.7 (4)
0xa0|                              00               |          .     |        dst: 0 (valid) 0xaa-0xaa.7 (1)
0xa0|                                 04            |           .    |        idx: 4 (valid) 0xab-0xab.7 (1)
    |                                               |                |      [2]{}: local_time_type 0xac-0xb1.7 (6)
0xa0|                                    00 00 b6 d0|            ....|        utoff: 46800 (valid) 0xac-0xaf.7 (4)
0xb0|00                                             |.               |        dst: 0 (valid) 0xb0-0xb0.7 (1)
0xb0|   08                                          | .              |        idx: 8 (valid) 0xb1-0xb1.7 (1)
    |                                               |                |    time_zone_designations[0:3]: 0xb2-0xbd.7 (12)
0xb0|      4c 4d 54 00                              |  LMT.          |      [0]: "LMT" time_zone_designation 0xb2-0xb5.7 (4)
0xb0|                  2d 31 31 00                  |      -11.      |      [1]: "-11" time_zone_designation 0xb6-0xb9.7 (4)
0xb0|                              2b 31 33 00      |          +13.  |      [2]: "+13" time_zone_designation 0xba-0xbd.7 (4)
    |                                               |                |    leap_second_records[0:0]: 0xbe-NA (0)
    |                                               |                |    standard_wall_indicators[0:0]: 0xbe-NA (0)
    |                                               |                |    ut_local_indicators[0:0]: 0xbe-NA (0)
    |                                               |                |  footer{}: 0xbe-0xc7.7 (10)
0xb0|                                          0a   |              . |    nl1: 10 (valid) 0xbe-0xbe.7 (1)
0xb0|                                             3c|               <|    tz_string: "<+13>-13" 0xbf-0xc6.7 (8)
0xc0|2b 31 33 3e 2d 31 33                           |+13>-13         |
0xc0|                     0a|                       |       .|       |    nl2: 10 (valid) 0xc7-0xc7.7 (1)
