$ fq -d tzif dv Faroe
     |00 01 02 03 04 05 06 07 08 09 0a 0b 0c 0d 0e 0f|0123456789abcdef|.{}: Faroe (tzif) 0x0-0x792 (1938)
     |                                               |                |  v1header{}: 0x0-0x2c (44)
0x000|54 5a 69 66                                    |TZif            |    magic: 0x545a6966 (valid) 0x0-0x4 (4)
0x000|            32                                 |    2           |    ver: "2" (0x32) (valid) 0x4-0x5 (1)
0x000|               00 00 00 00 00 00 00 00 00 00 00|     ...........|    reserved: raw bits 0x5-0x14 (15)
0x010|00 00 00 00                                    |....            |
0x010|            00 00 00 04                        |    ....        |    isutcnt: 4 0x14-0x18 (4)
0x010|                        00 00 00 04            |        ....    |    isstdcnt: 4 0x18-0x1c (4)
0x010|                                    00 00 00 1b|            ....|    leapcnt: 27 0x1c-0x20 (4)
0x020|00 00 00 57                                    |...W            |    timecnt: 87 0x20-0x24 (4)
0x020|            00 00 00 04                        |    ....        |    typecnt: 4 0x24-0x28 (4)
0x020|                        00 00 00 0d            |        ....    |    charcnt: 13 0x28-0x2c (4)
     |                                               |                |  v1datablock{}: 0x2c-0x2e4 (696)
     |                                               |                |    transition_times[0:87]: 0x2c-0x188 (348)
0x020|                                    8b 6d a4 58|            .m.X|      [0]: "1908-01-11T00:27:04Z" (-1955748776) transition_time 0x2c-0x30 (4)
0x030|15 23 eb 99                                    |.#..            |      [1]: "1981-03-29T01:00:09Z" (354675609) transition_time 0x30-0x34 (4)
0x030|            16 13 dc 9a                        |    ....        |      [2]: "1981-09-27T01:00:10Z" (370400410) transition_time 0x34-0x38 (4)
0x030|                        17 03 cd 9a            |        ....    |      [3]: "1982-03-28T01:00:10Z" (386125210) transition_time 0x38-0x3c (4)
0x030|                                    17 f3 be 9b|            ....|      [4]: "1982-09-26T01:00:11Z" (401850011) transition_time 0x3c-0x40 (4)
0x040|18 e3 af 9b                                    |....            |      [5]: "1983-03-27T01:00:11Z" (417574811) transition_time 0x40-0x44 (4)
0x040|            19 d3 a0 9c                        |    ....        |      [6]: "1983-09-25T01:00:12Z" (433299612) transition_time 0x44-0x48 (4)
0x040|                        1a c3 91 9c            |        ....    |      [7]: "1984-03-25T01:00:12Z" (449024412) transition_time 0x48-0x4c (4)
0x040|                                    1b bc bd 1c|            ....|      [8]: "1984-09-30T01:00:12Z" (465354012) transition_time 0x4c-0x50 (4)
0x050|1c ac ae 1c                                    |....            |      [9]: "1985-03-31T01:00:12Z" (481078812) transition_time 0x50-0x54 (4)
0x050|            1d 9c 9f 1d                        |    ....        |      [10]: "1985-09-29T01:00:13Z" (496803613) transition_time 0x54-0x58 (4)
0x050|                        1e 8c 90 1d            |        ....    |      [11]: "1986-03-30T01:00:13Z" (512528413) transition_time 0x58-0x5c (4)
0x050|                                    1f 7c 81 1d|            .|..|      [12]: "1986-09-28T01:00:13Z" (528253213) transition_time 0x5c-0x60 (4)
0x060|20 6c 72 1d                                    | lr.            |      [13]: "1987-03-29T01:00:13Z" (543978013) transition_time 0x60-0x64 (4)
0x060|            21 5c 63 1d                        |    !\c.        |      [14]: "1987-09-27T01:00:13Z" (559702813) transition_time 0x64-0x68 (4)
0x060|                        22 4c 54 1e            |        "LT.    |      [15]: "1988-03-27T01:00:14Z" (575427614) transition_time 0x68-0x6c (4)
0x060|                                    23 3c 45 1e|            #<E.|      [16]: "1988-09-25T01:00:14Z" (591152414) transition_time 0x6c-0x70 (4)
0x070|24 2c 36 1e                                    |$,6.            |      [17]: "1989-03-26T01:00:14Z" (606877214) transition_time 0x70-0x74 (4)
0x070|            25 1c 27 1e                        |    %.'.        |      [18]: "1989-09-24T01:00:14Z" (622602014) transition_time 0x74-0x78 (4)
0x070|                        26 0c 18 1f            |        &...    |      [19]: "1990-03-25T01:00:15Z" (638326815) transition_time 0x78-0x7c (4)
0x070|                                    27 05 43 9f|            '.C.|      [20]: "1990-09-30T01:00:15Z" (654656415) transition_time 0x7c-0x80 (4)
0x080|27 f5 34 a0                                    |'.4.            |      [21]: "1991-03-31T01:00:16Z" (670381216) transition_time 0x80-0x84 (4)
0x080|            28 e5 25 a0                        |    (.%.        |      [22]: "1991-09-29T01:00:16Z" (686106016) transition_time 0x84-0x88 (4)
0x080|                        29 d5 16 a0            |        )...    |      [23]: "1992-03-29T01:00:16Z" (701830816) transition_time 0x88-0x8c (4)
0x080|                                    2a c5 07 a1|            *...|      [24]: "1992-09-27T01:00:17Z" (717555617) transition_time 0x8c-0x90 (4)
0x090|2b b4 f8 a1                                    |+...            |      [25]: "1993-03-28T01:00:17Z" (733280417) transition_time 0x90-0x94 (4)
0x090|            2c a4 e9 a2                        |    ,...        |      [26]: "1993-09-26T01:00:18Z" (749005218) transition_time 0x94-0x98 (4)
0x090|                        2d 94 da a2            |        -...    |      [27]: "1994-03-27T01:00:18Z" (764730018) transition_time 0x98-0x9c (4)
0x090|                                    2e 84 cb a3|            ....|      [28]: "1994-09-25T01:00:19Z" (780454819) transition_time 0x9c-0xa0 (4)
0x0a0|2f 74 bc a3                                    |/t..            |      [29]: "1995-03-26T01:00:19Z" (796179619) transition_time 0xa0-0xa4 (4)
0x0a0|            30 64 ad a3                        |    0d..        |      [30]: "1995-09-24T01:00:19Z" (811904419) transition_time 0xa4-0xa8 (4)
0x0a0|                        31 5d d9 24            |        1].$    |      [31]: "1996-03-31T01:00:20Z" (828234020) transition_time 0xa8-0xac (4)
0x0a0|                                    32 72 b4 24|            2r.$|      [32]: "1996-10-27T01:00:20Z" (846378020) transition_time 0xac-0xb0 (4)
0x0b0|33 3d bb 24                                    |3=.$            |      [33]: "1997-03-30T01:00:20Z" (859683620) transition_time 0xb0-0xb4 (4)
0x0b0|            34 52 96 25                        |    4R.%        |      [34]: "1997-10-26T01:00:21Z" (877827621) transition_time 0xb4-0xb8 (4)
0x0b0|                        35 1d 9d 25            |        5..%    |      [35]: "1998-03-29T01:00:21Z" (891133221) transition_time 0xb8-0xbc (4)
0x0b0|                                    36 32 78 25|            62x%|      [36]: "1998-10-25T01:00:21Z" (909277221) transition_time 0xbc-0xc0 (4)
0x0c0|36 fd 7f 26                                    |6..&            |      [37]: "1999-03-28T01:00:22Z" (922582822) transition_time 0xc0-0xc4 (4)
0x0c0|            38 1b 94 a6                        |    8...        |      [38]: "1999-10-31T01:00:22Z" (941331622) transition_time 0xc4-0xc8 (4)
0x0c0|                        38 dd 61 26            |        8.a&    |      [39]: "2000-03-26T01:00:22Z" (954032422) transition_time 0xc8-0xcc (4)
0x0c0|                                    39 fb 76 a6|            9.v.|      [40]: "2000-10-29T01:00:22Z" (972781222) transition_time 0xcc-0xd0 (4)
0x0d0|3a bd 43 26                                    |:.C&            |      [41]: "2001-03-25T01:00:22Z" (985482022) transition_time 0xd0-0xd4 (4)
0x0d0|            3b db 58 a6                        |    ;.X.        |      [42]: "2001-10-28T01:00:22Z" (1004230822) transition_time 0xd4-0xd8 (4)
0x0d0|                        3c a6 5f a6            |        <._.    |      [43]: "2002-03-31T01:00:22Z" (1017536422) transition_time 0xd8-0xdc (4)
0x0d0|                                    3d bb 3a a6|            =.:.|      [44]: "2002-10-27T01:00:22Z" (1035680422) transition_time 0xdc-0xe0 (4)
0x0e0|3e 86 41 a6                                    |>.A.            |      [45]: "2003-03-30T01:00:22Z" (1048986022) transition_time 0xe0-0xe4 (4)
0x0e0|            3f 9b 1c a6                        |    ?...        |      [46]: "2003-10-26T01:00:22Z" (1067130022) transition_time 0xe4-0xe8 (4)
0x0e0|                        40 66 23 a6            |        @f#.    |      [47]: "2004-03-28T01:00:22Z" (1080435622) transition_time 0xe8-0xec (4)
0x0e0|                                    41 84 39 26|            A.9&|      [48]: "2004-10-31T01:00:22Z" (1099184422) transition_time 0xec-0xf0 (4)
0x0f0|42 46 05 a6                                    |BF..            |      [49]: "2005-03-27T01:00:22Z" (1111885222) transition_time 0xf0-0xf4 (4)
0x0f0|            43 64 1b 26                        |    Cd.&        |      [50]: "2005-10-30T01:00:22Z" (1130634022) transition_time 0xf4-0xf8 (4)
0x0f0|                        44 25 e7 a7            |        D%..    |      [51]: "2006-03-26T01:00:23Z" (1143334823) transition_time 0xf8-0xfc (4)
0x0f0|                                    45 43 fd 27|            EC.'|      [52]: "2006-10-29T01:00:23Z" (1162083623) transition_time 0xfc-0x100 (4)
0x100|46 05 c9 a7                                    |F...            |      [53]: "2007-03-25T01:00:23Z" (1174784423) transition_time 0x100-0x104 (4)
0x100|            47 23 df 27                        |    G#.'        |      [54]: "2007-10-28T01:00:23Z" (1193533223) transition_time 0x104-0x108 (4)
0x100|                        47 ee e6 27            |        G..'    |      [55]: "2008-03-30T01:00:23Z" (1206838823) transition_time 0x108-0x10c (4)
0x100|                                    49 03 c1 27|            I..'|      [56]: "2008-10-26T01:00:23Z" (1224982823) transition_time 0x10c-0x110 (4)
0x110|49 ce c8 28                                    |I..(            |      [57]: "2009-03-29T01:00:24Z" (1238288424) transition_time 0x110-0x114 (4)
0x110|            4a e3 a3 28                        |    J..(        |      [58]: "2009-10-25T01:00:24Z" (1256432424) transition_time 0x114-0x118 (4)
0x110|                        4b ae aa 28            |        K..(    |      [59]: "2010-03-28T01:00:24Z" (1269738024) transition_time 0x118-0x11c (4)
0x110|                                    4c cc bf a8|            L...|      [60]: "2010-10-31T01:00:24Z" (1288486824) transition_time 0x11c-0x120 (4)
0x120|4d 8e 8c 28                                    |M..(            |      [61]: "2011-03-27T01:00:24Z" (1301187624) transition_time 0x120-0x124 (4)
0x120|            4e ac a1 a8                        |    N...        |      [62]: "2011-10-30T01:00:24Z" (1319936424) transition_time 0x124-0x128 (4)
0x120|                        4f 6e 6e 28            |        Onn(    |      [63]: "2012-03-25T01:00:24Z" (1332637224) transition_time 0x128-0x12c (4)
0x120|                                    50 8c 83 a9|            P...|      [64]: "2012-10-28T01:00:25Z" (1351386025) transition_time 0x12c-0x130 (4)
0x130|51 57 8a a9                                    |QW..            |      [65]: "2013-03-31T01:00:25Z" (1364691625) transition_time 0x130-0x134 (4)
0x130|            52 6c 65 a9                        |    Rle.        |      [66]: "2013-10-27T01:00:25Z" (1382835625) transition_time 0x134-0x138 (4)
0x130|                        53 37 6c a9            |        S7l.    |      [67]: "2014-03-30T01:00:25Z" (1396141225) transition_time 0x138-0x13c (4)
0x130|                                    54 4c 47 a9|            TLG.|      [68]: "2014-10-26T01:00:25Z" (1414285225) transition_time 0x13c-0x140 (4)
0x140|55 17 4e a9                                    |U.N.            |      [69]: "2015-03-29T01:00:25Z" (1427590825) transition_time 0x140-0x144 (4)
0x140|            56 2c 29 aa                        |    V,).        |      [70]: "2015-10-25T01:00:26Z" (1445734826) transition_time 0x144-0x148 (4)
0x140|                        56 f7 30 aa            |        V.0.    |      [71]: "2016-03-27T01:00:26Z" (1459040426) transition_time 0x148-0x14c (4)
0x140|                                    58 15 46 2a|            X.F*|      [72]: "2016-10-30T01:00:26Z" (1477789226) transition_time 0x14c-0x150 (4)
0x150|58 d7 12 ab                                    |X...            |      [73]: "2017-03-26T01:00:27Z" (1490490027) transition_time 0x150-0x154 (4)
0x150|            59 f5 28 2b                        |    Y.(+        |      [74]: "2017-10-29T01:00:27Z" (1509238827) transition_time 0x154-0x158 (4)
0x150|                        5a b6 f4 ab            |        Z...    |      [75]: "2018-03-25T01:00:27Z" (1521939627) transition_time 0x158-0x15c (4)
0x150|                                    5b d5 0a 2b|            [..+|      [76]: "2018-10-28T01:00:27Z" (1540688427) transition_time 0x15c-0x160 (4)
0x160|5c a0 11 2b                                    |\..+            |      [77]: "2019-03-31T01:00:27Z" (1553994027) transition_time 0x160-0x164 (4)
0x160|            5d b4 ec 2b                        |    ]..+        |      [78]: "2019-10-27T01:00:27Z" (1572138027) transition_time 0x164-0x168 (4)
0x160|                        5e 7f f3 2b            |        ^..+    |      [79]: "2020-03-29T01:00:27Z" (1585443627) transition_time 0x168-0x16c (4)
0x160|                                    5f 94 ce 2b|            _..+|      [80]: "2020-10-25T01:00:27Z" (1603587627) transition_time 0x16c-0x170 (4)
0x170|60 5f d5 2b                                    |`_.+            |      [81]: "2021-03-28T01:00:27Z" (1616893227) transition_time 0x170-0x174 (4)
0x170|            61 7d ea ab                        |    a}..        |      [82]: "2021-10-31T01:00:27Z" (1635642027) transition_time 0x174-0x178 (4)
0x170|                        62 3f b7 2b            |        b?.+    |      [83]: "2022-03-27T01:00:27Z" (1648342827) transition_time 0x178-0x17c (4)
0x170|                                    63 5d cc ab|            c]..|      [84]: "2022-10-30T01:00:27Z" (1667091627) transition_time 0x17c-0x180 (4)
0x180|64 1f 99 2b                                    |d..+            |      [85]: "2023-03-26T01:00:27Z" (1679792427) transition_time 0x180-0x184 (4)
0x180|            64 9b 78 1b                        |    d.x.        |      [86]: "2023-06-28T00:00:27Z" (1687910427) transition_time 0x184-0x188 (4)
     |                                               |                |    transition_types[0:87]: 0x188-0x1df (87)
0x180|                        01                     |        .       |      [0]: 1 transition_type 0x188-0x189 (1)
0x180|                           02                  |         .      |      [1]: 2 transition_type 0x189-0x18a (1)
0x180|                              03               |          .     |      [2]: 3 transition_type 0x18a-0x18b (1)
0x180|                                 02            |           .    |      [3]: 2 transition_type 0x18b-0x18c (1)
0x180|                                    03         |            .   |      [4]: 3 transition_type 0x18c-0x18d (1)
0x180|                                       02      |             .  |      [5]: 2 transition_type 0x18d-0x18e (1)
0x180|                                          03   |              . |      [6]: 3 transition_type 0x18e-0x18f (1)
0x180|                                             02|               .|      [7]: 2 transition_type 0x18f-0x190 (1)
0x190|03                                             |.               |      [8]: 3 transition_type 0x190-0x191 (1)
0x190|   02                                          | .              |      [9]: 2 transition_type 0x191-0x192 (1)
0x190|      03                                       |  .             |      [10]: 3 transition_type 0x192-0x193 (1)
0x190|         02                                    |   .            |      [11]: 2 transition_type 0x193-0x194 (1)
0x190|            03                                 |    .           |      [12]: 3 transition_type 0x194-0x195 (1)
0x190|               02                              |     .          |      [13]: 2 transition_type 0x195-0x196 (1)
0x190|                  03                           |      .         |      [14]: 3 transition_type 0x196-0x197 (1)
0x190|                     02                        |       .        |      [15]: 2 transition_type 0x197-0x198 (1)
0x190|                        03                     |        .       |      [16]: 3 transition_type 0x198-0x199 (1)
0x190|                           02                  |         .      |      [17]: 2 transition_type 0x199-0x19a (1)
0x190|                              03               |          .     |      [18]: 3 transition_type 0x19a-0x19b (1)
0x190|                                 02            |           .    |      [19]: 2 transition_type 0x19b-0x19c (1)
0x190|                                    03         |            .   |      [20]: 3 transition_type 0x19c-0x19d (1)
0x190|                                       02      |             .  |      [21]: 2 transition_type 0x19d-0x19e (1)
0x190|                                          03   |              . |      [22]: 3 transition_type 0x19e-0x19f (1)
0x190|                                             02|               .|      [23]: 2 transition_type 0x19f-0x1a0 (1)
0x1a0|03                                             |.               |      [24]: 3 transition_type 0x1a0-0x1a1 (1)
0x1a0|   02                                          | .              |      [25]: 2 transition_type 0x1a1-0x1a2 (1)
0x1a0|      03                                       |  .             |      [26]: 3 transition_type 0x1a2-0x1a3 (1)
0x1a0|         02                                    |   .            |      [27]: 2 transition_type 0x1a3-0x1a4 (1)
0x1a0|            03                                 |    .           |      [28]: 3 transition_type 0x1a4-0x1a5 (1)
0x1a0|               02                              |     .          |      [29]: 2 transition_type 0x1a5-0x1a6 (1)
0x1a0|                  03                           |      .         |      [30]: 3 transition_type 0x1a6-0x1a7 (1)
0x1a0|                     02                        |       .        |      [31]: 2 transition_type 0x1a7-0x1a8 (1)
0x1a0|                        03                     |        .       |      [32]: 3 transition_type 0x1a8-0x1a9 (1)
0x1a0|                           02                  |         .      |      [33]: 2 transition_type 0x1a9-0x1aa (1)
0x1a0|                              03               |          .     |      [34]: 3 transition_type 0x1aa-0x1ab (1)
0x1a0|                                 02            |           .    |      [35]: 2 transition_type 0x1ab-0x1ac (1)
0x1a0|                                    03         |            .   |      [36]: 3 transition_type 0x1ac-0x1ad (1)
0x1a0|                                       02      |             .  |      [37]: 2 transition_type 0x1ad-0x1ae (1)
0x1a0|                                          03   |              . |      [38]: 3 transition_type 0x1ae-0x1af (1)
0x1a0|                                             02|               .|      [39]: 2 transition_type 0x1af-0x1b0 (1)
0x1b0|03                                             |.               |      [40]: 3 transition_type 0x1b0-0x1b1 (1)
0x1b0|   02                                          | .              |      [41]: 2 transition_type 0x1b1-0x1b2 (1)
0x1b0|      03                                       |  .             |      [42]: 3 transition_type 0x1b2-0x1b3 (1)
0x1b0|         02                                    |   .            |      [43]: 2 transition_type 0x1b3-0x1b4 (1)
0x1b0|            03                                 |    .           |      [44]: 3 transition_type 0x1b4-0x1b5 (1)
0x1b0|               02                              |     .          |      [45]: 2 transition_type 0x1b5-0x1b6 (1)
0x1b0|                  03                           |      .         |      [46]: 3 transition_type 0x1b6-0x1b7 (1)
0x1b0|                     02                        |       .        |      [47]: 2 transition_type 0x1b7-0x1b8 (1)
0x1b0|                        03                     |        .       |      [48]: 3 transition_type 0x1b8-0x1b9 (1)
0x1b0|                           02                  |         .      |      [49]: 2 transition_type 0x1b9-0x1ba (1)
0x1b0|                              03               |          .     |      [50]: 3 transition_type 0x1ba-0x1bb (1)
0x1b0|                                 02            |           .    |      [51]: 2 transition_type 0x1bb-0x1bc (1)
0x1b0|                                    03         |            .   |      [52]: 3 transition_type 0x1bc-0x1bd (1)
0x1b0|                                       02      |             .  |      [53]: 2 transition_type 0x1bd-0x1be (1)
0x1b0|                                          03   |              . |      [54]: 3 transition_type 0x1be-0x1bf (1)
0x1b0|                                             02|               .|      [55]: 2 transition_type 0x1bf-0x1c0 (1)
0x1c0|03                                             |.               |      [56]: 3 transition_type 0x1c0-0x1c1 (1)
0x1c0|   02                                          | .              |      [57]: 2 transition_type 0x1c1-0x1c2 (1)
0x1c0|      03                                       |  .             |      [58]: 3 transition_type 0x1c2-0x1c3 (1)
0x1c0|         02                                    |   .            |      [59]: 2 transition_type 0x1c3-0x1c4 (1)
0x1c0|            03                                 |    .           |      [60]: 3 transition_type 0x1c4-0x1c5 (1)
0x1c0|               02                              |     .          |      [61]: 2 transition_type 0x1c5-0x1c6 (1)
0x1c0|                  03                           |      .         |      [62]: 3 transition_type 0x1c6-0x1c7 (1)
0x1c0|                     02                        |       .        |      [63]: 2 transition_type 0x1c7-0x1c8 (1)
0x1c0|                        03                     |        .       |      [64]: 3 transition_type 0x1c8-0x1c9 (1)
0x1c0|                           02                  |         .      |      [65]: 2 transition_type 0x1c9-0x1ca (1)
0x1c0|                              03               |          .     |      [66]: 3 transition_type 0x1ca-0x1cb (1)
0x1c0|                                 02            |           .    |      [67]: 2 transition_type 0x1cb-0x1cc (1)
0x1c0|                                    03         |            .   |      [68]: 3 transition_type 0x1cc-0x1cd (1)
0x1c0|                                       02      |             .  |      [69]: 2 transition_type 0x1cd-0x1ce (1)
0x1c0|                                          03   |              . |      [70]: 3 transition_type 0x1ce-0x1cf (1)
0x1c0|                                             02|               .|      [71]: 2 transition_type 0x1cf-0x1d0 (1)
0x1d0|03                                             |.               |      [72]: 3 transition_type 0x1d0-0x1d1 (1)
0x1d0|   02                                          | .              |      [73]: 2 transition_type 0x1d1-0x1d2 (1)
0x1d0|      03                                       |  .             |      [74]: 3 transition_type 0x1d2-0x1d3 (1)
0x1d0|         02                                    |   .            |      [75]: 2 transition_type 0x1d3-0x1d4 (1)
0x1d0|            03                                 |    .           |      [76]: 3 transition_type 0x1d4-0x1d5 (1)
0x1d0|               02                              |     .          |      [77]: 2 transition_type 0x1d5-0x1d6 (1)
0x1d0|                  03                           |      .         |      [78]: 3 transition_type 0x1d6-0x1d7 (1)
0x1d0|                     02                        |       .        |      [79]: 2 transition_type 0x1d7-0x1d8 (1)
0x1d0|                        03                     |        .       |      [80]: 3 transition_type 0x1d8-0x1d9 (1)
0x1d0|                           02                  |         .      |      [81]: 2 transition_type 0x1d9-0x1da (1)
0x1d0|                              03               |          .     |      [82]: 3 transition_type 0x1da-0x1db (1)
0x1d0|                                 02            |           .    |      [83]: 2 transition_type 0x1db-0x1dc (1)
0x1d0|                                    03         |            .   |      [84]: 3 transition_type 0x1dc-0x1dd (1)
0x1d0|                                       02      |             .  |      [85]: 2 transition_type 0x1dd-0x1de (1)
0x1d0|                                          02   |              . |      [86]: 2 transition_type 0x1de-0x1df (1)
     |                                               |                |    local_time_type_records[0:4]: 0x1df-0x1f7 (24)
     |                                               |                |      [0]{}: local_time_type 0x1df-0x1e5 (6)
0x1d0|                                             ff|               .|        utoff: -1624 (valid) 0x1df-0x1e3 (4)
0x1e0|ff f9 a8                                       |...             |
0x1e0|         00                                    |   .            |        dst: 0 (valid) 0x1e3-0x1e4 (1)
0x1e0|            00                                 |    .           |        idx: 0 (valid) 0x1e4-0x1e5 (1)
     |                                               |                |      [1]{}: local_time_type 0x1e5-0x1eb (6)
0x1e0|               00 00 00 00                     |     ....       |        utoff: 0 (valid) 0x1e5-0x1e9 (4)
0x1e0|                           00                  |         .      |        dst: 0 (valid) 0x1e9-0x1ea (1)
0x1e0|                              04               |          .     |        idx: 4 (valid) 0x1ea-0x1eb (1)
     |                                               |                |      [2]{}: local_time_type 0x1eb-0x1f1 (6)
0x1e0|                                 00 00 0e 10   |           .... |        utoff: 3600 (valid) 0x1eb-0x1ef (4)
0x1e0|                                             01|               .|        dst: 1 (valid) 0x1ef-0x1f0 (1)
0x1f0|08                                             |.               |        idx: 8 (valid) 0x1f0-0x1f1 (1)
     |                                               |                |      [3]{}: local_time_type 0x1f1-0x1f7 (6)
0x1f0|   00 00 00 00                                 | ....           |        utoff: 0 (valid) 0x1f1-0x1f5 (4)
0x1f0|               00                              |     .          |        dst: 0 (valid) 0x1f5-0x1f6 (1)
0x1f0|                  04                           |      .         |        idx: 4 (valid) 0x1f6-0x1f7 (1)
     |                                               |                |    time_zone_designations[0:3]: 0x1f7-0x204 (13)
0x1f0|                     4c 4d 54 00               |       LMT.     |      [0]: "LMT" time_zone_designation 0x1f7-0x1fb (4)
0x1f0|                                 57 45 54 00   |           WET. |      [1]: "WET" time_zone_designation 0x1fb-0x1ff (4)
0x1f0|                                             57|               W|      [2]: "WEST" time_zone_designation 0x1ff-0x204 (5)
0x200|45 53 54 00                                    |EST.            |
     |                                               |                |    leap_second_records[0:27]: 0x204-0x2dc (216)
     |                                               |                |      [0]{}: leap_second_record 0x204-0x20c (8)
0x200|            04 b2 58 00                        |    ..X.        |        occur: "1972-07-01T00:00:00Z" (78796800) 0x204-0x208 (4)
0x200|                        00 00 00 01            |        ....    |        corr: 1 0x208-0x20c (4)
     |                                               |                |      [1]{}: leap_second_record 0x20c-0x214 (8)
0x200|                                    05 a4 ec 01|            ....|        occur: "1973-01-01T00:00:01Z" (94694401) 0x20c-0x210 (4)
0x210|00 00 00 02                                    |....            |        corr: 2 0x210-0x214 (4)
     |                                               |                |      [2]{}: leap_second_record 0x214-0x21c (8)
0x210|            07 86 1f 82                        |    ....        |        occur: "1974-01-01T00:00:02Z" (126230402) 0x214-0x218 (4)
0x210|                        00 00 00 03            |        ....    |        corr: 3 0x218-0x21c (4)
     |                                               |                |      [3]{}: leap_second_record 0x21c-0x224 (8)
0x210|                                    09 67 53 03|            .gS.|        occur: "1975-01-01T00:00:03Z" (157766403) 0x21c-0x220 (4)
0x220|00 00 00 04                                    |....            |        corr: 4 0x220-0x224 (4)
     |                                               |                |      [4]{}: leap_second_record 0x224-0x22c (8)
0x220|            0b 48 86 84                        |    .H..        |        occur: "1976-01-01T00:00:04Z" (189302404) 0x224-0x228 (4)
0x220|                        00 00 00 05            |        ....    |        corr: 5 0x228-0x22c (4)
     |                                               |                |      [5]{}: leap_second_record 0x22c-0x234 (8)
0x220|                                    0d 2b 0b 85|            .+..|        occur: "1977-01-01T00:00:05Z" (220924805) 0x22c-0x230 (4)
0x230|00 00 00 06                                    |....            |        corr: 6 0x230-0x234 (4)
     |                                               |                |      [6]{}: leap_second_record 0x234-0x23c (8)
0x230|            0f 0c 3f 06                        |    ..?.        |        occur: "1978-01-01T00:00:06Z" (252460806) 0x234-0x238 (4)
0x230|                        00 00 00 07            |        ....    |        corr: 7 0x238-0x23c (4)
     |                                               |                |      [7]{}: leap_second_record 0x23c-0x244 (8)
0x230|                                    10 ed 72 87|            ..r.|        occur: "1979-01-01T00:00:07Z" (283996807) 0x23c-0x240 (4)
0x240|00 00 00 08                                    |....            |        corr: 8 0x240-0x244 (4)
     |                                               |                |      [8]{}: leap_second_record 0x244-0x24c (8)
0x240|            12 ce a6 08                        |    ....        |        occur: "1980-01-01T00:00:08Z" (315532808) 0x244-0x248 (4)
0x240|                        00 00 00 09            |        ....    |        corr: 9 0x248-0x24c (4)
     |                                               |                |      [9]{}: leap_second_record 0x24c-0x254 (8)
0x240|                                    15 9f ca 89|            ....|        occur: "1981-07-01T00:00:09Z" (362793609) 0x24c-0x250 (4)
0x250|00 00 00 0a                                    |....            |        corr: 10 0x250-0x254 (4)
     |                                               |                |      [10]{}: leap_second_record 0x254-0x25c (8)
0x250|            17 80 fe 0a                        |    ....        |        occur: "1982-07-01T00:00:10Z" (394329610) 0x254-0x258 (4)
0x250|                        00 00 00 0b            |        ....    |        corr: 11 0x258-0x25c (4)
     |                                               |                |      [11]{}: leap_second_record 0x25c-0x264 (8)
0x250|                                    19 62 31 8b|            .b1.|        occur: "1983-07-01T00:00:11Z" (425865611) 0x25c-0x260 (4)
0x260|00 00 00 0c                                    |....            |        corr: 12 0x260-0x264 (4)
     |                                               |                |      [12]{}: leap_second_record 0x264-0x26c (8)
0x260|            1d 25 ea 0c                        |    .%..        |        occur: "1985-07-01T00:00:12Z" (489024012) 0x264-0x268 (4)
0x260|                        00 00 00 0d            |        ....    |        corr: 13 0x268-0x26c (4)
     |                                               |                |      [13]{}: leap_second_record 0x26c-0x274 (8)
0x260|                                    21 da e5 0d|            !...|        occur: "1988-01-01T00:00:13Z" (567993613) 0x26c-0x270 (4)
0x270|00 00 00 0e                                    |....            |        corr: 14 0x270-0x274 (4)
     |                                               |                |      [14]{}: leap_second_record 0x274-0x27c (8)
0x270|            25 9e 9d 8e                        |    %...        |        occur: "1990-01-01T00:00:14Z" (631152014) 0x274-0x278 (4)
0x270|                        00 00 00 0f            |        ....    |        corr: 15 0x278-0x27c (4)
     |                                               |                |      [15]{}: leap_second_record 0x27c-0x284 (8)
0x270|                                    27 7f d1 0f|            '...|        occur: "1991-01-01T00:00:15Z" (662688015) 0x27c-0x280 (4)
0x280|00 00 00 10                                    |....            |        corr: 16 0x280-0x284 (4)
     |                                               |                |      [16]{}: leap_second_record 0x284-0x28c (8)
0x280|            2a 50 f5 90                        |    *P..        |        occur: "1992-07-01T00:00:16Z" (709948816) 0x284-0x288 (4)
0x280|                        00 00 00 11            |        ....    |        corr: 17 0x288-0x28c (4)
     |                                               |                |      [17]{}: leap_second_record 0x28c-0x294 (8)
0x280|                                    2c 32 29 11|            ,2).|        occur: "1993-07-01T00:00:17Z" (741484817) 0x28c-0x290 (4)
0x290|00 00 00 12                                    |....            |        corr: 18 0x290-0x294 (4)
     |                                               |                |      [18]{}: leap_second_record 0x294-0x29c (8)
0x290|            2e 13 5c 92                        |    ..\.        |        occur: "1994-07-01T00:00:18Z" (773020818) 0x294-0x298 (4)
0x290|                        00 00 00 13            |        ....    |        corr: 19 0x298-0x29c (4)
     |                                               |                |      [19]{}: leap_second_record 0x29c-0x2a4 (8)
0x290|                                    30 e7 24 13|            0.$.|        occur: "1996-01-01T00:00:19Z" (820454419) 0x29c-0x2a0 (4)
0x2a0|00 00 00 14                                    |....            |        corr: 20 0x2a0-0x2a4 (4)
     |                                               |                |      [20]{}: leap_second_record 0x2a4-0x2ac (8)
0x2a0|            33 b8 48 94                        |    3.H.        |        occur: "1997-07-01T00:00:20Z" (867715220) 0x2a4-0x2a8 (4)
0x2a0|                        00 00 00 15            |        ....    |        corr: 21 0x2a8-0x2ac (4)
     |                                               |                |      [21]{}: leap_second_record 0x2ac-0x2b4 (8)
0x2a0|                                    36 8c 10 15|            6...|        occur: "1999-01-01T00:00:21Z" (915148821) 0x2ac-0x2b0 (4)
0x2b0|00 00 00 16                                    |....            |        corr: 22 0x2b0-0x2b4 (4)
     |                                               |                |      [22]{}: leap_second_record 0x2b4-0x2bc (8)
0x2b0|            43 b7 1b 96                        |    C...        |        occur: "2006-01-01T00:00:22Z" (1136073622) 0x2b4-0x2b8 (4)
0x2b0|                        00 00 00 17            |        ....    |        corr: 23 0x2b8-0x2bc (4)
     |                                               |                |      [23]{}: leap_second_record 0x2bc-0x2c4 (8)
0x2b0|                                    49 5c 07 97|            I\..|        occur: "2009-01-01T00:00:23Z" (1230768023) 0x2bc-0x2c0 (4)
0x2c0|00 00 00 18                                    |....            |        corr: 24 0x2c0-0x2c4 (4)
     |                                               |                |      [24]{}: leap_second_record 0x2c4-0x2cc (8)
0x2c0|            4f ef 93 18                        |    O...        |        occur: "2012-07-01T00:00:24Z" (1341100824) 0x2c4-0x2c8 (4)
0x2c0|                        00 00 00 19            |        ....    |        corr: 25 0x2c8-0x2cc (4)
     |                                               |                |      [25]{}: leap_second_record 0x2cc-0x2d4 (8)
0x2c0|                                    55 93 2d 99|            U.-.|        occur: "2015-07-01T00:00:25Z" (1435708825) 0x2cc-0x2d0 (4)
0x2d0|00 00 00 1a                                    |....            |        corr: 26 0x2d0-0x2d4 (4)
     |                                               |                |      [26]{}: leap_second_record 0x2d4-0x2dc (8)
0x2d0|            58 68 46 9a                        |    XhF.        |        occur: "2017-01-01T00:00:26Z" (1483228826) 0x2d4-0x2d8 (4)
0x2d0|                        00 00 00 1b            |        ....    |        corr: 27 0x2d8-0x2dc (4)
     |                                               |                |    standard_wall_indicators[0:4]: 0x2dc-0x2e0 (4)
0x2d0|                                    00         |            .   |      [0]: 0 standard_wall_indicator (valid) 0x2dc-0x2dd (1)
0x2d0|                                       00      |             .  |      [1]: 0 standard_wall_indicator (valid) 0x2dd-0x2de (1)
0x2d0|                                          01   |              . |      [2]: 1 standard_wall_indicator (valid) 0x2de-0x2df (1)
0x2d0|                                             01|               .|      [3]: 1 standard_wall_indicator (valid) 0x2df-0x2e0 (1)
     |                                               |                |    ut_local_indicators[0:4]: 0x2e0-0x2e4 (4)
0x2e0|00                                             |.               |      [0]: 0 ut_local_indicator (valid) 0x2e0-0x2e1 (1)
0x2e0|   00                                          | .              |      [1]: 0 ut_local_indicator (valid) 0x2e1-0x2e2 (1)
0x2e0|      01                                       |  .             |      [2]: 1 ut_local_indicator (valid) 0x2e2-0x2e3 (1)
0x2e0|         01                                    |   .            |      [3]: 1 ut_local_indicator (valid) 0x2e3-0x2e4 (1)
     |                                               |                |  v2plusheader{}: 0x2e4-0x310 (44)
0x2e0|            54 5a 69 66                        |    TZif        |    magic: 0x545a6966 (valid) 0x2e4-0x2e8 (4)
0x2e0|                        32                     |        2       |    ver: "2" (0x32) (valid) 0x2e8-0x2e9 (1)
0x2e0|                           00 00 00 00 00 00 00|         .......|    reserved: raw bits 0x2e9-0x2f8 (15)
0x2f0|00 00 00 00 00 00 00 00                        |........        |
0x2f0|                        00 00 00 04            |        ....    |    isutcnt: 4 0x2f8-0x2fc (4)
0x2f0|                                    00 00 00 04|            ....|    isstdcnt: 4 0x2fc-0x300 (4)
0x300|00 00 00 1b                                    |....            |    leapcnt: 27 0x300-0x304 (4)
0x300|            00 00 00 57                        |    ...W        |    timecnt: 87 0x304-0x308 (4)
0x300|                        00 00 00 04            |        ....    |    typecnt: 4 0x308-0x30c (4)
0x300|                                    00 00 00 0d|            ....|    charcnt: 13 0x30c-0x310 (4)
     |                                               |                |  v2plusdatablock{}: 0x310-0x790 (1152)
     |                                               |                |    transition_times[0:87]: 0x310-0x5c8 (696)
0x310|ff ff ff ff 8b 6d a4 58                        |.....m.X        |      [0]: "1908-01-11T00:27:04Z" (-1955748776) transition_time 0x310-0x318 (8)
0x310|                        00 00 00 00 15 23 eb 99|        .....#..|      [1]: "1981-03-29T01:00:09Z" (354675609) transition_time 0x318-0x320 (8)
0x320|00 00 00 00 16 13 dc 9a                        |........        |      [2]: "1981-09-27T01:00:10Z" (370400410) transition_time 0x320-0x328 (8)
0x320|                        00 00 00 00 17 03 cd 9a|        ........|      [3]: "1982-03-28T01:00:10Z" (386125210) transition_time 0x328-0x330 (8)
0x330|00 00 00 00 17 f3 be 9b                        |........        |      [4]: "1982-09-26T01:00:11Z" (401850011) transition_time 0x330-0x338 (8)
0x330|                        00 00 00 00 18 e3 af 9b|        ........|      [5]: "1983-03-27T01:00:11Z" (417574811) transition_time 0x338-0x340 (8)
0x340|00 00 00 00 19 d3 a0 9c                        |........        |      [6]: "1983-09-25T01:00:12Z" (433299612) transition_time 0x340-0x348 (8)
0x340|                        00 00 00 00 1a c3 91 9c|        ........|      [7]: "1984-03-25T01:00:12Z" (449024412) transition_time 0x348-0x350 (8)
0x350|00 00 00 00 1b bc bd 1c                        |........        |      [8]: "1984-09-30T01:00:12Z" (465354012) transition_time 0x350-0x358 (8)
0x350|                        00 00 00 00 1c ac ae 1c|        ........|      [9]: "1985-03-31T01:00:12Z" (481078812) transition_time 0x358-0x360 (8)
0x360|00 00 00 00 1d 9c 9f 1d                        |........        |      [10]: "1985-09-29T01:00:13Z" (496803613) transition_time 0x360-0x368 (8)
0x360|                        00 00 00 00 1e 8c 90 1d|        ........|      [11]: "1986-03-30T01:00:13Z" (512528413) transition_time 0x368-0x370 (8)
0x370|00 00 00 00 1f 7c 81 1d                        |.....|..        |      [12]: "1986-09-28T01:00:13Z" (528253213) transition_time 0x370-0x378 (8)
0x370|                        00 00 00 00 20 6c 72 1d|        .... lr.|      [13]: "1987-03-29T01:00:13Z" (543978013) transition_time 0x378-0x380 (8)
0x380|00 00 00 00 21 5c 63 1d                        |....!\c.        |      [14]: "1987-09-27T01:00:13Z" (559702813) transition_time 0x380-0x388 (8)
0x380|                        00 00 00 00 22 4c 54 1e|        ...."LT.|      [15]: "1988-03-27T01:00:14Z" (575427614) transition_time 0x388-0x390 (8)
0x390|00 00 00 00 23 3c 45 1e                        |....#<E.        |      [16]: "1988-09-25T01:00:14Z" (591152414) transition_time 0x390-0x398 (8)
0x390|                        00 00 00 00 24 2c 36 1e|        ....$,6.|      [17]: "1989-03-26T01:00:14Z" (606877214) transition_time 0x398-0x3a0 (8)
0x3a0|00 00 00 00 25 1c 27 1e                        |....%.'.        |      [18]: "1989-09-24T01:00:14Z" (622602014) transition_time 0x3a0-0x3a8 (8)
0x3a0|                        00 00 00 00 26 0c 18 1f|        ....&...|      [19]: "1990-03-25T01:00:15Z" (638326815) transition_time 0x3a8-0x3b0 (8)
0x3b0|00 00 00 00 27 05 43 9f                        |....'.C.        |      [20]: "1990-09-30T01:00:15Z" (654656415) transition_time 0x3b0-0x3b8 (8)
0x3b0|                        00 00 00 00 27 f5 34 a0|        ....'.4.|      [21]: "1991-03-31T01:00:16Z" (670381216) transition_time 0x3b8-0x3c0 (8)
0x3c0|00 00 00 00 28 e5 25 a0                        |....(.%.        |      [22]: "1991-09-29T01:00:16Z" (686106016) transition_time 0x3c0-0x3c8 (8)
0x3c0|                        00 00 00 00 29 d5 16 a0|        ....)...|      [23]: "1992-03-29T01:00:16Z" (701830816) transition_time 0x3c8-0x3d0 (8)
0x3d0|00 00 00 00 2a c5 07 a1                        |....*...        |      [24]: "1992-09-27T01:00:17Z" (717555617) transition_time 0x3d0-0x3d8 (8)
0x3d0|                        00 00 00 00 2b b4 f8 a1|        ....+...|      [25]: "1993-03-28T01:00:17Z" (733280417) transition_time 0x3d8-0x3e0 (8)
0x3e0|00 00 00 00 2c a4 e9 a2                        |....,...        |      [26]: "1993-09-26T01:00:18Z" (749005218) transition_time 0x3e0-0x3e8 (8)
0x3e0|                        00 00 00 00 2d 94 da a2|        ....-...|      [27]: "1994-03-27T01:00:18Z" (764730018) transition_time 0x3e8-0x3f0 (8)
0x3f0|00 00 00 00 2e 84 cb a3                        |........        |      [28]: "1994-09-25T01:00:19Z" (780454819) transition_time 0x3f0-0x3f8 (8)
0x3f0|                        00 00 00 00 2f 74 bc a3|        ..../t..|      [29]: "1995-03-26T01:00:19Z" (796179619) transition_time 0x3f8-0x400 (8)
0x400|00 00 00 00 30 64 ad a3                        |....0d..        |      [30]: "1995-09-24T01:00:19Z" (811904419) transition_time 0x400-0x408 (8)
0x400|                        00 00 00 00 31 5d d9 24|        ....1].$|      [31]: "1996-03-31T01:00:20Z" (828234020) transition_time 0x408-0x410 (8)
0x410|00 00 00 00 32 72 b4 24                        |....2r.$        |      [32]: "1996-10-27T01:00:20Z" (846378020) transition_time 0x410-0x418 (8)
0x410|                        00 00 00 00 33 3d bb 24|        ....3=.$|      [33]: "1997-03-30T01:00:20Z" (859683620) transition_time 0x418-0x420 (8)
0x420|00 00 00 00 34 52 96 25                        |....4R.%        |      [34]: "1997-10-26T01:00:21Z" (877827621) transition_time 0x420-0x428 (8)
0x420|                        00 00 00 00 35 1d 9d 25|        ....5..%|      [35]: "1998-03-29T01:00:21Z" (891133221) transition_time 0x428-0x430 (8)
0x430|00 00 00 00 36 32 78 25                        |....62x%        |      [36]: "1998-10-25T01:00:21Z" (909277221) transition_time 0x430-0x438 (8)
0x430|                        00 00 00 00 36 fd 7f 26|        ....6..&|      [37]: "1999-03-28T01:00:22Z" (922582822) transition_time 0x438-0x440 (8)
0x440|00 00 00 00 38 1b 94 a6                        |....8...        |      [38]: "1999-10-31T01:00:22Z" (941331622) transition_time 0x440-0x448 (8)
0x440|                        00 00 00 00 38 dd 61 26|        ....8.a&|      [39]: "2000-03-26T01:00:22Z" (954032422) transition_time 0x448-0x450 (8)
0x450|00 00 00 00 39 fb 76 a6                        |....9.v.        |      [40]: "2000-10-29T01:00:22Z" (972781222) transition_time 0x450-0x458 (8)
0x450|                        00 00 00 00 3a bd 43 26|        ....:.C&|      [41]: "2001-03-25T01:00:22Z" (985482022) transition_time 0x458-0x460 (8)
0x460|00 00 00 00 3b db 58 a6                        |....;.X.        |      [42]: "2001-10-28T01:00:22Z" (1004230822) transition_time 0x460-0x468 (8)
0x460|                        00 00 00 00 3c a6 5f a6|        ....<._.|      [43]: "2002-03-31T01:00:22Z" (1017536422) transition_time 0x468-0x470 (8)
0x470|00 00 00 00 3d bb 3a a6                        |....=.:.        |      [44]: "2002-10-27T01:00:22Z" (1035680422) transition_time 0x470-0x478 (8)
0x470|                        00 00 00 00 3e 86 41 a6|        ....>.A.|      [45]: "2003-03-30T01:00:22Z" (1048986022) transition_time 0x478-0x480 (8)
0x480|00 00 00 00 3f 9b 1c a6                        |....?...        |      [46]: "2003-10-26T01:00:22Z" (1067130022) transition_time 0x480-0x488 (8)
0x480|                        00 00 00 00 40 66 23 a6|        ....@f#.|      [47]: "2004-03-28T01:00:22Z" (1080435622) transition_time 0x488-0x490 (8)
0x490|00 00 00 00 41 84 39 26                        |....A.9&        |      [48]: "2004-10-31T01:00:22Z" (1099184422) transition_time 0x490-0x498 (8)
0x490|                        00 00 00 00 42 46 05 a6|        ....BF..|      [49]: "2005-03-27T01:00:22Z" (1111885222) transition_time 0x498-0x4a0 (8)
0x4a0|00 00 00 00 43 64 1b 26                        |....Cd.&        |      [50]: "2005-10-30T01:00:22Z" (1130634022) transition_time 0x4a0-0x4a8 (8)
0x4a0|                        00 00 00 00 44 25 e7 a7|        ....D%..|      [51]: "2006-03-26T01:00:23Z" (1143334823) transition_time 0x4a8-0x4b0 (8)
0x4b0|00 00 00 00 45 43 fd 27                        |....EC.'        |      [52]: "2006-10-29T01:00:23Z" (1162083623) transition_time 0x4b0-0x4b8 (8)
0x4b0|                        00 00 00 00 46 05 c9 a7|        ....F...|      [53]: "2007-03-25T01:00:23Z" (1174784423) transition_time 0x4b8-0x4c0 (8)
0x4c0|00 00 00 00 47 23 df 27                        |....G#.'        |      [54]: "2007-10-28T01:00:23Z" (1193533223) transition_time 0x4c0-0x4c8 (8)
0x4c0|                        00 00 00 00 47 ee e6 27|        ....G..'|      [55]: "2008-03-30T01:00:23Z" (1206838823) transition_time 0x4c8-0x4d0 (8)
0x4d0|00 00 00 00 49 03 c1 27                        |....I..'        |      [56]: "2008-10-26T01:00:23Z" (1224982823) transition_time 0x4d0-0x4d8 (8)
0x4d0|                        00 00 00 00 49 ce c8 28|        ....I..(|      [57]: "2009-03-29T01:00:24Z" (1238288424) transition_time 0x4d8-0x4e0 (8)
0x4e0|00 00 00 00 4a e3 a3 28                        |....J..(        |      [58]: "2009-10-25T01:00:24Z" (1256432424) transition_time 0x4e0-0x4e8 (8)
0x4e0|                        00 00 00 00 4b ae aa 28|        ....K..(|      [59]: "2010-03-28T01:00:24Z" (1269738024) transition_time 0x4e8-0x4f0 (8)
0x4f0|00 00 00 00 4c cc bf a8                        |....L...        |      [60]: "2010-10-31T01:00:24Z" (1288486824) transition_time 0x4f0-0x4f8 (8)
0x4f0|                        00 00 00 00 4d 8e 8c 28|        ....M..(|      [61]: "2011-03-27T01:00:24Z" (1301187624) transition_time 0x4f8-0x500 (8)
0x500|00 00 00 00 4e ac a1 a8                        |....N...        |      [62]: "2011-10-30T01:00:24Z" (1319936424) transition_time 0x500-0x508 (8)
0x500|                        00 00 00 00 4f 6e 6e 28|        ....Onn(|      [63]: "2012-03-25T01:00:24Z" (1332637224) transition_time 0x508-0x510 (8)
0x510|00 00 00 00 50 8c 83 a9                        |....P...        |      [64]: "2012-10-28T01:00:25Z" (1351386025) transition_time 0x510-0x518 (8)
0x510|                        00 00 00 00 51 57 8a a9|        ....QW..|      [65]: "2013-03-31T01:00:25Z" (1364691625) transition_time 0x518-0x520 (8)
0x520|00 00 00 00 52 6c 65 a9                        |....Rle.        |      [66]: "2013-10-27T01:00:25Z" (1382835625) transition_time 0x520-0x528 (8)
0x520|                        00 00 00 00 53 37 6c a9|        ....S7l.|      [67]: "2014-03-30T01:00:25Z" (1396141225) transition_time 0x528-0x530 (8)
0x530|00 00 00 00 54 4c 47 a9                        |....TLG.        |      [68]: "2014-10-26T01:00:25Z" (1414285225) transition_time 0x530-0x538 (8)
0x530|                        00 00 00 00 55 17 4e a9|        ....U.N.|      [69]: "2015-03-29T01:00:25Z" (1427590825) transition_time 0x538-0x540 (8)
0x540|00 00 00 00 56 2c 29 aa                        |....V,).        |      [70]: "2015-10-25T01:00:26Z" (1445734826) transition_time 0x540-0x548 (8)
0x540|                        00 00 00 00 56 f7 30 aa|        ....V.0.|      [71]: "2016-03-27T01:00:26Z" (1459040426) transition_time 0x548-0x550 (8)
0x550|00 00 00 00 58 15 46 2a                        |....X.F*        |      [72]: "2016-10-30T01:00:26Z" (1477789226) transition_time 0x550-0x558 (8)
0x550|                        00 00 00 00 58 d7 12 ab|        ....X...|      [73]: "2017-03-26T01:00:27Z" (1490490027) transition_time 0x558-0x560 (8)
0x560|00 00 00 00 59 f5 28 2b                        |....Y.(+        |      [74]: "2017-10-29T01:00:27Z" (1509238827) transition_time 0x560-0x568 (8)
0x560|                        00 00 00 00 5a b6 f4 ab|        ....Z...|      [75]: "2018-03-25T01:00:27Z" (1521939627) transition_time 0x568-0x570 (8)
0x570|00 00 00 00 5b d5 0a 2b                        |....[..+        |      [76]: "2018-10-28T01:00:27Z" (1540688427) transition_time 0x570-0x578 (8)
0x570|                        00 00 00 00 5c a0 11 2b|        ....\..+|      [77]: "2019-03-31T01:00:27Z" (1553994027) transition_time 0x578-0x580 (8)
0x580|00 00 00 00 5d b4 ec 2b                        |....]..+        |      [78]: "2019-10-27T01:00:27Z" (1572138027) transition_time 0x580-0x588 (8)
0x580|                        00 00 00 00 5e 7f f3 2b|        ....^..+|      [79]: "2020-03-29T01:00:27Z" (1585443627) transition_time 0x588-0x590 (8)
0x590|00 00 00 00 5f 94 ce 2b                        |...._..+        |      [80]: "2020-10-25T01:00:27Z" (1603587627) transition_time 0x590-0x598 (8)
0x590|                        00 00 00 00 60 5f d5 2b|        ....`_.+|      [81]: "2021-03-28T01:00:27Z" (1616893227) transition_time 0x598-0x5a0 (8)
0x5a0|00 00 00 00 61 7d ea ab                        |....a}..        |      [82]: "2021-10-31T01:00:27Z" (1635642027) transition_time 0x5a0-0x5a8 (8)
0x5a0|                        00 00 00 00 62 3f b7 2b|        ....b?.+|      [83]: "2022-03-27T01:00:27Z" (1648342827) transition_time 0x5a8-0x5b0 (8)
0x5b0|00 00 00 00 63 5d cc ab                        |....c]..        |      [84]: "2022-10-30T01:00:27Z" (1667091627) transition_time 0x5b0-0x5b8 (8)
0x5b0|                        00 00 00 00 64 1f 99 2b|        ....d..+|      [85]: "2023-03-26T01:00:27Z" (1679792427) transition_time 0x5b8-0x5c0 (8)
0x5c0|00 00 00 00 64 9b 78 1b                        |....d.x.        |      [86]: "2023-06-28T00:00:27Z" (1687910427) transition_time 0x5c0-0x5c8 (8)
     |                                               |                |    transition_types[0:87]: 0x5c8-0x61f (87)
0x5c0|                        01                     |        .       |      [0]: 1 transition_type 0x5c8-0x5c9 (1)
0x5c0|                           02                  |         .      |      [1]: 2 transition_type 0x5c9-0x5ca (1)
0x5c0|                              03               |          .     |      [2]: 3 transition_type 0x5ca-0x5cb (1)
0x5c0|                                 02            |           .    |      [3]: 2 transition_type 0x5cb-0x5cc (1)
0x5c0|                                    03         |            .   |      [4]: 3 transition_type 0x5cc-0x5cd (1)
0x5c0|                                       02      |             .  |      [5]: 2 transition_type 0x5cd-0x5ce (1)
0x5c0|                                          03   |              . |      [6]: 3 transition_type 0x5ce-0x5cf (1)
0x5c0|                                             02|               .|      [7]: 2 transition_type 0x5cf-0x5d0 (1)
0x5d0|03                                             |.               |      [8]: 3 transition_type 0x5d0-0x5d1 (1)
0x5d0|   02                                          | .              |      [9]: 2 transition_type 0x5d1-0x5d2 (1)
0x5d0|      03                                       |  .             |      [10]: 3 transition_type 0x5d2-0x5d3 (1)
0x5d0|         02                                    |   .            |      [11]: 2 transition_type 0x5d3-0x5d4 (1)
0x5d0|            03                                 |    .           |      [12]: 3 transition_type 0x5d4-0x5d5 (1)
0x5d0|               02                              |     .          |      [13]: 2 transition_type 0x5d5-0x5d6 (1)
0x5d0|                  03                           |      .         |      [14]: 3 transition_type 0x5d6-0x5d7 (1)
0x5d0|                     02                        |       .        |      [15]: 2 transition_type 0x5d7-0x5d8 (1)
0x5d0|                        03                     |        .       |      [16]: 3 transition_type 0x5d8-0x5d9 (1)
0x5d0|                           02                  |         .      |      [17]: 2 transition_type 0x5d9-0x5da (1)
0x5d0|                              03               |          .     |      [18]: 3 transition_type 0x5da-0x5db (1)
0x5d0|                                 02            |           .    |      [19]: 2 transition_type 0x5db-0x5dc (1)
0x5d0|                                    03         |            .   |      [20]: 3 transition_type 0x5dc-0x5dd (1)
0x5d0|                                       02      |             .  |      [21]: 2 transition_type 0x5dd-0x5de (1)
0x5d0|                                          03   |              . |      [22]: 3 transition_type 0x5de-0x5df (1)
0x5d0|                                             02|               .|      [23]: 2 transition_type 0x5df-0x5e0 (1)
0x5e0|03                                             |.               |      [24]: 3 transition_type 0x5e0-0x5e1 (1)
0x5e0|   02                                          | .              |      [25]: 2 transition_type 0x5e1-0x5e2 (1)
0x5e0|      03                                       |  .             |      [26]: 3 transition_type 0x5e2-0x5e3 (1)
0x5e0|         02                                    |   .            |      [27]: 2 transition_type 0x5e3-0x5e4 (1)
0x5e0|            03                                 |    .           |      [28]: 3 transition_type 0x5e4-0x5e5 (1)
0x5e0|               02                              |     .          |      [29]: 2 transition_type 0x5e5-0x5e6 (1)
0x5e0|                  03                           |      .         |      [30]: 3 transition_type 0x5e6-0x5e7 (1)
0x5e0|                     02                        |       .        |      [31]: 2 transition_type 0x5e7-0x5e8 (1)
0x5e0|                        03                     |        .       |      [32]: 3 transition_type 0x5e8-0x5e9 (1)
0x5e0|                           02                  |         .      |      [33]: 2 transition_type 0x5e9-0x5ea (1)
0x5e0|                              03               |          .     |      [34]: 3 transition_type 0x5ea-0x5eb (1)
0x5e0|                                 02            |           .    |      [35]: 2 transition_type 0x5eb-0x5ec (1)
0x5e0|                                    03         |            .   |      [36]: 3 transition_type 0x5ec-0x5ed (1)
0x5e0|                                       02      |             .  |      [37]: 2 transition_type 0x5ed-0x5ee (1)
0x5e0|                                          03   |              . |      [38]: 3 transition_type 0x5ee-0x5ef (1)
0x5e0|                                             02|               .|      [39]: 2 transition_type 0x5ef-0x5f0 (1)
0x5f0|03                                             |.               |      [40]: 3 transition_type 0x5f0-0x5f1 (1)
0x5f0|   02                                          | .              |      [41]: 2 transition_type 0x5f1-0x5f2 (1)
0x5f0|      03                                       |  .             |      [42]: 3 transition_type 0x5f2-0x5f3 (1)
0x5f0|         02                                    |   .            |      [43]: 2 transition_type 0x5f3-0x5f4 (1)
0x5f0|            03                                 |    .           |      [44]: 3 transition_type 0x5f4-0x5f5 (1)
0x5f0|               02                              |     .          |      [45]: 2 transition_type 0x5f5-0x5f6 (1)
0x5f0|                  03                           |      .         |      [46]: 3 transition_type 0x5f6-0x5f7 (1)
0x5f0|                     02                        |       .        |      [47]: 2 transition_type 0x5f7-0x5f8 (1)
0x5f0|                        03                     |        .       |      [48]: 3 transition_type 0x5f8-0x5f9 (1)
0x5f0|                           02                  |         .      |      [49]: 2 transition_type 0x5f9-0x5fa (1)
0x5f0|                              03               |          .     |      [50]: 3 transition_type 0x5fa-0x5fb (1)
0x5f0|                                 02            |           .    |      [51]: 2 transition_type 0x5fb-0x5fc (1)
0x5f0|                                    03         |            .   |      [52]: 3 transition_type 0x5fc-0x5fd (1)
0x5f0|                                       02      |             .  |      [53]: 2 transition_type 0x5fd-0x5fe (1)
0x5f0|                                          03   |              . |      [54]: 3 transition_type 0x5fe-0x5ff (1)
0x5f0|                                             02|               .|      [55]: 2 transition_type 0x5ff-0x600 (1)
0x600|03                                             |.               |      [56]: 3 transition_type 0x600-0x601 (1)
0x600|   02                                          | .              |      [57]: 2 transition_type 0x601-0x602 (1)
0x600|      03                                       |  .             |      [58]: 3 transition_type 0x602-0x603 (1)
0x600|         02                                    |   .            |      [59]: 2 transition_type 0x603-0x604 (1)
0x600|            03                                 |    .           |      [60]: 3 transition_type 0x604-0x605 (1)
0x600|               02                              |     .          |      [61]: 2 transition_type 0x605-0x606 (1)
0x600|                  03                           |      .         |      [62]: 3 transition_type 0x606-0x607 (1)
0x600|                     02                        |       .        |      [63]: 2 transition_type 0x607-0x608 (1)
0x600|                        03                     |        .       |      [64]: 3 transition_type 0x608-0x609 (1)
0x600|                           02                  |         .      |      [65]: 2 transition_type 0x609-0x60a (1)
0x600|                              03               |          .     |      [66]: 3 transition_type 0x60a-0x60b (1)
0x600|                                 02            |           .    |      [67]: 2 transition_type 0x60b-0x60c (1)
0x600|                                    03         |            .   |      [68]: 3 transition_type 0x60c-0x60d (1)
0x600|                                       02      |             .  |      [69]: 2 transition_type 0x60d-0x60e (1)
0x600|                                          03   |              . |      [70]: 3 transition_type 0x60e-0x60f (1)
0x600|                                             02|               .|      [71]: 2 transition_type 0x60f-0x610 (1)
0x610|03                                             |.               |      [72]: 3 transition_type 0x610-0x611 (1)
0x610|   02                                          | .              |      [73]: 2 transition_type 0x611-0x612 (1)
0x610|      03                                       |  .             |      [74]: 3 transition_type 0x612-0x613 (1)
0x610|         02                                    |   .            |      [75]: 2 transition_type 0x613-0x614 (1)
0x610|            03                                 |    .           |      [76]: 3 transition_type 0x614-0x615 (1)
0x610|               02                              |     .          |      [77]: 2 transition_type 0x615-0x616 (1)
0x610|                  03                           |      .         |      [78]: 3 transition_type 0x616-0x617 (1)
0x610|                     02                        |       .        |      [79]: 2 transition_type 0x617-0x618 (1)
0x610|                        03                     |        .       |      [80]: 3 transition_type 0x618-0x619 (1)
0x610|                           02                  |         .      |      [81]: 2 transition_type 0x619-0x61a (1)
0x610|                              03               |          .     |      [82]: 3 transition_type 0x61a-0x61b (1)
0x610|                                 02            |           .    |      [83]: 2 transition_type 0x61b-0x61c (1)
0x610|                                    03         |            .   |      [84]: 3 transition_type 0x61c-0x61d (1)
0x610|                                       02      |             .  |      [85]: 2 transition_type 0x61d-0x61e (1)
0x610|                                          02   |              . |      [86]: 2 transition_type 0x61e-0x61f (1)
     |                                               |                |    local_time_type_records[0:4]: 0x61f-0x637 (24)
     |                                               |                |      [0]{}: local_time_type 0x61f-0x625 (6)
0x610|                                             ff|               .|        utoff: -1624 (valid) 0x61f-0x623 (4)
0x620|ff f9 a8                                       |...             |
0x620|         00                                    |   .            |        dst: 0 (valid) 0x623-0x624 (1)
0x620|            00                                 |    .           |        idx: 0 (valid) 0x624-0x625 (1)
     |                                               |                |      [1]{}: local_time_type 0x625-0x62b (6)
0x620|               00 00 00 00                     |     ....       |        utoff: 0 (valid) 0x625-0x629 (4)
0x620|                           00                  |         .      |        dst: 0 (valid) 0x629-0x62a (1)
0x620|                              04               |          .     |        idx: 4 (valid) 0x62a-0x62b (1)
     |                                               |                |      [2]{}: local_time_type 0x62b-0x631 (6)
0x620|                                 00 00 0e 10   |           .... |        utoff: 3600 (valid) 0x62b-0x62f (4)
0x620|                                             01|               .|        dst: 1 (valid) 0x62f-0x630 (1)
0x630|08                                             |.               |        idx: 8 (valid) 0x630-0x631 (1)
     |                                               |                |      [3]{}: local_time_type 0x631-0x637 (6)
0x630|   00 00 00 00                                 | ....           |        utoff: 0 (valid) 0x631-0x635 (4)
0x630|               00                              |     .          |        dst: 0 (valid) 0x635-0x636 (1)
0x630|                  04                           |      .         |        idx: 4 (valid) 0x636-0x637 (1)
     |                                               |                |    time_zone_designations[0:3]: 0x637-0x644 (13)
0x630|                     4c 4d 54 00               |       LMT.     |      [0]: "LMT" time_zone_designation 0x637-0x63b (4)
0x630|                                 57 45 54 00   |           WET. |      [1]: "WET" time_zone_designation 0x63b-0x63f (4)
0x630|                                             57|               W|      [2]: "WEST" time_zone_designation 0x63f-0x644 (5)
0x640|45 53 54 00                                    |EST.            |
     |                                               |                |    leap_second_records[0:27]: 0x644-0x788 (324)
     |                                               |                |      [0]{}: leap_second_record 0x644-0x650 (12)
0x640|            00 00 00 00 04 b2 58 00            |    ......X.    |        occur: "1972-07-01T00:00:00Z" (78796800) 0x644-0x64c (8)
0x640|                                    00 00 00 01|            ....|        corr: 1 0x64c-0x650 (4)
     |                                               |                |      [1]{}: leap_second_record 0x650-0x65c (12)
0x650|00 00 00 00 05 a4 ec 01                        |........        |        occur: "1973-01-01T00:00:01Z" (94694401) 0x650-0x658 (8)
0x650|                        00 00 00 02            |        ....    |        corr: 2 0x658-0x65c (4)
     |                                               |                |      [2]{}: leap_second_record 0x65c-0x668 (12)
0x650|                                    00 00 00 00|            ....|        occur: "1974-01-01T00:00:02Z" (126230402) 0x65c-0x664 (8)
0x660|07 86 1f 82                                    |....            |
0x660|            00 00 00 03                        |    ....        |        corr: 3 0x664-0x668 (4)
     |                                               |                |      [3]{}: leap_second_record 0x668-0x674 (12)
0x660|                        00 00 00 00 09 67 53 03|        .....gS.|        occur: "1975-01-01T00:00:03Z" (157766403) 0x668-0x670 (8)
0x670|00 00 00 04                                    |....            |        corr: 4 0x670-0x674 (4)
     |                                               |                |      [4]{}: leap_second_record 0x674-0x680 (12)
0x670|            00 00 00 00 0b 48 86 84            |    .....H..    |        occur: "1976-01-01T00:00:04Z" (189302404) 0x674-0x67c (8)
0x670|                                    00 00 00 05|            ....|        corr: 5 0x67c-0x680 (4)
     |                                               |                |      [5]{}: leap_second_record 0x680-0x68c (12)
0x680|00 00 00 00 0d 2b 0b 85                        |.....+..        |        occur: "1977-01-01T00:00:05Z" (220924805) 0x680-0x688 (8)
0x680|                        00 00 00 06            |        ....    |        corr: 6 0x688-0x68c (4)
     |                                               |                |      [6]{}: leap_second_record 0x68c-0x698 (12)
0x680|                                    00 00 00 00|            ....|        occur: "1978-01-01T00:00:06Z" (252460806) 0x68c-0x694 (8)
0x690|0f 0c 3f 06                                    |..?.            |
0x690|            00 00 00 07                        |    ....        |        corr: 7 0x694-0x698 (4)
     |                                               |                |      [7]{}: leap_second_record 0x698-0x6a4 (12)
0x690|                        00 00 00 00 10 ed 72 87|        ......r.|        occur: "1979-01-01T00:00:07Z" (283996807) 0x698-0x6a0 (8)
0x6a0|00 00 00 08                                    |....            |        corr: 8 0x6a0-0x6a4 (4)
     |                                               |                |      [8]{}: leap_second_record 0x6a4-0x6b0 (12)
0x6a0|            00 00 00 00 12 ce a6 08            |    ........    |        occur: "1980-01-01T00:00:08Z" (315532808) 0x6a4-0x6ac (8)
0x6a0|                                    00 00 00 09|            ....|        corr: 9 0x6ac-0x6b0 (4)
     |                                               |                |      [9]{}: leap_second_record 0x6b0-0x6bc (12)
0x6b0|00 00 00 00 15 9f ca 89                        |........        |        occur: "1981-07-01T00:00:09Z" (362793609) 0x6b0-0x6b8 (8)
0x6b0|                        00 00 00 0a            |        ....    |        corr: 10 0x6b8-0x6bc (4)
     |                                               |                |      [10]{}: leap_second_record 0x6bc-0x6c8 (12)
0x6b0|                                    00 00 00 00|            ....|        occur: "1982-07-01T00:00:10Z" (394329610) 0x6bc-0x6c4 (8)
0x6c0|17 80 fe 0a                                    |....            |
0x6c0|            00 00 00 0b                        |    ....        |        corr: 11 0x6c4-0x6c8 (4)
     |                                               |                |      [11]{}: leap_second_record 0x6c8-0x6d4 (12)
0x6c0|                        00 00 00 00 19 62 31 8b|        .....b1.|        occur: "1983-07-01T00:00:11Z" (425865611) 0x6c8-0x6d0 (8)
0x6d0|00 00 00 0c                                    |....            |        corr: 12 0x6d0-0x6d4 (4)
     |                                               |                |      [12]{}: leap_second_record 0x6d4-0x6e0 (12)
0x6d0|            00 00 00 00 1d 25 ea 0c            |    .....%..    |        occur: "1985-07-01T00:00:12Z" (489024012) 0x6d4-0x6dc (8)
0x6d0|                                    00 00 00 0d|            ....|        corr: 13 0x6dc-0x6e0 (4)
     |                                               |                |      [13]{}: leap_second_record 0x6e0-0x6ec (12)
0x6e0|00 00 00 00 21 da e5 0d                        |....!...        |        occur: "1988-01-01T00:00:13Z" (567993613) 0x6e0-0x6e8 (8)
0x6e0|                        00 00 00 0e            |        ....    |        corr: 14 0x6e8-0x6ec (4)
     |                                               |                |      [14]{}: leap_second_record 0x6ec-0x6f8 (12)
0x6e0|                                    00 00 00 00|            ....|        occur: "1990-01-01T00:00:14Z" (631152014) 0x6ec-0x6f4 (8)
0x6f0|25 9e 9d 8e                                    |%...            |
0x6f0|            00 00 00 0f                        |    ....        |        corr: 15 0x6f4-0x6f8 (4)
     |                                               |                |      [15]{}: leap_second_record 0x6f8-0x704 (12)
0x6f0|                        00 00 00 00 27 7f d1 0f|        ....'...|        occur: "1991-01-01T00:00:15Z" (662688015) 0x6f8-0x700 (8)
0x700|00 00 00 10                                    |....            |        corr: 16 0x700-0x704 (4)
     |                                               |                |      [16]{}: leap_second_record 0x704-0x710 (12)
0x700|            00 00 00 00 2a 50 f5 90            |    ....*P..    |        occur: "1992-07-01T00:00:16Z" (709948816) 0x704-0x70c (8)
0x700|                                    00 00 00 11|            ....|        corr: 17 0x70c-0x710 (4)
     |                                               |                |      [17]{}: leap_second_record 0x710-0x71c (12)
0x710|00 00 00 00 2c 32 29 11                        |....,2).        |        occur: "1993-07-01T00:00:17Z" (741484817) 0x710-0x718 (8)
0x710|                        00 00 00 12            |        ....    |        corr: 18 0x718-0x71c (4)
     |                                               |                |      [18]{}: leap_second_record 0x71c-0x728 (12)
0x710|                                    00 00 00 00|            ....|        occur: "1994-07-01T00:00:18Z" (773020818) 0x71c-0x724 (8)
0x720|2e 13 5c 92                                    |..\.            |
0x720|            00 00 00 13                        |    ....        |        corr: 19 0x724-0x728 (4)
     |                                               |                |      [19]{}: leap_second_record 0x728-0x734 (12)
0x720|                        00 00 00 00 30 e7 24 13|        ....0.$.|        occur: "1996-01-01T00:00:19Z" (820454419) 0x728-0x730 (8)
0x730|00 00 00 14                                    |....            |        corr: 20 0x730-0x734 (4)
     |                                               |                |      [20]{}: leap_second_record 0x734-0x740 (12)
0x730|            00 00 00 00 33 b8 48 94            |    ....3.H.    |        occur: "1997-07-01T00:00:20Z" (867715220) 0x734-0x73c (8)
0x730|                                    00 00 00 15|            ....|        corr: 21 0x73c-0x740 (4)
     |                                               |                |      [21]{}: leap_second_record 0x740-0x74c (12)
0x740|00 00 00 00 36 8c 10 15                        |....6...        |        occur: "1999-01-01T00:00:21Z" (915148821) 0x740-0x748 (8)
0x740|                        00 00 00 16            |        ....    |        corr: 22 0x748-0x74c (4)
     |                                               |                |      [22]{}: leap_second_record 0x74c-0x758 (12)
0x740|                                    00 00 00 00|            ....|        occur: "2006-01-01T00:00:22Z" (1136073622) 0x74c-0x754 (8)
0x750|43 b7 1b 96                                    |C...            |
0x750|            00 00 00 17                        |    ....        |        corr: 23 0x754-0x758 (4)
     |                                               |                |      [23]{}: leap_second_record 0x758-0x764 (12)
0x750|                        00 00 00 00 49 5c 07 97|        ....I\..|        occur: "2009-01-01T00:00:23Z" (1230768023) 0x758-0x760 (8)
0x760|00 00 00 18                                    |....            |        corr: 24 0x760-0x764 (4)
     |                                               |                |      [24]{}: leap_second_record 0x764-0x770 (12)
0x760|            00 00 00 00 4f ef 93 18            |    ....O...    |        occur: "2012-07-01T00:00:24Z" (1341100824) 0x764-0x76c (8)
0x760|                                    00 00 00 19|            ....|        corr: 25 0x76c-0x770 (4)
     |                                               |                |      [25]{}: leap_second_record 0x770-0x77c (12)
0x770|00 00 00 00 55 93 2d 99                        |....U.-.        |        occur: "2015-07-01T00:00:25Z" (1435708825) 0x770-0x778 (8)
0x770|                        00 00 00 1a            |        ....    |        corr: 26 0x778-0x77c (4)
     |                                               |                |      [26]{}: leap_second_record 0x77c-0x788 (12)
0x770|                                    00 00 00 00|            ....|        occur: "2017-01-01T00:00:26Z" (1483228826) 0x77c-0x784 (8)
0x780|58 68 46 9a                                    |XhF.            |
0x780|            00 00 00 1b                        |    ....        |        corr: 27 0x784-0x788 (4)
     |                                               |                |    standard_wall_indicators[0:4]: 0x788-0x78c (4)
0x780|                        00                     |        .       |      [0]: 0 standard_wall_indicator (valid) 0x788-0x789 (1)
0x780|                           00                  |         .      |      [1]: 0 standard_wall_indicator (valid) 0x789-0x78a (1)
0x780|                              01               |          .     |      [2]: 1 standard_wall_indicator (valid) 0x78a-0x78b (1)
0x780|                                 01            |           .    |      [3]: 1 standard_wall_indicator (valid) 0x78b-0x78c (1)
     |                                               |                |    ut_local_indicators[0:4]: 0x78c-0x790 (4)
0x780|                                    00         |            .   |      [0]: 0 ut_local_indicator (valid) 0x78c-0x78d (1)
0x780|                                       00      |             .  |      [1]: 0 ut_local_indicator (valid) 0x78d-0x78e (1)
0x780|                                          01   |              . |      [2]: 1 ut_local_indicator (valid) 0x78e-0x78f (1)
0x780|                                             01|               .|      [3]: 1 ut_local_indicator (valid) 0x78f-0x790 (1)
     |                                               |                |  footer{}: 0x790-0x792 (2)
0x790|0a                                             |.               |    nl1: 10 (valid) 0x790-0x791 (1)
     |                                               |                |    tz_string: "" 0x791-0x791 (0)
0x790|   0a|                                         | .|             |    nl2: 10 (valid) 0x791-0x792 (1)
