$ fq -d tzif dv Fiji
     |00 01 02 03 04 05 06 07 08 09 0a 0b 0c 0d 0e 0f|0123456789abcdef|.{}: Fiji (tzif) 0x0-0x241.7 (578)
     |                                               |                |  v1header{}: 0x0-0x2b.7 (44)
0x000|54 5a 69 66                                    |TZif            |    magic: 0x545a6966 (valid) 0x0-0x3.7 (4)
0x000|            32                                 |    2           |    ver: "2" (0x32) (valid) 0x4-0x4.7 (1)
0x000|               00 00 00 00 00 00 00 00 00 00 00|     ...........|    reserved: raw bits 0x5-0x13.7 (15)
0x010|00 00 00 00                                    |....            |
0x010|            00 00 00 00                        |    ....        |    isutcnt: 0 0x14-0x17.7 (4)
0x010|                        00 00 00 00            |        ....    |    isstdcnt: 0 0x18-0x1b.7 (4)
0x010|                                    00 00 00 00|            ....|    leapcnt: 0 0x1c-0x1f.7 (4)
0x020|00 00 00 1e                                    |....            |    timecnt: 30 0x20-0x23.7 (4)
0x020|            00 00 00 03                        |    ....        |    typecnt: 3 0x24-0x27.7 (4)
0x020|                        00 00 00 0c            |        ....    |    charcnt: 12 0x28-0x2b.7 (4)
     |                                               |                |  v1datablock{}: 0x2c-0xdf.7 (180)
     |                                               |                |    transition_times[0:30]: 0x2c-0xa3.7 (120)
0x020|                                    9a 13 b1 c0|            ....|      [0]: "1915-10-25T12:04:16Z" (-1709985344) transition_time 0x2c-0x2f.7 (4)
0x030|36 3b 17 e0                                    |6;..            |      [1]: "1998-10-31T14:00:00Z" (909842400) transition_time 0x30-0x33.7 (4)
0x030|            36 d7 fa 60                        |    6..`        |      [2]: "1999-02-27T14:00:00Z" (920124000) transition_time 0x34-0x37.7 (4)
0x030|                        38 24 34 60            |        8$4`    |      [3]: "1999-11-06T14:00:00Z" (941896800) transition_time 0x38-0x3b.7 (4)
0x030|                                    38 b7 dc 60|            8..`|      [4]: "2000-02-26T14:00:00Z" (951573600) transition_time 0x3c-0x3f.7 (4)
0x040|4b 11 2c e0                                    |K.,.            |      [5]: "2009-11-28T14:00:00Z" (1259416800) transition_time 0x40-0x43.7 (4)
0x040|            4b ae 0f 60                        |    K..`        |      [6]: "2010-03-27T14:00:00Z" (1269698400) transition_time 0x44-0x47.7 (4)
0x040|                        4c c2 ea 60            |        L..`    |      [7]: "2010-10-23T14:00:00Z" (1287842400) transition_time 0x48-0x4b.7 (4)
0x040|                                    4d 72 41 e0|            MrA.|      [8]: "2011-03-05T14:00:00Z" (1299333600) transition_time 0x4c-0x4f.7 (4)
0x050|4e a2 cc 60                                    |N..`            |      [9]: "2011-10-22T14:00:00Z" (1319292000) transition_time 0x50-0x53.7 (4)
0x050|            4f 1a c4 e0                        |    O...        |      [10]: "2012-01-21T14:00:00Z" (1327154400) transition_time 0x54-0x57.7 (4)
0x050|                        50 82 ae 60            |        P..`    |      [11]: "2012-10-20T14:00:00Z" (1350741600) transition_time 0x58-0x5b.7 (4)
0x050|                                    50 fa a6 e0|            P...|      [12]: "2013-01-19T14:00:00Z" (1358604000) transition_time 0x5c-0x5f.7 (4)
0x060|52 6b ca e0                                    |Rk..            |      [13]: "2013-10-26T14:00:00Z" (1382796000) transition_time 0x60-0x63.7 (4)
0x060|            52 da 7a d0                        |    R.z.        |      [14]: "2014-01-18T13:00:00Z" (1390050000) transition_time 0x64-0x67.7 (4)
0x060|                        54 54 e7 60            |        TT.`    |      [15]: "2014-11-01T14:00:00Z" (1414850400) transition_time 0x68-0x6b.7 (4)
0x060|                                    54 ba 6a e0|            T.j.|      [16]: "2015-01-17T14:00:00Z" (1421503200) transition_time 0x6c-0x6f.7 (4)
0x070|56 34 c9 60                                    |V4.`            |      [17]: "2015-10-31T14:00:00Z" (1446300000) transition_time 0x70-0x73.7 (4)
0x070|            56 9a 4c e0                        |    V.L.        |      [18]: "2016-01-16T14:00:00Z" (1452952800) transition_time 0x74-0x77.7 (4)
0x070|                        58 1d e5 e0            |        X...    |      [19]: "2016-11-05T14:00:00Z" (1478354400) transition_time 0x78-0x7b.7 (4)
0x070|                                    58 7a 2e e0|            Xz..|      [20]: "2017-01-14T14:00:00Z" (1484402400) transition_time 0x7c-0x7f.7 (4)
0x080|59 fd c7 e0                                    |Y...            |      [21]: "2017-11-04T14:00:00Z" (1509804000) transition_time 0x80-0x83.7 (4)
0x080|            5a 5a 10 e0                        |    ZZ..        |      [22]: "2018-01-13T14:00:00Z" (1515852000) transition_time 0x84-0x87.7 (4)
0x080|                        5b dd a9 e0            |        [...    |      [23]: "2018-11-03T14:00:00Z" (1541253600) transition_time 0x88-0x8b.7 (4)
0x080|                                    5c 39 f2 e0|            \9..|      [24]: "2019-01-12T14:00:00Z" (1547301600) transition_time 0x8c-0x8f.7 (4)
0x090|5d c6 c6 60                                    |]..`            |      [25]: "2019-11-09T14:00:00Z" (1573308000) transition_time 0x90-0x93.7 (4)
0x090|            5e 19 d4 e0                        |    ^...        |      [26]: "2020-01-11T14:00:00Z" (1578751200) transition_time 0x94-0x97.7 (4)
0x090|                        5f de 07 60            |        _..`    |      [27]: "2020-12-19T14:00:00Z" (1608386400) transition_time 0x98-0x9b.7 (4)
0x090|                                    60 02 f1 60|            `..`|      [28]: "2021-01-16T14:00:00Z" (1610805600) transition_time 0x9c-0x9f.7 (4)
0x0a0|7f ff ff ff                                    |....            |      [29]: "2038-01-19T03:14:07Z" (2147483647) transition_time 0xa0-0xa3.7 (4)
     |                                               |                |    transition_types[0:30]: 0xa4-0xc1.7 (30)
0x0a0|            02                                 |    .           |      [0]: 2 transition_type 0xa4-0xa4.7 (1)
0x0a0|               01                              |     .          |      [1]: 1 transition_type 0xa5-0xa5.7 (1)
0x0a0|                  02                           |      .         |      [2]: 2 transition_type 0xa6-0xa6.7 (1)
0x0a0|                     01                        |       .        |      [3]: 1 transition_type 0xa7-0xa7.7 (1)
0x0a0|                        02                     |        .       |      [4]: 2 transition_type 0xa8-0xa8.7 (1)
0x0a0|                           01                  |         .      |      [5]: 1 transition_type 0xa9-0xa9.7 (1)
0x0a0|                              02               |          .     |      [6]: 2 transition_type 0xaa-0xaa.7 (1)
0x0a0|                                 01            |           .    |      [7]: 1 transition_type 0xab-0xab.7 (1)
0x0a0|                                    02         |            .   |      [8]: 2 transition_type 0xac-0xac.7 (1)
0x0a0|                                       01      |             .  |      [9]: 1 transition_type 0xad-0xad.7 (1)
0x0a0|                                          02   |              . |      [10]: 2 transition_type 0xae-0xae.7 (1)
0x0a0|                                             01|               .|      [11]: 1 transition_type 0xaf-0xaf.7 (1)
0x0b0|02                                             |.               |      [12]: 2 transition_type 0xb0-0xb0.7 (1)
0x0b0|   01                                          | .              |      [13]: 1 transition_type 0xb1-0xb1.7 (1)
0x0b0|      02                                       |  .             |      [14]: 2 transition_type 0xb2-0xb2.7 (1)
0x0b0|         01                                    |   .            |      [15]: 1 transition_type 0xb3-0xb3.7 (1)
0x0b0|            02                                 |    .           |      [16]: 2 transition_type 0xb4-0xb4.7 (1)
0x0b0|               01                              |     .          |      [17]: 1 transition_type 0xb5-0xb5.7 (1)
0x0b0|                  02                           |      .         |      [18]: 2 transition_type 0xb6-0xb6.7 (1)
0x0b0|                     01                        |       .        |      [19]: 1 transition_type 0xb7-0xb7.7 (1)
0x0b0|                        02                     |        .       |      [20]: 2 transition_type 0xb8-0xb8.7 (1)
0x0b0|                           01                  |         .      |      [21]: 1 transition_type 0xb9-0xb9.7 (1)
0x0b0|                              02               |          .     |      [22]: 2 transition_type 0xba-0xba.7 (1)
0x0b0|                                 01            |           .    |      [23]: 1 transition_type 0xbb-0xbb.7 (1)
0x0b0|                                    02         |            .   |      [24]: 2 transition_type 0xbc-0xbc.7 (1)
0x0b0|                                       01      |             .  |      [25]: 1 transition_type 0xbd-0xbd.7 (1)
0x0b0|                                          02   |              . |      [26]: 2 transition_type 0xbe-0xbe.7 (1)
0x0b0|                                             01|               .|      [27]: 1 transition_type 0xbf-0xbf.7 (1)
0x0c0|02                                             |.               |      [28]: 2 transition_type 0xc0-0xc0.7 (1)
0x0c0|   02                                          | .              |      [29]: 2 transition_type 0xc1-0xc1.7 (1)
     |                                               |                |    local_time_type_records[0:3]: 0xc2-0xd3.7 (18)
     |                                               |                |      [0]{}: local_time_type 0xc2-0xc7.7 (6)
0x0c0|      00 00 a7 c0                              |  ....          |        utoff: 42944 (valid) 0xc2-0xc5.7 (4)
0x0c0|                  00                           |      .         |        dst: 0 (valid) 0xc6-0xc6.7 (1)
0x0c0|                     00                        |       .        |        idx: 0 (valid) 0xc7-0xc7.7 (1)
     |                                               |                |      [1]{}: local_time_type 0xc8-0xcd.7 (6)
0x0c0|                        00 00 b6 d0            |        ....    |        utoff: 46800 (valid) 0xc8-0xcb.7 (4)
0x0c0|                                    01         |            .   |        dst: 1 (valid) 0xcc-0xcc.7 (1)
0x0c0|                                       04      |             .  |        idx: 4 (valid) 0xcd-0xcd.7 (1)
     |                                               |                |      [2]{}: local_time_type 0xce-0xd3.7 (6)
0x0c0|                                          00 00|              ..|        utoff: 43200 (valid) 0xce-0xd1.7 (4)
0x0d0|a8 c0                                          |..              |
0x0d0|      00                                       |  .             |        dst: 0 (valid) 0xd2-0xd2.7 (1)
0x0d0|         08                                    |   .            |        idx: 8 (valid) 0xd3-0xd3.7 (1)
     |                                               |                |    time_zone_designations[0:3]: 0xd4-0xdf.7 (12)
0x0d0|            4c 4d 54 00                        |    LMT.        |      [0]: "LMT" time_zone_designation 0xd4-0xd7.7 (4)
0x0d0|                        2b 31 33 00            |        +13.    |      [1]: "+13" time_zone_designation 0xd8-0xdb.7 (4)
0x0d0|                                    2b 31 32 00|            +12.|      [2]: "+12" time_zone_designation 0xdc-0xdf.7 (4)
     |                                               |                |    leap_second_records[0:0]: 0xe0-NA (0)
     |                                               |                |    standard_wall_indicators[0:0]: 0xe0-NA (0)
     |                                               |                |    ut_local_indicators[0:0]: 0xe0-NA (0)
     |                                               |                |  v2plusheader{}: 0xe0-0x10b.7 (44)
0x0e0|54 5a 69 66                                    |TZif            |    magic: 0x545a6966 (valid) 0xe0-0xe3.7 (4)
0x0e0|            32                                 |    2           |    ver: "2" (0x32) (valid) 0xe4-0xe4.7 (1)
0x0e0|               00 00 00 00 00 00 00 00 00 00 00|     ...........|    reserved: raw bits 0xe5-0xf3.7 (15)
0x0f0|00 00 00 00                                    |....            |
0x0f0|            00 00 00 00                        |    ....        |    isutcnt: 0 0xf4-0xf7.7 (4)
0x0f0|                        00 00 00 00            |        ....    |    isstdcnt: 0 0xf8-0xfb.7 (4)
0x0f0|                                    00 00 00 00|            ....|    leapcnt: 0 0xfc-0xff.7 (4)
0x100|00 00 00 1e                                    |....            |    timecnt: 30 0x100-0x103.7 (4)
0x100|            00 00 00 03                        |    ....        |    typecnt: 3 0x104-0x107.7 (4)
0x100|                        00 00 00 0c            |        ....    |    charcnt: 12 0x108-0x10b.7 (4)
     |                                               |                |  v2plusdatablock{}: 0x10c-0x237.7 (300)
     |                                               |                |    transition_times[0:30]: 0x10c-0x1fb.7 (240)
0x100|                                    ff ff ff ff|            ....|      [0]: "1915-10-25T12:04:16Z" (-1709985344) transition_time 0x10c-0x113.7 (8)
0x110|9a 13 b1 c0                                    |....            |
0x110|            00 00 00 00 36 3b 17 e0            |    ....6;..    |      [1]: "1998-10-31T14:00:00Z" (909842400) transition_time 0x114-0x11b.7 (8)
0x110|                                    00 00 00 00|            ....|      [2]: "1999-02-27T14:00:00Z" (920124000) transition_time 0x11c-0x123.7 (8)
0x120|36 d7 fa 60                                    |6..`            |
0x120|            00 00 00 00 38 24 34 60            |    ....8$4`    |      [3]: "1999-11-06T14:00:00Z" (941896800) transition_time 0x124-0x12b.7 (8)
0x120|                                    00 00 00 00|            ....|      [4]: "2000-02-26T14:00:00Z" (951573600) transition_time 0x12c-0x133.7 (8)
0x130|38 b7 dc 60                                    |8..`            |
0x130|            00 00 00 00 4b 11 2c e0            |    ....K.,.    |      [5]: "2009-11-28T14:00:00Z" (1259416800) transition_time 0x134-0x13b.7 (8)
0x130|                                    00 00 00 00|            ....|      [6]: "2010-03-27T14:00:00Z" (1269698400) transition_time 0x13c-0x143.7 (8)
0x140|4b ae 0f 60                                    |K..`            |
0x140|            00 00 00 00 4c c2 ea 60            |    ....L..`    |      [7]: "2010-10-23T14:00:00Z" (1287842400) transition_time 0x144-0x14b.7 (8)
0x140|                                    00 00 00 00|            ....|      [8]: "2011-03-05T14:00:00Z" (1299333600) transition_time 0x14c-0x153.7 (8)
0x150|4d 72 41 e0                                    |MrA.            |
0x150|            00 00 00 00 4e a2 cc 60            |    ....N..`    |      [9]: "2011-10-22T14:00:00Z" (1319292000) transition_time 0x154-0x15b.7 (8)
0x150|                                    00 00 00 00|            ....|      [10]: "2012-01-21T14:00:00Z" (1327154400) transition_time 0x15c-0x163.7 (8)
0x160|4f 1a c4 e0                                    |O...            |
0x160|            00 00 00 00 50 82 ae 60            |    ....P..`    |      [11]: "2012-10-20T14:00:00Z" (1350741600) transition_time 0x164-0x16b.7 (8)
0x160|                                    00 00 00 00|            ....|      [12]: "2013-01-19T14:00:00Z" (1358604000) transition_time 0x16c-0x173.7 (8)
0x170|50 fa a6 e0                                    |P...            |
0x170|            00 00 00 00 52 6b ca e0            |    ....Rk..    |      [13]: "2013-10-26T14:00:00Z" (1382796000) transition_time 0x174-0x17b.7 (8)
0x170|                                    00 00 00 00|            ....|      [14]: "2014-01-18T13:00:00Z" (1390050000) transition_time 0x17c-0x183.7 (8)
0x180|52 da 7a d0                                    |R.z.            |
0x180|            00 00 00 00 54 54 e7 60            |    ....TT.`    |      [15]: "2014-11-01T14:00:00Z" (1414850400) transition_time 0x184-0x18b.7 (8)
0x180|                                    00 00 00 00|            ....|      [16]: "2015-01-17T14:00:00Z" (1421503200) transition_time 0x18c-0x193.7 (8)
0x190|54 ba 6a e0                                    |T.j.            |
0x190|            00 00 00 00 56 34 c9 60            |    ....V4.`    |      [17]: "2015-10-31T14:00:00Z" (1446300000) transition_time 0x194-0x19b.7 (8)
0x190|                                    00 00 00 00|            ....|      [18]: "2016-01-16T14:00:00Z" (1452952800) transition_time 0x19c-0x1a3.7 (8)
0x1a0|56 9a 4c e0                                    |V.L.            |
0x1a0|            00 00 00 00 58 1d e5 e0            |    ....X...    |      [19]: "2016-11-05T14:00:00Z" (1478354400) transition_time 0x1a4-0x1ab.7 (8)
0x1a0|                                    00 00 00 00|            ....|      [20]: "2017-01-14T14:00:00Z" (1484402400) transition_time 0x1ac-0x1b3.7 (8)
0x1b0|58 7a 2e e0                                    |Xz..            |
0x1b0|            00 00 00 00 59 fd c7 e0            |    ....Y...    |      [21]: "2017-11-04T14:00:00Z" (1509804000) transition_time 0x1b4-0x1bb.7 (8)
0x1b0|                                    00 00 00 00|            ....|      [22]: "2018-01-13T14:00:00Z" (1515852000) transition_time 0x1bc-0x1c3.7 (8)
0x1c0|5a 5a 10 e0                                    |ZZ..            |
0x1c0|            00 00 00 00 5b dd a9 e0            |    ....[...    |      [23]: "2018-11-03T14:00:00Z" (1541253600) transition_time 0x1c4-0x1cb.7 (8)
0x1c0|                                    00 00 00 00|            ....|      [24]: "2019-01-12T14:00:00Z" (1547301600) transition_time 0x1cc-0x1d3.7 (8)
0x1d0|5c 39 f2 e0                                    |\9..            |
0x1d0|            00 00 00 00 5d c6 c6 60            |    ....]..`    |      [25]: "2019-11-09T14:00:00Z" (1573308000) transition_time 0x1d4-0x1db.7 (8)
0x1d0|                                    00 00 00 00|            ....|      [26]: "2020-01-11T14:00:00Z" (1578751200) transition_time 0x1dc-0x1e3.7 (8)
0x1e0|5e 19 d4 e0                                    |^...            |
0x1e0|            00 00 00 00 5f de 07 60            |    ...._..`    |      [27]: "2020-12-19T14:00:00Z" (1608386400) transition_time 0x1e4-0x1eb.7 (8)
0x1e0|                                    00 00 00 00|            ....|      [28]: "2021-01-16T14:00:00Z" (1610805600) transition_time 0x1ec-0x1f3.7 (8)
0x1f0|60 02 f1 60                                    |`..`            |
0x1f0|            00 00 00 00 7f ff ff ff            |    ........    |      [29]: "2038-01-19T03:14:07Z" (2147483647) transition_time 0x1f4-0x1fb.7 (8)
     |                                               |                |    transition_types[0:30]: 0x1fc-0x219.7 (30)
0x1f0|                                    02         |            .   |      [0]: 2 transition_type 0x1fc-0x1fc.7 (1)
0x1f0|                                       01      |             .  |      [1]: 1 transition_type 0x1fd-0x1fd.7 (1)
0x1f0|                                          02   |              . |      [2]: 2 transition_type 0x1fe-0x1fe.7 (1)
0x1f0|                                             01|               .|      [3]: 1 transition_type 0x1ff-0x1ff.7 (1)
0x200|02                                             |.               |      [4]: 2 transition_type 0x200-0x200.7 (1)
0x200|   01                                          | .              |      [5]: 1 transition_type 0x201-0x201.7 (1)
0x200|      02                                       |  .             |      [6]: 2 transition_type 0x202-0x202.7 (1)
0x200|         01                                    |   .            |      [7]: 1 transition_type 0x203-0x203.7 (1)
0x200|            02                                 |    .           |      [8]: 2 transition_type 0x204-0x204.7 (1)
0x200|               01                              |     .          |      [9]: 1 transition_type 0x205-0x205.7 (1)
0x200|                  02                           |      .         |      [10]: 2 transition_type 0x206-0x206.7 (1)
0x200|                     01                        |       .        |      [11]: 1 transition_type 0x207-0x207.7 (1)
0x200|                        02                     |        .       |      [12]: 2 transition_type 0x208-0x208.7 (1)
0x200|                           01                  |         .      |      [13]: 1 transition_type 0x209-0x209.7 (1)
0x200|                              02               |          .     |      [14]: 2 transition_type 0x20a-0x20a.7 (1)
0x200|                                 01            |           .    |      [15]: 1 transition_type 0x20b-0x20b.7 (1)
0x200|                                    02         |            .   |      [16]: 2 transition_type 0x20c-0x20c.7 (1)
0x200|                                       01      |             .  |      [17]: 1 transition_type 0x20d-0x20d.7 (1)
0x200|                                          02   |              . |      [18]: 2 transition_type 0x20e-0x20e.7 (1)
0x200|                                             01|               .|      [19]: 1 transition_type 0x20f-0x20f.7 (1)
0x210|02                                             |.               |      [20]: 2 transition_type 0x210-0x210.7 (1)
0x210|   01                                          | .              |      [21]: 1 transition_type 0x211-0x211.7 (1)
0x210|      02                                       |  .             |      [22]: 2 transition_type 0x212-0x212.7 (1)
0x210|         01                                    |   .            |      [23]: 1 transition_type 0x213-0x213.7 (1)
0x210|            02                                 |    .           |      [24]: 2 transition_type 0x214-0x214.7 (1)
0x210|               01                              |     .          |      [25]: 1 transition_type 0x215-0x215.7 (1)
0x210|                  02                           |      .         |      [26]: 2 transition_type 0x216-0x216.7 (1)
0x210|                     01                        |       .        |      [27]: 1 transition_type 0x217-0x217.7 (1)
0x210|                        02                     |        .       |      [28]: 2 transition_type 0x218-0x218.7 (1)
0x210|                           02                  |         .      |      [29]: 2 transition_type 0x219-0x219.7 (1)
     |                                               |                |    local_time_type_records[0:3]: 0x21a-0x22b.7 (18)
     |                                               |                |      [0]{}: local_time_type 0x21a-0x21f.7 (6)
0x210|                              00 00 a7 c0      |          ....  |        utoff: 42944 (valid) 0x21a-0x21d.7 (4)
0x210|                                          00   |              . |        dst: 0 (valid) 0x21e-0x21e.7 (1)
0x210|                                             00|               .|        idx: 0 (valid) 0x21f-0x21f.7 (1)
     |                                               |                |      [1]{}: local_time_type 0x220-0x225.7 (6)
0x220|00 00 b6 d0                                    |....            |        utoff: 46800 (valid) 0x220-0x223.7 (4)
0x220|            01                                 |    .           |        dst: 1 (valid) 0x224-0x224.7 (1)
0x220|               04                              |     .          |        idx: 4 (valid) 0x225-0x225.7 (1)
     |                                               |                |      [2]{}: local_time_type 0x226-0x22b.7 (6)
0x220|                  00 00 a8 c0                  |      ....      |        utoff: 43200 (valid) 0x226-0x229.7 (4)
0x220|                              00               |          .     |        dst: 0 (valid) 0x22a-0x22a.7 (1)
0x220|                                 08            |           .    |        idx: 8 (valid) 0x22b-0x22b.7 (1)
     |                                               |                |    time_zone_designations[0:3]: 0x22c-0x237.7 (12)
0x220|                                    4c 4d 54 00|            LMT.|      [0]: "LMT" time_zone_designation 0x22c-0x22f.7 (4)
0x230|2b 31 33 00                                    |+13.            |      [1]: "+13" time_zone_designation 0x230-0x233.7 (4)
0x230|            2b 31 32 00                        |    +12.        |      [2]: "+12" time_zone_designation 0x234-0x237.7 (4)
     |                                               |                |    leap_second_records[0:0]: 0x238-NA (0)
     |                                               |                |    standard_wall_indicators[0:0]: 0x238-NA (0)
     |                                               |                |    ut_local_indicators[0:0]: 0x238-NA (0)
     |                                               |                |  footer{}: 0x238-0x241.7 (10)
0x230|                        0a                     |        .       |    nl1: 10 (valid) 0x238-0x238.7 (1)
0x230|                           3c 2b 31 32 3e 2d 31|         <+12>-1|    tz_string: "<+12>-12" 0x239-0x240.7 (8)
0x240|32                                             |2               |
0x240|   0a|                                         | .|             |    nl2: 10 (valid) 0x241-0x241.7 (1)
