$ fq -d tzif dv Fort_Nelson
     |00 01 02 03 04 05 06 07 08 09 0a 0b 0c 0d 0e 0f|0123456789abcdef|.{}: Fort_Nelson (tzif) 0x0-0xae6 (2790)
     |                                               |                |  v1header{}: 0x0-0x2c (44)
0x000|54 5a 69 66                                    |TZif            |    magic: 0x545a6966 (valid) 0x0-0x4 (4)
0x000|            32                                 |    2           |    ver: "2" (0x32) (valid) 0x4-0x5 (1)
0x000|               00 00 00 00 00 00 00 00 00 00 00|     ...........|    reserved: raw bits 0x5-0x14 (15)
0x010|00 00 00 00                                    |....            |
0x010|            00 00 00 06                        |    ....        |    isutcnt: 6 0x14-0x18 (4)
0x010|                        00 00 00 06            |        ....    |    isstdcnt: 6 0x18-0x1c (4)
0x010|                                    00 00 00 1b|            ....|    leapcnt: 27 0x1c-0x20 (4)
0x020|00 00 00 90                                    |....            |    timecnt: 144 0x20-0x24 (4)
0x020|            00 00 00 06                        |    ....        |    typecnt: 6 0x24-0x28 (4)
0x020|                        00 00 00 18            |        ....    |    charcnt: 24 0x28-0x2c (4)
     |                                               |                |  v1datablock{}: 0x2c-0x41c (1008)
     |                                               |                |    transition_times[0:144]: 0x2c-0x26c (576)
0x020|                                    80 00 00 00|            ....|      [0]: "1901-12-13T20:45:52Z" (-2147483648) transition_time 0x2c-0x30 (4)
0x030|9e b8 bd a0                                    |....            |      [1]: "1918-04-14T10:00:00Z" (-1632060000) transition_time 0x30-0x34 (4)
0x030|            9f bb 15 90                        |    ....        |      [2]: "1918-10-27T09:00:00Z" (-1615129200) transition_time 0x34-0x38 (4)
0x030|                        cb 89 1a a0            |        ....    |      [3]: "1942-02-09T10:00:00Z" (-880207200) transition_time 0x38-0x3c (4)
0x030|                                    d2 23 f4 70|            .#.p|      [4]: "1945-08-14T23:00:00Z" (-769395600) transition_time 0x3c-0x40 (4)
0x040|d2 61 26 10                                    |.a&.            |      [5]: "1945-09-30T09:00:00Z" (-765385200) transition_time 0x40-0x44 (4)
0x040|            d5 55 f1 20                        |    .U.         |      [6]: "1947-04-27T10:00:00Z" (-715788000) transition_time 0x44-0x48 (4)
0x040|                        d6 20 ea 10            |        . ..    |      [7]: "1947-09-28T09:00:00Z" (-702486000) transition_time 0x48-0x4c (4)
0x040|                                    d7 35 d3 20|            .5. |      [8]: "1948-04-25T10:00:00Z" (-684338400) transition_time 0x4c-0x50 (4)
0x050|d8 00 cc 10                                    |....            |      [9]: "1948-09-26T09:00:00Z" (-671036400) transition_time 0x50-0x54 (4)
0x050|            d9 15 b5 20                        |    ...         |      [10]: "1949-04-24T10:00:00Z" (-652888800) transition_time 0x54-0x58 (4)
0x050|                        d9 e0 ae 10            |        ....    |      [11]: "1949-09-25T09:00:00Z" (-639586800) transition_time 0x58-0x5c (4)
0x050|                                    da fe d1 a0|            ....|      [12]: "1950-04-30T10:00:00Z" (-620834400) transition_time 0x5c-0x60 (4)
0x060|db c0 90 10                                    |....            |      [13]: "1950-09-24T09:00:00Z" (-608137200) transition_time 0x60-0x64 (4)
0x060|            dc de b3 a0                        |    ....        |      [14]: "1951-04-29T10:00:00Z" (-589384800) transition_time 0x64-0x68 (4)
0x060|                        dd a9 ac 90            |        ....    |      [15]: "1951-09-30T09:00:00Z" (-576082800) transition_time 0x68-0x6c (4)
0x060|                                    de be 95 a0|            ....|      [16]: "1952-04-27T10:00:00Z" (-557935200) transition_time 0x6c-0x70 (4)
0x070|df 89 8e 90                                    |....            |      [17]: "1952-09-28T09:00:00Z" (-544633200) transition_time 0x70-0x74 (4)
0x070|            e0 9e 77 a0                        |    ..w.        |      [18]: "1953-04-26T10:00:00Z" (-526485600) transition_time 0x74-0x78 (4)
0x070|                        e1 69 70 90            |        .ip.    |      [19]: "1953-09-27T09:00:00Z" (-513183600) transition_time 0x78-0x7c (4)
0x070|                                    e2 7e 59 a0|            .~Y.|      [20]: "1954-04-25T10:00:00Z" (-495036000) transition_time 0x7c-0x80 (4)
0x080|e3 49 52 90                                    |.IR.            |      [21]: "1954-09-26T09:00:00Z" (-481734000) transition_time 0x80-0x84 (4)
0x080|            e4 5e 3b a0                        |    .^;.        |      [22]: "1955-04-24T10:00:00Z" (-463586400) transition_time 0x84-0x88 (4)
0x080|                        e5 29 34 90            |        .)4.    |      [23]: "1955-09-25T09:00:00Z" (-450284400) transition_time 0x88-0x8c (4)
0x080|                                    e6 47 58 20|            .GX |      [24]: "1956-04-29T10:00:00Z" (-431532000) transition_time 0x8c-0x90 (4)
0x090|e7 12 51 10                                    |..Q.            |      [25]: "1956-09-30T09:00:00Z" (-418230000) transition_time 0x90-0x94 (4)
0x090|            e8 27 3a 20                        |    .':         |      [26]: "1957-04-28T10:00:00Z" (-400082400) transition_time 0x94-0x98 (4)
0x090|                        e8 f2 33 10            |        ..3.    |      [27]: "1957-09-29T09:00:00Z" (-386780400) transition_time 0x98-0x9c (4)
0x090|                                    ea 07 1c 20|            ... |      [28]: "1958-04-27T10:00:00Z" (-368632800) transition_time 0x9c-0xa0 (4)
0x0a0|ea d2 15 10                                    |....            |      [29]: "1958-09-28T09:00:00Z" (-355330800) transition_time 0xa0-0xa4 (4)
0x0a0|            eb e6 fe 20                        |    ...         |      [30]: "1959-04-26T10:00:00Z" (-337183200) transition_time 0xa4-0xa8 (4)
0x0a0|                        ec b1 f7 10            |        ....    |      [31]: "1959-09-27T09:00:00Z" (-323881200) transition_time 0xa8-0xac (4)
0x0a0|                                    ed c6 e0 20|            ... |      [32]: "1960-04-24T10:00:00Z" (-305733600) transition_time 0xac-0xb0 (4)
0x0b0|ee 91 d9 10                                    |....            |      [33]: "1960-09-25T09:00:00Z" (-292431600) transition_time 0xb0-0xb4 (4)
0x0b0|            ef af fc a0                        |    ....        |      [34]: "1961-04-30T10:00:00Z" (-273679200) transition_time 0xb4-0xb8 (4)
0x0b0|                        f0 71 bb 10            |        .q..    |      [35]: "1961-09-24T09:00:00Z" (-260982000) transition_time 0xb8-0xbc (4)
0x0b0|                                    f1 8f de a0|            ....|      [36]: "1962-04-29T10:00:00Z" (-242229600) transition_time 0xbc-0xc0 (4)
0x0c0|f2 7f c1 90                                    |....            |      [37]: "1962-10-28T09:00:00Z" (-226508400) transition_time 0xc0-0xc4 (4)
0x0c0|            f3 6f c0 a0                        |    .o..        |      [38]: "1963-04-28T10:00:00Z" (-210780000) transition_time 0xc4-0xc8 (4)
0x0c0|                        f4 5f a3 90            |        ._..    |      [39]: "1963-10-27T09:00:00Z" (-195058800) transition_time 0xc8-0xcc (4)
0x0c0|                                    f5 4f a2 a0|            .O..|      [40]: "1964-04-26T10:00:00Z" (-179330400) transition_time 0xcc-0xd0 (4)
0x0d0|f6 3f 85 90                                    |.?..            |      [41]: "1964-10-25T09:00:00Z" (-163609200) transition_time 0xd0-0xd4 (4)
0x0d0|            f7 2f 84 a0                        |    ./..        |      [42]: "1965-04-25T10:00:00Z" (-147880800) transition_time 0xd4-0xd8 (4)
0x0d0|                        f8 28 a2 10            |        .(..    |      [43]: "1965-10-31T09:00:00Z" (-131554800) transition_time 0xd8-0xdc (4)
0x0d0|                                    f9 0f 66 a0|            ..f.|      [44]: "1966-04-24T10:00:00Z" (-116431200) transition_time 0xdc-0xe0 (4)
0x0e0|fa 08 84 10                                    |....            |      [45]: "1966-10-30T09:00:00Z" (-100105200) transition_time 0xe0-0xe4 (4)
0x0e0|            fa f8 83 20                        |    ...         |      [46]: "1967-04-30T10:00:00Z" (-84376800) transition_time 0xe4-0xe8 (4)
0x0e0|                        fb e8 66 10            |        ..f.    |      [47]: "1967-10-29T09:00:00Z" (-68655600) transition_time 0xe8-0xec (4)
0x0e0|                                    fc d8 65 20|            ..e |      [48]: "1968-04-28T10:00:00Z" (-52927200) transition_time 0xec-0xf0 (4)
0x0f0|fd c8 48 10                                    |..H.            |      [49]: "1968-10-27T09:00:00Z" (-37206000) transition_time 0xf0-0xf4 (4)
0x0f0|            fe b8 47 20                        |    ..G         |      [50]: "1969-04-27T10:00:00Z" (-21477600) transition_time 0xf4-0xf8 (4)
0x0f0|                        ff a8 2a 10            |        ..*.    |      [51]: "1969-10-26T09:00:00Z" (-5756400) transition_time 0xf8-0xfc (4)
0x0f0|                                    00 98 29 20|            ..) |      [52]: "1970-04-26T10:00:00Z" (9972000) transition_time 0xfc-0x100 (4)
0x100|01 88 0c 10                                    |....            |      [53]: "1970-10-25T09:00:00Z" (25693200) transition_time 0x100-0x104 (4)
0x100|            02 78 0b 20                        |    .x.         |      [54]: "1971-04-25T10:00:00Z" (41421600) transition_time 0x104-0x108 (4)
0x100|                        03 71 28 90            |        .q(.    |      [55]: "1971-10-31T09:00:00Z" (57747600) transition_time 0x108-0x10c (4)
0x100|                                    04 61 27 a0|            .a'.|      [56]: "1972-04-30T10:00:00Z" (73476000) transition_time 0x10c-0x110 (4)
0x110|05 51 0a 91                                    |.Q..            |      [57]: "1972-10-29T09:00:01Z" (89197201) transition_time 0x110-0x114 (4)
0x110|            06 41 09 a2                        |    .A..        |      [58]: "1973-04-29T10:00:02Z" (104925602) transition_time 0x114-0x118 (4)
0x110|                        07 30 ec 92            |        .0..    |      [59]: "1973-10-28T09:00:02Z" (120646802) transition_time 0x118-0x11c (4)
0x110|                                    08 20 eb a3|            . ..|      [60]: "1974-04-28T10:00:03Z" (136375203) transition_time 0x11c-0x120 (4)
0x120|09 10 ce 93                                    |....            |      [61]: "1974-10-27T09:00:03Z" (152096403) transition_time 0x120-0x124 (4)
0x120|            0a 00 cd a4                        |    ....        |      [62]: "1975-04-27T10:00:04Z" (167824804) transition_time 0x124-0x128 (4)
0x120|                        0a f0 b0 94            |        ....    |      [63]: "1975-10-26T09:00:04Z" (183546004) transition_time 0x128-0x12c (4)
0x120|                                    0b e0 af a5|            ....|      [64]: "1976-04-25T10:00:05Z" (199274405) transition_time 0x12c-0x130 (4)
0x130|0c d9 cd 15                                    |....            |      [65]: "1976-10-31T09:00:05Z" (215600405) transition_time 0x130-0x134 (4)
0x130|            0d c0 91 a6                        |    ....        |      [66]: "1977-04-24T10:00:06Z" (230724006) transition_time 0x134-0x138 (4)
0x130|                        0e b9 af 16            |        ....    |      [67]: "1977-10-30T09:00:06Z" (247050006) transition_time 0x138-0x13c (4)
0x130|                                    0f a9 ae 27|            ...'|      [68]: "1978-04-30T10:00:07Z" (262778407) transition_time 0x13c-0x140 (4)
0x140|10 99 91 17                                    |....            |      [69]: "1978-10-29T09:00:07Z" (278499607) transition_time 0x140-0x144 (4)
0x140|            11 89 90 28                        |    ...(        |      [70]: "1979-04-29T10:00:08Z" (294228008) transition_time 0x144-0x148 (4)
0x140|                        12 79 73 18            |        .ys.    |      [71]: "1979-10-28T09:00:08Z" (309949208) transition_time 0x148-0x14c (4)
0x140|                                    13 69 72 29|            .ir)|      [72]: "1980-04-27T10:00:09Z" (325677609) transition_time 0x14c-0x150 (4)
0x150|14 59 55 19                                    |.YU.            |      [73]: "1980-10-26T09:00:09Z" (341398809) transition_time 0x150-0x154 (4)
0x150|            15 49 54 29                        |    .IT)        |      [74]: "1981-04-26T10:00:09Z" (357127209) transition_time 0x154-0x158 (4)
0x150|                        16 39 37 1a            |        .97.    |      [75]: "1981-10-25T09:00:10Z" (372848410) transition_time 0x158-0x15c (4)
0x150|                                    17 29 36 2a|            .)6*|      [76]: "1982-04-25T10:00:10Z" (388576810) transition_time 0x15c-0x160 (4)
0x160|18 22 53 9b                                    |."S.            |      [77]: "1982-10-31T09:00:11Z" (404902811) transition_time 0x160-0x164 (4)
0x160|            19 09 18 2b                        |    ...+        |      [78]: "1983-04-24T10:00:11Z" (420026411) transition_time 0x164-0x168 (4)
0x160|                        1a 02 35 9c            |        ..5.    |      [79]: "1983-10-30T09:00:12Z" (436352412) transition_time 0x168-0x16c (4)
0x160|                                    1a f2 34 ac|            ..4.|      [80]: "1984-04-29T10:00:12Z" (452080812) transition_time 0x16c-0x170 (4)
0x170|1b e2 17 9c                                    |....            |      [81]: "1984-10-28T09:00:12Z" (467802012) transition_time 0x170-0x174 (4)
0x170|            1c d2 16 ac                        |    ....        |      [82]: "1985-04-28T10:00:12Z" (483530412) transition_time 0x174-0x178 (4)
0x170|                        1d c1 f9 9d            |        ....    |      [83]: "1985-10-27T09:00:13Z" (499251613) transition_time 0x178-0x17c (4)
0x170|                                    1e b1 f8 ad|            ....|      [84]: "1986-04-27T10:00:13Z" (514980013) transition_time 0x17c-0x180 (4)
0x180|1f a1 db 9d                                    |....            |      [85]: "1986-10-26T09:00:13Z" (530701213) transition_time 0x180-0x184 (4)
0x180|            20 76 2b 2d                        |     v+-        |      [86]: "1987-04-05T10:00:13Z" (544615213) transition_time 0x184-0x188 (4)
0x180|                        21 81 bd 9d            |        !...    |      [87]: "1987-10-25T09:00:13Z" (562150813) transition_time 0x188-0x18c (4)
0x180|                                    22 56 0d 2e|            "V..|      [88]: "1988-04-03T10:00:14Z" (576064814) transition_time 0x18c-0x190 (4)
0x190|23 6a da 1e                                    |#j..            |      [89]: "1988-10-30T09:00:14Z" (594205214) transition_time 0x190-0x194 (4)
0x190|            24 35 ef 2e                        |    $5..        |      [90]: "1989-04-02T10:00:14Z" (607514414) transition_time 0x194-0x198 (4)
0x190|                        25 4a bc 1e            |        %J..    |      [91]: "1989-10-29T09:00:14Z" (625654814) transition_time 0x198-0x19c (4)
0x190|                                    26 15 d1 2f|            &../|      [92]: "1990-04-01T10:00:15Z" (638964015) transition_time 0x19c-0x1a0 (4)
0x1a0|27 2a 9e 1f                                    |'*..            |      [93]: "1990-10-28T09:00:15Z" (657104415) transition_time 0x1a0-0x1a4 (4)
0x1a0|            27 fe ed b0                        |    '...        |      [94]: "1991-04-07T10:00:16Z" (671018416) transition_time 0x1a4-0x1a8 (4)
0x1a0|                        29 0a 80 20            |        )..     |      [95]: "1991-10-27T09:00:16Z" (688554016) transition_time 0x1a8-0x1ac (4)
0x1a0|                                    29 de cf b0|            )...|      [96]: "1992-04-05T10:00:16Z" (702468016) transition_time 0x1ac-0x1b0 (4)
0x1b0|2a ea 62 21                                    |*.b!            |      [97]: "1992-10-25T09:00:17Z" (720003617) transition_time 0x1b0-0x1b4 (4)
0x1b0|            2b be b1 b1                        |    +...        |      [98]: "1993-04-04T10:00:17Z" (733917617) transition_time 0x1b4-0x1b8 (4)
0x1b0|                        2c d3 7e a2            |        ,.~.    |      [99]: "1993-10-31T09:00:18Z" (752058018) transition_time 0x1b8-0x1bc (4)
0x1b0|                                    2d 9e 93 b2|            -...|      [100]: "1994-04-03T10:00:18Z" (765367218) transition_time 0x1bc-0x1c0 (4)
0x1c0|2e b3 60 a3                                    |..`.            |      [101]: "1994-10-30T09:00:19Z" (783507619) transition_time 0x1c0-0x1c4 (4)
0x1c0|            2f 7e 75 b3                        |    /~u.        |      [102]: "1995-04-02T10:00:19Z" (796816819) transition_time 0x1c4-0x1c8 (4)
0x1c0|                        30 93 42 a3            |        0.B.    |      [103]: "1995-10-29T09:00:19Z" (814957219) transition_time 0x1c8-0x1cc (4)
0x1c0|                                    31 67 92 34|            1g.4|      [104]: "1996-04-07T10:00:20Z" (828871220) transition_time 0x1cc-0x1d0 (4)
0x1d0|32 73 24 a4                                    |2s$.            |      [105]: "1996-10-27T09:00:20Z" (846406820) transition_time 0x1d0-0x1d4 (4)
0x1d0|            33 47 74 34                        |    3Gt4        |      [106]: "1997-04-06T10:00:20Z" (860320820) transition_time 0x1d4-0x1d8 (4)
0x1d0|                        34 53 06 a5            |        4S..    |      [107]: "1997-10-26T09:00:21Z" (877856421) transition_time 0x1d8-0x1dc (4)
0x1d0|                                    35 27 56 35|            5'V5|      [108]: "1998-04-05T10:00:21Z" (891770421) transition_time 0x1dc-0x1e0 (4)
0x1e0|36 32 e8 a5                                    |62..            |      [109]: "1998-10-25T09:00:21Z" (909306021) transition_time 0x1e0-0x1e4 (4)
0x1e0|            37 07 38 36                        |    7.86        |      [110]: "1999-04-04T10:00:22Z" (923220022) transition_time 0x1e4-0x1e8 (4)
0x1e0|                        38 1c 05 26            |        8..&    |      [111]: "1999-10-31T09:00:22Z" (941360422) transition_time 0x1e8-0x1ec (4)
0x1e0|                                    38 e7 1a 36|            8..6|      [112]: "2000-04-02T10:00:22Z" (954669622) transition_time 0x1ec-0x1f0 (4)
0x1f0|39 fb e7 26                                    |9..&            |      [113]: "2000-10-29T09:00:22Z" (972810022) transition_time 0x1f0-0x1f4 (4)
0x1f0|            3a c6 fc 36                        |    :..6        |      [114]: "2001-04-01T10:00:22Z" (986119222) transition_time 0x1f4-0x1f8 (4)
0x1f0|                        3b db c9 26            |        ;..&    |      [115]: "2001-10-28T09:00:22Z" (1004259622) transition_time 0x1f8-0x1fc (4)
0x1f0|                                    3c b0 18 b6|            <...|      [116]: "2002-04-07T10:00:22Z" (1018173622) transition_time 0x1fc-0x200 (4)
0x200|3d bb ab 26                                    |=..&            |      [117]: "2002-10-27T09:00:22Z" (1035709222) transition_time 0x200-0x204 (4)
0x200|            3e 8f fa b6                        |    >...        |      [118]: "2003-04-06T10:00:22Z" (1049623222) transition_time 0x204-0x208 (4)
0x200|                        3f 9b 8d 26            |        ?..&    |      [119]: "2003-10-26T09:00:22Z" (1067158822) transition_time 0x208-0x20c (4)
0x200|                                    40 6f dc b6|            @o..|      [120]: "2004-04-04T10:00:22Z" (1081072822) transition_time 0x20c-0x210 (4)
0x210|41 84 a9 a6                                    |A...            |      [121]: "2004-10-31T09:00:22Z" (1099213222) transition_time 0x210-0x214 (4)
0x210|            42 4f be b6                        |    BO..        |      [122]: "2005-04-03T10:00:22Z" (1112522422) transition_time 0x214-0x218 (4)
0x210|                        43 64 8b a6            |        Cd..    |      [123]: "2005-10-30T09:00:22Z" (1130662822) transition_time 0x218-0x21c (4)
0x210|                                    44 2f a0 b7|            D/..|      [124]: "2006-04-02T10:00:23Z" (1143972023) transition_time 0x21c-0x220 (4)
0x220|45 44 6d a7                                    |EDm.            |      [125]: "2006-10-29T09:00:23Z" (1162112423) transition_time 0x220-0x224 (4)
0x220|            45 f3 d3 37                        |    E..7        |      [126]: "2007-03-11T10:00:23Z" (1173607223) transition_time 0x224-0x228 (4)
0x220|                        47 2d 8a 27            |        G-.'    |      [127]: "2007-11-04T09:00:23Z" (1194166823) transition_time 0x228-0x22c (4)
0x220|                                    47 d3 b5 37|            G..7|      [128]: "2008-03-09T10:00:23Z" (1205056823) transition_time 0x22c-0x230 (4)
0x230|49 0d 6c 27                                    |I.l'            |      [129]: "2008-11-02T09:00:23Z" (1225616423) transition_time 0x230-0x234 (4)
0x230|            49 b3 97 38                        |    I..8        |      [130]: "2009-03-08T10:00:24Z" (1236506424) transition_time 0x234-0x238 (4)
0x230|                        4a ed 4e 28            |        J.N(    |      [131]: "2009-11-01T09:00:24Z" (1257066024) transition_time 0x238-0x23c (4)
0x230|                                    4b 9c b3 b8|            K...|      [132]: "2010-03-14T10:00:24Z" (1268560824) transition_time 0x23c-0x240 (4)
0x240|4c d6 6a a8                                    |L.j.            |      [133]: "2010-11-07T09:00:24Z" (1289120424) transition_time 0x240-0x244 (4)
0x240|            4d 7c 95 b8                        |    M|..        |      [134]: "2011-03-13T10:00:24Z" (1300010424) transition_time 0x244-0x248 (4)
0x240|                        4e b6 4c a8            |        N.L.    |      [135]: "2011-11-06T09:00:24Z" (1320570024) transition_time 0x248-0x24c (4)
0x240|                                    4f 5c 77 b8|            O\w.|      [136]: "2012-03-11T10:00:24Z" (1331460024) transition_time 0x24c-0x250 (4)
0x250|50 96 2e a9                                    |P...            |      [137]: "2012-11-04T09:00:25Z" (1352019625) transition_time 0x250-0x254 (4)
0x250|            51 3c 59 b9                        |    Q<Y.        |      [138]: "2013-03-10T10:00:25Z" (1362909625) transition_time 0x254-0x258 (4)
0x250|                        52 76 10 a9            |        Rv..    |      [139]: "2013-11-03T09:00:25Z" (1383469225) transition_time 0x258-0x25c (4)
0x250|                                    53 1c 3b b9|            S.;.|      [140]: "2014-03-09T10:00:25Z" (1394359225) transition_time 0x25c-0x260 (4)
0x260|54 55 f2 a9                                    |TU..            |      [141]: "2014-11-02T09:00:25Z" (1414918825) transition_time 0x260-0x264 (4)
0x260|            54 fc 1d b9                        |    T...        |      [142]: "2015-03-08T10:00:25Z" (1425808825) transition_time 0x264-0x268 (4)
0x260|                        64 9b 78 1b            |        d.x.    |      [143]: "2023-06-28T00:00:27Z" (1687910427) transition_time 0x268-0x26c (4)
     |                                               |                |    transition_types[0:144]: 0x26c-0x2fc (144)
0x260|                                    02         |            .   |      [0]: 2 transition_type 0x26c-0x26d (1)
0x260|                                       01      |             .  |      [1]: 1 transition_type 0x26d-0x26e (1)
0x260|                                          02   |              . |      [2]: 2 transition_type 0x26e-0x26f (1)
0x260|                                             03|               .|      [3]: 3 transition_type 0x26f-0x270 (1)
0x270|04                                             |.               |      [4]: 4 transition_type 0x270-0x271 (1)
0x270|   02                                          | .              |      [5]: 2 transition_type 0x271-0x272 (1)
0x270|      01                                       |  .             |      [6]: 1 transition_type 0x272-0x273 (1)
0x270|         02                                    |   .            |      [7]: 2 transition_type 0x273-0x274 (1)
0x270|            01                                 |    .           |      [8]: 1 transition_type 0x274-0x275 (1)
0x270|               02                              |     .          |      [9]: 2 transition_type 0x275-0x276 (1)
0x270|                  01                           |      .         |      [10]: 1 transition_type 0x276-0x277 (1)
0x270|                     02                        |       .        |      [11]: 2 transition_type 0x277-0x278 (1)
0x270|                        01                     |        .       |      [12]: 1 transition_type 0x278-0x279 (1)
0x270|                           02                  |         .      |      [13]: 2 transition_type 0x279-0x27a (1)
0x270|                              01               |          .     |      [14]: 1 transition_type 0x27a-0x27b (1)
0x270|                                 02            |           .    |      [15]: 2 transition_type 0x27b-0x27c (1)
0x270|                                    01         |            .   |      [16]: 1 transition_type 0x27c-0x27d (1)
0x270|                                       02      |             .  |      [17]: 2 transition_type 0x27d-0x27e (1)
0x270|                                          01   |              . |      [18]: 1 transition_type 0x27e-0x27f (1)
0x270|                                             02|               .|      [19]: 2 transition_type 0x27f-0x280 (1)
0x280|01                                             |.               |      [20]: 1 transition_type 0x280-0x281 (1)
0x280|   02                                          | .              |      [21]: 2 transition_type 0x281-0x282 (1)
0x280|      01                                       |  .             |      [22]: 1 transition_type 0x282-0x283 (1)
0x280|         02                                    |   .            |      [23]: 2 transition_type 0x283-0x284 (1)
0x280|            01                                 |    .           |      [24]: 1 transition_type 0x284-0x285 (1)
0x280|               02                              |     .          |      [25]: 2 transition_type 0x285-0x286 (1)
0x280|                  01                           |      .         |      [26]: 1 transition_type 0x286-0x287 (1)
0x280|                     02                        |       .        |      [27]: 2 transition_type 0x287-0x288 (1)
0x280|                        01                     |        .       |      [28]: 1 transition_type 0x288-0x289 (1)
0x280|                           02                  |         .      |      [29]: 2 transition_type 0x289-0x28a (1)
0x280|                              01               |          .     |      [30]: 1 transition_type 0x28a-0x28b (1)
0x280|                                 02            |           .    |      [31]: 2 transition_type 0x28b-0x28c (1)
0x280|                                    01         |            .   |      [32]: 1 transition_type 0x28c-0x28d (1)
0x280|                                       02      |             .  |      [33]: 2 transition_type 0x28d-0x28e (1)
0x280|                                          01   |              . |      [34]: 1 transition_type 0x28e-0x28f (1)
0x280|                                             02|               .|      [35]: 2 transition_type 0x28f-0x290 (1)
0x290|01                                             |.               |      [36]: 1 transition_type 0x290-0x291 (1)
0x290|   02                                          | .              |      [37]: 2 transition_type 0x291-0x292 (1)
0x290|      01                                       |  .             |      [38]: 1 transition_type 0x292-0x293 (1)
0x290|         02                                    |   .            |      [39]: 2 transition_type 0x293-0x294 (1)
0x290|            01                                 |    .           |      [40]: 1 transition_type 0x294-0x295 (1)
0x290|               02                              |     .          |      [41]: 2 transition_type 0x295-0x296 (1)
0x290|                  01                           |      .         |      [42]: 1 transition_type 0x296-0x297 (1)
0x290|                     02                        |       .        |      [43]: 2 transition_type 0x297-0x298 (1)
0x290|                        01                     |        .       |      [44]: 1 transition_type 0x298-0x299 (1)
0x290|                           02                  |         .      |      [45]: 2 transition_type 0x299-0x29a (1)
0x290|                              01               |          .     |      [46]: 1 transition_type 0x29a-0x29b (1)
0x290|                                 02            |           .    |      [47]: 2 transition_type 0x29b-0x29c (1)
0x290|                                    01         |            .   |      [48]: 1 transition_type 0x29c-0x29d (1)
0x290|                                       02      |             .  |      [49]: 2 transition_type 0x29d-0x29e (1)
0x290|                                          01   |              . |      [50]: 1 transition_type 0x29e-0x29f (1)
0x290|                                             02|               .|      [51]: 2 transition_type 0x29f-0x2a0 (1)
0x2a0|01                                             |.               |      [52]: 1 transition_type 0x2a0-0x2a1 (1)
0x2a0|   02                                          | .              |      [53]: 2 transition_type 0x2a1-0x2a2 (1)
0x2a0|      01                                       |  .             |      [54]: 1 transition_type 0x2a2-0x2a3 (1)
0x2a0|         02                                    |   .            |      [55]: 2 transition_type 0x2a3-0x2a4 (1)
0x2a0|            01                                 |    .           |      [56]: 1 transition_type 0x2a4-0x2a5 (1)
0x2a0|               02                              |     .          |      [57]: 2 transition_type 0x2a5-0x2a6 (1)
0x2a0|                  01                           |      .         |      [58]: 1 transition_type 0x2a6-0x2a7 (1)
0x2a0|                     02                        |       .        |      [59]: 2 transition_type 0x2a7-0x2a8 (1)
0x2a0|                        01                     |        .       |      [60]: 1 transition_type 0x2a8-0x2a9 (1)
0x2a0|                           02                  |         .      |      [61]: 2 transition_type 0x2a9-0x2aa (1)
0x2a0|                              01               |          .     |      [62]: 1 transition_type 0x2aa-0x2ab (1)
0x2a0|                                 02            |           .    |      [63]: 2 transition_type 0x2ab-0x2ac (1)
0x2a0|                                    01         |            .   |      [64]: 1 transition_type 0x2ac-0x2ad (1)
0x2a0|                                       02      |             .  |      [65]: 2 transition_type 0x2ad-0x2ae (1)
0x2a0|                                          01   |              . |      [66]: 1 transition_type 0x2ae-0x2af (1)
0x2a0|                                             02|               .|      [67]: 2 transition_type 0x2af-0x2b0 (1)
0x2b0|01                                             |.               |      [68]: 1 transition_type 0x2b0-0x2b1 (1)
0x2b0|   02                                          | .              |      [69]: 2 transition_type 0x2b1-0x2b2 (1)
0x2b0|      01                                       |  .             |      [70]: 1 transition_type 0x2b2-0x2b3 (1)
0x2b0|         02                                    |   .            |      [71]: 2 transition_type 0x2b3-0x2b4 (1)
0x2b0|            01                                 |    .           |      [72]: 1 transition_type 0x2b4-0x2b5 (1)
0x2b0|               02                              |     .          |      [73]: 2 transition_type 0x2b5-0x2b6 (1)
0x2b0|                  01                           |      .         |      [74]: 1 transition_type 0x2b6-0x2b7 (1)
0x2b0|                     02                        |       .        |      [75]: 2 transition_type 0x2b7-0x2b8 (1)
0x2b0|                        01                     |        .       |      [76]: 1 transition_type 0x2b8-0x2b9 (1)
0x2b0|                           02                  |         .      |      [77]: 2 transition_type 0x2b9-0x2ba (1)
0x2b0|                              01               |          .     |      [78]: 1 transition_type 0x2ba-0x2bb (1)
0x2b0|                                 02            |           .    |      [79]: 2 transition_type 0x2bb-0x2bc (1)
0x2b0|                                    01         |            .   |      [80]: 1 transition_type 0x2bc-0x2bd (1)
0x2b0|                                       02      |             .  |      [81]: 2 transition_type 0x2bd-0x2be (1)
0x2b0|                                          01   |              . |      [82]: 1 transition_type 0x2be-0x2bf (1)
0x2b0|                                             02|               .|      [83]: 2 transition_type 0x2bf-0x2c0 (1)
0x2c0|01                                             |.               |      [84]: 1 transition_type 0x2c0-0x2c1 (1)
0x2c0|   02                                          | .              |      [85]: 2 transition_type 0x2c1-0x2c2 (1)
0x2c0|      01                                       |  .             |      [86]: 1 transition_type 0x2c2-0x2c3 (1)
0x2c0|         02                                    |   .            |      [87]: 2 transition_type 0x2c3-0x2c4 (1)
0x2c0|            01                                 |    .           |      [88]: 1 transition_type 0x2c4-0x2c5 (1)
0x2c0|               02                              |     .          |      [89]: 2 transition_type 0x2c5-0x2c6 (1)
0x2c0|                  01                           |      .         |      [90]: 1 transition_type 0x2c6-0x2c7 (1)
0x2c0|                     02                        |       .        |      [91]: 2 transition_type 0x2c7-0x2c8 (1)
0x2c0|                        01                     |        .       |      [92]: 1 transition_type 0x2c8-0x2c9 (1)
0x2c0|                           02                  |         .      |      [93]: 2 transition_type 0x2c9-0x2ca (1)
0x2c0|                              01               |          .     |      [94]: 1 transition_type 0x2ca-0x2cb (1)
0x2c0|                                 02            |           .    |      [95]: 2 transition_type 0x2cb-0x2cc (1)
0x2c0|                                    01         |            .   |      [96]: 1 transition_type 0x2cc-0x2cd (1)
0x2c0|                                       02      |             .  |      [97]: 2 transition_type 0x2cd-0x2ce (1)
0x2c0|                                          01   |              . |      [98]: 1 transition_type 0x2ce-0x2cf (1)
0x2c0|                                             02|               .|      [99]: 2 transition_type 0x2cf-0x2d0 (1)
0x2d0|01                                             |.               |      [100]: 1 transition_type 0x2d0-0x2d1 (1)
0x2d0|   02                                          | .              |      [101]: 2 transition_type 0x2d1-0x2d2 (1)
0x2d0|      01                                       |  .             |      [102]: 1 transition_type 0x2d2-0x2d3 (1)
0x2d0|         02                                    |   .            |      [103]: 2 transition_type 0x2d3-0x2d4 (1)
0x2d0|            01                                 |    .           |      [104]: 1 transition_type 0x2d4-0x2d5 (1)
0x2d0|               02                              |     .          |      [105]: 2 transition_type 0x2d5-0x2d6 (1)
0x2d0|                  01                           |      .         |      [106]: 1 transition_type 0x2d6-0x2d7 (1)
0x2d0|                     02                        |       .        |      [107]: 2 transition_type 0x2d7-0x2d8 (1)
0x2d0|                        01                     |        .       |      [108]: 1 transition_type 0x2d8-0x2d9 (1)
0x2d0|                           02                  |         .      |      [109]: 2 transition_type 0x2d9-0x2da (1)
0x2d0|                              01               |          .     |      [110]: 1 transition_type 0x2da-0x2db (1)
0x2d0|                                 02            |           .    |      [111]: 2 transition_type 0x2db-0x2dc (1)
0x2d0|                                    01         |            .   |      [112]: 1 transition_type 0x2dc-0x2dd (1)
0x2d0|                                       02      |             .  |      [113]: 2 transition_type 0x2dd-0x2de (1)
0x2d0|                                          01   |              . |      [114]: 1 transition_type 0x2de-0x2df (1)
0x2d0|                                             02|               .|      [115]: 2 transition_type 0x2df-0x2e0 (1)
0x2e0|01                                             |.               |      [116]: 1 transition_type 0x2e0-0x2e1 (1)
0x2e0|   02                                          | .              |      [117]: 2 transition_type 0x2e1-0x2e2 (1)
0x2e0|      01                                       |  .             |      [118]: 1 transition_type 0x2e2-0x2e3 (1)
0x2e0|         02                                    |   .            |      [119]: 2 transition_type 0x2e3-0x2e4 (1)
0x2e0|            01                                 |    .           |      [120]: 1 transition_type 0x2e4-0x2e5 (1)
0x2e0|               02                              |     .          |      [121]: 2 transition_type 0x2e5-0x2e6 (1)
0x2e0|                  01                           |      .         |      [122]: 1 transition_type 0x2e6-0x2e7 (1)
0x2e0|                     02                        |       .        |      [123]: 2 transition_type 0x2e7-0x2e8 (1)
0x2e0|                        01                     |        .       |      [124]: 1 transition_type 0x2e8-0x2e9 (1)
0x2e0|                           02                  |         .      |      [125]: 2 transition_type 0x2e9-0x2ea (1)
0x2e0|                              01               |          .     |      [126]: 1 transition_type 0x2ea-0x2eb (1)
0x2e0|                                 02            |           .    |      [127]: 2 transition_type 0x2eb-0x2ec (1)
0x2e0|                                    01         |            .   |      [128]: 1 transition_type 0x2ec-0x2ed (1)
0x2e0|                                       02      |             .  |      [129]: 2 transition_type 0x2ed-0x2ee (1)
0x2e0|                                          01   |              . |      [130]: 1 transition_type 0x2ee-0x2ef (1)
0x2e0|                                             02|               .|      [131]: 2 transition_type 0x2ef-0x2f0 (1)
0x2f0|01                                             |.               |      [132]: 1 transition_type 0x2f0-0x2f1 (1)
0x2f0|   02                                          | .              |      [133]: 2 transition_type 0x2f1-0x2f2 (1)
0x2f0|      01                                       |  .             |      [134]: 1 transition_type 0x2f2-0x2f3 (1)
0x2f0|         02                                    |   .            |      [135]: 2 transition_type 0x2f3-0x2f4 (1)
0x2f0|            01                                 |    .           |      [136]: 1 transition_type 0x2f4-0x2f5 (1)
0x2f0|               02                              |     .          |      [137]: 2 transition_type 0x2f5-0x2f6 (1)
0x2f0|                  01                           |      .         |      [138]: 1 transition_type 0x2f6-0x2f7 (1)
0x2f0|                     02                        |       .        |      [139]: 2 transition_type 0x2f7-0x2f8 (1)
0x2f0|                        01                     |        .       |      [140]: 1 transition_type 0x2f8-0x2f9 (1)
0x2f0|                           02                  |         .      |      [141]: 2 transition_type 0x2f9-0x2fa (1)
0x2f0|                              05               |          .     |      [142]: 5 transition_type 0x2fa-0x2fb (1)
0x2f0|                                 05            |           .    |      [143]: 5 transition_type 0x2fb-0x2fc (1)
     |                                               |                |    local_time_type_records[0:6]: 0x2fc-0x320 (36)
     |                                               |                |      [0]{}: local_time_type 0x2fc-0x302 (6)
0x2f0|                                    ff ff 8c f9|            ....|        utoff: -29447 (valid) 0x2fc-0x300 (4)
0x300|00                                             |.               |        dst: 0 (valid) 0x300-0x301 (1)
0x300|   00                                          | .              |        idx: 0 (valid) 0x301-0x302 (1)
     |                                               |                |      [1]{}: local_time_type 0x302-0x308 (6)
0x300|      ff ff 9d 90                              |  ....          |        utoff: -25200 (valid) 0x302-0x306 (4)
0x300|                  01                           |      .         |        dst: 1 (valid) 0x306-0x307 (1)
0x300|                     04                        |       .        |        idx: 4 (valid) 0x307-0x308 (1)
     |                                               |                |      [2]{}: local_time_type 0x308-0x30e (6)
0x300|                        ff ff 8f 80            |        ....    |        utoff: -28800 (valid) 0x308-0x30c (4)
0x300|                                    00         |            .   |        dst: 0 (valid) 0x30c-0x30d (1)
0x300|                                       08      |             .  |        idx: 8 (valid) 0x30d-0x30e (1)
     |                                               |                |      [3]{}: local_time_type 0x30e-0x314 (6)
0x300|                                          ff ff|              ..|        utoff: -25200 (valid) 0x30e-0x312 (4)
0x310|9d 90                                          |..              |
0x310|      01                                       |  .             |        dst: 1 (valid) 0x312-0x313 (1)
0x310|         0c                                    |   .            |        idx: 12 (valid) 0x313-0x314 (1)
     |                                               |                |      [4]{}: local_time_type 0x314-0x31a (6)
0x310|            ff ff 9d 90                        |    ....        |        utoff: -25200 (valid) 0x314-0x318 (4)
0x310|                        01                     |        .       |        dst: 1 (valid) 0x318-0x319 (1)
0x310|                           10                  |         .      |        idx: 16 (valid) 0x319-0x31a (1)
     |                                               |                |      [5]{}: local_time_type 0x31a-0x320 (6)
0x310|                              ff ff 9d 90      |          ....  |        utoff: -25200 (valid) 0x31a-0x31e (4)
0x310|                                          00   |              . |        dst: 0 (valid) 0x31e-0x31f (1)
0x310|                                             14|               .|        idx: 20 (valid) 0x31f-0x320 (1)
     |                                               |                |    time_zone_designations[0:6]: 0x320-0x338 (24)
0x320|4c 4d 54 00                                    |LMT.            |      [0]: "LMT" time_zone_designation 0x320-0x324 (4)
0x320|            50 44 54 00                        |    PDT.        |      [1]: "PDT" time_zone_designation 0x324-0x328 (4)
0x320|                        50 53 54 00            |        PST.    |      [2]: "PST" time_zone_designation 0x328-0x32c (4)
0x320|                                    50 57 54 00|            PWT.|      [3]: "PWT" time_zone_designation 0x32c-0x330 (4)
0x330|50 50 54 00                                    |PPT.            |      [4]: "PPT" time_zone_designation 0x330-0x334 (4)
0x330|            4d 53 54 00                        |    MST.        |      [5]: "MST" time_zone_designation 0x334-0x338 (4)
     |                                               |                |    leap_second_records[0:27]: 0x338-0x410 (216)
     |                                               |                |      [0]{}: leap_second_record 0x338-0x340 (8)
0x330|                        04 b2 58 00            |        ..X.    |        occur: "1972-07-01T00:00:00Z" (78796800) 0x338-0x33c (4)
0x330|                                    00 00 00 01|            ....|        corr: 1 0x33c-0x340 (4)
     |                                               |                |      [1]{}: leap_second_record 0x340-0x348 (8)
0x340|05 a4 ec 01                                    |....            |        occur: "1973-01-01T00:00:01Z" (94694401) 0x340-0x344 (4)
0x340|            00 00 00 02                        |    ....        |        corr: 2 0x344-0x348 (4)
     |                                               |                |      [2]{}: leap_second_record 0x348-0x350 (8)
0x340|                        07 86 1f 82            |        ....    |        occur: "1974-01-01T00:00:02Z" (126230402) 0x348-0x34c (4)
0x340|                                    00 00 00 03|            ....|        corr: 3 0x34c-0x350 (4)
     |                                               |                |      [3]{}: leap_second_record 0x350-0x358 (8)
0x350|09 67 53 03                                    |.gS.            |        occur: "1975-01-01T00:00:03Z" (157766403) 0x350-0x354 (4)
0x350|            00 00 00 04                        |    ....        |        corr: 4 0x354-0x358 (4)
     |                                               |                |      [4]{}: leap_second_record 0x358-0x360 (8)
0x350|                        0b 48 86 84            |        .H..    |        occur: "1976-01-01T00:00:04Z" (189302404) 0x358-0x35c (4)
0x350|                                    00 00 00 05|            ....|        corr: 5 0x35c-0x360 (4)
     |                                               |                |      [5]{}: leap_second_record 0x360-0x368 (8)
0x360|0d 2b 0b 85                                    |.+..            |        occur: "1977-01-01T00:00:05Z" (220924805) 0x360-0x364 (4)
0x360|            00 00 00 06                        |    ....        |        corr: 6 0x364-0x368 (4)
     |                                               |                |      [6]{}: leap_second_record 0x368-0x370 (8)
0x360|                        0f 0c 3f 06            |        ..?.    |        occur: "1978-01-01T00:00:06Z" (252460806) 0x368-0x36c (4)
0x360|                                    00 00 00 07|            ....|        corr: 7 0x36c-0x370 (4)
     |                                               |                |      [7]{}: leap_second_record 0x370-0x378 (8)
0x370|10 ed 72 87                                    |..r.            |        occur: "1979-01-01T00:00:07Z" (283996807) 0x370-0x374 (4)
0x370|            00 00 00 08                        |    ....        |        corr: 8 0x374-0x378 (4)
     |                                               |                |      [8]{}: leap_second_record 0x378-0x380 (8)
0x370|                        12 ce a6 08            |        ....    |        occur: "1980-01-01T00:00:08Z" (315532808) 0x378-0x37c (4)
0x370|                                    00 00 00 09|            ....|        corr: 9 0x37c-0x380 (4)
     |                                               |                |      [9]{}: leap_second_record 0x380-0x388 (8)
0x380|15 9f ca 89                                    |....            |        occur: "1981-07-01T00:00:09Z" (362793609) 0x380-0x384 (4)
0x380|            00 00 00 0a                        |    ....        |        corr: 10 0x384-0x388 (4)
     |                                               |                |      [10]{}: leap_second_record 0x388-0x390 (8)
0x380|                        17 80 fe 0a            |        ....    |        occur: "1982-07-01T00:00:10Z" (394329610) 0x388-0x38c (4)
0x380|                                    00 00 00 0b|            ....|        corr: 11 0x38c-0x390 (4)
     |                                               |                |      [11]{}: leap_second_record 0x390-0x398 (8)
0x390|19 62 31 8b                                    |.b1.            |        occur: "1983-07-01T00:00:11Z" (425865611) 0x390-0x394 (4)
0x390|            00 00 00 0c                        |    ....        |        corr: 12 0x394-0x398 (4)
     |                                               |                |      [12]{}: leap_second_record 0x398-0x3a0 (8)
0x390|                        1d 25 ea 0c            |        .%..    |        occur: "1985-07-01T00:00:12Z" (489024012) 0x398-0x39c (4)
0x390|                                    00 00 00 0d|            ....|        corr: 13 0x39c-0x3a0 (4)
     |                                               |                |      [13]{}: leap_second_record 0x3a0-0x3a8 (8)
0x3a0|21 da e5 0d                                    |!...            |        occur: "1988-01-01T00:00:13Z" (567993613) 0x3a0-0x3a4 (4)
0x3a0|            00 00 00 0e                        |    ....        |        corr: 14 0x3a4-0x3a8 (4)
     |                                               |                |      [14]{}: leap_second_record 0x3a8-0x3b0 (8)
0x3a0|                        25 9e 9d 8e            |        %...    |        occur: "1990-01-01T00:00:14Z" (631152014) 0x3a8-0x3ac (4)
0x3a0|                                    00 00 00 0f|            ....|        corr: 15 0x3ac-0x3b0 (4)
     |                                               |                |      [15]{}: leap_second_record 0x3b0-0x3b8 (8)
0x3b0|27 7f d1 0f                                    |'...            |        occur: "1991-01-01T00:00:15Z" (662688015) 0x3b0-0x3b4 (4)
0x3b0|            00 00 00 10                        |    ....        |        corr: 16 0x3b4-0x3b8 (4)
     |                                               |                |      [16]{}: leap_second_record 0x3b8-0x3c0 (8)
0x3b0|                        2a 50 f5 90            |        *P..    |        occur: "1992-07-01T00:00:16Z" (709948816) 0x3b8-0x3bc (4)
0x3b0|                                    00 00 00 11|            ....|        corr: 17 0x3bc-0x3c0 (4)
     |                                               |                |      [17]{}: leap_second_record 0x3c0-0x3c8 (8)
0x3c0|2c 32 29 11                                    |,2).            |        occur: "1993-07-01T00:00:17Z" (741484817) 0x3c0-0x3c4 (4)
0x3c0|            00 00 00 12                        |    ....        |        corr: 18 0x3c4-0x3c8 (4)
     |                                               |                |      [18]{}: leap_second_record 0x3c8-0x3d0 (8)
0x3c0|                        2e 13 5c 92            |        ..\.    |        occur: "1994-07-01T00:00:18Z" (773020818) 0x3c8-0x3cc (4)
0x3c0|                                    00 00 00 13|            ....|        corr: 19 0x3cc-0x3d0 (4)
     |                                               |                |      [19]{}: leap_second_record 0x3d0-0x3d8 (8)
0x3d0|30 e7 24 13                                    |0.$.            |        occur: "1996-01-01T00:00:19Z" (820454419) 0x3d0-0x3d4 (4)
0x3d0|            00 00 00 14                        |    ....        |        corr: 20 0x3d4-0x3d8 (4)
     |                                               |                |      [20]{}: leap_second_record 0x3d8-0x3e0 (8)
0x3d0|                        33 b8 48 94            |        3.H.    |        occur: "1997-07-01T00:00:20Z" (867715220) 0x3d8-0x3dc (4)
0x3d0|                                    00 00 00 15|            ....|        corr: 21 0x3dc-0x3e0 (4)
     |                                               |                |      [21]{}: leap_second_record 0x3e0-0x3e8 (8)
0x3e0|36 8c 10 15                                    |6...            |        occur: "1999-01-01T00:00:21Z" (915148821) 0x3e0-0x3e4 (4)
0x3e0|            00 00 00 16                        |    ....        |        corr: 22 0x3e4-0x3e8 (4)
     |                                               |                |      [22]{}: leap_second_record 0x3e8-0x3f0 (8)
0x3e0|                        43 b7 1b 96            |        C...    |        occur: "2006-01-01T00:00:22Z" (1136073622) 0x3e8-0x3ec (4)
0x3e0|                                    00 00 00 17|            ....|        corr: 23 0x3ec-0x3f0 (4)
     |                                               |                |      [23]{}: leap_second_record 0x3f0-0x3f8 (8)
0x3f0|49 5c 07 97                                    |I\..            |        occur: "2009-01-01T00:00:23Z" (1230768023) 0x3f0-0x3f4 (4)
0x3f0|            00 00 00 18                        |    ....        |        corr: 24 0x3f4-0x3f8 (4)
     |                                               |                |      [24]{}: leap_second_record 0x3f8-0x400 (8)
0x3f0|                        4f ef 93 18            |        O...    |        occur: "2012-07-01T00:00:24Z" (1341100824) 0x3f8-0x3fc (4)
0x3f0|                                    00 00 00 19|            ....|        corr: 25 0x3fc-0x400 (4)
     |                                               |                |      [25]{}: leap_second_record 0x400-0x408 (8)
0x400|55 93 2d 99                                    |U.-.            |        occur: "2015-07-01T00:00:25Z" (1435708825) 0x400-0x404 (4)
0x400|            00 00 00 1a                        |    ....        |        corr: 26 0x404-0x408 (4)
     |                                               |                |      [26]{}: leap_second_record 0x408-0x410 (8)
0x400|                        58 68 46 9a            |        XhF.    |        occur: "2017-01-01T00:00:26Z" (1483228826) 0x408-0x40c (4)
0x400|                                    00 00 00 1b|            ....|        corr: 27 0x40c-0x410 (4)
     |                                               |                |    standard_wall_indicators[0:6]: 0x410-0x416 (6)
0x410|00                                             |.               |      [0]: 0 standard_wall_indicator (valid) 0x410-0x411 (1)
0x410|   00                                          | .              |      [1]: 0 standard_wall_indicator (valid) 0x411-0x412 (1)
0x410|      00                                       |  .             |      [2]: 0 standard_wall_indicator (valid) 0x412-0x413 (1)
0x410|         00                                    |   .            |      [3]: 0 standard_wall_indicator (valid) 0x413-0x414 (1)
0x410|            01                                 |    .           |      [4]: 1 standard_wall_indicator (valid) 0x414-0x415 (1)
0x410|               00                              |     .          |      [5]: 0 standard_wall_indicator (valid) 0x415-0x416 (1)
     |                                               |                |    ut_local_indicators[0:6]: 0x416-0x41c (6)
0x410|                  00                           |      .         |      [0]: 0 ut_local_indicator (valid) 0x416-0x417 (1)
0x410|                     00                        |       .        |      [1]: 0 ut_local_indicator (valid) 0x417-0x418 (1)
0x410|                        00                     |        .       |      [2]: 0 ut_local_indicator (valid) 0x418-0x419 (1)
0x410|                           00                  |         .      |      [3]: 0 ut_local_indicator (valid) 0x419-0x41a (1)
0x410|                              01               |          .     |      [4]: 1 ut_local_indicator (valid) 0x41a-0x41b (1)
0x410|                                 00            |           .    |      [5]: 0 ut_local_indicator (valid) 0x41b-0x41c (1)
     |                                               |                |  v2plusheader{}: 0x41c-0x448 (44)
0x410|                                    54 5a 69 66|            TZif|    magic: 0x545a6966 (valid) 0x41c-0x420 (4)
0x420|32                                             |2               |    ver: "2" (0x32) (valid) 0x420-0x421 (1)
0x420|   00 00 00 00 00 00 00 00 00 00 00 00 00 00 00| ...............|    reserved: raw bits 0x421-0x430 (15)
0x430|00 00 00 06                                    |....            |    isutcnt: 6 0x430-0x434 (4)
0x430|            00 00 00 06                        |    ....        |    isstdcnt: 6 0x434-0x438 (4)
0x430|                        00 00 00 1b            |        ....    |    leapcnt: 27 0x438-0x43c (4)
0x430|                                    00 00 00 90|            ....|    timecnt: 144 0x43c-0x440 (4)
0x440|00 00 00 06                                    |....            |    typecnt: 6 0x440-0x444 (4)
0x440|            00 00 00 18                        |    ....        |    charcnt: 24 0x444-0x448 (4)
     |                                               |                |  v2plusdatablock{}: 0x448-0xae4 (1692)
     |                                               |                |    transition_times[0:144]: 0x448-0x8c8 (1152)
0x440|                        ff ff ff ff 5e 3d 76 87|        ....^=v.|      [0]: "1884-01-01T08:10:47Z" (-2713880953) transition_time 0x448-0x450 (8)
0x450|ff ff ff ff 9e b8 bd a0                        |........        |      [1]: "1918-04-14T10:00:00Z" (-1632060000) transition_time 0x450-0x458 (8)
0x450|                        ff ff ff ff 9f bb 15 90|        ........|      [2]: "1918-10-27T09:00:00Z" (-1615129200) transition_time 0x458-0x460 (8)
0x460|ff ff ff ff cb 89 1a a0                        |........        |      [3]: "1942-02-09T10:00:00Z" (-880207200) transition_time 0x460-0x468 (8)
0x460|                        ff ff ff ff d2 23 f4 70|        .....#.p|      [4]: "1945-08-14T23:00:00Z" (-769395600) transition_time 0x468-0x470 (8)
0x470|ff ff ff ff d2 61 26 10                        |.....a&.        |      [5]: "1945-09-30T09:00:00Z" (-765385200) transition_time 0x470-0x478 (8)
0x470|                        ff ff ff ff d5 55 f1 20|        .....U. |      [6]: "1947-04-27T10:00:00Z" (-715788000) transition_time 0x478-0x480 (8)
0x480|ff ff ff ff d6 20 ea 10                        |..... ..        |      [7]: "1947-09-28T09:00:00Z" (-702486000) transition_time 0x480-0x488 (8)
0x480|                        ff ff ff ff d7 35 d3 20|        .....5. |      [8]: "1948-04-25T10:00:00Z" (-684338400) transition_time 0x488-0x490 (8)
0x490|ff ff ff ff d8 00 cc 10                        |........        |      [9]: "1948-09-26T09:00:00Z" (-671036400) transition_time 0x490-0x498 (8)
0x490|                        ff ff ff ff d9 15 b5 20|        ....... |      [10]: "1949-04-24T10:00:00Z" (-652888800) transition_time 0x498-0x4a0 (8)
0x4a0|ff ff ff ff d9 e0 ae 10                        |........        |      [11]: "1949-09-25T09:00:00Z" (-639586800) transition_time 0x4a0-0x4a8 (8)
0x4a0|                        ff ff ff ff da fe d1 a0|        ........|      [12]: "1950-04-30T10:00:00Z" (-620834400) transition_time 0x4a8-0x4b0 (8)
0x4b0|ff ff ff ff db c0 90 10                        |........        |      [13]: "1950-09-24T09:00:00Z" (-608137200) transition_time 0x4b0-0x4b8 (8)
0x4b0|                        ff ff ff ff dc de b3 a0|        ........|      [14]: "1951-04-29T10:00:00Z" (-589384800) transition_time 0x4b8-0x4c0 (8)
0x4c0|ff ff ff ff dd a9 ac 90                        |........        |      [15]: "1951-09-30T09:00:00Z" (-576082800) transition_time 0x4c0-0x4c8 (8)
0x4c0|                        ff ff ff ff de be 95 a0|        ........|      [16]: "1952-04-27T10:00:00Z" (-557935200) transition_time 0x4c8-0x4d0 (8)
0x4d0|ff ff ff ff df 89 8e 90                        |........        |      [17]: "1952-09-28T09:00:00Z" (-544633200) transition_time 0x4d0-0x4d8 (8)
0x4d0|                        ff ff ff ff e0 9e 77 a0|        ......w.|      [18]: "1953-04-26T10:00:00Z" (-526485600) transition_time 0x4d8-0x4e0 (8)
0x4e0|ff ff ff ff e1 69 70 90                        |.....ip.        |      [19]: "1953-09-27T09:00:00Z" (-513183600) transition_time 0x4e0-0x4e8 (8)
0x4e0|                        ff ff ff ff e2 7e 59 a0|        .....~Y.|      [20]: "1954-04-25T10:00:00Z" (-495036000) transition_time 0x4e8-0x4f0 (8)
0x4f0|ff ff ff ff e3 49 52 90                        |.....IR.        |      [21]: "1954-09-26T09:00:00Z" (-481734000) transition_time 0x4f0-0x4f8 (8)
0x4f0|                        ff ff ff ff e4 5e 3b a0|        .....^;.|      [22]: "1955-04-24T10:00:00Z" (-463586400) transition_time 0x4f8-0x500 (8)
0x500|ff ff ff ff e5 29 34 90                        |.....)4.        |      [23]: "1955-09-25T09:00:00Z" (-450284400) transition_time 0x500-0x508 (8)
0x500|                        ff ff ff ff e6 47 58 20|        .....GX |      [24]: "1956-04-29T10:00:00Z" (-431532000) transition_time 0x508-0x510 (8)
0x510|ff ff ff ff e7 12 51 10                        |......Q.        |      [25]: "1956-09-30T09:00:00Z" (-418230000) transition_time 0x510-0x518 (8)
0x510|                        ff ff ff ff e8 27 3a 20|        .....': |      [26]: "1957-04-28T10:00:00Z" (-400082400) transition_time 0x518-0x520 (8)
0x520|ff ff ff ff e8 f2 33 10                        |......3.        |      [27]: "1957-09-29T09:00:00Z" (-386780400) transition_time 0x520-0x528 (8)
0x520|                        ff ff ff ff ea 07 1c 20|        ....... |      [28]: "1958-04-27T10:00:00Z" (-368632800) transition_time 0x528-0x530 (8)
0x530|ff ff ff ff ea d2 15 10                        |........        |      [29]: "1958-09-28T09:00:00Z" (-355330800) transition_time 0x530-0x538 (8)
0x530|                        ff ff ff ff eb e6 fe 20|        ....... |      [30]: "1959-04-26T10:00:00Z" (-337183200) transition_time 0x538-0x540 (8)
0x540|ff ff ff ff ec b1 f7 10                        |........        |      [31]: "1959-09-27T09:00:00Z" (-323881200) transition_time 0x540-0x548 (8)
0x540|                        ff ff ff ff ed c6 e0 20|        ....... |      [32]: "1960-04-24T10:00:00Z" (-305733600) transition_time 0x548-0x550 (8)
0x550|ff ff ff ff ee 91 d9 10                        |........        |      [33]: "1960-09-25T09:00:00Z" (-292431600) transition_time 0x550-0x558 (8)
0x550|                        ff ff ff ff ef af fc a0|        ........|      [34]: "1961-04-30T10:00:00Z" (-273679200) transition_time 0x558-0x560 (8)
0x560|ff ff ff ff f0 71 bb 10                        |.....q..        |      [35]: "1961-09-24T09:00:00Z" (-260982000) transition_time 0x560-0x568 (8)
0x560|                        ff ff ff ff f1 8f de a0|        ........|      [36]: "1962-04-29T10:00:00Z" (-242229600) transition_time 0x568-0x570 (8)
0x570|ff ff ff ff f2 7f c1 90                        |........        |      [37]: "1962-10-28T09:00:00Z" (-226508400) transition_time 0x570-0x578 (8)
0x570|                        ff ff ff ff f3 6f c0 a0|        .....o..|      [38]: "1963-04-28T10:00:00Z" (-210780000) transition_time 0x578-0x580 (8)
0x580|ff ff ff ff f4 5f a3 90                        |....._..        |      [39]: "1963-10-27T09:00:00Z" (-195058800) transition_time 0x580-0x588 (8)
0x580|                        ff ff ff ff f5 4f a2 a0|        .....O..|      [40]: "1964-04-26T10:00:00Z" (-179330400) transition_time 0x588-0x590 (8)
0x590|ff ff ff ff f6 3f 85 90                        |.....?..        |      [41]: "1964-10-25T09:00:00Z" (-163609200) transition_time 0x590-0x598 (8)
0x590|                        ff ff ff ff f7 2f 84 a0|        ...../..|      [42]: "1965-04-25T10:00:00Z" (-147880800) transition_time 0x598-0x5a0 (8)
0x5a0|ff ff ff ff f8 28 a2 10                        |.....(..        |      [43]: "1965-10-31T09:00:00Z" (-131554800) transition_time 0x5a0-0x5a8 (8)
0x5a0|                        ff ff ff ff f9 0f 66 a0|        ......f.|      [44]: "1966-04-24T10:00:00Z" (-116431200) transition_time 0x5a8-0x5b0 (8)
0x5b0|ff ff ff ff fa 08 84 10                        |........        |      [45]: "1966-10-30T09:00:00Z" (-100105200) transition_time 0x5b0-0x5b8 (8)
0x5b0|                        ff ff ff ff fa f8 83 20|        ....... |      [46]: "1967-04-30T10:00:00Z" (-84376800) transition_time 0x5b8-0x5c0 (8)
0x5c0|ff ff ff ff fb e8 66 10                        |......f.        |      [47]: "1967-10-29T09:00:00Z" (-68655600) transition_time 0x5c0-0x5c8 (8)
0x5c0|                        ff ff ff ff fc d8 65 20|        ......e |      [48]: "1968-04-28T10:00:00Z" (-52927200) transition_time 0x5c8-0x5d0 (8)
0x5d0|ff ff ff ff fd c8 48 10                        |......H.        |      [49]: "1968-10-27T09:00:00Z" (-37206000) transition_time 0x5d0-0x5d8 (8)
0x5d0|                        ff ff ff ff fe b8 47 20|        ......G |      [50]: "1969-04-27T10:00:00Z" (-21477600) transition_time 0x5d8-0x5e0 (8)
0x5e0|ff ff ff ff ff a8 2a 10                        |......*.        |      [51]: "1969-10-26T09:00:00Z" (-5756400) transition_time 0x5e0-0x5e8 (8)
0x5e0|                        00 00 00 00 00 98 29 20|        ......) |      [52]: "1970-04-26T10:00:00Z" (9972000) transition_time 0x5e8-0x5f0 (8)
0x5f0|00 00 00 00 01 88 0c 10                        |........        |      [53]: "1970-10-25T09:00:00Z" (25693200) transition_time 0x5f0-0x5f8 (8)
0x5f0|                        00 00 00 00 02 78 0b 20|        .....x. |      [54]: "1971-04-25T10:00:00Z" (41421600) transition_time 0x5f8-0x600 (8)
0x600|00 00 00 00 03 71 28 90                        |.....q(.        |      [55]: "1971-10-31T09:00:00Z" (57747600) transition_time 0x600-0x608 (8)
0x600|                        00 00 00 00 04 61 27 a0|        .....a'.|      [56]: "1972-04-30T10:00:00Z" (73476000) transition_time 0x608-0x610 (8)
0x610|00 00 00 00 05 51 0a 91                        |.....Q..        |      [57]: "1972-10-29T09:00:01Z" (89197201) transition_time 0x610-0x618 (8)
0x610|                        00 00 00 00 06 41 09 a2|        .....A..|      [58]: "1973-04-29T10:00:02Z" (104925602) transition_time 0x618-0x620 (8)
0x620|00 00 00 00 07 30 ec 92                        |.....0..        |      [59]: "1973-10-28T09:00:02Z" (120646802) transition_time 0x620-0x628 (8)
0x620|                        00 00 00 00 08 20 eb a3|        ..... ..|      [60]: "1974-04-28T10:00:03Z" (136375203) transition_time 0x628-0x630 (8)
0x630|00 00 00 00 09 10 ce 93                        |........        |      [61]: "1974-10-27T09:00:03Z" (152096403) transition_time 0x630-0x638 (8)
0x630|                        00 00 00 00 0a 00 cd a4|        ........|      [62]: "1975-04-27T10:00:04Z" (167824804) transition_time 0x638-0x640 (8)
0x640|00 00 00 00 0a f0 b0 94                        |........        |      [63]: "1975-10-26T09:00:04Z" (183546004) transition_time 0x640-0x648 (8)
0x640|                        00 00 00 00 0b e0 af a5|        ........|      [64]: "1976-04-25T10:00:05Z" (199274405) transition_time 0x648-0x650 (8)
0x650|00 00 00 00 0c d9 cd 15                        |........        |      [65]: "1976-10-31T09:00:05Z" (215600405) transition_time 0x650-0x658 (8)
0x650|                        00 00 00 00 0d c0 91 a6|        ........|      [66]: "1977-04-24T10:00:06Z" (230724006) transition_time 0x658-0x660 (8)
0x660|00 00 00 00 0e b9 af 16                        |........        |      [67]: "1977-10-30T09:00:06Z" (247050006) transition_time 0x660-0x668 (8)
0x660|                        00 00 00 00 0f a9 ae 27|        .......'|      [68]: "1978-04-30T10:00:07Z" (262778407) transition_time 0x668-0x670 (8)
0x670|00 00 00 00 10 99 91 17                        |........        |      [69]: "1978-10-29T09:00:07Z" (278499607) transition_time 0x670-0x678 (8)
0x670|                        00 00 00 00 11 89 90 28|        .......(|      [70]: "1979-04-29T10:00:08Z" (294228008) transition_time 0x678-0x680 (8)
0x680|00 00 00 00 12 79 73 18                        |.....ys.        |      [71]: "1979-10-28T09:00:08Z" (309949208) transition_time 0x680-0x688 (8)
0x680|                        00 00 00 00 13 69 72 29|        .....ir)|      [72]: "1980-04-27T10:00:09Z" (325677609) transition_time 0x688-0x690 (8)
0x690|00 00 00 00 14 59 55 19                        |.....YU.        |      [73]: "1980-10-26T09:00:09Z" (341398809) transition_time 0x690-0x698 (8)
0x690|                        00 00 00 00 15 49 54 29|        .....IT)|      [74]: "1981-04-26T10:00:09Z" (357127209) transition_time 0x698-0x6a0 (8)
0x6a0|00 00 00 00 16 39 37 1a                        |.....97.        |      [75]: "1981-10-25T09:00:10Z" (372848410) transition_time 0x6a0-0x6a8 (8)
0x6a0|                        00 00 00 00 17 29 36 2a|        .....)6*|      [76]: "1982-04-25T10:00:10Z" (388576810) transition_time 0x6a8-0x6b0 (8)
0x6b0|00 00 00 00 18 22 53 9b                        |....."S.        |      [77]: "1982-10-31T09:00:11Z" (404902811) transition_time 0x6b0-0x6b8 (8)
0x6b0|                        00 00 00 00 19 09 18 2b|        .......+|      [78]: "1983-04-24T10:00:11Z" (420026411) transition_time 0x6b8-0x6c0 (8)
0x6c0|00 00 00 00 1a 02 35 9c                        |......5.        |      [79]: "1983-10-30T09:00:12Z" (436352412) transition_time 0x6c0-0x6c8 (8)
0x6c0|                        00 00 00 00 1a f2 34 ac|        ......4.|      [80]: "1984-04-29T10:00:12Z" (452080812) transition_time 0x6c8-0x6d0 (8)
0x6d0|00 00 00 00 1b e2 17 9c                        |........        |      [81]: "1984-10-28T09:00:12Z" (467802012) transition_time 0x6d0-0x6d8 (8)
0x6d0|                        00 00 00 00 1c d2 16 ac|        ........|      [82]: "1985-04-28T10:00:12Z" (483530412) transition_time 0x6d8-0x6e0 (8)
0x6e0|00 00 00 00 1d c1 f9 9d                        |........        |      [83]: "1985-10-27T09:00:13Z" (499251613) transition_time 0x6e0-0x6e8 (8)
0x6e0|                        00 00 00 00 1e b1 f8 ad|        ........|      [84]: "1986-04-27T10:00:13Z" (514980013) transition_time 0x6e8-0x6f0 (8)
0x6f0|00 00 00 00 1f a1 db 9d                        |........        |      [85]: "1986-10-26T09:00:13Z" (530701213) transition_time 0x6f0-0x6f8 (8)
0x6f0|                        00 00 00 00 20 76 2b 2d|        .... v+-|      [86]: "1987-04-05T10:00:13Z" (544615213) transition_time 0x6f8-0x700 (8)
0x700|00 00 00 00 21 81 bd 9d                        |....!...        |      [87]: "1987-10-25T09:00:13Z" (562150813) transition_time 0x700-0x708 (8)
0x700|                        00 00 00 00 22 56 0d 2e|        ...."V..|      [88]: "1988-04-03T10:00:14Z" (576064814) transition_time 0x708-0x710 (8)
0x710|00 00 00 00 23 6a da 1e                        |....#j..        |      [89]: "1988-10-30T09:00:14Z" (594205214) transition_time 0x710-0x718 (8)
0x710|                        00 00 00 00 24 35 ef 2e|        ....$5..|      [90]: "1989-04-02T10:00:14Z" (607514414) transition_time 0x718-0x720 (8)
0x720|00 00 00 00 25 4a bc 1e                        |....%J..        |      [91]: "1989-10-29T09:00:14Z" (625654814) transition_time 0x720-0x728 (8)
0x720|                        00 00 00 00 26 15 d1 2f|        ....&../|      [92]: "1990-04-01T10:00:15Z" (638964015) transition_time 0x728-0x730 (8)
0x730|00 00 00 00 27 2a 9e 1f                        |....'*..        |      [93]: "1990-10-28T09:00:15Z" (657104415) transition_time 0x730-0x738 (8)
0x730|                        00 00 00 00 27 fe ed b0|        ....'...|      [94]: "1991-04-07T10:00:16Z" (671018416) transition_time 0x738-0x740 (8)
0x740|00 00 00 00 29 0a 80 20                        |....)..         |      [95]: "1991-10-27T09:00:16Z" (688554016) transition_time 0x740-0x748 (8)
0x740|                        00 00 00 00 29 de cf b0|        ....)...|      [96]: "1992-04-05T10:00:16Z" (702468016) transition_time 0x748-0x750 (8)
0x750|00 00 00 00 2a ea 62 21                        |....*.b!        |      [97]: "1992-10-25T09:00:17Z" (720003617) transition_time 0x750-0x758 (8)
0x750|                        00 00 00 00 2b be b1 b1|        ....+...|      [98]: "1993-04-04T10:00:17Z" (733917617) transition_time 0x758-0x760 (8)
0x760|00 00 00 00 2c d3 7e a2                        |....,.~.        |      [99]: "1993-10-31T09:00:18Z" (752058018) transition_time 0x760-0x768 (8)
0x760|                        00 00 00 00 2d 9e 93 b2|        ....-...|      [100]: "1994-04-03T10:00:18Z" (765367218) transition_time 0x768-0x770 (8)
0x770|00 00 00 00 2e b3 60 a3                        |......`.        |      [101]: "1994-10-30T09:00:19Z" (783507619) transition_time 0x770-0x778 (8)
0x770|                        00 00 00 00 2f 7e 75 b3|        ..../~u.|      [102]: "1995-04-02T10:00:19Z" (796816819) transition_time 0x778-0x780 (8)
0x780|00 00 00 00 30 93 42 a3                        |....0.B.        |      [103]: "1995-10-29T09:00:19Z" (814957219) transition_time 0x780-0x788 (8)
0x780|                        00 00 00 00 31 67 92 34|        ....1g.4|      [104]: "1996-04-07T10:00:20Z" (828871220) transition_time 0x788-0x790 (8)
0x790|00 00 00 00 32 73 24 a4                        |....2s$.        |      [105]: "1996-10-27T09:00:20Z" (846406820) transition_time 0x790-0x798 (8)
0x790|                        00 00 00 00 33 47 74 34|        ....3Gt4|      [106]: "1997-04-06T10:00:20Z" (860320820) transition_time 0x798-0x7a0 (8)
0x7a0|00 00 00 00 34 53 06 a5                        |....4S..        |      [107]: "1997-10-26T09:00:21Z" (877856421) transition_time 0x7a0-0x7a8 (8)
0x7a0|                        00 00 00 00 35 27 56 35|        ....5'V5|      [108]: "1998-04-05T10:00:21Z" (891770421) transition_time 0x7a8-0x7b0 (8)
0x7b0|00 00 00 00 36 32 e8 a5                        |....62..        |      [109]: "1998-10-25T09:00:21Z" (909306021) transition_time 0x7b0-0x7b8 (8)
0x7b0|                        00 00 00 00 37 07 38 36|        ....7.86|      [110]: "1999-04-04T10:00:22Z" (923220022) transition_time 0x7b8-0x7c0 (8)
0x7c0|00 00 00 00 38 1c 05 26                        |....8..&        |      [111]: "1999-10-31T09:00:22Z" (941360422) transition_time 0x7c0-0x7c8 (8)
0x7c0|                        00 00 00 00 38 e7 1a 36|        ....8..6|      [112]: "2000-04-02T10:00:22Z" (954669622) transition_time 0x7c8-0x7d0 (8)
0x7d0|00 00 00 00 39 fb e7 26                        |....9..&        |      [113]: "2000-10-29T09:00:22Z" (972810022) transition_time 0x7d0-0x7d8 (8)
0x7d0|                        00 00 00 00 3a c6 fc 36|        ....:..6|      [114]: "2001-04-01T10:00:22Z" (986119222) transition_time 0x7d8-0x7e0 (8)
0x7e0|00 00 00 00 3b db c9 26                        |....;..&        |      [115]: "2001-10-28T09:00:22Z" (1004259622) transition_time 0x7e0-0x7e8 (8)
0x7e0|                        00 00 00 00 3c b0 18 b6|        ....<...|      [116]: "2002-04-07T10:00:22Z" (1018173622) transition_time 0x7e8-0x7f0 (8)
0x7f0|00 00 00 00 3d bb ab 26                        |....=..&        |      [117]: "2002-10-27T09:00:22Z" (1035709222) transition_time 0x7f0-0x7f8 (8)
0x7f0|                        00 00 00 00 3e 8f fa b6|        ....>...|      [118]: "2003-04-06T10:00:22Z" (1049623222) transition_time 0x7f8-0x800 (8)
0x800|00 00 00 00 3f 9b 8d 26                        |....?..&        |      [119]: "2003-10-26T09:00:22Z" (1067158822) transition_time 0x800-0x808 (8)
0x800|                        00 00 00 00 40 6f dc b6|        ....@o..|      [120]: "2004-04-04T10:00:22Z" (1081072822) transition_time 0x808-0x810 (8)
0x810|00 00 00 00 41 84 a9 a6                        |....A...        |      [121]: "2004-10-31T09:00:22Z" (1099213222) transition_time 0x810-0x818 (8)
0x810|                        00 00 00 00 42 4f be b6|        ....BO..|      [122]: "2005-04-03T10:00:22Z" (1112522422) transition_time 0x818-0x820 (8)
0x820|00 00 00 00 43 64 8b a6                        |....Cd..        |      [123]: "2005-10-30T09:00:22Z" (1130662822) transition_time 0x820-0x828 (8)
0x820|                        00 00 00 00 44 2f a0 b7|        ....D/..|      [124]: "2006-04-02T10:00:23Z" (1143972023) transition_time 0x828-0x830 (8)
0x830|00 00 00 00 45 44 6d a7                        |....EDm.        |      [125]: "2006-10-29T09:00:23Z" (1162112423) transition_time 0x830-0x838 (8)
0x830|                        00 00 00 00 45 f3 d3 37|        ....E..7|      [126]: "2007-03-11T10:00:23Z" (1173607223) transition_time 0x838-0x840 (8)
0x840|00 00 00 00 47 2d 8a 27                        |....G-.'        |      [127]: "2007-11-04T09:00:23Z" (1194166823) transition_time 0x840-0x848 (8)
0x840|                        00 00 00 00 47 d3 b5 37|        ....G..7|      [128]: "2008-03-09T10:00:23Z" (1205056823) transition_time 0x848-0x850 (8)
0x850|00 00 00 00 49 0d 6c 27                        |....I.l'        |      [129]: "2008-11-02T09:00:23Z" (1225616423) transition_time 0x850-0x858 (8)
0x850|                        00 00 00 00 49 b3 97 38|        ....I..8|      [130]: "2009-03-08T10:00:24Z" (1236506424) transition_time 0x858-0x860 (8)
0x860|00 00 00 00 4a ed 4e 28                        |....J.N(        |      [131]: "2009-11-01T09:00:24Z" (1257066024) transition_time 0x860-0x868 (8)
0x860|                        00 00 00 00 4b 9c b3 b8|        ....K...|      [132]: "2010-03-14T10:00:24Z" (1268560824) transition_time 0x868-0x870 (8)
0x870|00 00 00 00 4c d6 6a a8                        |....L.j.        |      [133]: "2010-11-07T09:00:24Z" (1289120424) transition_time 0x870-0x878 (8)
0x870|                        00 00 00 00 4d 7c 95 b8|        ....M|..|      [134]: "2011-03-13T10:00:24Z" (1300010424) transition_time 0x878-0x880 (8)
0x880|00 00 00 00 4e b6 4c a8                        |....N.L.        |      [135]: "2011-11-06T09:00:24Z" (1320570024) transition_time 0x880-0x888 (8)
0x880|                        00 00 00 00 4f 5c 77 b8|        ....O\w.|      [136]: "2012-03-11T10:00:24Z" (1331460024) transition_time 0x888-0x890 (8)
0x890|00 00 00 00 50 96 2e a9                        |....P...        |      [137]: "2012-11-04T09:00:25Z" (1352019625) transition_time 0x890-0x898 (8)
0x890|                        00 00 00 00 51 3c 59 b9|        ....Q<Y.|      [138]: "2013-03-10T10:00:25Z" (1362909625) transition_time 0x898-0x8a0 (8)
0x8a0|00 00 00 00 52 76 10 a9                        |....Rv..        |      [139]: "2013-11-03T09:00:25Z" (1383469225) transition_time 0x8a0-0x8a8 (8)
0x8a0|                        00 00 00 00 53 1c 3b b9|        ....S.;.|      [140]: "2014-03-09T10:00:25Z" (1394359225) transition_time 0x8a8-0x8b0 (8)
0x8b0|00 00 00 00 54 55 f2 a9                        |....TU..        |      [141]: "2014-11-02T09:00:25Z" (1414918825) transition_time 0x8b0-0x8b8 (8)
0x8b0|                        00 00 00 00 54 fc 1d b9|        ....T...|      [142]: "2015-03-08T10:00:25Z" (1425808825) transition_time 0x8b8-0x8c0 (8)
0x8c0|00 00 00 00 64 9b 78 1b                        |....d.x.        |      [143]: "2023-06-28T00:00:27Z" (1687910427) transition_time 0x8c0-0x8c8 (8)
     |                                               |                |    transition_types[0:144]: 0x8c8-0x958 (144)
0x8c0|                        02                     |        .       |      [0]: 2 transition_type 0x8c8-0x8c9 (1)
0x8c0|                           01                  |         .      |      [1]: 1 transition_type 0x8c9-0x8ca (1)
0x8c0|                              02               |          .     |      [2]: 2 transition_type 0x8ca-0x8cb (1)
0x8c0|                                 03            |           .    |      [3]: 3 transition_type 0x8cb-0x8cc (1)
0x8c0|                                    04         |            .   |      [4]: 4 transition_type 0x8cc-0x8cd (1)
0x8c0|                                       02      |             .  |      [5]: 2 transition_type 0x8cd-0x8ce (1)
0x8c0|                                          01   |              . |      [6]: 1 transition_type 0x8ce-0x8cf (1)
0x8c0|                                             02|               .|      [7]: 2 transition_type 0x8cf-0x8d0 (1)
0x8d0|01                                             |.               |      [8]: 1 transition_type 0x8d0-0x8d1 (1)
0x8d0|   02                                          | .              |      [9]: 2 transition_type 0x8d1-0x8d2 (1)
0x8d0|      01                                       |  .             |      [10]: 1 transition_type 0x8d2-0x8d3 (1)
0x8d0|         02                                    |   .            |      [11]: 2 transition_type 0x8d3-0x8d4 (1)
0x8d0|            01                                 |    .           |      [12]: 1 transition_type 0x8d4-0x8d5 (1)
0x8d0|               02                              |     .          |      [13]: 2 transition_type 0x8d5-0x8d6 (1)
0x8d0|                  01                           |      .         |      [14]: 1 transition_type 0x8d6-0x8d7 (1)
0x8d0|                     02                        |       .        |      [15]: 2 transition_type 0x8d7-0x8d8 (1)
0x8d0|                        01                     |        .       |      [16]: 1 transition_type 0x8d8-0x8d9 (1)
0x8d0|                           02                  |         .      |      [17]: 2 transition_type 0x8d9-0x8da (1)
0x8d0|                              01               |          .     |      [18]: 1 transition_type 0x8da-0x8db (1)
0x8d0|                                 02            |           .    |      [19]: 2 transition_type 0x8db-0x8dc (1)
0x8d0|                                    01         |            .   |      [20]: 1 transition_type 0x8dc-0x8dd (1)
0x8d0|                                       02      |             .  |      [21]: 2 transition_type 0x8dd-0x8de (1)
0x8d0|                                          01   |              . |      [22]: 1 transition_type 0x8de-0x8df (1)
0x8d0|                                             02|               .|      [23]: 2 transition_type 0x8df-0x8e0 (1)
0x8e0|01                                             |.               |      [24]: 1 transition_type 0x8e0-0x8e1 (1)
0x8e0|   02                                          | .              |      [25]: 2 transition_type 0x8e1-0x8e2 (1)
0x8e0|      01                                       |  .             |      [26]: 1 transition_type 0x8e2-0x8e3 (1)
0x8e0|         02                                    |   .            |      [27]: 2 transition_type 0x8e3-0x8e4 (1)
0x8e0|            01                                 |    .           |      [28]: 1 transition_type 0x8e4-0x8e5 (1)
0x8e0|               02                              |     .          |      [29]: 2 transition_type 0x8e5-0x8e6 (1)
0x8e0|                  01                           |      .         |      [30]: 1 transition_type 0x8e6-0x8e7 (1)
0x8e0|                     02                        |       .        |      [31]: 2 transition_type 0x8e7-0x8e8 (1)
0x8e0|                        01                     |        .       |      [32]: 1 transition_type 0x8e8-0x8e9 (1)
0x8e0|                           02                  |         .      |      [33]: 2 transition_type 0x8e9-0x8ea (1)
0x8e0|                              01               |          .     |      [34]: 1 transition_type 0x8ea-0x8eb (1)
0x8e0|                                 02            |           .    |      [35]: 2 transition_type 0x8eb-0x8ec (1)
0x8e0|                                    01         |            .   |      [36]: 1 transition_type 0x8ec-0x8ed (1)
0x8e0|                                       02      |             .  |      [37]: 2 transition_type 0x8ed-0x8ee (1)
0x8e0|                                          01   |              . |      [38]: 1 transition_type 0x8ee-0x8ef (1)
0x8e0|                                             02|               .|      [39]: 2 transition_type 0x8ef-0x8f0 (1)
0x8f0|01                                             |.               |      [40]: 1 transition_type 0x8f0-0x8f1 (1)
0x8f0|   02                                          | .              |      [41]: 2 transition_type 0x8f1-0x8f2 (1)
0x8f0|      01                                       |  .             |      [42]: 1 transition_type 0x8f2-0x8f3 (1)
0x8f0|         02                                    |   .            |      [43]: 2 transition_type 0x8f3-0x8f4 (1)
0x8f0|            01                                 |    .           |      [44]: 1 transition_type 0x8f4-0x8f5 (1)
0x8f0|               02                              |     .          |      [45]: 2 transition_type 0x8f5-0x8f6 (1)
0x8f0|                  01                           |      .         |      [46]: 1 transition_type 0x8f6-0x8f7 (1)
0x8f0|                     02                        |       .        |      [47]: 2 transition_type 0x8f7-0x8f8 (1)
0x8f0|                        01                     |        .       |      [48]: 1 transition_type 0x8f8-0x8f9 (1)
0x8f0|                           02                  |         .      |      [49]: 2 transition_type 0x8f9-0x8fa (1)
0x8f0|                              01               |          .     |      [50]: 1 transition_type 0x8fa-0x8fb (1)
0x8f0|                                 02            |           .    |      [51]: 2 transition_type 0x8fb-0x8fc (1)
0x8f0|                                    01         |            .   |      [52]: 1 transition_type 0x8fc-0x8fd (1)
0x8f0|                                       02      |             .  |      [53]: 2 transition_type 0x8fd-0x8fe (1)
0x8f0|                                          01   |              . |      [54]: 1 transition_type 0x8fe-0x8ff (1)
0x8f0|                                             02|               .|      [55]: 2 transition_type 0x8ff-0x900 (1)
0x900|01                                             |.               |      [56]: 1 transition_type 0x900-0x901 (1)
0x900|   02                                          | .              |      [57]: 2 transition_type 0x901-0x902 (1)
0x900|      01                                       |  .             |      [58]: 1 transition_type 0x902-0x903 (1)
0x900|         02                                    |   .            |      [59]: 2 transition_type 0x903-0x904 (1)
0x900|            01                                 |    .           |      [60]: 1 transition_type 0x904-0x905 (1)
0x900|               02                              |     .          |      [61]: 2 transition_type 0x905-0x906 (1)
0x900|                  01                           |      .         |      [62]: 1 transition_type 0x906-0x907 (1)
0x900|                     02                        |       .        |      [63]: 2 transition_type 0x907-0x908 (1)
0x900|                        01                     |        .       |      [64]: 1 transition_type 0x908-0x909 (1)
0x900|                           02                  |         .      |      [65]: 2 transition_type 0x909-0x90a (1)
0x900|                              01               |          .     |      [66]: 1 transition_type 0x90a-0x90b (1)
0x900|                                 02            |           .    |      [67]: 2 transition_type 0x90b-0x90c (1)
0x900|                                    01         |            .   |      [68]: 1 transition_type 0x90c-0x90d (1)
0x900|                                       02      |             .  |      [69]: 2 transition_type 0x90d-0x90e (1)
0x900|                                          01   |              . |      [70]: 1 transition_type 0x90e-0x90f (1)
0x900|                                             02|               .|      [71]: 2 transition_type 0x90f-0x910 (1)
0x910|01                                             |.               |      [72]: 1 transition_type 0x910-0x911 (1)
0x910|   02                                          | .              |      [73]: 2 transition_type 0x911-0x912 (1)
0x910|      01                                       |  .             |      [74]: 1 transition_type 0x912-0x913 (1)
0x910|         02                                    |   .            |      [75]: 2 transition_type 0x913-0x914 (1)
0x910|            01                                 |    .           |      [76]: 1 transition_type 0x914-0x915 (1)
0x910|               02                              |     .          |      [77]: 2 transition_type 0x915-0x916 (1)
0x910|                  01                           |      .         |      [78]: 1 transition_type 0x916-0x917 (1)
0x910|                     02                        |       .        |      [79]: 2 transition_type 0x917-0x918 (1)
0x910|                        01                     |        .       |      [80]: 1 transition_type 0x918-0x919 (1)
0x910|                           02                  |         .      |      [81]: 2 transition_type 0x919-0x91a (1)
0x910|                              01               |          .     |      [82]: 1 transition_type 0x91a-0x91b (1)
0x910|                                 02            |           .    |      [83]: 2 transition_type 0x91b-0x91c (1)
0x910|                                    01         |            .   |      [84]: 1 transition_type 0x91c-0x91d (1)
0x910|                                       02      |             .  |      [85]: 2 transition_type 0x91d-0x91e (1)
0x910|                                          01   |              . |      [86]: 1 transition_type 0x91e-0x91f (1)
0x910|                                             02|               .|      [87]: 2 transition_type 0x91f-0x920 (1)
0x920|01                                             |.               |      [88]: 1 transition_type 0x920-0x921 (1)
0x920|   02                                          | .              |      [89]: 2 transition_type 0x921-0x922 (1)
0x920|      01                                       |  .             |      [90]: 1 transition_type 0x922-0x923 (1)
0x920|         02                                    |   .            |      [91]: 2 transition_type 0x923-0x924 (1)
0x920|            01                                 |    .           |      [92]: 1 transition_type 0x924-0x925 (1)
0x920|               02                              |     .          |      [93]: 2 transition_type 0x925-0x926 (1)
0x920|                  01                           |      .         |      [94]: 1 transition_type 0x926-0x927 (1)
0x920|                     02                        |       .        |      [95]: 2 transition_type 0x927-0x928 (1)
0x920|                        01                     |        .       |      [96]: 1 transition_type 0x928-0x929 (1)
0x920|                           02                  |         .      |      [97]: 2 transition_type 0x929-0x92a (1)
0x920|                              01               |          .     |      [98]: 1 transition_type 0x92a-0x92b (1)
0x920|                                 02            |           .    |      [99]: 2 transition_type 0x92b-0x92c (1)
0x920|                                    01         |            .   |      [100]: 1 transition_type 0x92c-0x92d (1)
0x920|                                       02      |             .  |      [101]: 2 transition_type 0x92d-0x92e (1)
0x920|                                          01   |              . |      [102]: 1 transition_type 0x92e-0x92f (1)
0x920|                                             02|               .|      [103]: 2 transition_type 0x92f-0x930 (1)
0x930|01                                             |.               |      [104]: 1 transition_type 0x930-0x931 (1)
0x930|   02                                          | .              |      [105]: 2 transition_type 0x931-0x932 (1)
0x930|      01                                       |  .             |      [106]: 1 transition_type 0x932-0x933 (1)
0x930|         02                                    |   .            |      [107]: 2 transition_type 0x933-0x934 (1)
0x930|            01                                 |    .           |      [108]: 1 transition_type 0x934-0x935 (1)
0x930|               02                              |     .          |      [109]: 2 transition_type 0x935-0x936 (1)
0x930|                  01                           |      .         |      [110]: 1 transition_type 0x936-0x937 (1)
0x930|                     02                        |       .        |      [111]: 2 transition_type 0x937-0x938 (1)
0x930|                        01                     |        .       |      [112]: 1 transition_type 0x938-0x939 (1)
0x930|                           02                  |         .      |      [113]: 2 transition_type 0x939-0x93a (1)
0x930|                              01               |          .     |      [114]: 1 transition_type 0x93a-0x93b (1)
0x930|                                 02            |           .    |      [115]: 2 transition_type 0x93b-0x93c (1)
0x930|                                    01         |            .   |      [116]: 1 transition_type 0x93c-0x93d (1)
0x930|                                       02      |             .  |      [117]: 2 transition_type 0x93d-0x93e (1)
0x930|                                          01   |              . |      [118]: 1 transition_type 0x93e-0x93f (1)
0x930|                                             02|               .|      [119]: 2 transition_type 0x93f-0x940 (1)
0x940|01                                             |.               |      [120]: 1 transition_type 0x940-0x941 (1)
0x940|   02                                          | .              |      [121]: 2 transition_type 0x941-0x942 (1)
0x940|      01                                       |  .             |      [122]: 1 transition_type 0x942-0x943 (1)
0x940|         02                                    |   .            |      [123]: 2 transition_type 0x943-0x944 (1)
0x940|            01                                 |    .           |      [124]: 1 transition_type 0x944-0x945 (1)
0x940|               02                              |     .          |      [125]: 2 transition_type 0x945-0x946 (1)
0x940|                  01                           |      .         |      [126]: 1 transition_type 0x946-0x947 (1)
0x940|                     02                        |       .        |      [127]: 2 transition_type 0x947-0x948 (1)
0x940|                        01                     |        .       |      [128]: 1 transition_type 0x948-0x949 (1)
0x940|                           02                  |         .      |      [129]: 2 transition_type 0x949-0x94a (1)
0x940|                              01               |          .     |      [130]: 1 transition_type 0x94a-0x94b (1)
0x940|                                 02            |           .    |      [131]: 2 transition_type 0x94b-0x94c (1)
0x940|                                    01         |            .   |      [132]: 1 transition_type 0x94c-0x94d (1)
0x940|                                       02      |             .  |      [133]: 2 transition_type 0x94d-0x94e (1)
0x940|                                          01   |              . |      [134]: 1 transition_type 0x94e-0x94f (1)
0x940|                                             02|               .|      [135]: 2 transition_type 0x94f-0x950 (1)
0x950|01                                             |.               |      [136]: 1 transition_type 0x950-0x951 (1)
0x950|   02                                          | .              |      [137]: 2 transition_type 0x951-0x952 (1)
0x950|      01                                       |  .             |      [138]: 1 transition_type 0x952-0x953 (1)
0x950|         02                                    |   .            |      [139]: 2 transition_type 0x953-0x954 (1)
0x950|            01                                 |    .           |      [140]: 1 transition_type 0x954-0x955 (1)
0x950|               02                              |     .          |      [141]: 2 transition_type 0x955-0x956 (1)
0x950|                  05                           |      .         |      [142]: 5 transition_type 0x956-0x957 (1)
0x950|                     05                        |       .        |      [143]: 5 transition_type 0x957-0x958 (1)
     |                                               |                |    local_time_type_records[0:6]: 0x958-0x97c (36)
     |                                               |                |      [0]{}: local_time_type 0x958-0x95e (6)
0x950|                        ff ff 8c f9            |        ....    |        utoff: -29447 (valid) 0x958-0x95c (4)
0x950|                                    00         |            .   |        dst: 0 (valid) 0x95c-0x95d (1)
0x950|                                       00      |             .  |        idx: 0 (valid) 0x95d-0x95e (1)
     |                                               |                |      [1]{}: local_time_type 0x95e-0x964 (6)
0x950|                                          ff ff|              ..|        utoff: -25200 (valid) 0x95e-0x962 (4)
0x960|9d 90                                          |..              |
0x960|      01                                       |  .             |        dst: 1 (valid) 0x962-0x963 (1)
0x960|         04                                    |   .            |        idx: 4 (valid) 0x963-0x964 (1)
     |                                               |                |      [2]{}: local_time_type 0x964-0x96a (6)
0x960|            ff ff 8f 80                        |    ....        |        utoff: -28800 (valid) 0x964-0x968 (4)
0x960|                        00                     |        .       |        dst: 0 (valid) 0x968-0x969 (1)
0x960|                           08                  |         .      |        idx: 8 (valid) 0x969-0x96a (1)
     |                                               |                |      [3]{}: local_time_type 0x96a-0x970 (6)
0x960|                              ff ff 9d 90      |          ....  |        utoff: -25200 (valid) 0x96a-0x96e (4)
0x960|                                          01   |              . |        dst: 1 (valid) 0x96e-0x96f (1)
0x960|                                             0c|               .|        idx: 12 (valid) 0x96f-0x970 (1)
     |                                               |                |      [4]{}: local_time_type 0x970-0x976 (6)
0x970|ff ff 9d 90                                    |....            |        utoff: -25200 (valid) 0x970-0x974 (4)
0x970|            01                                 |    .           |        dst: 1 (valid) 0x974-0x975 (1)
0x970|               10                              |     .          |        idx: 16 (valid) 0x975-0x976 (1)
     |                                               |                |      [5]{}: local_time_type 0x976-0x97c (6)
0x970|                  ff ff 9d 90                  |      ....      |        utoff: -25200 (valid) 0x976-0x97a (4)
0x970|                              00               |          .     |        dst: 0 (valid) 0x97a-0x97b (1)
0x970|                                 14            |           .    |        idx: 20 (valid) 0x97b-0x97c (1)
     |                                               |                |    time_zone_designations[0:6]: 0x97c-0x994 (24)
0x970|                                    4c 4d 54 00|            LMT.|      [0]: "LMT" time_zone_designation 0x97c-0x980 (4)
0x980|50 44 54 00                                    |PDT.            |      [1]: "PDT" time_zone_designation 0x980-0x984 (4)
0x980|            50 53 54 00                        |    PST.        |      [2]: "PST" time_zone_designation 0x984-0x988 (4)
0x980|                        50 57 54 00            |        PWT.    |      [3]: "PWT" time_zone_designation 0x988-0x98c (4)
0x980|                                    50 50 54 00|            PPT.|      [4]: "PPT" time_zone_designation 0x98c-0x990 (4)
0x990|4d 53 54 00                                    |MST.            |      [5]: "MST" time_zone_designation 0x990-0x994 (4)
     |                                               |                |    leap_second_records[0:27]: 0x994-0xad8 (324)
     |                                               |                |      [0]{}: leap_second_record 0x994-0x9a0 (12)
0x990|            00 00 00 00 04 b2 58 00            |    ......X.    |        occur: "1972-07-01T00:00:00Z" (78796800) 0x994-0x99c (8)
0x990|                                    00 00 00 01|            ....|        corr: 1 0x99c-0x9a0 (4)
     |                                               |                |      [1]{}: leap_second_record 0x9a0-0x9ac (12)
0x9a0|00 00 00 00 05 a4 ec 01                        |........        |        occur: "1973-01-01T00:00:01Z" (94694401) 0x9a0-0x9a8 (8)
0x9a0|                        00 00 00 02            |        ....    |        corr: 2 0x9a8-0x9ac (4)
     |                                               |                |      [2]{}: leap_second_record 0x9ac-0x9b8 (12)
0x9a0|                                    00 00 00 00|            ....|        occur: "1974-01-01T00:00:02Z" (126230402) 0x9ac-0x9b4 (8)
0x9b0|07 86 1f 82                                    |....            |
0x9b0|            00 00 00 03                        |    ....        |        corr: 3 0x9b4-0x9b8 (4)
     |                                               |                |      [3]{}: leap_second_record 0x9b8-0x9c4 (12)
0x9b0|                        00 00 00 00 09 67 53 03|        .....gS.|        occur: "1975-01-01T00:00:03Z" (157766403) 0x9b8-0x9c0 (8)
0x9c0|00 00 00 04                                    |....            |        corr: 4 0x9c0-0x9c4 (4)
     |                                               |                |      [4]{}: leap_second_record 0x9c4-0x9d0 (12)
0x9c0|            00 00 00 00 0b 48 86 84            |    .....H..    |        occur: "1976-01-01T00:00:04Z" (189302404) 0x9c4-0x9cc (8)
0x9c0|                                    00 00 00 05|            ....|        corr: 5 0x9cc-0x9d0 (4)
     |                                               |                |      [5]{}: leap_second_record 0x9d0-0x9dc (12)
0x9d0|00 00 00 00 0d 2b 0b 85                        |.....+..        |        occur: "1977-01-01T00:00:05Z" (220924805) 0x9d0-0x9d8 (8)
0x9d0|                        00 00 00 06            |        ....    |        corr: 6 0x9d8-0x9dc (4)
     |                                               |                |      [6]{}: leap_second_record 0x9dc-0x9e8 (12)
0x9d0|                                    00 00 00 00|            ....|        occur: "1978-01-01T00:00:06Z" (252460806) 0x9dc-0x9e4 (8)
0x9e0|0f 0c 3f 06                                    |..?.            |
0x9e0|            00 00 00 07                        |    ....        |        corr: 7 0x9e4-0x9e8 (4)
     |                                               |                |      [7]{}: leap_second_record 0x9e8-0x9f4 (12)
0x9e0|                        00 00 00 00 10 ed 72 87|        ......r.|        occur: "1979-01-01T00:00:07Z" (283996807) 0x9e8-0x9f0 (8)
0x9f0|00 00 00 08                                    |....            |        corr: 8 0x9f0-0x9f4 (4)
     |                                               |                |      [8]{}: leap_second_record 0x9f4-0xa00 (12)
0x9f0|            00 00 00 00 12 ce a6 08            |    ........    |        occur: "1980-01-01T00:00:08Z" (315532808) 0x9f4-0x9fc (8)
0x9f0|                                    00 00 00 09|            ....|        corr: 9 0x9fc-0xa00 (4)
     |                                               |                |      [9]{}: leap_second_record 0xa00-0xa0c (12)
0xa00|00 00 00 00 15 9f ca 89                        |........        |        occur: "1981-07-01T00:00:09Z" (362793609) 0xa00-0xa08 (8)
0xa00|                        00 00 00 0a            |        ....    |        corr: 10 0xa08-0xa0c (4)
     |                                               |                |      [10]{}: leap_second_record 0xa0c-0xa18 (12)
0xa00|                                    00 00 00 00|            ....|        occur: "1982-07-01T00:00:10Z" (394329610) 0xa0c-0xa14 (8)
0xa10|17 80 fe 0a                                    |....            |
0xa10|            00 00 00 0b                        |    ....        |        corr: 11 0xa14-0xa18 (4)
     |                                               |                |      [11]{}: leap_second_record 0xa18-0xa24 (12)
0xa10|                        00 00 00 00 19 62 31 8b|        .....b1.|        occur: "1983-07-01T00:00:11Z" (425865611) 0xa18-0xa20 (8)
0xa20|00 00 00 0c                                    |....            |        corr: 12 0xa20-0xa24 (4)
     |                                               |                |      [12]{}: leap_second_record 0xa24-0xa30 (12)
0xa20|            00 00 00 00 1d 25 ea 0c            |    .....%..    |        occur: "1985-07-01T00:00:12Z" (489024012) 0xa24-0xa2c (8)
0xa20|                                    00 00 00 0d|            ....|        corr: 13 0xa2c-0xa30 (4)
     |                                               |                |      [13]{}: leap_second_record 0xa30-0xa3c (12)
0xa30|00 00 00 00 21 da e5 0d                        |....!...        |        occur: "1988-01-01T00:00:13Z" (567993613) 0xa30-0xa38 (8)
0xa30|                        00 00 00 0e            |        ....    |        corr: 14 0xa38-0xa3c (4)
     |                                               |                |      [14]{}: leap_second_record 0xa3c-0xa48 (12)
0xa30|                                    00 00 00 00|            ....|        occur: "1990-01-01T00:00:14Z" (631152014) 0xa3c-0xa44 (8)
0xa40|25 9e 9d 8e                                    |%...            |
0xa40|            00 00 00 0f                        |    ....        |        corr: 15 0xa44-0xa48 (4)
     |                                               |                |      [15]{}: leap_second_record 0xa48-0xa54 (12)
0xa40|                        00 00 00 00 27 7f d1 0f|        ....'...|        occur: "1991-01-01T00:00:15Z" (662688015) 0xa48-0xa50 (8)
0xa50|00 00 00 10                                    |....            |        corr: 16 0xa50-0xa54 (4)
     |                                               |                |      [16]{}: leap_second_record 0xa54-0xa60 (12)
0xa50|            00 00 00 00 2a 50 f5 90            |    ....*P..    |        occur: "1992-07-01T00:00:16Z" (709948816) 0xa54-0xa5c (8)
0xa50|                                    00 00 00 11|            ....|        corr: 17 0xa5c-0xa60 (4)
     |                                               |                |      [17]{}: leap_second_record 0xa60-0xa6c (12)
0xa60|00 00 00 00 2c 32 29 11                        |....,2).        |        occur: "1993-07-01T00:00:17Z" (741484817) 0xa60-0xa68 (8)
0xa60|                        00 00 00 12            |        ....    |        corr: 18 0xa68-0xa6c (4)
     |                                               |                |      [18]{}: leap_second_record 0xa6c-0xa78 (12)
0xa60|                                    00 00 00 00|            ....|        occur: "1994-07-01T00:00:18Z" (773020818) 0xa6c-0xa74 (8)
0xa70|2e 13 5c 92                                    |..\.            |
0xa70|            00 00 00 13                        |    ....        |        corr: 19 0xa74-0xa78 (4)
     |                                               |                |      [19]{}: leap_second_record 0xa78-0xa84 (12)
0xa70|                        00 00 00 00 30 e7 24 13|        ....0.$.|        occur: "1996-01-01T00:00:19Z" (820454419) 0xa78-0xa80 (8)
0xa80|00 00 00 14                                    |....            |        corr: 20 0xa80-0xa84 (4)
     |                                               |                |      [20]{}: leap_second_record 0xa84-0xa90 (12)
0xa80|            00 00 00 00 33 b8 48 94            |    ....3.H.    |        occur: "1997-07-01T00:00:20Z" (867715220) 0xa84-0xa8c (8)
0xa80|                                    00 00 00 15|            ....|        corr: 21 0xa8c-0xa90 (4)
     |                                               |                |      [21]{}: leap_second_record 0xa90-0xa9c (12)
0xa90|00 00 00 00 36 8c 10 15                        |....6...        |        occur: "1999-01-01T00:00:21Z" (915148821) 0xa90-0xa98 (8)
0xa90|                        00 00 00 16            |        ....    |        corr: 22 0xa98-0xa9c (4)
     |                                               |                |      [22]{}: leap_second_record 0xa9c-0xaa8 (12)
0xa90|                                    00 00 00 00|            ....|        occur: "2006-01-01T00:00:22Z" (1136073622) 0xa9c-0xaa4 (8)
0xaa0|43 b7 1b 96                                    |C...            |
0xaa0|            00 00 00 17                        |    ....        |        corr: 23 0xaa4-0xaa8 (4)
     |                                               |                |      [23]{}: leap_second_record 0xaa8-0xab4 (12)
0xaa0|                        00 00 00 00 49 5c 07 97|        ....I\..|        occur: "2009-01-01T00:00:23Z" (1230768023) 0xaa8-0xab0 (8)
0xab0|00 00 00 18                                    |....            |        corr: 24 0xab0-0xab4 (4)
     |                                               |                |      [24]{}: leap_second_record 0xab4-0xac0 (12)
0xab0|            00 00 00 00 4f ef 93 18            |    ....O...    |        occur: "2012-07-01T00:00:24Z" (1341100824) 0xab4-0xabc (8)
0xab0|                                    00 00 00 19|            ....|        corr: 25 0xabc-0xac0 (4)
     |                                               |                |      [25]{}: leap_second_record 0xac0-0xacc (12)
0xac0|00 00 00 00 55 93 2d 99                        |....U.-.        |        occur: "2015-07-01T00:00:25Z" (1435708825) 0xac0-0xac8 (8)
0xac0|                        00 00 00 1a            |        ....    |        corr: 26 0xac8-0xacc (4)
     |                                               |                |      [26]{}: leap_second_record 0xacc-0xad8 (12)
0xac0|                                    00 00 00 00|            ....|        occur: "2017-01-01T00:00:26Z" (1483228826) 0xacc-0xad4 (8)
0xad0|58 68 46 9a                                    |XhF.            |
0xad0|            00 00 00 1b                        |    ....        |        corr: 27 0xad4-0xad8 (4)
     |                                               |                |    standard_wall_indicators[0:6]: 0xad8-0xade (6)
0xad0|                        00                     |        .       |      [0]: 0 standard_wall_indicator (valid) 0xad8-0xad9 (1)
0xad0|                           00                  |         .      |      [1]: 0 standard_wall_indicator (valid) 0xad9-0xada (1)
0xad0|                              00               |          .     |      [2]: 0 standard_wall_indicator (valid) 0xada-0xadb (1)
0xad0|                                 00            |           .    |      [3]: 0 standard_wall_indicator (valid) 0xadb-0xadc (1)
0xad0|                                    01         |            .   |      [4]: 1 standard_wall_indicator (valid) 0xadc-0xadd (1)
0xad0|                                       00      |             .  |      [5]: 0 standard_wall_indicator (valid) 0xadd-0xade (1)
     |                                               |                |    ut_local_indicators[0:6]: 0xade-0xae4 (6)
0xad0|                                          00   |              . |      [0]: 0 ut_local_indicator (valid) 0xade-0xadf (1)
0xad0|                                             00|               .|      [1]: 0 ut_local_indicator (valid) 0xadf-0xae0 (1)
0xae0|00                                             |.               |      [2]: 0 ut_local_indicator (valid) 0xae0-0xae1 (1)
0xae0|   00                                          | .              |      [3]: 0 ut_local_indicator (valid) 0xae1-0xae2 (1)
0xae0|      01                                       |  .             |      [4]: 1 ut_local_indicator (valid) 0xae2-0xae3 (1)
0xae0|         00                                    |   .            |      [5]: 0 ut_local_indicator (valid) 0xae3-0xae4 (1)
     |                                               |                |  footer{}: 0xae4-0xae6 (2)
0xae0|            0a                                 |    .           |    nl1: 10 (valid) 0xae4-0xae5 (1)
     |                                               |                |    tz_string: "" 0xae5-0xae5 (0)
0xae0|               0a|                             |     .|         |    nl2: 10 (valid) 0xae5-0xae6 (1)
