$ fq -d tzif dv Galapagos
    |00 01 02 03 04 05 06 07 08 09 0a 0b 0c 0d 0e 0f|0123456789abcdef|.{}: Galapagos (tzif) 0x0-0xed.7 (238)
    |                                               |                |  v1header{}: 0x0-0x2b.7 (44)
0x00|54 5a 69 66                                    |TZif            |    magic: 0x545a6966 (valid) 0x0-0x3.7 (4)
0x00|            32                                 |    2           |    ver: "2" (0x32) (valid) 0x4-0x4.7 (1)
0x00|               00 00 00 00 00 00 00 00 00 00 00|     ...........|    reserved: raw bits 0x5-0x13.7 (15)
0x10|00 00 00 00                                    |....            |
0x10|            00 00 00 00                        |    ....        |    isutcnt: 0 0x14-0x17.7 (4)
0x10|                        00 00 00 00            |        ....    |    isstdcnt: 0 0x18-0x1b.7 (4)
0x10|                                    00 00 00 00|            ....|    leapcnt: 0 0x1c-0x1f.7 (4)
0x20|00 00 00 05                                    |....            |    timecnt: 5 0x20-0x23.7 (4)
0x20|            00 00 00 04                        |    ....        |    typecnt: 4 0x24-0x27.7 (4)
0x20|                        00 00 00 0c            |        ....    |    charcnt: 12 0x28-0x2b.7 (4)
    |                                               |                |  v1datablock{}: 0x2c-0x68.7 (61)
    |                                               |                |    transition_times[0:5]: 0x2c-0x3f.7 (20)
0x20|                                    b6 a4 4c 80|            ..L.|      [0]: "1931-01-01T05:58:24Z" (-1230746496) transition_time 0x2c-0x2f.7 (4)
0x30|1e 18 c4 50                                    |...P            |      [1]: "1986-01-01T05:00:00Z" (504939600) transition_time 0x30-0x33.7 (4)
0x30|            2b 17 0a e0                        |    +...        |      [2]: "1992-11-28T06:00:00Z" (722930400) transition_time 0x34-0x37.7 (4)
0x30|                        2b 71 f4 50            |        +q.P    |      [3]: "1993-02-05T05:00:00Z" (728888400) transition_time 0x38-0x3b.7 (4)
0x30|                                    7f ff ff ff|            ....|      [4]: "2038-01-19T03:14:07Z" (2147483647) transition_time 0x3c-0x3f.7 (4)
    |                                               |                |    transition_types[0:5]: 0x40-0x44.7 (5)
0x40|01                                             |.               |      [0]: 1 transition_type 0x40-0x40.7 (1)
0x40|   03                                          | .              |      [1]: 3 transition_type 0x41-0x41.7 (1)
0x40|      02                                       |  .             |      [2]: 2 transition_type 0x42-0x42.7 (1)
0x40|         03                                    |   .            |      [3]: 3 transition_type 0x43-0x43.7 (1)
0x40|            03                                 |    .           |      [4]: 3 transition_type 0x44-0x44.7 (1)
    |                                               |                |    local_time_type_records[0:4]: 0x45-0x5c.7 (24)
    |                                               |                |      [0]{}: local_time_type 0x45-0x4a.7 (6)
0x40|               ff ff ac 00                     |     ....       |        utoff: -21504 (valid) 0x45-0x48.7 (4)
0x40|                           00                  |         .      |        dst: 0 (valid) 0x49-0x49.7 (1)
0x40|                              00               |          .     |        idx: 0 (valid) 0x4a-0x4a.7 (1)
    |                                               |                |      [1]{}: local_time_type 0x4b-0x50.7 (6)
0x40|                                 ff ff b9 b0   |           .... |        utoff: -18000 (valid) 0x4b-0x4e.7 (4)
0x40|                                             00|               .|        dst: 0 (valid) 0x4f-0x4f.7 (1)
0x50|04                                             |.               |        idx: 4 (valid) 0x50-0x50.7 (1)
    |                                               |                |      [2]{}: local_time_type 0x51-0x56.7 (6)
0x50|   ff ff b9 b0                                 | ....           |        utoff: -18000 (valid) 0x51-0x54.7 (4)
0x50|               01                              |     .          |        dst: 1 (valid) 0x55-0x55.7 (1)
0x50|                  04                           |      .         |        idx: 4 (valid) 0x56-0x56.7 (1)
    |                                               |                |      [3]{}: local_time_type 0x57-0x5c.7 (6)
0x50|                     ff ff ab a0               |       ....     |        utoff: -21600 (valid) 0x57-0x5a.7 (4)
0x50|                                 00            |           .    |        dst: 0 (valid) 0x5b-0x5b.7 (1)
0x50|                                    08         |            .   |        idx: 8 (valid) 0x5c-0x5c.7 (1)
    |                                               |                |    time_zone_designations[0:3]: 0x5d-0x68.7 (12)
0x50|                                       4c 4d 54|             LMT|      [0]: "LMT" time_zone_designation 0x5d-0x60.7 (4)
0x60|00                                             |.               |
0x60|   2d 30 35 00                                 | -05.           |      [1]: "-05" time_zone_designation 0x61-0x64.7 (4)
0x60|               2d 30 36 00                     |     -06.       |      [2]: "-06" time_zone_designation 0x65-0x68.7 (4)
    |                                               |                |    leap_second_records[0:0]: 0x69-NA (0)
    |                                               |                |    standard_wall_indicators[0:0]: 0x69-NA (0)
    |                                               |                |    ut_local_indicators[0:0]: 0x69-NA (0)
    |                                               |                |  v2plusheader{}: 0x69-0x94.7 (44)
0x60|                           54 5a 69 66         |         TZif   |    magic: 0x545a6966 (valid) 0x69-0x6c.7 (4)
0x60|                                       32      |             2  |    ver: "2" (0x32) (valid) 0x6d-0x6d.7 (1)
0x60|                                          00 00|              ..|    reserved: raw bits 0x6e-0x7c.7 (15)
0x70|00 00 00 00 00 00 00 00 00 00 00 00 00         |.............   |
0x70|                                       00 00 00|             ...|    isutcnt: 0 0x7d-0x80.7 (4)
0x80|00                                             |.               |
0x80|   00 00 00 00                                 | ....           |    isstdcnt: 0 0x81-0x84.7 (4)
0x80|               00 00 00 00                     |     ....       |    leapcnt: 0 0x85-0x88.7 (4)
0x80|                           00 00 00 05         |         ....   |    timecnt: 5 0x89-0x8c.7 (4)
0x80|                                       00 00 00|             ...|    typecnt: 4 0x8d-0x90.7 (4)
0x90|04                                             |.               |
0x90|   00 00 00 0c                                 | ....           |    charcnt: 12 0x91-0x94.7 (4)
    |                                               |                |  v2plusdatablock{}: 0x95-0xe5.7 (81)
    |                                               |                |    transition_times[0:5]: 0x95-0xbc.7 (40)
0x90|               ff ff ff ff b6 a4 4c 80         |     ......L.   |      [0]: "1931-01-01T05:58:24Z" (-1230746496) transition_time 0x95-0x9c.7 (8)
0x90|                                       00 00 00|             ...|      [1]: "1986-01-01T05:00:00Z" (504939600) transition_time 0x9d-0xa4.7 (8)
0xa0|00 1e 18 c4 50                                 |....P           |
0xa0|               00 00 00 00 2b 17 0a e0         |     ....+...   |      [2]: "1992-11-28T06:00:00Z" (722930400) transition_time 0xa5-0xac.7 (8)
0xa0|                                       00 00 00|             ...|      [3]: "1993-02-05T05:00:00Z" (728888400) transition_time 0xad-0xb4.7 (8)
0xb0|00 2b 71 f4 50                                 |.+q.P           |
0xb0|               00 00 00 00 7f ff ff ff         |     ........   |      [4]: "2038-01-19T03:14:07Z" (2147483647) transition_time 0xb5-0xbc.7 (8)
    |                                               |                |    transition_types[0:5]: 0xbd-0xc1.7 (5)
0xb0|                                       01      |             .  |      [0]: 1 transition_type 0xbd-0xbd.7 (1)
0xb0|                                          03   |              . |      [1]: 3 transition_type 0xbe-0xbe.7 (1)
0xb0|                                             02|               .|      [2]: 2 transition_type 0xbf-0xbf.7 (1)
0xc0|03                                             |.               |      [3]: 3 transition_type 0xc0-0xc0.7 (1)
0xc0|   03                                          | .              |      [4]: 3 transition_type 0xc1-0xc1.7 (1)
    |                                               |                |    local_time_type_records[0:4]: 0xc2-0xd9.7 (24)
    |                                               |                |      [0]{}: local_time_type 0xc2-0xc7.7 (6)
0xc0|      ff ff ac 00                              |  ....          |        utoff: -21504 (valid) 0xc2-0xc5.7 (4)
0xc0|                  00                           |      .         |        dst: 0 (valid) 0xc6-0xc6.7 (1)
0xc0|                     00                        |       .        |        idx: 0 (valid) 0xc7-0xc7.7 (1)
    |                                               |                |      [1]{}: local_time_type 0xc8-0xcd.7 (6)
0xc0|                        ff ff b9 b0            |        ....    |        utoff: -18000 (valid) 0xc8-0xcb.7 (4)
0xc0|                                    00         |            .   |        dst: 0 (valid) 0xcc-0xcc.7 (1)
0xc0|                                       04      |             .  |        idx: 4 (valid) 0xcd-0xcd.7 (1)
    |                                               |                |      [2]{}: local_time_type 0xce-0xd3.7 (6)
0xc0|                                          ff ff|              ..|        utoff: -18000 (valid) 0xce-0xd1.7 (4)
0xd0|b9 b0                                          |..              |
0xd0|      01                                       |  .             |        dst: 1 (valid) 0xd2-0xd2.7 (1)
0xd0|         04                                    |   .            |        idx: 4 (valid) 0xd3-0xd3.7 (1)
    |                                               |                |      [3]{}: local_time_type 0xd4-0xd9.7 (6)
0xd0|            ff ff ab a0                        |    ....        |        utoff: -21600 (valid) 0xd4-0xd7.7 (4)
0xd0|                        00                     |        .       |        dst: 0 (valid) 0xd8-0xd8.7 (1)
0xd0|                           08                  |         .      |        idx: 8 (valid) 0xd9-0xd9.7 (1)
    |                                               |                |    time_zone_designations[0:3]: 0xda-0xe5.7 (12)
0xd0|                              4c 4d 54 00      |          LMT.  |      [0]: "LMT" time_zone_designation 0xda-0xdd.7 (4)
0xd0|                                          2d 30|              -0|      [1]: "-05" time_zone_designation 0xde-0xe1.7 (4)
0xe0|35 00                                          |5.              |
0xe0|      2d 30 36 00                              |  -06.          |      [2]: "-06" time_zone_designation 0xe2-0xe5.7 (4)
    |                                               |                |    leap_second_records[0:0]: 0xe6-NA (0)
    |                                               |                |    standard_wall_indicators[0:0]: 0xe6-NA (0)
    |                                               |                |    ut_local_indicators[0:0]: 0xe6-NA (0)
    |                                               |                |  footer{}: 0xe6-0xed.7 (8)
0xe0|                  0a                           |      .         |    nl1: 10 (valid) 0xe6-0xe6.7 (1)
0xe0|                     3c 2d 30 36 3e 36         |       <-06>6   |    tz_string: "<-06>6" 0xe7-0xec.7 (6)
0xe0|                                       0a|     |             .| |    nl2: 10 (valid) 0xed-0xed.7 (1)
