$ fq -d tzif dv Gambier
    |00 01 02 03 04 05 06 07 08 09 0a 0b 0c 0d 0e 0f|0123456789abcdef|.{}: Gambier (tzif) 0x0-0xa4 (164)
    |                                               |                |  v1header{}: 0x0-0x2c (44)
0x00|54 5a 69 66                                    |TZif            |    magic: 0x545a6966 (valid) 0x0-0x4 (4)
0x00|            32                                 |    2           |    ver: "2" (0x32) (valid) 0x4-0x5 (1)
0x00|               00 00 00 00 00 00 00 00 00 00 00|     ...........|    reserved: raw bits 0x5-0x14 (15)
0x10|00 00 00 00                                    |....            |
0x10|            00 00 00 00                        |    ....        |    isutcnt: 0 0x14-0x18 (4)
0x10|                        00 00 00 00            |        ....    |    isstdcnt: 0 0x18-0x1c (4)
0x10|                                    00 00 00 00|            ....|    leapcnt: 0 0x1c-0x20 (4)
0x20|00 00 00 02                                    |....            |    timecnt: 2 0x20-0x24 (4)
0x20|            00 00 00 02                        |    ....        |    typecnt: 2 0x24-0x28 (4)
0x20|                        00 00 00 08            |        ....    |    charcnt: 8 0x28-0x2c (4)
    |                                               |                |  v1datablock{}: 0x2c-0x4a (30)
    |                                               |                |    transition_times[0:2]: 0x2c-0x34 (8)
0x20|                                    94 50 48 04|            .PH.|      [0]: "1912-10-01T08:59:48Z" (-1806678012) transition_time 0x2c-0x30 (4)
0x30|7f ff ff ff                                    |....            |      [1]: "2038-01-19T03:14:07Z" (2147483647) transition_time 0x30-0x34 (4)
    |                                               |                |    transition_types[0:2]: 0x34-0x36 (2)
0x30|            01                                 |    .           |      [0]: 1 transition_type 0x34-0x35 (1)
0x30|               01                              |     .          |      [1]: 1 transition_type 0x35-0x36 (1)
    |                                               |                |    local_time_type_records[0:2]: 0x36-0x42 (12)
    |                                               |                |      [0]{}: local_time_type 0x36-0x3c (6)
0x30|                  ff ff 81 7c                  |      ...|      |        utoff: -32388 (valid) 0x36-0x3a (4)
0x30|                              00               |          .     |        dst: 0 (valid) 0x3a-0x3b (1)
0x30|                                 00            |           .    |        idx: 0 (valid) 0x3b-0x3c (1)
    |                                               |                |      [1]{}: local_time_type 0x3c-0x42 (6)
0x30|                                    ff ff 81 70|            ...p|        utoff: -32400 (valid) 0x3c-0x40 (4)
0x40|00                                             |.               |        dst: 0 (valid) 0x40-0x41 (1)
0x40|   04                                          | .              |        idx: 4 (valid) 0x41-0x42 (1)
    |                                               |                |    time_zone_designations[0:2]: 0x42-0x4a (8)
0x40|      4c 4d 54 00                              |  LMT.          |      [0]: "LMT" time_zone_designation 0x42-0x46 (4)
0x40|                  2d 30 39 00                  |      -09.      |      [1]: "-09" time_zone_designation 0x46-0x4a (4)
    |                                               |                |    leap_second_records[0:0]: 0x4a-0x4a (0)
    |                                               |                |    standard_wall_indicators[0:0]: 0x4a-0x4a (0)
    |                                               |                |    ut_local_indicators[0:0]: 0x4a-0x4a (0)
    |                                               |                |  v2plusheader{}: 0x4a-0x76 (44)
0x40|                              54 5a 69 66      |          TZif  |    magic: 0x545a6966 (valid) 0x4a-0x4e (4)
0x40|                                          32   |              2 |    ver: "2" (0x32) (valid) 0x4e-0x4f (1)
0x40|                                             00|               .|    reserved: raw bits 0x4f-0x5e (15)
0x50|00 00 00 00 00 00 00 00 00 00 00 00 00 00      |..............  |
0x50|                                          00 00|              ..|    isutcnt: 0 0x5e-0x62 (4)
0x60|00 00                                          |..              |
0x60|      00 00 00 00                              |  ....          |    isstdcnt: 0 0x62-0x66 (4)
0x60|                  00 00 00 00                  |      ....      |    leapcnt: 0 0x66-0x6a (4)
0x60|                              00 00 00 02      |          ....  |    timecnt: 2 0x6a-0x6e (4)
0x60|                                          00 00|              ..|    typecnt: 2 0x6e-0x72 (4)
0x70|00 02                                          |..              |
0x70|      00 00 00 08                              |  ....          |    charcnt: 8 0x72-0x76 (4)
    |                                               |                |  v2plusdatablock{}: 0x76-0x9c (38)
    |                                               |                |    transition_times[0:2]: 0x76-0x86 (16)
0x70|                  ff ff ff ff 94 50 48 04      |      .....PH.  |      [0]: "1912-10-01T08:59:48Z" (-1806678012) transition_time 0x76-0x7e (8)
0x70|                                          00 00|              ..|      [1]: "2038-01-19T03:14:07Z" (2147483647) transition_time 0x7e-0x86 (8)
0x80|00 00 7f ff ff ff                              |......          |
    |                                               |                |    transition_types[0:2]: 0x86-0x88 (2)
0x80|                  01                           |      .         |      [0]: 1 transition_type 0x86-0x87 (1)
0x80|                     01                        |       .        |      [1]: 1 transition_type 0x87-0x88 (1)
    |                                               |                |    local_time_type_records[0:2]: 0x88-0x94 (12)
    |                                               |                |      [0]{}: local_time_type 0x88-0x8e (6)
0x80|                        ff ff 81 7c            |        ...|    |        utoff: -32388 (valid) 0x88-0x8c (4)
0x80|                                    00         |            .   |        dst: 0 (valid) 0x8c-0x8d (1)
0x80|                                       00      |             .  |        idx: 0 (valid) 0x8d-0x8e (1)
    |                                               |                |      [1]{}: local_time_type 0x8e-0x94 (6)
0x80|                                          ff ff|              ..|        utoff: -32400 (valid) 0x8e-0x92 (4)
0x90|81 70                                          |.p              |
0x90|      00                                       |  .             |        dst: 0 (valid) 0x92-0x93 (1)
0x90|         04                                    |   .            |        idx: 4 (valid) 0x93-0x94 (1)
    |                                               |                |    time_zone_designations[0:2]: 0x94-0x9c (8)
0x90|            4c 4d 54 00                        |    LMT.        |      [0]: "LMT" time_zone_designation 0x94-0x98 (4)
0x90|                        2d 30 39 00            |        -09.    |      [1]: "-09" time_zone_designation 0x98-0x9c (4)
    |                                               |                |    leap_second_records[0:0]: 0x9c-0x9c (0)
    |                                               |                |    standard_wall_indicators[0:0]: 0x9c-0x9c (0)
    |                                               |                |    ut_local_indicators[0:0]: 0x9c-0x9c (0)
    |                                               |                |  footer{}: 0x9c-0xa4 (8)
0x90|                                    0a         |            .   |    nl1: 10 (valid) 0x9c-0x9d (1)
0x90|                                       3c 2d 30|             <-0|    tz_string: "<-09>9" 0x9d-0xa3 (6)
0xa0|39 3e 39                                       |9>9             |
0xa0|         0a|                                   |   .|           |    nl2: 10 (valid) 0xa3-0xa4 (1)
