$ fq -d tzif dv Gaza
     |00 01 02 03 04 05 06 07 08 09 0a 0b 0c 0d 0e 0f|0123456789abcdef|.{}: Gaza (tzif) 0x0-0x9ec (2540)
     |                                               |                |  v1header{}: 0x0-0x2c (44)
0x000|54 5a 69 66                                    |TZif            |    magic: 0x545a6966 (valid) 0x0-0x4 (4)
0x000|            32                                 |    2           |    ver: "2" (0x32) (valid) 0x4-0x5 (1)
0x000|               00 00 00 00 00 00 00 00 00 00 00|     ...........|    reserved: raw bits 0x5-0x14 (15)
0x010|00 00 00 00                                    |....            |
0x010|            00 00 00 0a                        |    ....        |    isutcnt: 10 0x14-0x18 (4)
0x010|                        00 00 00 0a            |        ....    |    isstdcnt: 10 0x18-0x1c (4)
0x010|                                    00 00 00 1b|            ....|    leapcnt: 27 0x1c-0x20 (4)
0x020|00 00 00 7a                                    |...z            |    timecnt: 122 0x20-0x24 (4)
0x020|            00 00 00 0a                        |    ....        |    typecnt: 10 0x24-0x28 (4)
0x020|                        00 00 00 15            |        ....    |    charcnt: 21 0x28-0x2c (4)
     |                                               |                |  v1datablock{}: 0x2c-0x3cb (927)
     |                                               |                |    transition_times[0:122]: 0x2c-0x214 (488)
0x020|                                    80 00 00 00|            ....|      [0]: "1901-12-13T20:45:52Z" (-2147483648) transition_time 0x2c-0x30 (4)
0x030|c8 59 cf 00                                    |.Y..            |      [1]: "1940-06-01T00:00:00Z" (-933638400) transition_time 0x30-0x34 (4)
0x030|            c8 fa a6 00                        |    ....        |      [2]: "1940-10-01T00:00:00Z" (-923097600) transition_time 0x34-0x38 (4)
0x030|                        c9 38 9c 80            |        .8..    |      [3]: "1940-11-17T00:00:00Z" (-919036800) transition_time 0x38-0x3c (4)
0x030|                                    cc e5 eb 80|            ....|      [4]: "1942-11-01T00:00:00Z" (-857347200) transition_time 0x3c-0x40 (4)
0x040|cd ac fe 00                                    |....            |      [5]: "1943-04-01T00:00:00Z" (-844300800) transition_time 0x40-0x44 (4)
0x040|            ce c7 1f 00                        |    ....        |      [6]: "1943-11-01T00:00:00Z" (-825811200) transition_time 0x44-0x48 (4)
0x040|                        cf 8f 83 00            |        ....    |      [7]: "1944-04-01T00:00:00Z" (-812678400) transition_time 0x48-0x4c (4)
0x040|                                    d0 a9 a4 00|            ....|      [8]: "1944-11-01T00:00:00Z" (-794188800) transition_time 0x4c-0x50 (4)
0x050|d1 84 7d 00                                    |..}.            |      [9]: "1945-04-16T00:00:00Z" (-779846400) transition_time 0x50-0x54 (4)
0x050|            d2 8a d7 80                        |    ....        |      [10]: "1945-11-01T00:00:00Z" (-762652800) transition_time 0x54-0x58 (4)
0x050|                        d3 65 b0 80            |        .e..    |      [11]: "1946-04-16T00:00:00Z" (-748310400) transition_time 0x58-0x5c (4)
0x050|                                    d4 6c 0b 00|            .l..|      [12]: "1946-11-01T00:00:00Z" (-731116800) transition_time 0x5c-0x60 (4)
0x060|e8 36 63 60                                    |.6c`            |      [13]: "1957-05-09T22:00:00Z" (-399088800) transition_time 0x60-0x64 (4)
0x060|            e8 f4 2d 50                        |    ..-P        |      [14]: "1957-09-30T21:00:00Z" (-386650800) transition_time 0x64-0x68 (4)
0x060|                        ea 0b b9 60            |        ...`    |      [15]: "1958-04-30T22:00:00Z" (-368330400) transition_time 0x68-0x6c (4)
0x060|                                    ea d5 60 d0|            ..`.|      [16]: "1958-09-30T21:00:00Z" (-355114800) transition_time 0x6c-0x70 (4)
0x070|eb ec fa f0                                    |....            |      [17]: "1959-04-30T23:00:00Z" (-336790800) transition_time 0x70-0x74 (4)
0x070|            ec b5 6d 00                        |    ..m.        |      [18]: "1959-09-30T00:00:00Z" (-323654400) transition_time 0x74-0x78 (4)
0x070|                        ed cf 7f f0            |        ....    |      [19]: "1960-04-30T23:00:00Z" (-305168400) transition_time 0x78-0x7c (4)
0x070|                                    ee 97 f2 00|            ....|      [20]: "1960-09-30T00:00:00Z" (-292032000) transition_time 0x7c-0x80 (4)
0x080|ef b0 b3 70                                    |...p            |      [21]: "1961-04-30T23:00:00Z" (-273632400) transition_time 0x80-0x84 (4)
0x080|            f0 79 25 80                        |    .y%.        |      [22]: "1961-09-30T00:00:00Z" (-260496000) transition_time 0x84-0x88 (4)
0x080|                        f1 91 e6 f0            |        ....    |      [23]: "1962-04-30T23:00:00Z" (-242096400) transition_time 0x88-0x8c (4)
0x080|                                    f2 5a 59 00|            .ZY.|      [24]: "1962-09-30T00:00:00Z" (-228960000) transition_time 0x8c-0x90 (4)
0x090|f3 73 1a 70                                    |.s.p            |      [25]: "1963-04-30T23:00:00Z" (-210560400) transition_time 0x90-0x94 (4)
0x090|            f4 3b 8c 80                        |    .;..        |      [26]: "1963-09-30T00:00:00Z" (-197424000) transition_time 0x94-0x98 (4)
0x090|                        f5 55 9f 70            |        .U.p    |      [27]: "1964-04-30T23:00:00Z" (-178938000) transition_time 0x98-0x9c (4)
0x090|                                    f6 1e 11 80|            ....|      [28]: "1964-09-30T00:00:00Z" (-165801600) transition_time 0x9c-0xa0 (4)
0x0a0|f7 36 d2 f0                                    |.6..            |      [29]: "1965-04-30T23:00:00Z" (-147402000) transition_time 0xa0-0xa4 (4)
0x0a0|            f7 ff 45 00                        |    ..E.        |      [30]: "1965-09-30T00:00:00Z" (-134265600) transition_time 0xa4-0xa8 (4)
0x0a0|                        f9 18 06 70            |        ...p    |      [31]: "1966-04-30T23:00:00Z" (-115866000) transition_time 0xa8-0xac (4)
0x0a0|                                    f9 e1 ca 00|            ....|      [32]: "1966-10-01T00:00:00Z" (-102643200) transition_time 0xac-0xb0 (4)
0x0b0|fa f9 39 f0                                    |..9.            |      [33]: "1967-04-30T23:00:00Z" (-84330000) transition_time 0xb0-0xb4 (4)
0x0b0|            fb 27 42 50                        |    .'BP        |      [34]: "1967-06-04T21:00:00Z" (-81313200) transition_time 0xb4-0xb8 (4)
0x0b0|                        08 7c 8b e3            |        .|..    |      [35]: "1974-07-06T22:00:03Z" (142380003) transition_time 0xb8-0xbc (4)
0x0b0|                                    08 fd b0 d3|            ....|      [36]: "1974-10-12T21:00:03Z" (150843603) transition_time 0xbc-0xc0 (4)
0x0c0|09 f6 ea 64                                    |...d            |      [37]: "1975-04-19T22:00:04Z" (167176804) transition_time 0xc0-0xc4 (4)
0x0c0|            0a a6 33 d4                        |    ..3.        |      [38]: "1975-08-30T21:00:04Z" (178664404) transition_time 0xc4-0xc8 (4)
0x0c0|                        13 e9 fc 69            |        ...i    |      [39]: "1980-08-02T22:00:09Z" (334101609) transition_time 0xc8-0xcc (4)
0x0c0|                                    14 21 5b 69|            .![i|      [40]: "1980-09-13T22:00:09Z" (337730409) transition_time 0xcc-0xd0 (4)
0x0d0|1a fa c6 6c                                    |...l            |      [41]: "1984-05-05T22:00:12Z" (452642412) transition_time 0xd0-0xd4 (4)
0x0d0|            1b 8e 6e 6c                        |    ..nl        |      [42]: "1984-08-25T22:00:12Z" (462319212) transition_time 0xd4-0xd8 (4)
0x0d0|                        1c be f8 ec            |        ....    |      [43]: "1985-04-13T22:00:12Z" (482277612) transition_time 0xd8-0xdc (4)
0x0d0|                                    1d 77 7c dd|            .w|.|      [44]: "1985-08-31T21:00:13Z" (494370013) transition_time 0xdc-0xe0 (4)
0x0e0|1e cc ff 6d                                    |...m            |      [45]: "1986-05-17T22:00:13Z" (516751213) transition_time 0xe0-0xe4 (4)
0x0e0|            1f 60 99 5d                        |    .`.]        |      [46]: "1986-09-06T21:00:13Z" (526424413) transition_time 0xe4-0xe8 (4)
0x0e0|                        20 82 b1 6d            |         ..m    |      [47]: "1987-04-14T22:00:13Z" (545436013) transition_time 0xe8-0xec (4)
0x0e0|                                    21 49 b5 dd|            !I..|      [48]: "1987-09-12T21:00:13Z" (558478813) transition_time 0xec-0xf0 (4)
0x0f0|22 5e 9e ee                                    |"^..            |      [49]: "1988-04-09T22:00:14Z" (576626414) transition_time 0xf0-0xf4 (4)
0x0f0|            23 20 5d 5e                        |    # ]^        |      [50]: "1988-09-03T21:00:14Z" (589323614) transition_time 0xf4-0xf8 (4)
0x0f0|                        24 5a 30 6e            |        $Z0n    |      [51]: "1989-04-29T22:00:14Z" (609890414) transition_time 0xf8-0xfc (4)
0x0f0|                                    25 00 3f 5e|            %.?^|      [52]: "1989-09-02T21:00:14Z" (620773214) transition_time 0xfc-0x100 (4)
0x100|26 0b ed ef                                    |&...            |      [53]: "1990-03-24T22:00:15Z" (638316015) transition_time 0x100-0x104 (4)
0x100|            26 d6 e6 df                        |    &...        |      [54]: "1990-08-25T21:00:15Z" (651618015) transition_time 0x104-0x108 (4)
0x100|                        27 eb cf f0            |        '...    |      [55]: "1991-03-23T22:00:16Z" (669765616) transition_time 0x108-0x10c (4)
0x100|                                    28 c0 03 60|            (..`|      [56]: "1991-08-31T21:00:16Z" (683672416) transition_time 0x10c-0x110 (4)
0x110|29 d4 ec 70                                    |)..p            |      [57]: "1992-03-28T22:00:16Z" (701820016) transition_time 0x110-0x114 (4)
0x110|            2a a9 1f e1                        |    *...        |      [58]: "1992-09-05T21:00:17Z" (715726817) transition_time 0x114-0x118 (4)
0x110|                        2b bb 65 f1            |        +.e.    |      [59]: "1993-04-01T22:00:17Z" (733701617) transition_time 0x118-0x11c (4)
0x110|                                    2c 89 01 e2|            ,...|      [60]: "1993-09-04T21:00:18Z" (747176418) transition_time 0x11c-0x120 (4)
0x120|2d 9b 47 f2                                    |-.G.            |      [61]: "1994-03-31T22:00:18Z" (765151218) transition_time 0x120-0x124 (4)
0x120|            2e 5f a9 63                        |    ._.c        |      [62]: "1994-08-27T21:00:19Z" (778021219) transition_time 0x124-0x128 (4)
0x120|                        2f 7b 29 f3            |        /{).    |      [63]: "1995-03-30T22:00:19Z" (796600819) transition_time 0x128-0x12c (4)
0x120|                                    30 48 c5 e3|            0H..|      [64]: "1995-09-02T21:00:19Z" (810075619) transition_time 0x12c-0x130 (4)
0x130|30 e7 07 f3                                    |0...            |      [65]: "1995-12-31T22:00:19Z" (820447219) transition_time 0x130-0x134 (4)
0x130|            31 64 46 74                        |    1dFt        |      [66]: "1996-04-04T22:00:20Z" (828655220) transition_time 0x134-0x138 (4)
0x130|                        32 41 c2 74            |        2A.t    |      [67]: "1996-09-19T22:00:20Z" (843170420) transition_time 0x138-0x13c (4)
0x130|                                    33 44 28 74|            3D(t|      [68]: "1997-04-03T22:00:20Z" (860104820) transition_time 0x13c-0x140 (4)
0x140|34 21 a4 75                                    |4!.u            |      [69]: "1997-09-18T22:00:21Z" (874620021) transition_time 0x140-0x144 (4)
0x140|            35 24 0a 75                        |    5$.u        |      [70]: "1998-04-02T22:00:21Z" (891554421) transition_time 0x144-0x148 (4)
0x140|                        36 01 86 75            |        6..u    |      [71]: "1998-09-17T22:00:21Z" (906069621) transition_time 0x148-0x14c (4)
0x140|                                    37 16 61 76|            7.av|      [72]: "1999-04-15T22:00:22Z" (924213622) transition_time 0x14c-0x150 (4)
0x150|38 06 44 66                                    |8.Df            |      [73]: "1999-10-14T21:00:22Z" (939934822) transition_time 0x150-0x154 (4)
0x150|            38 ff 7d f6                        |    8.}.        |      [74]: "2000-04-20T22:00:22Z" (956268022) transition_time 0x154-0x158 (4)
0x150|                        39 ef 60 e6            |        9.`.    |      [75]: "2000-10-19T21:00:22Z" (971989222) transition_time 0x158-0x15c (4)
0x150|                                    3a df 5f f6|            :._.|      [76]: "2001-04-19T22:00:22Z" (987717622) transition_time 0x15c-0x160 (4)
0x160|3b cf 42 e6                                    |;.B.            |      [77]: "2001-10-18T21:00:22Z" (1003438822) transition_time 0x160-0x164 (4)
0x160|            3c bf 41 f6                        |    <.A.        |      [78]: "2002-04-18T22:00:22Z" (1019167222) transition_time 0x164-0x168 (4)
0x160|                        3d af 24 e6            |        =.$.    |      [79]: "2002-10-17T21:00:22Z" (1034888422) transition_time 0x168-0x16c (4)
0x160|                                    3e 9f 23 f6|            >.#.|      [80]: "2003-04-17T22:00:22Z" (1050616822) transition_time 0x16c-0x170 (4)
0x170|3f 8f 06 e6                                    |?...            |      [81]: "2003-10-16T21:00:22Z" (1066338022) transition_time 0x170-0x174 (4)
0x170|            40 7f 05 f6                        |    @...        |      [82]: "2004-04-15T22:00:22Z" (1082066422) transition_time 0x174-0x178 (4)
0x170|                        41 5c 81 f6            |        A\..    |      [83]: "2004-09-30T22:00:22Z" (1096581622) transition_time 0x178-0x17c (4)
0x170|                                    42 5e e7 f6|            B^..|      [84]: "2005-04-14T22:00:22Z" (1113516022) transition_time 0x17c-0x180 (4)
0x180|43 41 b8 06                                    |CA..            |      [85]: "2005-10-03T23:00:22Z" (1128380422) transition_time 0x180-0x184 (4)
0x180|            44 2d a6 77                        |    D-.w        |      [86]: "2006-03-31T22:00:23Z" (1143842423) transition_time 0x184-0x188 (4)
0x180|                        45 12 fd 67            |        E..g    |      [87]: "2006-09-21T21:00:23Z" (1158872423) transition_time 0x188-0x18c (4)
0x180|                                    46 0e d9 f7|            F...|      [88]: "2007-03-31T22:00:23Z" (1175378423) transition_time 0x18c-0x190 (4)
0x190|46 e8 6f 87                                    |F.o.            |      [89]: "2007-09-12T23:00:23Z" (1189638023) transition_time 0x190-0x194 (4)
0x190|            47 ec 18 f7                        |    G...        |      [90]: "2008-03-27T22:00:23Z" (1206655223) transition_time 0x194-0x198 (4)
0x190|                        48 b7 11 e7            |        H...    |      [91]: "2008-08-28T21:00:23Z" (1219957223) transition_time 0x198-0x19c (4)
0x190|                                    49 cb fa f8|            I...|      [92]: "2009-03-26T22:00:24Z" (1238104824) transition_time 0x19c-0x1a0 (4)
0x1a0|4a a0 3c 78                                    |J.<x            |      [93]: "2009-09-03T22:00:24Z" (1252015224) transition_time 0x1a0-0x1a4 (4)
0x1a0|            4b ad 2e b4                        |    K...        |      [94]: "2010-03-26T22:01:24Z" (1269640884) transition_time 0x1a4-0x1a8 (4)
0x1a0|                        4c 61 bd e8            |        La..    |      [95]: "2010-08-10T21:00:24Z" (1281474024) transition_time 0x1a8-0x1ac (4)
0x1a0|                                    4d 94 f9 b4|            M...|      [96]: "2011-03-31T22:01:24Z" (1301608884) transition_time 0x1ac-0x1b0 (4)
0x1b0|4e 35 c2 68                                    |N5.h            |      [97]: "2011-07-31T21:00:24Z" (1312146024) transition_time 0x1b0-0x1b4 (4)
0x1b0|            4f 74 db 78                        |    Ot.x        |      [98]: "2012-03-29T22:00:24Z" (1333058424) transition_time 0x1b4-0x1b8 (4)
0x1b0|                        50 5b 91 f9            |        P[..    |      [99]: "2012-09-20T22:00:25Z" (1348178425) transition_time 0x1b8-0x1bc (4)
0x1b0|                                    51 54 bd 79|            QT.y|      [100]: "2013-03-28T22:00:25Z" (1364508025) transition_time 0x1bc-0x1c0 (4)
0x1c0|52 44 a0 69                                    |RD.i            |      [101]: "2013-09-26T21:00:25Z" (1380229225) transition_time 0x1c0-0x1c4 (4)
0x1c0|            53 34 9f 79                        |    S4.y        |      [102]: "2014-03-27T22:00:25Z" (1395957625) transition_time 0x1c4-0x1c8 (4)
0x1c0|                        54 49 6c 69            |        TIli    |      [103]: "2014-10-23T21:00:25Z" (1414098025) transition_time 0x1c8-0x1cc (4)
0x1c0|                                    55 15 d2 f9|            U...|      [104]: "2015-03-27T22:00:25Z" (1427493625) transition_time 0x1cc-0x1d0 (4)
0x1d0|56 29 5c 7a                                    |V)\z            |      [105]: "2015-10-22T22:00:26Z" (1445551226) transition_time 0x1d0-0x1d4 (4)
0x1d0|            56 f5 c3 0a                        |    V...        |      [106]: "2016-03-25T23:00:26Z" (1458946826) transition_time 0x1d4-0x1d8 (4)
0x1d0|                        58 13 ca 7a            |        X..z    |      [107]: "2016-10-28T22:00:26Z" (1477692026) transition_time 0x1d8-0x1dc (4)
0x1d0|                                    58 d5 a5 0b|            X...|      [108]: "2017-03-24T23:00:27Z" (1490396427) transition_time 0x1dc-0x1e0 (4)
0x1e0|59 f3 ac 7b                                    |Y..{            |      [109]: "2017-10-27T22:00:27Z" (1509141627) transition_time 0x1e0-0x1e4 (4)
0x1e0|            5a b5 87 0b                        |    Z...        |      [110]: "2018-03-23T23:00:27Z" (1521846027) transition_time 0x1e4-0x1e8 (4)
0x1e0|                        5b d3 8e 7b            |        [..{    |      [111]: "2018-10-26T22:00:27Z" (1540591227) transition_time 0x1e8-0x1ec (4)
0x1e0|                                    5c 9d 43 fb|            \.C.|      [112]: "2019-03-28T22:00:27Z" (1553810427) transition_time 0x1ec-0x1f0 (4)
0x1f0|5d b3 62 6b                                    |].bk            |      [113]: "2019-10-25T21:00:27Z" (1572037227) transition_time 0x1f0-0x1f4 (4)
0x1f0|            5e 7e 77 7b                        |    ^~w{        |      [114]: "2020-03-27T22:00:27Z" (1585346427) transition_time 0x1f4-0x1f8 (4)
0x1f0|                        5f 93 52 7b            |        _.R{    |      [115]: "2020-10-23T22:00:27Z" (1603490427) transition_time 0x1f8-0x1fc (4)
0x1f0|                                    60 5e 59 7b|            `^Y{|      [116]: "2021-03-26T22:00:27Z" (1616796027) transition_time 0x1fc-0x200 (4)
0x200|61 7b 1d 7b                                    |a{.{            |      [117]: "2021-10-28T22:00:27Z" (1635458427) transition_time 0x200-0x204 (4)
0x200|            62 3f 8c fb                        |    b?..        |      [118]: "2022-03-26T22:00:27Z" (1648332027) transition_time 0x204-0x208 (4)
0x200|                        63 5c 5f 0b            |        c\_.    |      [119]: "2022-10-28T23:00:27Z" (1666998027) transition_time 0x208-0x20c (4)
0x200|                                    64 1e 39 9b|            d.9.|      [120]: "2023-03-25T00:00:27Z" (1679702427) transition_time 0x20c-0x210 (4)
0x210|64 9b 78 1b                                    |d.x.            |      [121]: "2023-06-28T00:00:27Z" (1687910427) transition_time 0x210-0x214 (4)
     |                                               |                |    transition_types[0:122]: 0x214-0x28e (122)
0x210|            03                                 |    .           |      [0]: 3 transition_type 0x214-0x215 (1)
0x210|               01                              |     .          |      [1]: 1 transition_type 0x215-0x216 (1)
0x210|                  02                           |      .         |      [2]: 2 transition_type 0x216-0x217 (1)
0x210|                     01                        |       .        |      [3]: 1 transition_type 0x217-0x218 (1)
0x210|                        02                     |        .       |      [4]: 2 transition_type 0x218-0x219 (1)
0x210|                           01                  |         .      |      [5]: 1 transition_type 0x219-0x21a (1)
0x210|                              02               |          .     |      [6]: 2 transition_type 0x21a-0x21b (1)
0x210|                                 01            |           .    |      [7]: 1 transition_type 0x21b-0x21c (1)
0x210|                                    02         |            .   |      [8]: 2 transition_type 0x21c-0x21d (1)
0x210|                                       01      |             .  |      [9]: 1 transition_type 0x21d-0x21e (1)
0x210|                                          02   |              . |      [10]: 2 transition_type 0x21e-0x21f (1)
0x210|                                             01|               .|      [11]: 1 transition_type 0x21f-0x220 (1)
0x220|02                                             |.               |      [12]: 2 transition_type 0x220-0x221 (1)
0x220|   04                                          | .              |      [13]: 4 transition_type 0x221-0x222 (1)
0x220|      03                                       |  .             |      [14]: 3 transition_type 0x222-0x223 (1)
0x220|         04                                    |   .            |      [15]: 4 transition_type 0x223-0x224 (1)
0x220|            03                                 |    .           |      [16]: 3 transition_type 0x224-0x225 (1)
0x220|               04                              |     .          |      [17]: 4 transition_type 0x225-0x226 (1)
0x220|                  03                           |      .         |      [18]: 3 transition_type 0x226-0x227 (1)
0x220|                     04                        |       .        |      [19]: 4 transition_type 0x227-0x228 (1)
0x220|                        03                     |        .       |      [20]: 3 transition_type 0x228-0x229 (1)
0x220|                           04                  |         .      |      [21]: 4 transition_type 0x229-0x22a (1)
0x220|                              03               |          .     |      [22]: 3 transition_type 0x22a-0x22b (1)
0x220|                                 04            |           .    |      [23]: 4 transition_type 0x22b-0x22c (1)
0x220|                                    03         |            .   |      [24]: 3 transition_type 0x22c-0x22d (1)
0x220|                                       04      |             .  |      [25]: 4 transition_type 0x22d-0x22e (1)
0x220|                                          03   |              . |      [26]: 3 transition_type 0x22e-0x22f (1)
0x220|                                             04|               .|      [27]: 4 transition_type 0x22f-0x230 (1)
0x230|03                                             |.               |      [28]: 3 transition_type 0x230-0x231 (1)
0x230|   04                                          | .              |      [29]: 4 transition_type 0x231-0x232 (1)
0x230|      03                                       |  .             |      [30]: 3 transition_type 0x232-0x233 (1)
0x230|         04                                    |   .            |      [31]: 4 transition_type 0x233-0x234 (1)
0x230|            03                                 |    .           |      [32]: 3 transition_type 0x234-0x235 (1)
0x230|               04                              |     .          |      [33]: 4 transition_type 0x235-0x236 (1)
0x230|                  06                           |      .         |      [34]: 6 transition_type 0x236-0x237 (1)
0x230|                     05                        |       .        |      [35]: 5 transition_type 0x237-0x238 (1)
0x230|                        06                     |        .       |      [36]: 6 transition_type 0x238-0x239 (1)
0x230|                           05                  |         .      |      [37]: 5 transition_type 0x239-0x23a (1)
0x230|                              06               |          .     |      [38]: 6 transition_type 0x23a-0x23b (1)
0x230|                                 07            |           .    |      [39]: 7 transition_type 0x23b-0x23c (1)
0x230|                                    08         |            .   |      [40]: 8 transition_type 0x23c-0x23d (1)
0x230|                                       07      |             .  |      [41]: 7 transition_type 0x23d-0x23e (1)
0x230|                                          08   |              . |      [42]: 8 transition_type 0x23e-0x23f (1)
0x230|                                             05|               .|      [43]: 5 transition_type 0x23f-0x240 (1)
0x240|06                                             |.               |      [44]: 6 transition_type 0x240-0x241 (1)
0x240|   05                                          | .              |      [45]: 5 transition_type 0x241-0x242 (1)
0x240|      06                                       |  .             |      [46]: 6 transition_type 0x242-0x243 (1)
0x240|         05                                    |   .            |      [47]: 5 transition_type 0x243-0x244 (1)
0x240|            06                                 |    .           |      [48]: 6 transition_type 0x244-0x245 (1)
0x240|               05                              |     .          |      [49]: 5 transition_type 0x245-0x246 (1)
0x240|                  06                           |      .         |      [50]: 6 transition_type 0x246-0x247 (1)
0x240|                     05                        |       .        |      [51]: 5 transition_type 0x247-0x248 (1)
0x240|                        06                     |        .       |      [52]: 6 transition_type 0x248-0x249 (1)
0x240|                           05                  |         .      |      [53]: 5 transition_type 0x249-0x24a (1)
0x240|                              06               |          .     |      [54]: 6 transition_type 0x24a-0x24b (1)
0x240|                                 05            |           .    |      [55]: 5 transition_type 0x24b-0x24c (1)
0x240|                                    06         |            .   |      [56]: 6 transition_type 0x24c-0x24d (1)
0x240|                                       05      |             .  |      [57]: 5 transition_type 0x24d-0x24e (1)
0x240|                                          06   |              . |      [58]: 6 transition_type 0x24e-0x24f (1)
0x240|                                             05|               .|      [59]: 5 transition_type 0x24f-0x250 (1)
0x250|06                                             |.               |      [60]: 6 transition_type 0x250-0x251 (1)
0x250|   05                                          | .              |      [61]: 5 transition_type 0x251-0x252 (1)
0x250|      06                                       |  .             |      [62]: 6 transition_type 0x252-0x253 (1)
0x250|         05                                    |   .            |      [63]: 5 transition_type 0x253-0x254 (1)
0x250|            06                                 |    .           |      [64]: 6 transition_type 0x254-0x255 (1)
0x250|               03                              |     .          |      [65]: 3 transition_type 0x255-0x256 (1)
0x250|                  04                           |      .         |      [66]: 4 transition_type 0x256-0x257 (1)
0x250|                     09                        |       .        |      [67]: 9 transition_type 0x257-0x258 (1)
0x250|                        04                     |        .       |      [68]: 4 transition_type 0x258-0x259 (1)
0x250|                           09                  |         .      |      [69]: 9 transition_type 0x259-0x25a (1)
0x250|                              04               |          .     |      [70]: 4 transition_type 0x25a-0x25b (1)
0x250|                                 09            |           .    |      [71]: 9 transition_type 0x25b-0x25c (1)
0x250|                                    04         |            .   |      [72]: 4 transition_type 0x25c-0x25d (1)
0x250|                                       03      |             .  |      [73]: 3 transition_type 0x25d-0x25e (1)
0x250|                                          04   |              . |      [74]: 4 transition_type 0x25e-0x25f (1)
0x250|                                             03|               .|      [75]: 3 transition_type 0x25f-0x260 (1)
0x260|04                                             |.               |      [76]: 4 transition_type 0x260-0x261 (1)
0x260|   03                                          | .              |      [77]: 3 transition_type 0x261-0x262 (1)
0x260|      04                                       |  .             |      [78]: 4 transition_type 0x262-0x263 (1)
0x260|         03                                    |   .            |      [79]: 3 transition_type 0x263-0x264 (1)
0x260|            04                                 |    .           |      [80]: 4 transition_type 0x264-0x265 (1)
0x260|               03                              |     .          |      [81]: 3 transition_type 0x265-0x266 (1)
0x260|                  04                           |      .         |      [82]: 4 transition_type 0x266-0x267 (1)
0x260|                     03                        |       .        |      [83]: 3 transition_type 0x267-0x268 (1)
0x260|                        04                     |        .       |      [84]: 4 transition_type 0x268-0x269 (1)
0x260|                           03                  |         .      |      [85]: 3 transition_type 0x269-0x26a (1)
0x260|                              04               |          .     |      [86]: 4 transition_type 0x26a-0x26b (1)
0x260|                                 03            |           .    |      [87]: 3 transition_type 0x26b-0x26c (1)
0x260|                                    04         |            .   |      [88]: 4 transition_type 0x26c-0x26d (1)
0x260|                                       03      |             .  |      [89]: 3 transition_type 0x26d-0x26e (1)
0x260|                                          04   |              . |      [90]: 4 transition_type 0x26e-0x26f (1)
0x260|                                             03|               .|      [91]: 3 transition_type 0x26f-0x270 (1)
0x270|04                                             |.               |      [92]: 4 transition_type 0x270-0x271 (1)
0x270|   03                                          | .              |      [93]: 3 transition_type 0x271-0x272 (1)
0x270|      04                                       |  .             |      [94]: 4 transition_type 0x272-0x273 (1)
0x270|         03                                    |   .            |      [95]: 3 transition_type 0x273-0x274 (1)
0x270|            04                                 |    .           |      [96]: 4 transition_type 0x274-0x275 (1)
0x270|               03                              |     .          |      [97]: 3 transition_type 0x275-0x276 (1)
0x270|                  04                           |      .         |      [98]: 4 transition_type 0x276-0x277 (1)
0x270|                     03                        |       .        |      [99]: 3 transition_type 0x277-0x278 (1)
0x270|                        04                     |        .       |      [100]: 4 transition_type 0x278-0x279 (1)
0x270|                           03                  |         .      |      [101]: 3 transition_type 0x279-0x27a (1)
0x270|                              04               |          .     |      [102]: 4 transition_type 0x27a-0x27b (1)
0x270|                                 03            |           .    |      [103]: 3 transition_type 0x27b-0x27c (1)
0x270|                                    04         |            .   |      [104]: 4 transition_type 0x27c-0x27d (1)
0x270|                                       03      |             .  |      [105]: 3 transition_type 0x27d-0x27e (1)
0x270|                                          04   |              . |      [106]: 4 transition_type 0x27e-0x27f (1)
0x270|                                             03|               .|      [107]: 3 transition_type 0x27f-0x280 (1)
0x280|04                                             |.               |      [108]: 4 transition_type 0x280-0x281 (1)
0x280|   03                                          | .              |      [109]: 3 transition_type 0x281-0x282 (1)
0x280|      04                                       |  .             |      [110]: 4 transition_type 0x282-0x283 (1)
0x280|         03                                    |   .            |      [111]: 3 transition_type 0x283-0x284 (1)
0x280|            04                                 |    .           |      [112]: 4 transition_type 0x284-0x285 (1)
0x280|               03                              |     .          |      [113]: 3 transition_type 0x285-0x286 (1)
0x280|                  04                           |      .         |      [114]: 4 transition_type 0x286-0x287 (1)
0x280|                     03                        |       .        |      [115]: 3 transition_type 0x287-0x288 (1)
0x280|                        04                     |        .       |      [116]: 4 transition_type 0x288-0x289 (1)
0x280|                           03                  |         .      |      [117]: 3 transition_type 0x289-0x28a (1)
0x280|                              04               |          .     |      [118]: 4 transition_type 0x28a-0x28b (1)
0x280|                                 03            |           .    |      [119]: 3 transition_type 0x28b-0x28c (1)
0x280|                                    04         |            .   |      [120]: 4 transition_type 0x28c-0x28d (1)
0x280|                                       04      |             .  |      [121]: 4 transition_type 0x28d-0x28e (1)
     |                                               |                |    local_time_type_records[0:10]: 0x28e-0x2ca (60)
     |                                               |                |      [0]{}: local_time_type 0x28e-0x294 (6)
0x280|                                          00 00|              ..|        utoff: 8272 (valid) 0x28e-0x292 (4)
0x290|20 50                                          | P              |
0x290|      00                                       |  .             |        dst: 0 (valid) 0x292-0x293 (1)
0x290|         00                                    |   .            |        idx: 0 (valid) 0x293-0x294 (1)
     |                                               |                |      [1]{}: local_time_type 0x294-0x29a (6)
0x290|            00 00 2a 30                        |    ..*0        |        utoff: 10800 (valid) 0x294-0x298 (4)
0x290|                        01                     |        .       |        dst: 1 (valid) 0x298-0x299 (1)
0x290|                           04                  |         .      |        idx: 4 (valid) 0x299-0x29a (1)
     |                                               |                |      [2]{}: local_time_type 0x29a-0x2a0 (6)
0x290|                              00 00 1c 20      |          ...   |        utoff: 7200 (valid) 0x29a-0x29e (4)
0x290|                                          00   |              . |        dst: 0 (valid) 0x29e-0x29f (1)
0x290|                                             09|               .|        idx: 9 (valid) 0x29f-0x2a0 (1)
     |                                               |                |      [3]{}: local_time_type 0x2a0-0x2a6 (6)
0x2a0|00 00 1c 20                                    |...             |        utoff: 7200 (valid) 0x2a0-0x2a4 (4)
0x2a0|            00                                 |    .           |        dst: 0 (valid) 0x2a4-0x2a5 (1)
0x2a0|               09                              |     .          |        idx: 9 (valid) 0x2a5-0x2a6 (1)
     |                                               |                |      [4]{}: local_time_type 0x2a6-0x2ac (6)
0x2a0|                  00 00 2a 30                  |      ..*0      |        utoff: 10800 (valid) 0x2a6-0x2aa (4)
0x2a0|                              01               |          .     |        dst: 1 (valid) 0x2aa-0x2ab (1)
0x2a0|                                 04            |           .    |        idx: 4 (valid) 0x2ab-0x2ac (1)
     |                                               |                |      [5]{}: local_time_type 0x2ac-0x2b2 (6)
0x2a0|                                    00 00 2a 30|            ..*0|        utoff: 10800 (valid) 0x2ac-0x2b0 (4)
0x2b0|01                                             |.               |        dst: 1 (valid) 0x2b0-0x2b1 (1)
0x2b0|   0d                                          | .              |        idx: 13 (valid) 0x2b1-0x2b2 (1)
     |                                               |                |      [6]{}: local_time_type 0x2b2-0x2b8 (6)
0x2b0|      00 00 1c 20                              |  ...           |        utoff: 7200 (valid) 0x2b2-0x2b6 (4)
0x2b0|                  00                           |      .         |        dst: 0 (valid) 0x2b6-0x2b7 (1)
0x2b0|                     11                        |       .        |        idx: 17 (valid) 0x2b7-0x2b8 (1)
     |                                               |                |      [7]{}: local_time_type 0x2b8-0x2be (6)
0x2b0|                        00 00 2a 30            |        ..*0    |        utoff: 10800 (valid) 0x2b8-0x2bc (4)
0x2b0|                                    01         |            .   |        dst: 1 (valid) 0x2bc-0x2bd (1)
0x2b0|                                       0d      |             .  |        idx: 13 (valid) 0x2bd-0x2be (1)
     |                                               |                |      [8]{}: local_time_type 0x2be-0x2c4 (6)
0x2b0|                                          00 00|              ..|        utoff: 7200 (valid) 0x2be-0x2c2 (4)
0x2c0|1c 20                                          |.               |
0x2c0|      00                                       |  .             |        dst: 0 (valid) 0x2c2-0x2c3 (1)
0x2c0|         11                                    |   .            |        idx: 17 (valid) 0x2c3-0x2c4 (1)
     |                                               |                |      [9]{}: local_time_type 0x2c4-0x2ca (6)
0x2c0|            00 00 1c 20                        |    ...         |        utoff: 7200 (valid) 0x2c4-0x2c8 (4)
0x2c0|                        00                     |        .       |        dst: 0 (valid) 0x2c8-0x2c9 (1)
0x2c0|                           09                  |         .      |        idx: 9 (valid) 0x2c9-0x2ca (1)
     |                                               |                |    time_zone_designations[0:5]: 0x2ca-0x2df (21)
0x2c0|                              4c 4d 54 00      |          LMT.  |      [0]: "LMT" time_zone_designation 0x2ca-0x2ce (4)
0x2c0|                                          45 45|              EE|      [1]: "EEST" time_zone_designation 0x2ce-0x2d3 (5)
0x2d0|53 54 00                                       |ST.             |
0x2d0|         45 45 54 00                           |   EET.         |      [2]: "EET" time_zone_designation 0x2d3-0x2d7 (4)
0x2d0|                     49 44 54 00               |       IDT.     |      [3]: "IDT" time_zone_designation 0x2d7-0x2db (4)
0x2d0|                                 49 53 54 00   |           IST. |      [4]: "IST" time_zone_designation 0x2db-0x2df (4)
     |                                               |                |    leap_second_records[0:27]: 0x2df-0x3b7 (216)
     |                                               |                |      [0]{}: leap_second_record 0x2df-0x2e7 (8)
0x2d0|                                             04|               .|        occur: "1972-07-01T00:00:00Z" (78796800) 0x2df-0x2e3 (4)
0x2e0|b2 58 00                                       |.X.             |
0x2e0|         00 00 00 01                           |   ....         |        corr: 1 0x2e3-0x2e7 (4)
     |                                               |                |      [1]{}: leap_second_record 0x2e7-0x2ef (8)
0x2e0|                     05 a4 ec 01               |       ....     |        occur: "1973-01-01T00:00:01Z" (94694401) 0x2e7-0x2eb (4)
0x2e0|                                 00 00 00 02   |           .... |        corr: 2 0x2eb-0x2ef (4)
     |                                               |                |      [2]{}: leap_second_record 0x2ef-0x2f7 (8)
0x2e0|                                             07|               .|        occur: "1974-01-01T00:00:02Z" (126230402) 0x2ef-0x2f3 (4)
0x2f0|86 1f 82                                       |...             |
0x2f0|         00 00 00 03                           |   ....         |        corr: 3 0x2f3-0x2f7 (4)
     |                                               |                |      [3]{}: leap_second_record 0x2f7-0x2ff (8)
0x2f0|                     09 67 53 03               |       .gS.     |        occur: "1975-01-01T00:00:03Z" (157766403) 0x2f7-0x2fb (4)
0x2f0|                                 00 00 00 04   |           .... |        corr: 4 0x2fb-0x2ff (4)
     |                                               |                |      [4]{}: leap_second_record 0x2ff-0x307 (8)
0x2f0|                                             0b|               .|        occur: "1976-01-01T00:00:04Z" (189302404) 0x2ff-0x303 (4)
0x300|48 86 84                                       |H..             |
0x300|         00 00 00 05                           |   ....         |        corr: 5 0x303-0x307 (4)
     |                                               |                |      [5]{}: leap_second_record 0x307-0x30f (8)
0x300|                     0d 2b 0b 85               |       .+..     |        occur: "1977-01-01T00:00:05Z" (220924805) 0x307-0x30b (4)
0x300|                                 00 00 00 06   |           .... |        corr: 6 0x30b-0x30f (4)
     |                                               |                |      [6]{}: leap_second_record 0x30f-0x317 (8)
0x300|                                             0f|               .|        occur: "1978-01-01T00:00:06Z" (252460806) 0x30f-0x313 (4)
0x310|0c 3f 06                                       |.?.             |
0x310|         00 00 00 07                           |   ....         |        corr: 7 0x313-0x317 (4)
     |                                               |                |      [7]{}: leap_second_record 0x317-0x31f (8)
0x310|                     10 ed 72 87               |       ..r.     |        occur: "1979-01-01T00:00:07Z" (283996807) 0x317-0x31b (4)
0x310|                                 00 00 00 08   |           .... |        corr: 8 0x31b-0x31f (4)
     |                                               |                |      [8]{}: leap_second_record 0x31f-0x327 (8)
0x310|                                             12|               .|        occur: "1980-01-01T00:00:08Z" (315532808) 0x31f-0x323 (4)
0x320|ce a6 08                                       |...             |
0x320|         00 00 00 09                           |   ....         |        corr: 9 0x323-0x327 (4)
     |                                               |                |      [9]{}: leap_second_record 0x327-0x32f (8)
0x320|                     15 9f ca 89               |       ....     |        occur: "1981-07-01T00:00:09Z" (362793609) 0x327-0x32b (4)
0x320|                                 00 00 00 0a   |           .... |        corr: 10 0x32b-0x32f (4)
     |                                               |                |      [10]{}: leap_second_record 0x32f-0x337 (8)
0x320|                                             17|               .|        occur: "1982-07-01T00:00:10Z" (394329610) 0x32f-0x333 (4)
0x330|80 fe 0a                                       |...             |
0x330|         00 00 00 0b                           |   ....         |        corr: 11 0x333-0x337 (4)
     |                                               |                |      [11]{}: leap_second_record 0x337-0x33f (8)
0x330|                     19 62 31 8b               |       .b1.     |        occur: "1983-07-01T00:00:11Z" (425865611) 0x337-0x33b (4)
0x330|                                 00 00 00 0c   |           .... |        corr: 12 0x33b-0x33f (4)
     |                                               |                |      [12]{}: leap_second_record 0x33f-0x347 (8)
0x330|                                             1d|               .|        occur: "1985-07-01T00:00:12Z" (489024012) 0x33f-0x343 (4)
0x340|25 ea 0c                                       |%..             |
0x340|         00 00 00 0d                           |   ....         |        corr: 13 0x343-0x347 (4)
     |                                               |                |      [13]{}: leap_second_record 0x347-0x34f (8)
0x340|                     21 da e5 0d               |       !...     |        occur: "1988-01-01T00:00:13Z" (567993613) 0x347-0x34b (4)
0x340|                                 00 00 00 0e   |           .... |        corr: 14 0x34b-0x34f (4)
     |                                               |                |      [14]{}: leap_second_record 0x34f-0x357 (8)
0x340|                                             25|               %|        occur: "1990-01-01T00:00:14Z" (631152014) 0x34f-0x353 (4)
0x350|9e 9d 8e                                       |...             |
0x350|         00 00 00 0f                           |   ....         |        corr: 15 0x353-0x357 (4)
     |                                               |                |      [15]{}: leap_second_record 0x357-0x35f (8)
0x350|                     27 7f d1 0f               |       '...     |        occur: "1991-01-01T00:00:15Z" (662688015) 0x357-0x35b (4)
0x350|                                 00 00 00 10   |           .... |        corr: 16 0x35b-0x35f (4)
     |                                               |                |      [16]{}: leap_second_record 0x35f-0x367 (8)
0x350|                                             2a|               *|        occur: "1992-07-01T00:00:16Z" (709948816) 0x35f-0x363 (4)
0x360|50 f5 90                                       |P..             |
0x360|         00 00 00 11                           |   ....         |        corr: 17 0x363-0x367 (4)
     |                                               |                |      [17]{}: leap_second_record 0x367-0x36f (8)
0x360|                     2c 32 29 11               |       ,2).     |        occur: "1993-07-01T00:00:17Z" (741484817) 0x367-0x36b (4)
0x360|                                 00 00 00 12   |           .... |        corr: 18 0x36b-0x36f (4)
     |                                               |                |      [18]{}: leap_second_record 0x36f-0x377 (8)
0x360|                                             2e|               .|        occur: "1994-07-01T00:00:18Z" (773020818) 0x36f-0x373 (4)
0x370|13 5c 92                                       |.\.             |
0x370|         00 00 00 13                           |   ....         |        corr: 19 0x373-0x377 (4)
     |                                               |                |      [19]{}: leap_second_record 0x377-0x37f (8)
0x370|                     30 e7 24 13               |       0.$.     |        occur: "1996-01-01T00:00:19Z" (820454419) 0x377-0x37b (4)
0x370|                                 00 00 00 14   |           .... |        corr: 20 0x37b-0x37f (4)
     |                                               |                |      [20]{}: leap_second_record 0x37f-0x387 (8)
0x370|                                             33|               3|        occur: "1997-07-01T00:00:20Z" (867715220) 0x37f-0x383 (4)
0x380|b8 48 94                                       |.H.             |
0x380|         00 00 00 15                           |   ....         |        corr: 21 0x383-0x387 (4)
     |                                               |                |      [21]{}: leap_second_record 0x387-0x38f (8)
0x380|                     36 8c 10 15               |       6...     |        occur: "1999-01-01T00:00:21Z" (915148821) 0x387-0x38b (4)
0x380|                                 00 00 00 16   |           .... |        corr: 22 0x38b-0x38f (4)
     |                                               |                |      [22]{}: leap_second_record 0x38f-0x397 (8)
0x380|                                             43|               C|        occur: "2006-01-01T00:00:22Z" (1136073622) 0x38f-0x393 (4)
0x390|b7 1b 96                                       |...             |
0x390|         00 00 00 17                           |   ....         |        corr: 23 0x393-0x397 (4)
     |                                               |                |      [23]{}: leap_second_record 0x397-0x39f (8)
0x390|                     49 5c 07 97               |       I\..     |        occur: "2009-01-01T00:00:23Z" (1230768023) 0x397-0x39b (4)
0x390|                                 00 00 00 18   |           .... |        corr: 24 0x39b-0x39f (4)
     |                                               |                |      [24]{}: leap_second_record 0x39f-0x3a7 (8)
0x390|                                             4f|               O|        occur: "2012-07-01T00:00:24Z" (1341100824) 0x39f-0x3a3 (4)
0x3a0|ef 93 18                                       |...             |
0x3a0|         00 00 00 19                           |   ....         |        corr: 25 0x3a3-0x3a7 (4)
     |                                               |                |      [25]{}: leap_second_record 0x3a7-0x3af (8)
0x3a0|                     55 93 2d 99               |       U.-.     |        occur: "2015-07-01T00:00:25Z" (1435708825) 0x3a7-0x3ab (4)
0x3a0|                                 00 00 00 1a   |           .... |        corr: 26 0x3ab-0x3af (4)
     |                                               |                |      [26]{}: leap_second_record 0x3af-0x3b7 (8)
0x3a0|                                             58|               X|        occur: "2017-01-01T00:00:26Z" (1483228826) 0x3af-0x3b3 (4)
0x3b0|68 46 9a                                       |hF.             |
0x3b0|         00 00 00 1b                           |   ....         |        corr: 27 0x3b3-0x3b7 (4)
     |                                               |                |    standard_wall_indicators[0:10]: 0x3b7-0x3c1 (10)
0x3b0|                     00                        |       .        |      [0]: 0 standard_wall_indicator (valid) 0x3b7-0x3b8 (1)
0x3b0|                        01                     |        .       |      [1]: 1 standard_wall_indicator (valid) 0x3b8-0x3b9 (1)
0x3b0|                           01                  |         .      |      [2]: 1 standard_wall_indicator (valid) 0x3b9-0x3ba (1)
0x3b0|                              00               |          .     |      [3]: 0 standard_wall_indicator (valid) 0x3ba-0x3bb (1)
0x3b0|                                 00            |           .    |      [4]: 0 standard_wall_indicator (valid) 0x3bb-0x3bc (1)
0x3b0|                                    00         |            .   |      [5]: 0 standard_wall_indicator (valid) 0x3bc-0x3bd (1)
0x3b0|                                       00      |             .  |      [6]: 0 standard_wall_indicator (valid) 0x3bd-0x3be (1)
0x3b0|                                          01   |              . |      [7]: 1 standard_wall_indicator (valid) 0x3be-0x3bf (1)
0x3b0|                                             01|               .|      [8]: 1 standard_wall_indicator (valid) 0x3bf-0x3c0 (1)
0x3c0|01                                             |.               |      [9]: 1 standard_wall_indicator (valid) 0x3c0-0x3c1 (1)
     |                                               |                |    ut_local_indicators[0:10]: 0x3c1-0x3cb (10)
0x3c0|   00                                          | .              |      [0]: 0 ut_local_indicator (valid) 0x3c1-0x3c2 (1)
0x3c0|      01                                       |  .             |      [1]: 1 ut_local_indicator (valid) 0x3c2-0x3c3 (1)
0x3c0|         01                                    |   .            |      [2]: 1 ut_local_indicator (valid) 0x3c3-0x3c4 (1)
0x3c0|            00                                 |    .           |      [3]: 0 ut_local_indicator (valid) 0x3c4-0x3c5 (1)
0x3c0|               00                              |     .          |      [4]: 0 ut_local_indicator (valid) 0x3c5-0x3c6 (1)
0x3c0|                  00                           |      .         |      [5]: 0 ut_local_indicator (valid) 0x3c6-0x3c7 (1)
0x3c0|                     00                        |       .        |      [6]: 0 ut_local_indicator (valid) 0x3c7-0x3c8 (1)
0x3c0|                        00                     |        .       |      [7]: 0 ut_local_indicator (valid) 0x3c8-0x3c9 (1)
0x3c0|                           00                  |         .      |      [8]: 0 ut_local_indicator (valid) 0x3c9-0x3ca (1)
0x3c0|                              00               |          .     |      [9]: 0 ut_local_indicator (valid) 0x3ca-0x3cb (1)
     |                                               |                |  v2plusheader{}: 0x3cb-0x3f7 (44)
0x3c0|                                 54 5a 69 66   |           TZif |    magic: 0x545a6966 (valid) 0x3cb-0x3cf (4)
0x3c0|                                             32|               2|    ver: "2" (0x32) (valid) 0x3cf-0x3d0 (1)
0x3d0|00 00 00 00 00 00 00 00 00 00 00 00 00 00 00   |............... |    reserved: raw bits 0x3d0-0x3df (15)
0x3d0|                                             00|               .|    isutcnt: 10 0x3df-0x3e3 (4)
0x3e0|00 00 0a                                       |...             |
0x3e0|         00 00 00 0a                           |   ....         |    isstdcnt: 10 0x3e3-0x3e7 (4)
0x3e0|                     00 00 00 1b               |       ....     |    leapcnt: 27 0x3e7-0x3eb (4)
0x3e0|                                 00 00 00 7a   |           ...z |    timecnt: 122 0x3eb-0x3ef (4)
0x3e0|                                             00|               .|    typecnt: 10 0x3ef-0x3f3 (4)
0x3f0|00 00 0a                                       |...             |
0x3f0|         00 00 00 15                           |   ....         |    charcnt: 21 0x3f3-0x3f7 (4)
     |                                               |                |  v2plusdatablock{}: 0x3f7-0x9ea (1523)
     |                                               |                |    transition_times[0:122]: 0x3f7-0x7c7 (976)
0x3f0|                     ff ff ff ff 7d bd 4a b0   |       ....}.J. |      [0]: "1900-09-30T21:42:08Z" (-2185409872) transition_time 0x3f7-0x3ff (8)
0x3f0|                                             ff|               .|      [1]: "1940-06-01T00:00:00Z" (-933638400) transition_time 0x3ff-0x407 (8)
0x400|ff ff ff c8 59 cf 00                           |....Y..         |
0x400|                     ff ff ff ff c8 fa a6 00   |       ........ |      [2]: "1940-10-01T00:00:00Z" (-923097600) transition_time 0x407-0x40f (8)
0x400|                                             ff|               .|      [3]: "1940-11-17T00:00:00Z" (-919036800) transition_time 0x40f-0x417 (8)
0x410|ff ff ff c9 38 9c 80                           |....8..         |
0x410|                     ff ff ff ff cc e5 eb 80   |       ........ |      [4]: "1942-11-01T00:00:00Z" (-857347200) transition_time 0x417-0x41f (8)
0x410|                                             ff|               .|      [5]: "1943-04-01T00:00:00Z" (-844300800) transition_time 0x41f-0x427 (8)
0x420|ff ff ff cd ac fe 00                           |.......         |
0x420|                     ff ff ff ff ce c7 1f 00   |       ........ |      [6]: "1943-11-01T00:00:00Z" (-825811200) transition_time 0x427-0x42f (8)
0x420|                                             ff|               .|      [7]: "1944-04-01T00:00:00Z" (-812678400) transition_time 0x42f-0x437 (8)
0x430|ff ff ff cf 8f 83 00                           |.......         |
0x430|                     ff ff ff ff d0 a9 a4 00   |       ........ |      [8]: "1944-11-01T00:00:00Z" (-794188800) transition_time 0x437-0x43f (8)
0x430|                                             ff|               .|      [9]: "1945-04-16T00:00:00Z" (-779846400) transition_time 0x43f-0x447 (8)
0x440|ff ff ff d1 84 7d 00                           |.....}.         |
0x440|                     ff ff ff ff d2 8a d7 80   |       ........ |      [10]: "1945-11-01T00:00:00Z" (-762652800) transition_time 0x447-0x44f (8)
0x440|                                             ff|               .|      [11]: "1946-04-16T00:00:00Z" (-748310400) transition_time 0x44f-0x457 (8)
0x450|ff ff ff d3 65 b0 80                           |....e..         |
0x450|                     ff ff ff ff d4 6c 0b 00   |       .....l.. |      [12]: "1946-11-01T00:00:00Z" (-731116800) transition_time 0x457-0x45f (8)
0x450|                                             ff|               .|      [13]: "1957-05-09T22:00:00Z" (-399088800) transition_time 0x45f-0x467 (8)
0x460|ff ff ff e8 36 63 60                           |....6c`         |
0x460|                     ff ff ff ff e8 f4 2d 50   |       ......-P |      [14]: "1957-09-30T21:00:00Z" (-386650800) transition_time 0x467-0x46f (8)
0x460|                                             ff|               .|      [15]: "1958-04-30T22:00:00Z" (-368330400) transition_time 0x46f-0x477 (8)
0x470|ff ff ff ea 0b b9 60                           |......`         |
0x470|                     ff ff ff ff ea d5 60 d0   |       ......`. |      [16]: "1958-09-30T21:00:00Z" (-355114800) transition_time 0x477-0x47f (8)
0x470|                                             ff|               .|      [17]: "1959-04-30T23:00:00Z" (-336790800) transition_time 0x47f-0x487 (8)
0x480|ff ff ff eb ec fa f0                           |.......         |
0x480|                     ff ff ff ff ec b5 6d 00   |       ......m. |      [18]: "1959-09-30T00:00:00Z" (-323654400) transition_time 0x487-0x48f (8)
0x480|                                             ff|               .|      [19]: "1960-04-30T23:00:00Z" (-305168400) transition_time 0x48f-0x497 (8)
0x490|ff ff ff ed cf 7f f0                           |.......         |
0x490|                     ff ff ff ff ee 97 f2 00   |       ........ |      [20]: "1960-09-30T00:00:00Z" (-292032000) transition_time 0x497-0x49f (8)
0x490|                                             ff|               .|      [21]: "1961-04-30T23:00:00Z" (-273632400) transition_time 0x49f-0x4a7 (8)
0x4a0|ff ff ff ef b0 b3 70                           |......p         |
0x4a0|                     ff ff ff ff f0 79 25 80   |       .....y%. |      [22]: "1961-09-30T00:00:00Z" (-260496000) transition_time 0x4a7-0x4af (8)
0x4a0|                                             ff|               .|      [23]: "1962-04-30T23:00:00Z" (-242096400) transition_time 0x4af-0x4b7 (8)
0x4b0|ff ff ff f1 91 e6 f0                           |.......         |
0x4b0|                     ff ff ff ff f2 5a 59 00   |       .....ZY. |      [24]: "1962-09-30T00:00:00Z" (-228960000) transition_time 0x4b7-0x4bf (8)
0x4b0|                                             ff|               .|      [25]: "1963-04-30T23:00:00Z" (-210560400) transition_time 0x4bf-0x4c7 (8)
0x4c0|ff ff ff f3 73 1a 70                           |....s.p         |
0x4c0|                     ff ff ff ff f4 3b 8c 80   |       .....;.. |      [26]: "1963-09-30T00:00:00Z" (-197424000) transition_time 0x4c7-0x4cf (8)
0x4c0|                                             ff|               .|      [27]: "1964-04-30T23:00:00Z" (-178938000) transition_time 0x4cf-0x4d7 (8)
0x4d0|ff ff ff f5 55 9f 70                           |....U.p         |
0x4d0|                     ff ff ff ff f6 1e 11 80   |       ........ |      [28]: "1964-09-30T00:00:00Z" (-165801600) transition_time 0x4d7-0x4df (8)
0x4d0|                                             ff|               .|      [29]: "1965-04-30T23:00:00Z" (-147402000) transition_time 0x4df-0x4e7 (8)
0x4e0|ff ff ff f7 36 d2 f0                           |....6..         |
0x4e0|                     ff ff ff ff f7 ff 45 00   |       ......E. |      [30]: "1965-09-30T00:00:00Z" (-134265600) transition_time 0x4e7-0x4ef (8)
0x4e0|                                             ff|               .|      [31]: "1966-04-30T23:00:00Z" (-115866000) transition_time 0x4ef-0x4f7 (8)
0x4f0|ff ff ff f9 18 06 70                           |......p         |
0x4f0|                     ff ff ff ff f9 e1 ca 00   |       ........ |      [32]: "1966-10-01T00:00:00Z" (-102643200) transition_time 0x4f7-0x4ff (8)
0x4f0|                                             ff|               .|      [33]: "1967-04-30T23:00:00Z" (-84330000) transition_time 0x4ff-0x507 (8)
0x500|ff ff ff fa f9 39 f0                           |.....9.         |
0x500|                     ff ff ff ff fb 27 42 50   |       .....'BP |      [34]: "1967-06-04T21:00:00Z" (-81313200) transition_time 0x507-0x50f (8)
0x500|                                             00|               .|      [35]: "1974-07-06T22:00:03Z" (142380003) transition_time 0x50f-0x517 (8)
0x510|00 00 00 08 7c 8b e3                           |....|..         |
0x510|                     00 00 00 00 08 fd b0 d3   |       ........ |      [36]: "1974-10-12T21:00:03Z" (150843603) transition_time 0x517-0x51f (8)
0x510|                                             00|               .|      [37]: "1975-04-19T22:00:04Z" (167176804) transition_time 0x51f-0x527 (8)
0x520|00 00 00 09 f6 ea 64                           |......d         |
0x520|                     00 00 00 00 0a a6 33 d4   |       ......3. |      [38]: "1975-08-30T21:00:04Z" (178664404) transition_time 0x527-0x52f (8)
0x520|                                             00|               .|      [39]: "1980-08-02T22:00:09Z" (334101609) transition_time 0x52f-0x537 (8)
0x530|00 00 00 13 e9 fc 69                           |......i         |
0x530|                     00 00 00 00 14 21 5b 69   |       .....![i |      [40]: "1980-09-13T22:00:09Z" (337730409) transition_time 0x537-0x53f (8)
0x530|                                             00|               .|      [41]: "1984-05-05T22:00:12Z" (452642412) transition_time 0x53f-0x547 (8)
0x540|00 00 00 1a fa c6 6c                           |......l         |
0x540|                     00 00 00 00 1b 8e 6e 6c   |       ......nl |      [42]: "1984-08-25T22:00:12Z" (462319212) transition_time 0x547-0x54f (8)
0x540|                                             00|               .|      [43]: "1985-04-13T22:00:12Z" (482277612) transition_time 0x54f-0x557 (8)
0x550|00 00 00 1c be f8 ec                           |.......         |
0x550|                     00 00 00 00 1d 77 7c dd   |       .....w|. |      [44]: "1985-08-31T21:00:13Z" (494370013) transition_time 0x557-0x55f (8)
0x550|                                             00|               .|      [45]: "1986-05-17T22:00:13Z" (516751213) transition_time 0x55f-0x567 (8)
0x560|00 00 00 1e cc ff 6d                           |......m         |
0x560|                     00 00 00 00 1f 60 99 5d   |       .....`.] |      [46]: "1986-09-06T21:00:13Z" (526424413) transition_time 0x567-0x56f (8)
0x560|                                             00|               .|      [47]: "1987-04-14T22:00:13Z" (545436013) transition_time 0x56f-0x577 (8)
0x570|00 00 00 20 82 b1 6d                           |... ..m         |
0x570|                     00 00 00 00 21 49 b5 dd   |       ....!I.. |      [48]: "1987-09-12T21:00:13Z" (558478813) transition_time 0x577-0x57f (8)
0x570|                                             00|               .|      [49]: "1988-04-09T22:00:14Z" (576626414) transition_time 0x57f-0x587 (8)
0x580|00 00 00 22 5e 9e ee                           |..."^..         |
0x580|                     00 00 00 00 23 20 5d 5e   |       ....# ]^ |      [50]: "1988-09-03T21:00:14Z" (589323614) transition_time 0x587-0x58f (8)
0x580|                                             00|               .|      [51]: "1989-04-29T22:00:14Z" (609890414) transition_time 0x58f-0x597 (8)
0x590|00 00 00 24 5a 30 6e                           |...$Z0n         |
0x590|                     00 00 00 00 25 00 3f 5e   |       ....%.?^ |      [52]: "1989-09-02T21:00:14Z" (620773214) transition_time 0x597-0x59f (8)
0x590|                                             00|               .|      [53]: "1990-03-24T22:00:15Z" (638316015) transition_time 0x59f-0x5a7 (8)
0x5a0|00 00 00 26 0b ed ef                           |...&...         |
0x5a0|                     00 00 00 00 26 d6 e6 df   |       ....&... |      [54]: "1990-08-25T21:00:15Z" (651618015) transition_time 0x5a7-0x5af (8)
0x5a0|                                             00|               .|      [55]: "1991-03-23T22:00:16Z" (669765616) transition_time 0x5af-0x5b7 (8)
0x5b0|00 00 00 27 eb cf f0                           |...'...         |
0x5b0|                     00 00 00 00 28 c0 03 60   |       ....(..` |      [56]: "1991-08-31T21:00:16Z" (683672416) transition_time 0x5b7-0x5bf (8)
0x5b0|                                             00|               .|      [57]: "1992-03-28T22:00:16Z" (701820016) transition_time 0x5bf-0x5c7 (8)
0x5c0|00 00 00 29 d4 ec 70                           |...)..p         |
0x5c0|                     00 00 00 00 2a a9 1f e1   |       ....*... |      [58]: "1992-09-05T21:00:17Z" (715726817) transition_time 0x5c7-0x5cf (8)
0x5c0|                                             00|               .|      [59]: "1993-04-01T22:00:17Z" (733701617) transition_time 0x5cf-0x5d7 (8)
0x5d0|00 00 00 2b bb 65 f1                           |...+.e.         |
0x5d0|                     00 00 00 00 2c 89 01 e2   |       ....,... |      [60]: "1993-09-04T21:00:18Z" (747176418) transition_time 0x5d7-0x5df (8)
0x5d0|                                             00|               .|      [61]: "1994-03-31T22:00:18Z" (765151218) transition_time 0x5df-0x5e7 (8)
0x5e0|00 00 00 2d 9b 47 f2                           |...-.G.         |
0x5e0|                     00 00 00 00 2e 5f a9 63   |       ....._.c |      [62]: "1994-08-27T21:00:19Z" (778021219) transition_time 0x5e7-0x5ef (8)
0x5e0|                                             00|               .|      [63]: "1995-03-30T22:00:19Z" (796600819) transition_time 0x5ef-0x5f7 (8)
0x5f0|00 00 00 2f 7b 29 f3                           |.../{).         |
0x5f0|                     00 00 00 00 30 48 c5 e3   |       ....0H.. |      [64]: "1995-09-02T21:00:19Z" (810075619) transition_time 0x5f7-0x5ff (8)
0x5f0|                                             00|               .|      [65]: "1995-12-31T22:00:19Z" (820447219) transition_time 0x5ff-0x607 (8)
0x600|00 00 00 30 e7 07 f3                           |...0...         |
0x600|                     00 00 00 00 31 64 46 74   |       ....1dFt |      [66]: "1996-04-04T22:00:20Z" (828655220) transition_time 0x607-0x60f (8)
0x600|                                             00|               .|      [67]: "1996-09-19T22:00:20Z" (843170420) transition_time 0x60f-0x617 (8)
0x610|00 00 00 32 41 c2 74                           |...2A.t         |
0x610|                     00 00 00 00 33 44 28 74   |       ....3D(t |      [68]: "1997-04-03T22:00:20Z" (860104820) transition_time 0x617-0x61f (8)
0x610|                                             00|               .|      [69]: "1997-09-18T22:00:21Z" (874620021) transition_time 0x61f-0x627 (8)
0x620|00 00 00 34 21 a4 75                           |...4!.u         |
0x620|                     00 00 00 00 35 24 0a 75   |       ....5$.u |      [70]: "1998-04-02T22:00:21Z" (891554421) transition_time 0x627-0x62f (8)
0x620|                                             00|               .|      [71]: "1998-09-17T22:00:21Z" (906069621) transition_time 0x62f-0x637 (8)
0x630|00 00 00 36 01 86 75                           |...6..u         |
0x630|                     00 00 00 00 37 16 61 76   |       ....7.av |      [72]: "1999-04-15T22:00:22Z" (924213622) transition_time 0x637-0x63f (8)
0x630|                                             00|               .|      [73]: "1999-10-14T21:00:22Z" (939934822) transition_time 0x63f-0x647 (8)
0x640|00 00 00 38 06 44 66                           |...8.Df         |
0x640|                     00 00 00 00 38 ff 7d f6   |       ....8.}. |      [74]: "2000-04-20T22:00:22Z" (956268022) transition_time 0x647-0x64f (8)
0x640|                                             00|               .|      [75]: "2000-10-19T21:00:22Z" (971989222) transition_time 0x64f-0x657 (8)
0x650|00 00 00 39 ef 60 e6                           |...9.`.         |
0x650|                     00 00 00 00 3a df 5f f6   |       ....:._. |      [76]: "2001-04-19T22:00:22Z" (987717622) transition_time 0x657-0x65f (8)
0x650|                                             00|               .|      [77]: "2001-10-18T21:00:22Z" (1003438822) transition_time 0x65f-0x667 (8)
0x660|00 00 00 3b cf 42 e6                           |...;.B.         |
0x660|                     00 00 00 00 3c bf 41 f6   |       ....<.A. |      [78]: "2002-04-18T22:00:22Z" (1019167222) transition_time 0x667-0x66f (8)
0x660|                                             00|               .|      [79]: "2002-10-17T21:00:22Z" (1034888422) transition_time 0x66f-0x677 (8)
0x670|00 00 00 3d af 24 e6                           |...=.$.         |
0x670|                     00 00 00 00 3e 9f 23 f6   |       ....>.#. |      [80]: "2003-04-17T22:00:22Z" (1050616822) transition_time 0x677-0x67f (8)
0x670|                                             00|               .|      [81]: "2003-10-16T21:00:22Z" (1066338022) transition_time 0x67f-0x687 (8)
0x680|00 00 00 3f 8f 06 e6                           |...?...         |
0x680|                     00 00 00 00 40 7f 05 f6   |       ....@... |      [82]: "2004-04-15T22:00:22Z" (1082066422) transition_time 0x687-0x68f (8)
0x680|                                             00|               .|      [83]: "2004-09-30T22:00:22Z" (1096581622) transition_time 0x68f-0x697 (8)
0x690|00 00 00 41 5c 81 f6                           |...A\..         |
0x690|                     00 00 00 00 42 5e e7 f6   |       ....B^.. |      [84]: "2005-04-14T22:00:22Z" (1113516022) transition_time 0x697-0x69f (8)
0x690|                                             00|               .|      [85]: "2005-10-03T23:00:22Z" (1128380422) transition_time 0x69f-0x6a7 (8)
0x6a0|00 00 00 43 41 b8 06                           |...CA..         |
0x6a0|                     00 00 00 00 44 2d a6 77   |       ....D-.w |      [86]: "2006-03-31T22:00:23Z" (1143842423) transition_time 0x6a7-0x6af (8)
0x6a0|                                             00|               .|      [87]: "2006-09-21T21:00:23Z" (1158872423) transition_time 0x6af-0x6b7 (8)
0x6b0|00 00 00 45 12 fd 67                           |...E..g         |
0x6b0|                     00 00 00 00 46 0e d9 f7   |       ....F... |      [88]: "2007-03-31T22:00:23Z" (1175378423) transition_time 0x6b7-0x6bf (8)
0x6b0|                                             00|               .|      [89]: "2007-09-12T23:00:23Z" (1189638023) transition_time 0x6bf-0x6c7 (8)
0x6c0|00 00 00 46 e8 6f 87                           |...F.o.         |
0x6c0|                     00 00 00 00 47 ec 18 f7   |       ....G... |      [90]: "2008-03-27T22:00:23Z" (1206655223) transition_time 0x6c7-0x6cf (8)
0x6c0|                                             00|               .|      [91]: "2008-08-28T21:00:23Z" (1219957223) transition_time 0x6cf-0x6d7 (8)
0x6d0|00 00 00 48 b7 11 e7                           |...H...         |
0x6d0|                     00 00 00 00 49 cb fa f8   |       ....I... |      [92]: "2009-03-26T22:00:24Z" (1238104824) transition_time 0x6d7-0x6df (8)
0x6d0|                                             00|               .|      [93]: "2009-09-03T22:00:24Z" (1252015224) transition_time 0x6df-0x6e7 (8)
0x6e0|00 00 00 4a a0 3c 78                           |...J.<x         |
0x6e0|                     00 00 00 00 4b ad 2e b4   |       ....K... |      [94]: "2010-03-26T22:01:24Z" (1269640884) transition_time 0x6e7-0x6ef (8)
0x6e0|                                             00|               .|      [95]: "2010-08-10T21:00:24Z" (1281474024) transition_time 0x6ef-0x6f7 (8)
0x6f0|00 00 00 4c 61 bd e8                           |...La..         |
0x6f0|                     00 00 00 00 4d 94 f9 b4   |       ....M... |      [96]: "2011-03-31T22:01:24Z" (1301608884) transition_time 0x6f7-0x6ff (8)
0x6f0|                                             00|               .|      [97]: "2011-07-31T21:00:24Z" (1312146024) transition_time 0x6ff-0x707 (8)
0x700|00 00 00 4e 35 c2 68                           |...N5.h         |
0x700|                     00 00 00 00 4f 74 db 78   |       ....Ot.x |      [98]: "2012-03-29T22:00:24Z" (1333058424) transition_time 0x707-0x70f (8)
0x700|                                             00|               .|      [99]: "2012-09-20T22:00:25Z" (1348178425) transition_time 0x70f-0x717 (8)
0x710|00 00 00 50 5b 91 f9                           |...P[..         |
0x710|                     00 00 00 00 51 54 bd 79   |       ....QT.y |      [100]: "2013-03-28T22:00:25Z" (1364508025) transition_time 0x717-0x71f (8)
0x710|                                             00|               .|      [101]: "2013-09-26T21:00:25Z" (1380229225) transition_time 0x71f-0x727 (8)
0x720|00 00 00 52 44 a0 69                           |...RD.i         |
0x720|                     00 00 00 00 53 34 9f 79   |       ....S4.y |      [102]: "2014-03-27T22:00:25Z" (1395957625) transition_time 0x727-0x72f (8)
0x720|                                             00|               .|      [103]: "2014-10-23T21:00:25Z" (1414098025) transition_time 0x72f-0x737 (8)
0x730|00 00 00 54 49 6c 69                           |...TIli         |
0x730|                     00 00 00 00 55 15 d2 f9   |       ....U... |      [104]: "2015-03-27T22:00:25Z" (1427493625) transition_time 0x737-0x73f (8)
0x730|                                             00|               .|      [105]: "2015-10-22T22:00:26Z" (1445551226) transition_time 0x73f-0x747 (8)
0x740|00 00 00 56 29 5c 7a                           |...V)\z         |
0x740|                     00 00 00 00 56 f5 c3 0a   |       ....V... |      [106]: "2016-03-25T23:00:26Z" (1458946826) transition_time 0x747-0x74f (8)
0x740|                                             00|               .|      [107]: "2016-10-28T22:00:26Z" (1477692026) transition_time 0x74f-0x757 (8)
0x750|00 00 00 58 13 ca 7a                           |...X..z         |
0x750|                     00 00 00 00 58 d5 a5 0b   |       ....X... |      [108]: "2017-03-24T23:00:27Z" (1490396427) transition_time 0x757-0x75f (8)
0x750|                                             00|               .|      [109]: "2017-10-27T22:00:27Z" (1509141627) transition_time 0x75f-0x767 (8)
0x760|00 00 00 59 f3 ac 7b                           |...Y..{         |
0x760|                     00 00 00 00 5a b5 87 0b   |       ....Z... |      [110]: "2018-03-23T23:00:27Z" (1521846027) transition_time 0x767-0x76f (8)
0x760|                                             00|               .|      [111]: "2018-10-26T22:00:27Z" (1540591227) transition_time 0x76f-0x777 (8)
0x770|00 00 00 5b d3 8e 7b                           |...[..{         |
0x770|                     00 00 00 00 5c 9d 43 fb   |       ....\.C. |      [112]: "2019-03-28T22:00:27Z" (1553810427) transition_time 0x777-0x77f (8)
0x770|                                             00|               .|      [113]: "2019-10-25T21:00:27Z" (1572037227) transition_time 0x77f-0x787 (8)
0x780|00 00 00 5d b3 62 6b                           |...].bk         |
0x780|                     00 00 00 00 5e 7e 77 7b   |       ....^~w{ |      [114]: "2020-03-27T22:00:27Z" (1585346427) transition_time 0x787-0x78f (8)
0x780|                                             00|               .|      [115]: "2020-10-23T22:00:27Z" (1603490427) transition_time 0x78f-0x797 (8)
0x790|00 00 00 5f 93 52 7b                           |..._.R{         |
0x790|                     00 00 00 00 60 5e 59 7b   |       ....`^Y{ |      [116]: "2021-03-26T22:00:27Z" (1616796027) transition_time 0x797-0x79f (8)
0x790|                                             00|               .|      [117]: "2021-10-28T22:00:27Z" (1635458427) transition_time 0x79f-0x7a7 (8)
0x7a0|00 00 00 61 7b 1d 7b                           |...a{.{         |
0x7a0|                     00 00 00 00 62 3f 8c fb   |       ....b?.. |      [118]: "2022-03-26T22:00:27Z" (1648332027) transition_time 0x7a7-0x7af (8)
0x7a0|                                             00|               .|      [119]: "2022-10-28T23:00:27Z" (1666998027) transition_time 0x7af-0x7b7 (8)
0x7b0|00 00 00 63 5c 5f 0b                           |...c\_.         |
0x7b0|                     00 00 00 00 64 1e 39 9b   |       ....d.9. |      [120]: "2023-03-25T00:00:27Z" (1679702427) transition_time 0x7b7-0x7bf (8)
0x7b0|                                             00|               .|      [121]: "2023-06-28T00:00:27Z" (1687910427) transition_time 0x7bf-0x7c7 (8)
0x7c0|00 00 00 64 9b 78 1b                           |...d.x.         |
     |                                               |                |    transition_types[0:122]: 0x7c7-0x841 (122)
0x7c0|                     03                        |       .        |      [0]: 3 transition_type 0x7c7-0x7c8 (1)
0x7c0|                        01                     |        .       |      [1]: 1 transition_type 0x7c8-0x7c9 (1)
0x7c0|                           02                  |         .      |      [2]: 2 transition_type 0x7c9-0x7ca (1)
0x7c0|                              01               |          .     |      [3]: 1 transition_type 0x7ca-0x7cb (1)
0x7c0|                                 02            |           .    |      [4]: 2 transition_type 0x7cb-0x7cc (1)
0x7c0|                                    01         |            .   |      [5]: 1 transition_type 0x7cc-0x7cd (1)
0x7c0|                                       02      |             .  |      [6]: 2 transition_type 0x7cd-0x7ce (1)
0x7c0|                                          01   |              . |      [7]: 1 transition_type 0x7ce-0x7cf (1)
0x7c0|                                             02|               .|      [8]: 2 transition_type 0x7cf-0x7d0 (1)
0x7d0|01                                             |.               |      [9]: 1 transition_type 0x7d0-0x7d1 (1)
0x7d0|   02                                          | .              |      [10]: 2 transition_type 0x7d1-0x7d2 (1)
0x7d0|      01                                       |  .             |      [11]: 1 transition_type 0x7d2-0x7d3 (1)
0x7d0|         02                                    |   .            |      [12]: 2 transition_type 0x7d3-0x7d4 (1)
0x7d0|            04                                 |    .           |      [13]: 4 transition_type 0x7d4-0x7d5 (1)
0x7d0|               03                              |     .          |      [14]: 3 transition_type 0x7d5-0x7d6 (1)
0x7d0|                  04                           |      .         |      [15]: 4 transition_type 0x7d6-0x7d7 (1)
0x7d0|                     03                        |       .        |      [16]: 3 transition_type 0x7d7-0x7d8 (1)
0x7d0|                        04                     |        .       |      [17]: 4 transition_type 0x7d8-0x7d9 (1)
0x7d0|                           03                  |         .      |      [18]: 3 transition_type 0x7d9-0x7da (1)
0x7d0|                              04               |          .     |      [19]: 4 transition_type 0x7da-0x7db (1)
0x7d0|                                 03            |           .    |      [20]: 3 transition_type 0x7db-0x7dc (1)
0x7d0|                                    04         |            .   |      [21]: 4 transition_type 0x7dc-0x7dd (1)
0x7d0|                                       03      |             .  |      [22]: 3 transition_type 0x7dd-0x7de (1)
0x7d0|                                          04   |              . |      [23]: 4 transition_type 0x7de-0x7df (1)
0x7d0|                                             03|               .|      [24]: 3 transition_type 0x7df-0x7e0 (1)
0x7e0|04                                             |.               |      [25]: 4 transition_type 0x7e0-0x7e1 (1)
0x7e0|   03                                          | .              |      [26]: 3 transition_type 0x7e1-0x7e2 (1)
0x7e0|      04                                       |  .             |      [27]: 4 transition_type 0x7e2-0x7e3 (1)
0x7e0|         03                                    |   .            |      [28]: 3 transition_type 0x7e3-0x7e4 (1)
0x7e0|            04                                 |    .           |      [29]: 4 transition_type 0x7e4-0x7e5 (1)
0x7e0|               03                              |     .          |      [30]: 3 transition_type 0x7e5-0x7e6 (1)
0x7e0|                  04                           |      .         |      [31]: 4 transition_type 0x7e6-0x7e7 (1)
0x7e0|                     03                        |       .        |      [32]: 3 transition_type 0x7e7-0x7e8 (1)
0x7e0|                        04                     |        .       |      [33]: 4 transition_type 0x7e8-0x7e9 (1)
0x7e0|                           06                  |         .      |      [34]: 6 transition_type 0x7e9-0x7ea (1)
0x7e0|                              05               |          .     |      [35]: 5 transition_type 0x7ea-0x7eb (1)
0x7e0|                                 06            |           .    |      [36]: 6 transition_type 0x7eb-0x7ec (1)
0x7e0|                                    05         |            .   |      [37]: 5 transition_type 0x7ec-0x7ed (1)
0x7e0|                                       06      |             .  |      [38]: 6 transition_type 0x7ed-0x7ee (1)
0x7e0|                                          07   |              . |      [39]: 7 transition_type 0x7ee-0x7ef (1)
0x7e0|                                             08|               .|      [40]: 8 transition_type 0x7ef-0x7f0 (1)
0x7f0|07                                             |.               |      [41]: 7 transition_type 0x7f0-0x7f1 (1)
0x7f0|   08                                          | .              |      [42]: 8 transition_type 0x7f1-0x7f2 (1)
0x7f0|      05                                       |  .             |      [43]: 5 transition_type 0x7f2-0x7f3 (1)
0x7f0|         06                                    |   .            |      [44]: 6 transition_type 0x7f3-0x7f4 (1)
0x7f0|            05                                 |    .           |      [45]: 5 transition_type 0x7f4-0x7f5 (1)
0x7f0|               06                              |     .          |      [46]: 6 transition_type 0x7f5-0x7f6 (1)
0x7f0|                  05                           |      .         |      [47]: 5 transition_type 0x7f6-0x7f7 (1)
0x7f0|                     06                        |       .        |      [48]: 6 transition_type 0x7f7-0x7f8 (1)
0x7f0|                        05                     |        .       |      [49]: 5 transition_type 0x7f8-0x7f9 (1)
0x7f0|                           06                  |         .      |      [50]: 6 transition_type 0x7f9-0x7fa (1)
0x7f0|                              05               |          .     |      [51]: 5 transition_type 0x7fa-0x7fb (1)
0x7f0|                                 06            |           .    |      [52]: 6 transition_type 0x7fb-0x7fc (1)
0x7f0|                                    05         |            .   |      [53]: 5 transition_type 0x7fc-0x7fd (1)
0x7f0|                                       06      |             .  |      [54]: 6 transition_type 0x7fd-0x7fe (1)
0x7f0|                                          05   |              . |      [55]: 5 transition_type 0x7fe-0x7ff (1)
0x7f0|                                             06|               .|      [56]: 6 transition_type 0x7ff-0x800 (1)
0x800|05                                             |.               |      [57]: 5 transition_type 0x800-0x801 (1)
0x800|   06                                          | .              |      [58]: 6 transition_type 0x801-0x802 (1)
0x800|      05                                       |  .             |      [59]: 5 transition_type 0x802-0x803 (1)
0x800|         06                                    |   .            |      [60]: 6 transition_type 0x803-0x804 (1)
0x800|            05                                 |    .           |      [61]: 5 transition_type 0x804-0x805 (1)
0x800|               06                              |     .          |      [62]: 6 transition_type 0x805-0x806 (1)
0x800|                  05                           |      .         |      [63]: 5 transition_type 0x806-0x807 (1)
0x800|                     06                        |       .        |      [64]: 6 transition_type 0x807-0x808 (1)
0x800|                        03                     |        .       |      [65]: 3 transition_type 0x808-0x809 (1)
0x800|                           04                  |         .      |      [66]: 4 transition_type 0x809-0x80a (1)
0x800|                              09               |          .     |      [67]: 9 transition_type 0x80a-0x80b (1)
0x800|                                 04            |           .    |      [68]: 4 transition_type 0x80b-0x80c (1)
0x800|                                    09         |            .   |      [69]: 9 transition_type 0x80c-0x80d (1)
0x800|                                       04      |             .  |      [70]: 4 transition_type 0x80d-0x80e (1)
0x800|                                          09   |              . |      [71]: 9 transition_type 0x80e-0x80f (1)
0x800|                                             04|               .|      [72]: 4 transition_type 0x80f-0x810 (1)
0x810|03                                             |.               |      [73]: 3 transition_type 0x810-0x811 (1)
0x810|   04                                          | .              |      [74]: 4 transition_type 0x811-0x812 (1)
0x810|      03                                       |  .             |      [75]: 3 transition_type 0x812-0x813 (1)
0x810|         04                                    |   .            |      [76]: 4 transition_type 0x813-0x814 (1)
0x810|            03                                 |    .           |      [77]: 3 transition_type 0x814-0x815 (1)
0x810|               04                              |     .          |      [78]: 4 transition_type 0x815-0x816 (1)
0x810|                  03                           |      .         |      [79]: 3 transition_type 0x816-0x817 (1)
0x810|                     04                        |       .        |      [80]: 4 transition_type 0x817-0x818 (1)
0x810|                        03                     |        .       |      [81]: 3 transition_type 0x818-0x819 (1)
0x810|                           04                  |         .      |      [82]: 4 transition_type 0x819-0x81a (1)
0x810|                              03               |          .     |      [83]: 3 transition_type 0x81a-0x81b (1)
0x810|                                 04            |           .    |      [84]: 4 transition_type 0x81b-0x81c (1)
0x810|                                    03         |            .   |      [85]: 3 transition_type 0x81c-0x81d (1)
0x810|                                       04      |             .  |      [86]: 4 transition_type 0x81d-0x81e (1)
0x810|                                          03   |              . |      [87]: 3 transition_type 0x81e-0x81f (1)
0x810|                                             04|               .|      [88]: 4 transition_type 0x81f-0x820 (1)
0x820|03                                             |.               |      [89]: 3 transition_type 0x820-0x821 (1)
0x820|   04                                          | .              |      [90]: 4 transition_type 0x821-0x822 (1)
0x820|      03                                       |  .             |      [91]: 3 transition_type 0x822-0x823 (1)
0x820|         04                                    |   .            |      [92]: 4 transition_type 0x823-0x824 (1)
0x820|            03                                 |    .           |      [93]: 3 transition_type 0x824-0x825 (1)
0x820|               04                              |     .          |      [94]: 4 transition_type 0x825-0x826 (1)
0x820|                  03                           |      .         |      [95]: 3 transition_type 0x826-0x827 (1)
0x820|                     04                        |       .        |      [96]: 4 transition_type 0x827-0x828 (1)
0x820|                        03                     |        .       |      [97]: 3 transition_type 0x828-0x829 (1)
0x820|                           04                  |         .      |      [98]: 4 transition_type 0x829-0x82a (1)
0x820|                              03               |          .     |      [99]: 3 transition_type 0x82a-0x82b (1)
0x820|                                 04            |           .    |      [100]: 4 transition_type 0x82b-0x82c (1)
0x820|                                    03         |            .   |      [101]: 3 transition_type 0x82c-0x82d (1)
0x820|                                       04      |             .  |      [102]: 4 transition_type 0x82d-0x82e (1)
0x820|                                          03   |              . |      [103]: 3 transition_type 0x82e-0x82f (1)
0x820|                                             04|               .|      [104]: 4 transition_type 0x82f-0x830 (1)
0x830|03                                             |.               |      [105]: 3 transition_type 0x830-0x831 (1)
0x830|   04                                          | .              |      [106]: 4 transition_type 0x831-0x832 (1)
0x830|      03                                       |  .             |      [107]: 3 transition_type 0x832-0x833 (1)
0x830|         04                                    |   .            |      [108]: 4 transition_type 0x833-0x834 (1)
0x830|            03                                 |    .           |      [109]: 3 transition_type 0x834-0x835 (1)
0x830|               04                              |     .          |      [110]: 4 transition_type 0x835-0x836 (1)
0x830|                  03                           |      .         |      [111]: 3 transition_type 0x836-0x837 (1)
0x830|                     04                        |       .        |      [112]: 4 transition_type 0x837-0x838 (1)
0x830|                        03                     |        .       |      [113]: 3 transition_type 0x838-0x839 (1)
0x830|                           04                  |         .      |      [114]: 4 transition_type 0x839-0x83a (1)
0x830|                              03               |          .     |      [115]: 3 transition_type 0x83a-0x83b (1)
0x830|                                 04            |           .    |      [116]: 4 transition_type 0x83b-0x83c (1)
0x830|                                    03         |            .   |      [117]: 3 transition_type 0x83c-0x83d (1)
0x830|                                       04      |             .  |      [118]: 4 transition_type 0x83d-0x83e (1)
0x830|                                          03   |              . |      [119]: 3 transition_type 0x83e-0x83f (1)
0x830|                                             04|               .|      [120]: 4 transition_type 0x83f-0x840 (1)
0x840|04                                             |.               |      [121]: 4 transition_type 0x840-0x841 (1)
     |                                               |                |    local_time_type_records[0:10]: 0x841-0x87d (60)
     |                                               |                |      [0]{}: local_time_type 0x841-0x847 (6)
0x840|   00 00 20 50                                 | .. P           |        utoff: 8272 (valid) 0x841-0x845 (4)
0x840|               00                              |     .          |        dst: 0 (valid) 0x845-0x846 (1)
0x840|                  00                           |      .         |        idx: 0 (valid) 0x846-0x847 (1)
     |                                               |                |      [1]{}: local_time_type 0x847-0x84d (6)
0x840|                     00 00 2a 30               |       ..*0     |        utoff: 10800 (valid) 0x847-0x84b (4)
0x840|                                 01            |           .    |        dst: 1 (valid) 0x84b-0x84c (1)
0x840|                                    04         |            .   |        idx: 4 (valid) 0x84c-0x84d (1)
     |                                               |                |      [2]{}: local_time_type 0x84d-0x853 (6)
0x840|                                       00 00 1c|             ...|        utoff: 7200 (valid) 0x84d-0x851 (4)
0x850|20                                             |                |
0x850|   00                                          | .              |        dst: 0 (valid) 0x851-0x852 (1)
0x850|      09                                       |  .             |        idx: 9 (valid) 0x852-0x853 (1)
     |                                               |                |      [3]{}: local_time_type 0x853-0x859 (6)
0x850|         00 00 1c 20                           |   ...          |        utoff: 7200 (valid) 0x853-0x857 (4)
0x850|                     00                        |       .        |        dst: 0 (valid) 0x857-0x858 (1)
0x850|                        09                     |        .       |        idx: 9 (valid) 0x858-0x859 (1)
     |                                               |                |      [4]{}: local_time_type 0x859-0x85f (6)
0x850|                           00 00 2a 30         |         ..*0   |        utoff: 10800 (valid) 0x859-0x85d (4)
0x850|                                       01      |             .  |        dst: 1 (valid) 0x85d-0x85e (1)
0x850|                                          04   |              . |        idx: 4 (valid) 0x85e-0x85f (1)
     |                                               |                |      [5]{}: local_time_type 0x85f-0x865 (6)
0x850|                                             00|               .|        utoff: 10800 (valid) 0x85f-0x863 (4)
0x860|00 2a 30                                       |.*0             |
0x860|         01                                    |   .            |        dst: 1 (valid) 0x863-0x864 (1)
0x860|            0d                                 |    .           |        idx: 13 (valid) 0x864-0x865 (1)
     |                                               |                |      [6]{}: local_time_type 0x865-0x86b (6)
0x860|               00 00 1c 20                     |     ...        |        utoff: 7200 (valid) 0x865-0x869 (4)
0x860|                           00                  |         .      |        dst: 0 (valid) 0x869-0x86a (1)
0x860|                              11               |          .     |        idx: 17 (valid) 0x86a-0x86b (1)
     |                                               |                |      [7]{}: local_time_type 0x86b-0x871 (6)
0x860|                                 00 00 2a 30   |           ..*0 |        utoff: 10800 (valid) 0x86b-0x86f (4)
0x860|                                             01|               .|        dst: 1 (valid) 0x86f-0x870 (1)
0x870|0d                                             |.               |        idx: 13 (valid) 0x870-0x871 (1)
     |                                               |                |      [8]{}: local_time_type 0x871-0x877 (6)
0x870|   00 00 1c 20                                 | ...            |        utoff: 7200 (valid) 0x871-0x875 (4)
0x870|               00                              |     .          |        dst: 0 (valid) 0x875-0x876 (1)
0x870|                  11                           |      .         |        idx: 17 (valid) 0x876-0x877 (1)
     |                                               |                |      [9]{}: local_time_type 0x877-0x87d (6)
0x870|                     00 00 1c 20               |       ...      |        utoff: 7200 (valid) 0x877-0x87b (4)
0x870|                                 00            |           .    |        dst: 0 (valid) 0x87b-0x87c (1)
0x870|                                    09         |            .   |        idx: 9 (valid) 0x87c-0x87d (1)
     |                                               |                |    time_zone_designations[0:5]: 0x87d-0x892 (21)
0x870|                                       4c 4d 54|             LMT|      [0]: "LMT" time_zone_designation 0x87d-0x881 (4)
0x880|00                                             |.               |
0x880|   45 45 53 54 00                              | EEST.          |      [1]: "EEST" time_zone_designation 0x881-0x886 (5)
0x880|                  45 45 54 00                  |      EET.      |      [2]: "EET" time_zone_designation 0x886-0x88a (4)
0x880|                              49 44 54 00      |          IDT.  |      [3]: "IDT" time_zone_designation 0x88a-0x88e (4)
0x880|                                          49 53|              IS|      [4]: "IST" time_zone_designation 0x88e-0x892 (4)
0x890|54 00                                          |T.              |
     |                                               |                |    leap_second_records[0:27]: 0x892-0x9d6 (324)
     |                                               |                |      [0]{}: leap_second_record 0x892-0x89e (12)
0x890|      00 00 00 00 04 b2 58 00                  |  ......X.      |        occur: "1972-07-01T00:00:00Z" (78796800) 0x892-0x89a (8)
0x890|                              00 00 00 01      |          ....  |        corr: 1 0x89a-0x89e (4)
     |                                               |                |      [1]{}: leap_second_record 0x89e-0x8aa (12)
0x890|                                          00 00|              ..|        occur: "1973-01-01T00:00:01Z" (94694401) 0x89e-0x8a6 (8)
0x8a0|00 00 05 a4 ec 01                              |......          |
0x8a0|                  00 00 00 02                  |      ....      |        corr: 2 0x8a6-0x8aa (4)
     |                                               |                |      [2]{}: leap_second_record 0x8aa-0x8b6 (12)
0x8a0|                              00 00 00 00 07 86|          ......|        occur: "1974-01-01T00:00:02Z" (126230402) 0x8aa-0x8b2 (8)
0x8b0|1f 82                                          |..              |
0x8b0|      00 00 00 03                              |  ....          |        corr: 3 0x8b2-0x8b6 (4)
     |                                               |                |      [3]{}: leap_second_record 0x8b6-0x8c2 (12)
0x8b0|                  00 00 00 00 09 67 53 03      |      .....gS.  |        occur: "1975-01-01T00:00:03Z" (157766403) 0x8b6-0x8be (8)
0x8b0|                                          00 00|              ..|        corr: 4 0x8be-0x8c2 (4)
0x8c0|00 04                                          |..              |
     |                                               |                |      [4]{}: leap_second_record 0x8c2-0x8ce (12)
0x8c0|      00 00 00 00 0b 48 86 84                  |  .....H..      |        occur: "1976-01-01T00:00:04Z" (189302404) 0x8c2-0x8ca (8)
0x8c0|                              00 00 00 05      |          ....  |        corr: 5 0x8ca-0x8ce (4)
     |                                               |                |      [5]{}: leap_second_record 0x8ce-0x8da (12)
0x8c0|                                          00 00|              ..|        occur: "1977-01-01T00:00:05Z" (220924805) 0x8ce-0x8d6 (8)
0x8d0|00 00 0d 2b 0b 85                              |...+..          |
0x8d0|                  00 00 00 06                  |      ....      |        corr: 6 0x8d6-0x8da (4)
     |                                               |                |      [6]{}: leap_second_record 0x8da-0x8e6 (12)
0x8d0|                              00 00 00 00 0f 0c|          ......|        occur: "1978-01-01T00:00:06Z" (252460806) 0x8da-0x8e2 (8)
0x8e0|3f 06                                          |?.              |
0x8e0|      00 00 00 07                              |  ....          |        corr: 7 0x8e2-0x8e6 (4)
     |                                               |                |      [7]{}: leap_second_record 0x8e6-0x8f2 (12)
0x8e0|                  00 00 00 00 10 ed 72 87      |      ......r.  |        occur: "1979-01-01T00:00:07Z" (283996807) 0x8e6-0x8ee (8)
0x8e0|                                          00 00|              ..|        corr: 8 0x8ee-0x8f2 (4)
0x8f0|00 08                                          |..              |
     |                                               |                |      [8]{}: leap_second_record 0x8f2-0x8fe (12)
0x8f0|      00 00 00 00 12 ce a6 08                  |  ........      |        occur: "1980-01-01T00:00:08Z" (315532808) 0x8f2-0x8fa (8)
0x8f0|                              00 00 00 09      |          ....  |        corr: 9 0x8fa-0x8fe (4)
     |                                               |                |      [9]{}: leap_second_record 0x8fe-0x90a (12)
0x8f0|                                          00 00|              ..|        occur: "1981-07-01T00:00:09Z" (362793609) 0x8fe-0x906 (8)
0x900|00 00 15 9f ca 89                              |......          |
0x900|                  00 00 00 0a                  |      ....      |        corr: 10 0x906-0x90a (4)
     |                                               |                |      [10]{}: leap_second_record 0x90a-0x916 (12)
0x900|                              00 00 00 00 17 80|          ......|        occur: "1982-07-01T00:00:10Z" (394329610) 0x90a-0x912 (8)
0x910|fe 0a                                          |..              |
0x910|      00 00 00 0b                              |  ....          |        corr: 11 0x912-0x916 (4)
     |                                               |                |      [11]{}: leap_second_record 0x916-0x922 (12)
0x910|                  00 00 00 00 19 62 31 8b      |      .....b1.  |        occur: "1983-07-01T00:00:11Z" (425865611) 0x916-0x91e (8)
0x910|                                          00 00|              ..|        corr: 12 0x91e-0x922 (4)
0x920|00 0c                                          |..              |
     |                                               |                |      [12]{}: leap_second_record 0x922-0x92e (12)
0x920|      00 00 00 00 1d 25 ea 0c                  |  .....%..      |        occur: "1985-07-01T00:00:12Z" (489024012) 0x922-0x92a (8)
0x920|                              00 00 00 0d      |          ....  |        corr: 13 0x92a-0x92e (4)
     |                                               |                |      [13]{}: leap_second_record 0x92e-0x93a (12)
0x920|                                          00 00|              ..|        occur: "1988-01-01T00:00:13Z" (567993613) 0x92e-0x936 (8)
0x930|00 00 21 da e5 0d                              |..!...          |
0x930|                  00 00 00 0e                  |      ....      |        corr: 14 0x936-0x93a (4)
     |                                               |                |      [14]{}: leap_second_record 0x93a-0x946 (12)
0x930|                              00 00 00 00 25 9e|          ....%.|        occur: "1990-01-01T00:00:14Z" (631152014) 0x93a-0x942 (8)
0x940|9d 8e                                          |..              |
0x940|      00 00 00 0f                              |  ....          |        corr: 15 0x942-0x946 (4)
     |                                               |                |      [15]{}: leap_second_record 0x946-0x952 (12)
0x940|                  00 00 00 00 27 7f d1 0f      |      ....'...  |        occur: "1991-01-01T00:00:15Z" (662688015) 0x946-0x94e (8)
0x940|                                          00 00|              ..|        corr: 16 0x94e-0x952 (4)
0x950|00 10                                          |..              |
     |                                               |                |      [16]{}: leap_second_record 0x952-0x95e (12)
0x950|      00 00 00 00 2a 50 f5 90                  |  ....*P..      |        occur: "1992-07-01T00:00:16Z" (709948816) 0x952-0x95a (8)
0x950|                              00 00 00 11      |          ....  |        corr: 17 0x95a-0x95e (4)
     |                                               |                |      [17]{}: leap_second_record 0x95e-0x96a (12)
0x950|                                          00 00|              ..|        occur: "1993-07-01T00:00:17Z" (741484817) 0x95e-0x966 (8)
0x960|00 00 2c 32 29 11                              |..,2).          |
0x960|                  00 00 00 12                  |      ....      |        corr: 18 0x966-0x96a (4)
     |                                               |                |      [18]{}: leap_second_record 0x96a-0x976 (12)
0x960|                              00 00 00 00 2e 13|          ......|        occur: "1994-07-01T00:00:18Z" (773020818) 0x96a-0x972 (8)
0x970|5c 92                                          |\.              |
0x970|      00 00 00 13                              |  ....          |        corr: 19 0x972-0x976 (4)
     |                                               |                |      [19]{}: leap_second_record 0x976-0x982 (12)
0x970|                  00 00 00 00 30 e7 24 13      |      ....0.$.  |        occur: "1996-01-01T00:00:19Z" (820454419) 0x976-0x97e (8)
0x970|                                          00 00|              ..|        corr: 20 0x97e-0x982 (4)
0x980|00 14                                          |..              |
     |                                               |                |      [20]{}: leap_second_record 0x982-0x98e (12)
0x980|      00 00 00 00 33 b8 48 94                  |  ....3.H.      |        occur: "1997-07-01T00:00:20Z" (867715220) 0x982-0x98a (8)
0x980|                              00 00 00 15      |          ....  |        corr: 21 0x98a-0x98e (4)
     |                                               |                |      [21]{}: leap_second_record 0x98e-0x99a (12)
0x980|                                          00 00|              ..|        occur: "1999-01-01T00:00:21Z" (915148821) 0x98e-0x996 (8)
0x990|00 00 36 8c 10 15                              |..6...          |
0x990|                  00 00 00 16                  |      ....      |        corr: 22 0x996-0x99a (4)
     |                                               |                |      [22]{}: leap_second_record 0x99a-0x9a6 (12)
0x990|                              00 00 00 00 43 b7|          ....C.|        occur: "2006-01-01T00:00:22Z" (1136073622) 0x99a-0x9a2 (8)
0x9a0|1b 96                                          |..              |
0x9a0|      00 00 00 17                              |  ....          |        corr: 23 0x9a2-0x9a6 (4)
     |                                               |                |      [23]{}: leap_second_record 0x9a6-0x9b2 (12)
0x9a0|                  00 00 00 00 49 5c 07 97      |      ....I\..  |        occur: "2009-01-01T00:00:23Z" (1230768023) 0x9a6-0x9ae (8)
0x9a0|                                          00 00|              ..|        corr: 24 0x9ae-0x9b2 (4)
0x9b0|00 18                                          |..              |
     |                                               |                |      [24]{}: leap_second_record 0x9b2-0x9be (12)
0x9b0|      00 00 00 00 4f ef 93 18                  |  ....O...      |        occur: "2012-07-01T00:00:24Z" (1341100824) 0x9b2-0x9ba (8)
0x9b0|                              00 00 00 19      |          ....  |        corr: 25 0x9ba-0x9be (4)
     |                                               |                |      [25]{}: leap_second_record 0x9be-0x9ca (12)
0x9b0|                                          00 00|              ..|        occur: "2015-07-01T00:00:25Z" (1435708825) 0x9be-0x9c6 (8)
0x9c0|00 00 55 93 2d 99                              |..U.-.          |
0x9c0|                  00 00 00 1a                  |      ....      |        corr: 26 0x9c6-0x9ca (4)
     |                                               |                |      [26]{}: leap_second_record 0x9ca-0x9d6 (12)
0x9c0|                              00 00 00 00 58 68|          ....Xh|        occur: "2017-01-01T00:00:26Z" (1483228826) 0x9ca-0x9d2 (8)
0x9d0|46 9a                                          |F.              |
0x9d0|      00 00 00 1b                              |  ....          |        corr: 27 0x9d2-0x9d6 (4)
     |                                               |                |    standard_wall_indicators[0:10]: 0x9d6-0x9e0 (10)
0x9d0|                  00                           |      .         |      [0]: 0 standard_wall_indicator (valid) 0x9d6-0x9d7 (1)
0x9d0|                     01                        |       .        |      [1]: 1 standard_wall_indicator (valid) 0x9d7-0x9d8 (1)
0x9d0|                        01                     |        .       |      [2]: 1 standard_wall_indicator (valid) 0x9d8-0x9d9 (1)
0x9d0|                           00                  |         .      |      [3]: 0 standard_wall_indicator (valid) 0x9d9-0x9da (1)
0x9d0|                              00               |          .     |      [4]: 0 standard_wall_indicator (valid) 0x9da-0x9db (1)
0x9d0|                                 00            |           .    |      [5]: 0 standard_wall_indicator (valid) 0x9db-0x9dc (1)
0x9d0|                                    00         |            .   |      [6]: 0 standard_wall_indicator (valid) 0x9dc-0x9dd (1)
0x9d0|                                       01      |             .  |      [7]: 1 standard_wall_indicator (valid) 0x9dd-0x9de (1)
0x9d0|                                          01   |              . |      [8]: 1 standard_wall_indicator (valid) 0x9de-0x9df (1)
0x9d0|                                             01|               .|      [9]: 1 standard_wall_indicator (valid) 0x9df-0x9e0 (1)
     |                                               |                |    ut_local_indicators[0:10]: 0x9e0-0x9ea (10)
0x9e0|00                                             |.               |      [0]: 0 ut_local_indicator (valid) 0x9e0-0x9e1 (1)
0x9e0|   01                                          | .              |      [1]: 1 ut_local_indicator (valid) 0x9e1-0x9e2 (1)
0x9e0|      01                                       |  .             |      [2]: 1 ut_local_indicator (valid) 0x9e2-0x9e3 (1)
0x9e0|         00                                    |   .            |      [3]: 0 ut_local_indicator (valid) 0x9e3-0x9e4 (1)
0x9e0|            00                                 |    .           |      [4]: 0 ut_local_indicator (valid) 0x9e4-0x9e5 (1)
0x9e0|               00                              |     .          |      [5]: 0 ut_local_indicator (valid) 0x9e5-0x9e6 (1)
0x9e0|                  00                           |      .         |      [6]: 0 ut_local_indicator (valid) 0x9e6-0x9e7 (1)
0x9e0|                     00                        |       .        |      [7]: 0 ut_local_indicator (valid) 0x9e7-0x9e8 (1)
0x9e0|                        00                     |        .       |      [8]: 0 ut_local_indicator (valid) 0x9e8-0x9e9 (1)
0x9e0|                           00                  |         .      |      [9]: 0 ut_local_indicator (valid) 0x9e9-0x9ea (1)
     |                                               |                |  footer{}: 0x9ea-0x9ec (2)
0x9e0|                              0a               |          .     |    nl1: 10 (valid) 0x9ea-0x9eb (1)
     |                                               |                |    tz_string: "" 0x9eb-0x9eb (0)
0x9e0|                                 0a|           |           .|   |    nl2: 10 (valid) 0x9eb-0x9ec (1)
