$ fq -d tzif dv Gibraltar
     |00 01 02 03 04 05 06 07 08 09 0a 0b 0c 0d 0e 0f|0123456789abcdef|.{}: Gibraltar (tzif) 0x0-0xbfb.7 (3068)
     |                                               |                |  v1header{}: 0x0-0x2b.7 (44)
0x000|54 5a 69 66                                    |TZif            |    magic: 0x545a6966 (valid) 0x0-0x3.7 (4)
0x000|            32                                 |    2           |    ver: "2" (0x32) (valid) 0x4-0x4.7 (1)
0x000|               00 00 00 00 00 00 00 00 00 00 00|     ...........|    reserved: raw bits 0x5-0x13.7 (15)
0x010|00 00 00 00                                    |....            |
0x010|            00 00 00 08                        |    ....        |    isutcnt: 8 0x14-0x17.7 (4)
0x010|                        00 00 00 08            |        ....    |    isstdcnt: 8 0x18-0x1b.7 (4)
0x010|                                    00 00 00 00|            ....|    leapcnt: 0 0x1c-0x1f.7 (4)
0x020|00 00 00 c6                                    |....            |    timecnt: 198 0x20-0x23.7 (4)
0x020|            00 00 00 08                        |    ....        |    typecnt: 8 0x24-0x27.7 (4)
0x020|                        00 00 00 1a            |        ....    |    charcnt: 26 0x28-0x2b.7 (4)
     |                                               |                |  v1datablock{}: 0x2c-0x463.7 (1080)
     |                                               |                |    transition_times[0:198]: 0x2c-0x343.7 (792)
0x020|                                    80 00 00 00|            ....|      [0]: "1901-12-13T20:45:52Z" (-2147483648) transition_time 0x2c-0x2f.7 (4)
0x030|9b 26 ad a0                                    |.&..            |      [1]: "1916-05-21T02:00:00Z" (-1691964000) transition_time 0x30-0x33.7 (4)
0x030|            9b d6 05 20                        |    ...         |      [2]: "1916-10-01T02:00:00Z" (-1680472800) transition_time 0x34-0x37.7 (4)
0x030|                        9c cf 30 a0            |        ..0.    |      [3]: "1917-04-08T02:00:00Z" (-1664143200) transition_time 0x38-0x3b.7 (4)
0x030|                                    9d a4 c3 a0|            ....|      [4]: "1917-09-17T02:00:00Z" (-1650146400) transition_time 0x3c-0x3f.7 (4)
0x040|9e 9c 9d a0                                    |....            |      [5]: "1918-03-24T02:00:00Z" (-1633903200) transition_time 0x40-0x43.7 (4)
0x040|            9f 97 1a a0                        |    ....        |      [6]: "1918-09-30T02:00:00Z" (-1617487200) transition_time 0x44-0x47.7 (4)
0x040|                        a0 85 ba 20            |        ...     |      [7]: "1919-03-30T02:00:00Z" (-1601848800) transition_time 0x48-0x4b.7 (4)
0x040|                                    a1 76 fc a0|            .v..|      [8]: "1919-09-29T02:00:00Z" (-1586037600) transition_time 0x4c-0x4f.7 (4)
0x050|a2 65 9c 20                                    |.e.             |      [9]: "1920-03-28T02:00:00Z" (-1570399200) transition_time 0x50-0x53.7 (4)
0x050|            a3 7b c8 a0                        |    .{..        |      [10]: "1920-10-25T02:00:00Z" (-1552168800) transition_time 0x54-0x57.7 (4)
0x050|                        a4 4e b8 a0            |        .N..    |      [11]: "1921-04-03T02:00:00Z" (-1538344800) transition_time 0x58-0x5b.7 (4)
0x050|                                    a5 3f fb 20|            .?. |      [12]: "1921-10-03T02:00:00Z" (-1522533600) transition_time 0x5c-0x5f.7 (4)
0x060|a6 25 60 20                                    |.%`             |      [13]: "1922-03-26T02:00:00Z" (-1507500000) transition_time 0x60-0x63.7 (4)
0x060|            a7 27 c6 20                        |    .'.         |      [14]: "1922-10-08T02:00:00Z" (-1490565600) transition_time 0x64-0x67.7 (4)
0x060|                        a8 2a 2c 20            |        .*,     |      [15]: "1923-04-22T02:00:00Z" (-1473631200) transition_time 0x68-0x6b.7 (4)
0x060|                                    a8 eb f8 a0|            ....|      [16]: "1923-09-16T02:00:00Z" (-1460930400) transition_time 0x6c-0x6f.7 (4)
0x070|aa 00 d3 a0                                    |....            |      [17]: "1924-04-13T02:00:00Z" (-1442786400) transition_time 0x70-0x73.7 (4)
0x070|            aa d5 15 20                        |    ...         |      [18]: "1924-09-21T02:00:00Z" (-1428876000) transition_time 0x74-0x77.7 (4)
0x070|                        ab e9 f0 20            |        ...     |      [19]: "1925-04-19T02:00:00Z" (-1410732000) transition_time 0x78-0x7b.7 (4)
0x070|                                    ac c7 6c 20|            ..l |      [20]: "1925-10-04T02:00:00Z" (-1396216800) transition_time 0x7c-0x7f.7 (4)
0x080|ad c9 d2 20                                    |...             |      [21]: "1926-04-18T02:00:00Z" (-1379282400) transition_time 0x80-0x83.7 (4)
0x080|            ae a7 4e 20                        |    ..N         |      [22]: "1926-10-03T02:00:00Z" (-1364767200) transition_time 0x84-0x87.7 (4)
0x080|                        af a0 79 a0            |        ..y.    |      [23]: "1927-04-10T02:00:00Z" (-1348437600) transition_time 0x88-0x8b.7 (4)
0x080|                                    b0 87 30 20|            ..0 |      [24]: "1927-10-02T02:00:00Z" (-1333317600) transition_time 0x8c-0x8f.7 (4)
0x090|b1 92 d0 a0                                    |....            |      [25]: "1928-04-22T02:00:00Z" (-1315778400) transition_time 0x90-0x93.7 (4)
0x090|            b2 70 4c a0                        |    .pL.        |      [26]: "1928-10-07T02:00:00Z" (-1301263200) transition_time 0x94-0x97.7 (4)
0x090|                        b3 72 b2 a0            |        .r..    |      [27]: "1929-04-21T02:00:00Z" (-1284328800) transition_time 0x98-0x9b.7 (4)
0x090|                                    b4 50 2e a0|            .P..|      [28]: "1929-10-06T02:00:00Z" (-1269813600) transition_time 0x9c-0x9f.7 (4)
0x0a0|b5 49 5a 20                                    |.IZ             |      [29]: "1930-04-13T02:00:00Z" (-1253484000) transition_time 0xa0-0xa3.7 (4)
0x0a0|            b6 30 10 a0                        |    .0..        |      [30]: "1930-10-05T02:00:00Z" (-1238364000) transition_time 0xa4-0xa7.7 (4)
0x0a0|                        b7 32 76 a0            |        .2v.    |      [31]: "1931-04-19T02:00:00Z" (-1221429600) transition_time 0xa8-0xab.7 (4)
0x0a0|                                    b8 0f f2 a0|            ....|      [32]: "1931-10-04T02:00:00Z" (-1206914400) transition_time 0xac-0xaf.7 (4)
0x0b0|b9 12 58 a0                                    |..X.            |      [33]: "1932-04-17T02:00:00Z" (-1189980000) transition_time 0xb0-0xb3.7 (4)
0x0b0|            b9 ef d4 a0                        |    ....        |      [34]: "1932-10-02T02:00:00Z" (-1175464800) transition_time 0xb4-0xb7.7 (4)
0x0b0|                        ba e9 00 20            |        ...     |      [35]: "1933-04-09T02:00:00Z" (-1159135200) transition_time 0xb8-0xbb.7 (4)
0x0b0|                                    bb d8 f1 20|            ... |      [36]: "1933-10-08T02:00:00Z" (-1143410400) transition_time 0xbc-0xbf.7 (4)
0x0c0|bc db 57 20                                    |..W             |      [37]: "1934-04-22T02:00:00Z" (-1126476000) transition_time 0xc0-0xc3.7 (4)
0x0c0|            bd b8 d3 20                        |    ...         |      [38]: "1934-10-07T02:00:00Z" (-1111960800) transition_time 0xc4-0xc7.7 (4)
0x0c0|                        be b1 fe a0            |        ....    |      [39]: "1935-04-14T02:00:00Z" (-1095631200) transition_time 0xc8-0xcb.7 (4)
0x0c0|                                    bf 98 b5 20|            ... |      [40]: "1935-10-06T02:00:00Z" (-1080511200) transition_time 0xcc-0xcf.7 (4)
0x0d0|c0 9b 1b 20                                    |...             |      [41]: "1936-04-19T02:00:00Z" (-1063576800) transition_time 0xd0-0xd3.7 (4)
0x0d0|            c1 78 97 20                        |    .x.         |      [42]: "1936-10-04T02:00:00Z" (-1049061600) transition_time 0xd4-0xd7.7 (4)
0x0d0|                        c2 7a fd 20            |        .z.     |      [43]: "1937-04-18T02:00:00Z" (-1032127200) transition_time 0xd8-0xdb.7 (4)
0x0d0|                                    c3 58 79 20|            .Xy |      [44]: "1937-10-03T02:00:00Z" (-1017612000) transition_time 0xdc-0xdf.7 (4)
0x0e0|c4 51 a4 a0                                    |.Q..            |      [45]: "1938-04-10T02:00:00Z" (-1001282400) transition_time 0xe0-0xe3.7 (4)
0x0e0|            c5 38 5b 20                        |    .8[         |      [46]: "1938-10-02T02:00:00Z" (-986162400) transition_time 0xe4-0xe7.7 (4)
0x0e0|                        c6 3a c1 20            |        .:.     |      [47]: "1939-04-16T02:00:00Z" (-969228000) transition_time 0xe8-0xeb.7 (4)
0x0e0|                                    c7 58 d6 a0|            .X..|      [48]: "1939-11-19T02:00:00Z" (-950479200) transition_time 0xec-0xef.7 (4)
0x0f0|c7 da 09 a0                                    |....            |      [49]: "1940-02-25T02:00:00Z" (-942012000) transition_time 0xf0-0xf3.7 (4)
0x0f0|            ca 16 26 90                        |    ..&.        |      [50]: "1941-05-04T01:00:00Z" (-904518000) transition_time 0xf4-0xf7.7 (4)
0x0f0|                        ca 97 59 90            |        ..Y.    |      [51]: "1941-08-10T01:00:00Z" (-896050800) transition_time 0xf8-0xfb.7 (4)
0x0f0|                                    cb d1 1e 90|            ....|      [52]: "1942-04-05T01:00:00Z" (-875487600) transition_time 0xfc-0xff.7 (4)
0x100|cc 77 3b 90                                    |.w;.            |      [53]: "1942-08-09T01:00:00Z" (-864601200) transition_time 0x100-0x103.7 (4)
0x100|            cd b1 00 90                        |    ....        |      [54]: "1943-04-04T01:00:00Z" (-844038000) transition_time 0x104-0x107.7 (4)
0x100|                        ce 60 58 10            |        .`X.    |      [55]: "1943-08-15T01:00:00Z" (-832546800) transition_time 0x108-0x10b.7 (4)
0x100|                                    cf 90 e2 90|            ....|      [56]: "1944-04-02T01:00:00Z" (-812588400) transition_time 0x10c-0x10f.7 (4)
0x110|d0 6e 5e 90                                    |.n^.            |      [57]: "1944-09-17T01:00:00Z" (-798073200) transition_time 0x110-0x113.7 (4)
0x110|            d1 72 16 10                        |    .r..        |      [58]: "1945-04-02T01:00:00Z" (-781052400) transition_time 0x114-0x117.7 (4)
0x110|                        d1 fb 32 10            |        ..2.    |      [59]: "1945-07-15T01:00:00Z" (-772066800) transition_time 0x118-0x11b.7 (4)
0x110|                                    d2 69 fe 20|            .i. |      [60]: "1945-10-07T02:00:00Z" (-764805600) transition_time 0x11c-0x11f.7 (4)
0x120|d3 63 29 a0                                    |.c).            |      [61]: "1946-04-14T02:00:00Z" (-748476000) transition_time 0x120-0x123.7 (4)
0x120|            d4 49 e0 20                        |    .I.         |      [62]: "1946-10-06T02:00:00Z" (-733356000) transition_time 0x124-0x127.7 (4)
0x120|                        d5 1e 21 a0            |        ..!.    |      [63]: "1947-03-16T02:00:00Z" (-719445600) transition_time 0x128-0x12b.7 (4)
0x120|                                    d5 42 fd 90|            .B..|      [64]: "1947-04-13T01:00:00Z" (-717030000) transition_time 0x12c-0x12f.7 (4)
0x130|d5 df e0 10                                    |....            |      [65]: "1947-08-10T01:00:00Z" (-706748400) transition_time 0x130-0x133.7 (4)
0x130|            d6 4e ac 20                        |    .N.         |      [66]: "1947-11-02T02:00:00Z" (-699487200) transition_time 0x134-0x137.7 (4)
0x130|                        d6 fe 03 a0            |        ....    |      [67]: "1948-03-14T02:00:00Z" (-687996000) transition_time 0x138-0x13b.7 (4)
0x130|                                    d8 2e 8e 20|            ... |      [68]: "1948-10-31T02:00:00Z" (-668037600) transition_time 0x13c-0x13f.7 (4)
0x140|d8 f9 95 20                                    |...             |      [69]: "1949-04-03T02:00:00Z" (-654732000) transition_time 0x140-0x143.7 (4)
0x140|            da 0e 70 20                        |    ..p         |      [70]: "1949-10-30T02:00:00Z" (-636588000) transition_time 0x144-0x147.7 (4)
0x140|                        da eb ec 20            |        ...     |      [71]: "1950-04-16T02:00:00Z" (-622072800) transition_time 0x148-0x14b.7 (4)
0x140|                                    db e5 17 a0|            ....|      [72]: "1950-10-22T02:00:00Z" (-605743200) transition_time 0x14c-0x14f.7 (4)
0x150|dc cb ce 20                                    |...             |      [73]: "1951-04-15T02:00:00Z" (-590623200) transition_time 0x150-0x153.7 (4)
0x150|            dd c4 f9 a0                        |    ....        |      [74]: "1951-10-21T02:00:00Z" (-574293600) transition_time 0x154-0x157.7 (4)
0x150|                        de b4 ea a0            |        ....    |      [75]: "1952-04-20T02:00:00Z" (-558568800) transition_time 0x158-0x15b.7 (4)
0x150|                                    df ae 16 20|            ... |      [76]: "1952-10-26T02:00:00Z" (-542239200) transition_time 0x15c-0x15f.7 (4)
0x160|e0 94 cc a0                                    |....            |      [77]: "1953-04-19T02:00:00Z" (-527119200) transition_time 0x160-0x163.7 (4)
0x160|            e1 72 48 a0                        |    .rH.        |      [78]: "1953-10-04T02:00:00Z" (-512604000) transition_time 0x164-0x167.7 (4)
0x160|                        e2 6b 74 20            |        .kt     |      [79]: "1954-04-11T02:00:00Z" (-496274400) transition_time 0x168-0x16b.7 (4)
0x160|                                    e3 52 2a a0|            .R*.|      [80]: "1954-10-03T02:00:00Z" (-481154400) transition_time 0x16c-0x16f.7 (4)
0x170|e4 54 90 a0                                    |.T..            |      [81]: "1955-04-17T02:00:00Z" (-464220000) transition_time 0x170-0x173.7 (4)
0x170|            e5 32 0c a0                        |    .2..        |      [82]: "1955-10-02T02:00:00Z" (-449704800) transition_time 0x174-0x177.7 (4)
0x170|                        e6 3d ad 20            |        .=.     |      [83]: "1956-04-22T02:00:00Z" (-432165600) transition_time 0x178-0x17b.7 (4)
0x170|                                    e7 1b 29 20|            ..) |      [84]: "1956-10-07T02:00:00Z" (-417650400) transition_time 0x17c-0x17f.7 (4)
0x180|e8 14 54 a0                                    |..T.            |      [85]: "1957-04-14T02:00:00Z" (-401320800) transition_time 0x180-0x183.7 (4)
0x180|            17 03 cd 90                        |    ....        |      [86]: "1982-03-28T01:00:00Z" (386125200) transition_time 0x184-0x187.7 (4)
0x180|                        17 f3 be 90            |        ....    |      [87]: "1982-09-26T01:00:00Z" (401850000) transition_time 0x188-0x18b.7 (4)
0x180|                                    18 e3 af 90|            ....|      [88]: "1983-03-27T01:00:00Z" (417574800) transition_time 0x18c-0x18f.7 (4)
0x190|19 d3 a0 90                                    |....            |      [89]: "1983-09-25T01:00:00Z" (433299600) transition_time 0x190-0x193.7 (4)
0x190|            1a c3 91 90                        |    ....        |      [90]: "1984-03-25T01:00:00Z" (449024400) transition_time 0x194-0x197.7 (4)
0x190|                        1b bc bd 10            |        ....    |      [91]: "1984-09-30T01:00:00Z" (465354000) transition_time 0x198-0x19b.7 (4)
0x190|                                    1c ac ae 10|            ....|      [92]: "1985-03-31T01:00:00Z" (481078800) transition_time 0x19c-0x19f.7 (4)
0x1a0|1d 9c 9f 10                                    |....            |      [93]: "1985-09-29T01:00:00Z" (496803600) transition_time 0x1a0-0x1a3.7 (4)
0x1a0|            1e 8c 90 10                        |    ....        |      [94]: "1986-03-30T01:00:00Z" (512528400) transition_time 0x1a4-0x1a7.7 (4)
0x1a0|                        1f 7c 81 10            |        .|..    |      [95]: "1986-09-28T01:00:00Z" (528253200) transition_time 0x1a8-0x1ab.7 (4)
0x1a0|                                    20 6c 72 10|             lr.|      [96]: "1987-03-29T01:00:00Z" (543978000) transition_time 0x1ac-0x1af.7 (4)
0x1b0|21 5c 63 10                                    |!\c.            |      [97]: "1987-09-27T01:00:00Z" (559702800) transition_time 0x1b0-0x1b3.7 (4)
0x1b0|            22 4c 54 10                        |    "LT.        |      [98]: "1988-03-27T01:00:00Z" (575427600) transition_time 0x1b4-0x1b7.7 (4)
0x1b0|                        23 3c 45 10            |        #<E.    |      [99]: "1988-09-25T01:00:00Z" (591152400) transition_time 0x1b8-0x1bb.7 (4)
0x1b0|                                    24 2c 36 10|            $,6.|      [100]: "1989-03-26T01:00:00Z" (606877200) transition_time 0x1bc-0x1bf.7 (4)
0x1c0|25 1c 27 10                                    |%.'.            |      [101]: "1989-09-24T01:00:00Z" (622602000) transition_time 0x1c0-0x1c3.7 (4)
0x1c0|            26 0c 18 10                        |    &...        |      [102]: "1990-03-25T01:00:00Z" (638326800) transition_time 0x1c4-0x1c7.7 (4)
0x1c0|                        27 05 43 90            |        '.C.    |      [103]: "1990-09-30T01:00:00Z" (654656400) transition_time 0x1c8-0x1cb.7 (4)
0x1c0|                                    27 f5 34 90|            '.4.|      [104]: "1991-03-31T01:00:00Z" (670381200) transition_time 0x1cc-0x1cf.7 (4)
0x1d0|28 e5 25 90                                    |(.%.            |      [105]: "1991-09-29T01:00:00Z" (686106000) transition_time 0x1d0-0x1d3.7 (4)
0x1d0|            29 d5 16 90                        |    )...        |      [106]: "1992-03-29T01:00:00Z" (701830800) transition_time 0x1d4-0x1d7.7 (4)
0x1d0|                        2a c5 07 90            |        *...    |      [107]: "1992-09-27T01:00:00Z" (717555600) transition_time 0x1d8-0x1db.7 (4)
0x1d0|                                    2b b4 f8 90|            +...|      [108]: "1993-03-28T01:00:00Z" (733280400) transition_time 0x1dc-0x1df.7 (4)
0x1e0|2c a4 e9 90                                    |,...            |      [109]: "1993-09-26T01:00:00Z" (749005200) transition_time 0x1e0-0x1e3.7 (4)
0x1e0|            2d 94 da 90                        |    -...        |      [110]: "1994-03-27T01:00:00Z" (764730000) transition_time 0x1e4-0x1e7.7 (4)
0x1e0|                        2e 84 cb 90            |        ....    |      [111]: "1994-09-25T01:00:00Z" (780454800) transition_time 0x1e8-0x1eb.7 (4)
0x1e0|                                    2f 74 bc 90|            /t..|      [112]: "1995-03-26T01:00:00Z" (796179600) transition_time 0x1ec-0x1ef.7 (4)
0x1f0|30 64 ad 90                                    |0d..            |      [113]: "1995-09-24T01:00:00Z" (811904400) transition_time 0x1f0-0x1f3.7 (4)
0x1f0|            31 5d d9 10                        |    1]..        |      [114]: "1996-03-31T01:00:00Z" (828234000) transition_time 0x1f4-0x1f7.7 (4)
0x1f0|                        32 72 b4 10            |        2r..    |      [115]: "1996-10-27T01:00:00Z" (846378000) transition_time 0x1f8-0x1fb.7 (4)
0x1f0|                                    33 3d bb 10|            3=..|      [116]: "1997-03-30T01:00:00Z" (859683600) transition_time 0x1fc-0x1ff.7 (4)
0x200|34 52 96 10                                    |4R..            |      [117]: "1997-10-26T01:00:00Z" (877827600) transition_time 0x200-0x203.7 (4)
0x200|            35 1d 9d 10                        |    5...        |      [118]: "1998-03-29T01:00:00Z" (891133200) transition_time 0x204-0x207.7 (4)
0x200|                        36 32 78 10            |        62x.    |      [119]: "1998-10-25T01:00:00Z" (909277200) transition_time 0x208-0x20b.7 (4)
0x200|                                    36 fd 7f 10|            6...|      [120]: "1999-03-28T01:00:00Z" (922582800) transition_time 0x20c-0x20f.7 (4)
0x210|38 1b 94 90                                    |8...            |      [121]: "1999-10-31T01:00:00Z" (941331600) transition_time 0x210-0x213.7 (4)
0x210|            38 dd 61 10                        |    8.a.        |      [122]: "2000-03-26T01:00:00Z" (954032400) transition_time 0x214-0x217.7 (4)
0x210|                        39 fb 76 90            |        9.v.    |      [123]: "2000-10-29T01:00:00Z" (972781200) transition_time 0x218-0x21b.7 (4)
0x210|                                    3a bd 43 10|            :.C.|      [124]: "2001-03-25T01:00:00Z" (985482000) transition_time 0x21c-0x21f.7 (4)
0x220|3b db 58 90                                    |;.X.            |      [125]: "2001-10-28T01:00:00Z" (1004230800) transition_time 0x220-0x223.7 (4)
0x220|            3c a6 5f 90                        |    <._.        |      [126]: "2002-03-31T01:00:00Z" (1017536400) transition_time 0x224-0x227.7 (4)
0x220|                        3d bb 3a 90            |        =.:.    |      [127]: "2002-10-27T01:00:00Z" (1035680400) transition_time 0x228-0x22b.7 (4)
0x220|                                    3e 86 41 90|            >.A.|      [128]: "2003-03-30T01:00:00Z" (1048986000) transition_time 0x22c-0x22f.7 (4)
0x230|3f 9b 1c 90                                    |?...            |      [129]: "2003-10-26T01:00:00Z" (1067130000) transition_time 0x230-0x233.7 (4)
0x230|            40 66 23 90                        |    @f#.        |      [130]: "2004-03-28T01:00:00Z" (1080435600) transition_time 0x234-0x237.7 (4)
0x230|                        41 84 39 10            |        A.9.    |      [131]: "2004-10-31T01:00:00Z" (1099184400) transition_time 0x238-0x23b.7 (4)
0x230|                                    42 46 05 90|            BF..|      [132]: "2005-03-27T01:00:00Z" (1111885200) transition_time 0x23c-0x23f.7 (4)
0x240|43 64 1b 10                                    |Cd..            |      [133]: "2005-10-30T01:00:00Z" (1130634000) transition_time 0x240-0x243.7 (4)
0x240|            44 25 e7 90                        |    D%..        |      [134]: "2006-03-26T01:00:00Z" (1143334800) transition_time 0x244-0x247.7 (4)
0x240|                        45 43 fd 10            |        EC..    |      [135]: "2006-10-29T01:00:00Z" (1162083600) transition_time 0x248-0x24b.7 (4)
0x240|                                    46 05 c9 90|            F...|      [136]: "2007-03-25T01:00:00Z" (1174784400) transition_time 0x24c-0x24f.7 (4)
0x250|47 23 df 10                                    |G#..            |      [137]: "2007-10-28T01:00:00Z" (1193533200) transition_time 0x250-0x253.7 (4)
0x250|            47 ee e6 10                        |    G...        |      [138]: "2008-03-30T01:00:00Z" (1206838800) transition_time 0x254-0x257.7 (4)
0x250|                        49 03 c1 10            |        I...    |      [139]: "2008-10-26T01:00:00Z" (1224982800) transition_time 0x258-0x25b.7 (4)
0x250|                                    49 ce c8 10|            I...|      [140]: "2009-03-29T01:00:00Z" (1238288400) transition_time 0x25c-0x25f.7 (4)
0x260|4a e3 a3 10                                    |J...            |      [141]: "2009-10-25T01:00:00Z" (1256432400) transition_time 0x260-0x263.7 (4)
0x260|            4b ae aa 10                        |    K...        |      [142]: "2010-03-28T01:00:00Z" (1269738000) transition_time 0x264-0x267.7 (4)
0x260|                        4c cc bf 90            |        L...    |      [143]: "2010-10-31T01:00:00Z" (1288486800) transition_time 0x268-0x26b.7 (4)
0x260|                                    4d 8e 8c 10|            M...|      [144]: "2011-03-27T01:00:00Z" (1301187600) transition_time 0x26c-0x26f.7 (4)
0x270|4e ac a1 90                                    |N...            |      [145]: "2011-10-30T01:00:00Z" (1319936400) transition_time 0x270-0x273.7 (4)
0x270|            4f 6e 6e 10                        |    Onn.        |      [146]: "2012-03-25T01:00:00Z" (1332637200) transition_time 0x274-0x277.7 (4)
0x270|                        50 8c 83 90            |        P...    |      [147]: "2012-10-28T01:00:00Z" (1351386000) transition_time 0x278-0x27b.7 (4)
0x270|                                    51 57 8a 90|            QW..|      [148]: "2013-03-31T01:00:00Z" (1364691600) transition_time 0x27c-0x27f.7 (4)
0x280|52 6c 65 90                                    |Rle.            |      [149]: "2013-10-27T01:00:00Z" (1382835600) transition_time 0x280-0x283.7 (4)
0x280|            53 37 6c 90                        |    S7l.        |      [150]: "2014-03-30T01:00:00Z" (1396141200) transition_time 0x284-0x287.7 (4)
0x280|                        54 4c 47 90            |        TLG.    |      [151]: "2014-10-26T01:00:00Z" (1414285200) transition_time 0x288-0x28b.7 (4)
0x280|                                    55 17 4e 90|            U.N.|      [152]: "2015-03-29T01:00:00Z" (1427590800) transition_time 0x28c-0x28f.7 (4)
0x290|56 2c 29 90                                    |V,).            |      [153]: "2015-10-25T01:00:00Z" (1445734800) transition_time 0x290-0x293.7 (4)
0x290|            56 f7 30 90                        |    V.0.        |      [154]: "2016-03-27T01:00:00Z" (1459040400) transition_time 0x294-0x297.7 (4)
0x290|                        58 15 46 10            |        X.F.    |      [155]: "2016-10-30T01:00:00Z" (1477789200) transition_time 0x298-0x29b.7 (4)
0x290|                                    58 d7 12 90|            X...|      [156]: "2017-03-26T01:00:00Z" (1490490000) transition_time 0x29c-0x29f.7 (4)
0x2a0|59 f5 28 10                                    |Y.(.            |      [157]: "2017-10-29T01:00:00Z" (1509238800) transition_time 0x2a0-0x2a3.7 (4)
0x2a0|            5a b6 f4 90                        |    Z...        |      [158]: "2018-03-25T01:00:00Z" (1521939600) transition_time 0x2a4-0x2a7.7 (4)
0x2a0|                        5b d5 0a 10            |        [...    |      [159]: "2018-10-28T01:00:00Z" (1540688400) transition_time 0x2a8-0x2ab.7 (4)
0x2a0|                                    5c a0 11 10|            \...|      [160]: "2019-03-31T01:00:00Z" (1553994000) transition_time 0x2ac-0x2af.7 (4)
0x2b0|5d b4 ec 10                                    |]...            |      [161]: "2019-10-27T01:00:00Z" (1572138000) transition_time 0x2b0-0x2b3.7 (4)
0x2b0|            5e 7f f3 10                        |    ^...        |      [162]: "2020-03-29T01:00:00Z" (1585443600) transition_time 0x2b4-0x2b7.7 (4)
0x2b0|                        5f 94 ce 10            |        _...    |      [163]: "2020-10-25T01:00:00Z" (1603587600) transition_time 0x2b8-0x2bb.7 (4)
0x2b0|                                    60 5f d5 10|            `_..|      [164]: "2021-03-28T01:00:00Z" (1616893200) transition_time 0x2bc-0x2bf.7 (4)
0x2c0|61 7d ea 90                                    |a}..            |      [165]: "2021-10-31T01:00:00Z" (1635642000) transition_time 0x2c0-0x2c3.7 (4)
0x2c0|            62 3f b7 10                        |    b?..        |      [166]: "2022-03-27T01:00:00Z" (1648342800) transition_time 0x2c4-0x2c7.7 (4)
0x2c0|                        63 5d cc 90            |        c]..    |      [167]: "2022-10-30T01:00:00Z" (1667091600) transition_time 0x2c8-0x2cb.7 (4)
0x2c0|                                    64 1f 99 10|            d...|      [168]: "2023-03-26T01:00:00Z" (1679792400) transition_time 0x2cc-0x2cf.7 (4)
0x2d0|65 3d ae 90                                    |e=..            |      [169]: "2023-10-29T01:00:00Z" (1698541200) transition_time 0x2d0-0x2d3.7 (4)
0x2d0|            66 08 b5 90                        |    f...        |      [170]: "2024-03-31T01:00:00Z" (1711846800) transition_time 0x2d4-0x2d7.7 (4)
0x2d0|                        67 1d 90 90            |        g...    |      [171]: "2024-10-27T01:00:00Z" (1729990800) transition_time 0x2d8-0x2db.7 (4)
0x2d0|                                    67 e8 97 90|            g...|      [172]: "2025-03-30T01:00:00Z" (1743296400) transition_time 0x2dc-0x2df.7 (4)
0x2e0|68 fd 72 90                                    |h.r.            |      [173]: "2025-10-26T01:00:00Z" (1761440400) transition_time 0x2e0-0x2e3.7 (4)
0x2e0|            69 c8 79 90                        |    i.y.        |      [174]: "2026-03-29T01:00:00Z" (1774746000) transition_time 0x2e4-0x2e7.7 (4)
0x2e0|                        6a dd 54 90            |        j.T.    |      [175]: "2026-10-25T01:00:00Z" (1792890000) transition_time 0x2e8-0x2eb.7 (4)
0x2e0|                                    6b a8 5b 90|            k.[.|      [176]: "2027-03-28T01:00:00Z" (1806195600) transition_time 0x2ec-0x2ef.7 (4)
0x2f0|6c c6 71 10                                    |l.q.            |      [177]: "2027-10-31T01:00:00Z" (1824944400) transition_time 0x2f0-0x2f3.7 (4)
0x2f0|            6d 88 3d 90                        |    m.=.        |      [178]: "2028-03-26T01:00:00Z" (1837645200) transition_time 0x2f4-0x2f7.7 (4)
0x2f0|                        6e a6 53 10            |        n.S.    |      [179]: "2028-10-29T01:00:00Z" (1856394000) transition_time 0x2f8-0x2fb.7 (4)
0x2f0|                                    6f 68 1f 90|            oh..|      [180]: "2029-03-25T01:00:00Z" (1869094800) transition_time 0x2fc-0x2ff.7 (4)
0x300|70 86 35 10                                    |p.5.            |      [181]: "2029-10-28T01:00:00Z" (1887843600) transition_time 0x300-0x303.7 (4)
0x300|            71 51 3c 10                        |    qQ<.        |      [182]: "2030-03-31T01:00:00Z" (1901149200) transition_time 0x304-0x307.7 (4)
0x300|                        72 66 17 10            |        rf..    |      [183]: "2030-10-27T01:00:00Z" (1919293200) transition_time 0x308-0x30b.7 (4)
0x300|                                    73 31 1e 10|            s1..|      [184]: "2031-03-30T01:00:00Z" (1932598800) transition_time 0x30c-0x30f.7 (4)
0x310|74 45 f9 10                                    |tE..            |      [185]: "2031-10-26T01:00:00Z" (1950742800) transition_time 0x310-0x313.7 (4)
0x310|            75 11 00 10                        |    u...        |      [186]: "2032-03-28T01:00:00Z" (1964048400) transition_time 0x314-0x317.7 (4)
0x310|                        76 2f 15 90            |        v/..    |      [187]: "2032-10-31T01:00:00Z" (1982797200) transition_time 0x318-0x31b.7 (4)
0x310|                                    76 f0 e2 10|            v...|      [188]: "2033-03-27T01:00:00Z" (1995498000) transition_time 0x31c-0x31f.7 (4)
0x320|78 0e f7 90                                    |x...            |      [189]: "2033-10-30T01:00:00Z" (2014246800) transition_time 0x320-0x323.7 (4)
0x320|            78 d0 c4 10                        |    x...        |      [190]: "2034-03-26T01:00:00Z" (2026947600) transition_time 0x324-0x327.7 (4)
0x320|                        79 ee d9 90            |        y...    |      [191]: "2034-10-29T01:00:00Z" (2045696400) transition_time 0x328-0x32b.7 (4)
0x320|                                    7a b0 a6 10|            z...|      [192]: "2035-03-25T01:00:00Z" (2058397200) transition_time 0x32c-0x32f.7 (4)
0x330|7b ce bb 90                                    |{...            |      [193]: "2035-10-28T01:00:00Z" (2077146000) transition_time 0x330-0x333.7 (4)
0x330|            7c 99 c2 90                        |    |...        |      [194]: "2036-03-30T01:00:00Z" (2090451600) transition_time 0x334-0x337.7 (4)
0x330|                        7d ae 9d 90            |        }...    |      [195]: "2036-10-26T01:00:00Z" (2108595600) transition_time 0x338-0x33b.7 (4)
0x330|                                    7e 79 a4 90|            ~y..|      [196]: "2037-03-29T01:00:00Z" (2121901200) transition_time 0x33c-0x33f.7 (4)
0x340|7f 8e 7f 90                                    |....            |      [197]: "2037-10-25T01:00:00Z" (2140045200) transition_time 0x340-0x343.7 (4)
     |                                               |                |    transition_types[0:198]: 0x344-0x409.7 (198)
0x340|            04                                 |    .           |      [0]: 4 transition_type 0x344-0x344.7 (1)
0x340|               01                              |     .          |      [1]: 1 transition_type 0x345-0x345.7 (1)
0x340|                  02                           |      .         |      [2]: 2 transition_type 0x346-0x346.7 (1)
0x340|                     01                        |       .        |      [3]: 1 transition_type 0x347-0x347.7 (1)
0x340|                        02                     |        .       |      [4]: 2 transition_type 0x348-0x348.7 (1)
0x340|                           01                  |         .      |      [5]: 1 transition_type 0x349-0x349.7 (1)
0x340|                              02               |          .     |      [6]: 2 transition_type 0x34a-0x34a.7 (1)
0x340|                                 01            |           .    |      [7]: 1 transition_type 0x34b-0x34b.7 (1)
0x340|                                    02         |            .   |      [8]: 2 transition_type 0x34c-0x34c.7 (1)
0x340|                                       01      |             .  |      [9]: 1 transition_type 0x34d-0x34d.7 (1)
0x340|                                          02   |              . |      [10]: 2 transition_type 0x34e-0x34e.7 (1)
0x340|                                             01|               .|      [11]: 1 transition_type 0x34f-0x34f.7 (1)
0x350|02                                             |.               |      [12]: 2 transition_type 0x350-0x350.7 (1)
0x350|   01                                          | .              |      [13]: 1 transition_type 0x351-0x351.7 (1)
0x350|      02                                       |  .             |      [14]: 2 transition_type 0x352-0x352.7 (1)
0x350|         01                                    |   .            |      [15]: 1 transition_type 0x353-0x353.7 (1)
0x350|            02                                 |    .           |      [16]: 2 transition_type 0x354-0x354.7 (1)
0x350|               01                              |     .          |      [17]: 1 transition_type 0x355-0x355.7 (1)
0x350|                  02                           |      .         |      [18]: 2 transition_type 0x356-0x356.7 (1)
0x350|                     01                        |       .        |      [19]: 1 transition_type 0x357-0x357.7 (1)
0x350|                        02                     |        .       |      [20]: 2 transition_type 0x358-0x358.7 (1)
0x350|                           01                  |         .      |      [21]: 1 transition_type 0x359-0x359.7 (1)
0x350|                              02               |          .     |      [22]: 2 transition_type 0x35a-0x35a.7 (1)
0x350|                                 01            |           .    |      [23]: 1 transition_type 0x35b-0x35b.7 (1)
0x350|                                    02         |            .   |      [24]: 2 transition_type 0x35c-0x35c.7 (1)
0x350|                                       01      |             .  |      [25]: 1 transition_type 0x35d-0x35d.7 (1)
0x350|                                          02   |              . |      [26]: 2 transition_type 0x35e-0x35e.7 (1)
0x350|                                             01|               .|      [27]: 1 transition_type 0x35f-0x35f.7 (1)
0x360|02                                             |.               |      [28]: 2 transition_type 0x360-0x360.7 (1)
0x360|   01                                          | .              |      [29]: 1 transition_type 0x361-0x361.7 (1)
0x360|      02                                       |  .             |      [30]: 2 transition_type 0x362-0x362.7 (1)
0x360|         01                                    |   .            |      [31]: 1 transition_type 0x363-0x363.7 (1)
0x360|            02                                 |    .           |      [32]: 2 transition_type 0x364-0x364.7 (1)
0x360|               01                              |     .          |      [33]: 1 transition_type 0x365-0x365.7 (1)
0x360|                  02                           |      .         |      [34]: 2 transition_type 0x366-0x366.7 (1)
0x360|                     01                        |       .        |      [35]: 1 transition_type 0x367-0x367.7 (1)
0x360|                        02                     |        .       |      [36]: 2 transition_type 0x368-0x368.7 (1)
0x360|                           01                  |         .      |      [37]: 1 transition_type 0x369-0x369.7 (1)
0x360|                              02               |          .     |      [38]: 2 transition_type 0x36a-0x36a.7 (1)
0x360|                                 01            |           .    |      [39]: 1 transition_type 0x36b-0x36b.7 (1)
0x360|                                    02         |            .   |      [40]: 2 transition_type 0x36c-0x36c.7 (1)
0x360|                                       01      |             .  |      [41]: 1 transition_type 0x36d-0x36d.7 (1)
0x360|                                          02   |              . |      [42]: 2 transition_type 0x36e-0x36e.7 (1)
0x360|                                             01|               .|      [43]: 1 transition_type 0x36f-0x36f.7 (1)
0x370|02                                             |.               |      [44]: 2 transition_type 0x370-0x370.7 (1)
0x370|   01                                          | .              |      [45]: 1 transition_type 0x371-0x371.7 (1)
0x370|      02                                       |  .             |      [46]: 2 transition_type 0x372-0x372.7 (1)
0x370|         01                                    |   .            |      [47]: 1 transition_type 0x373-0x373.7 (1)
0x370|            02                                 |    .           |      [48]: 2 transition_type 0x374-0x374.7 (1)
0x370|               01                              |     .          |      [49]: 1 transition_type 0x375-0x375.7 (1)
0x370|                  03                           |      .         |      [50]: 3 transition_type 0x376-0x376.7 (1)
0x370|                     01                        |       .        |      [51]: 1 transition_type 0x377-0x377.7 (1)
0x370|                        03                     |        .       |      [52]: 3 transition_type 0x378-0x378.7 (1)
0x370|                           01                  |         .      |      [53]: 1 transition_type 0x379-0x379.7 (1)
0x370|                              03               |          .     |      [54]: 3 transition_type 0x37a-0x37a.7 (1)
0x370|                                 01            |           .    |      [55]: 1 transition_type 0x37b-0x37b.7 (1)
0x370|                                    03         |            .   |      [56]: 3 transition_type 0x37c-0x37c.7 (1)
0x370|                                       01      |             .  |      [57]: 1 transition_type 0x37d-0x37d.7 (1)
0x370|                                          03   |              . |      [58]: 3 transition_type 0x37e-0x37e.7 (1)
0x370|                                             01|               .|      [59]: 1 transition_type 0x37f-0x37f.7 (1)
0x380|02                                             |.               |      [60]: 2 transition_type 0x380-0x380.7 (1)
0x380|   01                                          | .              |      [61]: 1 transition_type 0x381-0x381.7 (1)
0x380|      02                                       |  .             |      [62]: 2 transition_type 0x382-0x382.7 (1)
0x380|         01                                    |   .            |      [63]: 1 transition_type 0x383-0x383.7 (1)
0x380|            03                                 |    .           |      [64]: 3 transition_type 0x384-0x384.7 (1)
0x380|               01                              |     .          |      [65]: 1 transition_type 0x385-0x385.7 (1)
0x380|                  02                           |      .         |      [66]: 2 transition_type 0x386-0x386.7 (1)
0x380|                     01                        |       .        |      [67]: 1 transition_type 0x387-0x387.7 (1)
0x380|                        02                     |        .       |      [68]: 2 transition_type 0x388-0x388.7 (1)
0x380|                           01                  |         .      |      [69]: 1 transition_type 0x389-0x389.7 (1)
0x380|                              02               |          .     |      [70]: 2 transition_type 0x38a-0x38a.7 (1)
0x380|                                 01            |           .    |      [71]: 1 transition_type 0x38b-0x38b.7 (1)
0x380|                                    02         |            .   |      [72]: 2 transition_type 0x38c-0x38c.7 (1)
0x380|                                       01      |             .  |      [73]: 1 transition_type 0x38d-0x38d.7 (1)
0x380|                                          02   |              . |      [74]: 2 transition_type 0x38e-0x38e.7 (1)
0x380|                                             01|               .|      [75]: 1 transition_type 0x38f-0x38f.7 (1)
0x390|02                                             |.               |      [76]: 2 transition_type 0x390-0x390.7 (1)
0x390|   01                                          | .              |      [77]: 1 transition_type 0x391-0x391.7 (1)
0x390|      02                                       |  .             |      [78]: 2 transition_type 0x392-0x392.7 (1)
0x390|         01                                    |   .            |      [79]: 1 transition_type 0x393-0x393.7 (1)
0x390|            02                                 |    .           |      [80]: 2 transition_type 0x394-0x394.7 (1)
0x390|               01                              |     .          |      [81]: 1 transition_type 0x395-0x395.7 (1)
0x390|                  02                           |      .         |      [82]: 2 transition_type 0x396-0x396.7 (1)
0x390|                     01                        |       .        |      [83]: 1 transition_type 0x397-0x397.7 (1)
0x390|                        02                     |        .       |      [84]: 2 transition_type 0x398-0x398.7 (1)
0x390|                           05                  |         .      |      [85]: 5 transition_type 0x399-0x399.7 (1)
0x390|                              06               |          .     |      [86]: 6 transition_type 0x39a-0x39a.7 (1)
0x390|                                 07            |           .    |      [87]: 7 transition_type 0x39b-0x39b.7 (1)
0x390|                                    06         |            .   |      [88]: 6 transition_type 0x39c-0x39c.7 (1)
0x390|                                       07      |             .  |      [89]: 7 transition_type 0x39d-0x39d.7 (1)
0x390|                                          06   |              . |      [90]: 6 transition_type 0x39e-0x39e.7 (1)
0x390|                                             07|               .|      [91]: 7 transition_type 0x39f-0x39f.7 (1)
0x3a0|06                                             |.               |      [92]: 6 transition_type 0x3a0-0x3a0.7 (1)
0x3a0|   07                                          | .              |      [93]: 7 transition_type 0x3a1-0x3a1.7 (1)
0x3a0|      06                                       |  .             |      [94]: 6 transition_type 0x3a2-0x3a2.7 (1)
0x3a0|         07                                    |   .            |      [95]: 7 transition_type 0x3a3-0x3a3.7 (1)
0x3a0|            06                                 |    .           |      [96]: 6 transition_type 0x3a4-0x3a4.7 (1)
0x3a0|               07                              |     .          |      [97]: 7 transition_type 0x3a5-0x3a5.7 (1)
0x3a0|                  06                           |      .         |      [98]: 6 transition_type 0x3a6-0x3a6.7 (1)
0x3a0|                     07                        |       .        |      [99]: 7 transition_type 0x3a7-0x3a7.7 (1)
0x3a0|                        06                     |        .       |      [100]: 6 transition_type 0x3a8-0x3a8.7 (1)
0x3a0|                           07                  |         .      |      [101]: 7 transition_type 0x3a9-0x3a9.7 (1)
0x3a0|                              06               |          .     |      [102]: 6 transition_type 0x3aa-0x3aa.7 (1)
0x3a0|                                 07            |           .    |      [103]: 7 transition_type 0x3ab-0x3ab.7 (1)
0x3a0|                                    06         |            .   |      [104]: 6 transition_type 0x3ac-0x3ac.7 (1)
0x3a0|                                       07      |             .  |      [105]: 7 transition_type 0x3ad-0x3ad.7 (1)
0x3a0|                                          06   |              . |      [106]: 6 transition_type 0x3ae-0x3ae.7 (1)
0x3a0|                                             07|               .|      [107]: 7 transition_type 0x3af-0x3af.7 (1)
0x3b0|06                                             |.               |      [108]: 6 transition_type 0x3b0-0x3b0.7 (1)
0x3b0|   07                                          | .              |      [109]: 7 transition_type 0x3b1-0x3b1.7 (1)
0x3b0|      06                                       |  .             |      [110]: 6 transition_type 0x3b2-0x3b2.7 (1)
0x3b0|         07                                    |   .            |      [111]: 7 transition_type 0x3b3-0x3b3.7 (1)
0x3b0|            06                                 |    .           |      [112]: 6 transition_type 0x3b4-0x3b4.7 (1)
0x3b0|               07                              |     .          |      [113]: 7 transition_type 0x3b5-0x3b5.7 (1)
0x3b0|                  06                           |      .         |      [114]: 6 transition_type 0x3b6-0x3b6.7 (1)
0x3b0|                     07                        |       .        |      [115]: 7 transition_type 0x3b7-0x3b7.7 (1)
0x3b0|                        06                     |        .       |      [116]: 6 transition_type 0x3b8-0x3b8.7 (1)
0x3b0|                           07                  |         .      |      [117]: 7 transition_type 0x3b9-0x3b9.7 (1)
0x3b0|                              06               |          .     |      [118]: 6 transition_type 0x3ba-0x3ba.7 (1)
0x3b0|                                 07            |           .    |      [119]: 7 transition_type 0x3bb-0x3bb.7 (1)
0x3b0|                                    06         |            .   |      [120]: 6 transition_type 0x3bc-0x3bc.7 (1)
0x3b0|                                       07      |             .  |      [121]: 7 transition_type 0x3bd-0x3bd.7 (1)
0x3b0|                                          06   |              . |      [122]: 6 transition_type 0x3be-0x3be.7 (1)
0x3b0|                                             07|               .|      [123]: 7 transition_type 0x3bf-0x3bf.7 (1)
0x3c0|06                                             |.               |      [124]: 6 transition_type 0x3c0-0x3c0.7 (1)
0x3c0|   07                                          | .              |      [125]: 7 transition_type 0x3c1-0x3c1.7 (1)
0x3c0|      06                                       |  .             |      [126]: 6 transition_type 0x3c2-0x3c2.7 (1)
0x3c0|         07                                    |   .            |      [127]: 7 transition_type 0x3c3-0x3c3.7 (1)
0x3c0|            06                                 |    .           |      [128]: 6 transition_type 0x3c4-0x3c4.7 (1)
0x3c0|               07                              |     .          |      [129]: 7 transition_type 0x3c5-0x3c5.7 (1)
0x3c0|                  06                           |      .         |      [130]: 6 transition_type 0x3c6-0x3c6.7 (1)
0x3c0|                     07                        |       .        |      [131]: 7 transition_type 0x3c7-0x3c7.7 (1)
0x3c0|                        06                     |        .       |      [132]: 6 transition_type 0x3c8-0x3c8.7 (1)
0x3c0|                           07                  |         .      |      [133]: 7 transition_type 0x3c9-0x3c9.7 (1)
0x3c0|                              06               |          .     |      [134]: 6 transition_type 0x3ca-0x3ca.7 (1)
0x3c0|                                 07            |           .    |      [135]: 7 transition_type 0x3cb-0x3cb.7 (1)
0x3c0|                                    06         |            .   |      [136]: 6 transition_type 0x3cc-0x3cc.7 (1)
0x3c0|                                       07      |             .  |      [137]: 7 transition_type 0x3cd-0x3cd.7 (1)
0x3c0|                                          06   |              . |      [138]: 6 transition_type 0x3ce-0x3ce.7 (1)
0x3c0|                                             07|               .|      [139]: 7 transition_type 0x3cf-0x3cf.7 (1)
0x3d0|06                                             |.               |      [140]: 6 transition_type 0x3d0-0x3d0.7 (1)
0x3d0|   07                                          | .              |      [141]: 7 transition_type 0x3d1-0x3d1.7 (1)
0x3d0|      06                                       |  .             |      [142]: 6 transition_type 0x3d2-0x3d2.7 (1)
0x3d0|         07                                    |   .            |      [143]: 7 transition_type 0x3d3-0x3d3.7 (1)
0x3d0|            06                                 |    .           |      [144]: 6 transition_type 0x3d4-0x3d4.7 (1)
0x3d0|               07                              |     .          |      [145]: 7 transition_type 0x3d5-0x3d5.7 (1)
0x3d0|                  06                           |      .         |      [146]: 6 transition_type 0x3d6-0x3d6.7 (1)
0x3d0|                     07                        |       .        |      [147]: 7 transition_type 0x3d7-0x3d7.7 (1)
0x3d0|                        06                     |        .       |      [148]: 6 transition_type 0x3d8-0x3d8.7 (1)
0x3d0|                           07                  |         .      |      [149]: 7 transition_type 0x3d9-0x3d9.7 (1)
0x3d0|                              06               |          .     |      [150]: 6 transition_type 0x3da-0x3da.7 (1)
0x3d0|                                 07            |           .    |      [151]: 7 transition_type 0x3db-0x3db.7 (1)
0x3d0|                                    06         |            .   |      [152]: 6 transition_type 0x3dc-0x3dc.7 (1)
0x3d0|                                       07      |             .  |      [153]: 7 transition_type 0x3dd-0x3dd.7 (1)
0x3d0|                                          06   |              . |      [154]: 6 transition_type 0x3de-0x3de.7 (1)
0x3d0|                                             07|               .|      [155]: 7 transition_type 0x3df-0x3df.7 (1)
0x3e0|06                                             |.               |      [156]: 6 transition_type 0x3e0-0x3e0.7 (1)
0x3e0|   07                                          | .              |      [157]: 7 transition_type 0x3e1-0x3e1.7 (1)
0x3e0|      06                                       |  .             |      [158]: 6 transition_type 0x3e2-0x3e2.7 (1)
0x3e0|         07                                    |   .            |      [159]: 7 transition_type 0x3e3-0x3e3.7 (1)
0x3e0|            06                                 |    .           |      [160]: 6 transition_type 0x3e4-0x3e4.7 (1)
0x3e0|               07                              |     .          |      [161]: 7 transition_type 0x3e5-0x3e5.7 (1)
0x3e0|                  06                           |      .         |      [162]: 6 transition_type 0x3e6-0x3e6.7 (1)
0x3e0|                     07                        |       .        |      [163]: 7 transition_type 0x3e7-0x3e7.7 (1)
0x3e0|                        06                     |        .       |      [164]: 6 transition_type 0x3e8-0x3e8.7 (1)
0x3e0|                           07                  |         .      |      [165]: 7 transition_type 0x3e9-0x3e9.7 (1)
0x3e0|                              06               |          .     |      [166]: 6 transition_type 0x3ea-0x3ea.7 (1)
0x3e0|                                 07            |           .    |      [167]: 7 transition_type 0x3eb-0x3eb.7 (1)
0x3e0|                                    06         |            .   |      [168]: 6 transition_type 0x3ec-0x3ec.7 (1)
0x3e0|                                       07      |             .  |      [169]: 7 transition_type 0x3ed-0x3ed.7 (1)
0x3e0|                                          06   |              . |      [170]: 6 transition_type 0x3ee-0x3ee.7 (1)
0x3e0|                                             07|               .|      [171]: 7 transition_type 0x3ef-0x3ef.7 (1)
0x3f0|06                                             |.               |      [172]: 6 transition_type 0x3f0-0x3f0.7 (1)
0x3f0|   07                                          | .              |      [173]: 7 transition_type 0x3f1-0x3f1.7 (1)
0x3f0|      06                                       |  .             |      [174]: 6 transition_type 0x3f2-0x3f2.7 (1)
0x3f0|         07                                    |   .            |      [175]: 7 transition_type 0x3f3-0x3f3.7 (1)
0x3f0|            06                                 |    .           |      [176]: 6 transition_type 0x3f4-0x3f4.7 (1)
0x3f0|               07                              |     .          |      [177]: 7 transition_type 0x3f5-0x3f5.7 (1)
0x3f0|                  06                           |      .         |      [178]: 6 transition_type 0x3f6-0x3f6.7 (1)
0x3f0|                     07                        |       .        |      [179]: 7 transition_type 0x3f7-0x3f7.7 (1)
0x3f0|                        06                     |        .       |      [180]: 6 transition_type 0x3f8-0x3f8.7 (1)
0x3f0|                           07                  |         .      |      [181]: 7 transition_type 0x3f9-0x3f9.7 (1)
0x3f0|                              06               |          .     |      [182]: 6 transition_type 0x3fa-0x3fa.7 (1)
0x3f0|                                 07            |           .    |      [183]: 7 transition_type 0x3fb-0x3fb.7 (1)
0x3f0|                                    06         |            .   |      [184]: 6 transition_type 0x3fc-0x3fc.7 (1)
0x3f0|                                       07      |             .  |      [185]: 7 transition_type 0x3fd-0x3fd.7 (1)
0x3f0|                                          06   |              . |      [186]: 6 transition_type 0x3fe-0x3fe.7 (1)
0x3f0|                                             07|               .|      [187]: 7 transition_type 0x3ff-0x3ff.7 (1)
0x400|06                                             |.               |      [188]: 6 transition_type 0x400-0x400.7 (1)
0x400|   07                                          | .              |      [189]: 7 transition_type 0x401-0x401.7 (1)
0x400|      06                                       |  .             |      [190]: 6 transition_type 0x402-0x402.7 (1)
0x400|         07                                    |   .            |      [191]: 7 transition_type 0x403-0x403.7 (1)
0x400|            06                                 |    .           |      [192]: 6 transition_type 0x404-0x404.7 (1)
0x400|               07                              |     .          |      [193]: 7 transition_type 0x405-0x405.7 (1)
0x400|                  06                           |      .         |      [194]: 6 transition_type 0x406-0x406.7 (1)
0x400|                     07                        |       .        |      [195]: 7 transition_type 0x407-0x407.7 (1)
0x400|                        06                     |        .       |      [196]: 6 transition_type 0x408-0x408.7 (1)
0x400|                           07                  |         .      |      [197]: 7 transition_type 0x409-0x409.7 (1)
     |                                               |                |    local_time_type_records[0:8]: 0x40a-0x439.7 (48)
     |                                               |                |      [0]{}: local_time_type 0x40a-0x40f.7 (6)
0x400|                              ff ff fa fc      |          ....  |        utoff: -1284 (valid) 0x40a-0x40d.7 (4)
0x400|                                          00   |              . |        dst: 0 (valid) 0x40e-0x40e.7 (1)
0x400|                                             00|               .|        idx: 0 (valid) 0x40f-0x40f.7 (1)
     |                                               |                |      [1]{}: local_time_type 0x410-0x415.7 (6)
0x410|00 00 0e 10                                    |....            |        utoff: 3600 (valid) 0x410-0x413.7 (4)
0x410|            01                                 |    .           |        dst: 1 (valid) 0x414-0x414.7 (1)
0x410|               04                              |     .          |        idx: 4 (valid) 0x415-0x415.7 (1)
     |                                               |                |      [2]{}: local_time_type 0x416-0x41b.7 (6)
0x410|                  00 00 00 00                  |      ....      |        utoff: 0 (valid) 0x416-0x419.7 (4)
0x410|                              00               |          .     |        dst: 0 (valid) 0x41a-0x41a.7 (1)
0x410|                                 08            |           .    |        idx: 8 (valid) 0x41b-0x41b.7 (1)
     |                                               |                |      [3]{}: local_time_type 0x41c-0x421.7 (6)
0x410|                                    00 00 1c 20|            ... |        utoff: 7200 (valid) 0x41c-0x41f.7 (4)
0x420|01                                             |.               |        dst: 1 (valid) 0x420-0x420.7 (1)
0x420|   0c                                          | .              |        idx: 12 (valid) 0x421-0x421.7 (1)
     |                                               |                |      [4]{}: local_time_type 0x422-0x427.7 (6)
0x420|      00 00 00 00                              |  ....          |        utoff: 0 (valid) 0x422-0x425.7 (4)
0x420|                  00                           |      .         |        dst: 0 (valid) 0x426-0x426.7 (1)
0x420|                     08                        |       .        |        idx: 8 (valid) 0x427-0x427.7 (1)
     |                                               |                |      [5]{}: local_time_type 0x428-0x42d.7 (6)
0x420|                        00 00 0e 10            |        ....    |        utoff: 3600 (valid) 0x428-0x42b.7 (4)
0x420|                                    00         |            .   |        dst: 0 (valid) 0x42c-0x42c.7 (1)
0x420|                                       11      |             .  |        idx: 17 (valid) 0x42d-0x42d.7 (1)
     |                                               |                |      [6]{}: local_time_type 0x42e-0x433.7 (6)
0x420|                                          00 00|              ..|        utoff: 7200 (valid) 0x42e-0x431.7 (4)
0x430|1c 20                                          |.               |
0x430|      01                                       |  .             |        dst: 1 (valid) 0x432-0x432.7 (1)
0x430|         15                                    |   .            |        idx: 21 (valid) 0x433-0x433.7 (1)
     |                                               |                |      [7]{}: local_time_type 0x434-0x439.7 (6)
0x430|            00 00 0e 10                        |    ....        |        utoff: 3600 (valid) 0x434-0x437.7 (4)
0x430|                        00                     |        .       |        dst: 0 (valid) 0x438-0x438.7 (1)
0x430|                           11                  |         .      |        idx: 17 (valid) 0x439-0x439.7 (1)
     |                                               |                |    time_zone_designations[0:6]: 0x43a-0x453.7 (26)
0x430|                              4c 4d 54 00      |          LMT.  |      [0]: "LMT" time_zone_designation 0x43a-0x43d.7 (4)
0x430|                                          42 53|              BS|      [1]: "BST" time_zone_designation 0x43e-0x441.7 (4)
0x440|54 00                                          |T.              |
0x440|      47 4d 54 00                              |  GMT.          |      [2]: "GMT" time_zone_designation 0x442-0x445.7 (4)
0x440|                  42 44 53 54 00               |      BDST.     |      [3]: "BDST" time_zone_designation 0x446-0x44a.7 (5)
0x440|                                 43 45 54 00   |           CET. |      [4]: "CET" time_zone_designation 0x44b-0x44e.7 (4)
0x440|                                             43|               C|      [5]: "CEST" time_zone_designation 0x44f-0x453.7 (5)
0x450|45 53 54 00                                    |EST.            |
     |                                               |                |    leap_second_records[0:0]: 0x454-NA (0)
     |                                               |                |    standard_wall_indicators[0:8]: 0x454-0x45b.7 (8)
0x450|            00                                 |    .           |      [0]: 0 standard_wall_indicator (valid) 0x454-0x454.7 (1)
0x450|               01                              |     .          |      [1]: 1 standard_wall_indicator (valid) 0x455-0x455.7 (1)
0x450|                  01                           |      .         |      [2]: 1 standard_wall_indicator (valid) 0x456-0x456.7 (1)
0x450|                     01                        |       .        |      [3]: 1 standard_wall_indicator (valid) 0x457-0x457.7 (1)
0x450|                        00                     |        .       |      [4]: 0 standard_wall_indicator (valid) 0x458-0x458.7 (1)
0x450|                           00                  |         .      |      [5]: 0 standard_wall_indicator (valid) 0x459-0x459.7 (1)
0x450|                              01               |          .     |      [6]: 1 standard_wall_indicator (valid) 0x45a-0x45a.7 (1)
0x450|                                 01            |           .    |      [7]: 1 standard_wall_indicator (valid) 0x45b-0x45b.7 (1)
     |                                               |                |    ut_local_indicators[0:8]: 0x45c-0x463.7 (8)
0x450|                                    00         |            .   |      [0]: 0 ut_local_indicator (valid) 0x45c-0x45c.7 (1)
0x450|                                       00      |             .  |      [1]: 0 ut_local_indicator (valid) 0x45d-0x45d.7 (1)
0x450|                                          00   |              . |      [2]: 0 ut_local_indicator (valid) 0x45e-0x45e.7 (1)
0x450|                                             00|               .|      [3]: 0 ut_local_indicator (valid) 0x45f-0x45f.7 (1)
0x460|00                                             |.               |      [4]: 0 ut_local_indicator (valid) 0x460-0x460.7 (1)
0x460|   00                                          | .              |      [5]: 0 ut_local_indicator (valid) 0x461-0x461.7 (1)
0x460|      01                                       |  .             |      [6]: 1 ut_local_indicator (valid) 0x462-0x462.7 (1)
0x460|         01                                    |   .            |      [7]: 1 ut_local_indicator (valid) 0x463-0x463.7 (1)
     |                                               |                |  v2plusheader{}: 0x464-0x48f.7 (44)
0x460|            54 5a 69 66                        |    TZif        |    magic: 0x545a6966 (valid) 0x464-0x467.7 (4)
0x460|                        32                     |        2       |    ver: "2" (0x32) (valid) 0x468-0x468.7 (1)
0x460|                           00 00 00 00 00 00 00|         .......|    reserved: raw bits 0x469-0x477.7 (15)
0x470|00 00 00 00 00 00 00 00                        |........        |
0x470|                        00 00 00 08            |        ....    |    isutcnt: 8 0x478-0x47b.7 (4)
0x470|                                    00 00 00 08|            ....|    isstdcnt: 8 0x47c-0x47f.7 (4)
0x480|00 00 00 00                                    |....            |    leapcnt: 0 0x480-0x483.7 (4)
0x480|            00 00 00 c6                        |    ....        |    timecnt: 198 0x484-0x487.7 (4)
0x480|                        00 00 00 08            |        ....    |    typecnt: 8 0x488-0x48b.7 (4)
0x480|                                    00 00 00 1a|            ....|    charcnt: 26 0x48c-0x48f.7 (4)
     |                                               |                |  v2plusdatablock{}: 0x490-0xbdf.7 (1872)
     |                                               |                |    transition_times[0:198]: 0x490-0xabf.7 (1584)
0x490|ff ff ff ff 57 d1 0a 04                        |....W...        |      [0]: "1880-08-02T00:21:24Z" (-2821649916) transition_time 0x490-0x497.7 (8)
0x490|                        ff ff ff ff 9b 26 ad a0|        .....&..|      [1]: "1916-05-21T02:00:00Z" (-1691964000) transition_time 0x498-0x49f.7 (8)
0x4a0|ff ff ff ff 9b d6 05 20                        |.......         |      [2]: "1916-10-01T02:00:00Z" (-1680472800) transition_time 0x4a0-0x4a7.7 (8)
0x4a0|                        ff ff ff ff 9c cf 30 a0|        ......0.|      [3]: "1917-04-08T02:00:00Z" (-1664143200) transition_time 0x4a8-0x4af.7 (8)
0x4b0|ff ff ff ff 9d a4 c3 a0                        |........        |      [4]: "1917-09-17T02:00:00Z" (-1650146400) transition_time 0x4b0-0x4b7.7 (8)
0x4b0|                        ff ff ff ff 9e 9c 9d a0|        ........|      [5]: "1918-03-24T02:00:00Z" (-1633903200) transition_time 0x4b8-0x4bf.7 (8)
0x4c0|ff ff ff ff 9f 97 1a a0                        |........        |      [6]: "1918-09-30T02:00:00Z" (-1617487200) transition_time 0x4c0-0x4c7.7 (8)
0x4c0|                        ff ff ff ff a0 85 ba 20|        ....... |      [7]: "1919-03-30T02:00:00Z" (-1601848800) transition_time 0x4c8-0x4cf.7 (8)
0x4d0|ff ff ff ff a1 76 fc a0                        |.....v..        |      [8]: "1919-09-29T02:00:00Z" (-1586037600) transition_time 0x4d0-0x4d7.7 (8)
0x4d0|                        ff ff ff ff a2 65 9c 20|        .....e. |      [9]: "1920-03-28T02:00:00Z" (-1570399200) transition_time 0x4d8-0x4df.7 (8)
0x4e0|ff ff ff ff a3 7b c8 a0                        |.....{..        |      [10]: "1920-10-25T02:00:00Z" (-1552168800) transition_time 0x4e0-0x4e7.7 (8)
0x4e0|                        ff ff ff ff a4 4e b8 a0|        .....N..|      [11]: "1921-04-03T02:00:00Z" (-1538344800) transition_time 0x4e8-0x4ef.7 (8)
0x4f0|ff ff ff ff a5 3f fb 20                        |.....?.         |      [12]: "1921-10-03T02:00:00Z" (-1522533600) transition_time 0x4f0-0x4f7.7 (8)
0x4f0|                        ff ff ff ff a6 25 60 20|        .....%` |      [13]: "1922-03-26T02:00:00Z" (-1507500000) transition_time 0x4f8-0x4ff.7 (8)
0x500|ff ff ff ff a7 27 c6 20                        |.....'.         |      [14]: "1922-10-08T02:00:00Z" (-1490565600) transition_time 0x500-0x507.7 (8)
0x500|                        ff ff ff ff a8 2a 2c 20|        .....*, |      [15]: "1923-04-22T02:00:00Z" (-1473631200) transition_time 0x508-0x50f.7 (8)
0x510|ff ff ff ff a8 eb f8 a0                        |........        |      [16]: "1923-09-16T02:00:00Z" (-1460930400) transition_time 0x510-0x517.7 (8)
0x510|                        ff ff ff ff aa 00 d3 a0|        ........|      [17]: "1924-04-13T02:00:00Z" (-1442786400) transition_time 0x518-0x51f.7 (8)
0x520|ff ff ff ff aa d5 15 20                        |.......         |      [18]: "1924-09-21T02:00:00Z" (-1428876000) transition_time 0x520-0x527.7 (8)
0x520|                        ff ff ff ff ab e9 f0 20|        ....... |      [19]: "1925-04-19T02:00:00Z" (-1410732000) transition_time 0x528-0x52f.7 (8)
0x530|ff ff ff ff ac c7 6c 20                        |......l         |      [20]: "1925-10-04T02:00:00Z" (-1396216800) transition_time 0x530-0x537.7 (8)
0x530|                        ff ff ff ff ad c9 d2 20|        ....... |      [21]: "1926-04-18T02:00:00Z" (-1379282400) transition_time 0x538-0x53f.7 (8)
0x540|ff ff ff ff ae a7 4e 20                        |......N         |      [22]: "1926-10-03T02:00:00Z" (-1364767200) transition_time 0x540-0x547.7 (8)
0x540|                        ff ff ff ff af a0 79 a0|        ......y.|      [23]: "1927-04-10T02:00:00Z" (-1348437600) transition_time 0x548-0x54f.7 (8)
0x550|ff ff ff ff b0 87 30 20                        |......0         |      [24]: "1927-10-02T02:00:00Z" (-1333317600) transition_time 0x550-0x557.7 (8)
0x550|                        ff ff ff ff b1 92 d0 a0|        ........|      [25]: "1928-04-22T02:00:00Z" (-1315778400) transition_time 0x558-0x55f.7 (8)
0x560|ff ff ff ff b2 70 4c a0                        |.....pL.        |      [26]: "1928-10-07T02:00:00Z" (-1301263200) transition_time 0x560-0x567.7 (8)
0x560|                        ff ff ff ff b3 72 b2 a0|        .....r..|      [27]: "1929-04-21T02:00:00Z" (-1284328800) transition_time 0x568-0x56f.7 (8)
0x570|ff ff ff ff b4 50 2e a0                        |.....P..        |      [28]: "1929-10-06T02:00:00Z" (-1269813600) transition_time 0x570-0x577.7 (8)
0x570|                        ff ff ff ff b5 49 5a 20|        .....IZ |      [29]: "1930-04-13T02:00:00Z" (-1253484000) transition_time 0x578-0x57f.7 (8)
0x580|ff ff ff ff b6 30 10 a0                        |.....0..        |      [30]: "1930-10-05T02:00:00Z" (-1238364000) transition_time 0x580-0x587.7 (8)
0x580|                        ff ff ff ff b7 32 76 a0|        .....2v.|      [31]: "1931-04-19T02:00:00Z" (-1221429600) transition_time 0x588-0x58f.7 (8)
0x590|ff ff ff ff b8 0f f2 a0                        |........        |      [32]: "1931-10-04T02:00:00Z" (-1206914400) transition_time 0x590-0x597.7 (8)
0x590|                        ff ff ff ff b9 12 58 a0|        ......X.|      [33]: "1932-04-17T02:00:00Z" (-1189980000) transition_time 0x598-0x59f.7 (8)
0x5a0|ff ff ff ff b9 ef d4 a0                        |........        |      [34]: "1932-10-02T02:00:00Z" (-1175464800) transition_time 0x5a0-0x5a7.7 (8)
0x5a0|                        ff ff ff ff ba e9 00 20|        ....... |      [35]: "1933-04-09T02:00:00Z" (-1159135200) transition_time 0x5a8-0x5af.7 (8)
0x5b0|ff ff ff ff bb d8 f1 20                        |.......         |      [36]: "1933-10-08T02:00:00Z" (-1143410400) transition_time 0x5b0-0x5b7.7 (8)
0x5b0|                        ff ff ff ff bc db 57 20|        ......W |      [37]: "1934-04-22T02:00:00Z" (-1126476000) transition_time 0x5b8-0x5bf.7 (8)
0x5c0|ff ff ff ff bd b8 d3 20                        |.......         |      [38]: "1934-10-07T02:00:00Z" (-1111960800) transition_time 0x5c0-0x5c7.7 (8)
0x5c0|                        ff ff ff ff be b1 fe a0|        ........|      [39]: "1935-04-14T02:00:00Z" (-1095631200) transition_time 0x5c8-0x5cf.7 (8)
0x5d0|ff ff ff ff bf 98 b5 20                        |.......         |      [40]: "1935-10-06T02:00:00Z" (-1080511200) transition_time 0x5d0-0x5d7.7 (8)
0x5d0|                        ff ff ff ff c0 9b 1b 20|        ....... |      [41]: "1936-04-19T02:00:00Z" (-1063576800) transition_time 0x5d8-0x5df.7 (8)
0x5e0|ff ff ff ff c1 78 97 20                        |.....x.         |      [42]: "1936-10-04T02:00:00Z" (-1049061600) transition_time 0x5e0-0x5e7.7 (8)
0x5e0|                        ff ff ff ff c2 7a fd 20|        .....z. |      [43]: "1937-04-18T02:00:00Z" (-1032127200) transition_time 0x5e8-0x5ef.7 (8)
0x5f0|ff ff ff ff c3 58 79 20                        |.....Xy         |      [44]: "1937-10-03T02:00:00Z" (-1017612000) transition_time 0x5f0-0x5f7.7 (8)
0x5f0|                        ff ff ff ff c4 51 a4 a0|        .....Q..|      [45]: "1938-04-10T02:00:00Z" (-1001282400) transition_time 0x5f8-0x5ff.7 (8)
0x600|ff ff ff ff c5 38 5b 20                        |.....8[         |      [46]: "1938-10-02T02:00:00Z" (-986162400) transition_time 0x600-0x607.7 (8)
0x600|                        ff ff ff ff c6 3a c1 20|        .....:. |      [47]: "1939-04-16T02:00:00Z" (-969228000) transition_time 0x608-0x60f.7 (8)
0x610|ff ff ff ff c7 58 d6 a0                        |.....X..        |      [48]: "1939-11-19T02:00:00Z" (-950479200) transition_time 0x610-0x617.7 (8)
0x610|                        ff ff ff ff c7 da 09 a0|        ........|      [49]: "1940-02-25T02:00:00Z" (-942012000) transition_time 0x618-0x61f.7 (8)
0x620|ff ff ff ff ca 16 26 90                        |......&.        |      [50]: "1941-05-04T01:00:00Z" (-904518000) transition_time 0x620-0x627.7 (8)
0x620|                        ff ff ff ff ca 97 59 90|        ......Y.|      [51]: "1941-08-10T01:00:00Z" (-896050800) transition_time 0x628-0x62f.7 (8)
0x630|ff ff ff ff cb d1 1e 90                        |........        |      [52]: "1942-04-05T01:00:00Z" (-875487600) transition_time 0x630-0x637.7 (8)
0x630|                        ff ff ff ff cc 77 3b 90|        .....w;.|      [53]: "1942-08-09T01:00:00Z" (-864601200) transition_time 0x638-0x63f.7 (8)
0x640|ff ff ff ff cd b1 00 90                        |........        |      [54]: "1943-04-04T01:00:00Z" (-844038000) transition_time 0x640-0x647.7 (8)
0x640|                        ff ff ff ff ce 60 58 10|        .....`X.|      [55]: "1943-08-15T01:00:00Z" (-832546800) transition_time 0x648-0x64f.7 (8)
0x650|ff ff ff ff cf 90 e2 90                        |........        |      [56]: "1944-04-02T01:00:00Z" (-812588400) transition_time 0x650-0x657.7 (8)
0x650|                        ff ff ff ff d0 6e 5e 90|        .....n^.|      [57]: "1944-09-17T01:00:00Z" (-798073200) transition_time 0x658-0x65f.7 (8)
0x660|ff ff ff ff d1 72 16 10                        |.....r..        |      [58]: "1945-04-02T01:00:00Z" (-781052400) transition_time 0x660-0x667.7 (8)
0x660|                        ff ff ff ff d1 fb 32 10|        ......2.|      [59]: "1945-07-15T01:00:00Z" (-772066800) transition_time 0x668-0x66f.7 (8)
0x670|ff ff ff ff d2 69 fe 20                        |.....i.         |      [60]: "1945-10-07T02:00:00Z" (-764805600) transition_time 0x670-0x677.7 (8)
0x670|                        ff ff ff ff d3 63 29 a0|        .....c).|      [61]: "1946-04-14T02:00:00Z" (-748476000) transition_time 0x678-0x67f.7 (8)
0x680|ff ff ff ff d4 49 e0 20                        |.....I.         |      [62]: "1946-10-06T02:00:00Z" (-733356000) transition_time 0x680-0x687.7 (8)
0x680|                        ff ff ff ff d5 1e 21 a0|        ......!.|      [63]: "1947-03-16T02:00:00Z" (-719445600) transition_time 0x688-0x68f.7 (8)
0x690|ff ff ff ff d5 42 fd 90                        |.....B..        |      [64]: "1947-04-13T01:00:00Z" (-717030000) transition_time 0x690-0x697.7 (8)
0x690|                        ff ff ff ff d5 df e0 10|        ........|      [65]: "1947-08-10T01:00:00Z" (-706748400) transition_time 0x698-0x69f.7 (8)
0x6a0|ff ff ff ff d6 4e ac 20                        |.....N.         |      [66]: "1947-11-02T02:00:00Z" (-699487200) transition_time 0x6a0-0x6a7.7 (8)
0x6a0|                        ff ff ff ff d6 fe 03 a0|        ........|      [67]: "1948-03-14T02:00:00Z" (-687996000) transition_time 0x6a8-0x6af.7 (8)
0x6b0|ff ff ff ff d8 2e 8e 20                        |.......         |      [68]: "1948-10-31T02:00:00Z" (-668037600) transition_time 0x6b0-0x6b7.7 (8)
0x6b0|                        ff ff ff ff d8 f9 95 20|        ....... |      [69]: "1949-04-03T02:00:00Z" (-654732000) transition_time 0x6b8-0x6bf.7 (8)
0x6c0|ff ff ff ff da 0e 70 20                        |......p         |      [70]: "1949-10-30T02:00:00Z" (-636588000) transition_time 0x6c0-0x6c7.7 (8)
0x6c0|                        ff ff ff ff da eb ec 20|        ....... |      [71]: "1950-04-16T02:00:00Z" (-622072800) transition_time 0x6c8-0x6cf.7 (8)
0x6d0|ff ff ff ff db e5 17 a0                        |........        |      [72]: "1950-10-22T02:00:00Z" (-605743200) transition_time 0x6d0-0x6d7.7 (8)
0x6d0|                        ff ff ff ff dc cb ce 20|        ....... |      [73]: "1951-04-15T02:00:00Z" (-590623200) transition_time 0x6d8-0x6df.7 (8)
0x6e0|ff ff ff ff dd c4 f9 a0                        |........        |      [74]: "1951-10-21T02:00:00Z" (-574293600) transition_time 0x6e0-0x6e7.7 (8)
0x6e0|                        ff ff ff ff de b4 ea a0|        ........|      [75]: "1952-04-20T02:00:00Z" (-558568800) transition_time 0x6e8-0x6ef.7 (8)
0x6f0|ff ff ff ff df ae 16 20                        |.......         |      [76]: "1952-10-26T02:00:00Z" (-542239200) transition_time 0x6f0-0x6f7.7 (8)
0x6f0|                        ff ff ff ff e0 94 cc a0|        ........|      [77]: "1953-04-19T02:00:00Z" (-527119200) transition_time 0x6f8-0x6ff.7 (8)
0x700|ff ff ff ff e1 72 48 a0                        |.....rH.        |      [78]: "1953-10-04T02:00:00Z" (-512604000) transition_time 0x700-0x707.7 (8)
0x700|                        ff ff ff ff e2 6b 74 20|        .....kt |      [79]: "1954-04-11T02:00:00Z" (-496274400) transition_time 0x708-0x70f.7 (8)
0x710|ff ff ff ff e3 52 2a a0                        |.....R*.        |      [80]: "1954-10-03T02:00:00Z" (-481154400) transition_time 0x710-0x717.7 (8)
0x710|                        ff ff ff ff e4 54 90 a0|        .....T..|      [81]: "1955-04-17T02:00:00Z" (-464220000) transition_time 0x718-0x71f.7 (8)
0x720|ff ff ff ff e5 32 0c a0                        |.....2..        |      [82]: "1955-10-02T02:00:00Z" (-449704800) transition_time 0x720-0x727.7 (8)
0x720|                        ff ff ff ff e6 3d ad 20|        .....=. |      [83]: "1956-04-22T02:00:00Z" (-432165600) transition_time 0x728-0x72f.7 (8)
0x730|ff ff ff ff e7 1b 29 20                        |......)         |      [84]: "1956-10-07T02:00:00Z" (-417650400) transition_time 0x730-0x737.7 (8)
0x730|                        ff ff ff ff e8 14 54 a0|        ......T.|      [85]: "1957-04-14T02:00:00Z" (-401320800) transition_time 0x738-0x73f.7 (8)
0x740|00 00 00 00 17 03 cd 90                        |........        |      [86]: "1982-03-28T01:00:00Z" (386125200) transition_time 0x740-0x747.7 (8)
0x740|                        00 00 00 00 17 f3 be 90|        ........|      [87]: "1982-09-26T01:00:00Z" (401850000) transition_time 0x748-0x74f.7 (8)
0x750|00 00 00 00 18 e3 af 90                        |........        |      [88]: "1983-03-27T01:00:00Z" (417574800) transition_time 0x750-0x757.7 (8)
0x750|                        00 00 00 00 19 d3 a0 90|        ........|      [89]: "1983-09-25T01:00:00Z" (433299600) transition_time 0x758-0x75f.7 (8)
0x760|00 00 00 00 1a c3 91 90                        |........        |      [90]: "1984-03-25T01:00:00Z" (449024400) transition_time 0x760-0x767.7 (8)
0x760|                        00 00 00 00 1b bc bd 10|        ........|      [91]: "1984-09-30T01:00:00Z" (465354000) transition_time 0x768-0x76f.7 (8)
0x770|00 00 00 00 1c ac ae 10                        |........        |      [92]: "1985-03-31T01:00:00Z" (481078800) transition_time 0x770-0x777.7 (8)
0x770|                        00 00 00 00 1d 9c 9f 10|        ........|      [93]: "1985-09-29T01:00:00Z" (496803600) transition_time 0x778-0x77f.7 (8)
0x780|00 00 00 00 1e 8c 90 10                        |........        |      [94]: "1986-03-30T01:00:00Z" (512528400) transition_time 0x780-0x787.7 (8)
0x780|                        00 00 00 00 1f 7c 81 10|        .....|..|      [95]: "1986-09-28T01:00:00Z" (528253200) transition_time 0x788-0x78f.7 (8)
0x790|00 00 00 00 20 6c 72 10                        |.... lr.        |      [96]: "1987-03-29T01:00:00Z" (543978000) transition_time 0x790-0x797.7 (8)
0x790|                        00 00 00 00 21 5c 63 10|        ....!\c.|      [97]: "1987-09-27T01:00:00Z" (559702800) transition_time 0x798-0x79f.7 (8)
0x7a0|00 00 00 00 22 4c 54 10                        |...."LT.        |      [98]: "1988-03-27T01:00:00Z" (575427600) transition_time 0x7a0-0x7a7.7 (8)
0x7a0|                        00 00 00 00 23 3c 45 10|        ....#<E.|      [99]: "1988-09-25T01:00:00Z" (591152400) transition_time 0x7a8-0x7af.7 (8)
0x7b0|00 00 00 00 24 2c 36 10                        |....$,6.        |      [100]: "1989-03-26T01:00:00Z" (606877200) transition_time 0x7b0-0x7b7.7 (8)
0x7b0|                        00 00 00 00 25 1c 27 10|        ....%.'.|      [101]: "1989-09-24T01:00:00Z" (622602000) transition_time 0x7b8-0x7bf.7 (8)
0x7c0|00 00 00 00 26 0c 18 10                        |....&...        |      [102]: "1990-03-25T01:00:00Z" (638326800) transition_time 0x7c0-0x7c7.7 (8)
0x7c0|                        00 00 00 00 27 05 43 90|        ....'.C.|      [103]: "1990-09-30T01:00:00Z" (654656400) transition_time 0x7c8-0x7cf.7 (8)
0x7d0|00 00 00 00 27 f5 34 90                        |....'.4.        |      [104]: "1991-03-31T01:00:00Z" (670381200) transition_time 0x7d0-0x7d7.7 (8)
0x7d0|                        00 00 00 00 28 e5 25 90|        ....(.%.|      [105]: "1991-09-29T01:00:00Z" (686106000) transition_time 0x7d8-0x7df.7 (8)
0x7e0|00 00 00 00 29 d5 16 90                        |....)...        |      [106]: "1992-03-29T01:00:00Z" (701830800) transition_time 0x7e0-0x7e7.7 (8)
0x7e0|                        00 00 00 00 2a c5 07 90|        ....*...|      [107]: "1992-09-27T01:00:00Z" (717555600) transition_time 0x7e8-0x7ef.7 (8)
0x7f0|00 00 00 00 2b b4 f8 90                        |....+...        |      [108]: "1993-03-28T01:00:00Z" (733280400) transition_time 0x7f0-0x7f7.7 (8)
0x7f0|                        00 00 00 00 2c a4 e9 90|        ....,...|      [109]: "1993-09-26T01:00:00Z" (749005200) transition_time 0x7f8-0x7ff.7 (8)
0x800|00 00 00 00 2d 94 da 90                        |....-...        |      [110]: "1994-03-27T01:00:00Z" (764730000) transition_time 0x800-0x807.7 (8)
0x800|                        00 00 00 00 2e 84 cb 90|        ........|      [111]: "1994-09-25T01:00:00Z" (780454800) transition_time 0x808-0x80f.7 (8)
0x810|00 00 00 00 2f 74 bc 90                        |..../t..        |      [112]: "1995-03-26T01:00:00Z" (796179600) transition_time 0x810-0x817.7 (8)
0x810|                        00 00 00 00 30 64 ad 90|        ....0d..|      [113]: "1995-09-24T01:00:00Z" (811904400) transition_time 0x818-0x81f.7 (8)
0x820|00 00 00 00 31 5d d9 10                        |....1]..        |      [114]: "1996-03-31T01:00:00Z" (828234000) transition_time 0x820-0x827.7 (8)
0x820|                        00 00 00 00 32 72 b4 10|        ....2r..|      [115]: "1996-10-27T01:00:00Z" (846378000) transition_time 0x828-0x82f.7 (8)
0x830|00 00 00 00 33 3d bb 10                        |....3=..        |      [116]: "1997-03-30T01:00:00Z" (859683600) transition_time 0x830-0x837.7 (8)
0x830|                        00 00 00 00 34 52 96 10|        ....4R..|      [117]: "1997-10-26T01:00:00Z" (877827600) transition_time 0x838-0x83f.7 (8)
0x840|00 00 00 00 35 1d 9d 10                        |....5...        |      [118]: "1998-03-29T01:00:00Z" (891133200) transition_time 0x840-0x847.7 (8)
0x840|                        00 00 00 00 36 32 78 10|        ....62x.|      [119]: "1998-10-25T01:00:00Z" (909277200) transition_time 0x848-0x84f.7 (8)
0x850|00 00 00 00 36 fd 7f 10                        |....6...        |      [120]: "1999-03-28T01:00:00Z" (922582800) transition_time 0x850-0x857.7 (8)
0x850|                        00 00 00 00 38 1b 94 90|        ....8...|      [121]: "1999-10-31T01:00:00Z" (941331600) transition_time 0x858-0x85f.7 (8)
0x860|00 00 00 00 38 dd 61 10                        |....8.a.        |      [122]: "2000-03-26T01:00:00Z" (954032400) transition_time 0x860-0x867.7 (8)
0x860|                        00 00 00 00 39 fb 76 90|        ....9.v.|      [123]: "2000-10-29T01:00:00Z" (972781200) transition_time 0x868-0x86f.7 (8)
0x870|00 00 00 00 3a bd 43 10                        |....:.C.        |      [124]: "2001-03-25T01:00:00Z" (985482000) transition_time 0x870-0x877.7 (8)
0x870|                        00 00 00 00 3b db 58 90|        ....;.X.|      [125]: "2001-10-28T01:00:00Z" (1004230800) transition_time 0x878-0x87f.7 (8)
0x880|00 00 00 00 3c a6 5f 90                        |....<._.        |      [126]: "2002-03-31T01:00:00Z" (1017536400) transition_time 0x880-0x887.7 (8)
0x880|                        00 00 00 00 3d bb 3a 90|        ....=.:.|      [127]: "2002-10-27T01:00:00Z" (1035680400) transition_time 0x888-0x88f.7 (8)
0x890|00 00 00 00 3e 86 41 90                        |....>.A.        |      [128]: "2003-03-30T01:00:00Z" (1048986000) transition_time 0x890-0x897.7 (8)
0x890|                        00 00 00 00 3f 9b 1c 90|        ....?...|      [129]: "2003-10-26T01:00:00Z" (1067130000) transition_time 0x898-0x89f.7 (8)
0x8a0|00 00 00 00 40 66 23 90                        |....@f#.        |      [130]: "2004-03-28T01:00:00Z" (1080435600) transition_time 0x8a0-0x8a7.7 (8)
0x8a0|                        00 00 00 00 41 84 39 10|        ....A.9.|      [131]: "2004-10-31T01:00:00Z" (1099184400) transition_time 0x8a8-0x8af.7 (8)
0x8b0|00 00 00 00 42 46 05 90                        |....BF..        |      [132]: "2005-03-27T01:00:00Z" (1111885200) transition_time 0x8b0-0x8b7.7 (8)
0x8b0|                        00 00 00 00 43 64 1b 10|        ....Cd..|      [133]: "2005-10-30T01:00:00Z" (1130634000) transition_time 0x8b8-0x8bf.7 (8)
0x8c0|00 00 00 00 44 25 e7 90                        |....D%..        |      [134]: "2006-03-26T01:00:00Z" (1143334800) transition_time 0x8c0-0x8c7.7 (8)
0x8c0|                        00 00 00 00 45 43 fd 10|        ....EC..|      [135]: "2006-10-29T01:00:00Z" (1162083600) transition_time 0x8c8-0x8cf.7 (8)
0x8d0|00 00 00 00 46 05 c9 90                        |....F...        |      [136]: "2007-03-25T01:00:00Z" (1174784400) transition_time 0x8d0-0x8d7.7 (8)
0x8d0|                        00 00 00 00 47 23 df 10|        ....G#..|      [137]: "2007-10-28T01:00:00Z" (1193533200) transition_time 0x8d8-0x8df.7 (8)
0x8e0|00 00 00 00 47 ee e6 10                        |....G...        |      [138]: "2008-03-30T01:00:00Z" (1206838800) transition_time 0x8e0-0x8e7.7 (8)
0x8e0|                        00 00 00 00 49 03 c1 10|        ....I...|      [139]: "2008-10-26T01:00:00Z" (1224982800) transition_time 0x8e8-0x8ef.7 (8)
0x8f0|00 00 00 00 49 ce c8 10                        |....I...        |      [140]: "2009-03-29T01:00:00Z" (1238288400) transition_time 0x8f0-0x8f7.7 (8)
0x8f0|                        00 00 00 00 4a e3 a3 10|        ....J...|      [141]: "2009-10-25T01:00:00Z" (1256432400) transition_time 0x8f8-0x8ff.7 (8)
0x900|00 00 00 00 4b ae aa 10                        |....K...        |      [142]: "2010-03-28T01:00:00Z" (1269738000) transition_time 0x900-0x907.7 (8)
0x900|                        00 00 00 00 4c cc bf 90|        ....L...|      [143]: "2010-10-31T01:00:00Z" (1288486800) transition_time 0x908-0x90f.7 (8)
0x910|00 00 00 00 4d 8e 8c 10                        |....M...        |      [144]: "2011-03-27T01:00:00Z" (1301187600) transition_time 0x910-0x917.7 (8)
0x910|                        00 00 00 00 4e ac a1 90|        ....N...|      [145]: "2011-10-30T01:00:00Z" (1319936400) transition_time 0x918-0x91f.7 (8)
0x920|00 00 00 00 4f 6e 6e 10                        |....Onn.        |      [146]: "2012-03-25T01:00:00Z" (1332637200) transition_time 0x920-0x927.7 (8)
0x920|                        00 00 00 00 50 8c 83 90|        ....P...|      [147]: "2012-10-28T01:00:00Z" (1351386000) transition_time 0x928-0x92f.7 (8)
0x930|00 00 00 00 51 57 8a 90                        |....QW..        |      [148]: "2013-03-31T01:00:00Z" (1364691600) transition_time 0x930-0x937.7 (8)
0x930|                        00 00 00 00 52 6c 65 90|        ....Rle.|      [149]: "2013-10-27T01:00:00Z" (1382835600) transition_time 0x938-0x93f.7 (8)
0x940|00 00 00 00 53 37 6c 90                        |....S7l.        |      [150]: "2014-03-30T01:00:00Z" (1396141200) transition_time 0x940-0x947.7 (8)
0x940|                        00 00 00 00 54 4c 47 90|        ....TLG.|      [151]: "2014-10-26T01:00:00Z" (1414285200) transition_time 0x948-0x94f.7 (8)
0x950|00 00 00 00 55 17 4e 90                        |....U.N.        |      [152]: "2015-03-29T01:00:00Z" (1427590800) transition_time 0x950-0x957.7 (8)
0x950|                        00 00 00 00 56 2c 29 90|        ....V,).|      [153]: "2015-10-25T01:00:00Z" (1445734800) transition_time 0x958-0x95f.7 (8)
0x960|00 00 00 00 56 f7 30 90                        |....V.0.        |      [154]: "2016-03-27T01:00:00Z" (1459040400) transition_time 0x960-0x967.7 (8)
0x960|                        00 00 00 00 58 15 46 10|        ....X.F.|      [155]: "2016-10-30T01:00:00Z" (1477789200) transition_time 0x968-0x96f.7 (8)
0x970|00 00 00 00 58 d7 12 90                        |....X...        |      [156]: "2017-03-26T01:00:00Z" (1490490000) transition_time 0x970-0x977.7 (8)
0x970|                        00 00 00 00 59 f5 28 10|        ....Y.(.|      [157]: "2017-10-29T01:00:00Z" (1509238800) transition_time 0x978-0x97f.7 (8)
0x980|00 00 00 00 5a b6 f4 90                        |....Z...        |      [158]: "2018-03-25T01:00:00Z" (1521939600) transition_time 0x980-0x987.7 (8)
0x980|                        00 00 00 00 5b d5 0a 10|        ....[...|      [159]: "2018-10-28T01:00:00Z" (1540688400) transition_time 0x988-0x98f.7 (8)
0x990|00 00 00 00 5c a0 11 10                        |....\...        |      [160]: "2019-03-31T01:00:00Z" (1553994000) transition_time 0x990-0x997.7 (8)
0x990|                        00 00 00 00 5d b4 ec 10|        ....]...|      [161]: "2019-10-27T01:00:00Z" (1572138000) transition_time 0x998-0x99f.7 (8)
0x9a0|00 00 00 00 5e 7f f3 10                        |....^...        |      [162]: "2020-03-29T01:00:00Z" (1585443600) transition_time 0x9a0-0x9a7.7 (8)
0x9a0|                        00 00 00 00 5f 94 ce 10|        ...._...|      [163]: "2020-10-25T01:00:00Z" (1603587600) transition_time 0x9a8-0x9af.7 (8)
0x9b0|00 00 00 00 60 5f d5 10                        |....`_..        |      [164]: "2021-03-28T01:00:00Z" (1616893200) transition_time 0x9b0-0x9b7.7 (8)
0x9b0|                        00 00 00 00 61 7d ea 90|        ....a}..|      [165]: "2021-10-31T01:00:00Z" (1635642000) transition_time 0x9b8-0x9bf.7 (8)
0x9c0|00 00 00 00 62 3f b7 10                        |....b?..        |      [166]: "2022-03-27T01:00:00Z" (1648342800) transition_time 0x9c0-0x9c7.7 (8)
0x9c0|                        00 00 00 00 63 5d cc 90|        ....c]..|      [167]: "2022-10-30T01:00:00Z" (1667091600) transition_time 0x9c8-0x9cf.7 (8)
0x9d0|00 00 00 00 64 1f 99 10                        |....d...        |      [168]: "2023-03-26T01:00:00Z" (1679792400) transition_time 0x9d0-0x9d7.7 (8)
0x9d0|                        00 00 00 00 65 3d ae 90|        ....e=..|      [169]: "2023-10-29T01:00:00Z" (1698541200) transition_time 0x9d8-0x9df.7 (8)
0x9e0|00 00 00 00 66 08 b5 90                        |....f...        |      [170]: "2024-03-31T01:00:00Z" (1711846800) transition_time 0x9e0-0x9e7.7 (8)
0x9e0|                        00 00 00 00 67 1d 90 90|        ....g...|      [171]: "2024-10-27T01:00:00Z" (1729990800) transition_time 0x9e8-0x9ef.7 (8)
0x9f0|00 00 00 00 67 e8 97 90                        |....g...        |      [172]: "2025-03-30T01:00:00Z" (1743296400) transition_time 0x9f0-0x9f7.7 (8)
0x9f0|                        00 00 00 00 68 fd 72 90|        ....h.r.|      [173]: "2025-10-26T01:00:00Z" (1761440400) transition_time 0x9f8-0x9ff.7 (8)
0xa00|00 00 00 00 69 c8 79 90                        |....i.y.        |      [174]: "2026-03-29T01:00:00Z" (1774746000) transition_time 0xa00-0xa07.7 (8)
0xa00|                        00 00 00 00 6a dd 54 90|        ....j.T.|      [175]: "2026-10-25T01:00:00Z" (1792890000) transition_time 0xa08-0xa0f.7 (8)
0xa10|00 00 00 00 6b a8 5b 90                        |....k.[.        |      [176]: "2027-03-28T01:00:00Z" (1806195600) transition_time 0xa10-0xa17.7 (8)
0xa10|                        00 00 00 00 6c c6 71 10|        ....l.q.|      [177]: "2027-10-31T01:00:00Z" (1824944400) transition_time 0xa18-0xa1f.7 (8)
0xa20|00 00 00 00 6d 88 3d 90                        |....m.=.        |      [178]: "2028-03-26T01:00:00Z" (1837645200) transition_time 0xa20-0xa27.7 (8)
0xa20|                        00 00 00 00 6e a6 53 10|        ....n.S.|      [179]: "2028-10-29T01:00:00Z" (1856394000) transition_time 0xa28-0xa2f.7 (8)
0xa30|00 00 00 00 6f 68 1f 90                        |....oh..        |      [180]: "2029-03-25T01:00:00Z" (1869094800) transition_time 0xa30-0xa37.7 (8)
0xa30|                        00 00 00 00 70 86 35 10|        ....p.5.|      [181]: "2029-10-28T01:00:00Z" (1887843600) transition_time 0xa38-0xa3f.7 (8)
0xa40|00 00 00 00 71 51 3c 10                        |....qQ<.        |      [182]: "2030-03-31T01:00:00Z" (1901149200) transition_time 0xa40-0xa47.7 (8)
0xa40|                        00 00 00 00 72 66 17 10|        ....rf..|      [183]: "2030-10-27T01:00:00Z" (1919293200) transition_time 0xa48-0xa4f.7 (8)
0xa50|00 00 00 00 73 31 1e 10                        |....s1..        |      [184]: "2031-03-30T01:00:00Z" (1932598800) transition_time 0xa50-0xa57.7 (8)
0xa50|                        00 00 00 00 74 45 f9 10|        ....tE..|      [185]: "2031-10-26T01:00:00Z" (1950742800) transition_time 0xa58-0xa5f.7 (8)
0xa60|00 00 00 00 75 11 00 10                        |....u...        |      [186]: "2032-03-28T01:00:00Z" (1964048400) transition_time 0xa60-0xa67.7 (8)
0xa60|                        00 00 00 00 76 2f 15 90|        ....v/..|      [187]: "2032-10-31T01:00:00Z" (1982797200) transition_time 0xa68-0xa6f.7 (8)
0xa70|00 00 00 00 76 f0 e2 10                        |....v...        |      [188]: "2033-03-27T01:00:00Z" (1995498000) transition_time 0xa70-0xa77.7 (8)
0xa70|                        00 00 00 00 78 0e f7 90|        ....x...|      [189]: "2033-10-30T01:00:00Z" (2014246800) transition_time 0xa78-0xa7f.7 (8)
0xa80|00 00 00 00 78 d0 c4 10                        |....x...        |      [190]: "2034-03-26T01:00:00Z" (2026947600) transition_time 0xa80-0xa87.7 (8)
0xa80|                        00 00 00 00 79 ee d9 90|        ....y...|      [191]: "2034-10-29T01:00:00Z" (2045696400) transition_time 0xa88-0xa8f.7 (8)
0xa90|00 00 00 00 7a b0 a6 10                        |....z...        |      [192]: "2035-03-25T01:00:00Z" (2058397200) transition_time 0xa90-0xa97.7 (8)
0xa90|                        00 00 00 00 7b ce bb 90|        ....{...|      [193]: "2035-10-28T01:00:00Z" (2077146000) transition_time 0xa98-0xa9f.7 (8)
0xaa0|00 00 00 00 7c 99 c2 90                        |....|...        |      [194]: "2036-03-30T01:00:00Z" (2090451600) transition_time 0xaa0-0xaa7.7 (8)
0xaa0|                        00 00 00 00 7d ae 9d 90|        ....}...|      [195]: "2036-10-26T01:00:00Z" (2108595600) transition_time 0xaa8-0xaaf.7 (8)
0xab0|00 00 00 00 7e 79 a4 90                        |....~y..        |      [196]: "2037-03-29T01:00:00Z" (2121901200) transition_time 0xab0-0xab7.7 (8)
0xab0|                        00 00 00 00 7f 8e 7f 90|        ........|      [197]: "2037-10-25T01:00:00Z" (2140045200) transition_time 0xab8-0xabf.7 (8)
     |                                               |                |    transition_types[0:198]: 0xac0-0xb85.7 (198)
0xac0|04                                             |.               |      [0]: 4 transition_type 0xac0-0xac0.7 (1)
0xac0|   01                                          | .              |      [1]: 1 transition_type 0xac1-0xac1.7 (1)
0xac0|      02                                       |  .             |      [2]: 2 transition_type 0xac2-0xac2.7 (1)
0xac0|         01                                    |   .            |      [3]: 1 transition_type 0xac3-0xac3.7 (1)
0xac0|            02                                 |    .           |      [4]: 2 transition_type 0xac4-0xac4.7 (1)
0xac0|               01                              |     .          |      [5]: 1 transition_type 0xac5-0xac5.7 (1)
0xac0|                  02                           |      .         |      [6]: 2 transition_type 0xac6-0xac6.7 (1)
0xac0|                     01                        |       .        |      [7]: 1 transition_type 0xac7-0xac7.7 (1)
0xac0|                        02                     |        .       |      [8]: 2 transition_type 0xac8-0xac8.7 (1)
0xac0|                           01                  |         .      |      [9]: 1 transition_type 0xac9-0xac9.7 (1)
0xac0|                              02               |          .     |      [10]: 2 transition_type 0xaca-0xaca.7 (1)
0xac0|                                 01            |           .    |      [11]: 1 transition_type 0xacb-0xacb.7 (1)
0xac0|                                    02         |            .   |      [12]: 2 transition_type 0xacc-0xacc.7 (1)
0xac0|                                       01      |             .  |      [13]: 1 transition_type 0xacd-0xacd.7 (1)
0xac0|                                          02   |              . |      [14]: 2 transition_type 0xace-0xace.7 (1)
0xac0|                                             01|               .|      [15]: 1 transition_type 0xacf-0xacf.7 (1)
0xad0|02                                             |.               |      [16]: 2 transition_type 0xad0-0xad0.7 (1)
0xad0|   01                                          | .              |      [17]: 1 transition_type 0xad1-0xad1.7 (1)
0xad0|      02                                       |  .             |      [18]: 2 transition_type 0xad2-0xad2.7 (1)
0xad0|         01                                    |   .            |      [19]: 1 transition_type 0xad3-0xad3.7 (1)
0xad0|            02                                 |    .           |      [20]: 2 transition_type 0xad4-0xad4.7 (1)
0xad0|               01                              |     .          |      [21]: 1 transition_type 0xad5-0xad5.7 (1)
0xad0|                  02                           |      .         |      [22]: 2 transition_type 0xad6-0xad6.7 (1)
0xad0|                     01                        |       .        |      [23]: 1 transition_type 0xad7-0xad7.7 (1)
0xad0|                        02                     |        .       |      [24]: 2 transition_type 0xad8-0xad8.7 (1)
0xad0|                           01                  |         .      |      [25]: 1 transition_type 0xad9-0xad9.7 (1)
0xad0|                              02               |          .     |      [26]: 2 transition_type 0xada-0xada.7 (1)
0xad0|                                 01            |           .    |      [27]: 1 transition_type 0xadb-0xadb.7 (1)
0xad0|                                    02         |            .   |      [28]: 2 transition_type 0xadc-0xadc.7 (1)
0xad0|                                       01      |             .  |      [29]: 1 transition_type 0xadd-0xadd.7 (1)
0xad0|                                          02   |              . |      [30]: 2 transition_type 0xade-0xade.7 (1)
0xad0|                                             01|               .|      [31]: 1 transition_type 0xadf-0xadf.7 (1)
0xae0|02                                             |.               |      [32]: 2 transition_type 0xae0-0xae0.7 (1)
0xae0|   01                                          | .              |      [33]: 1 transition_type 0xae1-0xae1.7 (1)
0xae0|      02                                       |  .             |      [34]: 2 transition_type 0xae2-0xae2.7 (1)
0xae0|         01                                    |   .            |      [35]: 1 transition_type 0xae3-0xae3.7 (1)
0xae0|            02                                 |    .           |      [36]: 2 transition_type 0xae4-0xae4.7 (1)
0xae0|               01                              |     .          |      [37]: 1 transition_type 0xae5-0xae5.7 (1)
0xae0|                  02                           |      .         |      [38]: 2 transition_type 0xae6-0xae6.7 (1)
0xae0|                     01                        |       .        |      [39]: 1 transition_type 0xae7-0xae7.7 (1)
0xae0|                        02                     |        .       |      [40]: 2 transition_type 0xae8-0xae8.7 (1)
0xae0|                           01                  |         .      |      [41]: 1 transition_type 0xae9-0xae9.7 (1)
0xae0|                              02               |          .     |      [42]: 2 transition_type 0xaea-0xaea.7 (1)
0xae0|                                 01            |           .    |      [43]: 1 transition_type 0xaeb-0xaeb.7 (1)
0xae0|                                    02         |            .   |      [44]: 2 transition_type 0xaec-0xaec.7 (1)
0xae0|                                       01      |             .  |      [45]: 1 transition_type 0xaed-0xaed.7 (1)
0xae0|                                          02   |              . |      [46]: 2 transition_type 0xaee-0xaee.7 (1)
0xae0|                                             01|               .|      [47]: 1 transition_type 0xaef-0xaef.7 (1)
0xaf0|02                                             |.               |      [48]: 2 transition_type 0xaf0-0xaf0.7 (1)
0xaf0|   01                                          | .              |      [49]: 1 transition_type 0xaf1-0xaf1.7 (1)
0xaf0|      03                                       |  .             |      [50]: 3 transition_type 0xaf2-0xaf2.7 (1)
0xaf0|         01                                    |   .            |      [51]: 1 transition_type 0xaf3-0xaf3.7 (1)
0xaf0|            03                                 |    .           |      [52]: 3 transition_type 0xaf4-0xaf4.7 (1)
0xaf0|               01                              |     .          |      [53]: 1 transition_type 0xaf5-0xaf5.7 (1)
0xaf0|                  03                           |      .         |      [54]: 3 transition_type 0xaf6-0xaf6.7 (1)
0xaf0|                     01                        |       .        |      [55]: 1 transition_type 0xaf7-0xaf7.7 (1)
0xaf0|                        03                     |        .       |      [56]: 3 transition_type 0xaf8-0xaf8.7 (1)
0xaf0|                           01                  |         .      |      [57]: 1 transition_type 0xaf9-0xaf9.7 (1)
0xaf0|                              03               |          .     |      [58]: 3 transition_type 0xafa-0xafa.7 (1)
0xaf0|                                 01            |           .    |      [59]: 1 transition_type 0xafb-0xafb.7 (1)
0xaf0|                                    02         |            .   |      [60]: 2 transition_type 0xafc-0xafc.7 (1)
0xaf0|                                       01      |             .  |      [61]: 1 transition_type 0xafd-0xafd.7 (1)
0xaf0|                                          02   |              . |      [62]: 2 transition_type 0xafe-0xafe.7 (1)
0xaf0|                                             01|               .|      [63]: 1 transition_type 0xaff-0xaff.7 (1)
0xb00|03                                             |.               |      [64]: 3 transition_type 0xb00-0xb00.7 (1)
0xb00|   01                                          | .              |      [65]: 1 transition_type 0xb01-0xb01.7 (1)
0xb00|      02                                       |  .             |      [66]: 2 transition_type 0xb02-0xb02.7 (1)
0xb00|         01                                    |   .            |      [67]: 1 transition_type 0xb03-0xb03.7 (1)
0xb00|            02                                 |    .           |      [68]: 2 transition_type 0xb04-0xb04.7 (1)
0xb00|               01                              |     .          |      [69]: 1 transition_type 0xb05-0xb05.7 (1)
0xb00|                  02                           |      .         |      [70]: 2 transition_type 0xb06-0xb06.7 (1)
0xb00|                     01                        |       .        |      [71]: 1 transition_type 0xb07-0xb07.7 (1)
0xb00|                        02                     |        .       |      [72]: 2 transition_type 0xb08-0xb08.7 (1)
0xb00|                           01                  |         .      |      [73]: 1 transition_type 0xb09-0xb09.7 (1)
0xb00|                              02               |          .     |      [74]: 2 transition_type 0xb0a-0xb0a.7 (1)
0xb00|                                 01            |           .    |      [75]: 1 transition_type 0xb0b-0xb0b.7 (1)
0xb00|                                    02         |            .   |      [76]: 2 transition_type 0xb0c-0xb0c.7 (1)
0xb00|                                       01      |             .  |      [77]: 1 transition_type 0xb0d-0xb0d.7 (1)
0xb00|                                          02   |              . |      [78]: 2 transition_type 0xb0e-0xb0e.7 (1)
0xb00|                                             01|               .|      [79]: 1 transition_type 0xb0f-0xb0f.7 (1)
0xb10|02                                             |.               |      [80]: 2 transition_type 0xb10-0xb10.7 (1)
0xb10|   01                                          | .              |      [81]: 1 transition_type 0xb11-0xb11.7 (1)
0xb10|      02                                       |  .             |      [82]: 2 transition_type 0xb12-0xb12.7 (1)
0xb10|         01                                    |   .            |      [83]: 1 transition_type 0xb13-0xb13.7 (1)
0xb10|            02                                 |    .           |      [84]: 2 transition_type 0xb14-0xb14.7 (1)
0xb10|               05                              |     .          |      [85]: 5 transition_type 0xb15-0xb15.7 (1)
0xb10|                  06                           |      .         |      [86]: 6 transition_type 0xb16-0xb16.7 (1)
0xb10|                     07                        |       .        |      [87]: 7 transition_type 0xb17-0xb17.7 (1)
0xb10|                        06                     |        .       |      [88]: 6 transition_type 0xb18-0xb18.7 (1)
0xb10|                           07                  |         .      |      [89]: 7 transition_type 0xb19-0xb19.7 (1)
0xb10|                              06               |          .     |      [90]: 6 transition_type 0xb1a-0xb1a.7 (1)
0xb10|                                 07            |           .    |      [91]: 7 transition_type 0xb1b-0xb1b.7 (1)
0xb10|                                    06         |            .   |      [92]: 6 transition_type 0xb1c-0xb1c.7 (1)
0xb10|                                       07      |             .  |      [93]: 7 transition_type 0xb1d-0xb1d.7 (1)
0xb10|                                          06   |              . |      [94]: 6 transition_type 0xb1e-0xb1e.7 (1)
0xb10|                                             07|               .|      [95]: 7 transition_type 0xb1f-0xb1f.7 (1)
0xb20|06                                             |.               |      [96]: 6 transition_type 0xb20-0xb20.7 (1)
0xb20|   07                                          | .              |      [97]: 7 transition_type 0xb21-0xb21.7 (1)
0xb20|      06                                       |  .             |      [98]: 6 transition_type 0xb22-0xb22.7 (1)
0xb20|         07                                    |   .            |      [99]: 7 transition_type 0xb23-0xb23.7 (1)
0xb20|            06                                 |    .           |      [100]: 6 transition_type 0xb24-0xb24.7 (1)
0xb20|               07                              |     .          |      [101]: 7 transition_type 0xb25-0xb25.7 (1)
0xb20|                  06                           |      .         |      [102]: 6 transition_type 0xb26-0xb26.7 (1)
0xb20|                     07                        |       .        |      [103]: 7 transition_type 0xb27-0xb27.7 (1)
0xb20|                        06                     |        .       |      [104]: 6 transition_type 0xb28-0xb28.7 (1)
0xb20|                           07                  |         .      |      [105]: 7 transition_type 0xb29-0xb29.7 (1)
0xb20|                              06               |          .     |      [106]: 6 transition_type 0xb2a-0xb2a.7 (1)
0xb20|                                 07            |           .    |      [107]: 7 transition_type 0xb2b-0xb2b.7 (1)
0xb20|                                    06         |            .   |      [108]: 6 transition_type 0xb2c-0xb2c.7 (1)
0xb20|                                       07      |             .  |      [109]: 7 transition_type 0xb2d-0xb2d.7 (1)
0xb20|                                          06   |              . |      [110]: 6 transition_type 0xb2e-0xb2e.7 (1)
0xb20|                                             07|               .|      [111]: 7 transition_type 0xb2f-0xb2f.7 (1)
0xb30|06                                             |.               |      [112]: 6 transition_type 0xb30-0xb30.7 (1)
0xb30|   07                                          | .              |      [113]: 7 transition_type 0xb31-0xb31.7 (1)
0xb30|      06                                       |  .             |      [114]: 6 transition_type 0xb32-0xb32.7 (1)
0xb30|         07                                    |   .            |      [115]: 7 transition_type 0xb33-0xb33.7 (1)
0xb30|            06                                 |    .           |      [116]: 6 transition_type 0xb34-0xb34.7 (1)
0xb30|               07                              |     .          |      [117]: 7 transition_type 0xb35-0xb35.7 (1)
0xb30|                  06                           |      .         |      [118]: 6 transition_type 0xb36-0xb36.7 (1)
0xb30|                     07                        |       .        |      [119]: 7 transition_type 0xb37-0xb37.7 (1)
0xb30|                        06                     |        .       |      [120]: 6 transition_type 0xb38-0xb38.7 (1)
0xb30|                           07                  |         .      |      [121]: 7 transition_type 0xb39-0xb39.7 (1)
0xb30|                              06               |          .     |      [122]: 6 transition_type 0xb3a-0xb3a.7 (1)
0xb30|                                 07            |           .    |      [123]: 7 transition_type 0xb3b-0xb3b.7 (1)
0xb30|                                    06         |            .   |      [124]: 6 transition_type 0xb3c-0xb3c.7 (1)
0xb30|                                       07      |             .  |      [125]: 7 transition_type 0xb3d-0xb3d.7 (1)
0xb30|                                          06   |              . |      [126]: 6 transition_type 0xb3e-0xb3e.7 (1)
0xb30|                                             07|               .|      [127]: 7 transition_type 0xb3f-0xb3f.7 (1)
0xb40|06                                             |.               |      [128]: 6 transition_type 0xb40-0xb40.7 (1)
0xb40|   07                                          | .              |      [129]: 7 transition_type 0xb41-0xb41.7 (1)
0xb40|      06                                       |  .             |      [130]: 6 transition_type 0xb42-0xb42.7 (1)
0xb40|         07                                    |   .            |      [131]: 7 transition_type 0xb43-0xb43.7 (1)
0xb40|            06                                 |    .           |      [132]: 6 transition_type 0xb44-0xb44.7 (1)
0xb40|               07                              |     .          |      [133]: 7 transition_type 0xb45-0xb45.7 (1)
0xb40|                  06                           |      .         |      [134]: 6 transition_type 0xb46-0xb46.7 (1)
0xb40|                     07                        |       .        |      [135]: 7 transition_type 0xb47-0xb47.7 (1)
0xb40|                        06                     |        .       |      [136]: 6 transition_type 0xb48-0xb48.7 (1)
0xb40|                           07                  |         .      |      [137]: 7 transition_type 0xb49-0xb49.7 (1)
0xb40|                              06               |          .     |      [138]: 6 transition_type 0xb4a-0xb4a.7 (1)
0xb40|                                 07            |           .    |      [139]: 7 transition_type 0xb4b-0xb4b.7 (1)
0xb40|                                    06         |            .   |      [140]: 6 transition_type 0xb4c-0xb4c.7 (1)
0xb40|                                       07      |             .  |      [141]: 7 transition_type 0xb4d-0xb4d.7 (1)
0xb40|                                          06   |              . |      [142]: 6 transition_type 0xb4e-0xb4e.7 (1)
0xb40|                                             07|               .|      [143]: 7 transition_type 0xb4f-0xb4f.7 (1)
0xb50|06                                             |.               |      [144]: 6 transition_type 0xb50-0xb50.7 (1)
0xb50|   07                                          | .              |      [145]: 7 transition_type 0xb51-0xb51.7 (1)
0xb50|      06                                       |  .             |      [146]: 6 transition_type 0xb52-0xb52.7 (1)
0xb50|         07                                    |   .            |      [147]: 7 transition_type 0xb53-0xb53.7 (1)
0xb50|            06                                 |    .           |      [148]: 6 transition_type 0xb54-0xb54.7 (1)
0xb50|               07                              |     .          |      [149]: 7 transition_type 0xb55-0xb55.7 (1)
0xb50|                  06                           |      .         |      [150]: 6 transition_type 0xb56-0xb56.7 (1)
0xb50|                     07                        |       .        |      [151]: 7 transition_type 0xb57-0xb57.7 (1)
0xb50|                        06                     |        .       |      [152]: 6 transition_type 0xb58-0xb58.7 (1)
0xb50|                           07                  |         .      |      [153]: 7 transition_type 0xb59-0xb59.7 (1)
0xb50|                              06               |          .     |      [154]: 6 transition_type 0xb5a-0xb5a.7 (1)
0xb50|                                 07            |           .    |      [155]: 7 transition_type 0xb5b-0xb5b.7 (1)
0xb50|                                    06         |            .   |      [156]: 6 transition_type 0xb5c-0xb5c.7 (1)
0xb50|                                       07      |             .  |      [157]: 7 transition_type 0xb5d-0xb5d.7 (1)
0xb50|                                          06   |              . |      [158]: 6 transition_type 0xb5e-0xb5e.7 (1)
0xb50|                                             07|               .|      [159]: 7 transition_type 0xb5f-0xb5f.7 (1)
0xb60|06                                             |.               |      [160]: 6 transition_type 0xb60-0xb60.7 (1)
0xb60|   07                                          | .              |      [161]: 7 transition_type 0xb61-0xb61.7 (1)
0xb60|      06                                       |  .             |      [162]: 6 transition_type 0xb62-0xb62.7 (1)
0xb60|         07                                    |   .            |      [163]: 7 transition_type 0xb63-0xb63.7 (1)
0xb60|            06                                 |    .           |      [164]: 6 transition_type 0xb64-0xb64.7 (1)
0xb60|               07                              |     .          |      [165]: 7 transition_type 0xb65-0xb65.7 (1)
0xb60|                  06                           |      .         |      [166]: 6 transition_type 0xb66-0xb66.7 (1)
0xb60|                     07                        |       .        |      [167]: 7 transition_type 0xb67-0xb67.7 (1)
0xb60|                        06                     |        .       |      [168]: 6 transition_type 0xb68-0xb68.7 (1)
0xb60|                           07                  |         .      |      [169]: 7 transition_type 0xb69-0xb69.7 (1)
0xb60|                              06               |          .     |      [170]: 6 transition_type 0xb6a-0xb6a.7 (1)
0xb60|                                 07            |           .    |      [171]: 7 transition_type 0xb6b-0xb6b.7 (1)
0xb60|                                    06         |            .   |      [172]: 6 transition_type 0xb6c-0xb6c.7 (1)
0xb60|                                       07      |             .  |      [173]: 7 transition_type 0xb6d-0xb6d.7 (1)
0xb60|                                          06   |              . |      [174]: 6 transition_type 0xb6e-0xb6e.7 (1)
0xb60|                                             07|               .|      [175]: 7 transition_type 0xb6f-0xb6f.7 (1)
0xb70|06                                             |.               |      [176]: 6 transition_type 0xb70-0xb70.7 (1)
0xb70|   07                                          | .              |      [177]: 7 transition_type 0xb71-0xb71.7 (1)
0xb70|      06                                       |  .             |      [178]: 6 transition_type 0xb72-0xb72.7 (1)
0xb70|         07                                    |   .            |      [179]: 7 transition_type 0xb73-0xb73.7 (1)
0xb70|            06                                 |    .           |      [180]: 6 transition_type 0xb74-0xb74.7 (1)
0xb70|               07                              |     .          |      [181]: 7 transition_type 0xb75-0xb75.7 (1)
0xb70|                  06                           |      .         |      [182]: 6 transition_type 0xb76-0xb76.7 (1)
0xb70|                     07                        |       .        |      [183]: 7 transition_type 0xb77-0xb77.7 (1)
0xb70|                        06                     |        .       |      [184]: 6 transition_type 0xb78-0xb78.7 (1)
0xb70|                           07                  |         .      |      [185]: 7 transition_type 0xb79-0xb79.7 (1)
0xb70|                              06               |          .     |      [186]: 6 transition_type 0xb7a-0xb7a.7 (1)
0xb70|                                 07            |           .    |      [187]: 7 transition_type 0xb7b-0xb7b.7 (1)
0xb70|                                    06         |            .   |      [188]: 6 transition_type 0xb7c-0xb7c.7 (1)
0xb70|                                       07      |             .  |      [189]: 7 transition_type 0xb7d-0xb7d.7 (1)
0xb70|                                          06   |              . |      [190]: 6 transition_type 0xb7e-0xb7e.7 (1)
0xb70|                                             07|               .|      [191]: 7 transition_type 0xb7f-0xb7f.7 (1)
0xb80|06                                             |.               |      [192]: 6 transition_type 0xb80-0xb80.7 (1)
0xb80|   07                                          | .              |      [193]: 7 transition_type 0xb81-0xb81.7 (1)
0xb80|      06                                       |  .             |      [194]: 6 transition_type 0xb82-0xb82.7 (1)
0xb80|         07                                    |   .            |      [195]: 7 transition_type 0xb83-0xb83.7 (1)
0xb80|            06                                 |    .           |      [196]: 6 transition_type 0xb84-0xb84.7 (1)
0xb80|               07                              |     .          |      [197]: 7 transition_type 0xb85-0xb85.7 (1)
     |                                               |                |    local_time_type_records[0:8]: 0xb86-0xbb5.7 (48)
     |                                               |                |      [0]{}: local_time_type 0xb86-0xb8b.7 (6)
0xb80|                  ff ff fa fc                  |      ....      |        utoff: -1284 (valid) 0xb86-0xb89.7 (4)
0xb80|                              00               |          .     |        dst: 0 (valid) 0xb8a-0xb8a.7 (1)
0xb80|                                 00            |           .    |        idx: 0 (valid) 0xb8b-0xb8b.7 (1)
     |                                               |                |      [1]{}: local_time_type 0xb8c-0xb91.7 (6)
0xb80|                                    00 00 0e 10|            ....|        utoff: 3600 (valid) 0xb8c-0xb8f.7 (4)
0xb90|01                                             |.               |        dst: 1 (valid) 0xb90-0xb90.7 (1)
0xb90|   04                                          | .              |        idx: 4 (valid) 0xb91-0xb91.7 (1)
     |                                               |                |      [2]{}: local_time_type 0xb92-0xb97.7 (6)
0xb90|      00 00 00 00                              |  ....          |        utoff: 0 (valid) 0xb92-0xb95.7 (4)
0xb90|                  00                           |      .         |        dst: 0 (valid) 0xb96-0xb96.7 (1)
0xb90|                     08                        |       .        |        idx: 8 (valid) 0xb97-0xb97.7 (1)
     |                                               |                |      [3]{}: local_time_type 0xb98-0xb9d.7 (6)
0xb90|                        00 00 1c 20            |        ...     |        utoff: 7200 (valid) 0xb98-0xb9b.7 (4)
0xb90|                                    01         |            .   |        dst: 1 (valid) 0xb9c-0xb9c.7 (1)
0xb90|                                       0c      |             .  |        idx: 12 (valid) 0xb9d-0xb9d.7 (1)
     |                                               |                |      [4]{}: local_time_type 0xb9e-0xba3.7 (6)
0xb90|                                          00 00|              ..|        utoff: 0 (valid) 0xb9e-0xba1.7 (4)
0xba0|00 00                                          |..              |
0xba0|      00                                       |  .             |        dst: 0 (valid) 0xba2-0xba2.7 (1)
0xba0|         08                                    |   .            |        idx: 8 (valid) 0xba3-0xba3.7 (1)
     |                                               |                |      [5]{}: local_time_type 0xba4-0xba9.7 (6)
0xba0|            00 00 0e 10                        |    ....        |        utoff: 3600 (valid) 0xba4-0xba7.7 (4)
0xba0|                        00                     |        .       |        dst: 0 (valid) 0xba8-0xba8.7 (1)
0xba0|                           11                  |         .      |        idx: 17 (valid) 0xba9-0xba9.7 (1)
     |                                               |                |      [6]{}: local_time_type 0xbaa-0xbaf.7 (6)
0xba0|                              00 00 1c 20      |          ...   |        utoff: 7200 (valid) 0xbaa-0xbad.7 (4)
0xba0|                                          01   |              . |        dst: 1 (valid) 0xbae-0xbae.7 (1)
0xba0|                                             15|               .|        idx: 21 (valid) 0xbaf-0xbaf.7 (1)
     |                                               |                |      [7]{}: local_time_type 0xbb0-0xbb5.7 (6)
0xbb0|00 00 0e 10                                    |....            |        utoff: 3600 (valid) 0xbb0-0xbb3.7 (4)
0xbb0|            00                                 |    .           |        dst: 0 (valid) 0xbb4-0xbb4.7 (1)
0xbb0|               11                              |     .          |        idx: 17 (valid) 0xbb5-0xbb5.7 (1)
     |                                               |                |    time_zone_designations[0:6]: 0xbb6-0xbcf.7 (26)
0xbb0|                  4c 4d 54 00                  |      LMT.      |      [0]: "LMT" time_zone_designation 0xbb6-0xbb9.7 (4)
0xbb0|                              42 53 54 00      |          BST.  |      [1]: "BST" time_zone_designation 0xbba-0xbbd.7 (4)
0xbb0|                                          47 4d|              GM|      [2]: "GMT" time_zone_designation 0xbbe-0xbc1.7 (4)
0xbc0|54 00                                          |T.              |
0xbc0|      42 44 53 54 00                           |  BDST.         |      [3]: "BDST" time_zone_designation 0xbc2-0xbc6.7 (5)
0xbc0|                     43 45 54 00               |       CET.     |      [4]: "CET" time_zone_designation 0xbc7-0xbca.7 (4)
0xbc0|                                 43 45 53 54 00|           CEST.|      [5]: "CEST" time_zone_designation 0xbcb-0xbcf.7 (5)
     |                                               |                |    leap_second_records[0:0]: 0xbd0-NA (0)
     |                                               |                |    standard_wall_indicators[0:8]: 0xbd0-0xbd7.7 (8)
0xbd0|00                                             |.               |      [0]: 0 standard_wall_indicator (valid) 0xbd0-0xbd0.7 (1)
0xbd0|   01                                          | .              |      [1]: 1 standard_wall_indicator (valid) 0xbd1-0xbd1.7 (1)
0xbd0|      01                                       |  .             |      [2]: 1 standard_wall_indicator (valid) 0xbd2-0xbd2.7 (1)
0xbd0|         01                                    |   .            |      [3]: 1 standard_wall_indicator (valid) 0xbd3-0xbd3.7 (1)
0xbd0|            00                                 |    .           |      [4]: 0 standard_wall_indicator (valid) 0xbd4-0xbd4.7 (1)
0xbd0|               00                              |     .          |      [5]: 0 standard_wall_indicator (valid) 0xbd5-0xbd5.7 (1)
0xbd0|                  01                           |      .         |      [6]: 1 standard_wall_indicator (valid) 0xbd6-0xbd6.7 (1)
0xbd0|                     01                        |       .        |      [7]: 1 standard_wall_indicator (valid) 0xbd7-0xbd7.7 (1)
     |                                               |                |    ut_local_indicators[0:8]: 0xbd8-0xbdf.7 (8)
0xbd0|                        00                     |        .       |      [0]: 0 ut_local_indicator (valid) 0xbd8-0xbd8.7 (1)
0xbd0|                           00                  |         .      |      [1]: 0 ut_local_indicator (valid) 0xbd9-0xbd9.7 (1)
0xbd0|                              00               |          .     |      [2]: 0 ut_local_indicator (valid) 0xbda-0xbda.7 (1)
0xbd0|                                 00            |           .    |      [3]: 0 ut_local_indicator (valid) 0xbdb-0xbdb.7 (1)
0xbd0|                                    00         |            .   |      [4]: 0 ut_local_indicator (valid) 0xbdc-0xbdc.7 (1)
0xbd0|                                       00      |             .  |      [5]: 0 ut_local_indicator (valid) 0xbdd-0xbdd.7 (1)
0xbd0|                                          01   |              . |      [6]: 1 ut_local_indicator (valid) 0xbde-0xbde.7 (1)
0xbd0|                                             01|               .|      [7]: 1 ut_local_indicator (valid) 0xbdf-0xbdf.7 (1)
     |                                               |                |  footer{}: 0xbe0-0xbfb.7 (28)
0xbe0|0a                                             |.               |    nl1: 10 (valid) 0xbe0-0xbe0.7 (1)
0xbe0|   43 45 54 2d 31 43 45 53 54 2c 4d 33 2e 35 2e| CET-1CEST,M3.5.|    tz_string: "CET-1CEST,M3.5.0,M10.5.0/3" 0xbe1-0xbfa.7 (26)
0xbf0|30 2c 4d 31 30 2e 35 2e 30 2f 33               |0,M10.5.0/3     |
0xbf0|                                 0a|           |           .|   |    nl2: 10 (valid) 0xbfb-0xbfb.7 (1)
