$ fq -d tzif dv Gibraltar
     |00 01 02 03 04 05 06 07 08 09 0a 0b 0c 0d 0e 0f|0123456789abcdef|.{}: Gibraltar (tzif) 0x0-0xbfc (3068)
     |                                               |                |  v1header{}: 0x0-0x2c (44)
0x000|54 5a 69 66                                    |TZif            |    magic: 0x545a6966 (valid) 0x0-0x4 (4)
0x000|            32                                 |    2           |    ver: "2" (0x32) (valid) 0x4-0x5 (1)
0x000|               00 00 00 00 00 00 00 00 00 00 00|     ...........|    reserved: raw bits 0x5-0x14 (15)
0x010|00 00 00 00                                    |....            |
0x010|            00 00 00 08                        |    ....        |    isutcnt: 8 0x14-0x18 (4)
0x010|                        00 00 00 08            |        ....    |    isstdcnt: 8 0x18-0x1c (4)
0x010|                                    00 00 00 00|            ....|    leapcnt: 0 0x1c-0x20 (4)
0x020|00 00 00 c6                                    |....            |    timecnt: 198 0x20-0x24 (4)
0x020|            00 00 00 08                        |    ....        |    typecnt: 8 0x24-0x28 (4)
0x020|                        00 00 00 1a            |        ....    |    charcnt: 26 0x28-0x2c (4)
     |                                               |                |  v1datablock{}: 0x2c-0x464 (1080)
     |                                               |                |    transition_times[0:198]: 0x2c-0x344 (792)
0x020|                                    80 00 00 00|            ....|      [0]: "1901-12-13T20:45:52Z" (-2147483648) transition_time 0x2c-0x30 (4)
0x030|9b 26 ad a0                                    |.&..            |      [1]: "1916-05-21T02:00:00Z" (-1691964000) transition_time 0x30-0x34 (4)
0x030|            9b d6 05 20                        |    ...         |      [2]: "1916-10-01T02:00:00Z" (-1680472800) transition_time 0x34-0x38 (4)
0x030|                        9c cf 30 a0            |        ..0.    |      [3]: "1917-04-08T02:00:00Z" (-1664143200) transition_time 0x38-0x3c (4)
0x030|                                    9d a4 c3 a0|            ....|      [4]: "1917-09-17T02:00:00Z" (-1650146400) transition_time 0x3c-0x40 (4)
0x040|9e 9c 9d a0                                    |....            |      [5]: "1918-03-24T02:00:00Z" (-1633903200) transition_time 0x40-0x44 (4)
0x040|            9f 97 1a a0                        |    ....        |      [6]: "1918-09-30T02:00:00Z" (-1617487200) transition_time 0x44-0x48 (4)
0x040|                        a0 85 ba 20            |        ...     |      [7]: "1919-03-30T02:00:00Z" (-1601848800) transition_time 0x48-0x4c (4)
0x040|                                    a1 76 fc a0|            .v..|      [8]: "1919-09-29T02:00:00Z" (-1586037600) transition_time 0x4c-0x50 (4)
0x050|a2 65 9c 20                                    |.e.             |      [9]: "1920-03-28T02:00:00Z" (-1570399200) transition_time 0x50-0x54 (4)
0x050|            a3 7b c8 a0                        |    .{..        |      [10]: "1920-10-25T02:00:00Z" (-1552168800) transition_time 0x54-0x58 (4)
0x050|                        a4 4e b8 a0            |        .N..    |      [11]: "1921-04-03T02:00:00Z" (-1538344800) transition_time 0x58-0x5c (4)
0x050|                                    a5 3f fb 20|            .?. |      [12]: "1921-10-03T02:00:00Z" (-1522533600) transition_time 0x5c-0x60 (4)
0x060|a6 25 60 20                                    |.%`             |      [13]: "1922-03-26T02:00:00Z" (-1507500000) transition_time 0x60-0x64 (4)
0x060|            a7 27 c6 20                        |    .'.         |      [14]: "1922-10-08T02:00:00Z" (-1490565600) transition_time 0x64-0x68 (4)
0x060|                        a8 2a 2c 20            |        .*,     |      [15]: "1923-04-22T02:00:00Z" (-1473631200) transition_time 0x68-0x6c (4)
0x060|                                    a8 eb f8 a0|            ....|      [16]: "1923-09-16T02:00:00Z" (-1460930400) transition_time 0x6c-0x70 (4)
0x070|aa 00 d3 a0                                    |....            |      [17]: "1924-04-13T02:00:00Z" (-1442786400) transition_time 0x70-0x74 (4)
0x070|            aa d5 15 20                        |    ...         |      [18]: "1924-09-21T02:00:00Z" (-1428876000) transition_time 0x74-0x78 (4)
0x070|                        ab e9 f0 20            |        ...     |      [19]: "1925-04-19T02:00:00Z" (-1410732000) transition_time 0x78-0x7c (4)
0x070|                                    ac c7 6c 20|            ..l |      [20]: "1925-10-04T02:00:00Z" (-1396216800) transition_time 0x7c-0x80 (4)
0x080|ad c9 d2 20                                    |...             |      [21]: "1926-04-18T02:00:00Z" (-1379282400) transition_time 0x80-0x84 (4)
0x080|            ae a7 4e 20                        |    ..N         |      [22]: "1926-10-03T02:00:00Z" (-1364767200) transition_time 0x84-0x88 (4)
0x080|                        af a0 79 a0            |        ..y.    |      [23]: "1927-04-10T02:00:00Z" (-1348437600) transition_time 0x88-0x8c (4)
0x080|                                    b0 87 30 20|            ..0 |      [24]: "1927-10-02T02:00:00Z" (-1333317600) transition_time 0x8c-0x90 (4)
0x090|b1 92 d0 a0                                    |....            |      [25]: "1928-04-22T02:00:00Z" (-1315778400) transition_time 0x90-0x94 (4)
0x090|            b2 70 4c a0                        |    .pL.        |      [26]: "1928-10-07T02:00:00Z" (-1301263200) transition_time 0x94-0x98 (4)
0x090|                        b3 72 b2 a0            |        .r..    |      [27]: "1929-04-21T02:00:00Z" (-1284328800) transition_time 0x98-0x9c (4)
0x090|                                    b4 50 2e a0|            .P..|      [28]: "1929-10-06T02:00:00Z" (-1269813600) transition_time 0x9c-0xa0 (4)
0x0a0|b5 49 5a 20                                    |.IZ             |      [29]: "1930-04-13T02:00:00Z" (-1253484000) transition_time 0xa0-0xa4 (4)
0x0a0|            b6 30 10 a0                        |    .0..        |      [30]: "1930-10-05T02:00:00Z" (-1238364000) transition_time 0xa4-0xa8 (4)
0x0a0|                        b7 32 76 a0            |        .2v.    |      [31]: "1931-04-19T02:00:00Z" (-1221429600) transition_time 0xa8-0xac (4)
0x0a0|                                    b8 0f f2 a0|            ....|      [32]: "1931-10-04T02:00:00Z" (-1206914400) transition_time 0xac-0xb0 (4)
0x0b0|b9 12 58 a0                                    |..X.            |      [33]: "1932-04-17T02:00:00Z" (-1189980000) transition_time 0xb0-0xb4 (4)
0x0b0|            b9 ef d4 a0                        |    ....        |      [34]: "1932-10-02T02:00:00Z" (-1175464800) transition_time 0xb4-0xb8 (4)
0x0b0|                        ba e9 00 20            |        ...     |      [35]: "1933-04-09T02:00:00Z" (-1159135200) transition_time 0xb8-0xbc (4)
0x0b0|                                    bb d8 f1 20|            ... |      [36]: "1933-10-08T02:00:00Z" (-1143410400) transition_time 0xbc-0xc0 (4)
0x0c0|bc db 57 20                                    |..W             |      [37]: "1934-04-22T02:00:00Z" (-1126476000) transition_time 0xc0-0xc4 (4)
0x0c0|            bd b8 d3 20                        |    ...         |      [38]: "1934-10-07T02:00:00Z" (-1111960800) transition_time 0xc4-0xc8 (4)
0x0c0|                        be b1 fe a0            |        ....    |      [39]: "1935-04-14T02:00:00Z" (-1095631200) transition_time 0xc8-0xcc (4)
0x0c0|                                    bf 98 b5 20|            ... |      [40]: "1935-10-06T02:00:00Z" (-1080511200) transition_time 0xcc-0xd0 (4)
0x0d0|c0 9b 1b 20                                    |...             |      [41]: "1936-04-19T02:00:00Z" (-1063576800) transition_time 0xd0-0xd4 (4)
0x0d0|            c1 78 97 20                        |    .x.         |      [42]: "1936-10-04T02:00:00Z" (-1049061600) transition_time 0xd4-0xd8 (4)
0x0d0|                        c2 7a fd 20            |        .z.     |      [43]: "1937-04-18T02:00:00Z" (-1032127200) transition_time 0xd8-0xdc (4)
0x0d0|                                    c3 58 79 20|            .Xy |      [44]: "1937-10-03T02:00:00Z" (-1017612000) transition_time 0xdc-0xe0 (4)
0x0e0|c4 51 a4 a0                                    |.Q..            |      [45]: "1938-04-10T02:00:00Z" (-1001282400) transition_time 0xe0-0xe4 (4)
0x0e0|            c5 38 5b 20                        |    .8[         |      [46]: "1938-10-02T02:00:00Z" (-986162400) transition_time 0xe4-0xe8 (4)
0x0e0|                        c6 3a c1 20            |        .:.     |      [47]: "1939-04-16T02:00:00Z" (-969228000) transition_time 0xe8-0xec (4)
0x0e0|                                    c7 58 d6 a0|            .X..|      [48]: "1939-11-19T02:00:00Z" (-950479200) transition_time 0xec-0xf0 (4)
0x0f0|c7 da 09 a0                                    |....            |      [49]: "1940-02-25T02:00:00Z" (-942012000) transition_time 0xf0-0xf4 (4)
0x0f0|            ca 16 26 90                        |    ..&.        |      [50]: "1941-05-04T01:00:00Z" (-904518000) transition_time 0xf4-0xf8 (4)
0x0f0|                        ca 97 59 90            |        ..Y.    |      [51]: "1941-08-10T01:00:00Z" (-896050800) transition_time 0xf8-0xfc (4)
0x0f0|                                    cb d1 1e 90|            ....|      [52]: "1942-04-05T01:00:00Z" (-875487600) transition_time 0xfc-0x100 (4)
0x100|cc 77 3b 90                                    |.w;.            |      [53]: "1942-08-09T01:00:00Z" (-864601200) transition_time 0x100-0x104 (4)
0x100|            cd b1 00 90                        |    ....        |      [54]: "1943-04-04T01:00:00Z" (-844038000) transition_time 0x104-0x108 (4)
0x100|                        ce 60 58 10            |        .`X.    |      [55]: "1943-08-15T01:00:00Z" (-832546800) transition_time 0x108-0x10c (4)
0x100|                                    cf 90 e2 90|            ....|      [56]: "1944-04-02T01:00:00Z" (-812588400) transition_time 0x10c-0x110 (4)
0x110|d0 6e 5e 90                                    |.n^.            |      [57]: "1944-09-17T01:00:00Z" (-798073200) transition_time 0x110-0x114 (4)
0x110|            d1 72 16 10                        |    .r..        |      [58]: "1945-04-02T01:00:00Z" (-781052400) transition_time 0x114-0x118 (4)
0x110|                        d1 fb 32 10            |        ..2.    |      [59]: "1945-07-15T01:00:00Z" (-772066800) transition_time 0x118-0x11c (4)
0x110|                                    d2 69 fe 20|            .i. |      [60]: "1945-10-07T02:00:00Z" (-764805600) transition_time 0x11c-0x120 (4)
0x120|d3 63 29 a0                                    |.c).            |      [61]: "1946-04-14T02:00:00Z" (-748476000) transition_time 0x120-0x124 (4)
0x120|            d4 49 e0 20                        |    .I.         |      [62]: "1946-10-06T02:00:00Z" (-733356000) transition_time 0x124-0x128 (4)
0x120|                        d5 1e 21 a0            |        ..!.    |      [63]: "1947-03-16T02:00:00Z" (-719445600) transition_time 0x128-0x12c (4)
0x120|                                    d5 42 fd 90|            .B..|      [64]: "1947-04-13T01:00:00Z" (-717030000) transition_time 0x12c-0x130 (4)
0x130|d5 df e0 10                                    |....            |      [65]: "1947-08-10T01:00:00Z" (-706748400) transition_time 0x130-0x134 (4)
0x130|            d6 4e ac 20                        |    .N.         |      [66]: "1947-11-02T02:00:00Z" (-699487200) transition_time 0x134-0x138 (4)
0x130|                        d6 fe 03 a0            |        ....    |      [67]: "1948-03-14T02:00:00Z" (-687996000) transition_time 0x138-0x13c (4)
0x130|                                    d8 2e 8e 20|            ... |      [68]: "1948-10-31T02:00:00Z" (-668037600) transition_time 0x13c-0x140 (4)
0x140|d8 f9 95 20                                    |...             |      [69]: "1949-04-03T02:00:00Z" (-654732000) transition_time 0x140-0x144 (4)
0x140|            da 0e 70 20                        |    ..p         |      [70]: "1949-10-30T02:00:00Z" (-636588000) transition_time 0x144-0x148 (4)
0x140|                        da eb ec 20            |        ...     |      [71]: "1950-04-16T02:00:00Z" (-622072800) transition_time 0x148-0x14c (4)
0x140|                                    db e5 17 a0|            ....|      [72]: "1950-10-22T02:00:00Z" (-605743200) transition_time 0x14c-0x150 (4)
0x150|dc cb ce 20                                    |...             |      [73]: "1951-04-15T02:00:00Z" (-590623200) transition_time 0x150-0x154 (4)
0x150|            dd c4 f9 a0                        |    ....        |      [74]: "1951-10-21T02:00:00Z" (-574293600) transition_time 0x154-0x158 (4)
0x150|                        de b4 ea a0            |        ....    |      [75]: "1952-04-20T02:00:00Z" (-558568800) transition_time 0x158-0x15c (4)
0x150|                                    df ae 16 20|            ... |      [76]: "1952-10-26T02:00:00Z" (-542239200) transition_time 0x15c-0x160 (4)
0x160|e0 94 cc a0                                    |....            |      [77]: "1953-04-19T02:00:00Z" (-527119200) transition_time 0x160-0x164 (4)
0x160|            e1 72 48 a0                        |    .rH.        |      [78]: "1953-10-04T02:00:00Z" (-512604000) transition_time 0x164-0x168 (4)
0x160|                        e2 6b 74 20            |        .kt     |      [79]: "1954-04-11T02:00:00Z" (-496274400) transition_time 0x168-0x16c (4)
0x160|                                    e3 52 2a a0|            .R*.|      [80]: "1954-10-03T02:00:00Z" (-481154400) transition_time 0x16c-0x170 (4)
0x170|e4 54 90 a0                                    |.T..            |      [81]: "1955-04-17T02:00:00Z" (-464220000) transition_time 0x170-0x174 (4)
0x170|            e5 32 0c a0                        |    .2..        |      [82]: "1955-10-02T02:00:00Z" (-449704800) transition_time 0x174-0x178 (4)
0x170|                        e6 3d ad 20            |        .=.     |      [83]: "1956-04-22T02:00:00Z" (-432165600) transition_time 0x178-0x17c (4)
0x170|                                    e7 1b 29 20|            ..) |      [84]: "1956-10-07T02:00:00Z" (-417650400) transition_time 0x17c-0x180 (4)
0x180|e8 14 54 a0                                    |..T.            |      [85]: "1957-04-14T02:00:00Z" (-401320800) transition_time 0x180-0x184 (4)
0x180|            17 03 cd 90                        |    ....        |      [86]: "1982-03-28T01:00:00Z" (386125200) transition_time 0x184-0x188 (4)
0x180|                        17 f3 be 90            |        ....    |      [87]: "1982-09-26T01:00:00Z" (401850000) transition_time 0x188-0x18c (4)
0x180|                                    18 e3 af 90|            ....|      [88]: "1983-03-27T01:00:00Z" (417574800) transition_time 0x18c-0x190 (4)
0x190|19 d3 a0 90                                    |....            |      [89]: "1983-09-25T01:00:00Z" (433299600) transition_time 0x190-0x194 (4)
0x190|            1a c3 91 90                        |    ....        |      [90]: "1984-03-25T01:00:00Z" (449024400) transition_time 0x194-0x198 (4)
0x190|                        1b bc bd 10            |        ....    |      [91]: "1984-09-30T01:00:00Z" (465354000) transition_time 0x198-0x19c (4)
0x190|                                    1c ac ae 10|            ....|      [92]: "1985-03-31T01:00:00Z" (481078800) transition_time 0x19c-0x1a0 (4)
0x1a0|1d 9c 9f 10                                    |....            |      [93]: "1985-09-29T01:00:00Z" (496803600) transition_time 0x1a0-0x1a4 (4)
0x1a0|            1e 8c 90 10                        |    ....        |      [94]: "1986-03-30T01:00:00Z" (512528400) transition_time 0x1a4-0x1a8 (4)
0x1a0|                        1f 7c 81 10            |        .|..    |      [95]: "1986-09-28T01:00:00Z" (528253200) transition_time 0x1a8-0x1ac (4)
0x1a0|                                    20 6c 72 10|             lr.|      [96]: "1987-03-29T01:00:00Z" (543978000) transition_time 0x1ac-0x1b0 (4)
0x1b0|21 5c 63 10                                    |!\c.            |      [97]: "1987-09-27T01:00:00Z" (559702800) transition_time 0x1b0-0x1b4 (4)
0x1b0|            22 4c 54 10                        |    "LT.        |      [98]: "1988-03-27T01:00:00Z" (575427600) transition_time 0x1b4-0x1b8 (4)
0x1b0|                        23 3c 45 10            |        #<E.    |      [99]: "1988-09-25T01:00:00Z" (591152400) transition_time 0x1b8-0x1bc (4)
0x1b0|                                    24 2c 36 10|            $,6.|      [100]: "1989-03-26T01:00:00Z" (606877200) transition_time 0x1bc-0x1c0 (4)
0x1c0|25 1c 27 10                                    |%.'.            |      [101]: "1989-09-24T01:00:00Z" (622602000) transition_time 0x1c0-0x1c4 (4)
0x1c0|            26 0c 18 10                        |    &...        |      [102]: "1990-03-25T01:00:00Z" (638326800) transition_time 0x1c4-0x1c8 (4)
0x1c0|                        27 05 43 90            |        '.C.    |      [103]: "1990-09-30T01:00:00Z" (654656400) transition_time 0x1c8-0x1cc (4)
0x1c0|                                    27 f5 34 90|            '.4.|      [104]: "1991-03-31T01:00:00Z" (670381200) transition_time 0x1cc-0x1d0 (4)
0x1d0|28 e5 25 90                                    |(.%.            |      [105]: "1991-09-29T01:00:00Z" (686106000) transition_time 0x1d0-0x1d4 (4)
0x1d0|            29 d5 16 90                        |    )...        |      [106]: "1992-03-29T01:00:00Z" (701830800) transition_time 0x1d4-0x1d8 (4)
0x1d0|                        2a c5 07 90            |        *...    |      [107]: "1992-09-27T01:00:00Z" (717555600) transition_time 0x1d8-0x1dc (4)
0x1d0|                                    2b b4 f8 90|            +...|      [108]: "1993-03-28T01:00:00Z" (733280400) transition_time 0x1dc-0x1e0 (4)
0x1e0|2c a4 e9 90                                    |,...            |      [109]: "1993-09-26T01:00:00Z" (749005200) transition_time 0x1e0-0x1e4 (4)
0x1e0|            2d 94 da 90                        |    -...        |      [110]: "1994-03-27T01:00:00Z" (764730000) transition_time 0x1e4-0x1e8 (4)
0x1e0|                        2e 84 cb 90            |        ....    |      [111]: "1994-09-25T01:00:00Z" (780454800) transition_time 0x1e8-0x1ec (4)
0x1e0|                                    2f 74 bc 90|            /t..|      [112]: "1995-03-26T01:00:00Z" (796179600) transition_time 0x1ec-0x1f0 (4)
0x1f0|30 64 ad 90                                    |0d..            |      [113]: "1995-09-24T01:00:00Z" (811904400) transition_time 0x1f0-0x1f4 (4)
0x1f0|            31 5d d9 10                        |    1]..        |      [114]: "1996-03-31T01:00:00Z" (828234000) transition_time 0x1f4-0x1f8 (4)
0x1f0|                        32 72 b4 10            |        2r..    |      [115]: "1996-10-27T01:00:00Z" (846378000) transition_time 0x1f8-0x1fc (4)
0x1f0|                                    33 3d bb 10|            3=..|      [116]: "1997-03-30T01:00:00Z" (859683600) transition_time 0x1fc-0x200 (4)
0x200|34 52 96 10                                    |4R..            |      [117]: "1997-10-26T01:00:00Z" (877827600) transition_time 0x200-0x204 (4)
0x200|            35 1d 9d 10                        |    5...        |      [118]: "1998-03-29T01:00:00Z" (891133200) transition_time 0x204-0x208 (4)
0x200|                        36 32 78 10            |        62x.    |      [119]: "1998-10-25T01:00:00Z" (909277200) transition_time 0x208-0x20c (4)
0x200|                                    36 fd 7f 10|            6...|      [120]: "1999-03-28T01:00:00Z" (922582800) transition_time 0x20c-0x210 (4)
0x210|38 1b 94 90                                    |8...            |      [121]: "1999-10-31T01:00:00Z" (941331600) transition_time 0x210-0x214 (4)
0x210|            38 dd 61 10                        |    8.a.        |      [122]: "2000-03-26T01:00:00Z" (954032400) transition_time 0x214-0x218 (4)
0x210|                        39 fb 76 90            |        9.v.    |      [123]: "2000-10-29T01:00:00Z" (972781200) transition_time 0x218-0x21c (4)
0x210|                                    3a bd 43 10|            :.C.|      [124]: "2001-03-25T01:00:00Z" (985482000) transition_time 0x21c-0x220 (4)
0x220|3b db 58 90                                    |;.X.            |      [125]: "2001-10-28T01:00:00Z" (1004230800) transition_time 0x220-0x224 (4)
0x220|            3c a6 5f 90                        |    <._.        |      [126]: "2002-03-31T01:00:00Z" (1017536400) transition_time 0x224-0x228 (4)
0x220|                        3d bb 3a 90            |        =.:.    |      [127]: "2002-10-27T01:00:00Z" (1035680400) transition_time 0x228-0x22c (4)
0x220|                                    3e 86 41 90|            >.A.|      [128]: "2003-03-30T01:00:00Z" (1048986000) transition_time 0x22c-0x230 (4)
0x230|3f 9b 1c 90                                    |?...            |      [129]: "2003-10-26T01:00:00Z" (1067130000) transition_time 0x230-0x234 (4)
0x230|            40 66 23 90                        |    @f#.        |      [130]: "2004-03-28T01:00:00Z" (1080435600) transition_time 0x234-0x238 (4)
0x230|                        41 84 39 10            |        A.9.    |      [131]: "2004-10-31T01:00:00Z" (1099184400) transition_time 0x238-0x23c (4)
0x230|                                    42 46 05 90|            BF..|      [132]: "2005-03-27T01:00:00Z" (1111885200) transition_time 0x23c-0x240 (4)
0x240|43 64 1b 10                                    |Cd..            |      [133]: "2005-10-30T01:00:00Z" (1130634000) transition_time 0x240-0x244 (4)
0x240|            44 25 e7 90                        |    D%..        |      [134]: "2006-03-26T01:00:00Z" (1143334800) transition_time 0x244-0x248 (4)
0x240|                        45 43 fd 10            |        EC..    |      [135]: "2006-10-29T01:00:00Z" (1162083600) transition_time 0x248-0x24c (4)
0x240|                                    46 05 c9 90|            F...|      [136]: "2007-03-25T01:00:00Z" (1174784400) transition_time 0x24c-0x250 (4)
0x250|47 23 df 10                                    |G#..            |      [137]: "2007-10-28T01:00:00Z" (1193533200) transition_time 0x250-0x254 (4)
0x250|            47 ee e6 10                        |    G...        |      [138]: "2008-03-30T01:00:00Z" (1206838800) transition_time 0x254-0x258 (4)
0x250|                        49 03 c1 10            |        I...    |      [139]: "2008-10-26T01:00:00Z" (1224982800) transition_time 0x258-0x25c (4)
0x250|                                    49 ce c8 10|            I...|      [140]: "2009-03-29T01:00:00Z" (1238288400) transition_time 0x25c-0x260 (4)
0x260|4a e3 a3 10                                    |J...            |      [141]: "2009-10-25T01:00:00Z" (1256432400) transition_time 0x260-0x264 (4)
0x260|            4b ae aa 10                        |    K...        |      [142]: "2010-03-28T01:00:00Z" (1269738000) transition_time 0x264-0x268 (4)
0x260|                        4c cc bf 90            |        L...    |      [143]: "2010-10-31T01:00:00Z" (1288486800) transition_time 0x268-0x26c (4)
0x260|                                    4d 8e 8c 10|            M...|      [144]: "2011-03-27T01:00:00Z" (1301187600) transition_time 0x26c-0x270 (4)
0x270|4e ac a1 90                                    |N...            |      [145]: "2011-10-30T01:00:00Z" (1319936400) transition_time 0x270-0x274 (4)
0x270|            4f 6e 6e 10                        |    Onn.        |      [146]: "2012-03-25T01:00:00Z" (1332637200) transition_time 0x274-0x278 (4)
0x270|                        50 8c 83 90            |        P...    |      [147]: "2012-10-28T01:00:00Z" (1351386000) transition_time 0x278-0x27c (4)
0x270|                                    51 57 8a 90|            QW..|      [148]: "2013-03-31T01:00:00Z" (1364691600) transition_time 0x27c-0x280 (4)
0x280|52 6c 65 90                                    |Rle.            |      [149]: "2013-10-27T01:00:00Z" (1382835600) transition_time 0x280-0x284 (4)
0x280|            53 37 6c 90                        |    S7l.        |      [150]: "2014-03-30T01:00:00Z" (1396141200) transition_time 0x284-0x288 (4)
0x280|                        54 4c 47 90            |        TLG.    |      [151]: "2014-10-26T01:00:00Z" (1414285200) transition_time 0x288-0x28c (4)
0x280|                                    55 17 4e 90|            U.N.|      [152]: "2015-03-29T01:00:00Z" (1427590800) transition_time 0x28c-0x290 (4)
0x290|56 2c 29 90                                    |V,).            |      [153]: "2015-10-25T01:00:00Z" (1445734800) transition_time 0x290-0x294 (4)
0x290|            56 f7 30 90                        |    V.0.        |      [154]: "2016-03-27T01:00:00Z" (1459040400) transition_time 0x294-0x298 (4)
0x290|                        58 15 46 10            |        X.F.    |      [155]: "2016-10-30T01:00:00Z" (1477789200) transition_time 0x298-0x29c (4)
0x290|                                    58 d7 12 90|            X...|      [156]: "2017-03-26T01:00:00Z" (1490490000) transition_time 0x29c-0x2a0 (4)
0x2a0|59 f5 28 10                                    |Y.(.            |      [157]: "2017-10-29T01:00:00Z" (1509238800) transition_time 0x2a0-0x2a4 (4)
0x2a0|            5a b6 f4 90                        |    Z...        |      [158]: "2018-03-25T01:00:00Z" (1521939600) transition_time 0x2a4-0x2a8 (4)
0x2a0|                        5b d5 0a 10            |        [...    |      [159]: "2018-10-28T01:00:00Z" (1540688400) transition_time 0x2a8-0x2ac (4)
0x2a0|                                    5c a0 11 10|            \...|      [160]: "2019-03-31T01:00:00Z" (1553994000) transition_time 0x2ac-0x2b0 (4)
0x2b0|5d b4 ec 10                                    |]...            |      [161]: "2019-10-27T01:00:00Z" (1572138000) transition_time 0x2b0-0x2b4 (4)
0x2b0|            5e 7f f3 10                        |    ^...        |      [162]: "2020-03-29T01:00:00Z" (1585443600) transition_time 0x2b4-0x2b8 (4)
0x2b0|                        5f 94 ce 10            |        _...    |      [163]: "2020-10-25T01:00:00Z" (1603587600) transition_time 0x2b8-0x2bc (4)
0x2b0|                                    60 5f d5 10|            `_..|      [164]: "2021-03-28T01:00:00Z" (1616893200) transition_time 0x2bc-0x2c0 (4)
0x2c0|61 7d ea 90                                    |a}..            |      [165]: "2021-10-31T01:00:00Z" (1635642000) transition_time 0x2c0-0x2c4 (4)
0x2c0|            62 3f b7 10                        |    b?..        |      [166]: "2022-03-27T01:00:00Z" (1648342800) transition_time 0x2c4-0x2c8 (4)
0x2c0|                        63 5d cc 90            |        c]..    |      [167]: "2022-10-30T01:00:00Z" (1667091600) transition_time 0x2c8-0x2cc (4)
0x2c0|                                    64 1f 99 10|            d...|      [168]: "2023-03-26T01:00:00Z" (1679792400) transition_time 0x2cc-0x2d0 (4)
0x2d0|65 3d ae 90                                    |e=..            |      [169]: "2023-10-29T01:00:00Z" (1698541200) transition_time 0x2d0-0x2d4 (4)
0x2d0|            66 08 b5 90                        |    f...        |      [170]: "2024-03-31T01:00:00Z" (1711846800) transition_time 0x2d4-0x2d8 (4)
0x2d0|                        67 1d 90 90            |        g...    |      [171]: "2024-10-27T01:00:00Z" (1729990800) transition_time 0x2d8-0x2dc (4)
0x2d0|                                    67 e8 97 90|            g...|      [172]: "2025-03-30T01:00:00Z" (1743296400) transition_time 0x2dc-0x2e0 (4)
0x2e0|68 fd 72 90                                    |h.r.            |      [173]: "2025-10-26T01:00:00Z" (1761440400) transition_time 0x2e0-0x2e4 (4)
0x2e0|            69 c8 79 90                        |    i.y.        |      [174]: "2026-03-29T01:00:00Z" (1774746000) transition_time 0x2e4-0x2e8 (4)
0x2e0|                        6a dd 54 90            |        j.T.    |      [175]: "2026-10-25T01:00:00Z" (1792890000) transition_time 0x2e8-0x2ec (4)
0x2e0|                                    6b a8 5b 90|            k.[.|      [176]: "2027-03-28T01:00:00Z" (1806195600) transition_time 0x2ec-0x2f0 (4)
0x2f0|6c c6 71 10                                    |l.q.            |      [177]: "2027-10-31T01:00:00Z" (1824944400) transition_time 0x2f0-0x2f4 (4)
0x2f0|            6d 88 3d 90                        |    m.=.        |      [178]: "2028-03-26T01:00:00Z" (1837645200) transition_time 0x2f4-0x2f8 (4)
0x2f0|                        6e a6 53 10            |        n.S.    |      [179]: "2028-10-29T01:00:00Z" (1856394000) transition_time 0x2f8-0x2fc (4)
0x2f0|                                    6f 68 1f 90|            oh..|      [180]: "2029-03-25T01:00:00Z" (1869094800) transition_time 0x2fc-0x300 (4)
0x300|70 86 35 10                                    |p.5.            |      [181]: "2029-10-28T01:00:00Z" (1887843600) transition_time 0x300-0x304 (4)
0x300|            71 51 3c 10                        |    qQ<.        |      [182]: "2030-03-31T01:00:00Z" (1901149200) transition_time 0x304-0x308 (4)
0x300|                        72 66 17 10            |        rf..    |      [183]: "2030-10-27T01:00:00Z" (1919293200) transition_time 0x308-0x30c (4)
0x300|                                    73 31 1e 10|            s1..|      [184]: "2031-03-30T01:00:00Z" (1932598800) transition_time 0x30c-0x310 (4)
0x310|74 45 f9 10                                    |tE..            |      [185]: "2031-10-26T01:00:00Z" (1950742800) transition_time 0x310-0x314 (4)
0x310|            75 11 00 10                        |    u...        |      [186]: "2032-03-28T01:00:00Z" (1964048400) transition_time 0x314-0x318 (4)
0x310|                        76 2f 15 90            |        v/..    |      [187]: "2032-10-31T01:00:00Z" (1982797200) transition_time 0x318-0x31c (4)
0x310|                                    76 f0 e2 10|            v...|      [188]: "2033-03-27T01:00:00Z" (1995498000) transition_time 0x31c-0x320 (4)
0x320|78 0e f7 90                                    |x...            |      [189]: "2033-10-30T01:00:00Z" (2014246800) transition_time 0x320-0x324 (4)
0x320|            78 d0 c4 10                        |    x...        |      [190]: "2034-03-26T01:00:00Z" (2026947600) transition_time 0x324-0x328 (4)
0x320|                        79 ee d9 90            |        y...    |      [191]: "2034-10-29T01:00:00Z" (2045696400) transition_time 0x328-0x32c (4)
0x320|                                    7a b0 a6 10|            z...|      [192]: "2035-03-25T01:00:00Z" (2058397200) transition_time 0x32c-0x330 (4)
0x330|7b ce bb 90                                    |{...            |      [193]: "2035-10-28T01:00:00Z" (2077146000) transition_time 0x330-0x334 (4)
0x330|            7c 99 c2 90                        |    |...        |      [194]: "2036-03-30T01:00:00Z" (2090451600) transition_time 0x334-0x338 (4)
0x330|                        7d ae 9d 90            |        }...    |      [195]: "2036-10-26T01:00:00Z" (2108595600) transition_time 0x338-0x33c (4)
0x330|                                    7e 79 a4 90|            ~y..|      [196]: "2037-03-29T01:00:00Z" (2121901200) transition_time 0x33c-0x340 (4)
0x340|7f 8e 7f 90                                    |....            |      [197]: "2037-10-25T01:00:00Z" (2140045200) transition_time 0x340-0x344 (4)
     |                                               |                |    transition_types[0:198]: 0x344-0x40a (198)
0x340|            04                                 |    .           |      [0]: 4 transition_type 0x344-0x345 (1)
0x340|               01                              |     .          |      [1]: 1 transition_type 0x345-0x346 (1)
0x340|                  02                           |      .         |      [2]: 2 transition_type 0x346-0x347 (1)
0x340|                     01                        |       .        |      [3]: 1 transition_type 0x347-0x348 (1)
0x340|                        02                     |        .       |      [4]: 2 transition_type 0x348-0x349 (1)
0x340|                           01                  |         .      |      [5]: 1 transition_type 0x349-0x34a (1)
0x340|                              02               |          .     |      [6]: 2 transition_type 0x34a-0x34b (1)
0x340|                                 01            |           .    |      [7]: 1 transition_type 0x34b-0x34c (1)
0x340|                                    02         |            .   |      [8]: 2 transition_type 0x34c-0x34d (1)
0x340|                                       01      |             .  |      [9]: 1 transition_type 0x34d-0x34e (1)
0x340|                                          02   |              . |      [10]: 2 transition_type 0x34e-0x34f (1)
0x340|                                             01|               .|      [11]: 1 transition_type 0x34f-0x350 (1)
0x350|02                                             |.               |      [12]: 2 transition_type 0x350-0x351 (1)
0x350|   01                                          | .              |      [13]: 1 transition_type 0x351-0x352 (1)
0x350|      02                                       |  .             |      [14]: 2 transition_type 0x352-0x353 (1)
0x350|         01                                    |   .            |      [15]: 1 transition_type 0x353-0x354 (1)
0x350|            02                                 |    .           |      [16]: 2 transition_type 0x354-0x355 (1)
0x350|               01                              |     .          |      [17]: 1 transition_type 0x355-0x356 (1)
0x350|                  02                           |      .         |      [18]: 2 transition_type 0x356-0x357 (1)
0x350|                     01                        |       .        |      [19]: 1 transition_type 0x357-0x358 (1)
0x350|                        02                     |        .       |      [20]: 2 transition_type 0x358-0x359 (1)
0x350|                           01                  |         .      |      [21]: 1 transition_type 0x359-0x35a (1)
0x350|                              02               |          .     |      [22]: 2 transition_type 0x35a-0x35b (1)
0x350|                                 01            |           .    |      [23]: 1 transition_type 0x35b-0x35c (1)
0x350|                                    02         |            .   |      [24]: 2 transition_type 0x35c-0x35d (1)
0x350|                                       01      |             .  |      [25]: 1 transition_type 0x35d-0x35e (1)
0x350|                                          02   |              . |      [26]: 2 transition_type 0x35e-0x35f (1)
0x350|                                             01|               .|      [27]: 1 transition_type 0x35f-0x360 (1)
0x360|02                                             |.               |      [28]: 2 transition_type 0x360-0x361 (1)
0x360|   01                                          | .              |      [29]: 1 transition_type 0x361-0x362 (1)
0x360|      02                                       |  .             |      [30]: 2 transition_type 0x362-0x363 (1)
0x360|         01                                    |   .            |      [31]: 1 transition_type 0x363-0x364 (1)
0x360|            02                                 |    .           |      [32]: 2 transition_type 0x364-0x365 (1)
0x360|               01                              |     .          |      [33]: 1 transition_type 0x365-0x366 (1)
0x360|                  02                           |      .         |      [34]: 2 transition_type 0x366-0x367 (1)
0x360|                     01                        |       .        |      [35]: 1 transition_type 0x367-0x368 (1)
0x360|                        02                     |        .       |      [36]: 2 transition_type 0x368-0x369 (1)
0x360|                           01                  |         .      |      [37]: 1 transition_type 0x369-0x36a (1)
0x360|                              02               |          .     |      [38]: 2 transition_type 0x36a-0x36b (1)
0x360|                                 01            |           .    |      [39]: 1 transition_type 0x36b-0x36c (1)
0x360|                                    02         |            .   |      [40]: 2 transition_type 0x36c-0x36d (1)
0x360|                                       01      |             .  |      [41]: 1 transition_type 0x36d-0x36e (1)
0x360|                                          02   |              . |      [42]: 2 transition_type 0x36e-0x36f (1)
0x360|                                             01|               .|      [43]: 1 transition_type 0x36f-0x370 (1)
0x370|02                                             |.               |      [44]: 2 transition_type 0x370-0x371 (1)
0x370|   01                                          | .              |      [45]: 1 transition_type 0x371-0x372 (1)
0x370|      02                                       |  .             |      [46]: 2 transition_type 0x372-0x373 (1)
0x370|         01                                    |   .            |      [47]: 1 transition_type 0x373-0x374 (1)
0x370|            02                                 |    .           |      [48]: 2 transition_type 0x374-0x375 (1)
0x370|               01                              |     .          |      [49]: 1 transition_type 0x375-0x376 (1)
0x370|                  03                           |      .         |      [50]: 3 transition_type 0x376-0x377 (1)
0x370|                     01                        |       .        |      [51]: 1 transition_type 0x377-0x378 (1)
0x370|                        03                     |        .       |      [52]: 3 transition_type 0x378-0x379 (1)
0x370|                           01                  |         .      |      [53]: 1 transition_type 0x379-0x37a (1)
0x370|                              03               |          .     |      [54]: 3 transition_type 0x37a-0x37b (1)
0x370|                                 01            |           .    |      [55]: 1 transition_type 0x37b-0x37c (1)
0x370|                                    03         |            .   |      [56]: 3 transition_type 0x37c-0x37d (1)
0x370|                                       01      |             .  |      [57]: 1 transition_type 0x37d-0x37e (1)
0x370|                                          03   |              . |      [58]: 3 transition_type 0x37e-0x37f (1)
0x370|                                             01|               .|      [59]: 1 transition_type 0x37f-0x380 (1)
0x380|02                                             |.               |      [60]: 2 transition_type 0x380-0x381 (1)
0x380|   01                                          | .              |      [61]: 1 transition_type 0x381-0x382 (1)
0x380|      02                                       |  .             |      [62]: 2 transition_type 0x382-0x383 (1)
0x380|         01                                    |   .            |      [63]: 1 transition_type 0x383-0x384 (1)
0x380|            03                                 |    .           |      [64]: 3 transition_type 0x384-0x385 (1)
0x380|               01                              |     .          |      [65]: 1 transition_type 0x385-0x386 (1)
0x380|                  02                           |      .         |      [66]: 2 transition_type 0x386-0x387 (1)
0x380|                     01                        |       .        |      [67]: 1 transition_type 0x387-0x388 (1)
0x380|                        02                     |        .       |      [68]: 2 transition_type 0x388-0x389 (1)
0x380|                           01                  |         .      |      [69]: 1 transition_type 0x389-0x38a (1)
0x380|                              02               |          .     |      [70]: 2 transition_type 0x38a-0x38b (1)
0x380|                                 01            |           .    |      [71]: 1 transition_type 0x38b-0x38c (1)
0x380|                                    02         |            .   |      [72]: 2 transition_type 0x38c-0x38d (1)
0x380|                                       01      |             .  |      [73]: 1 transition_type 0x38d-0x38e (1)
0x380|                                          02   |              . |      [74]: 2 transition_type 0x38e-0x38f (1)
0x380|                                             01|               .|      [75]: 1 transition_type 0x38f-0x390 (1)
0x390|02                                             |.               |      [76]: 2 transition_type 0x390-0x391 (1)
0x390|   01                                          | .              |      [77]: 1 transition_type 0x391-0x392 (1)
0x390|      02                                       |  .             |      [78]: 2 transition_type 0x392-0x393 (1)
0x390|         01                                    |   .            |      [79]: 1 transition_type 0x393-0x394 (1)
0x390|            02                                 |    .           |      [80]: 2 transition_type 0x394-0x395 (1)
0x390|               01                              |     .          |      [81]: 1 transition_type 0x395-0x396 (1)
0x390|                  02                           |      .         |      [82]: 2 transition_type 0x396-0x397 (1)
0x390|                     01                        |       .        |      [83]: 1 transition_type 0x397-0x398 (1)
0x390|                        02                     |        .       |      [84]: 2 transition_type 0x398-0x399 (1)
0x390|                           05                  |         .      |      [85]: 5 transition_type 0x399-0x39a (1)
0x390|                              06               |          .     |      [86]: 6 transition_type 0x39a-0x39b (1)
0x390|                                 07            |           .    |      [87]: 7 transition_type 0x39b-0x39c (1)
0x390|                                    06         |            .   |      [88]: 6 transition_type 0x39c-0x39d (1)
0x390|                                       07      |             .  |      [89]: 7 transition_type 0x39d-0x39e (1)
0x390|                                          06   |              . |      [90]: 6 transition_type 0x39e-0x39f (1)
0x390|                                             07|               .|      [91]: 7 transition_type 0x39f-0x3a0 (1)
0x3a0|06                                             |.               |      [92]: 6 transition_type 0x3a0-0x3a1 (1)
0x3a0|   07                                          | .              |      [93]: 7 transition_type 0x3a1-0x3a2 (1)
0x3a0|      06                                       |  .             |      [94]: 6 transition_type 0x3a2-0x3a3 (1)
0x3a0|         07                                    |   .            |      [95]: 7 transition_type 0x3a3-0x3a4 (1)
0x3a0|            06                                 |    .           |      [96]: 6 transition_type 0x3a4-0x3a5 (1)
0x3a0|               07                              |     .          |      [97]: 7 transition_type 0x3a5-0x3a6 (1)
0x3a0|                  06                           |      .         |      [98]: 6 transition_type 0x3a6-0x3a7 (1)
0x3a0|                     07                        |       .        |      [99]: 7 transition_type 0x3a7-0x3a8 (1)
0x3a0|                        06                     |        .       |      [100]: 6 transition_type 0x3a8-0x3a9 (1)
0x3a0|                           07                  |         .      |      [101]: 7 transition_type 0x3a9-0x3aa (1)
0x3a0|                              06               |          .     |      [102]: 6 transition_type 0x3aa-0x3ab (1)
0x3a0|                                 07            |           .    |      [103]: 7 transition_type 0x3ab-0x3ac (1)
0x3a0|                                    06         |            .   |      [104]: 6 transition_type 0x3ac-0x3ad (1)
0x3a0|                                       07      |             .  |      [105]: 7 transition_type 0x3ad-0x3ae (1)
0x3a0|                                          06   |              . |      [106]: 6 transition_type 0x3ae-0x3af (1)
0x3a0|                                             07|               .|      [107]: 7 transition_type 0x3af-0x3b0 (1)
0x3b0|06                                             |.               |      [108]: 6 transition_type 0x3b0-0x3b1 (1)
0x3b0|   07                                          | .              |      [109]: 7 transition_type 0x3b1-0x3b2 (1)
0x3b0|      06                                       |  .             |      [110]: 6 transition_type 0x3b2-0x3b3 (1)
0x3b0|         07                                    |   .            |      [111]: 7 transition_type 0x3b3-0x3b4 (1)
0x3b0|            06                                 |    .           |      [112]: 6 transition_type 0x3b4-0x3b5 (1)
0x3b0|               07                              |     .          |      [113]: 7 transition_type 0x3b5-0x3b6 (1)
0x3b0|                  06                           |      .         |      [114]: 6 transition_type 0x3b6-0x3b7 (1)
0x3b0|                     07                        |       .        |      [115]: 7 transition_type 0x3b7-0x3b8 (1)
0x3b0|                        06                     |        .       |      [116]: 6 transition_type 0x3b8-0x3b9 (1)
0x3b0|                           07                  |         .      |      [117]: 7 transition_type 0x3b9-0x3ba (1)
0x3b0|                              06               |          .     |      [118]: 6 transition_type 0x3ba-0x3bb (1)
0x3b0|                                 07            |           .    |      [119]: 7 transition_type 0x3bb-0x3bc (1)
0x3b0|                                    06         |            .   |      [120]: 6 transition_type 0x3bc-0x3bd (1)
0x3b0|                                       07      |             .  |      [121]: 7 transition_type 0x3bd-0x3be (1)
0x3b0|                                          06   |              . |      [122]: 6 transition_type 0x3be-0x3bf (1)
0x3b0|                                             07|               .|      [123]: 7 transition_type 0x3bf-0x3c0 (1)
0x3c0|06                                             |.               |      [124]: 6 transition_type 0x3c0-0x3c1 (1)
0x3c0|   07                                          | .              |      [125]: 7 transition_type 0x3c1-0x3c2 (1)
0x3c0|      06                                       |  .             |      [126]: 6 transition_type 0x3c2-0x3c3 (1)
0x3c0|         07                                    |   .            |      [127]: 7 transition_type 0x3c3-0x3c4 (1)
0x3c0|            06                                 |    .           |      [128]: 6 transition_type 0x3c4-0x3c5 (1)
0x3c0|               07                              |     .          |      [129]: 7 transition_type 0x3c5-0x3c6 (1)
0x3c0|                  06                           |      .         |      [130]: 6 transition_type 0x3c6-0x3c7 (1)
0x3c0|                     07                        |       .        |      [131]: 7 transition_type 0x3c7-0x3c8 (1)
0x3c0|                        06                     |        .       |      [132]: 6 transition_type 0x3c8-0x3c9 (1)
0x3c0|                           07                  |         .      |      [133]: 7 transition_type 0x3c9-0x3ca (1)
0x3c0|                              06               |          .     |      [134]: 6 transition_type 0x3ca-0x3cb (1)
0x3c0|                                 07            |           .    |      [135]: 7 transition_type 0x3cb-0x3cc (1)
0x3c0|                                    06         |            .   |      [136]: 6 transition_type 0x3cc-0x3cd (1)
0x3c0|                                       07      |             .  |      [137]: 7 transition_type 0x3cd-0x3ce (1)
0x3c0|                                          06   |              . |      [138]: 6 transition_type 0x3ce-0x3cf (1)
0x3c0|                                             07|               .|      [139]: 7 transition_type 0x3cf-0x3d0 (1)
0x3d0|06                                             |.               |      [140]: 6 transition_type 0x3d0-0x3d1 (1)
0x3d0|   07                                          | .              |      [141]: 7 transition_type 0x3d1-0x3d2 (1)
0x3d0|      06                                       |  .             |      [142]: 6 transition_type 0x3d2-0x3d3 (1)
0x3d0|         07                                    |   .            |      [143]: 7 transition_type 0x3d3-0x3d4 (1)
0x3d0|            06                                 |    .           |      [144]: 6 transition_type 0x3d4-0x3d5 (1)
0x3d0|               07                              |     .          |      [145]: 7 transition_type 0x3d5-0x3d6 (1)
0x3d0|                  06                           |      .         |      [146]: 6 transition_type 0x3d6-0x3d7 (1)
0x3d0|                     07                        |       .        |      [147]: 7 transition_type 0x3d7-0x3d8 (1)
0x3d0|                        06                     |        .       |      [148]: 6 transition_type 0x3d8-0x3d9 (1)
0x3d0|                           07                  |         .      |      [149]: 7 transition_type 0x3d9-0x3da (1)
0x3d0|                              06               |          .     |      [150]: 6 transition_type 0x3da-0x3db (1)
0x3d0|                                 07            |           .    |      [151]: 7 transition_type 0x3db-0x3dc (1)
0x3d0|                                    06         |            .   |      [152]: 6 transition_type 0x3dc-0x3dd (1)
0x3d0|                                       07      |             .  |      [153]: 7 transition_type 0x3dd-0x3de (1)
0x3d0|                                          06   |              . |      [154]: 6 transition_type 0x3de-0x3df (1)
0x3d0|                                             07|               .|      [155]: 7 transition_type 0x3df-0x3e0 (1)
0x3e0|06                                             |.               |      [156]: 6 transition_type 0x3e0-0x3e1 (1)
0x3e0|   07                                          | .              |      [157]: 7 transition_type 0x3e1-0x3e2 (1)
0x3e0|      06                                       |  .             |      [158]: 6 transition_type 0x3e2-0x3e3 (1)
0x3e0|         07                                    |   .            |      [159]: 7 transition_type 0x3e3-0x3e4 (1)
0x3e0|            06                                 |    .           |      [160]: 6 transition_type 0x3e4-0x3e5 (1)
0x3e0|               07                              |     .          |      [161]: 7 transition_type 0x3e5-0x3e6 (1)
0x3e0|                  06                           |      .         |      [162]: 6 transition_type 0x3e6-0x3e7 (1)
0x3e0|                     07                        |       .        |      [163]: 7 transition_type 0x3e7-0x3e8 (1)
0x3e0|                        06                     |        .       |      [164]: 6 transition_type 0x3e8-0x3e9 (1)
0x3e0|                           07                  |         .      |      [165]: 7 transition_type 0x3e9-0x3ea (1)
0x3e0|                              06               |          .     |      [166]: 6 transition_type 0x3ea-0x3eb (1)
0x3e0|                                 07            |           .    |      [167]: 7 transition_type 0x3eb-0x3ec (1)
0x3e0|                                    06         |            .   |      [168]: 6 transition_type 0x3ec-0x3ed (1)
0x3e0|                                       07      |             .  |      [169]: 7 transition_type 0x3ed-0x3ee (1)
0x3e0|                                          06   |              . |      [170]: 6 transition_type 0x3ee-0x3ef (1)
0x3e0|                                             07|               .|      [171]: 7 transition_type 0x3ef-0x3f0 (1)
0x3f0|06                                             |.               |      [172]: 6 transition_type 0x3f0-0x3f1 (1)
0x3f0|   07                                          | .              |      [173]: 7 transition_type 0x3f1-0x3f2 (1)
0x3f0|      06                                       |  .             |      [174]: 6 transition_type 0x3f2-0x3f3 (1)
0x3f0|         07                                    |   .            |      [175]: 7 transition_type 0x3f3-0x3f4 (1)
0x3f0|            06                                 |    .           |      [176]: 6 transition_type 0x3f4-0x3f5 (1)
0x3f0|               07                              |     .          |      [177]: 7 transition_type 0x3f5-0x3f6 (1)
0x3f0|                  06                           |      .         |      [178]: 6 transition_type 0x3f6-0x3f7 (1)
0x3f0|                     07                        |       .        |      [179]: 7 transition_type 0x3f7-0x3f8 (1)
0x3f0|                        06                     |        .       |      [180]: 6 transition_type 0x3f8-0x3f9 (1)
0x3f0|                           07                  |         .      |      [181]: 7 transition_type 0x3f9-0x3fa (1)
0x3f0|                              06               |          .     |      [182]: 6 transition_type 0x3fa-0x3fb (1)
0x3f0|                                 07            |           .    |      [183]: 7 transition_type 0x3fb-0x3fc (1)
0x3f0|                                    06         |            .   |      [184]: 6 transition_type 0x3fc-0x3fd (1)
0x3f0|                                       07      |             .  |      [185]: 7 transition_type 0x3fd-0x3fe (1)
0x3f0|                                          06   |              . |      [186]: 6 transition_type 0x3fe-0x3ff (1)
0x3f0|                                             07|               .|      [187]: 7 transition_type 0x3ff-0x400 (1)
0x400|06                                             |.               |      [188]: 6 transition_type 0x400-0x401 (1)
0x400|   07                                          | .              |      [189]: 7 transition_type 0x401-0x402 (1)
0x400|      06                                       |  .             |      [190]: 6 transition_type 0x402-0x403 (1)
0x400|         07                                    |   .            |      [191]: 7 transition_type 0x403-0x404 (1)
0x400|            06                                 |    .           |      [192]: 6 transition_type 0x404-0x405 (1)
0x400|               07                              |     .          |      [193]: 7 transition_type 0x405-0x406 (1)
0x400|                  06                           |      .         |      [194]: 6 transition_type 0x406-0x407 (1)
0x400|                     07                        |       .        |      [195]: 7 transition_type 0x407-0x408 (1)
0x400|                        06                     |        .       |      [196]: 6 transition_type 0x408-0x409 (1)
0x400|                           07                  |         .      |      [197]: 7 transition_type 0x409-0x40a (1)
     |                                               |                |    local_time_type_records[0:8]: 0x40a-0x43a (48)
     |                                               |                |      [0]{}: local_time_type 0x40a-0x410 (6)
0x400|                              ff ff fa fc      |          ....  |        utoff: -1284 (valid) 0x40a-0x40e (4)
0x400|                                          00   |              . |        dst: 0 (valid) 0x40e-0x40f (1)
0x400|                                             00|               .|        idx: 0 (valid) 0x40f-0x410 (1)
     |                                               |                |      [1]{}: local_time_type 0x410-0x416 (6)
0x410|00 00 0e 10                                    |....            |        utoff: 3600 (valid) 0x410-0x414 (4)
0x410|            01                                 |    .           |        dst: 1 (valid) 0x414-0x415 (1)
0x410|               04                              |     .          |        idx: 4 (valid) 0x415-0x416 (1)
     |                                               |                |      [2]{}: local_time_type 0x416-0x41c (6)
0x410|                  00 00 00 00                  |      ....      |        utoff: 0 (valid) 0x416-0x41a (4)
0x410|                              00               |          .     |        dst: 0 (valid) 0x41a-0x41b (1)
0x410|                                 08            |           .    |        idx: 8 (valid) 0x41b-0x41c (1)
     |                                               |                |      [3]{}: local_time_type 0x41c-0x422 (6)
0x410|                                    00 00 1c 20|            ... |        utoff: 7200 (valid) 0x41c-0x420 (4)
0x420|01                                             |.               |        dst: 1 (valid) 0x420-0x421 (1)
0x420|   0c                                          | .              |        idx: 12 (valid) 0x421-0x422 (1)
     |                                               |                |      [4]{}: local_time_type 0x422-0x428 (6)
0x420|      00 00 00 00                              |  ....          |        utoff: 0 (valid) 0x422-0x426 (4)
0x420|                  00                           |      .         |        dst: 0 (valid) 0x426-0x427 (1)
0x420|                     08                        |       .        |        idx: 8 (valid) 0x427-0x428 (1)
     |                                               |                |      [5]{}: local_time_type 0x428-0x42e (6)
0x420|                        00 00 0e 10            |        ....    |        utoff: 3600 (valid) 0x428-0x42c (4)
0x420|                                    00         |            .   |        dst: 0 (valid) 0x42c-0x42d (1)
0x420|                                       11      |             .  |        idx: 17 (valid) 0x42d-0x42e (1)
     |                                               |                |      [6]{}: local_time_type 0x42e-0x434 (6)
0x420|                                          00 00|              ..|        utoff: 7200 (valid) 0x42e-0x432 (4)
0x430|1c 20                                          |.               |
0x430|      01                                       |  .             |        dst: 1 (valid) 0x432-0x433 (1)
0x430|         15                                    |   .            |        idx: 21 (valid) 0x433-0x434 (1)
     |                                               |                |      [7]{}: local_time_type 0x434-0x43a (6)
0x430|            00 00 0e 10                        |    ....        |        utoff: 3600 (valid) 0x434-0x438 (4)
0x430|                        00                     |        .       |        dst: 0 (valid) 0x438-0x439 (1)
0x430|                           11                  |         .      |        idx: 17 (valid) 0x439-0x43a (1)
     |                                               |                |    time_zone_designations[0:6]: 0x43a-0x454 (26)
0x430|                              4c 4d 54 00      |          LMT.  |      [0]: "LMT" time_zone_designation 0x43a-0x43e (4)
0x430|                                          42 53|              BS|      [1]: "BST" time_zone_designation 0x43e-0x442 (4)
0x440|54 00                                          |T.              |
0x440|      47 4d 54 00                              |  GMT.          |      [2]: "GMT" time_zone_designation 0x442-0x446 (4)
0x440|                  42 44 53 54 00               |      BDST.     |      [3]: "BDST" time_zone_designation 0x446-0x44b (5)
0x440|                                 43 45 54 00   |           CET. |      [4]: "CET" time_zone_designation 0x44b-0x44f (4)
0x440|                                             43|               C|      [5]: "CEST" time_zone_designation 0x44f-0x454 (5)
0x450|45 53 54 00                                    |EST.            |
     |                                               |                |    leap_second_records[0:0]: 0x454-0x454 (0)
     |                                               |                |    standard_wall_indicators[0:8]: 0x454-0x45c (8)
0x450|            00                                 |    .           |      [0]: 0 standard_wall_indicator (valid) 0x454-0x455 (1)
0x450|               01                              |     .          |      [1]: 1 standard_wall_indicator (valid) 0x455-0x456 (1)
0x450|                  01                           |      .         |      [2]: 1 standard_wall_indicator (valid) 0x456-0x457 (1)
0x450|                     01                        |       .        |      [3]: 1 standard_wall_indicator (valid) 0x457-0x458 (1)
0x450|                        00                     |        .       |      [4]: 0 standard_wall_indicator (valid) 0x458-0x459 (1)
0x450|                           00                  |         .      |      [5]: 0 standard_wall_indicator (valid) 0x459-0x45a (1)
0x450|                              01               |          .     |      [6]: 1 standard_wall_indicator (valid) 0x45a-0x45b (1)
0x450|                                 01            |           .    |      [7]: 1 standard_wall_indicator (valid) 0x45b-0x45c (1)
     |                                               |                |    ut_local_indicators[0:8]: 0x45c-0x464 (8)
0x450|                                    00         |            .   |      [0]: 0 ut_local_indicator (valid) 0x45c-0x45d (1)
0x450|                                       00      |             .  |      [1]: 0 ut_local_indicator (valid) 0x45d-0x45e (1)
0x450|                                          00   |              . |      [2]: 0 ut_local_indicator (valid) 0x45e-0x45f (1)
0x450|                                             00|               .|      [3]: 0 ut_local_indicator (valid) 0x45f-0x460 (1)
0x460|00                                             |.               |      [4]: 0 ut_local_indicator (valid) 0x460-0x461 (1)
0x460|   00                                          | .              |      [5]: 0 ut_local_indicator (valid) 0x461-0x462 (1)
0x460|      01                                       |  .             |      [6]: 1 ut_local_indicator (valid) 0x462-0x463 (1)
0x460|         01                                    |   .            |      [7]: 1 ut_local_indicator (valid) 0x463-0x464 (1)
     |                                               |                |  v2plusheader{}: 0x464-0x490 (44)
0x460|            54 5a 69 66                        |    TZif        |    magic: 0x545a6966 (valid) 0x464-0x468 (4)
0x460|                        32                     |        2       |    ver: "2" (0x32) (valid) 0x468-0x469 (1)
0x460|                           00 00 00 00 00 00 00|         .......|    reserved: raw bits 0x469-0x478 (15)
0x470|00 00 00 00 00 00 00 00                        |........        |
0x470|                        00 00 00 08            |        ....    |    isutcnt: 8 0x478-0x47c (4)
0x470|                                    00 00 00 08|            ....|    isstdcnt: 8 0x47c-0x480 (4)
0x480|00 00 00 00                                    |....            |    leapcnt: 0 0x480-0x484 (4)
0x480|            00 00 00 c6                        |    ....        |    timecnt: 198 0x484-0x488 (4)
0x480|                        00 00 00 08            |        ....    |    typecnt: 8 0x488-0x48c (4)
0x480|                                    00 00 00 1a|            ....|    charcnt: 26 0x48c-0x490 (4)
     |                                               |                |  v2plusdatablock{}: 0x490-0xbe0 (1872)
     |                                               |                |    transition_times[0:198]: 0x490-0xac0 (1584)
0x490|ff ff ff ff 57 d1 0a 04                        |....W...        |      [0]: "1880-08-02T00:21:24Z" (-2821649916) transition_time 0x490-0x498 (8)
0x490|                        ff ff ff ff 9b 26 ad a0|        .....&..|      [1]: "1916-05-21T02:00:00Z" (-1691964000) transition_time 0x498-0x4a0 (8)
0x4a0|ff ff ff ff 9b d6 05 20                        |.......         |      [2]: "1916-10-01T02:00:00Z" (-1680472800) transition_time 0x4a0-0x4a8 (8)
0x4a0|                        ff ff ff ff 9c cf 30 a0|        ......0.|      [3]: "1917-04-08T02:00:00Z" (-1664143200) transition_time 0x4a8-0x4b0 (8)
0x4b0|ff ff ff ff 9d a4 c3 a0                        |........        |      [4]: "1917-09-17T02:00:00Z" (-1650146400) transition_time 0x4b0-0x4b8 (8)
0x4b0|                        ff ff ff ff 9e 9c 9d a0|        ........|      [5]: "1918-03-24T02:00:00Z" (-1633903200) transition_time 0x4b8-0x4c0 (8)
0x4c0|ff ff ff ff 9f 97 1a a0                        |........        |      [6]: "1918-09-30T02:00:00Z" (-1617487200) transition_time 0x4c0-0x4c8 (8)
0x4c0|                        ff ff ff ff a0 85 ba 20|        ....... |      [7]: "1919-03-30T02:00:00Z" (-1601848800) transition_time 0x4c8-0x4d0 (8)
0x4d0|ff ff ff ff a1 76 fc a0                        |.....v..        |      [8]: "1919-09-29T02:00:00Z" (-1586037600) transition_time 0x4d0-0x4d8 (8)
0x4d0|                        ff ff ff ff a2 65 9c 20|        .....e. |      [9]: "1920-03-28T02:00:00Z" (-1570399200) transition_time 0x4d8-0x4e0 (8)
0x4e0|ff ff ff ff a3 7b c8 a0                        |.....{..        |      [10]: "1920-10-25T02:00:00Z" (-1552168800) transition_time 0x4e0-0x4e8 (8)
0x4e0|                        ff ff ff ff a4 4e b8 a0|        .....N..|      [11]: "1921-04-03T02:00:00Z" (-1538344800) transition_time 0x4e8-0x4f0 (8)
0x4f0|ff ff ff ff a5 3f fb 20                        |.....?.         |      [12]: "1921-10-03T02:00:00Z" (-1522533600) transition_time 0x4f0-0x4f8 (8)
0x4f0|                        ff ff ff ff a6 25 60 20|        .....%` |      [13]: "1922-03-26T02:00:00Z" (-1507500000) transition_time 0x4f8-0x500 (8)
0x500|ff ff ff ff a7 27 c6 20                        |.....'.         |      [14]: "1922-10-08T02:00:00Z" (-1490565600) transition_time 0x500-0x508 (8)
0x500|                        ff ff ff ff a8 2a 2c 20|        .....*, |      [15]: "1923-04-22T02:00:00Z" (-1473631200) transition_time 0x508-0x510 (8)
0x510|ff ff ff ff a8 eb f8 a0                        |........        |      [16]: "1923-09-16T02:00:00Z" (-1460930400) transition_time 0x510-0x518 (8)
0x510|                        ff ff ff ff aa 00 d3 a0|        ........|      [17]: "1924-04-13T02:00:00Z" (-1442786400) transition_time 0x518-0x520 (8)
0x520|ff ff ff ff aa d5 15 20                        |.......         |      [18]: "1924-09-21T02:00:00Z" (-1428876000) transition_time 0x520-0x528 (8)
0x520|                        ff ff ff ff ab e9 f0 20|        ....... |      [19]: "1925-04-19T02:00:00Z" (-1410732000) transition_time 0x528-0x530 (8)
0x530|ff ff ff ff ac c7 6c 20                        |......l         |      [20]: "1925-10-04T02:00:00Z" (-1396216800) transition_time 0x530-0x538 (8)
0x530|                        ff ff ff ff ad c9 d2 20|        ....... |      [21]: "1926-04-18T02:00:00Z" (-1379282400) transition_time 0x538-0x540 (8)
0x540|ff ff ff ff ae a7 4e 20                        |......N         |      [22]: "1926-10-03T02:00:00Z" (-1364767200) transition_time 0x540-0x548 (8)
0x540|                        ff ff ff ff af a0 79 a0|        ......y.|      [23]: "1927-04-10T02:00:00Z" (-1348437600) transition_time 0x548-0x550 (8)
0x550|ff ff ff ff b0 87 30 20                        |......0         |      [24]: "1927-10-02T02:00:00Z" (-1333317600) transition_time 0x550-0x558 (8)
0x550|                        ff ff ff ff b1 92 d0 a0|        ........|      [25]: "1928-04-22T02:00:00Z" (-1315778400) transition_time 0x558-0x560 (8)
0x560|ff ff ff ff b2 70 4c a0                        |.....pL.        |      [26]: "1928-10-07T02:00:00Z" (-1301263200) transition_time 0x560-0x568 (8)
0x560|                        ff ff ff ff b3 72 b2 a0|        .....r..|      [27]: "1929-04-21T02:00:00Z" (-1284328800) transition_time 0x568-0x570 (8)
0x570|ff ff ff ff b4 50 2e a0                        |.....P..        |      [28]: "1929-10-06T02:00:00Z" (-1269813600) transition_time 0x570-0x578 (8)
0x570|                        ff ff ff ff b5 49 5a 20|        .....IZ |      [29]: "1930-04-13T02:00:00Z" (-1253484000) transition_time 0x578-0x580 (8)
0x580|ff ff ff ff b6 30 10 a0                        |.....0..        |      [30]: "1930-10-05T02:00:00Z" (-1238364000) transition_time 0x580-0x588 (8)
0x580|                        ff ff ff ff b7 32 76 a0|        .....2v.|      [31]: "1931-04-19T02:00:00Z" (-1221429600) transition_time 0x588-0x590 (8)
0x590|ff ff ff ff b8 0f f2 a0                        |........        |      [32]: "1931-10-04T02:00:00Z" (-1206914400) transition_time 0x590-0x598 (8)
0x590|                        ff ff ff ff b9 12 58 a0|        ......X.|      [33]: "1932-04-17T02:00:00Z" (-1189980000) transition_time 0x598-0x5a0 (8)
0x5a0|ff ff ff ff b9 ef d4 a0                        |........        |      [34]: "1932-10-02T02:00:00Z" (-1175464800) transition_time 0x5a0-0x5a8 (8)
0x5a0|                        ff ff ff ff ba e9 00 20|        ....... |      [35]: "1933-04-09T02:00:00Z" (-1159135200) transition_time 0x5a8-0x5b0 (8)
0x5b0|ff ff ff ff bb d8 f1 20                        |.......         |      [36]: "1933-10-08T02:00:00Z" (-1143410400) transition_time 0x5b0-0x5b8 (8)
0x5b0|                        ff ff ff ff bc db 57 20|        ......W |      [37]: "1934-04-22T02:00:00Z" (-1126476000) transition_time 0x5b8-0x5c0 (8)
0x5c0|ff ff ff ff bd b8 d3 20                        |.......         |      [38]: "1934-10-07T02:00:00Z" (-1111960800) transition_time 0x5c0-0x5c8 (8)
0x5c0|                        ff ff ff ff be b1 fe a0|        ........|      [39]: "1935-04-14T02:00:00Z" (-1095631200) transition_time 0x5c8-0x5d0 (8)
0x5d0|ff ff ff ff bf 98 b5 20                        |.......         |      [40]: "1935-10-06T02:00:00Z" (-1080511200) transition_time 0x5d0-0x5d8 (8)
0x5d0|                        ff ff ff ff c0 9b 1b 20|        ....... |      [41]: "1936-04-19T02:00:00Z" (-1063576800) transition_time 0x5d8-0x5e0 (8)
0x5e0|ff ff ff ff c1 78 97 20                        |.....x.         |      [42]: "1936-10-04T02:00:00Z" (-1049061600) transition_time 0x5e0-0x5e8 (8)
0x5e0|                        ff ff ff ff c2 7a fd 20|        .....z. |      [43]: "1937-04-18T02:00:00Z" (-1032127200) transition_time 0x5e8-0x5f0 (8)
0x5f0|ff ff ff ff c3 58 79 20                        |.....Xy         |      [44]: "1937-10-03T02:00:00Z" (-1017612000) transition_time 0x5f0-0x5f8 (8)
0x5f0|                        ff ff ff ff c4 51 a4 a0|        .....Q..|      [45]: "1938-04-10T02:00:00Z" (-1001282400) transition_time 0x5f8-0x600 (8)
0x600|ff ff ff ff c5 38 5b 20                        |.....8[         |      [46]: "1938-10-02T02:00:00Z" (-986162400) transition_time 0x600-0x608 (8)
0x600|                        ff ff ff ff c6 3a c1 20|        .....:. |      [47]: "1939-04-16T02:00:00Z" (-969228000) transition_time 0x608-0x610 (8)
0x610|ff ff ff ff c7 58 d6 a0                        |.....X..        |      [48]: "1939-11-19T02:00:00Z" (-950479200) transition_time 0x610-0x618 (8)
0x610|                        ff ff ff ff c7 da 09 a0|        ........|      [49]: "1940-02-25T02:00:00Z" (-942012000) transition_time 0x618-0x620 (8)
0x620|ff ff ff ff ca 16 26 90                        |......&.        |      [50]: "1941-05-04T01:00:00Z" (-904518000) transition_time 0x620-0x628 (8)
0x620|                        ff ff ff ff ca 97 59 90|        ......Y.|      [51]: "1941-08-10T01:00:00Z" (-896050800) transition_time 0x628-0x630 (8)
0x630|ff ff ff ff cb d1 1e 90                        |........        |      [52]: "1942-04-05T01:00:00Z" (-875487600) transition_time 0x630-0x638 (8)
0x630|                        ff ff ff ff cc 77 3b 90|        .....w;.|      [53]: "1942-08-09T01:00:00Z" (-864601200) transition_time 0x638-0x640 (8)
0x640|ff ff ff ff cd b1 00 90                        |........        |      [54]: "1943-04-04T01:00:00Z" (-844038000) transition_time 0x640-0x648 (8)
0x640|                        ff ff ff ff ce 60 58 10|        .....`X.|      [55]: "1943-08-15T01:00:00Z" (-832546800) transition_time 0x648-0x650 (8)
0x650|ff ff ff ff cf 90 e2 90                        |........        |      [56]: "1944-04-02T01:00:00Z" (-812588400) transition_time 0x650-0x658 (8)
0x650|                        ff ff ff ff d0 6e 5e 90|        .....n^.|      [57]: "1944-09-17T01:00:00Z" (-798073200) transition_time 0x658-0x660 (8)
0x660|ff ff ff ff d1 72 16 10                        |.....r..        |      [58]: "1945-04-02T01:00:00Z" (-781052400) transition_time 0x660-0x668 (8)
0x660|                        ff ff ff ff d1 fb 32 10|        ......2.|      [59]: "1945-07-15T01:00:00Z" (-772066800) transition_time 0x668-0x670 (8)
0x670|ff ff ff ff d2 69 fe 20                        |.....i.         |      [60]: "1945-10-07T02:00:00Z" (-764805600) transition_time 0x670-0x678 (8)
0x670|                        ff ff ff ff d3 63 29 a0|        .....c).|      [61]: "1946-04-14T02:00:00Z" (-748476000) transition_time 0x678-0x680 (8)
0x680|ff ff ff ff d4 49 e0 20                        |.....I.         |      [62]: "1946-10-06T02:00:00Z" (-733356000) transition_time 0x680-0x688 (8)
0x680|                        ff ff ff ff d5 1e 21 a0|        ......!.|      [63]: "1947-03-16T02:00:00Z" (-719445600) transition_time 0x688-0x690 (8)
0x690|ff ff ff ff d5 42 fd 90                        |.....B..        |      [64]: "1947-04-13T01:00:00Z" (-717030000) transition_time 0x690-0x698 (8)
0x690|                        ff ff ff ff d5 df e0 10|        ........|      [65]: "1947-08-10T01:00:00Z" (-706748400) transition_time 0x698-0x6a0 (8)
0x6a0|ff ff ff ff d6 4e ac 20                        |.....N.         |      [66]: "1947-11-02T02:00:00Z" (-699487200) transition_time 0x6a0-0x6a8 (8)
0x6a0|                        ff ff ff ff d6 fe 03 a0|        ........|      [67]: "1948-03-14T02:00:00Z" (-687996000) transition_time 0x6a8-0x6b0 (8)
0x6b0|ff ff ff ff d8 2e 8e 20                        |.......         |      [68]: "1948-10-31T02:00:00Z" (-668037600) transition_time 0x6b0-0x6b8 (8)
0x6b0|                        ff ff ff ff d8 f9 95 20|        ....... |      [69]: "1949-04-03T02:00:00Z" (-654732000) transition_time 0x6b8-0x6c0 (8)
0x6c0|ff ff ff ff da 0e 70 20                        |......p         |      [70]: "1949-10-30T02:00:00Z" (-636588000) transition_time 0x6c0-0x6c8 (8)
0x6c0|                        ff ff ff ff da eb ec 20|        ....... |      [71]: "1950-04-16T02:00:00Z" (-622072800) transition_time 0x6c8-0x6d0 (8)
0x6d0|ff ff ff ff db e5 17 a0                        |........        |      [72]: "1950-10-22T02:00:00Z" (-605743200) transition_time 0x6d0-0x6d8 (8)
0x6d0|                        ff ff ff ff dc cb ce 20|        ....... |      [73]: "1951-04-15T02:00:00Z" (-590623200) transition_time 0x6d8-0x6e0 (8)
0x6e0|ff ff ff ff dd c4 f9 a0                        |........        |      [74]: "1951-10-21T02:00:00Z" (-574293600) transition_time 0x6e0-0x6e8 (8)
0x6e0|                        ff ff ff ff de b4 ea a0|        ........|      [75]: "1952-04-20T02:00:00Z" (-558568800) transition_time 0x6e8-0x6f0 (8)
0x6f0|ff ff ff ff df ae 16 20                        |.......         |      [76]: "1952-10-26T02:00:00Z" (-542239200) transition_time 0x6f0-0x6f8 (8)
0x6f0|                        ff ff ff ff e0 94 cc a0|        ........|      [77]: "1953-04-19T02:00:00Z" (-527119200) transition_time 0x6f8-0x700 (8)
0x700|ff ff ff ff e1 72 48 a0                        |.....rH.        |      [78]: "1953-10-04T02:00:00Z" (-512604000) transition_time 0x700-0x708 (8)
0x700|                        ff ff ff ff e2 6b 74 20|        .....kt |      [79]: "1954-04-11T02:00:00Z" (-496274400) transition_time 0x708-0x710 (8)
0x710|ff ff ff ff e3 52 2a a0                        |.....R*.        |      [80]: "1954-10-03T02:00:00Z" (-481154400) transition_time 0x710-0x718 (8)
0x710|                        ff ff ff ff e4 54 90 a0|        .....T..|      [81]: "1955-04-17T02:00:00Z" (-464220000) transition_time 0x718-0x720 (8)
0x720|ff ff ff ff e5 32 0c a0                        |.....2..        |      [82]: "1955-10-02T02:00:00Z" (-449704800) transition_time 0x720-0x728 (8)
0x720|                        ff ff ff ff e6 3d ad 20|        .....=. |      [83]: "1956-04-22T02:00:00Z" (-432165600) transition_time 0x728-0x730 (8)
0x730|ff ff ff ff e7 1b 29 20                        |......)         |      [84]: "1956-10-07T02:00:00Z" (-417650400) transition_time 0x730-0x738 (8)
0x730|                        ff ff ff ff e8 14 54 a0|        ......T.|      [85]: "1957-04-14T02:00:00Z" (-401320800) transition_time 0x738-0x740 (8)
0x740|00 00 00 00 17 03 cd 90                        |........        |      [86]: "1982-03-28T01:00:00Z" (386125200) transition_time 0x740-0x748 (8)
0x740|                        00 00 00 00 17 f3 be 90|        ........|      [87]: "1982-09-26T01:00:00Z" (401850000) transition_time 0x748-0x750 (8)
0x750|00 00 00 00 18 e3 af 90                        |........        |      [88]: "1983-03-27T01:00:00Z" (417574800) transition_time 0x750-0x758 (8)
0x750|                        00 00 00 00 19 d3 a0 90|        ........|      [89]: "1983-09-25T01:00:00Z" (433299600) transition_time 0x758-0x760 (8)
0x760|00 00 00 00 1a c3 91 90                        |........        |      [90]: "1984-03-25T01:00:00Z" (449024400) transition_time 0x760-0x768 (8)
0x760|                        00 00 00 00 1b bc bd 10|        ........|      [91]: "1984-09-30T01:00:00Z" (465354000) transition_time 0x768-0x770 (8)
0x770|00 00 00 00 1c ac ae 10                        |........        |      [92]: "1985-03-31T01:00:00Z" (481078800) transition_time 0x770-0x778 (8)
0x770|                        00 00 00 00 1d 9c 9f 10|        ........|      [93]: "1985-09-29T01:00:00Z" (496803600) transition_time 0x778-0x780 (8)
0x780|00 00 00 00 1e 8c 90 10                        |........        |      [94]: "1986-03-30T01:00:00Z" (512528400) transition_time 0x780-0x788 (8)
0x780|                        00 00 00 00 1f 7c 81 10|        .....|..|      [95]: "1986-09-28T01:00:00Z" (528253200) transition_time 0x788-0x790 (8)
0x790|00 00 00 00 20 6c 72 10                        |.... lr.        |      [96]: "1987-03-29T01:00:00Z" (543978000) transition_time 0x790-0x798 (8)
0x790|                        00 00 00 00 21 5c 63 10|        ....!\c.|      [97]: "1987-09-27T01:00:00Z" (559702800) transition_time 0x798-0x7a0 (8)
0x7a0|00 00 00 00 22 4c 54 10                        |...."LT.        |      [98]: "1988-03-27T01:00:00Z" (575427600) transition_time 0x7a0-0x7a8 (8)
0x7a0|                        00 00 00 00 23 3c 45 10|        ....#<E.|      [99]: "1988-09-25T01:00:00Z" (591152400) transition_time 0x7a8-0x7b0 (8)
0x7b0|00 00 00 00 24 2c 36 10                        |....$,6.        |      [100]: "1989-03-26T01:00:00Z" (606877200) transition_time 0x7b0-0x7b8 (8)
0x7b0|                        00 00 00 00 25 1c 27 10|        ....%.'.|      [101]: "1989-09-24T01:00:00Z" (622602000) transition_time 0x7b8-0x7c0 (8)
0x7c0|00 00 00 00 26 0c 18 10                        |....&...        |      [102]: "1990-03-25T01:00:00Z" (638326800) transition_time 0x7c0-0x7c8 (8)
0x7c0|                        00 00 00 00 27 05 43 90|        ....'.C.|      [103]: "1990-09-30T01:00:00Z" (654656400) transition_time 0x7c8-0x7d0 (8)
0x7d0|00 00 00 00 27 f5 34 90                        |....'.4.        |      [104]: "1991-03-31T01:00:00Z" (670381200) transition_time 0x7d0-0x7d8 (8)
0x7d0|                        00 00 00 00 28 e5 25 90|        ....(.%.|      [105]: "1991-09-29T01:00:00Z" (686106000) transition_time 0x7d8-0x7e0 (8)
0x7e0|00 00 00 00 29 d5 16 90                        |....)...        |      [106]: "1992-03-29T01:00:00Z" (701830800) transition_time 0x7e0-0x7e8 (8)
0x7e0|                        00 00 00 00 2a c5 07 90|        ....*...|      [107]: "1992-09-27T01:00:00Z" (717555600) transition_time 0x7e8-0x7f0 (8)
0x7f0|00 00 00 00 2b b4 f8 90                        |....+...        |      [108]: "1993-03-28T01:00:00Z" (733280400) transition_time 0x7f0-0x7f8 (8)
0x7f0|                        00 00 00 00 2c a4 e9 90|        ....,...|      [109]: "1993-09-26T01:00:00Z" (749005200) transition_time 0x7f8-0x800 (8)
0x800|00 00 00 00 2d 94 da 90                        |....-...        |      [110]: "1994-03-27T01:00:00Z" (764730000) transition_time 0x800-0x808 (8)
0x800|                        00 00 00 00 2e 84 cb 90|        ........|      [111]: "1994-09-25T01:00:00Z" (780454800) transition_time 0x808-0x810 (8)
0x810|00 00 00 00 2f 74 bc 90                        |..../t..        |      [112]: "1995-03-26T01:00:00Z" (796179600) transition_time 0x810-0x818 (8)
0x810|                        00 00 00 00 30 64 ad 90|        ....0d..|      [113]: "1995-09-24T01:00:00Z" (811904400) transition_time 0x818-0x820 (8)
0x820|00 00 00 00 31 5d d9 10                        |....1]..        |      [114]: "1996-03-31T01:00:00Z" (828234000) transition_time 0x820-0x828 (8)
0x820|                        00 00 00 00 32 72 b4 10|        ....2r..|      [115]: "1996-10-27T01:00:00Z" (846378000) transition_time 0x828-0x830 (8)
0x830|00 00 00 00 33 3d bb 10                        |....3=..        |      [116]: "1997-03-30T01:00:00Z" (859683600) transition_time 0x830-0x838 (8)
0x830|                        00 00 00 00 34 52 96 10|        ....4R..|      [117]: "1997-10-26T01:00:00Z" (877827600) transition_time 0x838-0x840 (8)
0x840|00 00 00 00 35 1d 9d 10                        |....5...        |      [118]: "1998-03-29T01:00:00Z" (891133200) transition_time 0x840-0x848 (8)
0x840|                        00 00 00 00 36 32 78 10|        ....62x.|      [119]: "1998-10-25T01:00:00Z" (909277200) transition_time 0x848-0x850 (8)
0x850|00 00 00 00 36 fd 7f 10                        |....6...        |      [120]: "1999-03-28T01:00:00Z" (922582800) transition_time 0x850-0x858 (8)
0x850|                        00 00 00 00 38 1b 94 90|        ....8...|      [121]: "1999-10-31T01:00:00Z" (941331600) transition_time 0x858-0x860 (8)
0x860|00 00 00 00 38 dd 61 10                        |....8.a.        |      [122]: "2000-03-26T01:00:00Z" (954032400) transition_time 0x860-0x868 (8)
0x860|                        00 00 00 00 39 fb 76 90|        ....9.v.|      [123]: "2000-10-29T01:00:00Z" (972781200) transition_time 0x868-0x870 (8)
0x870|00 00 00 00 3a bd 43 10                        |....:.C.        |      [124]: "2001-03-25T01:00:00Z" (985482000) transition_time 0x870-0x878 (8)
0x870|                        00 00 00 00 3b db 58 90|        ....;.X.|      [125]: "2001-10-28T01:00:00Z" (1004230800) transition_time 0x878-0x880 (8)
0x880|00 00 00 00 3c a6 5f 90                        |....<._.        |      [126]: "2002-03-31T01:00:00Z" (1017536400) transition_time 0x880-0x888 (8)
0x880|                        00 00 00 00 3d bb 3a 90|        ....=.:.|      [127]: "2002-10-27T01:00:00Z" (1035680400) transition_time 0x888-0x890 (8)
0x890|00 00 00 00 3e 86 41 90                        |....>.A.        |      [128]: "2003-03-30T01:00:00Z" (1048986000) transition_time 0x890-0x898 (8)
0x890|                        00 00 00 00 3f 9b 1c 90|        ....?...|      [129]: "2003-10-26T01:00:00Z" (1067130000) transition_time 0x898-0x8a0 (8)
0x8a0|00 00 00 00 40 66 23 90                        |....@f#.        |      [130]: "2004-03-28T01:00:00Z" (1080435600) transition_time 0x8a0-0x8a8 (8)
0x8a0|                        00 00 00 00 41 84 39 10|        ....A.9.|      [131]: "2004-10-31T01:00:00Z" (1099184400) transition_time 0x8a8-0x8b0 (8)
0x8b0|00 00 00 00 42 46 05 90                        |....BF..        |      [132]: "2005-03-27T01:00:00Z" (1111885200) transition_time 0x8b0-0x8b8 (8)
0x8b0|                        00 00 00 00 43 64 1b 10|        ....Cd..|      [133]: "2005-10-30T01:00:00Z" (1130634000) transition_time 0x8b8-0x8c0 (8)
0x8c0|00 00 00 00 44 25 e7 90                        |....D%..        |      [134]: "2006-03-26T01:00:00Z" (1143334800) transition_time 0x8c0-0x8c8 (8)
0x8c0|                        00 00 00 00 45 43 fd 10|        ....EC..|      [135]: "2006-10-29T01:00:00Z" (1162083600) transition_time 0x8c8-0x8d0 (8)
0x8d0|00 00 00 00 46 05 c9 90                        |....F...        |      [136]: "2007-03-25T01:00:00Z" (1174784400) transition_time 0x8d0-0x8d8 (8)
0x8d0|                        00 00 00 00 47 23 df 10|        ....G#..|      [137]: "2007-10-28T01:00:00Z" (1193533200) transition_time 0x8d8-0x8e0 (8)
0x8e0|00 00 00 00 47 ee e6 10                        |....G...        |      [138]: "2008-03-30T01:00:00Z" (1206838800) transition_time 0x8e0-0x8e8 (8)
0x8e0|                        00 00 00 00 49 03 c1 10|        ....I...|      [139]: "2008-10-26T01:00:00Z" (1224982800) transition_time 0x8e8-0x8f0 (8)
0x8f0|00 00 00 00 49 ce c8 10                        |....I...        |      [140]: "2009-03-29T01:00:00Z" (1238288400) transition_time 0x8f0-0x8f8 (8)
0x8f0|                        00 00 00 00 4a e3 a3 10|        ....J...|      [141]: "2009-10-25T01:00:00Z" (1256432400) transition_time 0x8f8-0x900 (8)
0x900|00 00 00 00 4b ae aa 10                        |....K...        |      [142]: "2010-03-28T01:00:00Z" (1269738000) transition_time 0x900-0x908 (8)
0x900|                        00 00 00 00 4c cc bf 90|        ....L...|      [143]: "2010-10-31T01:00:00Z" (1288486800) transition_time 0x908-0x910 (8)
0x910|00 00 00 00 4d 8e 8c 10                        |....M...        |      [144]: "2011-03-27T01:00:00Z" (1301187600) transition_time 0x910-0x918 (8)
0x910|                        00 00 00 00 4e ac a1 90|        ....N...|      [145]: "2011-10-30T01:00:00Z" (1319936400) transition_time 0x918-0x920 (8)
0x920|00 00 00 00 4f 6e 6e 10                        |....Onn.        |      [146]: "2012-03-25T01:00:00Z" (1332637200) transition_time 0x920-0x928 (8)
0x920|                        00 00 00 00 50 8c 83 90|        ....P...|      [147]: "2012-10-28T01:00:00Z" (1351386000) transition_time 0x928-0x930 (8)
0x930|00 00 00 00 51 57 8a 90                        |....QW..        |      [148]: "2013-03-31T01:00:00Z" (1364691600) transition_time 0x930-0x938 (8)
0x930|                        00 00 00 00 52 6c 65 90|        ....Rle.|      [149]: "2013-10-27T01:00:00Z" (1382835600) transition_time 0x938-0x940 (8)
0x940|00 00 00 00 53 37 6c 90                        |....S7l.        |      [150]: "2014-03-30T01:00:00Z" (1396141200) transition_time 0x940-0x948 (8)
0x940|                        00 00 00 00 54 4c 47 90|        ....TLG.|      [151]: "2014-10-26T01:00:00Z" (1414285200) transition_time 0x948-0x950 (8)
0x950|00 00 00 00 55 17 4e 90                        |....U.N.        |      [152]: "2015-03-29T01:00:00Z" (1427590800) transition_time 0x950-0x958 (8)
0x950|                        00 00 00 00 56 2c 29 90|        ....V,).|      [153]: "2015-10-25T01:00:00Z" (1445734800) transition_time 0x958-0x960 (8)
0x960|00 00 00 00 56 f7 30 90                        |....V.0.        |      [154]: "2016-03-27T01:00:00Z" (1459040400) transition_time 0x960-0x968 (8)
0x960|                        00 00 00 00 58 15 46 10|        ....X.F.|      [155]: "2016-10-30T01:00:00Z" (1477789200) transition_time 0x968-0x970 (8)
0x970|00 00 00 00 58 d7 12 90                        |....X...        |      [156]: "2017-03-26T01:00:00Z" (1490490000) transition_time 0x970-0x978 (8)
0x970|                        00 00 00 00 59 f5 28 10|        ....Y.(.|      [157]: "2017-10-29T01:00:00Z" (1509238800) transition_time 0x978-0x980 (8)
0x980|00 00 00 00 5a b6 f4 90                        |....Z...        |      [158]: "2018-03-25T01:00:00Z" (1521939600) transition_time 0x980-0x988 (8)
0x980|                        00 00 00 00 5b d5 0a 10|        ....[...|      [159]: "2018-10-28T01:00:00Z" (1540688400) transition_time 0x988-0x990 (8)
0x990|00 00 00 00 5c a0 11 10                        |....\...        |      [160]: "2019-03-31T01:00:00Z" (1553994000) transition_time 0x990-0x998 (8)
0x990|                        00 00 00 00 5d b4 ec 10|        ....]...|      [161]: "2019-10-27T01:00:00Z" (1572138000) transition_time 0x998-0x9a0 (8)
0x9a0|00 00 00 00 5e 7f f3 10                        |....^...        |      [162]: "2020-03-29T01:00:00Z" (1585443600) transition_time 0x9a0-0x9a8 (8)
0x9a0|                        00 00 00 00 5f 94 ce 10|        ...._...|      [163]: "2020-10-25T01:00:00Z" (1603587600) transition_time 0x9a8-0x9b0 (8)
0x9b0|00 00 00 00 60 5f d5 10                        |....`_..        |      [164]: "2021-03-28T01:00:00Z" (1616893200) transition_time 0x9b0-0x9b8 (8)
0x9b0|                        00 00 00 00 61 7d ea 90|        ....a}..|      [165]: "2021-10-31T01:00:00Z" (1635642000) transition_time 0x9b8-0x9c0 (8)
0x9c0|00 00 00 00 62 3f b7 10                        |....b?..        |      [166]: "2022-03-27T01:00:00Z" (1648342800) transition_time 0x9c0-0x9c8 (8)
0x9c0|                        00 00 00 00 63 5d cc 90|        ....c]..|      [167]: "2022-10-30T01:00:00Z" (1667091600) transition_time 0x9c8-0x9d0 (8)
0x9d0|00 00 00 00 64 1f 99 10                        |....d...        |      [168]: "2023-03-26T01:00:00Z" (1679792400) transition_time 0x9d0-0x9d8 (8)
0x9d0|                        00 00 00 00 65 3d ae 90|        ....e=..|      [169]: "2023-10-29T01:00:00Z" (1698541200) transition_time 0x9d8-0x9e0 (8)
0x9e0|00 00 00 00 66 08 b5 90                        |....f...        |      [170]: "2024-03-31T01:00:00Z" (1711846800) transition_time 0x9e0-0x9e8 (8)
0x9e0|                        00 00 00 00 67 1d 90 90|        ....g...|      [171]: "2024-10-27T01:00:00Z" (1729990800) transition_time 0x9e8-0x9f0 (8)
0x9f0|00 00 00 00 67 e8 97 90                        |....g...        |      [172]: "2025-03-30T01:00:00Z" (1743296400) transition_time 0x9f0-0x9f8 (8)
0x9f0|                        00 00 00 00 68 fd 72 90|        ....h.r.|      [173]: "2025-10-26T01:00:00Z" (1761440400) transition_time 0x9f8-0xa00 (8)
0xa00|00 00 00 00 69 c8 79 90                        |....i.y.        |      [174]: "2026-03-29T01:00:00Z" (1774746000) transition_time 0xa00-0xa08 (8)
0xa00|                        00 00 00 00 6a dd 54 90|        ....j.T.|      [175]: "2026-10-25T01:00:00Z" (1792890000) transition_time 0xa08-0xa10 (8)
0xa10|00 00 00 00 6b a8 5b 90                        |....k.[.        |      [176]: "2027-03-28T01:00:00Z" (1806195600) transition_time 0xa10-0xa18 (8)
0xa10|                        00 00 00 00 6c c6 71 10|        ....l.q.|      [177]: "2027-10-31T01:00:00Z" (1824944400) transition_time 0xa18-0xa20 (8)
0xa20|00 00 00 00 6d 88 3d 90                        |....m.=.        |      [178]: "2028-03-26T01:00:00Z" (1837645200) transition_time 0xa20-0xa28 (8)
0xa20|                        00 00 00 00 6e a6 53 10|        ....n.S.|      [179]: "2028-10-29T01:00:00Z" (1856394000) transition_time 0xa28-0xa30 (8)
0xa30|00 00 00 00 6f 68 1f 90                        |....oh..        |      [180]: "2029-03-25T01:00:00Z" (1869094800) transition_time 0xa30-0xa38 (8)
0xa30|                        00 00 00 00 70 86 35 10|        ....p.5.|      [181]: "2029-10-28T01:00:00Z" (1887843600) transition_time 0xa38-0xa40 (8)
0xa40|00 00 00 00 71 51 3c 10                        |....qQ<.        |      [182]: "2030-03-31T01:00:00Z" (1901149200) transition_time 0xa40-0xa48 (8)
0xa40|                        00 00 00 00 72 66 17 10|        ....rf..|      [183]: "2030-10-27T01:00:00Z" (1919293200) transition_time 0xa48-0xa50 (8)
0xa50|00 00 00 00 73 31 1e 10                        |....s1..        |      [184]: "2031-03-30T01:00:00Z" (1932598800) transition_time 0xa50-0xa58 (8)
0xa50|                        00 00 00 00 74 45 f9 10|        ....tE..|      [185]: "2031-10-26T01:00:00Z" (1950742800) transition_time 0xa58-0xa60 (8)
0xa60|00 00 00 00 75 11 00 10                        |....u...        |      [186]: "2032-03-28T01:00:00Z" (1964048400) transition_time 0xa60-0xa68 (8)
0xa60|                        00 00 00 00 76 2f 15 90|        ....v/..|      [187]: "2032-10-31T01:00:00Z" (1982797200) transition_time 0xa68-0xa70 (8)
0xa70|00 00 00 00 76 f0 e2 10                        |....v...        |      [188]: "2033-03-27T01:00:00Z" (1995498000) transition_time 0xa70-0xa78 (8)
0xa70|                        00 00 00 00 78 0e f7 90|        ....x...|      [189]: "2033-10-30T01:00:00Z" (2014246800) transition_time 0xa78-0xa80 (8)
0xa80|00 00 00 00 78 d0 c4 10                        |....x...        |      [190]: "2034-03-26T01:00:00Z" (2026947600) transition_time 0xa80-0xa88 (8)
0xa80|                        00 00 00 00 79 ee d9 90|        ....y...|      [191]: "2034-10-29T01:00:00Z" (2045696400) transition_time 0xa88-0xa90 (8)
0xa90|00 00 00 00 7a b0 a6 10                        |....z...        |      [192]: "2035-03-25T01:00:00Z" (2058397200) transition_time 0xa90-0xa98 (8)
0xa90|                        00 00 00 00 7b ce bb 90|        ....{...|      [193]: "2035-10-28T01:00:00Z" (2077146000) transition_time 0xa98-0xaa0 (8)
0xaa0|00 00 00 00 7c 99 c2 90                        |....|...        |      [194]: "2036-03-30T01:00:00Z" (2090451600) transition_time 0xaa0-0xaa8 (8)
0xaa0|                        00 00 00 00 7d ae 9d 90|        ....}...|      [195]: "2036-10-26T01:00:00Z" (2108595600) transition_time 0xaa8-0xab0 (8)
0xab0|00 00 00 00 7e 79 a4 90                        |....~y..        |      [196]: "2037-03-29T01:00:00Z" (2121901200) transition_time 0xab0-0xab8 (8)
0xab0|                        00 00 00 00 7f 8e 7f 90|        ........|      [197]: "2037-10-25T01:00:00Z" (2140045200) transition_time 0xab8-0xac0 (8)
     |                                               |                |    transition_types[0:198]: 0xac0-0xb86 (198)
0xac0|04                                             |.               |      [0]: 4 transition_type 0xac0-0xac1 (1)
0xac0|   01                                          | .              |      [1]: 1 transition_type 0xac1-0xac2 (1)
0xac0|      02                                       |  .             |      [2]: 2 transition_type 0xac2-0xac3 (1)
0xac0|         01                                    |   .            |      [3]: 1 transition_type 0xac3-0xac4 (1)
0xac0|            02                                 |    .           |      [4]: 2 transition_type 0xac4-0xac5 (1)
0xac0|               01                              |     .          |      [5]: 1 transition_type 0xac5-0xac6 (1)
0xac0|                  02                           |      .         |      [6]: 2 transition_type 0xac6-0xac7 (1)
0xac0|                     01                        |       .        |      [7]: 1 transition_type 0xac7-0xac8 (1)
0xac0|                        02                     |        .       |      [8]: 2 transition_type 0xac8-0xac9 (1)
0xac0|                           01                  |         .      |      [9]: 1 transition_type 0xac9-0xaca (1)
0xac0|                              02               |          .     |      [10]: 2 transition_type 0xaca-0xacb (1)
0xac0|                                 01            |           .    |      [11]: 1 transition_type 0xacb-0xacc (1)
0xac0|                                    02         |            .   |      [12]: 2 transition_type 0xacc-0xacd (1)
0xac0|                                       01      |             .  |      [13]: 1 transition_type 0xacd-0xace (1)
0xac0|                                          02   |              . |      [14]: 2 transition_type 0xace-0xacf (1)
0xac0|                                             01|               .|      [15]: 1 transition_type 0xacf-0xad0 (1)
0xad0|02                                             |.               |      [16]: 2 transition_type 0xad0-0xad1 (1)
0xad0|   01                                          | .              |      [17]: 1 transition_type 0xad1-0xad2 (1)
0xad0|      02                                       |  .             |      [18]: 2 transition_type 0xad2-0xad3 (1)
0xad0|         01                                    |   .            |      [19]: 1 transition_type 0xad3-0xad4 (1)
0xad0|            02                                 |    .           |      [20]: 2 transition_type 0xad4-0xad5 (1)
0xad0|               01                              |     .          |      [21]: 1 transition_type 0xad5-0xad6 (1)
0xad0|                  02                           |      .         |      [22]: 2 transition_type 0xad6-0xad7 (1)
0xad0|                     01                        |       .        |      [23]: 1 transition_type 0xad7-0xad8 (1)
0xad0|                        02                     |        .       |      [24]: 2 transition_type 0xad8-0xad9 (1)
0xad0|                           01                  |         .      |      [25]: 1 transition_type 0xad9-0xada (1)
0xad0|                              02               |          .     |      [26]: 2 transition_type 0xada-0xadb (1)
0xad0|                                 01            |           .    |      [27]: 1 transition_type 0xadb-0xadc (1)
0xad0|                                    02         |            .   |      [28]: 2 transition_type 0xadc-0xadd (1)
0xad0|                                       01      |             .  |      [29]: 1 transition_type 0xadd-0xade (1)
0xad0|                                          02   |              . |      [30]: 2 transition_type 0xade-0xadf (1)
0xad0|                                             01|               .|      [31]: 1 transition_type 0xadf-0xae0 (1)
0xae0|02                                             |.               |      [32]: 2 transition_type 0xae0-0xae1 (1)
0xae0|   01                                          | .              |      [33]: 1 transition_type 0xae1-0xae2 (1)
0xae0|      02                                       |  .             |      [34]: 2 transition_type 0xae2-0xae3 (1)
0xae0|         01                                    |   .            |      [35]: 1 transition_type 0xae3-0xae4 (1)
0xae0|            02                                 |    .           |      [36]: 2 transition_type 0xae4-0xae5 (1)
0xae0|               01                              |     .          |      [37]: 1 transition_type 0xae5-0xae6 (1)
0xae0|                  02                           |      .         |      [38]: 2 transition_type 0xae6-0xae7 (1)
0xae0|                     01                        |       .        |      [39]: 1 transition_type 0xae7-0xae8 (1)
0xae0|                        02                     |        .       |      [40]: 2 transition_type 0xae8-0xae9 (1)
0xae0|                           01                  |         .      |      [41]: 1 transition_type 0xae9-0xaea (1)
0xae0|                              02               |          .     |      [42]: 2 transition_type 0xaea-0xaeb (1)
0xae0|                                 01            |           .    |      [43]: 1 transition_type 0xaeb-0xaec (1)
0xae0|                                    02         |            .   |      [44]: 2 transition_type 0xaec-0xaed (1)
0xae0|                                       01      |             .  |      [45]: 1 transition_type 0xaed-0xaee (1)
0xae0|                                          02   |              . |      [46]: 2 transition_type 0xaee-0xaef (1)
0xae0|                                             01|               .|      [47]: 1 transition_type 0xaef-0xaf0 (1)
0xaf0|02                                             |.               |      [48]: 2 transition_type 0xaf0-0xaf1 (1)
0xaf0|   01                                          | .              |      [49]: 1 transition_type 0xaf1-0xaf2 (1)
0xaf0|      03                                       |  .             |      [50]: 3 transition_type 0xaf2-0xaf3 (1)
0xaf0|         01                                    |   .            |      [51]: 1 transition_type 0xaf3-0xaf4 (1)
0xaf0|            03                                 |    .           |      [52]: 3 transition_type 0xaf4-0xaf5 (1)
0xaf0|               01                              |     .          |      [53]: 1 transition_type 0xaf5-0xaf6 (1)
0xaf0|                  03                           |      .         |      [54]: 3 transition_type 0xaf6-0xaf7 (1)
0xaf0|                     01                        |       .        |      [55]: 1 transition_type 0xaf7-0xaf8 (1)
0xaf0|                        03                     |        .       |      [56]: 3 transition_type 0xaf8-0xaf9 (1)
0xaf0|                           01                  |         .      |      [57]: 1 transition_type 0xaf9-0xafa (1)
0xaf0|                              03               |          .     |      [58]: 3 transition_type 0xafa-0xafb (1)
0xaf0|                                 01            |           .    |      [59]: 1 transition_type 0xafb-0xafc (1)
0xaf0|                                    02         |            .   |      [60]: 2 transition_type 0xafc-0xafd (1)
0xaf0|                                       01      |             .  |      [61]: 1 transition_type 0xafd-0xafe (1)
0xaf0|                                          02   |              . |      [62]: 2 transition_type 0xafe-0xaff (1)
0xaf0|                                             01|               .|      [63]: 1 transition_type 0xaff-0xb00 (1)
0xb00|03                                             |.               |      [64]: 3 transition_type 0xb00-0xb01 (1)
0xb00|   01                                          | .              |      [65]: 1 transition_type 0xb01-0xb02 (1)
0xb00|      02                                       |  .             |      [66]: 2 transition_type 0xb02-0xb03 (1)
0xb00|         01                                    |   .            |      [67]: 1 transition_type 0xb03-0xb04 (1)
0xb00|            02                                 |    .           |      [68]: 2 transition_type 0xb04-0xb05 (1)
0xb00|               01                              |     .          |      [69]: 1 transition_type 0xb05-0xb06 (1)
0xb00|                  02                           |      .         |      [70]: 2 transition_type 0xb06-0xb07 (1)
0xb00|                     01                        |       .        |      [71]: 1 transition_type 0xb07-0xb08 (1)
0xb00|                        02                     |        .       |      [72]: 2 transition_type 0xb08-0xb09 (1)
0xb00|                           01                  |         .      |      [73]: 1 transition_type 0xb09-0xb0a (1)
0xb00|                              02               |          .     |      [74]: 2 transition_type 0xb0a-0xb0b (1)
0xb00|                                 01            |           .    |      [75]: 1 transition_type 0xb0b-0xb0c (1)
0xb00|                                    02         |            .   |      [76]: 2 transition_type 0xb0c-0xb0d (1)
0xb00|                                       01      |             .  |      [77]: 1 transition_type 0xb0d-0xb0e (1)
0xb00|                                          02   |              . |      [78]: 2 transition_type 0xb0e-0xb0f (1)
0xb00|                                             01|               .|      [79]: 1 transition_type 0xb0f-0xb10 (1)
0xb10|02                                             |.               |      [80]: 2 transition_type 0xb10-0xb11 (1)
0xb10|   01                                          | .              |      [81]: 1 transition_type 0xb11-0xb12 (1)
0xb10|      02                                       |  .             |      [82]: 2 transition_type 0xb12-0xb13 (1)
0xb10|         01                                    |   .            |      [83]: 1 transition_type 0xb13-0xb14 (1)
0xb10|            02                                 |    .           |      [84]: 2 transition_type 0xb14-0xb15 (1)
0xb10|               05                              |     .          |      [85]: 5 transition_type 0xb15-0xb16 (1)
0xb10|                  06                           |      .         |      [86]: 6 transition_type 0xb16-0xb17 (1)
0xb10|                     07                        |       .        |      [87]: 7 transition_type 0xb17-0xb18 (1)
0xb10|                        06                     |        .       |      [88]: 6 transition_type 0xb18-0xb19 (1)
0xb10|                           07                  |         .      |      [89]: 7 transition_type 0xb19-0xb1a (1)
0xb10|                              06               |          .     |      [90]: 6 transition_type 0xb1a-0xb1b (1)
0xb10|                                 07            |           .    |      [91]: 7 transition_type 0xb1b-0xb1c (1)
0xb10|                                    06         |            .   |      [92]: 6 transition_type 0xb1c-0xb1d (1)
0xb10|                                       07      |             .  |      [93]: 7 transition_type 0xb1d-0xb1e (1)
0xb10|                                          06   |              . |      [94]: 6 transition_type 0xb1e-0xb1f (1)
0xb10|                                             07|               .|      [95]: 7 transition_type 0xb1f-0xb20 (1)
0xb20|06                                             |.               |      [96]: 6 transition_type 0xb20-0xb21 (1)
0xb20|   07                                          | .              |      [97]: 7 transition_type 0xb21-0xb22 (1)
0xb20|      06                                       |  .             |      [98]: 6 transition_type 0xb22-0xb23 (1)
0xb20|         07                                    |   .            |      [99]: 7 transition_type 0xb23-0xb24 (1)
0xb20|            06                                 |    .           |      [100]: 6 transition_type 0xb24-0xb25 (1)
0xb20|               07                              |     .          |      [101]: 7 transition_type 0xb25-0xb26 (1)
0xb20|                  06                           |      .         |      [102]: 6 transition_type 0xb26-0xb27 (1)
0xb20|                     07                        |       .        |      [103]: 7 transition_type 0xb27-0xb28 (1)
0xb20|                        06                     |        .       |      [104]: 6 transition_type 0xb28-0xb29 (1)
0xb20|                           07                  |         .      |      [105]: 7 transition_type 0xb29-0xb2a (1)
0xb20|                              06               |          .     |      [106]: 6 transition_type 0xb2a-0xb2b (1)
0xb20|                                 07            |           .    |      [107]: 7 transition_type 0xb2b-0xb2c (1)
0xb20|                                    06         |            .   |      [108]: 6 transition_type 0xb2c-0xb2d (1)
0xb20|                                       07      |             .  |      [109]: 7 transition_type 0xb2d-0xb2e (1)
0xb20|                                          06   |              . |      [110]: 6 transition_type 0xb2e-0xb2f (1)
0xb20|                                             07|               .|      [111]: 7 transition_type 0xb2f-0xb30 (1)
0xb30|06                                             |.               |      [112]: 6 transition_type 0xb30-0xb31 (1)
0xb30|   07                                          | .              |      [113]: 7 transition_type 0xb31-0xb32 (1)
0xb30|      06                                       |  .             |      [114]: 6 transition_type 0xb32-0xb33 (1)
0xb30|         07                                    |   .            |      [115]: 7 transition_type 0xb33-0xb34 (1)
0xb30|            06                                 |    .           |      [116]: 6 transition_type 0xb34-0xb35 (1)
0xb30|               07                              |     .          |      [117]: 7 transition_type 0xb35-0xb36 (1)
0xb30|                  06                           |      .         |      [118]: 6 transition_type 0xb36-0xb37 (1)
0xb30|                     07                        |       .        |      [119]: 7 transition_type 0xb37-0xb38 (1)
0xb30|                        06                     |        .       |      [120]: 6 transition_type 0xb38-0xb39 (1)
0xb30|                           07                  |         .      |      [121]: 7 transition_type 0xb39-0xb3a (1)
0xb30|                              06               |          .     |      [122]: 6 transition_type 0xb3a-0xb3b (1)
0xb30|                                 07            |           .    |      [123]: 7 transition_type 0xb3b-0xb3c (1)
0xb30|                                    06         |            .   |      [124]: 6 transition_type 0xb3c-0xb3d (1)
0xb30|                                       07      |             .  |      [125]: 7 transition_type 0xb3d-0xb3e (1)
0xb30|                                          06   |              . |      [126]: 6 transition_type 0xb3e-0xb3f (1)
0xb30|                                             07|               .|      [127]: 7 transition_type 0xb3f-0xb40 (1)
0xb40|06                                             |.               |      [128]: 6 transition_type 0xb40-0xb41 (1)
0xb40|   07                                          | .              |      [129]: 7 transition_type 0xb41-0xb42 (1)
0xb40|      06                                       |  .             |      [130]: 6 transition_type 0xb42-0xb43 (1)
0xb40|         07                                    |   .            |      [131]: 7 transition_type 0xb43-0xb44 (1)
0xb40|            06                                 |    .           |      [132]: 6 transition_type 0xb44-0xb45 (1)
0xb40|               07                              |     .          |      [133]: 7 transition_type 0xb45-0xb46 (1)
0xb40|                  06                           |      .         |      [134]: 6 transition_type 0xb46-0xb47 (1)
0xb40|                     07                        |       .        |      [135]: 7 transition_type 0xb47-0xb48 (1)
0xb40|                        06                     |        .       |      [136]: 6 transition_type 0xb48-0xb49 (1)
0xb40|                           07                  |         .      |      [137]: 7 transition_type 0xb49-0xb4a (1)
0xb40|                              06               |          .     |      [138]: 6 transition_type 0xb4a-0xb4b (1)
0xb40|                                 07            |           .    |      [139]: 7 transition_type 0xb4b-0xb4c (1)
0xb40|                                    06         |            .   |      [140]: 6 transition_type 0xb4c-0xb4d (1)
0xb40|                                       07      |             .  |      [141]: 7 transition_type 0xb4d-0xb4e (1)
0xb40|                                          06   |              . |      [142]: 6 transition_type 0xb4e-0xb4f (1)
0xb40|                                             07|               .|      [143]: 7 transition_type 0xb4f-0xb50 (1)
0xb50|06                                             |.               |      [144]: 6 transition_type 0xb50-0xb51 (1)
0xb50|   07                                          | .              |      [145]: 7 transition_type 0xb51-0xb52 (1)
0xb50|      06                                       |  .             |      [146]: 6 transition_type 0xb52-0xb53 (1)
0xb50|         07                                    |   .            |      [147]: 7 transition_type 0xb53-0xb54 (1)
0xb50|            06                                 |    .           |      [148]: 6 transition_type 0xb54-0xb55 (1)
0xb50|               07                              |     .          |      [149]: 7 transition_type 0xb55-0xb56 (1)
0xb50|                  06                           |      .         |      [150]: 6 transition_type 0xb56-0xb57 (1)
0xb50|                     07                        |       .        |      [151]: 7 transition_type 0xb57-0xb58 (1)
0xb50|                        06                     |        .       |      [152]: 6 transition_type 0xb58-0xb59 (1)
0xb50|                           07                  |         .      |      [153]: 7 transition_type 0xb59-0xb5a (1)
0xb50|                              06               |          .     |      [154]: 6 transition_type 0xb5a-0xb5b (1)
0xb50|                                 07            |           .    |      [155]: 7 transition_type 0xb5b-0xb5c (1)
0xb50|                                    06         |            .   |      [156]: 6 transition_type 0xb5c-0xb5d (1)
0xb50|                                       07      |             .  |      [157]: 7 transition_type 0xb5d-0xb5e (1)
0xb50|                                          06   |              . |      [158]: 6 transition_type 0xb5e-0xb5f (1)
0xb50|                                             07|               .|      [159]: 7 transition_type 0xb5f-0xb60 (1)
0xb60|06                                             |.               |      [160]: 6 transition_type 0xb60-0xb61 (1)
0xb60|   07                                          | .              |      [161]: 7 transition_type 0xb61-0xb62 (1)
0xb60|      06                                       |  .             |      [162]: 6 transition_type 0xb62-0xb63 (1)
0xb60|         07                                    |   .            |      [163]: 7 transition_type 0xb63-0xb64 (1)
0xb60|            06                                 |    .           |      [164]: 6 transition_type 0xb64-0xb65 (1)
0xb60|               07                              |     .          |      [165]: 7 transition_type 0xb65-0xb66 (1)
0xb60|                  06                           |      .         |      [166]: 6 transition_type 0xb66-0xb67 (1)
0xb60|                     07                        |       .        |      [167]: 7 transition_type 0xb67-0xb68 (1)
0xb60|                        06                     |        .       |      [168]: 6 transition_type 0xb68-0xb69 (1)
0xb60|                           07                  |         .      |      [169]: 7 transition_type 0xb69-0xb6a (1)
0xb60|                              06               |          .     |      [170]: 6 transition_type 0xb6a-0xb6b (1)
0xb60|                                 07            |           .    |      [171]: 7 transition_type 0xb6b-0xb6c (1)
0xb60|                                    06         |            .   |      [172]: 6 transition_type 0xb6c-0xb6d (1)
0xb60|                                       07      |             .  |      [173]: 7 transition_type 0xb6d-0xb6e (1)
0xb60|                                          06   |              . |      [174]: 6 transition_type 0xb6e-0xb6f (1)
0xb60|                                             07|               .|      [175]: 7 transition_type 0xb6f-0xb70 (1)
0xb70|06                                             |.               |      [176]: 6 transition_type 0xb70-0xb71 (1)
0xb70|   07                                          | .              |      [177]: 7 transition_type 0xb71-0xb72 (1)
0xb70|      06                                       |  .             |      [178]: 6 transition_type 0xb72-0xb73 (1)
0xb70|         07                                    |   .            |      [179]: 7 transition_type 0xb73-0xb74 (1)
0xb70|            06                                 |    .           |      [180]: 6 transition_type 0xb74-0xb75 (1)
0xb70|               07                              |     .          |      [181]: 7 transition_type 0xb75-0xb76 (1)
0xb70|                  06                           |      .         |      [182]: 6 transition_type 0xb76-0xb77 (1)
0xb70|                     07                        |       .        |      [183]: 7 transition_type 0xb77-0xb78 (1)
0xb70|                        06                     |        .       |      [184]: 6 transition_type 0xb78-0xb79 (1)
0xb70|                           07                  |         .      |      [185]: 7 transition_type 0xb79-0xb7a (1)
0xb70|                              06               |          .     |      [186]: 6 transition_type 0xb7a-0xb7b (1)
0xb70|                                 07            |           .    |      [187]: 7 transition_type 0xb7b-0xb7c (1)
0xb70|                                    06         |            .   |      [188]: 6 transition_type 0xb7c-0xb7d (1)
0xb70|                                       07      |             .  |      [189]: 7 transition_type 0xb7d-0xb7e (1)
0xb70|                                          06   |              . |      [190]: 6 transition_type 0xb7e-0xb7f (1)
0xb70|                                             07|               .|      [191]: 7 transition_type 0xb7f-0xb80 (1)
0xb80|06                                             |.               |      [192]: 6 transition_type 0xb80-0xb81 (1)
0xb80|   07                                          | .              |      [193]: 7 transition_type 0xb81-0xb82 (1)
0xb80|      06                                       |  .             |      [194]: 6 transition_type 0xb82-0xb83 (1)
0xb80|         07                                    |   .            |      [195]: 7 transition_type 0xb83-0xb84 (1)
0xb80|            06                                 |    .           |      [196]: 6 transition_type 0xb84-0xb85 (1)
0xb80|               07                              |     .          |      [197]: 7 transition_type 0xb85-0xb86 (1)
     |                                               |                |    local_time_type_records[0:8]: 0xb86-0xbb6 (48)
     |                                               |                |      [0]{}: local_time_type 0xb86-0xb8c (6)
0xb80|                  ff ff fa fc                  |      ....      |        utoff: -1284 (valid) 0xb86-0xb8a (4)
0xb80|                              00               |          .     |        dst: 0 (valid) 0xb8a-0xb8b (1)
0xb80|                                 00            |           .    |        idx: 0 (valid) 0xb8b-0xb8c (1)
     |                                               |                |      [1]{}: local_time_type 0xb8c-0xb92 (6)
0xb80|                                    00 00 0e 10|            ....|        utoff: 3600 (valid) 0xb8c-0xb90 (4)
0xb90|01                                             |.               |        dst: 1 (valid) 0xb90-0xb91 (1)
0xb90|   04                                          | .              |        idx: 4 (valid) 0xb91-0xb92 (1)
     |                                               |                |      [2]{}: local_time_type 0xb92-0xb98 (6)
0xb90|      00 00 00 00                              |  ....          |        utoff: 0 (valid) 0xb92-0xb96 (4)
0xb90|                  00                           |      .         |        dst: 0 (valid) 0xb96-0xb97 (1)
0xb90|                     08                        |       .        |        idx: 8 (valid) 0xb97-0xb98 (1)
     |                                               |                |      [3]{}: local_time_type 0xb98-0xb9e (6)
0xb90|                        00 00 1c 20            |        ...     |        utoff: 7200 (valid) 0xb98-0xb9c (4)
0xb90|                                    01         |            .   |        dst: 1 (valid) 0xb9c-0xb9d (1)
0xb90|                                       0c      |             .  |        idx: 12 (valid) 0xb9d-0xb9e (1)
     |                                               |                |      [4]{}: local_time_type 0xb9e-0xba4 (6)
0xb90|                                          00 00|              ..|        utoff: 0 (valid) 0xb9e-0xba2 (4)
0xba0|00 00                                          |..              |
0xba0|      00                                       |  .             |        dst: 0 (valid) 0xba2-0xba3 (1)
0xba0|         08                                    |   .            |        idx: 8 (valid) 0xba3-0xba4 (1)
     |                                               |                |      [5]{}: local_time_type 0xba4-0xbaa (6)
0xba0|            00 00 0e 10                        |    ....        |        utoff: 3600 (valid) 0xba4-0xba8 (4)
0xba0|                        00                     |        .       |        dst: 0 (valid) 0xba8-0xba9 (1)
0xba0|                           11                  |         .      |        idx: 17 (valid) 0xba9-0xbaa (1)
     |                                               |                |      [6]{}: local_time_type 0xbaa-0xbb0 (6)
0xba0|                              00 00 1c 20      |          ...   |        utoff: 7200 (valid) 0xbaa-0xbae (4)
0xba0|                                          01   |              . |        dst: 1 (valid) 0xbae-0xbaf (1)
0xba0|                                             15|               .|        idx: 21 (valid) 0xbaf-0xbb0 (1)
     |                                               |                |      [7]{}: local_time_type 0xbb0-0xbb6 (6)
0xbb0|00 00 0e 10                                    |....            |        utoff: 3600 (valid) 0xbb0-0xbb4 (4)
0xbb0|            00                                 |    .           |        dst: 0 (valid) 0xbb4-0xbb5 (1)
0xbb0|               11                              |     .          |        idx: 17 (valid) 0xbb5-0xbb6 (1)
     |                                               |                |    time_zone_designations[0:6]: 0xbb6-0xbd0 (26)
0xbb0|                  4c 4d 54 00                  |      LMT.      |      [0]: "LMT" time_zone_designation 0xbb6-0xbba (4)
0xbb0|                              42 53 54 00      |          BST.  |      [1]: "BST" time_zone_designation 0xbba-0xbbe (4)
0xbb0|                                          47 4d|              GM|      [2]: "GMT" time_zone_designation 0xbbe-0xbc2 (4)
0xbc0|54 00                                          |T.              |
0xbc0|      42 44 53 54 00                           |  BDST.         |      [3]: "BDST" time_zone_designation 0xbc2-0xbc7 (5)
0xbc0|                     43 45 54 00               |       CET.     |      [4]: "CET" time_zone_designation 0xbc7-0xbcb (4)
0xbc0|                                 43 45 53 54 00|           CEST.|      [5]: "CEST" time_zone_designation 0xbcb-0xbd0 (5)
     |                                               |                |    leap_second_records[0:0]: 0xbd0-0xbd0 (0)
     |                                               |                |    standard_wall_indicators[0:8]: 0xbd0-0xbd8 (8)
0xbd0|00                                             |.               |      [0]: 0 standard_wall_indicator (valid) 0xbd0-0xbd1 (1)
0xbd0|   01                                          | .              |      [1]: 1 standard_wall_indicator (valid) 0xbd1-0xbd2 (1)
0xbd0|      01                                       |  .             |      [2]: 1 standard_wall_indicator (valid) 0xbd2-0xbd3 (1)
0xbd0|         01                                    |   .            |      [3]: 1 standard_wall_indicator (valid) 0xbd3-0xbd4 (1)
0xbd0|            00                                 |    .           |      [4]: 0 standard_wall_indicator (valid) 0xbd4-0xbd5 (1)
0xbd0|               00                              |     .          |      [5]: 0 standard_wall_indicator (valid) 0xbd5-0xbd6 (1)
0xbd0|                  01                           |      .         |      [6]: 1 standard_wall_indicator (valid) 0xbd6-0xbd7 (1)
0xbd0|                     01                        |       .        |      [7]: 1 standard_wall_indicator (valid) 0xbd7-0xbd8 (1)
     |                                               |                |    ut_local_indicators[0:8]: 0xbd8-0xbe0 (8)
0xbd0|                        00                     |        .       |      [0]: 0 ut_local_indicator (valid) 0xbd8-0xbd9 (1)
0xbd0|                           00                  |         .      |      [1]: 0 ut_local_indicator (valid) 0xbd9-0xbda (1)
0xbd0|                              00               |          .     |      [2]: 0 ut_local_indicator (valid) 0xbda-0xbdb (1)
0xbd0|                                 00            |           .    |      [3]: 0 ut_local_indicator (valid) 0xbdb-0xbdc (1)
0xbd0|                                    00         |            .   |      [4]: 0 ut_local_indicator (valid) 0xbdc-0xbdd (1)
0xbd0|                                       00      |             .  |      [5]: 0 ut_local_indicator (valid) 0xbdd-0xbde (1)
0xbd0|                                          01   |              . |      [6]: 1 ut_local_indicator (valid) 0xbde-0xbdf (1)
0xbd0|                                             01|               .|      [7]: 1 ut_local_indicator (valid) 0xbdf-0xbe0 (1)
     |                                               |                |  footer{}: 0xbe0-0xbfc (28)
0xbe0|0a                                             |.               |    nl1: 10 (valid) 0xbe0-0xbe1 (1)
0xbe0|   43 45 54 2d 31 43 45 53 54 2c 4d 33 2e 35 2e| CET-1CEST,M3.5.|    tz_string: "CET-1CEST,M3.5.0,M10.5.0/3" 0xbe1-0xbfb (26)
0xbf0|30 2c 4d 31 30 2e 35 2e 30 2f 33               |0,M10.5.0/3     |
0xbf0|                                 0a|           |           .|   |    nl2: 10 (valid) 0xbfb-0xbfc (1)
