$ fq -d tzif dv Glace_Bay
     |00 01 02 03 04 05 06 07 08 09 0a 0b 0c 0d 0e 0f|0123456789abcdef|.{}: Glace_Bay (tzif) 0x0-0x90e (2318)
     |                                               |                |  v1header{}: 0x0-0x2c (44)
0x000|54 5a 69 66                                    |TZif            |    magic: 0x545a6966 (valid) 0x0-0x4 (4)
0x000|            32                                 |    2           |    ver: "2" (0x32) (valid) 0x4-0x5 (1)
0x000|               00 00 00 00 00 00 00 00 00 00 00|     ...........|    reserved: raw bits 0x5-0x14 (15)
0x010|00 00 00 00                                    |....            |
0x010|            00 00 00 05                        |    ....        |    isutcnt: 5 0x14-0x18 (4)
0x010|                        00 00 00 05            |        ....    |    isstdcnt: 5 0x18-0x1c (4)
0x010|                                    00 00 00 1b|            ....|    leapcnt: 27 0x1c-0x20 (4)
0x020|00 00 00 70                                    |...p            |    timecnt: 112 0x20-0x24 (4)
0x020|            00 00 00 05                        |    ....        |    typecnt: 5 0x24-0x28 (4)
0x020|                        00 00 00 14            |        ....    |    charcnt: 20 0x28-0x2c (4)
     |                                               |                |  v1datablock{}: 0x2c-0x370 (836)
     |                                               |                |    transition_times[0:112]: 0x2c-0x1ec (448)
0x020|                                    80 f1 a8 34|            ...4|      [0]: "1902-06-15T03:59:48Z" (-2131646412) transition_time 0x2c-0x30 (4)
0x030|9e b8 85 60                                    |...`            |      [1]: "1918-04-14T06:00:00Z" (-1632074400) transition_time 0x30-0x34 (4)
0x030|            9f ba dd 50                        |    ...P        |      [2]: "1918-10-27T05:00:00Z" (-1615143600) transition_time 0x34-0x38 (4)
0x030|                        cb 88 e2 60            |        ...`    |      [3]: "1942-02-09T06:00:00Z" (-880221600) transition_time 0x38-0x3c (4)
0x030|                                    d2 23 f4 70|            .#.p|      [4]: "1945-08-14T23:00:00Z" (-769395600) transition_time 0x3c-0x40 (4)
0x040|d2 60 ed d0                                    |.`..            |      [5]: "1945-09-30T05:00:00Z" (-765399600) transition_time 0x40-0x44 (4)
0x040|            e0 9e 3f 60                        |    ..?`        |      [6]: "1953-04-26T06:00:00Z" (-526500000) transition_time 0x44-0x48 (4)
0x040|                        e1 69 38 50            |        .i8P    |      [7]: "1953-09-27T05:00:00Z" (-513198000) transition_time 0x48-0x4c (4)
0x040|                                    04 60 ef 60|            .`.`|      [8]: "1972-04-30T06:00:00Z" (73461600) transition_time 0x4c-0x50 (4)
0x050|05 50 d2 51                                    |.P.Q            |      [9]: "1972-10-29T05:00:01Z" (89182801) transition_time 0x50-0x54 (4)
0x050|            06 40 d1 62                        |    .@.b        |      [10]: "1973-04-29T06:00:02Z" (104911202) transition_time 0x54-0x58 (4)
0x050|                        07 30 b4 52            |        .0.R    |      [11]: "1973-10-28T05:00:02Z" (120632402) transition_time 0x58-0x5c (4)
0x050|                                    08 20 b3 63|            . .c|      [12]: "1974-04-28T06:00:03Z" (136360803) transition_time 0x5c-0x60 (4)
0x060|09 10 96 53                                    |...S            |      [13]: "1974-10-27T05:00:03Z" (152082003) transition_time 0x60-0x64 (4)
0x060|            0a 00 95 64                        |    ...d        |      [14]: "1975-04-27T06:00:04Z" (167810404) transition_time 0x64-0x68 (4)
0x060|                        0a f0 78 54            |        ..xT    |      [15]: "1975-10-26T05:00:04Z" (183531604) transition_time 0x68-0x6c (4)
0x060|                                    0b e0 77 65|            ..we|      [16]: "1976-04-25T06:00:05Z" (199260005) transition_time 0x6c-0x70 (4)
0x070|0c d9 94 d5                                    |....            |      [17]: "1976-10-31T05:00:05Z" (215586005) transition_time 0x70-0x74 (4)
0x070|            0d c0 59 66                        |    ..Yf        |      [18]: "1977-04-24T06:00:06Z" (230709606) transition_time 0x74-0x78 (4)
0x070|                        0e b9 76 d6            |        ..v.    |      [19]: "1977-10-30T05:00:06Z" (247035606) transition_time 0x78-0x7c (4)
0x070|                                    0f a9 75 e7|            ..u.|      [20]: "1978-04-30T06:00:07Z" (262764007) transition_time 0x7c-0x80 (4)
0x080|10 99 58 d7                                    |..X.            |      [21]: "1978-10-29T05:00:07Z" (278485207) transition_time 0x80-0x84 (4)
0x080|            11 89 57 e8                        |    ..W.        |      [22]: "1979-04-29T06:00:08Z" (294213608) transition_time 0x84-0x88 (4)
0x080|                        12 79 3a d8            |        .y:.    |      [23]: "1979-10-28T05:00:08Z" (309934808) transition_time 0x88-0x8c (4)
0x080|                                    13 69 39 e9|            .i9.|      [24]: "1980-04-27T06:00:09Z" (325663209) transition_time 0x8c-0x90 (4)
0x090|14 59 1c d9                                    |.Y..            |      [25]: "1980-10-26T05:00:09Z" (341384409) transition_time 0x90-0x94 (4)
0x090|            15 49 1b e9                        |    .I..        |      [26]: "1981-04-26T06:00:09Z" (357112809) transition_time 0x94-0x98 (4)
0x090|                        16 38 fe da            |        .8..    |      [27]: "1981-10-25T05:00:10Z" (372834010) transition_time 0x98-0x9c (4)
0x090|                                    17 28 fd ea|            .(..|      [28]: "1982-04-25T06:00:10Z" (388562410) transition_time 0x9c-0xa0 (4)
0x0a0|18 22 1b 5b                                    |.".[            |      [29]: "1982-10-31T05:00:11Z" (404888411) transition_time 0xa0-0xa4 (4)
0x0a0|            19 08 df eb                        |    ....        |      [30]: "1983-04-24T06:00:11Z" (420012011) transition_time 0xa4-0xa8 (4)
0x0a0|                        1a 01 fd 5c            |        ...\    |      [31]: "1983-10-30T05:00:12Z" (436338012) transition_time 0xa8-0xac (4)
0x0a0|                                    1a f1 fc 6c|            ...l|      [32]: "1984-04-29T06:00:12Z" (452066412) transition_time 0xac-0xb0 (4)
0x0b0|1b e1 df 5c                                    |...\            |      [33]: "1984-10-28T05:00:12Z" (467787612) transition_time 0xb0-0xb4 (4)
0x0b0|            1c d1 de 6c                        |    ...l        |      [34]: "1985-04-28T06:00:12Z" (483516012) transition_time 0xb4-0xb8 (4)
0x0b0|                        1d c1 c1 5d            |        ...]    |      [35]: "1985-10-27T05:00:13Z" (499237213) transition_time 0xb8-0xbc (4)
0x0b0|                                    1e b1 c0 6d|            ...m|      [36]: "1986-04-27T06:00:13Z" (514965613) transition_time 0xbc-0xc0 (4)
0x0c0|1f a1 a3 5d                                    |...]            |      [37]: "1986-10-26T05:00:13Z" (530686813) transition_time 0xc0-0xc4 (4)
0x0c0|            20 75 f2 ed                        |     u..        |      [38]: "1987-04-05T06:00:13Z" (544600813) transition_time 0xc4-0xc8 (4)
0x0c0|                        21 81 85 5d            |        !..]    |      [39]: "1987-10-25T05:00:13Z" (562136413) transition_time 0xc8-0xcc (4)
0x0c0|                                    22 55 d4 ee|            "U..|      [40]: "1988-04-03T06:00:14Z" (576050414) transition_time 0xcc-0xd0 (4)
0x0d0|23 6a a1 de                                    |#j..            |      [41]: "1988-10-30T05:00:14Z" (594190814) transition_time 0xd0-0xd4 (4)
0x0d0|            24 35 b6 ee                        |    $5..        |      [42]: "1989-04-02T06:00:14Z" (607500014) transition_time 0xd4-0xd8 (4)
0x0d0|                        25 4a 83 de            |        %J..    |      [43]: "1989-10-29T05:00:14Z" (625640414) transition_time 0xd8-0xdc (4)
0x0d0|                                    26 15 98 ef|            &...|      [44]: "1990-04-01T06:00:15Z" (638949615) transition_time 0xdc-0xe0 (4)
0x0e0|27 2a 65 df                                    |'*e.            |      [45]: "1990-10-28T05:00:15Z" (657090015) transition_time 0xe0-0xe4 (4)
0x0e0|            27 fe b5 70                        |    '..p        |      [46]: "1991-04-07T06:00:16Z" (671004016) transition_time 0xe4-0xe8 (4)
0x0e0|                        29 0a 47 e0            |        ).G.    |      [47]: "1991-10-27T05:00:16Z" (688539616) transition_time 0xe8-0xec (4)
0x0e0|                                    29 de 97 70|            )..p|      [48]: "1992-04-05T06:00:16Z" (702453616) transition_time 0xec-0xf0 (4)
0x0f0|2a ea 29 e1                                    |*.).            |      [49]: "1992-10-25T05:00:17Z" (719989217) transition_time 0xf0-0xf4 (4)
0x0f0|            2b be 79 71                        |    +.yq        |      [50]: "1993-04-04T06:00:17Z" (733903217) transition_time 0xf4-0xf8 (4)
0x0f0|                        2c d3 46 62            |        ,.Fb    |      [51]: "1993-10-31T05:00:18Z" (752043618) transition_time 0xf8-0xfc (4)
0x0f0|                                    2d 9e 5b 72|            -.[r|      [52]: "1994-04-03T06:00:18Z" (765352818) transition_time 0xfc-0x100 (4)
0x100|2e b3 28 63                                    |..(c            |      [53]: "1994-10-30T05:00:19Z" (783493219) transition_time 0x100-0x104 (4)
0x100|            2f 7e 3d 73                        |    /~=s        |      [54]: "1995-04-02T06:00:19Z" (796802419) transition_time 0x104-0x108 (4)
0x100|                        30 93 0a 63            |        0..c    |      [55]: "1995-10-29T05:00:19Z" (814942819) transition_time 0x108-0x10c (4)
0x100|                                    31 67 59 f4|            1gY.|      [56]: "1996-04-07T06:00:20Z" (828856820) transition_time 0x10c-0x110 (4)
0x110|32 72 ec 64                                    |2r.d            |      [57]: "1996-10-27T05:00:20Z" (846392420) transition_time 0x110-0x114 (4)
0x110|            33 47 3b f4                        |    3G;.        |      [58]: "1997-04-06T06:00:20Z" (860306420) transition_time 0x114-0x118 (4)
0x110|                        34 52 ce 65            |        4R.e    |      [59]: "1997-10-26T05:00:21Z" (877842021) transition_time 0x118-0x11c (4)
0x110|                                    35 27 1d f5|            5'..|      [60]: "1998-04-05T06:00:21Z" (891756021) transition_time 0x11c-0x120 (4)
0x120|36 32 b0 65                                    |62.e            |      [61]: "1998-10-25T05:00:21Z" (909291621) transition_time 0x120-0x124 (4)
0x120|            37 06 ff f6                        |    7...        |      [62]: "1999-04-04T06:00:22Z" (923205622) transition_time 0x124-0x128 (4)
0x120|                        38 1b cc e6            |        8...    |      [63]: "1999-10-31T05:00:22Z" (941346022) transition_time 0x128-0x12c (4)
0x120|                                    38 e6 e1 f6|            8...|      [64]: "2000-04-02T06:00:22Z" (954655222) transition_time 0x12c-0x130 (4)
0x130|39 fb ae e6                                    |9...            |      [65]: "2000-10-29T05:00:22Z" (972795622) transition_time 0x130-0x134 (4)
0x130|            3a c6 c3 f6                        |    :...        |      [66]: "2001-04-01T06:00:22Z" (986104822) transition_time 0x134-0x138 (4)
0x130|                        3b db 90 e6            |        ;...    |      [67]: "2001-10-28T05:00:22Z" (1004245222) transition_time 0x138-0x13c (4)
0x130|                                    3c af e0 76|            <..v|      [68]: "2002-04-07T06:00:22Z" (1018159222) transition_time 0x13c-0x140 (4)
0x140|3d bb 72 e6                                    |=.r.            |      [69]: "2002-10-27T05:00:22Z" (1035694822) transition_time 0x140-0x144 (4)
0x140|            3e 8f c2 76                        |    >..v        |      [70]: "2003-04-06T06:00:22Z" (1049608822) transition_time 0x144-0x148 (4)
0x140|                        3f 9b 54 e6            |        ?.T.    |      [71]: "2003-10-26T05:00:22Z" (1067144422) transition_time 0x148-0x14c (4)
0x140|                                    40 6f a4 76|            @o.v|      [72]: "2004-04-04T06:00:22Z" (1081058422) transition_time 0x14c-0x150 (4)
0x150|41 84 71 66                                    |A.qf            |      [73]: "2004-10-31T05:00:22Z" (1099198822) transition_time 0x150-0x154 (4)
0x150|            42 4f 86 76                        |    BO.v        |      [74]: "2005-04-03T06:00:22Z" (1112508022) transition_time 0x154-0x158 (4)
0x150|                        43 64 53 66            |        CdSf    |      [75]: "2005-10-30T05:00:22Z" (1130648422) transition_time 0x158-0x15c (4)
0x150|                                    44 2f 68 77|            D/hw|      [76]: "2006-04-02T06:00:23Z" (1143957623) transition_time 0x15c-0x160 (4)
0x160|45 44 35 67                                    |ED5g            |      [77]: "2006-10-29T05:00:23Z" (1162098023) transition_time 0x160-0x164 (4)
0x160|            45 f3 9a f7                        |    E...        |      [78]: "2007-03-11T06:00:23Z" (1173592823) transition_time 0x164-0x168 (4)
0x160|                        47 2d 51 e7            |        G-Q.    |      [79]: "2007-11-04T05:00:23Z" (1194152423) transition_time 0x168-0x16c (4)
0x160|                                    47 d3 7c f7|            G.|.|      [80]: "2008-03-09T06:00:23Z" (1205042423) transition_time 0x16c-0x170 (4)
0x170|49 0d 33 e7                                    |I.3.            |      [81]: "2008-11-02T05:00:23Z" (1225602023) transition_time 0x170-0x174 (4)
0x170|            49 b3 5e f8                        |    I.^.        |      [82]: "2009-03-08T06:00:24Z" (1236492024) transition_time 0x174-0x178 (4)
0x170|                        4a ed 15 e8            |        J...    |      [83]: "2009-11-01T05:00:24Z" (1257051624) transition_time 0x178-0x17c (4)
0x170|                                    4b 9c 7b 78|            K.{x|      [84]: "2010-03-14T06:00:24Z" (1268546424) transition_time 0x17c-0x180 (4)
0x180|4c d6 32 68                                    |L.2h            |      [85]: "2010-11-07T05:00:24Z" (1289106024) transition_time 0x180-0x184 (4)
0x180|            4d 7c 5d 78                        |    M|]x        |      [86]: "2011-03-13T06:00:24Z" (1299996024) transition_time 0x184-0x188 (4)
0x180|                        4e b6 14 68            |        N..h    |      [87]: "2011-11-06T05:00:24Z" (1320555624) transition_time 0x188-0x18c (4)
0x180|                                    4f 5c 3f 78|            O\?x|      [88]: "2012-03-11T06:00:24Z" (1331445624) transition_time 0x18c-0x190 (4)
0x190|50 95 f6 69                                    |P..i            |      [89]: "2012-11-04T05:00:25Z" (1352005225) transition_time 0x190-0x194 (4)
0x190|            51 3c 21 79                        |    Q<!y        |      [90]: "2013-03-10T06:00:25Z" (1362895225) transition_time 0x194-0x198 (4)
0x190|                        52 75 d8 69            |        Ru.i    |      [91]: "2013-11-03T05:00:25Z" (1383454825) transition_time 0x198-0x19c (4)
0x190|                                    53 1c 03 79|            S..y|      [92]: "2014-03-09T06:00:25Z" (1394344825) transition_time 0x19c-0x1a0 (4)
0x1a0|54 55 ba 69                                    |TU.i            |      [93]: "2014-11-02T05:00:25Z" (1414904425) transition_time 0x1a0-0x1a4 (4)
0x1a0|            54 fb e5 79                        |    T..y        |      [94]: "2015-03-08T06:00:25Z" (1425794425) transition_time 0x1a4-0x1a8 (4)
0x1a0|                        56 35 9c 6a            |        V5.j    |      [95]: "2015-11-01T05:00:26Z" (1446354026) transition_time 0x1a8-0x1ac (4)
0x1a0|                                    56 e5 01 fa|            V...|      [96]: "2016-03-13T06:00:26Z" (1457848826) transition_time 0x1ac-0x1b0 (4)
0x1b0|58 1e b8 ea                                    |X...            |      [97]: "2016-11-06T05:00:26Z" (1478408426) transition_time 0x1b0-0x1b4 (4)
0x1b0|            58 c4 e3 fb                        |    X...        |      [98]: "2017-03-12T06:00:27Z" (1489298427) transition_time 0x1b4-0x1b8 (4)
0x1b0|                        59 fe 9a eb            |        Y...    |      [99]: "2017-11-05T05:00:27Z" (1509858027) transition_time 0x1b8-0x1bc (4)
0x1b0|                                    5a a4 c5 fb|            Z...|      [100]: "2018-03-11T06:00:27Z" (1520748027) transition_time 0x1bc-0x1c0 (4)
0x1c0|5b de 7c eb                                    |[.|.            |      [101]: "2018-11-04T05:00:27Z" (1541307627) transition_time 0x1c0-0x1c4 (4)
0x1c0|            5c 84 a7 fb                        |    \...        |      [102]: "2019-03-10T06:00:27Z" (1552197627) transition_time 0x1c4-0x1c8 (4)
0x1c0|                        5d be 5e eb            |        ].^.    |      [103]: "2019-11-03T05:00:27Z" (1572757227) transition_time 0x1c8-0x1cc (4)
0x1c0|                                    5e 64 89 fb|            ^d..|      [104]: "2020-03-08T06:00:27Z" (1583647227) transition_time 0x1cc-0x1d0 (4)
0x1d0|5f 9e 40 eb                                    |_.@.            |      [105]: "2020-11-01T05:00:27Z" (1604206827) transition_time 0x1d0-0x1d4 (4)
0x1d0|            60 4d a6 7b                        |    `M.{        |      [106]: "2021-03-14T06:00:27Z" (1615701627) transition_time 0x1d4-0x1d8 (4)
0x1d0|                        61 87 5d 6b            |        a.]k    |      [107]: "2021-11-07T05:00:27Z" (1636261227) transition_time 0x1d8-0x1dc (4)
0x1d0|                                    62 2d 88 7b|            b-.{|      [108]: "2022-03-13T06:00:27Z" (1647151227) transition_time 0x1dc-0x1e0 (4)
0x1e0|63 67 3f 6b                                    |cg?k            |      [109]: "2022-11-06T05:00:27Z" (1667710827) transition_time 0x1e0-0x1e4 (4)
0x1e0|            64 0d 6a 7b                        |    d.j{        |      [110]: "2023-03-12T06:00:27Z" (1678600827) transition_time 0x1e4-0x1e8 (4)
0x1e0|                        64 9b 78 1b            |        d.x.    |      [111]: "2023-06-28T00:00:27Z" (1687910427) transition_time 0x1e8-0x1ec (4)
     |                                               |                |    transition_types[0:112]: 0x1ec-0x25c (112)
0x1e0|                                    02         |            .   |      [0]: 2 transition_type 0x1ec-0x1ed (1)
0x1e0|                                       01      |             .  |      [1]: 1 transition_type 0x1ed-0x1ee (1)
0x1e0|                                          02   |              . |      [2]: 2 transition_type 0x1ee-0x1ef (1)
0x1e0|                                             03|               .|      [3]: 3 transition_type 0x1ef-0x1f0 (1)
0x1f0|04                                             |.               |      [4]: 4 transition_type 0x1f0-0x1f1 (1)
0x1f0|   02                                          | .              |      [5]: 2 transition_type 0x1f1-0x1f2 (1)
0x1f0|      01                                       |  .             |      [6]: 1 transition_type 0x1f2-0x1f3 (1)
0x1f0|         02                                    |   .            |      [7]: 2 transition_type 0x1f3-0x1f4 (1)
0x1f0|            01                                 |    .           |      [8]: 1 transition_type 0x1f4-0x1f5 (1)
0x1f0|               02                              |     .          |      [9]: 2 transition_type 0x1f5-0x1f6 (1)
0x1f0|                  01                           |      .         |      [10]: 1 transition_type 0x1f6-0x1f7 (1)
0x1f0|                     02                        |       .        |      [11]: 2 transition_type 0x1f7-0x1f8 (1)
0x1f0|                        01                     |        .       |      [12]: 1 transition_type 0x1f8-0x1f9 (1)
0x1f0|                           02                  |         .      |      [13]: 2 transition_type 0x1f9-0x1fa (1)
0x1f0|                              01               |          .     |      [14]: 1 transition_type 0x1fa-0x1fb (1)
0x1f0|                                 02            |           .    |      [15]: 2 transition_type 0x1fb-0x1fc (1)
0x1f0|                                    01         |            .   |      [16]: 1 transition_type 0x1fc-0x1fd (1)
0x1f0|                                       02      |             .  |      [17]: 2 transition_type 0x1fd-0x1fe (1)
0x1f0|                                          01   |              . |      [18]: 1 transition_type 0x1fe-0x1ff (1)
0x1f0|                                             02|               .|      [19]: 2 transition_type 0x1ff-0x200 (1)
0x200|01                                             |.               |      [20]: 1 transition_type 0x200-0x201 (1)
0x200|   02                                          | .              |      [21]: 2 transition_type 0x201-0x202 (1)
0x200|      01                                       |  .             |      [22]: 1 transition_type 0x202-0x203 (1)
0x200|         02                                    |   .            |      [23]: 2 transition_type 0x203-0x204 (1)
0x200|            01                                 |    .           |      [24]: 1 transition_type 0x204-0x205 (1)
0x200|               02                              |     .          |      [25]: 2 transition_type 0x205-0x206 (1)
0x200|                  01                           |      .         |      [26]: 1 transition_type 0x206-0x207 (1)
0x200|                     02                        |       .        |      [27]: 2 transition_type 0x207-0x208 (1)
0x200|                        01                     |        .       |      [28]: 1 transition_type 0x208-0x209 (1)
0x200|                           02                  |         .      |      [29]: 2 transition_type 0x209-0x20a (1)
0x200|                              01               |          .     |      [30]: 1 transition_type 0x20a-0x20b (1)
0x200|                                 02            |           .    |      [31]: 2 transition_type 0x20b-0x20c (1)
0x200|                                    01         |            .   |      [32]: 1 transition_type 0x20c-0x20d (1)
0x200|                                       02      |             .  |      [33]: 2 transition_type 0x20d-0x20e (1)
0x200|                                          01   |              . |      [34]: 1 transition_type 0x20e-0x20f (1)
0x200|                                             02|               .|      [35]: 2 transition_type 0x20f-0x210 (1)
0x210|01                                             |.               |      [36]: 1 transition_type 0x210-0x211 (1)
0x210|   02                                          | .              |      [37]: 2 transition_type 0x211-0x212 (1)
0x210|      01                                       |  .             |      [38]: 1 transition_type 0x212-0x213 (1)
0x210|         02                                    |   .            |      [39]: 2 transition_type 0x213-0x214 (1)
0x210|            01                                 |    .           |      [40]: 1 transition_type 0x214-0x215 (1)
0x210|               02                              |     .          |      [41]: 2 transition_type 0x215-0x216 (1)
0x210|                  01                           |      .         |      [42]: 1 transition_type 0x216-0x217 (1)
0x210|                     02                        |       .        |      [43]: 2 transition_type 0x217-0x218 (1)
0x210|                        01                     |        .       |      [44]: 1 transition_type 0x218-0x219 (1)
0x210|                           02                  |         .      |      [45]: 2 transition_type 0x219-0x21a (1)
0x210|                              01               |          .     |      [46]: 1 transition_type 0x21a-0x21b (1)
0x210|                                 02            |           .    |      [47]: 2 transition_type 0x21b-0x21c (1)
0x210|                                    01         |            .   |      [48]: 1 transition_type 0x21c-0x21d (1)
0x210|                                       02      |             .  |      [49]: 2 transition_type 0x21d-0x21e (1)
0x210|                                          01   |              . |      [50]: 1 transition_type 0x21e-0x21f (1)
0x210|                                             02|               .|      [51]: 2 transition_type 0x21f-0x220 (1)
0x220|01                                             |.               |      [52]: 1 transition_type 0x220-0x221 (1)
0x220|   02                                          | .              |      [53]: 2 transition_type 0x221-0x222 (1)
0x220|      01                                       |  .             |      [54]: 1 transition_type 0x222-0x223 (1)
0x220|         02                                    |   .            |      [55]: 2 transition_type 0x223-0x224 (1)
0x220|            01                                 |    .           |      [56]: 1 transition_type 0x224-0x225 (1)
0x220|               02                              |     .          |      [57]: 2 transition_type 0x225-0x226 (1)
0x220|                  01                           |      .         |      [58]: 1 transition_type 0x226-0x227 (1)
0x220|                     02                        |       .        |      [59]: 2 transition_type 0x227-0x228 (1)
0x220|                        01                     |        .       |      [60]: 1 transition_type 0x228-0x229 (1)
0x220|                           02                  |         .      |      [61]: 2 transition_type 0x229-0x22a (1)
0x220|                              01               |          .     |      [62]: 1 transition_type 0x22a-0x22b (1)
0x220|                                 02            |           .    |      [63]: 2 transition_type 0x22b-0x22c (1)
0x220|                                    01         |            .   |      [64]: 1 transition_type 0x22c-0x22d (1)
0x220|                                       02      |             .  |      [65]: 2 transition_type 0x22d-0x22e (1)
0x220|                                          01   |              . |      [66]: 1 transition_type 0x22e-0x22f (1)
0x220|                                             02|               .|      [67]: 2 transition_type 0x22f-0x230 (1)
0x230|01                                             |.               |      [68]: 1 transition_type 0x230-0x231 (1)
0x230|   02                                          | .              |      [69]: 2 transition_type 0x231-0x232 (1)
0x230|      01                                       |  .             |      [70]: 1 transition_type 0x232-0x233 (1)
0x230|         02                                    |   .            |      [71]: 2 transition_type 0x233-0x234 (1)
0x230|            01                                 |    .           |      [72]: 1 transition_type 0x234-0x235 (1)
0x230|               02                              |     .          |      [73]: 2 transition_type 0x235-0x236 (1)
0x230|                  01                           |      .         |      [74]: 1 transition_type 0x236-0x237 (1)
0x230|                     02                        |       .        |      [75]: 2 transition_type 0x237-0x238 (1)
0x230|                        01                     |        .       |      [76]: 1 transition_type 0x238-0x239 (1)
0x230|                           02                  |         .      |      [77]: 2 transition_type 0x239-0x23a (1)
0x230|                              01               |          .     |      [78]: 1 transition_type 0x23a-0x23b (1)
0x230|                                 02            |           .    |      [79]: 2 transition_type 0x23b-0x23c (1)
0x230|                                    01         |            .   |      [80]: 1 transition_type 0x23c-0x23d (1)
0x230|                                       02      |             .  |      [81]: 2 transition_type 0x23d-0x23e (1)
0x230|                                          01   |              . |      [82]: 1 transition_type 0x23e-0x23f (1)
0x230|                                             02|               .|      [83]: 2 transition_type 0x23f-0x240 (1)
0x240|01                                             |.               |      [84]: 1 transition_type 0x240-0x241 (1)
0x240|   02                                          | .              |      [85]: 2 transition_type 0x241-0x242 (1)
0x240|      01                                       |  .             |      [86]: 1 transition_type 0x242-0x243 (1)
0x240|         02                                    |   .            |      [87]: 2 transition_type 0x243-0x244 (1)
0x240|            01                                 |    .           |      [88]: 1 transition_type 0x244-0x245 (1)
0x240|               02                              |     .          |      [89]: 2 transition_type 0x245-0x246 (1)
0x240|                  01                           |      .         |      [90]: 1 transition_type 0x246-0x247 (1)
0x240|                     02                        |       .        |      [91]: 2 transition_type 0x247-0x248 (1)
0x240|                        01                     |        .       |      [92]: 1 transition_type 0x248-0x249 (1)
0x240|                           02                  |         .      |      [93]: 2 transition_type 0x249-0x24a (1)
0x240|                              01               |          .     |      [94]: 1 transition_type 0x24a-0x24b (1)
0x240|                                 02            |           .    |      [95]: 2 transition_type 0x24b-0x24c (1)
0x240|                                    01         |            .   |      [96]: 1 transition_type 0x24c-0x24d (1)
0x240|                                       02      |             .  |      [97]: 2 transition_type 0x24d-0x24e (1)
0x240|                                          01   |              . |      [98]: 1 transition_type 0x24e-0x24f (1)
0x240|                                             02|               .|      [99]: 2 transition_type 0x24f-0x250 (1)
0x250|01                                             |.               |      [100]: 1 transition_type 0x250-0x251 (1)
0x250|   02                                          | .              |      [101]: 2 transition_type 0x251-0x252 (1)
0x250|      01                                       |  .             |      [102]: 1 transition_type 0x252-0x253 (1)
0x250|         02                                    |   .            |      [103]: 2 transition_type 0x253-0x254 (1)
0x250|            01                                 |    .           |      [104]: 1 transition_type 0x254-0x255 (1)
0x250|               02                              |     .          |      [105]: 2 transition_type 0x255-0x256 (1)
0x250|                  01                           |      .         |      [106]: 1 transition_type 0x256-0x257 (1)
0x250|                     02                        |       .        |      [107]: 2 transition_type 0x257-0x258 (1)
0x250|                        01                     |        .       |      [108]: 1 transition_type 0x258-0x259 (1)
0x250|                           02                  |         .      |      [109]: 2 transition_type 0x259-0x25a (1)
0x250|                              01               |          .     |      [110]: 1 transition_type 0x25a-0x25b (1)
0x250|                                 01            |           .    |      [111]: 1 transition_type 0x25b-0x25c (1)
     |                                               |                |    local_time_type_records[0:5]: 0x25c-0x27a (30)
     |                                               |                |      [0]{}: local_time_type 0x25c-0x262 (6)
0x250|                                    ff ff c7 cc|            ....|        utoff: -14388 (valid) 0x25c-0x260 (4)
0x260|00                                             |.               |        dst: 0 (valid) 0x260-0x261 (1)
0x260|   00                                          | .              |        idx: 0 (valid) 0x261-0x262 (1)
     |                                               |                |      [1]{}: local_time_type 0x262-0x268 (6)
0x260|      ff ff d5 d0                              |  ....          |        utoff: -10800 (valid) 0x262-0x266 (4)
0x260|                  01                           |      .         |        dst: 1 (valid) 0x266-0x267 (1)
0x260|                     04                        |       .        |        idx: 4 (valid) 0x267-0x268 (1)
     |                                               |                |      [2]{}: local_time_type 0x268-0x26e (6)
0x260|                        ff ff c7 c0            |        ....    |        utoff: -14400 (valid) 0x268-0x26c (4)
0x260|                                    00         |            .   |        dst: 0 (valid) 0x26c-0x26d (1)
0x260|                                       08      |             .  |        idx: 8 (valid) 0x26d-0x26e (1)
     |                                               |                |      [3]{}: local_time_type 0x26e-0x274 (6)
0x260|                                          ff ff|              ..|        utoff: -10800 (valid) 0x26e-0x272 (4)
0x270|d5 d0                                          |..              |
0x270|      01                                       |  .             |        dst: 1 (valid) 0x272-0x273 (1)
0x270|         0c                                    |   .            |        idx: 12 (valid) 0x273-0x274 (1)
     |                                               |                |      [4]{}: local_time_type 0x274-0x27a (6)
0x270|            ff ff d5 d0                        |    ....        |        utoff: -10800 (valid) 0x274-0x278 (4)
0x270|                        01                     |        .       |        dst: 1 (valid) 0x278-0x279 (1)
0x270|                           10                  |         .      |        idx: 16 (valid) 0x279-0x27a (1)
     |                                               |                |    time_zone_designations[0:5]: 0x27a-0x28e (20)
0x270|                              4c 4d 54 00      |          LMT.  |      [0]: "LMT" time_zone_designation 0x27a-0x27e (4)
0x270|                                          41 44|              AD|      [1]: "ADT" time_zone_designation 0x27e-0x282 (4)
0x280|54 00                                          |T.              |
0x280|      41 53 54 00                              |  AST.          |      [2]: "AST" time_zone_designation 0x282-0x286 (4)
0x280|                  41 57 54 00                  |      AWT.      |      [3]: "AWT" time_zone_designation 0x286-0x28a (4)
0x280|                              41 50 54 00      |          APT.  |      [4]: "APT" time_zone_designation 0x28a-0x28e (4)
     |                                               |                |    leap_second_records[0:27]: 0x28e-0x366 (216)
     |                                               |                |      [0]{}: leap_second_record 0x28e-0x296 (8)
0x280|                                          04 b2|              ..|        occur: "1972-07-01T00:00:00Z" (78796800) 0x28e-0x292 (4)
0x290|58 00                                          |X.              |
0x290|      00 00 00 01                              |  ....          |        corr: 1 0x292-0x296 (4)
     |                                               |                |      [1]{}: leap_second_record 0x296-0x29e (8)
0x290|                  05 a4 ec 01                  |      ....      |        occur: "1973-01-01T00:00:01Z" (94694401) 0x296-0x29a (4)
0x290|                              00 00 00 02      |          ....  |        corr: 2 0x29a-0x29e (4)
     |                                               |                |      [2]{}: leap_second_record 0x29e-0x2a6 (8)
0x290|                                          07 86|              ..|        occur: "1974-01-01T00:00:02Z" (126230402) 0x29e-0x2a2 (4)
0x2a0|1f 82                                          |..              |
0x2a0|      00 00 00 03                              |  ....          |        corr: 3 0x2a2-0x2a6 (4)
     |                                               |                |      [3]{}: leap_second_record 0x2a6-0x2ae (8)
0x2a0|                  09 67 53 03                  |      .gS.      |        occur: "1975-01-01T00:00:03Z" (157766403) 0x2a6-0x2aa (4)
0x2a0|                              00 00 00 04      |          ....  |        corr: 4 0x2aa-0x2ae (4)
     |                                               |                |      [4]{}: leap_second_record 0x2ae-0x2b6 (8)
0x2a0|                                          0b 48|              .H|        occur: "1976-01-01T00:00:04Z" (189302404) 0x2ae-0x2b2 (4)
0x2b0|86 84                                          |..              |
0x2b0|      00 00 00 05                              |  ....          |        corr: 5 0x2b2-0x2b6 (4)
     |                                               |                |      [5]{}: leap_second_record 0x2b6-0x2be (8)
0x2b0|                  0d 2b 0b 85                  |      .+..      |        occur: "1977-01-01T00:00:05Z" (220924805) 0x2b6-0x2ba (4)
0x2b0|                              00 00 00 06      |          ....  |        corr: 6 0x2ba-0x2be (4)
     |                                               |                |      [6]{}: leap_second_record 0x2be-0x2c6 (8)
0x2b0|                                          0f 0c|              ..|        occur: "1978-01-01T00:00:06Z" (252460806) 0x2be-0x2c2 (4)
0x2c0|3f 06                                          |?.              |
0x2c0|      00 00 00 07                              |  ....          |        corr: 7 0x2c2-0x2c6 (4)
     |                                               |                |      [7]{}: leap_second_record 0x2c6-0x2ce (8)
0x2c0|                  10 ed 72 87                  |      ..r.      |        occur: "1979-01-01T00:00:07Z" (283996807) 0x2c6-0x2ca (4)
0x2c0|                              00 00 00 08      |          ....  |        corr: 8 0x2ca-0x2ce (4)
     |                                               |                |      [8]{}: leap_second_record 0x2ce-0x2d6 (8)
0x2c0|                                          12 ce|              ..|        occur: "1980-01-01T00:00:08Z" (315532808) 0x2ce-0x2d2 (4)
0x2d0|a6 08                                          |..              |
0x2d0|      00 00 00 09                              |  ....          |        corr: 9 0x2d2-0x2d6 (4)
     |                                               |                |      [9]{}: leap_second_record 0x2d6-0x2de (8)
0x2d0|                  15 9f ca 89                  |      ....      |        occur: "1981-07-01T00:00:09Z" (362793609) 0x2d6-0x2da (4)
0x2d0|                              00 00 00 0a      |          ....  |        corr: 10 0x2da-0x2de (4)
     |                                               |                |      [10]{}: leap_second_record 0x2de-0x2e6 (8)
0x2d0|                                          17 80|              ..|        occur: "1982-07-01T00:00:10Z" (394329610) 0x2de-0x2e2 (4)
0x2e0|fe 0a                                          |..              |
0x2e0|      00 00 00 0b                              |  ....          |        corr: 11 0x2e2-0x2e6 (4)
     |                                               |                |      [11]{}: leap_second_record 0x2e6-0x2ee (8)
0x2e0|                  19 62 31 8b                  |      .b1.      |        occur: "1983-07-01T00:00:11Z" (425865611) 0x2e6-0x2ea (4)
0x2e0|                              00 00 00 0c      |          ....  |        corr: 12 0x2ea-0x2ee (4)
     |                                               |                |      [12]{}: leap_second_record 0x2ee-0x2f6 (8)
0x2e0|                                          1d 25|              .%|        occur: "1985-07-01T00:00:12Z" (489024012) 0x2ee-0x2f2 (4)
0x2f0|ea 0c                                          |..              |
0x2f0|      00 00 00 0d                              |  ....          |        corr: 13 0x2f2-0x2f6 (4)
     |                                               |                |      [13]{}: leap_second_record 0x2f6-0x2fe (8)
0x2f0|                  21 da e5 0d                  |      !...      |        occur: "1988-01-01T00:00:13Z" (567993613) 0x2f6-0x2fa (4)
0x2f0|                              00 00 00 0e      |          ....  |        corr: 14 0x2fa-0x2fe (4)
     |                                               |                |      [14]{}: leap_second_record 0x2fe-0x306 (8)
0x2f0|                                          25 9e|              %.|        occur: "1990-01-01T00:00:14Z" (631152014) 0x2fe-0x302 (4)
0x300|9d 8e                                          |..              |
0x300|      00 00 00 0f                              |  ....          |        corr: 15 0x302-0x306 (4)
     |                                               |                |      [15]{}: leap_second_record 0x306-0x30e (8)
0x300|                  27 7f d1 0f                  |      '...      |        occur: "1991-01-01T00:00:15Z" (662688015) 0x306-0x30a (4)
0x300|                              00 00 00 10      |          ....  |        corr: 16 0x30a-0x30e (4)
     |                                               |                |      [16]{}: leap_second_record 0x30e-0x316 (8)
0x300|                                          2a 50|              *P|        occur: "1992-07-01T00:00:16Z" (709948816) 0x30e-0x312 (4)
0x310|f5 90                                          |..              |
0x310|      00 00 00 11                              |  ....          |        corr: 17 0x312-0x316 (4)
     |                                               |                |      [17]{}: leap_second_record 0x316-0x31e (8)
0x310|                  2c 32 29 11                  |      ,2).      |        occur: "1993-07-01T00:00:17Z" (741484817) 0x316-0x31a (4)
0x310|                              00 00 00 12      |          ....  |        corr: 18 0x31a-0x31e (4)
     |                                               |                |      [18]{}: leap_second_record 0x31e-0x326 (8)
0x310|                                          2e 13|              ..|        occur: "1994-07-01T00:00:18Z" (773020818) 0x31e-0x322 (4)
0x320|5c 92                                          |\.              |
0x320|      00 00 00 13                              |  ....          |        corr: 19 0x322-0x326 (4)
     |                                               |                |      [19]{}: leap_second_record 0x326-0x32e (8)
0x320|                  30 e7 24 13                  |      0.$.      |        occur: "1996-01-01T00:00:19Z" (820454419) 0x326-0x32a (4)
0x320|                              00 00 00 14      |          ....  |        corr: 20 0x32a-0x32e (4)
     |                                               |                |      [20]{}: leap_second_record 0x32e-0x336 (8)
0x320|                                          33 b8|              3.|        occur: "1997-07-01T00:00:20Z" (867715220) 0x32e-0x332 (4)
0x330|48 94                                          |H.              |
0x330|      00 00 00 15                              |  ....          |        corr: 21 0x332-0x336 (4)
     |                                               |                |      [21]{}: leap_second_record 0x336-0x33e (8)
0x330|                  36 8c 10 15                  |      6...      |        occur: "1999-01-01T00:00:21Z" (915148821) 0x336-0x33a (4)
0x330|                              00 00 00 16      |          ....  |        corr: 22 0x33a-0x33e (4)
     |                                               |                |      [22]{}: leap_second_record 0x33e-0x346 (8)
0x330|                                          43 b7|              C.|        occur: "2006-01-01T00:00:22Z" (1136073622) 0x33e-0x342 (4)
0x340|1b 96                                          |..              |
0x340|      00 00 00 17                              |  ....          |        corr: 23 0x342-0x346 (4)
     |                                               |                |      [23]{}: leap_second_record 0x346-0x34e (8)
0x340|                  49 5c 07 97                  |      I\..      |        occur: "2009-01-01T00:00:23Z" (1230768023) 0x346-0x34a (4)
0x340|                              00 00 00 18      |          ....  |        corr: 24 0x34a-0x34e (4)
     |                                               |                |      [24]{}: leap_second_record 0x34e-0x356 (8)
0x340|                                          4f ef|              O.|        occur: "2012-07-01T00:00:24Z" (1341100824) 0x34e-0x352 (4)
0x350|93 18                                          |..              |
0x350|      00 00 00 19                              |  ....          |        corr: 25 0x352-0x356 (4)
     |                                               |                |      [25]{}: leap_second_record 0x356-0x35e (8)
0x350|                  55 93 2d 99                  |      U.-.      |        occur: "2015-07-01T00:00:25Z" (1435708825) 0x356-0x35a (4)
0x350|                              00 00 00 1a      |          ....  |        corr: 26 0x35a-0x35e (4)
     |                                               |                |      [26]{}: leap_second_record 0x35e-0x366 (8)
0x350|                                          58 68|              Xh|        occur: "2017-01-01T00:00:26Z" (1483228826) 0x35e-0x362 (4)
0x360|46 9a                                          |F.              |
0x360|      00 00 00 1b                              |  ....          |        corr: 27 0x362-0x366 (4)
     |                                               |                |    standard_wall_indicators[0:5]: 0x366-0x36b (5)
0x360|                  00                           |      .         |      [0]: 0 standard_wall_indicator (valid) 0x366-0x367 (1)
0x360|                     00                        |       .        |      [1]: 0 standard_wall_indicator (valid) 0x367-0x368 (1)
0x360|                        00                     |        .       |      [2]: 0 standard_wall_indicator (valid) 0x368-0x369 (1)
0x360|                           00                  |         .      |      [3]: 0 standard_wall_indicator (valid) 0x369-0x36a (1)
0x360|                              01               |          .     |      [4]: 1 standard_wall_indicator (valid) 0x36a-0x36b (1)
     |                                               |                |    ut_local_indicators[0:5]: 0x36b-0x370 (5)
0x360|                                 00            |           .    |      [0]: 0 ut_local_indicator (valid) 0x36b-0x36c (1)
0x360|                                    00         |            .   |      [1]: 0 ut_local_indicator (valid) 0x36c-0x36d (1)
0x360|                                       00      |             .  |      [2]: 0 ut_local_indicator (valid) 0x36d-0x36e (1)
0x360|                                          00   |              . |      [3]: 0 ut_local_indicator (valid) 0x36e-0x36f (1)
0x360|                                             01|               .|      [4]: 1 ut_local_indicator (valid) 0x36f-0x370 (1)
     |                                               |                |  v2plusheader{}: 0x370-0x39c (44)
0x370|54 5a 69 66                                    |TZif            |    magic: 0x545a6966 (valid) 0x370-0x374 (4)
0x370|            32                                 |    2           |    ver: "2" (0x32) (valid) 0x374-0x375 (1)
0x370|               00 00 00 00 00 00 00 00 00 00 00|     ...........|    reserved: raw bits 0x375-0x384 (15)
0x380|00 00 00 00                                    |....            |
0x380|            00 00 00 05                        |    ....        |    isutcnt: 5 0x384-0x388 (4)
0x380|                        00 00 00 05            |        ....    |    isstdcnt: 5 0x388-0x38c (4)
0x380|                                    00 00 00 1b|            ....|    leapcnt: 27 0x38c-0x390 (4)
0x390|00 00 00 70                                    |...p            |    timecnt: 112 0x390-0x394 (4)
0x390|            00 00 00 05                        |    ....        |    typecnt: 5 0x394-0x398 (4)
0x390|                        00 00 00 14            |        ....    |    charcnt: 20 0x398-0x39c (4)
     |                                               |                |  v2plusdatablock{}: 0x39c-0x90c (1392)
     |                                               |                |    transition_times[0:112]: 0x39c-0x71c (896)
0x390|                                    ff ff ff ff|            ....|      [0]: "1902-06-15T03:59:48Z" (-2131646412) transition_time 0x39c-0x3a4 (8)
0x3a0|80 f1 a8 34                                    |...4            |
0x3a0|            ff ff ff ff 9e b8 85 60            |    .......`    |      [1]: "1918-04-14T06:00:00Z" (-1632074400) transition_time 0x3a4-0x3ac (8)
0x3a0|                                    ff ff ff ff|            ....|      [2]: "1918-10-27T05:00:00Z" (-1615143600) transition_time 0x3ac-0x3b4 (8)
0x3b0|9f ba dd 50                                    |...P            |
0x3b0|            ff ff ff ff cb 88 e2 60            |    .......`    |      [3]: "1942-02-09T06:00:00Z" (-880221600) transition_time 0x3b4-0x3bc (8)
0x3b0|                                    ff ff ff ff|            ....|      [4]: "1945-08-14T23:00:00Z" (-769395600) transition_time 0x3bc-0x3c4 (8)
0x3c0|d2 23 f4 70                                    |.#.p            |
0x3c0|            ff ff ff ff d2 60 ed d0            |    .....`..    |      [5]: "1945-09-30T05:00:00Z" (-765399600) transition_time 0x3c4-0x3cc (8)
0x3c0|                                    ff ff ff ff|            ....|      [6]: "1953-04-26T06:00:00Z" (-526500000) transition_time 0x3cc-0x3d4 (8)
0x3d0|e0 9e 3f 60                                    |..?`            |
0x3d0|            ff ff ff ff e1 69 38 50            |    .....i8P    |      [7]: "1953-09-27T05:00:00Z" (-513198000) transition_time 0x3d4-0x3dc (8)
0x3d0|                                    00 00 00 00|            ....|      [8]: "1972-04-30T06:00:00Z" (73461600) transition_time 0x3dc-0x3e4 (8)
0x3e0|04 60 ef 60                                    |.`.`            |
0x3e0|            00 00 00 00 05 50 d2 51            |    .....P.Q    |      [9]: "1972-10-29T05:00:01Z" (89182801) transition_time 0x3e4-0x3ec (8)
0x3e0|                                    00 00 00 00|            ....|      [10]: "1973-04-29T06:00:02Z" (104911202) transition_time 0x3ec-0x3f4 (8)
0x3f0|06 40 d1 62                                    |.@.b            |
0x3f0|            00 00 00 00 07 30 b4 52            |    .....0.R    |      [11]: "1973-10-28T05:00:02Z" (120632402) transition_time 0x3f4-0x3fc (8)
0x3f0|                                    00 00 00 00|            ....|      [12]: "1974-04-28T06:00:03Z" (136360803) transition_time 0x3fc-0x404 (8)
0x400|08 20 b3 63                                    |. .c            |
0x400|            00 00 00 00 09 10 96 53            |    .......S    |      [13]: "1974-10-27T05:00:03Z" (152082003) transition_time 0x404-0x40c (8)
0x400|                                    00 00 00 00|            ....|      [14]: "1975-04-27T06:00:04Z" (167810404) transition_time 0x40c-0x414 (8)
0x410|0a 00 95 64                                    |...d            |
0x410|            00 00 00 00 0a f0 78 54            |    ......xT    |      [15]: "1975-10-26T05:00:04Z" (183531604) transition_time 0x414-0x41c (8)
0x410|                                    00 00 00 00|            ....|      [16]: "1976-04-25T06:00:05Z" (199260005) transition_time 0x41c-0x424 (8)
0x420|0b e0 77 65                                    |..we            |
0x420|            00 00 00 00 0c d9 94 d5            |    ........    |      [17]: "1976-10-31T05:00:05Z" (215586005) transition_time 0x424-0x42c (8)
0x420|                                    00 00 00 00|            ....|      [18]: "1977-04-24T06:00:06Z" (230709606) transition_time 0x42c-0x434 (8)
0x430|0d c0 59 66                                    |..Yf            |
0x430|            00 00 00 00 0e b9 76 d6            |    ......v.    |      [19]: "1977-10-30T05:00:06Z" (247035606) transition_time 0x434-0x43c (8)
0x430|                                    00 00 00 00|            ....|      [20]: "1978-04-30T06:00:07Z" (262764007) transition_time 0x43c-0x444 (8)
0x440|0f a9 75 e7                                    |..u.            |
0x440|            00 00 00 00 10 99 58 d7            |    ......X.    |      [21]: "1978-10-29T05:00:07Z" (278485207) transition_time 0x444-0x44c (8)
0x440|                                    00 00 00 00|            ....|      [22]: "1979-04-29T06:00:08Z" (294213608) transition_time 0x44c-0x454 (8)
0x450|11 89 57 e8                                    |..W.            |
0x450|            00 00 00 00 12 79 3a d8            |    .....y:.    |      [23]: "1979-10-28T05:00:08Z" (309934808) transition_time 0x454-0x45c (8)
0x450|                                    00 00 00 00|            ....|      [24]: "1980-04-27T06:00:09Z" (325663209) transition_time 0x45c-0x464 (8)
0x460|13 69 39 e9                                    |.i9.            |
0x460|            00 00 00 00 14 59 1c d9            |    .....Y..    |      [25]: "1980-10-26T05:00:09Z" (341384409) transition_time 0x464-0x46c (8)
0x460|                                    00 00 00 00|            ....|      [26]: "1981-04-26T06:00:09Z" (357112809) transition_time 0x46c-0x474 (8)
0x470|15 49 1b e9                                    |.I..            |
0x470|            00 00 00 00 16 38 fe da            |    .....8..    |      [27]: "1981-10-25T05:00:10Z" (372834010) transition_time 0x474-0x47c (8)
0x470|                                    00 00 00 00|            ....|      [28]: "1982-04-25T06:00:10Z" (388562410) transition_time 0x47c-0x484 (8)
0x480|17 28 fd ea                                    |.(..            |
0x480|            00 00 00 00 18 22 1b 5b            |    .....".[    |      [29]: "1982-10-31T05:00:11Z" (404888411) transition_time 0x484-0x48c (8)
0x480|                                    00 00 00 00|            ....|      [30]: "1983-04-24T06:00:11Z" (420012011) transition_time 0x48c-0x494 (8)
0x490|19 08 df eb                                    |....            |
0x490|            00 00 00 00 1a 01 fd 5c            |    .......\    |      [31]: "1983-10-30T05:00:12Z" (436338012) transition_time 0x494-0x49c (8)
0x490|                                    00 00 00 00|            ....|      [32]: "1984-04-29T06:00:12Z" (452066412) transition_time 0x49c-0x4a4 (8)
0x4a0|1a f1 fc 6c                                    |...l            |
0x4a0|            00 00 00 00 1b e1 df 5c            |    .......\    |      [33]: "1984-10-28T05:00:12Z" (467787612) transition_time 0x4a4-0x4ac (8)
0x4a0|                                    00 00 00 00|            ....|      [34]: "1985-04-28T06:00:12Z" (483516012) transition_time 0x4ac-0x4b4 (8)
0x4b0|1c d1 de 6c                                    |...l            |
0x4b0|            00 00 00 00 1d c1 c1 5d            |    .......]    |      [35]: "1985-10-27T05:00:13Z" (499237213) transition_time 0x4b4-0x4bc (8)
0x4b0|                                    00 00 00 00|            ....|      [36]: "1986-04-27T06:00:13Z" (514965613) transition_time 0x4bc-0x4c4 (8)
0x4c0|1e b1 c0 6d                                    |...m            |
0x4c0|            00 00 00 00 1f a1 a3 5d            |    .......]    |      [37]: "1986-10-26T05:00:13Z" (530686813) transition_time 0x4c4-0x4cc (8)
0x4c0|                                    00 00 00 00|            ....|      [38]: "1987-04-05T06:00:13Z" (544600813) transition_time 0x4cc-0x4d4 (8)
0x4d0|20 75 f2 ed                                    | u..            |
0x4d0|            00 00 00 00 21 81 85 5d            |    ....!..]    |      [39]: "1987-10-25T05:00:13Z" (562136413) transition_time 0x4d4-0x4dc (8)
0x4d0|                                    00 00 00 00|            ....|      [40]: "1988-04-03T06:00:14Z" (576050414) transition_time 0x4dc-0x4e4 (8)
0x4e0|22 55 d4 ee                                    |"U..            |
0x4e0|            00 00 00 00 23 6a a1 de            |    ....#j..    |      [41]: "1988-10-30T05:00:14Z" (594190814) transition_time 0x4e4-0x4ec (8)
0x4e0|                                    00 00 00 00|            ....|      [42]: "1989-04-02T06:00:14Z" (607500014) transition_time 0x4ec-0x4f4 (8)
0x4f0|24 35 b6 ee                                    |$5..            |
0x4f0|            00 00 00 00 25 4a 83 de            |    ....%J..    |      [43]: "1989-10-29T05:00:14Z" (625640414) transition_time 0x4f4-0x4fc (8)
0x4f0|                                    00 00 00 00|            ....|      [44]: "1990-04-01T06:00:15Z" (638949615) transition_time 0x4fc-0x504 (8)
0x500|26 15 98 ef                                    |&...            |
0x500|            00 00 00 00 27 2a 65 df            |    ....'*e.    |      [45]: "1990-10-28T05:00:15Z" (657090015) transition_time 0x504-0x50c (8)
0x500|                                    00 00 00 00|            ....|      [46]: "1991-04-07T06:00:16Z" (671004016) transition_time 0x50c-0x514 (8)
0x510|27 fe b5 70                                    |'..p            |
0x510|            00 00 00 00 29 0a 47 e0            |    ....).G.    |      [47]: "1991-10-27T05:00:16Z" (688539616) transition_time 0x514-0x51c (8)
0x510|                                    00 00 00 00|            ....|      [48]: "1992-04-05T06:00:16Z" (702453616) transition_time 0x51c-0x524 (8)
0x520|29 de 97 70                                    |)..p            |
0x520|            00 00 00 00 2a ea 29 e1            |    ....*.).    |      [49]: "1992-10-25T05:00:17Z" (719989217) transition_time 0x524-0x52c (8)
0x520|                                    00 00 00 00|            ....|      [50]: "1993-04-04T06:00:17Z" (733903217) transition_time 0x52c-0x534 (8)
0x530|2b be 79 71                                    |+.yq            |
0x530|            00 00 00 00 2c d3 46 62            |    ....,.Fb    |      [51]: "1993-10-31T05:00:18Z" (752043618) transition_time 0x534-0x53c (8)
0x530|                                    00 00 00 00|            ....|      [52]: "1994-04-03T06:00:18Z" (765352818) transition_time 0x53c-0x544 (8)
0x540|2d 9e 5b 72                                    |-.[r            |
0x540|            00 00 00 00 2e b3 28 63            |    ......(c    |      [53]: "1994-10-30T05:00:19Z" (783493219) transition_time 0x544-0x54c (8)
0x540|                                    00 00 00 00|            ....|      [54]: "1995-04-02T06:00:19Z" (796802419) transition_time 0x54c-0x554 (8)
0x550|2f 7e 3d 73                                    |/~=s            |
0x550|            00 00 00 00 30 93 0a 63            |    ....0..c    |      [55]: "1995-10-29T05:00:19Z" (814942819) transition_time 0x554-0x55c (8)
0x550|                                    00 00 00 00|            ....|      [56]: "1996-04-07T06:00:20Z" (828856820) transition_time 0x55c-0x564 (8)
0x560|31 67 59 f4                                    |1gY.            |
0x560|            00 00 00 00 32 72 ec 64            |    ....2r.d    |      [57]: "1996-10-27T05:00:20Z" (846392420) transition_time 0x564-0x56c (8)
0x560|                                    00 00 00 00|            ....|      [58]: "1997-04-06T06:00:20Z" (860306420) transition_time 0x56c-0x574 (8)
0x570|33 47 3b f4                                    |3G;.            |
0x570|            00 00 00 00 34 52 ce 65            |    ....4R.e    |      [59]: "1997-10-26T05:00:21Z" (877842021) transition_time 0x574-0x57c (8)
0x570|                                    00 00 00 00|            ....|      [60]: "1998-04-05T06:00:21Z" (891756021) transition_time 0x57c-0x584 (8)
0x580|35 27 1d f5                                    |5'..            |
0x580|            00 00 00 00 36 32 b0 65            |    ....62.e    |      [61]: "1998-10-25T05:00:21Z" (909291621) transition_time 0x584-0x58c (8)
0x580|                                    00 00 00 00|            ....|      [62]: "1999-04-04T06:00:22Z" (923205622) transition_time 0x58c-0x594 (8)
0x590|37 06 ff f6                                    |7...            |
0x590|            00 00 00 00 38 1b cc e6            |    ....8...    |      [63]: "1999-10-31T05:00:22Z" (941346022) transition_time 0x594-0x59c (8)
0x590|                                    00 00 00 00|            ....|      [64]: "2000-04-02T06:00:22Z" (954655222) transition_time 0x59c-0x5a4 (8)
0x5a0|38 e6 e1 f6                                    |8...            |
0x5a0|            00 00 00 00 39 fb ae e6            |    ....9...    |      [65]: "2000-10-29T05:00:22Z" (972795622) transition_time 0x5a4-0x5ac (8)
0x5a0|                                    00 00 00 00|            ....|      [66]: "2001-04-01T06:00:22Z" (986104822) transition_time 0x5ac-0x5b4 (8)
0x5b0|3a c6 c3 f6                                    |:...            |
0x5b0|            00 00 00 00 3b db 90 e6            |    ....;...    |      [67]: "2001-10-28T05:00:22Z" (1004245222) transition_time 0x5b4-0x5bc (8)
0x5b0|                                    00 00 00 00|            ....|      [68]: "2002-04-07T06:00:22Z" (1018159222) transition_time 0x5bc-0x5c4 (8)
0x5c0|3c af e0 76                                    |<..v            |
0x5c0|            00 00 00 00 3d bb 72 e6            |    ....=.r.    |      [69]: "2002-10-27T05:00:22Z" (1035694822) transition_time 0x5c4-0x5cc (8)
0x5c0|                                    00 00 00 00|            ....|      [70]: "2003-04-06T06:00:22Z" (1049608822) transition_time 0x5cc-0x5d4 (8)
0x5d0|3e 8f c2 76                                    |>..v            |
0x5d0|            00 00 00 00 3f 9b 54 e6            |    ....?.T.    |      [71]: "2003-10-26T05:00:22Z" (1067144422) transition_time 0x5d4-0x5dc (8)
0x5d0|                                    00 00 00 00|            ....|      [72]: "2004-04-04T06:00:22Z" (1081058422) transition_time 0x5dc-0x5e4 (8)
0x5e0|40 6f a4 76                                    |@o.v            |
0x5e0|            00 00 00 00 41 84 71 66            |    ....A.qf    |      [73]: "2004-10-31T05:00:22Z" (1099198822) transition_time 0x5e4-0x5ec (8)
0x5e0|                                    00 00 00 00|            ....|      [74]: "2005-04-03T06:00:22Z" (1112508022) transition_time 0x5ec-0x5f4 (8)
0x5f0|42 4f 86 76                                    |BO.v            |
0x5f0|            00 00 00 00 43 64 53 66            |    ....CdSf    |      [75]: "2005-10-30T05:00:22Z" (1130648422) transition_time 0x5f4-0x5fc (8)
0x5f0|                                    00 00 00 00|            ....|      [76]: "2006-04-02T06:00:23Z" (1143957623) transition_time 0x5fc-0x604 (8)
0x600|44 2f 68 77                                    |D/hw            |
0x600|            00 00 00 00 45 44 35 67            |    ....ED5g    |      [77]: "2006-10-29T05:00:23Z" (1162098023) transition_time 0x604-0x60c (8)
0x600|                                    00 00 00 00|            ....|      [78]: "2007-03-11T06:00:23Z" (1173592823) transition_time 0x60c-0x614 (8)
0x610|45 f3 9a f7                                    |E...            |
0x610|            00 00 00 00 47 2d 51 e7            |    ....G-Q.    |      [79]: "2007-11-04T05:00:23Z" (1194152423) transition_time 0x614-0x61c (8)
0x610|                                    00 00 00 00|            ....|      [80]: "2008-03-09T06:00:23Z" (1205042423) transition_time 0x61c-0x624 (8)
0x620|47 d3 7c f7                                    |G.|.            |
0x620|            00 00 00 00 49 0d 33 e7            |    ....I.3.    |      [81]: "2008-11-02T05:00:23Z" (1225602023) transition_time 0x624-0x62c (8)
0x620|                                    00 00 00 00|            ....|      [82]: "2009-03-08T06:00:24Z" (1236492024) transition_time 0x62c-0x634 (8)
0x630|49 b3 5e f8                                    |I.^.            |
0x630|            00 00 00 00 4a ed 15 e8            |    ....J...    |      [83]: "2009-11-01T05:00:24Z" (1257051624) transition_time 0x634-0x63c (8)
0x630|                                    00 00 00 00|            ....|      [84]: "2010-03-14T06:00:24Z" (1268546424) transition_time 0x63c-0x644 (8)
0x640|4b 9c 7b 78                                    |K.{x            |
0x640|            00 00 00 00 4c d6 32 68            |    ....L.2h    |      [85]: "2010-11-07T05:00:24Z" (1289106024) transition_time 0x644-0x64c (8)
0x640|                                    00 00 00 00|            ....|      [86]: "2011-03-13T06:00:24Z" (1299996024) transition_time 0x64c-0x654 (8)
0x650|4d 7c 5d 78                                    |M|]x            |
0x650|            00 00 00 00 4e b6 14 68            |    ....N..h    |      [87]: "2011-11-06T05:00:24Z" (1320555624) transition_time 0x654-0x65c (8)
0x650|                                    00 00 00 00|            ....|      [88]: "2012-03-11T06:00:24Z" (1331445624) transition_time 0x65c-0x664 (8)
0x660|4f 5c 3f 78                                    |O\?x            |
0x660|            00 00 00 00 50 95 f6 69            |    ....P..i    |      [89]: "2012-11-04T05:00:25Z" (1352005225) transition_time 0x664-0x66c (8)
0x660|                                    00 00 00 00|            ....|      [90]: "2013-03-10T06:00:25Z" (1362895225) transition_time 0x66c-0x674 (8)
0x670|51 3c 21 79                                    |Q<!y            |
0x670|            00 00 00 00 52 75 d8 69            |    ....Ru.i    |      [91]: "2013-11-03T05:00:25Z" (1383454825) transition_time 0x674-0x67c (8)
0x670|                                    00 00 00 00|            ....|      [92]: "2014-03-09T06:00:25Z" (1394344825) transition_time 0x67c-0x684 (8)
0x680|53 1c 03 79                                    |S..y            |
0x680|            00 00 00 00 54 55 ba 69            |    ....TU.i    |      [93]: "2014-11-02T05:00:25Z" (1414904425) transition_time 0x684-0x68c (8)
0x680|                                    00 00 00 00|            ....|      [94]: "2015-03-08T06:00:25Z" (1425794425) transition_time 0x68c-0x694 (8)
0x690|54 fb e5 79                                    |T..y            |
0x690|            00 00 00 00 56 35 9c 6a            |    ....V5.j    |      [95]: "2015-11-01T05:00:26Z" (1446354026) transition_time 0x694-0x69c (8)
0x690|                                    00 00 00 00|            ....|      [96]: "2016-03-13T06:00:26Z" (1457848826) transition_time 0x69c-0x6a4 (8)
0x6a0|56 e5 01 fa                                    |V...            |
0x6a0|            00 00 00 00 58 1e b8 ea            |    ....X...    |      [97]: "2016-11-06T05:00:26Z" (1478408426) transition_time 0x6a4-0x6ac (8)
0x6a0|                                    00 00 00 00|            ....|      [98]: "2017-03-12T06:00:27Z" (1489298427) transition_time 0x6ac-0x6b4 (8)
0x6b0|58 c4 e3 fb                                    |X...            |
0x6b0|            00 00 00 00 59 fe 9a eb            |    ....Y...    |      [99]: "2017-11-05T05:00:27Z" (1509858027) transition_time 0x6b4-0x6bc (8)
0x6b0|                                    00 00 00 00|            ....|      [100]: "2018-03-11T06:00:27Z" (1520748027) transition_time 0x6bc-0x6c4 (8)
0x6c0|5a a4 c5 fb                                    |Z...            |
0x6c0|            00 00 00 00 5b de 7c eb            |    ....[.|.    |      [101]: "2018-11-04T05:00:27Z" (1541307627) transition_time 0x6c4-0x6cc (8)
0x6c0|                                    00 00 00 00|            ....|      [102]: "2019-03-10T06:00:27Z" (1552197627) transition_time 0x6cc-0x6d4 (8)
0x6d0|5c 84 a7 fb                                    |\...            |
0x6d0|            00 00 00 00 5d be 5e eb            |    ....].^.    |      [103]: "2019-11-03T05:00:27Z" (1572757227) transition_time 0x6d4-0x6dc (8)
0x6d0|                                    00 00 00 00|            ....|      [104]: "2020-03-08T06:00:27Z" (1583647227) transition_time 0x6dc-0x6e4 (8)
0x6e0|5e 64 89 fb                                    |^d..            |
0x6e0|            00 00 00 00 5f 9e 40 eb            |    ...._.@.    |      [105]: "2020-11-01T05:00:27Z" (1604206827) transition_time 0x6e4-0x6ec (8)
0x6e0|                                    00 00 00 00|            ....|      [106]: "2021-03-14T06:00:27Z" (1615701627) transition_time 0x6ec-0x6f4 (8)
0x6f0|60 4d a6 7b                                    |`M.{            |
0x6f0|            00 00 00 00 61 87 5d 6b            |    ....a.]k    |      [107]: "2021-11-07T05:00:27Z" (1636261227) transition_time 0x6f4-0x6fc (8)
0x6f0|                                    00 00 00 00|            ....|      [108]: "2022-03-13T06:00:27Z" (1647151227) transition_time 0x6fc-0x704 (8)
0x700|62 2d 88 7b                                    |b-.{            |
0x700|            00 00 00 00 63 67 3f 6b            |    ....cg?k    |      [109]: "2022-11-06T05:00:27Z" (1667710827) transition_time 0x704-0x70c (8)
0x700|                                    00 00 00 00|            ....|      [110]: "2023-03-12T06:00:27Z" (1678600827) transition_time 0x70c-0x714 (8)
0x710|64 0d 6a 7b                                    |d.j{            |
0x710|            00 00 00 00 64 9b 78 1b            |    ....d.x.    |      [111]: "2023-06-28T00:00:27Z" (1687910427) transition_time 0x714-0x71c (8)
     |                                               |                |    transition_types[0:112]: 0x71c-0x78c (112)
0x710|                                    02         |            .   |      [0]: 2 transition_type 0x71c-0x71d (1)
0x710|                                       01      |             .  |      [1]: 1 transition_type 0x71d-0x71e (1)
0x710|                                          02   |              . |      [2]: 2 transition_type 0x71e-0x71f (1)
0x710|                                             03|               .|      [3]: 3 transition_type 0x71f-0x720 (1)
0x720|04                                             |.               |      [4]: 4 transition_type 0x720-0x721 (1)
0x720|   02                                          | .              |      [5]: 2 transition_type 0x721-0x722 (1)
0x720|      01                                       |  .             |      [6]: 1 transition_type 0x722-0x723 (1)
0x720|         02                                    |   .            |      [7]: 2 transition_type 0x723-0x724 (1)
0x720|            01                                 |    .           |      [8]: 1 transition_type 0x724-0x725 (1)
0x720|               02                              |     .          |      [9]: 2 transition_type 0x725-0x726 (1)
0x720|                  01                           |      .         |      [10]: 1 transition_type 0x726-0x727 (1)
0x720|                     02                        |       .        |      [11]: 2 transition_type 0x727-0x728 (1)
0x720|                        01                     |        .       |      [12]: 1 transition_type 0x728-0x729 (1)
0x720|                           02                  |         .      |      [13]: 2 transition_type 0x729-0x72a (1)
0x720|                              01               |          .     |      [14]: 1 transition_type 0x72a-0x72b (1)
0x720|                                 02            |           .    |      [15]: 2 transition_type 0x72b-0x72c (1)
0x720|                                    01         |            .   |      [16]: 1 transition_type 0x72c-0x72d (1)
0x720|                                       02      |             .  |      [17]: 2 transition_type 0x72d-0x72e (1)
0x720|                                          01   |              . |      [18]: 1 transition_type 0x72e-0x72f (1)
0x720|                                             02|               .|      [19]: 2 transition_type 0x72f-0x730 (1)
0x730|01                                             |.               |      [20]: 1 transition_type 0x730-0x731 (1)
0x730|   02                                          | .              |      [21]: 2 transition_type 0x731-0x732 (1)
0x730|      01                                       |  .             |      [22]: 1 transition_type 0x732-0x733 (1)
0x730|         02                                    |   .            |      [23]: 2 transition_type 0x733-0x734 (1)
0x730|            01                                 |    .           |      [24]: 1 transition_type 0x734-0x735 (1)
0x730|               02                              |     .          |      [25]: 2 transition_type 0x735-0x736 (1)
0x730|                  01                           |      .         |      [26]: 1 transition_type 0x736-0x737 (1)
0x730|                     02                        |       .        |      [27]: 2 transition_type 0x737-0x738 (1)
0x730|                        01                     |        .       |      [28]: 1 transition_type 0x738-0x739 (1)
0x730|                           02                  |         .      |      [29]: 2 transition_type 0x739-0x73a (1)
0x730|                              01               |          .     |      [30]: 1 transition_type 0x73a-0x73b (1)
0x730|                                 02            |           .    |      [31]: 2 transition_type 0x73b-0x73c (1)
0x730|                                    01         |            .   |      [32]: 1 transition_type 0x73c-0x73d (1)
0x730|                                       02      |             .  |      [33]: 2 transition_type 0x73d-0x73e (1)
0x730|                                          01   |              . |      [34]: 1 transition_type 0x73e-0x73f (1)
0x730|                                             02|               .|      [35]: 2 transition_type 0x73f-0x740 (1)
0x740|01                                             |.               |      [36]: 1 transition_type 0x740-0x741 (1)
0x740|   02                                          | .              |      [37]: 2 transition_type 0x741-0x742 (1)
0x740|      01                                       |  .             |      [38]: 1 transition_type 0x742-0x743 (1)
0x740|         02                                    |   .            |      [39]: 2 transition_type 0x743-0x744 (1)
0x740|            01                                 |    .           |      [40]: 1 transition_type 0x744-0x745 (1)
0x740|               02                              |     .          |      [41]: 2 transition_type 0x745-0x746 (1)
0x740|                  01                           |      .         |      [42]: 1 transition_type 0x746-0x747 (1)
0x740|                     02                        |       .        |      [43]: 2 transition_type 0x747-0x748 (1)
0x740|                        01                     |        .       |      [44]: 1 transition_type 0x748-0x749 (1)
0x740|                           02                  |         .      |      [45]: 2 transition_type 0x749-0x74a (1)
0x740|                              01               |          .     |      [46]: 1 transition_type 0x74a-0x74b (1)
0x740|                                 02            |           .    |      [47]: 2 transition_type 0x74b-0x74c (1)
0x740|                                    01         |            .   |      [48]: 1 transition_type 0x74c-0x74d (1)
0x740|                                       02      |             .  |      [49]: 2 transition_type 0x74d-0x74e (1)
0x740|                                          01   |              . |      [50]: 1 transition_type 0x74e-0x74f (1)
0x740|                                             02|               .|      [51]: 2 transition_type 0x74f-0x750 (1)
0x750|01                                             |.               |      [52]: 1 transition_type 0x750-0x751 (1)
0x750|   02                                          | .              |      [53]: 2 transition_type 0x751-0x752 (1)
0x750|      01                                       |  .             |      [54]: 1 transition_type 0x752-0x753 (1)
0x750|         02                                    |   .            |      [55]: 2 transition_type 0x753-0x754 (1)
0x750|            01                                 |    .           |      [56]: 1 transition_type 0x754-0x755 (1)
0x750|               02                              |     .          |      [57]: 2 transition_type 0x755-0x756 (1)
0x750|                  01                           |      .         |      [58]: 1 transition_type 0x756-0x757 (1)
0x750|                     02                        |       .        |      [59]: 2 transition_type 0x757-0x758 (1)
0x750|                        01                     |        .       |      [60]: 1 transition_type 0x758-0x759 (1)
0x750|                           02                  |         .      |      [61]: 2 transition_type 0x759-0x75a (1)
0x750|                              01               |          .     |      [62]: 1 transition_type 0x75a-0x75b (1)
0x750|                                 02            |           .    |      [63]: 2 transition_type 0x75b-0x75c (1)
0x750|                                    01         |            .   |      [64]: 1 transition_type 0x75c-0x75d (1)
0x750|                                       02      |             .  |      [65]: 2 transition_type 0x75d-0x75e (1)
0x750|                                          01   |              . |      [66]: 1 transition_type 0x75e-0x75f (1)
0x750|                                             02|               .|      [67]: 2 transition_type 0x75f-0x760 (1)
0x760|01                                             |.               |      [68]: 1 transition_type 0x760-0x761 (1)
0x760|   02                                          | .              |      [69]: 2 transition_type 0x761-0x762 (1)
0x760|      01                                       |  .             |      [70]: 1 transition_type 0x762-0x763 (1)
0x760|         02                                    |   .            |      [71]: 2 transition_type 0x763-0x764 (1)
0x760|            01                                 |    .           |      [72]: 1 transition_type 0x764-0x765 (1)
0x760|               02                              |     .          |      [73]: 2 transition_type 0x765-0x766 (1)
0x760|                  01                           |      .         |      [74]: 1 transition_type 0x766-0x767 (1)
0x760|                     02                        |       .        |      [75]: 2 transition_type 0x767-0x768 (1)
0x760|                        01                     |        .       |      [76]: 1 transition_type 0x768-0x769 (1)
0x760|                           02                  |         .      |      [77]: 2 transition_type 0x769-0x76a (1)
0x760|                              01               |          .     |      [78]: 1 transition_type 0x76a-0x76b (1)
0x760|                                 02            |           .    |      [79]: 2 transition_type 0x76b-0x76c (1)
0x760|                                    01         |            .   |      [80]: 1 transition_type 0x76c-0x76d (1)
0x760|                                       02      |             .  |      [81]: 2 transition_type 0x76d-0x76e (1)
0x760|                                          01   |              . |      [82]: 1 transition_type 0x76e-0x76f (1)
0x760|                                             02|               .|      [83]: 2 transition_type 0x76f-0x770 (1)
0x770|01                                             |.               |      [84]: 1 transition_type 0x770-0x771 (1)
0x770|   02                                          | .              |      [85]: 2 transition_type 0x771-0x772 (1)
0x770|      01                                       |  .             |      [86]: 1 transition_type 0x772-0x773 (1)
0x770|         02                                    |   .            |      [87]: 2 transition_type 0x773-0x774 (1)
0x770|            01                                 |    .           |      [88]: 1 transition_type 0x774-0x775 (1)
0x770|               02                              |     .          |      [89]: 2 transition_type 0x775-0x776 (1)
0x770|                  01                           |      .         |      [90]: 1 transition_type 0x776-0x777 (1)
0x770|                     02                        |       .        |      [91]: 2 transition_type 0x777-0x778 (1)
0x770|                        01                     |        .       |      [92]: 1 transition_type 0x778-0x779 (1)
0x770|                           02                  |         .      |      [93]: 2 transition_type 0x779-0x77a (1)
0x770|                              01               |          .     |      [94]: 1 transition_type 0x77a-0x77b (1)
0x770|                                 02            |           .    |      [95]: 2 transition_type 0x77b-0x77c (1)
0x770|                                    01         |            .   |      [96]: 1 transition_type 0x77c-0x77d (1)
0x770|                                       02      |             .  |      [97]: 2 transition_type 0x77d-0x77e (1)
0x770|                                          01   |              . |      [98]: 1 transition_type 0x77e-0x77f (1)
0x770|                                             02|               .|      [99]: 2 transition_type 0x77f-0x780 (1)
0x780|01                                             |.               |      [100]: 1 transition_type 0x780-0x781 (1)
0x780|   02                                          | .              |      [101]: 2 transition_type 0x781-0x782 (1)
0x780|      01                                       |  .             |      [102]: 1 transition_type 0x782-0x783 (1)
0x780|         02                                    |   .            |      [103]: 2 transition_type 0x783-0x784 (1)
0x780|            01                                 |    .           |      [104]: 1 transition_type 0x784-0x785 (1)
0x780|               02                              |     .          |      [105]: 2 transition_type 0x785-0x786 (1)
0x780|                  01                           |      .         |      [106]: 1 transition_type 0x786-0x787 (1)
0x780|                     02                        |       .        |      [107]: 2 transition_type 0x787-0x788 (1)
0x780|                        01                     |        .       |      [108]: 1 transition_type 0x788-0x789 (1)
0x780|                           02                  |         .      |      [109]: 2 transition_type 0x789-0x78a (1)
0x780|                              01               |          .     |      [110]: 1 transition_type 0x78a-0x78b (1)
0x780|                                 01            |           .    |      [111]: 1 transition_type 0x78b-0x78c (1)
     |                                               |                |    local_time_type_records[0:5]: 0x78c-0x7aa (30)
     |                                               |                |      [0]{}: local_time_type 0x78c-0x792 (6)
0x780|                                    ff ff c7 cc|            ....|        utoff: -14388 (valid) 0x78c-0x790 (4)
0x790|00                                             |.               |        dst: 0 (valid) 0x790-0x791 (1)
0x790|   00                                          | .              |        idx: 0 (valid) 0x791-0x792 (1)
     |                                               |                |      [1]{}: local_time_type 0x792-0x798 (6)
0x790|      ff ff d5 d0                              |  ....          |        utoff: -10800 (valid) 0x792-0x796 (4)
0x790|                  01                           |      .         |        dst: 1 (valid) 0x796-0x797 (1)
0x790|                     04                        |       .        |        idx: 4 (valid) 0x797-0x798 (1)
     |                                               |                |      [2]{}: local_time_type 0x798-0x79e (6)
0x790|                        ff ff c7 c0            |        ....    |        utoff: -14400 (valid) 0x798-0x79c (4)
0x790|                                    00         |            .   |        dst: 0 (valid) 0x79c-0x79d (1)
0x790|                                       08      |             .  |        idx: 8 (valid) 0x79d-0x79e (1)
     |                                               |                |      [3]{}: local_time_type 0x79e-0x7a4 (6)
0x790|                                          ff ff|              ..|        utoff: -10800 (valid) 0x79e-0x7a2 (4)
0x7a0|d5 d0                                          |..              |
0x7a0|      01                                       |  .             |        dst: 1 (valid) 0x7a2-0x7a3 (1)
0x7a0|         0c                                    |   .            |        idx: 12 (valid) 0x7a3-0x7a4 (1)
     |                                               |                |      [4]{}: local_time_type 0x7a4-0x7aa (6)
0x7a0|            ff ff d5 d0                        |    ....        |        utoff: -10800 (valid) 0x7a4-0x7a8 (4)
0x7a0|                        01                     |        .       |        dst: 1 (valid) 0x7a8-0x7a9 (1)
0x7a0|                           10                  |         .      |        idx: 16 (valid) 0x7a9-0x7aa (1)
     |                                               |                |    time_zone_designations[0:5]: 0x7aa-0x7be (20)
0x7a0|                              4c 4d 54 00      |          LMT.  |      [0]: "LMT" time_zone_designation 0x7aa-0x7ae (4)
0x7a0|                                          41 44|              AD|      [1]: "ADT" time_zone_designation 0x7ae-0x7b2 (4)
0x7b0|54 00                                          |T.              |
0x7b0|      41 53 54 00                              |  AST.          |      [2]: "AST" time_zone_designation 0x7b2-0x7b6 (4)
0x7b0|                  41 57 54 00                  |      AWT.      |      [3]: "AWT" time_zone_designation 0x7b6-0x7ba (4)
0x7b0|                              41 50 54 00      |          APT.  |      [4]: "APT" time_zone_designation 0x7ba-0x7be (4)
     |                                               |                |    leap_second_records[0:27]: 0x7be-0x902 (324)
     |                                               |                |      [0]{}: leap_second_record 0x7be-0x7ca (12)
0x7b0|                                          00 00|              ..|        occur: "1972-07-01T00:00:00Z" (78796800) 0x7be-0x7c6 (8)
0x7c0|00 00 04 b2 58 00                              |....X.          |
0x7c0|                  00 00 00 01                  |      ....      |        corr: 1 0x7c6-0x7ca (4)
     |                                               |                |      [1]{}: leap_second_record 0x7ca-0x7d6 (12)
0x7c0|                              00 00 00 00 05 a4|          ......|        occur: "1973-01-01T00:00:01Z" (94694401) 0x7ca-0x7d2 (8)
0x7d0|ec 01                                          |..              |
0x7d0|      00 00 00 02                              |  ....          |        corr: 2 0x7d2-0x7d6 (4)
     |                                               |                |      [2]{}: leap_second_record 0x7d6-0x7e2 (12)
0x7d0|                  00 00 00 00 07 86 1f 82      |      ........  |        occur: "1974-01-01T00:00:02Z" (126230402) 0x7d6-0x7de (8)
0x7d0|                                          00 00|              ..|        corr: 3 0x7de-0x7e2 (4)
0x7e0|00 03                                          |..              |
     |                                               |                |      [3]{}: leap_second_record 0x7e2-0x7ee (12)
0x7e0|      00 00 00 00 09 67 53 03                  |  .....gS.      |        occur: "1975-01-01T00:00:03Z" (157766403) 0x7e2-0x7ea (8)
0x7e0|                              00 00 00 04      |          ....  |        corr: 4 0x7ea-0x7ee (4)
     |                                               |                |      [4]{}: leap_second_record 0x7ee-0x7fa (12)
0x7e0|                                          00 00|              ..|        occur: "1976-01-01T00:00:04Z" (189302404) 0x7ee-0x7f6 (8)
0x7f0|00 00 0b 48 86 84                              |...H..          |
0x7f0|                  00 00 00 05                  |      ....      |        corr: 5 0x7f6-0x7fa (4)
     |                                               |                |      [5]{}: leap_second_record 0x7fa-0x806 (12)
0x7f0|                              00 00 00 00 0d 2b|          .....+|        occur: "1977-01-01T00:00:05Z" (220924805) 0x7fa-0x802 (8)
0x800|0b 85                                          |..              |
0x800|      00 00 00 06                              |  ....          |        corr: 6 0x802-0x806 (4)
     |                                               |                |      [6]{}: leap_second_record 0x806-0x812 (12)
0x800|                  00 00 00 00 0f 0c 3f 06      |      ......?.  |        occur: "1978-01-01T00:00:06Z" (252460806) 0x806-0x80e (8)
0x800|                                          00 00|              ..|        corr: 7 0x80e-0x812 (4)
0x810|00 07                                          |..              |
     |                                               |                |      [7]{}: leap_second_record 0x812-0x81e (12)
0x810|      00 00 00 00 10 ed 72 87                  |  ......r.      |        occur: "1979-01-01T00:00:07Z" (283996807) 0x812-0x81a (8)
0x810|                              00 00 00 08      |          ....  |        corr: 8 0x81a-0x81e (4)
     |                                               |                |      [8]{}: leap_second_record 0x81e-0x82a (12)
0x810|                                          00 00|              ..|        occur: "1980-01-01T00:00:08Z" (315532808) 0x81e-0x826 (8)
0x820|00 00 12 ce a6 08                              |......          |
0x820|                  00 00 00 09                  |      ....      |        corr: 9 0x826-0x82a (4)
     |                                               |                |      [9]{}: leap_second_record 0x82a-0x836 (12)
0x820|                              00 00 00 00 15 9f|          ......|        occur: "1981-07-01T00:00:09Z" (362793609) 0x82a-0x832 (8)
0x830|ca 89                                          |..              |
0x830|      00 00 00 0a                              |  ....          |        corr: 10 0x832-0x836 (4)
     |                                               |                |      [10]{}: leap_second_record 0x836-0x842 (12)
0x830|                  00 00 00 00 17 80 fe 0a      |      ........  |        occur: "1982-07-01T00:00:10Z" (394329610) 0x836-0x83e (8)
0x830|                                          00 00|              ..|        corr: 11 0x83e-0x842 (4)
0x840|00 0b                                          |..              |
     |                                               |                |      [11]{}: leap_second_record 0x842-0x84e (12)
0x840|      00 00 00 00 19 62 31 8b                  |  .....b1.      |        occur: "1983-07-01T00:00:11Z" (425865611) 0x842-0x84a (8)
0x840|                              00 00 00 0c      |          ....  |        corr: 12 0x84a-0x84e (4)
     |                                               |                |      [12]{}: leap_second_record 0x84e-0x85a (12)
0x840|                                          00 00|              ..|        occur: "1985-07-01T00:00:12Z" (489024012) 0x84e-0x856 (8)
0x850|00 00 1d 25 ea 0c                              |...%..          |
0x850|                  00 00 00 0d                  |      ....      |        corr: 13 0x856-0x85a (4)
     |                                               |                |      [13]{}: leap_second_record 0x85a-0x866 (12)
0x850|                              00 00 00 00 21 da|          ....!.|        occur: "1988-01-01T00:00:13Z" (567993613) 0x85a-0x862 (8)
0x860|e5 0d                                          |..              |
0x860|      00 00 00 0e                              |  ....          |        corr: 14 0x862-0x866 (4)
     |                                               |                |      [14]{}: leap_second_record 0x866-0x872 (12)
0x860|                  00 00 00 00 25 9e 9d 8e      |      ....%...  |        occur: "1990-01-01T00:00:14Z" (631152014) 0x866-0x86e (8)
0x860|                                          00 00|              ..|        corr: 15 0x86e-0x872 (4)
0x870|00 0f                                          |..              |
     |                                               |                |      [15]{}: leap_second_record 0x872-0x87e (12)
0x870|      00 00 00 00 27 7f d1 0f                  |  ....'...      |        occur: "1991-01-01T00:00:15Z" (662688015) 0x872-0x87a (8)
0x870|                              00 00 00 10      |          ....  |        corr: 16 0x87a-0x87e (4)
     |                                               |                |      [16]{}: leap_second_record 0x87e-0x88a (12)
0x870|                                          00 00|              ..|        occur: "1992-07-01T00:00:16Z" (709948816) 0x87e-0x886 (8)
0x880|00 00 2a 50 f5 90                              |..*P..          |
0x880|                  00 00 00 11                  |      ....      |        corr: 17 0x886-0x88a (4)
     |                                               |                |      [17]{}: leap_second_record 0x88a-0x896 (12)
0x880|                              00 00 00 00 2c 32|          ....,2|        occur: "1993-07-01T00:00:17Z" (741484817) 0x88a-0x892 (8)
0x890|29 11                                          |).              |
0x890|      00 00 00 12                              |  ....          |        corr: 18 0x892-0x896 (4)
     |                                               |                |      [18]{}: leap_second_record 0x896-0x8a2 (12)
0x890|                  00 00 00 00 2e 13 5c 92      |      ......\.  |        occur: "1994-07-01T00:00:18Z" (773020818) 0x896-0x89e (8)
0x890|                                          00 00|              ..|        corr: 19 0x89e-0x8a2 (4)
0x8a0|00 13                                          |..              |
     |                                               |                |      [19]{}: leap_second_record 0x8a2-0x8ae (12)
0x8a0|      00 00 00 00 30 e7 24 13                  |  ....0.$.      |        occur: "1996-01-01T00:00:19Z" (820454419) 0x8a2-0x8aa (8)
0x8a0|                              00 00 00 14      |          ....  |        corr: 20 0x8aa-0x8ae (4)
     |                                               |                |      [20]{}: leap_second_record 0x8ae-0x8ba (12)
0x8a0|                                          00 00|              ..|        occur: "1997-07-01T00:00:20Z" (867715220) 0x8ae-0x8b6 (8)
0x8b0|00 00 33 b8 48 94                              |..3.H.          |
0x8b0|                  00 00 00 15                  |      ....      |        corr: 21 0x8b6-0x8ba (4)
     |                                               |                |      [21]{}: leap_second_record 0x8ba-0x8c6 (12)
0x8b0|                              00 00 00 00 36 8c|          ....6.|        occur: "1999-01-01T00:00:21Z" (915148821) 0x8ba-0x8c2 (8)
0x8c0|10 15                                          |..              |
0x8c0|      00 00 00 16                              |  ....          |        corr: 22 0x8c2-0x8c6 (4)
     |                                               |                |      [22]{}: leap_second_record 0x8c6-0x8d2 (12)
0x8c0|                  00 00 00 00 43 b7 1b 96      |      ....C...  |        occur: "2006-01-01T00:00:22Z" (1136073622) 0x8c6-0x8ce (8)
0x8c0|                                          00 00|              ..|        corr: 23 0x8ce-0x8d2 (4)
0x8d0|00 17                                          |..              |
     |                                               |                |      [23]{}: leap_second_record 0x8d2-0x8de (12)
0x8d0|      00 00 00 00 49 5c 07 97                  |  ....I\..      |        occur: "2009-01-01T00:00:23Z" (1230768023) 0x8d2-0x8da (8)
0x8d0|                              00 00 00 18      |          ....  |        corr: 24 0x8da-0x8de (4)
     |                                               |                |      [24]{}: leap_second_record 0x8de-0x8ea (12)
0x8d0|                                          00 00|              ..|        occur: "2012-07-01T00:00:24Z" (1341100824) 0x8de-0x8e6 (8)
0x8e0|00 00 4f ef 93 18                              |..O...          |
0x8e0|                  00 00 00 19                  |      ....      |        corr: 25 0x8e6-0x8ea (4)
     |                                               |                |      [25]{}: leap_second_record 0x8ea-0x8f6 (12)
0x8e0|                              00 00 00 00 55 93|          ....U.|        occur: "2015-07-01T00:00:25Z" (1435708825) 0x8ea-0x8f2 (8)
0x8f0|2d 99                                          |-.              |
0x8f0|      00 00 00 1a                              |  ....          |        corr: 26 0x8f2-0x8f6 (4)
     |                                               |                |      [26]{}: leap_second_record 0x8f6-0x902 (12)
0x8f0|                  00 00 00 00 58 68 46 9a      |      ....XhF.  |        occur: "2017-01-01T00:00:26Z" (1483228826) 0x8f6-0x8fe (8)
0x8f0|                                          00 00|              ..|        corr: 27 0x8fe-0x902 (4)
0x900|00 1b                                          |..              |
     |                                               |                |    standard_wall_indicators[0:5]: 0x902-0x907 (5)
0x900|      00                                       |  .             |      [0]: 0 standard_wall_indicator (valid) 0x902-0x903 (1)
0x900|         00                                    |   .            |      [1]: 0 standard_wall_indicator (valid) 0x903-0x904 (1)
0x900|            00                                 |    .           |      [2]: 0 standard_wall_indicator (valid) 0x904-0x905 (1)
0x900|               00                              |     .          |      [3]: 0 standard_wall_indicator (valid) 0x905-0x906 (1)
0x900|                  01                           |      .         |      [4]: 1 standard_wall_indicator (valid) 0x906-0x907 (1)
     |                                               |                |    ut_local_indicators[0:5]: 0x907-0x90c (5)
0x900|                     00                        |       .        |      [0]: 0 ut_local_indicator (valid) 0x907-0x908 (1)
0x900|                        00                     |        .       |      [1]: 0 ut_local_indicator (valid) 0x908-0x909 (1)
0x900|                           00                  |         .      |      [2]: 0 ut_local_indicator (valid) 0x909-0x90a (1)
0x900|                              00               |          .     |      [3]: 0 ut_local_indicator (valid) 0x90a-0x90b (1)
0x900|                                 01            |           .    |      [4]: 1 ut_local_indicator (valid) 0x90b-0x90c (1)
     |                                               |                |  footer{}: 0x90c-0x90e (2)
0x900|                                    0a         |            .   |    nl1: 10 (valid) 0x90c-0x90d (1)
     |                                               |                |    tz_string: "" 0x90d-0x90d (0)
0x900|                                       0a|     |             .| |    nl2: 10 (valid) 0x90d-0x90e (1)
