$ fq -d tzif dv Goose_Bay
     |00 01 02 03 04 05 06 07 08 09 0a 0b 0c 0d 0e 0f|0123456789abcdef|.{}: Goose_Bay (tzif) 0x0-0xd08 (3336)
     |                                               |                |  v1header{}: 0x0-0x2c (44)
0x000|54 5a 69 66                                    |TZif            |    magic: 0x545a6966 (valid) 0x0-0x4 (4)
0x000|            32                                 |    2           |    ver: "2" (0x32) (valid) 0x4-0x5 (1)
0x000|               00 00 00 00 00 00 00 00 00 00 00|     ...........|    reserved: raw bits 0x5-0x14 (15)
0x010|00 00 00 00                                    |....            |
0x010|            00 00 00 0b                        |    ....        |    isutcnt: 11 0x14-0x18 (4)
0x010|                        00 00 00 0b            |        ....    |    isstdcnt: 11 0x18-0x1c (4)
0x010|                                    00 00 00 1b|            ....|    leapcnt: 27 0x1c-0x20 (4)
0x020|00 00 00 b0                                    |....            |    timecnt: 176 0x20-0x24 (4)
0x020|            00 00 00 0b                        |    ....        |    typecnt: 11 0x24-0x28 (4)
0x020|                        00 00 00 21            |        ...!    |    charcnt: 33 0x28-0x2c (4)
     |                                               |                |  v1datablock{}: 0x2c-0x4ed (1217)
     |                                               |                |    transition_times[0:176]: 0x2c-0x2ec (704)
0x020|                                    80 00 00 00|            ....|      [0]: "1901-12-13T20:45:52Z" (-2147483648) transition_time 0x2c-0x30 (4)
0x030|9e b8 7e 8c                                    |..~.            |      [1]: "1918-04-14T05:30:52Z" (-1632076148) transition_time 0x30-0x34 (4)
0x030|            9f ba d6 7c                        |    ...|        |      [2]: "1918-10-27T04:30:52Z" (-1615145348) transition_time 0x34-0x38 (4)
0x030|                        be 9e 4d 6c            |        ..Ml    |      [3]: "1935-03-30T03:30:52Z" (-1096921748) transition_time 0x38-0x3c (4)
0x030|                                    c0 b8 31 38|            ..18|      [4]: "1936-05-11T03:30:00Z" (-1061670600) transition_time 0x3c-0x40 (4)
0x040|c1 79 ef a8                                    |.y..            |      [5]: "1936-10-05T02:30:00Z" (-1048973400) transition_time 0x40-0x44 (4)
0x040|            c2 98 13 38                        |    ...8        |      [6]: "1937-05-10T03:30:00Z" (-1030221000) transition_time 0x44-0x48 (4)
0x040|                        c3 59 d1 a8            |        .Y..    |      [7]: "1937-10-04T02:30:00Z" (-1017523800) transition_time 0x48-0x4c (4)
0x040|                                    c4 77 f5 38|            .w.8|      [8]: "1938-05-09T03:30:00Z" (-998771400) transition_time 0x4c-0x50 (4)
0x050|c5 39 b3 a8                                    |.9..            |      [9]: "1938-10-03T02:30:00Z" (-986074200) transition_time 0x50-0x54 (4)
0x050|            c6 61 11 b8                        |    .a..        |      [10]: "1939-05-15T03:30:00Z" (-966717000) transition_time 0x54-0x58 (4)
0x050|                        c7 19 95 a8            |        ....    |      [11]: "1939-10-02T02:30:00Z" (-954624600) transition_time 0x58-0x5c (4)
0x050|                                    c8 40 f3 b8|            .@..|      [12]: "1940-05-13T03:30:00Z" (-935267400) transition_time 0x5c-0x60 (4)
0x060|c9 02 b2 28                                    |...(            |      [13]: "1940-10-07T02:30:00Z" (-922570200) transition_time 0x60-0x64 (4)
0x060|            ca 20 d5 b8                        |    . ..        |      [14]: "1941-05-12T03:30:00Z" (-903817800) transition_time 0x64-0x68 (4)
0x060|                        ca e2 94 28            |        ...(    |      [15]: "1941-10-06T02:30:00Z" (-891120600) transition_time 0x68-0x6c (4)
0x060|                                    cc 00 b7 b8|            ....|      [16]: "1942-05-11T03:30:00Z" (-872368200) transition_time 0x6c-0x70 (4)
0x070|d2 23 f4 70                                    |.#.p            |      [17]: "1945-08-14T23:00:00Z" (-769395600) transition_time 0x70-0x74 (4)
0x070|            d2 60 e6 c8                        |    .`..        |      [18]: "1945-09-30T04:30:00Z" (-765401400) transition_time 0x74-0x78 (4)
0x070|                        d3 88 44 d8            |        ..D.    |      [19]: "1946-05-12T05:30:00Z" (-746044200) transition_time 0x78-0x7c (4)
0x070|                                    d4 4a 03 48|            .J.H|      [20]: "1946-10-06T04:30:00Z" (-733347000) transition_time 0x7c-0x80 (4)
0x080|d5 68 26 d8                                    |.h&.            |      [21]: "1947-05-11T05:30:00Z" (-714594600) transition_time 0x80-0x84 (4)
0x080|            d6 29 e5 48                        |    .).H        |      [22]: "1947-10-05T04:30:00Z" (-701897400) transition_time 0x84-0x88 (4)
0x080|                        d7 48 08 d8            |        .H..    |      [23]: "1948-05-09T05:30:00Z" (-683145000) transition_time 0x88-0x8c (4)
0x080|                                    d8 09 c7 48|            ...H|      [24]: "1948-10-03T04:30:00Z" (-670447800) transition_time 0x8c-0x90 (4)
0x090|d9 27 ea d8                                    |.'..            |      [25]: "1949-05-08T05:30:00Z" (-651695400) transition_time 0x90-0x94 (4)
0x090|            d9 e9 a9 48                        |    ...H        |      [26]: "1949-10-02T04:30:00Z" (-638998200) transition_time 0x94-0x98 (4)
0x090|                        db 11 07 58            |        ...X    |      [27]: "1950-05-14T05:30:00Z" (-619641000) transition_time 0x98-0x9c (4)
0x090|                                    db d2 c5 c8|            ....|      [28]: "1950-10-08T04:30:00Z" (-606943800) transition_time 0x9c-0xa0 (4)
0x0a0|dc de 74 58                                    |..tX            |      [29]: "1951-04-29T05:30:00Z" (-589401000) transition_time 0xa0-0xa4 (4)
0x0a0|            dd a9 6d 48                        |    ..mH        |      [30]: "1951-09-30T04:30:00Z" (-576099000) transition_time 0xa4-0xa8 (4)
0x0a0|                        de be 56 58            |        ..VX    |      [31]: "1952-04-27T05:30:00Z" (-557951400) transition_time 0xa8-0xac (4)
0x0a0|                                    df 89 4f 48|            ..OH|      [32]: "1952-09-28T04:30:00Z" (-544649400) transition_time 0xac-0xb0 (4)
0x0b0|e0 9e 38 58                                    |..8X            |      [33]: "1953-04-26T05:30:00Z" (-526501800) transition_time 0xb0-0xb4 (4)
0x0b0|            e1 69 31 48                        |    .i1H        |      [34]: "1953-09-27T04:30:00Z" (-513199800) transition_time 0xb4-0xb8 (4)
0x0b0|                        e2 7e 1a 58            |        .~.X    |      [35]: "1954-04-25T05:30:00Z" (-495052200) transition_time 0xb8-0xbc (4)
0x0b0|                                    e3 49 13 48|            .I.H|      [36]: "1954-09-26T04:30:00Z" (-481750200) transition_time 0xbc-0xc0 (4)
0x0c0|e4 5d fc 58                                    |.].X            |      [37]: "1955-04-24T05:30:00Z" (-463602600) transition_time 0xc0-0xc4 (4)
0x0c0|            e5 28 f5 48                        |    .(.H        |      [38]: "1955-09-25T04:30:00Z" (-450300600) transition_time 0xc4-0xc8 (4)
0x0c0|                        e6 47 18 d8            |        .G..    |      [39]: "1956-04-29T05:30:00Z" (-431548200) transition_time 0xc8-0xcc (4)
0x0c0|                                    e7 12 11 c8|            ....|      [40]: "1956-09-30T04:30:00Z" (-418246200) transition_time 0xcc-0xd0 (4)
0x0d0|e8 26 fa d8                                    |.&..            |      [41]: "1957-04-28T05:30:00Z" (-400098600) transition_time 0xd0-0xd4 (4)
0x0d0|            e8 f1 f3 c8                        |    ....        |      [42]: "1957-09-29T04:30:00Z" (-386796600) transition_time 0xd4-0xd8 (4)
0x0d0|                        ea 06 dc d8            |        ....    |      [43]: "1958-04-27T05:30:00Z" (-368649000) transition_time 0xd8-0xdc (4)
0x0d0|                                    ea d1 d5 c8|            ....|      [44]: "1958-09-28T04:30:00Z" (-355347000) transition_time 0xdc-0xe0 (4)
0x0e0|eb e6 be d8                                    |....            |      [45]: "1959-04-26T05:30:00Z" (-337199400) transition_time 0xe0-0xe4 (4)
0x0e0|            ec b1 b7 c8                        |    ....        |      [46]: "1959-09-27T04:30:00Z" (-323897400) transition_time 0xe4-0xe8 (4)
0x0e0|                        ed c6 a0 d8            |        ....    |      [47]: "1960-04-24T05:30:00Z" (-305749800) transition_time 0xe8-0xec (4)
0x0e0|                                    ee bf be 48|            ...H|      [48]: "1960-10-30T04:30:00Z" (-289423800) transition_time 0xec-0xf0 (4)
0x0f0|ef af bd 58                                    |...X            |      [49]: "1961-04-30T05:30:00Z" (-273695400) transition_time 0xf0-0xf4 (4)
0x0f0|            f0 9f a0 48                        |    ...H        |      [50]: "1961-10-29T04:30:00Z" (-257974200) transition_time 0xf4-0xf8 (4)
0x0f0|                        f1 8f 9f 58            |        ...X    |      [51]: "1962-04-29T05:30:00Z" (-242245800) transition_time 0xf8-0xfc (4)
0x0f0|                                    f2 7f 82 48|            ...H|      [52]: "1962-10-28T04:30:00Z" (-226524600) transition_time 0xfc-0x100 (4)
0x100|f3 6f 81 58                                    |.o.X            |      [53]: "1963-04-28T05:30:00Z" (-210796200) transition_time 0x100-0x104 (4)
0x100|            f4 5f 64 48                        |    ._dH        |      [54]: "1963-10-27T04:30:00Z" (-195075000) transition_time 0x104-0x108 (4)
0x100|                        f5 4f 63 58            |        .OcX    |      [55]: "1964-04-26T05:30:00Z" (-179346600) transition_time 0x108-0x10c (4)
0x100|                                    f6 3f 46 48|            .?FH|      [56]: "1964-10-25T04:30:00Z" (-163625400) transition_time 0x10c-0x110 (4)
0x110|f7 2f 45 58                                    |./EX            |      [57]: "1965-04-25T05:30:00Z" (-147897000) transition_time 0x110-0x114 (4)
0x110|            f8 28 62 c8                        |    .(b.        |      [58]: "1965-10-31T04:30:00Z" (-131571000) transition_time 0x114-0x118 (4)
0x110|                        f8 da 6b 58            |        ..kX    |      [59]: "1966-03-15T05:30:00Z" (-119903400) transition_time 0x118-0x11c (4)
0x110|                                    f9 0f 2e 60|            ...`|      [60]: "1966-04-24T06:00:00Z" (-116445600) transition_time 0x11c-0x120 (4)
0x120|fa 08 4b d0                                    |..K.            |      [61]: "1966-10-30T05:00:00Z" (-100119600) transition_time 0x120-0x124 (4)
0x120|            fa f8 4a e0                        |    ..J.        |      [62]: "1967-04-30T06:00:00Z" (-84391200) transition_time 0x124-0x128 (4)
0x120|                        fb e8 2d d0            |        ..-.    |      [63]: "1967-10-29T05:00:00Z" (-68670000) transition_time 0x128-0x12c (4)
0x120|                                    fc d8 2c e0|            ..,.|      [64]: "1968-04-28T06:00:00Z" (-52941600) transition_time 0x12c-0x130 (4)
0x130|fd c8 0f d0                                    |....            |      [65]: "1968-10-27T05:00:00Z" (-37220400) transition_time 0x130-0x134 (4)
0x130|            fe b8 0e e0                        |    ....        |      [66]: "1969-04-27T06:00:00Z" (-21492000) transition_time 0x134-0x138 (4)
0x130|                        ff a7 f1 d0            |        ....    |      [67]: "1969-10-26T05:00:00Z" (-5770800) transition_time 0x138-0x13c (4)
0x130|                                    00 97 f0 e0|            ....|      [68]: "1970-04-26T06:00:00Z" (9957600) transition_time 0x13c-0x140 (4)
0x140|01 87 d3 d0                                    |....            |      [69]: "1970-10-25T05:00:00Z" (25678800) transition_time 0x140-0x144 (4)
0x140|            02 77 d2 e0                        |    .w..        |      [70]: "1971-04-25T06:00:00Z" (41407200) transition_time 0x144-0x148 (4)
0x140|                        03 70 f0 50            |        .p.P    |      [71]: "1971-10-31T05:00:00Z" (57733200) transition_time 0x148-0x14c (4)
0x140|                                    04 60 ef 60|            .`.`|      [72]: "1972-04-30T06:00:00Z" (73461600) transition_time 0x14c-0x150 (4)
0x150|05 50 d2 51                                    |.P.Q            |      [73]: "1972-10-29T05:00:01Z" (89182801) transition_time 0x150-0x154 (4)
0x150|            06 40 d1 62                        |    .@.b        |      [74]: "1973-04-29T06:00:02Z" (104911202) transition_time 0x154-0x158 (4)
0x150|                        07 30 b4 52            |        .0.R    |      [75]: "1973-10-28T05:00:02Z" (120632402) transition_time 0x158-0x15c (4)
0x150|                                    08 20 b3 63|            . .c|      [76]: "1974-04-28T06:00:03Z" (136360803) transition_time 0x15c-0x160 (4)
0x160|09 10 96 53                                    |...S            |      [77]: "1974-10-27T05:00:03Z" (152082003) transition_time 0x160-0x164 (4)
0x160|            0a 00 95 64                        |    ...d        |      [78]: "1975-04-27T06:00:04Z" (167810404) transition_time 0x164-0x168 (4)
0x160|                        0a f0 78 54            |        ..xT    |      [79]: "1975-10-26T05:00:04Z" (183531604) transition_time 0x168-0x16c (4)
0x160|                                    0b e0 77 65|            ..we|      [80]: "1976-04-25T06:00:05Z" (199260005) transition_time 0x16c-0x170 (4)
0x170|0c d9 94 d5                                    |....            |      [81]: "1976-10-31T05:00:05Z" (215586005) transition_time 0x170-0x174 (4)
0x170|            0d c0 59 66                        |    ..Yf        |      [82]: "1977-04-24T06:00:06Z" (230709606) transition_time 0x174-0x178 (4)
0x170|                        0e b9 76 d6            |        ..v.    |      [83]: "1977-10-30T05:00:06Z" (247035606) transition_time 0x178-0x17c (4)
0x170|                                    0f a9 75 e7|            ..u.|      [84]: "1978-04-30T06:00:07Z" (262764007) transition_time 0x17c-0x180 (4)
0x180|10 99 58 d7                                    |..X.            |      [85]: "1978-10-29T05:00:07Z" (278485207) transition_time 0x180-0x184 (4)
0x180|            11 89 57 e8                        |    ..W.        |      [86]: "1979-04-29T06:00:08Z" (294213608) transition_time 0x184-0x188 (4)
0x180|                        12 79 3a d8            |        .y:.    |      [87]: "1979-10-28T05:00:08Z" (309934808) transition_time 0x188-0x18c (4)
0x180|                                    13 69 39 e9|            .i9.|      [88]: "1980-04-27T06:00:09Z" (325663209) transition_time 0x18c-0x190 (4)
0x190|14 59 1c d9                                    |.Y..            |      [89]: "1980-10-26T05:00:09Z" (341384409) transition_time 0x190-0x194 (4)
0x190|            15 49 1b e9                        |    .I..        |      [90]: "1981-04-26T06:00:09Z" (357112809) transition_time 0x194-0x198 (4)
0x190|                        16 38 fe da            |        .8..    |      [91]: "1981-10-25T05:00:10Z" (372834010) transition_time 0x198-0x19c (4)
0x190|                                    17 28 fd ea|            .(..|      [92]: "1982-04-25T06:00:10Z" (388562410) transition_time 0x19c-0x1a0 (4)
0x1a0|18 22 1b 5b                                    |.".[            |      [93]: "1982-10-31T05:00:11Z" (404888411) transition_time 0x1a0-0x1a4 (4)
0x1a0|            19 08 df eb                        |    ....        |      [94]: "1983-04-24T06:00:11Z" (420012011) transition_time 0x1a4-0x1a8 (4)
0x1a0|                        1a 01 fd 5c            |        ...\    |      [95]: "1983-10-30T05:00:12Z" (436338012) transition_time 0x1a8-0x1ac (4)
0x1a0|                                    1a f1 fc 6c|            ...l|      [96]: "1984-04-29T06:00:12Z" (452066412) transition_time 0x1ac-0x1b0 (4)
0x1b0|1b e1 df 5c                                    |...\            |      [97]: "1984-10-28T05:00:12Z" (467787612) transition_time 0x1b0-0x1b4 (4)
0x1b0|            1c d1 de 6c                        |    ...l        |      [98]: "1985-04-28T06:00:12Z" (483516012) transition_time 0x1b4-0x1b8 (4)
0x1b0|                        1d c1 c1 5d            |        ...]    |      [99]: "1985-10-27T05:00:13Z" (499237213) transition_time 0x1b8-0x1bc (4)
0x1b0|                                    1e b1 c0 6d|            ...m|      [100]: "1986-04-27T06:00:13Z" (514965613) transition_time 0x1bc-0x1c0 (4)
0x1c0|1f a1 a3 5d                                    |...]            |      [101]: "1986-10-26T05:00:13Z" (530686813) transition_time 0x1c0-0x1c4 (4)
0x1c0|            20 75 d7 09                        |     u..        |      [102]: "1987-04-05T04:01:13Z" (544593673) transition_time 0x1c4-0x1c8 (4)
0x1c0|                        21 81 69 79            |        !.iy    |      [103]: "1987-10-25T03:01:13Z" (562129273) transition_time 0x1c8-0x1cc (4)
0x1c0|                                    22 55 b9 0a|            "U..|      [104]: "1988-04-03T04:01:14Z" (576043274) transition_time 0x1cc-0x1d0 (4)
0x1d0|23 6a 77 ea                                    |#jw.            |      [105]: "1988-10-30T02:01:14Z" (594180074) transition_time 0x1d0-0x1d4 (4)
0x1d0|            24 35 9b 0a                        |    $5..        |      [106]: "1989-04-02T04:01:14Z" (607492874) transition_time 0x1d4-0x1d8 (4)
0x1d0|                        25 4a 67 fa            |        %Jg.    |      [107]: "1989-10-29T03:01:14Z" (625633274) transition_time 0x1d8-0x1dc (4)
0x1d0|                                    26 15 7d 0b|            &.}.|      [108]: "1990-04-01T04:01:15Z" (638942475) transition_time 0x1dc-0x1e0 (4)
0x1e0|27 2a 49 fb                                    |'*I.            |      [109]: "1990-10-28T03:01:15Z" (657082875) transition_time 0x1e0-0x1e4 (4)
0x1e0|            27 fe 99 8c                        |    '...        |      [110]: "1991-04-07T04:01:16Z" (670996876) transition_time 0x1e4-0x1e8 (4)
0x1e0|                        29 0a 2b fc            |        ).+.    |      [111]: "1991-10-27T03:01:16Z" (688532476) transition_time 0x1e8-0x1ec (4)
0x1e0|                                    29 de 7b 8c|            ).{.|      [112]: "1992-04-05T04:01:16Z" (702446476) transition_time 0x1ec-0x1f0 (4)
0x1f0|2a ea 0d fd                                    |*...            |      [113]: "1992-10-25T03:01:17Z" (719982077) transition_time 0x1f0-0x1f4 (4)
0x1f0|            2b be 5d 8d                        |    +.].        |      [114]: "1993-04-04T04:01:17Z" (733896077) transition_time 0x1f4-0x1f8 (4)
0x1f0|                        2c d3 2a 7e            |        ,.*~    |      [115]: "1993-10-31T03:01:18Z" (752036478) transition_time 0x1f8-0x1fc (4)
0x1f0|                                    2d 9e 3f 8e|            -.?.|      [116]: "1994-04-03T04:01:18Z" (765345678) transition_time 0x1fc-0x200 (4)
0x200|2e b3 0c 7f                                    |....            |      [117]: "1994-10-30T03:01:19Z" (783486079) transition_time 0x200-0x204 (4)
0x200|            2f 7e 21 8f                        |    /~!.        |      [118]: "1995-04-02T04:01:19Z" (796795279) transition_time 0x204-0x208 (4)
0x200|                        30 92 ee 7f            |        0...    |      [119]: "1995-10-29T03:01:19Z" (814935679) transition_time 0x208-0x20c (4)
0x200|                                    31 67 3e 10|            1g>.|      [120]: "1996-04-07T04:01:20Z" (828849680) transition_time 0x20c-0x210 (4)
0x210|32 72 d0 80                                    |2r..            |      [121]: "1996-10-27T03:01:20Z" (846385280) transition_time 0x210-0x214 (4)
0x210|            33 47 20 10                        |    3G .        |      [122]: "1997-04-06T04:01:20Z" (860299280) transition_time 0x214-0x218 (4)
0x210|                        34 52 b2 81            |        4R..    |      [123]: "1997-10-26T03:01:21Z" (877834881) transition_time 0x218-0x21c (4)
0x210|                                    35 27 02 11|            5'..|      [124]: "1998-04-05T04:01:21Z" (891748881) transition_time 0x21c-0x220 (4)
0x220|36 32 94 81                                    |62..            |      [125]: "1998-10-25T03:01:21Z" (909284481) transition_time 0x220-0x224 (4)
0x220|            37 06 e4 12                        |    7...        |      [126]: "1999-04-04T04:01:22Z" (923198482) transition_time 0x224-0x228 (4)
0x220|                        38 1b b1 02            |        8...    |      [127]: "1999-10-31T03:01:22Z" (941338882) transition_time 0x228-0x22c (4)
0x220|                                    38 e6 c6 12|            8...|      [128]: "2000-04-02T04:01:22Z" (954648082) transition_time 0x22c-0x230 (4)
0x230|39 fb 93 02                                    |9...            |      [129]: "2000-10-29T03:01:22Z" (972788482) transition_time 0x230-0x234 (4)
0x230|            3a c6 a8 12                        |    :...        |      [130]: "2001-04-01T04:01:22Z" (986097682) transition_time 0x234-0x238 (4)
0x230|                        3b db 75 02            |        ;.u.    |      [131]: "2001-10-28T03:01:22Z" (1004238082) transition_time 0x238-0x23c (4)
0x230|                                    3c af c4 92|            <...|      [132]: "2002-04-07T04:01:22Z" (1018152082) transition_time 0x23c-0x240 (4)
0x240|3d bb 57 02                                    |=.W.            |      [133]: "2002-10-27T03:01:22Z" (1035687682) transition_time 0x240-0x244 (4)
0x240|            3e 8f a6 92                        |    >...        |      [134]: "2003-04-06T04:01:22Z" (1049601682) transition_time 0x244-0x248 (4)
0x240|                        3f 9b 39 02            |        ?.9.    |      [135]: "2003-10-26T03:01:22Z" (1067137282) transition_time 0x248-0x24c (4)
0x240|                                    40 6f 88 92|            @o..|      [136]: "2004-04-04T04:01:22Z" (1081051282) transition_time 0x24c-0x250 (4)
0x250|41 84 55 82                                    |A.U.            |      [137]: "2004-10-31T03:01:22Z" (1099191682) transition_time 0x250-0x254 (4)
0x250|            42 4f 6a 92                        |    BOj.        |      [138]: "2005-04-03T04:01:22Z" (1112500882) transition_time 0x254-0x258 (4)
0x250|                        43 64 37 82            |        Cd7.    |      [139]: "2005-10-30T03:01:22Z" (1130641282) transition_time 0x258-0x25c (4)
0x250|                                    44 2f 4c 93|            D/L.|      [140]: "2006-04-02T04:01:23Z" (1143950483) transition_time 0x25c-0x260 (4)
0x260|45 44 19 83                                    |ED..            |      [141]: "2006-10-29T03:01:23Z" (1162090883) transition_time 0x260-0x264 (4)
0x260|            45 f3 7f 13                        |    E...        |      [142]: "2007-03-11T04:01:23Z" (1173585683) transition_time 0x264-0x268 (4)
0x260|                        47 2d 36 03            |        G-6.    |      [143]: "2007-11-04T03:01:23Z" (1194145283) transition_time 0x268-0x26c (4)
0x260|                                    47 d3 61 13|            G.a.|      [144]: "2008-03-09T04:01:23Z" (1205035283) transition_time 0x26c-0x270 (4)
0x270|49 0d 18 03                                    |I...            |      [145]: "2008-11-02T03:01:23Z" (1225594883) transition_time 0x270-0x274 (4)
0x270|            49 b3 43 14                        |    I.C.        |      [146]: "2009-03-08T04:01:24Z" (1236484884) transition_time 0x274-0x278 (4)
0x270|                        4a ec fa 04            |        J...    |      [147]: "2009-11-01T03:01:24Z" (1257044484) transition_time 0x278-0x27c (4)
0x270|                                    4b 9c 5f 94|            K._.|      [148]: "2010-03-14T04:01:24Z" (1268539284) transition_time 0x27c-0x280 (4)
0x280|4c d6 16 84                                    |L...            |      [149]: "2010-11-07T03:01:24Z" (1289098884) transition_time 0x280-0x284 (4)
0x280|            4d 7c 41 94                        |    M|A.        |      [150]: "2011-03-13T04:01:24Z" (1299988884) transition_time 0x284-0x288 (4)
0x280|                        4e b6 14 68            |        N..h    |      [151]: "2011-11-06T05:00:24Z" (1320555624) transition_time 0x288-0x28c (4)
0x280|                                    4f 5c 3f 78|            O\?x|      [152]: "2012-03-11T06:00:24Z" (1331445624) transition_time 0x28c-0x290 (4)
0x290|50 95 f6 69                                    |P..i            |      [153]: "2012-11-04T05:00:25Z" (1352005225) transition_time 0x290-0x294 (4)
0x290|            51 3c 21 79                        |    Q<!y        |      [154]: "2013-03-10T06:00:25Z" (1362895225) transition_time 0x294-0x298 (4)
0x290|                        52 75 d8 69            |        Ru.i    |      [155]: "2013-11-03T05:00:25Z" (1383454825) transition_time 0x298-0x29c (4)
0x290|                                    53 1c 03 79|            S..y|      [156]: "2014-03-09T06:00:25Z" (1394344825) transition_time 0x29c-0x2a0 (4)
0x2a0|54 55 ba 69                                    |TU.i            |      [157]: "2014-11-02T05:00:25Z" (1414904425) transition_time 0x2a0-0x2a4 (4)
0x2a0|            54 fb e5 79                        |    T..y        |      [158]: "2015-03-08T06:00:25Z" (1425794425) transition_time 0x2a4-0x2a8 (4)
0x2a0|                        56 35 9c 6a            |        V5.j    |      [159]: "2015-11-01T05:00:26Z" (1446354026) transition_time 0x2a8-0x2ac (4)
0x2a0|                                    56 e5 01 fa|            V...|      [160]: "2016-03-13T06:00:26Z" (1457848826) transition_time 0x2ac-0x2b0 (4)
0x2b0|58 1e b8 ea                                    |X...            |      [161]: "2016-11-06T05:00:26Z" (1478408426) transition_time 0x2b0-0x2b4 (4)
0x2b0|            58 c4 e3 fb                        |    X...        |      [162]: "2017-03-12T06:00:27Z" (1489298427) transition_time 0x2b4-0x2b8 (4)
0x2b0|                        59 fe 9a eb            |        Y...    |      [163]: "2017-11-05T05:00:27Z" (1509858027) transition_time 0x2b8-0x2bc (4)
0x2b0|                                    5a a4 c5 fb|            Z...|      [164]: "2018-03-11T06:00:27Z" (1520748027) transition_time 0x2bc-0x2c0 (4)
0x2c0|5b de 7c eb                                    |[.|.            |      [165]: "2018-11-04T05:00:27Z" (1541307627) transition_time 0x2c0-0x2c4 (4)
0x2c0|            5c 84 a7 fb                        |    \...        |      [166]: "2019-03-10T06:00:27Z" (1552197627) transition_time 0x2c4-0x2c8 (4)
0x2c0|                        5d be 5e eb            |        ].^.    |      [167]: "2019-11-03T05:00:27Z" (1572757227) transition_time 0x2c8-0x2cc (4)
0x2c0|                                    5e 64 89 fb|            ^d..|      [168]: "2020-03-08T06:00:27Z" (1583647227) transition_time 0x2cc-0x2d0 (4)
0x2d0|5f 9e 40 eb                                    |_.@.            |      [169]: "2020-11-01T05:00:27Z" (1604206827) transition_time 0x2d0-0x2d4 (4)
0x2d0|            60 4d a6 7b                        |    `M.{        |      [170]: "2021-03-14T06:00:27Z" (1615701627) transition_time 0x2d4-0x2d8 (4)
0x2d0|                        61 87 5d 6b            |        a.]k    |      [171]: "2021-11-07T05:00:27Z" (1636261227) transition_time 0x2d8-0x2dc (4)
0x2d0|                                    62 2d 88 7b|            b-.{|      [172]: "2022-03-13T06:00:27Z" (1647151227) transition_time 0x2dc-0x2e0 (4)
0x2e0|63 67 3f 6b                                    |cg?k            |      [173]: "2022-11-06T05:00:27Z" (1667710827) transition_time 0x2e0-0x2e4 (4)
0x2e0|            64 0d 6a 7b                        |    d.j{        |      [174]: "2023-03-12T06:00:27Z" (1678600827) transition_time 0x2e4-0x2e8 (4)
0x2e0|                        64 9b 78 1b            |        d.x.    |      [175]: "2023-06-28T00:00:27Z" (1687910427) transition_time 0x2e8-0x2ec (4)
     |                                               |                |    transition_types[0:176]: 0x2ec-0x39c (176)
0x2e0|                                    01         |            .   |      [0]: 1 transition_type 0x2ec-0x2ed (1)
0x2e0|                                       02      |             .  |      [1]: 2 transition_type 0x2ed-0x2ee (1)
0x2e0|                                          01   |              . |      [2]: 1 transition_type 0x2ee-0x2ef (1)
0x2e0|                                             03|               .|      [3]: 3 transition_type 0x2ef-0x2f0 (1)
0x2f0|04                                             |.               |      [4]: 4 transition_type 0x2f0-0x2f1 (1)
0x2f0|   03                                          | .              |      [5]: 3 transition_type 0x2f1-0x2f2 (1)
0x2f0|      04                                       |  .             |      [6]: 4 transition_type 0x2f2-0x2f3 (1)
0x2f0|         03                                    |   .            |      [7]: 3 transition_type 0x2f3-0x2f4 (1)
0x2f0|            04                                 |    .           |      [8]: 4 transition_type 0x2f4-0x2f5 (1)
0x2f0|               03                              |     .          |      [9]: 3 transition_type 0x2f5-0x2f6 (1)
0x2f0|                  04                           |      .         |      [10]: 4 transition_type 0x2f6-0x2f7 (1)
0x2f0|                     03                        |       .        |      [11]: 3 transition_type 0x2f7-0x2f8 (1)
0x2f0|                        04                     |        .       |      [12]: 4 transition_type 0x2f8-0x2f9 (1)
0x2f0|                           03                  |         .      |      [13]: 3 transition_type 0x2f9-0x2fa (1)
0x2f0|                              04               |          .     |      [14]: 4 transition_type 0x2fa-0x2fb (1)
0x2f0|                                 03            |           .    |      [15]: 3 transition_type 0x2fb-0x2fc (1)
0x2f0|                                    06         |            .   |      [16]: 6 transition_type 0x2fc-0x2fd (1)
0x2f0|                                       05      |             .  |      [17]: 5 transition_type 0x2fd-0x2fe (1)
0x2f0|                                          03   |              . |      [18]: 3 transition_type 0x2fe-0x2ff (1)
0x2f0|                                             04|               .|      [19]: 4 transition_type 0x2ff-0x300 (1)
0x300|03                                             |.               |      [20]: 3 transition_type 0x300-0x301 (1)
0x300|   04                                          | .              |      [21]: 4 transition_type 0x301-0x302 (1)
0x300|      03                                       |  .             |      [22]: 3 transition_type 0x302-0x303 (1)
0x300|         04                                    |   .            |      [23]: 4 transition_type 0x303-0x304 (1)
0x300|            03                                 |    .           |      [24]: 3 transition_type 0x304-0x305 (1)
0x300|               04                              |     .          |      [25]: 4 transition_type 0x305-0x306 (1)
0x300|                  03                           |      .         |      [26]: 3 transition_type 0x306-0x307 (1)
0x300|                     04                        |       .        |      [27]: 4 transition_type 0x307-0x308 (1)
0x300|                        03                     |        .       |      [28]: 3 transition_type 0x308-0x309 (1)
0x300|                           04                  |         .      |      [29]: 4 transition_type 0x309-0x30a (1)
0x300|                              03               |          .     |      [30]: 3 transition_type 0x30a-0x30b (1)
0x300|                                 04            |           .    |      [31]: 4 transition_type 0x30b-0x30c (1)
0x300|                                    03         |            .   |      [32]: 3 transition_type 0x30c-0x30d (1)
0x300|                                       04      |             .  |      [33]: 4 transition_type 0x30d-0x30e (1)
0x300|                                          03   |              . |      [34]: 3 transition_type 0x30e-0x30f (1)
0x300|                                             04|               .|      [35]: 4 transition_type 0x30f-0x310 (1)
0x310|03                                             |.               |      [36]: 3 transition_type 0x310-0x311 (1)
0x310|   04                                          | .              |      [37]: 4 transition_type 0x311-0x312 (1)
0x310|      03                                       |  .             |      [38]: 3 transition_type 0x312-0x313 (1)
0x310|         04                                    |   .            |      [39]: 4 transition_type 0x313-0x314 (1)
0x310|            03                                 |    .           |      [40]: 3 transition_type 0x314-0x315 (1)
0x310|               04                              |     .          |      [41]: 4 transition_type 0x315-0x316 (1)
0x310|                  03                           |      .         |      [42]: 3 transition_type 0x316-0x317 (1)
0x310|                     04                        |       .        |      [43]: 4 transition_type 0x317-0x318 (1)
0x310|                        03                     |        .       |      [44]: 3 transition_type 0x318-0x319 (1)
0x310|                           04                  |         .      |      [45]: 4 transition_type 0x319-0x31a (1)
0x310|                              03               |          .     |      [46]: 3 transition_type 0x31a-0x31b (1)
0x310|                                 04            |           .    |      [47]: 4 transition_type 0x31b-0x31c (1)
0x310|                                    03         |            .   |      [48]: 3 transition_type 0x31c-0x31d (1)
0x310|                                       04      |             .  |      [49]: 4 transition_type 0x31d-0x31e (1)
0x310|                                          03   |              . |      [50]: 3 transition_type 0x31e-0x31f (1)
0x310|                                             04|               .|      [51]: 4 transition_type 0x31f-0x320 (1)
0x320|03                                             |.               |      [52]: 3 transition_type 0x320-0x321 (1)
0x320|   04                                          | .              |      [53]: 4 transition_type 0x321-0x322 (1)
0x320|      03                                       |  .             |      [54]: 3 transition_type 0x322-0x323 (1)
0x320|         04                                    |   .            |      [55]: 4 transition_type 0x323-0x324 (1)
0x320|            03                                 |    .           |      [56]: 3 transition_type 0x324-0x325 (1)
0x320|               04                              |     .          |      [57]: 4 transition_type 0x325-0x326 (1)
0x320|                  03                           |      .         |      [58]: 3 transition_type 0x326-0x327 (1)
0x320|                     08                        |       .        |      [59]: 8 transition_type 0x327-0x328 (1)
0x320|                        07                     |        .       |      [60]: 7 transition_type 0x328-0x329 (1)
0x320|                           08                  |         .      |      [61]: 8 transition_type 0x329-0x32a (1)
0x320|                              07               |          .     |      [62]: 7 transition_type 0x32a-0x32b (1)
0x320|                                 08            |           .    |      [63]: 8 transition_type 0x32b-0x32c (1)
0x320|                                    07         |            .   |      [64]: 7 transition_type 0x32c-0x32d (1)
0x320|                                       08      |             .  |      [65]: 8 transition_type 0x32d-0x32e (1)
0x320|                                          07   |              . |      [66]: 7 transition_type 0x32e-0x32f (1)
0x320|                                             08|               .|      [67]: 8 transition_type 0x32f-0x330 (1)
0x330|07                                             |.               |      [68]: 7 transition_type 0x330-0x331 (1)
0x330|   08                                          | .              |      [69]: 8 transition_type 0x331-0x332 (1)
0x330|      07                                       |  .             |      [70]: 7 transition_type 0x332-0x333 (1)
0x330|         08                                    |   .            |      [71]: 8 transition_type 0x333-0x334 (1)
0x330|            07                                 |    .           |      [72]: 7 transition_type 0x334-0x335 (1)
0x330|               08                              |     .          |      [73]: 8 transition_type 0x335-0x336 (1)
0x330|                  07                           |      .         |      [74]: 7 transition_type 0x336-0x337 (1)
0x330|                     08                        |       .        |      [75]: 8 transition_type 0x337-0x338 (1)
0x330|                        07                     |        .       |      [76]: 7 transition_type 0x338-0x339 (1)
0x330|                           08                  |         .      |      [77]: 8 transition_type 0x339-0x33a (1)
0x330|                              07               |          .     |      [78]: 7 transition_type 0x33a-0x33b (1)
0x330|                                 08            |           .    |      [79]: 8 transition_type 0x33b-0x33c (1)
0x330|                                    07         |            .   |      [80]: 7 transition_type 0x33c-0x33d (1)
0x330|                                       08      |             .  |      [81]: 8 transition_type 0x33d-0x33e (1)
0x330|                                          07   |              . |      [82]: 7 transition_type 0x33e-0x33f (1)
0x330|                                             08|               .|      [83]: 8 transition_type 0x33f-0x340 (1)
0x340|07                                             |.               |      [84]: 7 transition_type 0x340-0x341 (1)
0x340|   08                                          | .              |      [85]: 8 transition_type 0x341-0x342 (1)
0x340|      07                                       |  .             |      [86]: 7 transition_type 0x342-0x343 (1)
0x340|         08                                    |   .            |      [87]: 8 transition_type 0x343-0x344 (1)
0x340|            07                                 |    .           |      [88]: 7 transition_type 0x344-0x345 (1)
0x340|               08                              |     .          |      [89]: 8 transition_type 0x345-0x346 (1)
0x340|                  07                           |      .         |      [90]: 7 transition_type 0x346-0x347 (1)
0x340|                     08                        |       .        |      [91]: 8 transition_type 0x347-0x348 (1)
0x340|                        07                     |        .       |      [92]: 7 transition_type 0x348-0x349 (1)
0x340|                           08                  |         .      |      [93]: 8 transition_type 0x349-0x34a (1)
0x340|                              07               |          .     |      [94]: 7 transition_type 0x34a-0x34b (1)
0x340|                                 08            |           .    |      [95]: 8 transition_type 0x34b-0x34c (1)
0x340|                                    07         |            .   |      [96]: 7 transition_type 0x34c-0x34d (1)
0x340|                                       08      |             .  |      [97]: 8 transition_type 0x34d-0x34e (1)
0x340|                                          07   |              . |      [98]: 7 transition_type 0x34e-0x34f (1)
0x340|                                             08|               .|      [99]: 8 transition_type 0x34f-0x350 (1)
0x350|07                                             |.               |      [100]: 7 transition_type 0x350-0x351 (1)
0x350|   08                                          | .              |      [101]: 8 transition_type 0x351-0x352 (1)
0x350|      07                                       |  .             |      [102]: 7 transition_type 0x352-0x353 (1)
0x350|         08                                    |   .            |      [103]: 8 transition_type 0x353-0x354 (1)
0x350|            09                                 |    .           |      [104]: 9 transition_type 0x354-0x355 (1)
0x350|               08                              |     .          |      [105]: 8 transition_type 0x355-0x356 (1)
0x350|                  07                           |      .         |      [106]: 7 transition_type 0x356-0x357 (1)
0x350|                     08                        |       .        |      [107]: 8 transition_type 0x357-0x358 (1)
0x350|                        07                     |        .       |      [108]: 7 transition_type 0x358-0x359 (1)
0x350|                           08                  |         .      |      [109]: 8 transition_type 0x359-0x35a (1)
0x350|                              07               |          .     |      [110]: 7 transition_type 0x35a-0x35b (1)
0x350|                                 08            |           .    |      [111]: 8 transition_type 0x35b-0x35c (1)
0x350|                                    07         |            .   |      [112]: 7 transition_type 0x35c-0x35d (1)
0x350|                                       08      |             .  |      [113]: 8 transition_type 0x35d-0x35e (1)
0x350|                                          07   |              . |      [114]: 7 transition_type 0x35e-0x35f (1)
0x350|                                             08|               .|      [115]: 8 transition_type 0x35f-0x360 (1)
0x360|07                                             |.               |      [116]: 7 transition_type 0x360-0x361 (1)
0x360|   08                                          | .              |      [117]: 8 transition_type 0x361-0x362 (1)
0x360|      07                                       |  .             |      [118]: 7 transition_type 0x362-0x363 (1)
0x360|         08                                    |   .            |      [119]: 8 transition_type 0x363-0x364 (1)
0x360|            07                                 |    .           |      [120]: 7 transition_type 0x364-0x365 (1)
0x360|               08                              |     .          |      [121]: 8 transition_type 0x365-0x366 (1)
0x360|                  07                           |      .         |      [122]: 7 transition_type 0x366-0x367 (1)
0x360|                     08                        |       .        |      [123]: 8 transition_type 0x367-0x368 (1)
0x360|                        07                     |        .       |      [124]: 7 transition_type 0x368-0x369 (1)
0x360|                           08                  |         .      |      [125]: 8 transition_type 0x369-0x36a (1)
0x360|                              07               |          .     |      [126]: 7 transition_type 0x36a-0x36b (1)
0x360|                                 08            |           .    |      [127]: 8 transition_type 0x36b-0x36c (1)
0x360|                                    07         |            .   |      [128]: 7 transition_type 0x36c-0x36d (1)
0x360|                                       08      |             .  |      [129]: 8 transition_type 0x36d-0x36e (1)
0x360|                                          07   |              . |      [130]: 7 transition_type 0x36e-0x36f (1)
0x360|                                             08|               .|      [131]: 8 transition_type 0x36f-0x370 (1)
0x370|07                                             |.               |      [132]: 7 transition_type 0x370-0x371 (1)
0x370|   08                                          | .              |      [133]: 8 transition_type 0x371-0x372 (1)
0x370|      07                                       |  .             |      [134]: 7 transition_type 0x372-0x373 (1)
0x370|         08                                    |   .            |      [135]: 8 transition_type 0x373-0x374 (1)
0x370|            07                                 |    .           |      [136]: 7 transition_type 0x374-0x375 (1)
0x370|               08                              |     .          |      [137]: 8 transition_type 0x375-0x376 (1)
0x370|                  07                           |      .         |      [138]: 7 transition_type 0x376-0x377 (1)
0x370|                     08                        |       .        |      [139]: 8 transition_type 0x377-0x378 (1)
0x370|                        07                     |        .       |      [140]: 7 transition_type 0x378-0x379 (1)
0x370|                           08                  |         .      |      [141]: 8 transition_type 0x379-0x37a (1)
0x370|                              07               |          .     |      [142]: 7 transition_type 0x37a-0x37b (1)
0x370|                                 08            |           .    |      [143]: 8 transition_type 0x37b-0x37c (1)
0x370|                                    07         |            .   |      [144]: 7 transition_type 0x37c-0x37d (1)
0x370|                                       08      |             .  |      [145]: 8 transition_type 0x37d-0x37e (1)
0x370|                                          07   |              . |      [146]: 7 transition_type 0x37e-0x37f (1)
0x370|                                             08|               .|      [147]: 8 transition_type 0x37f-0x380 (1)
0x380|07                                             |.               |      [148]: 7 transition_type 0x380-0x381 (1)
0x380|   08                                          | .              |      [149]: 8 transition_type 0x381-0x382 (1)
0x380|      07                                       |  .             |      [150]: 7 transition_type 0x382-0x383 (1)
0x380|         08                                    |   .            |      [151]: 8 transition_type 0x383-0x384 (1)
0x380|            07                                 |    .           |      [152]: 7 transition_type 0x384-0x385 (1)
0x380|               08                              |     .          |      [153]: 8 transition_type 0x385-0x386 (1)
0x380|                  07                           |      .         |      [154]: 7 transition_type 0x386-0x387 (1)
0x380|                     08                        |       .        |      [155]: 8 transition_type 0x387-0x388 (1)
0x380|                        07                     |        .       |      [156]: 7 transition_type 0x388-0x389 (1)
0x380|                           08                  |         .      |      [157]: 8 transition_type 0x389-0x38a (1)
0x380|                              07               |          .     |      [158]: 7 transition_type 0x38a-0x38b (1)
0x380|                                 08            |           .    |      [159]: 8 transition_type 0x38b-0x38c (1)
0x380|                                    07         |            .   |      [160]: 7 transition_type 0x38c-0x38d (1)
0x380|                                       08      |             .  |      [161]: 8 transition_type 0x38d-0x38e (1)
0x380|                                          07   |              . |      [162]: 7 transition_type 0x38e-0x38f (1)
0x380|                                             08|               .|      [163]: 8 transition_type 0x38f-0x390 (1)
0x390|07                                             |.               |      [164]: 7 transition_type 0x390-0x391 (1)
0x390|   08                                          | .              |      [165]: 8 transition_type 0x391-0x392 (1)
0x390|      07                                       |  .             |      [166]: 7 transition_type 0x392-0x393 (1)
0x390|         08                                    |   .            |      [167]: 8 transition_type 0x393-0x394 (1)
0x390|            07                                 |    .           |      [168]: 7 transition_type 0x394-0x395 (1)
0x390|               08                              |     .          |      [169]: 8 transition_type 0x395-0x396 (1)
0x390|                  07                           |      .         |      [170]: 7 transition_type 0x396-0x397 (1)
0x390|                     08                        |       .        |      [171]: 8 transition_type 0x397-0x398 (1)
0x390|                        07                     |        .       |      [172]: 7 transition_type 0x398-0x399 (1)
0x390|                           08                  |         .      |      [173]: 8 transition_type 0x399-0x39a (1)
0x390|                              07               |          .     |      [174]: 7 transition_type 0x39a-0x39b (1)
0x390|                                 07            |           .    |      [175]: 7 transition_type 0x39b-0x39c (1)
     |                                               |                |    local_time_type_records[0:11]: 0x39c-0x3de (66)
     |                                               |                |      [0]{}: local_time_type 0x39c-0x3a2 (6)
0x390|                                    ff ff c7 5c|            ...\|        utoff: -14500 (valid) 0x39c-0x3a0 (4)
0x3a0|00                                             |.               |        dst: 0 (valid) 0x3a0-0x3a1 (1)
0x3a0|   00                                          | .              |        idx: 0 (valid) 0x3a1-0x3a2 (1)
     |                                               |                |      [1]{}: local_time_type 0x3a2-0x3a8 (6)
0x3a0|      ff ff ce 94                              |  ....          |        utoff: -12652 (valid) 0x3a2-0x3a6 (4)
0x3a0|                  00                           |      .         |        dst: 0 (valid) 0x3a6-0x3a7 (1)
0x3a0|                     04                        |       .        |        idx: 4 (valid) 0x3a7-0x3a8 (1)
     |                                               |                |      [2]{}: local_time_type 0x3a8-0x3ae (6)
0x3a0|                        ff ff dc a4            |        ....    |        utoff: -9052 (valid) 0x3a8-0x3ac (4)
0x3a0|                                    01         |            .   |        dst: 1 (valid) 0x3ac-0x3ad (1)
0x3a0|                                       08      |             .  |        idx: 8 (valid) 0x3ad-0x3ae (1)
     |                                               |                |      [3]{}: local_time_type 0x3ae-0x3b4 (6)
0x3a0|                                          ff ff|              ..|        utoff: -12600 (valid) 0x3ae-0x3b2 (4)
0x3b0|ce c8                                          |..              |
0x3b0|      00                                       |  .             |        dst: 0 (valid) 0x3b2-0x3b3 (1)
0x3b0|         04                                    |   .            |        idx: 4 (valid) 0x3b3-0x3b4 (1)
     |                                               |                |      [4]{}: local_time_type 0x3b4-0x3ba (6)
0x3b0|            ff ff dc d8                        |    ....        |        utoff: -9000 (valid) 0x3b4-0x3b8 (4)
0x3b0|                        01                     |        .       |        dst: 1 (valid) 0x3b8-0x3b9 (1)
0x3b0|                           08                  |         .      |        idx: 8 (valid) 0x3b9-0x3ba (1)
     |                                               |                |      [5]{}: local_time_type 0x3ba-0x3c0 (6)
0x3b0|                              ff ff dc d8      |          ....  |        utoff: -9000 (valid) 0x3ba-0x3be (4)
0x3b0|                                          01   |              . |        dst: 1 (valid) 0x3be-0x3bf (1)
0x3b0|                                             0c|               .|        idx: 12 (valid) 0x3bf-0x3c0 (1)
     |                                               |                |      [6]{}: local_time_type 0x3c0-0x3c6 (6)
0x3c0|ff ff dc d8                                    |....            |        utoff: -9000 (valid) 0x3c0-0x3c4 (4)
0x3c0|            01                                 |    .           |        dst: 1 (valid) 0x3c4-0x3c5 (1)
0x3c0|               10                              |     .          |        idx: 16 (valid) 0x3c5-0x3c6 (1)
     |                                               |                |      [7]{}: local_time_type 0x3c6-0x3cc (6)
0x3c0|                  ff ff d5 d0                  |      ....      |        utoff: -10800 (valid) 0x3c6-0x3ca (4)
0x3c0|                              01               |          .     |        dst: 1 (valid) 0x3ca-0x3cb (1)
0x3c0|                                 14            |           .    |        idx: 20 (valid) 0x3cb-0x3cc (1)
     |                                               |                |      [8]{}: local_time_type 0x3cc-0x3d2 (6)
0x3c0|                                    ff ff c7 c0|            ....|        utoff: -14400 (valid) 0x3cc-0x3d0 (4)
0x3d0|00                                             |.               |        dst: 0 (valid) 0x3d0-0x3d1 (1)
0x3d0|   18                                          | .              |        idx: 24 (valid) 0x3d1-0x3d2 (1)
     |                                               |                |      [9]{}: local_time_type 0x3d2-0x3d8 (6)
0x3d0|      ff ff e3 e0                              |  ....          |        utoff: -7200 (valid) 0x3d2-0x3d6 (4)
0x3d0|                  01                           |      .         |        dst: 1 (valid) 0x3d6-0x3d7 (1)
0x3d0|                     1c                        |       .        |        idx: 28 (valid) 0x3d7-0x3d8 (1)
     |                                               |                |      [10]{}: local_time_type 0x3d8-0x3de (6)
0x3d0|                        ff ff d5 d0            |        ....    |        utoff: -10800 (valid) 0x3d8-0x3dc (4)
0x3d0|                                    01         |            .   |        dst: 1 (valid) 0x3dc-0x3dd (1)
0x3d0|                                       14      |             .  |        idx: 20 (valid) 0x3dd-0x3de (1)
     |                                               |                |    time_zone_designations[0:8]: 0x3de-0x3ff (33)
0x3d0|                                          4c 4d|              LM|      [0]: "LMT" time_zone_designation 0x3de-0x3e2 (4)
0x3e0|54 00                                          |T.              |
0x3e0|      4e 53 54 00                              |  NST.          |      [1]: "NST" time_zone_designation 0x3e2-0x3e6 (4)
0x3e0|                  4e 44 54 00                  |      NDT.      |      [2]: "NDT" time_zone_designation 0x3e6-0x3ea (4)
0x3e0|                              4e 50 54 00      |          NPT.  |      [3]: "NPT" time_zone_designation 0x3ea-0x3ee (4)
0x3e0|                                          4e 57|              NW|      [4]: "NWT" time_zone_designation 0x3ee-0x3f2 (4)
0x3f0|54 00                                          |T.              |
0x3f0|      41 44 54 00                              |  ADT.          |      [5]: "ADT" time_zone_designation 0x3f2-0x3f6 (4)
0x3f0|                  41 53 54 00                  |      AST.      |      [6]: "AST" time_zone_designation 0x3f6-0x3fa (4)
0x3f0|                              41 44 44 54 00   |          ADDT. |      [7]: "ADDT" time_zone_designation 0x3fa-0x3ff (5)
     |                                               |                |    leap_second_records[0:27]: 0x3ff-0x4d7 (216)
     |                                               |                |      [0]{}: leap_second_record 0x3ff-0x407 (8)
0x3f0|                                             04|               .|        occur: "1972-07-01T00:00:00Z" (78796800) 0x3ff-0x403 (4)
0x400|b2 58 00                                       |.X.             |
0x400|         00 00 00 01                           |   ....         |        corr: 1 0x403-0x407 (4)
     |                                               |                |      [1]{}: leap_second_record 0x407-0x40f (8)
0x400|                     05 a4 ec 01               |       ....     |        occur: "1973-01-01T00:00:01Z" (94694401) 0x407-0x40b (4)
0x400|                                 00 00 00 02   |           .... |        corr: 2 0x40b-0x40f (4)
     |                                               |                |      [2]{}: leap_second_record 0x40f-0x417 (8)
0x400|                                             07|               .|        occur: "1974-01-01T00:00:02Z" (126230402) 0x40f-0x413 (4)
0x410|86 1f 82                                       |...             |
0x410|         00 00 00 03                           |   ....         |        corr: 3 0x413-0x417 (4)
     |                                               |                |      [3]{}: leap_second_record 0x417-0x41f (8)
0x410|                     09 67 53 03               |       .gS.     |        occur: "1975-01-01T00:00:03Z" (157766403) 0x417-0x41b (4)
0x410|                                 00 00 00 04   |           .... |        corr: 4 0x41b-0x41f (4)
     |                                               |                |      [4]{}: leap_second_record 0x41f-0x427 (8)
0x410|                                             0b|               .|        occur: "1976-01-01T00:00:04Z" (189302404) 0x41f-0x423 (4)
0x420|48 86 84                                       |H..             |
0x420|         00 00 00 05                           |   ....         |        corr: 5 0x423-0x427 (4)
     |                                               |                |      [5]{}: leap_second_record 0x427-0x42f (8)
0x420|                     0d 2b 0b 85               |       .+..     |        occur: "1977-01-01T00:00:05Z" (220924805) 0x427-0x42b (4)
0x420|                                 00 00 00 06   |           .... |        corr: 6 0x42b-0x42f (4)
     |                                               |                |      [6]{}: leap_second_record 0x42f-0x437 (8)
0x420|                                             0f|               .|        occur: "1978-01-01T00:00:06Z" (252460806) 0x42f-0x433 (4)
0x430|0c 3f 06                                       |.?.             |
0x430|         00 00 00 07                           |   ....         |        corr: 7 0x433-0x437 (4)
     |                                               |                |      [7]{}: leap_second_record 0x437-0x43f (8)
0x430|                     10 ed 72 87               |       ..r.     |        occur: "1979-01-01T00:00:07Z" (283996807) 0x437-0x43b (4)
0x430|                                 00 00 00 08   |           .... |        corr: 8 0x43b-0x43f (4)
     |                                               |                |      [8]{}: leap_second_record 0x43f-0x447 (8)
0x430|                                             12|               .|        occur: "1980-01-01T00:00:08Z" (315532808) 0x43f-0x443 (4)
0x440|ce a6 08                                       |...             |
0x440|         00 00 00 09                           |   ....         |        corr: 9 0x443-0x447 (4)
     |                                               |                |      [9]{}: leap_second_record 0x447-0x44f (8)
0x440|                     15 9f ca 89               |       ....     |        occur: "1981-07-01T00:00:09Z" (362793609) 0x447-0x44b (4)
0x440|                                 00 00 00 0a   |           .... |        corr: 10 0x44b-0x44f (4)
     |                                               |                |      [10]{}: leap_second_record 0x44f-0x457 (8)
0x440|                                             17|               .|        occur: "1982-07-01T00:00:10Z" (394329610) 0x44f-0x453 (4)
0x450|80 fe 0a                                       |...             |
0x450|         00 00 00 0b                           |   ....         |        corr: 11 0x453-0x457 (4)
     |                                               |                |      [11]{}: leap_second_record 0x457-0x45f (8)
0x450|                     19 62 31 8b               |       .b1.     |        occur: "1983-07-01T00:00:11Z" (425865611) 0x457-0x45b (4)
0x450|                                 00 00 00 0c   |           .... |        corr: 12 0x45b-0x45f (4)
     |                                               |                |      [12]{}: leap_second_record 0x45f-0x467 (8)
0x450|                                             1d|               .|        occur: "1985-07-01T00:00:12Z" (489024012) 0x45f-0x463 (4)
0x460|25 ea 0c                                       |%..             |
0x460|         00 00 00 0d                           |   ....         |        corr: 13 0x463-0x467 (4)
     |                                               |                |      [13]{}: leap_second_record 0x467-0x46f (8)
0x460|                     21 da e5 0d               |       !...     |        occur: "1988-01-01T00:00:13Z" (567993613) 0x467-0x46b (4)
0x460|                                 00 00 00 0e   |           .... |        corr: 14 0x46b-0x46f (4)
     |                                               |                |      [14]{}: leap_second_record 0x46f-0x477 (8)
0x460|                                             25|               %|        occur: "1990-01-01T00:00:14Z" (631152014) 0x46f-0x473 (4)
0x470|9e 9d 8e                                       |...             |
0x470|         00 00 00 0f                           |   ....         |        corr: 15 0x473-0x477 (4)
     |                                               |                |      [15]{}: leap_second_record 0x477-0x47f (8)
0x470|                     27 7f d1 0f               |       '...     |        occur: "1991-01-01T00:00:15Z" (662688015) 0x477-0x47b (4)
0x470|                                 00 00 00 10   |           .... |        corr: 16 0x47b-0x47f (4)
     |                                               |                |      [16]{}: leap_second_record 0x47f-0x487 (8)
0x470|                                             2a|               *|        occur: "1992-07-01T00:00:16Z" (709948816) 0x47f-0x483 (4)
0x480|50 f5 90                                       |P..             |
0x480|         00 00 00 11                           |   ....         |        corr: 17 0x483-0x487 (4)
     |                                               |                |      [17]{}: leap_second_record 0x487-0x48f (8)
0x480|                     2c 32 29 11               |       ,2).     |        occur: "1993-07-01T00:00:17Z" (741484817) 0x487-0x48b (4)
0x480|                                 00 00 00 12   |           .... |        corr: 18 0x48b-0x48f (4)
     |                                               |                |      [18]{}: leap_second_record 0x48f-0x497 (8)
0x480|                                             2e|               .|        occur: "1994-07-01T00:00:18Z" (773020818) 0x48f-0x493 (4)
0x490|13 5c 92                                       |.\.             |
0x490|         00 00 00 13                           |   ....         |        corr: 19 0x493-0x497 (4)
     |                                               |                |      [19]{}: leap_second_record 0x497-0x49f (8)
0x490|                     30 e7 24 13               |       0.$.     |        occur: "1996-01-01T00:00:19Z" (820454419) 0x497-0x49b (4)
0x490|                                 00 00 00 14   |           .... |        corr: 20 0x49b-0x49f (4)
     |                                               |                |      [20]{}: leap_second_record 0x49f-0x4a7 (8)
0x490|                                             33|               3|        occur: "1997-07-01T00:00:20Z" (867715220) 0x49f-0x4a3 (4)
0x4a0|b8 48 94                                       |.H.             |
0x4a0|         00 00 00 15                           |   ....         |        corr: 21 0x4a3-0x4a7 (4)
     |                                               |                |      [21]{}: leap_second_record 0x4a7-0x4af (8)
0x4a0|                     36 8c 10 15               |       6...     |        occur: "1999-01-01T00:00:21Z" (915148821) 0x4a7-0x4ab (4)
0x4a0|                                 00 00 00 16   |           .... |        corr: 22 0x4ab-0x4af (4)
     |                                               |                |      [22]{}: leap_second_record 0x4af-0x4b7 (8)
0x4a0|                                             43|               C|        occur: "2006-01-01T00:00:22Z" (1136073622) 0x4af-0x4b3 (4)
0x4b0|b7 1b 96                                       |...             |
0x4b0|         00 00 00 17                           |   ....         |        corr: 23 0x4b3-0x4b7 (4)
     |                                               |                |      [23]{}: leap_second_record 0x4b7-0x4bf (8)
0x4b0|                     49 5c 07 97               |       I\..     |        occur: "2009-01-01T00:00:23Z" (1230768023) 0x4b7-0x4bb (4)
0x4b0|                                 00 00 00 18   |           .... |        corr: 24 0x4bb-0x4bf (4)
     |                                               |                |      [24]{}: leap_second_record 0x4bf-0x4c7 (8)
0x4b0|                                             4f|               O|        occur: "2012-07-01T00:00:24Z" (1341100824) 0x4bf-0x4c3 (4)
0x4c0|ef 93 18                                       |...             |
0x4c0|         00 00 00 19                           |   ....         |        corr: 25 0x4c3-0x4c7 (4)
     |                                               |                |      [25]{}: leap_second_record 0x4c7-0x4cf (8)
0x4c0|                     55 93 2d 99               |       U.-.     |        occur: "2015-07-01T00:00:25Z" (1435708825) 0x4c7-0x4cb (4)
0x4c0|                                 00 00 00 1a   |           .... |        corr: 26 0x4cb-0x4cf (4)
     |                                               |                |      [26]{}: leap_second_record 0x4cf-0x4d7 (8)
0x4c0|                                             58|               X|        occur: "2017-01-01T00:00:26Z" (1483228826) 0x4cf-0x4d3 (4)
0x4d0|68 46 9a                                       |hF.             |
0x4d0|         00 00 00 1b                           |   ....         |        corr: 27 0x4d3-0x4d7 (4)
     |                                               |                |    standard_wall_indicators[0:11]: 0x4d7-0x4e2 (11)
0x4d0|                     00                        |       .        |      [0]: 0 standard_wall_indicator (valid) 0x4d7-0x4d8 (1)
0x4d0|                        00                     |        .       |      [1]: 0 standard_wall_indicator (valid) 0x4d8-0x4d9 (1)
0x4d0|                           00                  |         .      |      [2]: 0 standard_wall_indicator (valid) 0x4d9-0x4da (1)
0x4d0|                              00               |          .     |      [3]: 0 standard_wall_indicator (valid) 0x4da-0x4db (1)
0x4d0|                                 00            |           .    |      [4]: 0 standard_wall_indicator (valid) 0x4db-0x4dc (1)
0x4d0|                                    01         |            .   |      [5]: 1 standard_wall_indicator (valid) 0x4dc-0x4dd (1)
0x4d0|                                       00      |             .  |      [6]: 0 standard_wall_indicator (valid) 0x4dd-0x4de (1)
0x4d0|                                          00   |              . |      [7]: 0 standard_wall_indicator (valid) 0x4de-0x4df (1)
0x4d0|                                             00|               .|      [8]: 0 standard_wall_indicator (valid) 0x4df-0x4e0 (1)
0x4e0|00                                             |.               |      [9]: 0 standard_wall_indicator (valid) 0x4e0-0x4e1 (1)
0x4e0|   00                                          | .              |      [10]: 0 standard_wall_indicator (valid) 0x4e1-0x4e2 (1)
     |                                               |                |    ut_local_indicators[0:11]: 0x4e2-0x4ed (11)
0x4e0|      00                                       |  .             |      [0]: 0 ut_local_indicator (valid) 0x4e2-0x4e3 (1)
0x4e0|         00                                    |   .            |      [1]: 0 ut_local_indicator (valid) 0x4e3-0x4e4 (1)
0x4e0|            00                                 |    .           |      [2]: 0 ut_local_indicator (valid) 0x4e4-0x4e5 (1)
0x4e0|               00                              |     .          |      [3]: 0 ut_local_indicator (valid) 0x4e5-0x4e6 (1)
0x4e0|                  00                           |      .         |      [4]: 0 ut_local_indicator (valid) 0x4e6-0x4e7 (1)
0x4e0|                     01                        |       .        |      [5]: 1 ut_local_indicator (valid) 0x4e7-0x4e8 (1)
0x4e0|                        00                     |        .       |      [6]: 0 ut_local_indicator (valid) 0x4e8-0x4e9 (1)
0x4e0|                           00                  |         .      |      [7]: 0 ut_local_indicator (valid) 0x4e9-0x4ea (1)
0x4e0|                              00               |          .     |      [8]: 0 ut_local_indicator (valid) 0x4ea-0x4eb (1)
0x4e0|                                 00            |           .    |      [9]: 0 ut_local_indicator (valid) 0x4eb-0x4ec (1)
0x4e0|                                    00         |            .   |      [10]: 0 ut_local_indicator (valid) 0x4ec-0x4ed (1)
     |                                               |                |  v2plusheader{}: 0x4ed-0x519 (44)
0x4e0|                                       54 5a 69|             TZi|    magic: 0x545a6966 (valid) 0x4ed-0x4f1 (4)
0x4f0|66                                             |f               |
0x4f0|   32                                          | 2              |    ver: "2" (0x32) (valid) 0x4f1-0x4f2 (1)
0x4f0|      00 00 00 00 00 00 00 00 00 00 00 00 00 00|  ..............|    reserved: raw bits 0x4f2-0x501 (15)
0x500|00                                             |.               |
0x500|   00 00 00 0b                                 | ....           |    isutcnt: 11 0x501-0x505 (4)
0x500|               00 00 00 0b                     |     ....       |    isstdcnt: 11 0x505-0x509 (4)
0x500|                           00 00 00 1b         |         ....   |    leapcnt: 27 0x509-0x50d (4)
0x500|                                       00 00 00|             ...|    timecnt: 176 0x50d-0x511 (4)
0x510|b0                                             |.               |
0x510|   00 00 00 0b                                 | ....           |    typecnt: 11 0x511-0x515 (4)
0x510|               00 00 00 21                     |     ...!       |    charcnt: 33 0x515-0x519 (4)
     |                                               |                |  v2plusdatablock{}: 0x519-0xd06 (2029)
     |                                               |                |    transition_times[0:176]: 0x519-0xa99 (1408)
0x510|                           ff ff ff ff 5e 3d 3c|         ....^=<|      [0]: "1884-01-01T04:01:40Z" (-2713895900) transition_time 0x519-0x521 (8)
0x520|24                                             |$               |
0x520|   ff ff ff ff 9e b8 7e 8c                     | ......~.       |      [1]: "1918-04-14T05:30:52Z" (-1632076148) transition_time 0x521-0x529 (8)
0x520|                           ff ff ff ff 9f ba d6|         .......|      [2]: "1918-10-27T04:30:52Z" (-1615145348) transition_time 0x529-0x531 (8)
0x530|7c                                             ||               |
0x530|   ff ff ff ff be 9e 4d 6c                     | ......Ml       |      [3]: "1935-03-30T03:30:52Z" (-1096921748) transition_time 0x531-0x539 (8)
0x530|                           ff ff ff ff c0 b8 31|         ......1|      [4]: "1936-05-11T03:30:00Z" (-1061670600) transition_time 0x539-0x541 (8)
0x540|38                                             |8               |
0x540|   ff ff ff ff c1 79 ef a8                     | .....y..       |      [5]: "1936-10-05T02:30:00Z" (-1048973400) transition_time 0x541-0x549 (8)
0x540|                           ff ff ff ff c2 98 13|         .......|      [6]: "1937-05-10T03:30:00Z" (-1030221000) transition_time 0x549-0x551 (8)
0x550|38                                             |8               |
0x550|   ff ff ff ff c3 59 d1 a8                     | .....Y..       |      [7]: "1937-10-04T02:30:00Z" (-1017523800) transition_time 0x551-0x559 (8)
0x550|                           ff ff ff ff c4 77 f5|         .....w.|      [8]: "1938-05-09T03:30:00Z" (-998771400) transition_time 0x559-0x561 (8)
0x560|38                                             |8               |
0x560|   ff ff ff ff c5 39 b3 a8                     | .....9..       |      [9]: "1938-10-03T02:30:00Z" (-986074200) transition_time 0x561-0x569 (8)
0x560|                           ff ff ff ff c6 61 11|         .....a.|      [10]: "1939-05-15T03:30:00Z" (-966717000) transition_time 0x569-0x571 (8)
0x570|b8                                             |.               |
0x570|   ff ff ff ff c7 19 95 a8                     | ........       |      [11]: "1939-10-02T02:30:00Z" (-954624600) transition_time 0x571-0x579 (8)
0x570|                           ff ff ff ff c8 40 f3|         .....@.|      [12]: "1940-05-13T03:30:00Z" (-935267400) transition_time 0x579-0x581 (8)
0x580|b8                                             |.               |
0x580|   ff ff ff ff c9 02 b2 28                     | .......(       |      [13]: "1940-10-07T02:30:00Z" (-922570200) transition_time 0x581-0x589 (8)
0x580|                           ff ff ff ff ca 20 d5|         ..... .|      [14]: "1941-05-12T03:30:00Z" (-903817800) transition_time 0x589-0x591 (8)
0x590|b8                                             |.               |
0x590|   ff ff ff ff ca e2 94 28                     | .......(       |      [15]: "1941-10-06T02:30:00Z" (-891120600) transition_time 0x591-0x599 (8)
0x590|                           ff ff ff ff cc 00 b7|         .......|      [16]: "1942-05-11T03:30:00Z" (-872368200) transition_time 0x599-0x5a1 (8)
0x5a0|b8                                             |.               |
0x5a0|   ff ff ff ff d2 23 f4 70                     | .....#.p       |      [17]: "1945-08-14T23:00:00Z" (-769395600) transition_time 0x5a1-0x5a9 (8)
0x5a0|                           ff ff ff ff d2 60 e6|         .....`.|      [18]: "1945-09-30T04:30:00Z" (-765401400) transition_time 0x5a9-0x5b1 (8)
0x5b0|c8                                             |.               |
0x5b0|   ff ff ff ff d3 88 44 d8                     | ......D.       |      [19]: "1946-05-12T05:30:00Z" (-746044200) transition_time 0x5b1-0x5b9 (8)
0x5b0|                           ff ff ff ff d4 4a 03|         .....J.|      [20]: "1946-10-06T04:30:00Z" (-733347000) transition_time 0x5b9-0x5c1 (8)
0x5c0|48                                             |H               |
0x5c0|   ff ff ff ff d5 68 26 d8                     | .....h&.       |      [21]: "1947-05-11T05:30:00Z" (-714594600) transition_time 0x5c1-0x5c9 (8)
0x5c0|                           ff ff ff ff d6 29 e5|         .....).|      [22]: "1947-10-05T04:30:00Z" (-701897400) transition_time 0x5c9-0x5d1 (8)
0x5d0|48                                             |H               |
0x5d0|   ff ff ff ff d7 48 08 d8                     | .....H..       |      [23]: "1948-05-09T05:30:00Z" (-683145000) transition_time 0x5d1-0x5d9 (8)
0x5d0|                           ff ff ff ff d8 09 c7|         .......|      [24]: "1948-10-03T04:30:00Z" (-670447800) transition_time 0x5d9-0x5e1 (8)
0x5e0|48                                             |H               |
0x5e0|   ff ff ff ff d9 27 ea d8                     | .....'..       |      [25]: "1949-05-08T05:30:00Z" (-651695400) transition_time 0x5e1-0x5e9 (8)
0x5e0|                           ff ff ff ff d9 e9 a9|         .......|      [26]: "1949-10-02T04:30:00Z" (-638998200) transition_time 0x5e9-0x5f1 (8)
0x5f0|48                                             |H               |
0x5f0|   ff ff ff ff db 11 07 58                     | .......X       |      [27]: "1950-05-14T05:30:00Z" (-619641000) transition_time 0x5f1-0x5f9 (8)
0x5f0|                           ff ff ff ff db d2 c5|         .......|      [28]: "1950-10-08T04:30:00Z" (-606943800) transition_time 0x5f9-0x601 (8)
0x600|c8                                             |.               |
0x600|   ff ff ff ff dc de 74 58                     | ......tX       |      [29]: "1951-04-29T05:30:00Z" (-589401000) transition_time 0x601-0x609 (8)
0x600|                           ff ff ff ff dd a9 6d|         ......m|      [30]: "1951-09-30T04:30:00Z" (-576099000) transition_time 0x609-0x611 (8)
0x610|48                                             |H               |
0x610|   ff ff ff ff de be 56 58                     | ......VX       |      [31]: "1952-04-27T05:30:00Z" (-557951400) transition_time 0x611-0x619 (8)
0x610|                           ff ff ff ff df 89 4f|         ......O|      [32]: "1952-09-28T04:30:00Z" (-544649400) transition_time 0x619-0x621 (8)
0x620|48                                             |H               |
0x620|   ff ff ff ff e0 9e 38 58                     | ......8X       |      [33]: "1953-04-26T05:30:00Z" (-526501800) transition_time 0x621-0x629 (8)
0x620|                           ff ff ff ff e1 69 31|         .....i1|      [34]: "1953-09-27T04:30:00Z" (-513199800) transition_time 0x629-0x631 (8)
0x630|48                                             |H               |
0x630|   ff ff ff ff e2 7e 1a 58                     | .....~.X       |      [35]: "1954-04-25T05:30:00Z" (-495052200) transition_time 0x631-0x639 (8)
0x630|                           ff ff ff ff e3 49 13|         .....I.|      [36]: "1954-09-26T04:30:00Z" (-481750200) transition_time 0x639-0x641 (8)
0x640|48                                             |H               |
0x640|   ff ff ff ff e4 5d fc 58                     | .....].X       |      [37]: "1955-04-24T05:30:00Z" (-463602600) transition_time 0x641-0x649 (8)
0x640|                           ff ff ff ff e5 28 f5|         .....(.|      [38]: "1955-09-25T04:30:00Z" (-450300600) transition_time 0x649-0x651 (8)
0x650|48                                             |H               |
0x650|   ff ff ff ff e6 47 18 d8                     | .....G..       |      [39]: "1956-04-29T05:30:00Z" (-431548200) transition_time 0x651-0x659 (8)
0x650|                           ff ff ff ff e7 12 11|         .......|      [40]: "1956-09-30T04:30:00Z" (-418246200) transition_time 0x659-0x661 (8)
0x660|c8                                             |.               |
0x660|   ff ff ff ff e8 26 fa d8                     | .....&..       |      [41]: "1957-04-28T05:30:00Z" (-400098600) transition_time 0x661-0x669 (8)
0x660|                           ff ff ff ff e8 f1 f3|         .......|      [42]: "1957-09-29T04:30:00Z" (-386796600) transition_time 0x669-0x671 (8)
0x670|c8                                             |.               |
0x670|   ff ff ff ff ea 06 dc d8                     | ........       |      [43]: "1958-04-27T05:30:00Z" (-368649000) transition_time 0x671-0x679 (8)
0x670|                           ff ff ff ff ea d1 d5|         .......|      [44]: "1958-09-28T04:30:00Z" (-355347000) transition_time 0x679-0x681 (8)
0x680|c8                                             |.               |
0x680|   ff ff ff ff eb e6 be d8                     | ........       |      [45]: "1959-04-26T05:30:00Z" (-337199400) transition_time 0x681-0x689 (8)
0x680|                           ff ff ff ff ec b1 b7|         .......|      [46]: "1959-09-27T04:30:00Z" (-323897400) transition_time 0x689-0x691 (8)
0x690|c8                                             |.               |
0x690|   ff ff ff ff ed c6 a0 d8                     | ........       |      [47]: "1960-04-24T05:30:00Z" (-305749800) transition_time 0x691-0x699 (8)
0x690|                           ff ff ff ff ee bf be|         .......|      [48]: "1960-10-30T04:30:00Z" (-289423800) transition_time 0x699-0x6a1 (8)
0x6a0|48                                             |H               |
0x6a0|   ff ff ff ff ef af bd 58                     | .......X       |      [49]: "1961-04-30T05:30:00Z" (-273695400) transition_time 0x6a1-0x6a9 (8)
0x6a0|                           ff ff ff ff f0 9f a0|         .......|      [50]: "1961-10-29T04:30:00Z" (-257974200) transition_time 0x6a9-0x6b1 (8)
0x6b0|48                                             |H               |
0x6b0|   ff ff ff ff f1 8f 9f 58                     | .......X       |      [51]: "1962-04-29T05:30:00Z" (-242245800) transition_time 0x6b1-0x6b9 (8)
0x6b0|                           ff ff ff ff f2 7f 82|         .......|      [52]: "1962-10-28T04:30:00Z" (-226524600) transition_time 0x6b9-0x6c1 (8)
0x6c0|48                                             |H               |
0x6c0|   ff ff ff ff f3 6f 81 58                     | .....o.X       |      [53]: "1963-04-28T05:30:00Z" (-210796200) transition_time 0x6c1-0x6c9 (8)
0x6c0|                           ff ff ff ff f4 5f 64|         ....._d|      [54]: "1963-10-27T04:30:00Z" (-195075000) transition_time 0x6c9-0x6d1 (8)
0x6d0|48                                             |H               |
0x6d0|   ff ff ff ff f5 4f 63 58                     | .....OcX       |      [55]: "1964-04-26T05:30:00Z" (-179346600) transition_time 0x6d1-0x6d9 (8)
0x6d0|                           ff ff ff ff f6 3f 46|         .....?F|      [56]: "1964-10-25T04:30:00Z" (-163625400) transition_time 0x6d9-0x6e1 (8)
0x6e0|48                                             |H               |
0x6e0|   ff ff ff ff f7 2f 45 58                     | ...../EX       |      [57]: "1965-04-25T05:30:00Z" (-147897000) transition_time 0x6e1-0x6e9 (8)
0x6e0|                           ff ff ff ff f8 28 62|         .....(b|      [58]: "1965-10-31T04:30:00Z" (-131571000) transition_time 0x6e9-0x6f1 (8)
0x6f0|c8                                             |.               |
0x6f0|   ff ff ff ff f8 da 6b 58                     | ......kX       |      [59]: "1966-03-15T05:30:00Z" (-119903400) transition_time 0x6f1-0x6f9 (8)
0x6f0|                           ff ff ff ff f9 0f 2e|         .......|      [60]: "1966-04-24T06:00:00Z" (-116445600) transition_time 0x6f9-0x701 (8)
0x700|60                                             |`               |
0x700|   ff ff ff ff fa 08 4b d0                     | ......K.       |      [61]: "1966-10-30T05:00:00Z" (-100119600) transition_time 0x701-0x709 (8)
0x700|                           ff ff ff ff fa f8 4a|         ......J|      [62]: "1967-04-30T06:00:00Z" (-84391200) transition_time 0x709-0x711 (8)
0x710|e0                                             |.               |
0x710|   ff ff ff ff fb e8 2d d0                     | ......-.       |      [63]: "1967-10-29T05:00:00Z" (-68670000) transition_time 0x711-0x719 (8)
0x710|                           ff ff ff ff fc d8 2c|         ......,|      [64]: "1968-04-28T06:00:00Z" (-52941600) transition_time 0x719-0x721 (8)
0x720|e0                                             |.               |
0x720|   ff ff ff ff fd c8 0f d0                     | ........       |      [65]: "1968-10-27T05:00:00Z" (-37220400) transition_time 0x721-0x729 (8)
0x720|                           ff ff ff ff fe b8 0e|         .......|      [66]: "1969-04-27T06:00:00Z" (-21492000) transition_time 0x729-0x731 (8)
0x730|e0                                             |.               |
0x730|   ff ff ff ff ff a7 f1 d0                     | ........       |      [67]: "1969-10-26T05:00:00Z" (-5770800) transition_time 0x731-0x739 (8)
0x730|                           00 00 00 00 00 97 f0|         .......|      [68]: "1970-04-26T06:00:00Z" (9957600) transition_time 0x739-0x741 (8)
0x740|e0                                             |.               |
0x740|   00 00 00 00 01 87 d3 d0                     | ........       |      [69]: "1970-10-25T05:00:00Z" (25678800) transition_time 0x741-0x749 (8)
0x740|                           00 00 00 00 02 77 d2|         .....w.|      [70]: "1971-04-25T06:00:00Z" (41407200) transition_time 0x749-0x751 (8)
0x750|e0                                             |.               |
0x750|   00 00 00 00 03 70 f0 50                     | .....p.P       |      [71]: "1971-10-31T05:00:00Z" (57733200) transition_time 0x751-0x759 (8)
0x750|                           00 00 00 00 04 60 ef|         .....`.|      [72]: "1972-04-30T06:00:00Z" (73461600) transition_time 0x759-0x761 (8)
0x760|60                                             |`               |
0x760|   00 00 00 00 05 50 d2 51                     | .....P.Q       |      [73]: "1972-10-29T05:00:01Z" (89182801) transition_time 0x761-0x769 (8)
0x760|                           00 00 00 00 06 40 d1|         .....@.|      [74]: "1973-04-29T06:00:02Z" (104911202) transition_time 0x769-0x771 (8)
0x770|62                                             |b               |
0x770|   00 00 00 00 07 30 b4 52                     | .....0.R       |      [75]: "1973-10-28T05:00:02Z" (120632402) transition_time 0x771-0x779 (8)
0x770|                           00 00 00 00 08 20 b3|         ..... .|      [76]: "1974-04-28T06:00:03Z" (136360803) transition_time 0x779-0x781 (8)
0x780|63                                             |c               |
0x780|   00 00 00 00 09 10 96 53                     | .......S       |      [77]: "1974-10-27T05:00:03Z" (152082003) transition_time 0x781-0x789 (8)
0x780|                           00 00 00 00 0a 00 95|         .......|      [78]: "1975-04-27T06:00:04Z" (167810404) transition_time 0x789-0x791 (8)
0x790|64                                             |d               |
0x790|   00 00 00 00 0a f0 78 54                     | ......xT       |      [79]: "1975-10-26T05:00:04Z" (183531604) transition_time 0x791-0x799 (8)
0x790|                           00 00 00 00 0b e0 77|         ......w|      [80]: "1976-04-25T06:00:05Z" (199260005) transition_time 0x799-0x7a1 (8)
0x7a0|65                                             |e               |
0x7a0|   00 00 00 00 0c d9 94 d5                     | ........       |      [81]: "1976-10-31T05:00:05Z" (215586005) transition_time 0x7a1-0x7a9 (8)
0x7a0|                           00 00 00 00 0d c0 59|         ......Y|      [82]: "1977-04-24T06:00:06Z" (230709606) transition_time 0x7a9-0x7b1 (8)
0x7b0|66                                             |f               |
0x7b0|   00 00 00 00 0e b9 76 d6                     | ......v.       |      [83]: "1977-10-30T05:00:06Z" (247035606) transition_time 0x7b1-0x7b9 (8)
0x7b0|                           00 00 00 00 0f a9 75|         ......u|      [84]: "1978-04-30T06:00:07Z" (262764007) transition_time 0x7b9-0x7c1 (8)
0x7c0|e7                                             |.               |
0x7c0|   00 00 00 00 10 99 58 d7                     | ......X.       |      [85]: "1978-10-29T05:00:07Z" (278485207) transition_time 0x7c1-0x7c9 (8)
0x7c0|                           00 00 00 00 11 89 57|         ......W|      [86]: "1979-04-29T06:00:08Z" (294213608) transition_time 0x7c9-0x7d1 (8)
0x7d0|e8                                             |.               |
0x7d0|   00 00 00 00 12 79 3a d8                     | .....y:.       |      [87]: "1979-10-28T05:00:08Z" (309934808) transition_time 0x7d1-0x7d9 (8)
0x7d0|                           00 00 00 00 13 69 39|         .....i9|      [88]: "1980-04-27T06:00:09Z" (325663209) transition_time 0x7d9-0x7e1 (8)
0x7e0|e9                                             |.               |
0x7e0|   00 00 00 00 14 59 1c d9                     | .....Y..       |      [89]: "1980-10-26T05:00:09Z" (341384409) transition_time 0x7e1-0x7e9 (8)
0x7e0|                           00 00 00 00 15 49 1b|         .....I.|      [90]: "1981-04-26T06:00:09Z" (357112809) transition_time 0x7e9-0x7f1 (8)
0x7f0|e9                                             |.               |
0x7f0|   00 00 00 00 16 38 fe da                     | .....8..       |      [91]: "1981-10-25T05:00:10Z" (372834010) transition_time 0x7f1-0x7f9 (8)
0x7f0|                           00 00 00 00 17 28 fd|         .....(.|      [92]: "1982-04-25T06:00:10Z" (388562410) transition_time 0x7f9-0x801 (8)
0x800|ea                                             |.               |
0x800|   00 00 00 00 18 22 1b 5b                     | .....".[       |      [93]: "1982-10-31T05:00:11Z" (404888411) transition_time 0x801-0x809 (8)
0x800|                           00 00 00 00 19 08 df|         .......|      [94]: "1983-04-24T06:00:11Z" (420012011) transition_time 0x809-0x811 (8)
0x810|eb                                             |.               |
0x810|   00 00 00 00 1a 01 fd 5c                     | .......\       |      [95]: "1983-10-30T05:00:12Z" (436338012) transition_time 0x811-0x819 (8)
0x810|                           00 00 00 00 1a f1 fc|         .......|      [96]: "1984-04-29T06:00:12Z" (452066412) transition_time 0x819-0x821 (8)
0x820|6c                                             |l               |
0x820|   00 00 00 00 1b e1 df 5c                     | .......\       |      [97]: "1984-10-28T05:00:12Z" (467787612) transition_time 0x821-0x829 (8)
0x820|                           00 00 00 00 1c d1 de|         .......|      [98]: "1985-04-28T06:00:12Z" (483516012) transition_time 0x829-0x831 (8)
0x830|6c                                             |l               |
0x830|   00 00 00 00 1d c1 c1 5d                     | .......]       |      [99]: "1985-10-27T05:00:13Z" (499237213) transition_time 0x831-0x839 (8)
0x830|                           00 00 00 00 1e b1 c0|         .......|      [100]: "1986-04-27T06:00:13Z" (514965613) transition_time 0x839-0x841 (8)
0x840|6d                                             |m               |
0x840|   00 00 00 00 1f a1 a3 5d                     | .......]       |      [101]: "1986-10-26T05:00:13Z" (530686813) transition_time 0x841-0x849 (8)
0x840|                           00 00 00 00 20 75 d7|         .... u.|      [102]: "1987-04-05T04:01:13Z" (544593673) transition_time 0x849-0x851 (8)
0x850|09                                             |.               |
0x850|   00 00 00 00 21 81 69 79                     | ....!.iy       |      [103]: "1987-10-25T03:01:13Z" (562129273) transition_time 0x851-0x859 (8)
0x850|                           00 00 00 00 22 55 b9|         ...."U.|      [104]: "1988-04-03T04:01:14Z" (576043274) transition_time 0x859-0x861 (8)
0x860|0a                                             |.               |
0x860|   00 00 00 00 23 6a 77 ea                     | ....#jw.       |      [105]: "1988-10-30T02:01:14Z" (594180074) transition_time 0x861-0x869 (8)
0x860|                           00 00 00 00 24 35 9b|         ....$5.|      [106]: "1989-04-02T04:01:14Z" (607492874) transition_time 0x869-0x871 (8)
0x870|0a                                             |.               |
0x870|   00 00 00 00 25 4a 67 fa                     | ....%Jg.       |      [107]: "1989-10-29T03:01:14Z" (625633274) transition_time 0x871-0x879 (8)
0x870|                           00 00 00 00 26 15 7d|         ....&.}|      [108]: "1990-04-01T04:01:15Z" (638942475) transition_time 0x879-0x881 (8)
0x880|0b                                             |.               |
0x880|   00 00 00 00 27 2a 49 fb                     | ....'*I.       |      [109]: "1990-10-28T03:01:15Z" (657082875) transition_time 0x881-0x889 (8)
0x880|                           00 00 00 00 27 fe 99|         ....'..|      [110]: "1991-04-07T04:01:16Z" (670996876) transition_time 0x889-0x891 (8)
0x890|8c                                             |.               |
0x890|   00 00 00 00 29 0a 2b fc                     | ....).+.       |      [111]: "1991-10-27T03:01:16Z" (688532476) transition_time 0x891-0x899 (8)
0x890|                           00 00 00 00 29 de 7b|         ....).{|      [112]: "1992-04-05T04:01:16Z" (702446476) transition_time 0x899-0x8a1 (8)
0x8a0|8c                                             |.               |
0x8a0|   00 00 00 00 2a ea 0d fd                     | ....*...       |      [113]: "1992-10-25T03:01:17Z" (719982077) transition_time 0x8a1-0x8a9 (8)
0x8a0|                           00 00 00 00 2b be 5d|         ....+.]|      [114]: "1993-04-04T04:01:17Z" (733896077) transition_time 0x8a9-0x8b1 (8)
0x8b0|8d                                             |.               |
0x8b0|   00 00 00 00 2c d3 2a 7e                     | ....,.*~       |      [115]: "1993-10-31T03:01:18Z" (752036478) transition_time 0x8b1-0x8b9 (8)
0x8b0|                           00 00 00 00 2d 9e 3f|         ....-.?|      [116]: "1994-04-03T04:01:18Z" (765345678) transition_time 0x8b9-0x8c1 (8)
0x8c0|8e                                             |.               |
0x8c0|   00 00 00 00 2e b3 0c 7f                     | ........       |      [117]: "1994-10-30T03:01:19Z" (783486079) transition_time 0x8c1-0x8c9 (8)
0x8c0|                           00 00 00 00 2f 7e 21|         ..../~!|      [118]: "1995-04-02T04:01:19Z" (796795279) transition_time 0x8c9-0x8d1 (8)
0x8d0|8f                                             |.               |
0x8d0|   00 00 00 00 30 92 ee 7f                     | ....0...       |      [119]: "1995-10-29T03:01:19Z" (814935679) transition_time 0x8d1-0x8d9 (8)
0x8d0|                           00 00 00 00 31 67 3e|         ....1g>|      [120]: "1996-04-07T04:01:20Z" (828849680) transition_time 0x8d9-0x8e1 (8)
0x8e0|10                                             |.               |
0x8e0|   00 00 00 00 32 72 d0 80                     | ....2r..       |      [121]: "1996-10-27T03:01:20Z" (846385280) transition_time 0x8e1-0x8e9 (8)
0x8e0|                           00 00 00 00 33 47 20|         ....3G |      [122]: "1997-04-06T04:01:20Z" (860299280) transition_time 0x8e9-0x8f1 (8)
0x8f0|10                                             |.               |
0x8f0|   00 00 00 00 34 52 b2 81                     | ....4R..       |      [123]: "1997-10-26T03:01:21Z" (877834881) transition_time 0x8f1-0x8f9 (8)
0x8f0|                           00 00 00 00 35 27 02|         ....5'.|      [124]: "1998-04-05T04:01:21Z" (891748881) transition_time 0x8f9-0x901 (8)
0x900|11                                             |.               |
0x900|   00 00 00 00 36 32 94 81                     | ....62..       |      [125]: "1998-10-25T03:01:21Z" (909284481) transition_time 0x901-0x909 (8)
0x900|                           00 00 00 00 37 06 e4|         ....7..|      [126]: "1999-04-04T04:01:22Z" (923198482) transition_time 0x909-0x911 (8)
0x910|12                                             |.               |
0x910|   00 00 00 00 38 1b b1 02                     | ....8...       |      [127]: "1999-10-31T03:01:22Z" (941338882) transition_time 0x911-0x919 (8)
0x910|                           00 00 00 00 38 e6 c6|         ....8..|      [128]: "2000-04-02T04:01:22Z" (954648082) transition_time 0x919-0x921 (8)
0x920|12                                             |.               |
0x920|   00 00 00 00 39 fb 93 02                     | ....9...       |      [129]: "2000-10-29T03:01:22Z" (972788482) transition_time 0x921-0x929 (8)
0x920|                           00 00 00 00 3a c6 a8|         ....:..|      [130]: "2001-04-01T04:01:22Z" (986097682) transition_time 0x929-0x931 (8)
0x930|12                                             |.               |
0x930|   00 00 00 00 3b db 75 02                     | ....;.u.       |      [131]: "2001-10-28T03:01:22Z" (1004238082) transition_time 0x931-0x939 (8)
0x930|                           00 00 00 00 3c af c4|         ....<..|      [132]: "2002-04-07T04:01:22Z" (1018152082) transition_time 0x939-0x941 (8)
0x940|92                                             |.               |
0x940|   00 00 00 00 3d bb 57 02                     | ....=.W.       |      [133]: "2002-10-27T03:01:22Z" (1035687682) transition_time 0x941-0x949 (8)
0x940|                           00 00 00 00 3e 8f a6|         ....>..|      [134]: "2003-04-06T04:01:22Z" (1049601682) transition_time 0x949-0x951 (8)
0x950|92                                             |.               |
0x950|   00 00 00 00 3f 9b 39 02                     | ....?.9.       |      [135]: "2003-10-26T03:01:22Z" (1067137282) transition_time 0x951-0x959 (8)
0x950|                           00 00 00 00 40 6f 88|         ....@o.|      [136]: "2004-04-04T04:01:22Z" (1081051282) transition_time 0x959-0x961 (8)
0x960|92                                             |.               |
0x960|   00 00 00 00 41 84 55 82                     | ....A.U.       |      [137]: "2004-10-31T03:01:22Z" (1099191682) transition_time 0x961-0x969 (8)
0x960|                           00 00 00 00 42 4f 6a|         ....BOj|      [138]: "2005-04-03T04:01:22Z" (1112500882) transition_time 0x969-0x971 (8)
0x970|92                                             |.               |
0x970|   00 00 00 00 43 64 37 82                     | ....Cd7.       |      [139]: "2005-10-30T03:01:22Z" (1130641282) transition_time 0x971-0x979 (8)
0x970|                           00 00 00 00 44 2f 4c|         ....D/L|      [140]: "2006-04-02T04:01:23Z" (1143950483) transition_time 0x979-0x981 (8)
0x980|93                                             |.               |
0x980|   00 00 00 00 45 44 19 83                     | ....ED..       |      [141]: "2006-10-29T03:01:23Z" (1162090883) transition_time 0x981-0x989 (8)
0x980|                           00 00 00 00 45 f3 7f|         ....E..|      [142]: "2007-03-11T04:01:23Z" (1173585683) transition_time 0x989-0x991 (8)
0x990|13                                             |.               |
0x990|   00 00 00 00 47 2d 36 03                     | ....G-6.       |      [143]: "2007-11-04T03:01:23Z" (1194145283) transition_time 0x991-0x999 (8)
0x990|                           00 00 00 00 47 d3 61|         ....G.a|      [144]: "2008-03-09T04:01:23Z" (1205035283) transition_time 0x999-0x9a1 (8)
0x9a0|13                                             |.               |
0x9a0|   00 00 00 00 49 0d 18 03                     | ....I...       |      [145]: "2008-11-02T03:01:23Z" (1225594883) transition_time 0x9a1-0x9a9 (8)
0x9a0|                           00 00 00 00 49 b3 43|         ....I.C|      [146]: "2009-03-08T04:01:24Z" (1236484884) transition_time 0x9a9-0x9b1 (8)
0x9b0|14                                             |.               |
0x9b0|   00 00 00 00 4a ec fa 04                     | ....J...       |      [147]: "2009-11-01T03:01:24Z" (1257044484) transition_time 0x9b1-0x9b9 (8)
0x9b0|                           00 00 00 00 4b 9c 5f|         ....K._|      [148]: "2010-03-14T04:01:24Z" (1268539284) transition_time 0x9b9-0x9c1 (8)
0x9c0|94                                             |.               |
0x9c0|   00 00 00 00 4c d6 16 84                     | ....L...       |      [149]: "2010-11-07T03:01:24Z" (1289098884) transition_time 0x9c1-0x9c9 (8)
0x9c0|                           00 00 00 00 4d 7c 41|         ....M|A|      [150]: "2011-03-13T04:01:24Z" (1299988884) transition_time 0x9c9-0x9d1 (8)
0x9d0|94                                             |.               |
0x9d0|   00 00 00 00 4e b6 14 68                     | ....N..h       |      [151]: "2011-11-06T05:00:24Z" (1320555624) transition_time 0x9d1-0x9d9 (8)
0x9d0|                           00 00 00 00 4f 5c 3f|         ....O\?|      [152]: "2012-03-11T06:00:24Z" (1331445624) transition_time 0x9d9-0x9e1 (8)
0x9e0|78                                             |x               |
0x9e0|   00 00 00 00 50 95 f6 69                     | ....P..i       |      [153]: "2012-11-04T05:00:25Z" (1352005225) transition_time 0x9e1-0x9e9 (8)
0x9e0|                           00 00 00 00 51 3c 21|         ....Q<!|      [154]: "2013-03-10T06:00:25Z" (1362895225) transition_time 0x9e9-0x9f1 (8)
0x9f0|79                                             |y               |
0x9f0|   00 00 00 00 52 75 d8 69                     | ....Ru.i       |      [155]: "2013-11-03T05:00:25Z" (1383454825) transition_time 0x9f1-0x9f9 (8)
0x9f0|                           00 00 00 00 53 1c 03|         ....S..|      [156]: "2014-03-09T06:00:25Z" (1394344825) transition_time 0x9f9-0xa01 (8)
0xa00|79                                             |y               |
0xa00|   00 00 00 00 54 55 ba 69                     | ....TU.i       |      [157]: "2014-11-02T05:00:25Z" (1414904425) transition_time 0xa01-0xa09 (8)
0xa00|                           00 00 00 00 54 fb e5|         ....T..|      [158]: "2015-03-08T06:00:25Z" (1425794425) transition_time 0xa09-0xa11 (8)
0xa10|79                                             |y               |
0xa10|   00 00 00 00 56 35 9c 6a                     | ....V5.j       |      [159]: "2015-11-01T05:00:26Z" (1446354026) transition_time 0xa11-0xa19 (8)
0xa10|                           00 00 00 00 56 e5 01|         ....V..|      [160]: "2016-03-13T06:00:26Z" (1457848826) transition_time 0xa19-0xa21 (8)
0xa20|fa                                             |.               |
0xa20|   00 00 00 00 58 1e b8 ea                     | ....X...       |      [161]: "2016-11-06T05:00:26Z" (1478408426) transition_time 0xa21-0xa29 (8)
0xa20|                           00 00 00 00 58 c4 e3|         ....X..|      [162]: "2017-03-12T06:00:27Z" (1489298427) transition_time 0xa29-0xa31 (8)
0xa30|fb                                             |.               |
0xa30|   00 00 00 00 59 fe 9a eb                     | ....Y...       |      [163]: "2017-11-05T05:00:27Z" (1509858027) transition_time 0xa31-0xa39 (8)
0xa30|                           00 00 00 00 5a a4 c5|         ....Z..|      [164]: "2018-03-11T06:00:27Z" (1520748027) transition_time 0xa39-0xa41 (8)
0xa40|fb                                             |.               |
0xa40|   00 00 00 00 5b de 7c eb                     | ....[.|.       |      [165]: "2018-11-04T05:00:27Z" (1541307627) transition_time 0xa41-0xa49 (8)
0xa40|                           00 00 00 00 5c 84 a7|         ....\..|      [166]: "2019-03-10T06:00:27Z" (1552197627) transition_time 0xa49-0xa51 (8)
0xa50|fb                                             |.               |
0xa50|   00 00 00 00 5d be 5e eb                     | ....].^.       |      [167]: "2019-11-03T05:00:27Z" (1572757227) transition_time 0xa51-0xa59 (8)
0xa50|                           00 00 00 00 5e 64 89|         ....^d.|      [168]: "2020-03-08T06:00:27Z" (1583647227) transition_time 0xa59-0xa61 (8)
0xa60|fb                                             |.               |
0xa60|   00 00 00 00 5f 9e 40 eb                     | ...._.@.       |      [169]: "2020-11-01T05:00:27Z" (1604206827) transition_time 0xa61-0xa69 (8)
0xa60|                           00 00 00 00 60 4d a6|         ....`M.|      [170]: "2021-03-14T06:00:27Z" (1615701627) transition_time 0xa69-0xa71 (8)
0xa70|7b                                             |{               |
0xa70|   00 00 00 00 61 87 5d 6b                     | ....a.]k       |      [171]: "2021-11-07T05:00:27Z" (1636261227) transition_time 0xa71-0xa79 (8)
0xa70|                           00 00 00 00 62 2d 88|         ....b-.|      [172]: "2022-03-13T06:00:27Z" (1647151227) transition_time 0xa79-0xa81 (8)
0xa80|7b                                             |{               |
0xa80|   00 00 00 00 63 67 3f 6b                     | ....cg?k       |      [173]: "2022-11-06T05:00:27Z" (1667710827) transition_time 0xa81-0xa89 (8)
0xa80|                           00 00 00 00 64 0d 6a|         ....d.j|      [174]: "2023-03-12T06:00:27Z" (1678600827) transition_time 0xa89-0xa91 (8)
0xa90|7b                                             |{               |
0xa90|   00 00 00 00 64 9b 78 1b                     | ....d.x.       |      [175]: "2023-06-28T00:00:27Z" (1687910427) transition_time 0xa91-0xa99 (8)
     |                                               |                |    transition_types[0:176]: 0xa99-0xb49 (176)
0xa90|                           01                  |         .      |      [0]: 1 transition_type 0xa99-0xa9a (1)
0xa90|                              02               |          .     |      [1]: 2 transition_type 0xa9a-0xa9b (1)
0xa90|                                 01            |           .    |      [2]: 1 transition_type 0xa9b-0xa9c (1)
0xa90|                                    03         |            .   |      [3]: 3 transition_type 0xa9c-0xa9d (1)
0xa90|                                       04      |             .  |      [4]: 4 transition_type 0xa9d-0xa9e (1)
0xa90|                                          03   |              . |      [5]: 3 transition_type 0xa9e-0xa9f (1)
0xa90|                                             04|               .|      [6]: 4 transition_type 0xa9f-0xaa0 (1)
0xaa0|03                                             |.               |      [7]: 3 transition_type 0xaa0-0xaa1 (1)
0xaa0|   04                                          | .              |      [8]: 4 transition_type 0xaa1-0xaa2 (1)
0xaa0|      03                                       |  .             |      [9]: 3 transition_type 0xaa2-0xaa3 (1)
0xaa0|         04                                    |   .            |      [10]: 4 transition_type 0xaa3-0xaa4 (1)
0xaa0|            03                                 |    .           |      [11]: 3 transition_type 0xaa4-0xaa5 (1)
0xaa0|               04                              |     .          |      [12]: 4 transition_type 0xaa5-0xaa6 (1)
0xaa0|                  03                           |      .         |      [13]: 3 transition_type 0xaa6-0xaa7 (1)
0xaa0|                     04                        |       .        |      [14]: 4 transition_type 0xaa7-0xaa8 (1)
0xaa0|                        03                     |        .       |      [15]: 3 transition_type 0xaa8-0xaa9 (1)
0xaa0|                           06                  |         .      |      [16]: 6 transition_type 0xaa9-0xaaa (1)
0xaa0|                              05               |          .     |      [17]: 5 transition_type 0xaaa-0xaab (1)
0xaa0|                                 03            |           .    |      [18]: 3 transition_type 0xaab-0xaac (1)
0xaa0|                                    04         |            .   |      [19]: 4 transition_type 0xaac-0xaad (1)
0xaa0|                                       03      |             .  |      [20]: 3 transition_type 0xaad-0xaae (1)
0xaa0|                                          04   |              . |      [21]: 4 transition_type 0xaae-0xaaf (1)
0xaa0|                                             03|               .|      [22]: 3 transition_type 0xaaf-0xab0 (1)
0xab0|04                                             |.               |      [23]: 4 transition_type 0xab0-0xab1 (1)
0xab0|   03                                          | .              |      [24]: 3 transition_type 0xab1-0xab2 (1)
0xab0|      04                                       |  .             |      [25]: 4 transition_type 0xab2-0xab3 (1)
0xab0|         03                                    |   .            |      [26]: 3 transition_type 0xab3-0xab4 (1)
0xab0|            04                                 |    .           |      [27]: 4 transition_type 0xab4-0xab5 (1)
0xab0|               03                              |     .          |      [28]: 3 transition_type 0xab5-0xab6 (1)
0xab0|                  04                           |      .         |      [29]: 4 transition_type 0xab6-0xab7 (1)
0xab0|                     03                        |       .        |      [30]: 3 transition_type 0xab7-0xab8 (1)
0xab0|                        04                     |        .       |      [31]: 4 transition_type 0xab8-0xab9 (1)
0xab0|                           03                  |         .      |      [32]: 3 transition_type 0xab9-0xaba (1)
0xab0|                              04               |          .     |      [33]: 4 transition_type 0xaba-0xabb (1)
0xab0|                                 03            |           .    |      [34]: 3 transition_type 0xabb-0xabc (1)
0xab0|                                    04         |            .   |      [35]: 4 transition_type 0xabc-0xabd (1)
0xab0|                                       03      |             .  |      [36]: 3 transition_type 0xabd-0xabe (1)
0xab0|                                          04   |              . |      [37]: 4 transition_type 0xabe-0xabf (1)
0xab0|                                             03|               .|      [38]: 3 transition_type 0xabf-0xac0 (1)
0xac0|04                                             |.               |      [39]: 4 transition_type 0xac0-0xac1 (1)
0xac0|   03                                          | .              |      [40]: 3 transition_type 0xac1-0xac2 (1)
0xac0|      04                                       |  .             |      [41]: 4 transition_type 0xac2-0xac3 (1)
0xac0|         03                                    |   .            |      [42]: 3 transition_type 0xac3-0xac4 (1)
0xac0|            04                                 |    .           |      [43]: 4 transition_type 0xac4-0xac5 (1)
0xac0|               03                              |     .          |      [44]: 3 transition_type 0xac5-0xac6 (1)
0xac0|                  04                           |      .         |      [45]: 4 transition_type 0xac6-0xac7 (1)
0xac0|                     03                        |       .        |      [46]: 3 transition_type 0xac7-0xac8 (1)
0xac0|                        04                     |        .       |      [47]: 4 transition_type 0xac8-0xac9 (1)
0xac0|                           03                  |         .      |      [48]: 3 transition_type 0xac9-0xaca (1)
0xac0|                              04               |          .     |      [49]: 4 transition_type 0xaca-0xacb (1)
0xac0|                                 03            |           .    |      [50]: 3 transition_type 0xacb-0xacc (1)
0xac0|                                    04         |            .   |      [51]: 4 transition_type 0xacc-0xacd (1)
0xac0|                                       03      |             .  |      [52]: 3 transition_type 0xacd-0xace (1)
0xac0|                                          04   |              . |      [53]: 4 transition_type 0xace-0xacf (1)
0xac0|                                             03|               .|      [54]: 3 transition_type 0xacf-0xad0 (1)
0xad0|04                                             |.               |      [55]: 4 transition_type 0xad0-0xad1 (1)
0xad0|   03                                          | .              |      [56]: 3 transition_type 0xad1-0xad2 (1)
0xad0|      04                                       |  .             |      [57]: 4 transition_type 0xad2-0xad3 (1)
0xad0|         03                                    |   .            |      [58]: 3 transition_type 0xad3-0xad4 (1)
0xad0|            08                                 |    .           |      [59]: 8 transition_type 0xad4-0xad5 (1)
0xad0|               07                              |     .          |      [60]: 7 transition_type 0xad5-0xad6 (1)
0xad0|                  08                           |      .         |      [61]: 8 transition_type 0xad6-0xad7 (1)
0xad0|                     07                        |       .        |      [62]: 7 transition_type 0xad7-0xad8 (1)
0xad0|                        08                     |        .       |      [63]: 8 transition_type 0xad8-0xad9 (1)
0xad0|                           07                  |         .      |      [64]: 7 transition_type 0xad9-0xada (1)
0xad0|                              08               |          .     |      [65]: 8 transition_type 0xada-0xadb (1)
0xad0|                                 07            |           .    |      [66]: 7 transition_type 0xadb-0xadc (1)
0xad0|                                    08         |            .   |      [67]: 8 transition_type 0xadc-0xadd (1)
0xad0|                                       07      |             .  |      [68]: 7 transition_type 0xadd-0xade (1)
0xad0|                                          08   |              . |      [69]: 8 transition_type 0xade-0xadf (1)
0xad0|                                             07|               .|      [70]: 7 transition_type 0xadf-0xae0 (1)
0xae0|08                                             |.               |      [71]: 8 transition_type 0xae0-0xae1 (1)
0xae0|   07                                          | .              |      [72]: 7 transition_type 0xae1-0xae2 (1)
0xae0|      08                                       |  .             |      [73]: 8 transition_type 0xae2-0xae3 (1)
0xae0|         07                                    |   .            |      [74]: 7 transition_type 0xae3-0xae4 (1)
0xae0|            08                                 |    .           |      [75]: 8 transition_type 0xae4-0xae5 (1)
0xae0|               07                              |     .          |      [76]: 7 transition_type 0xae5-0xae6 (1)
0xae0|                  08                           |      .         |      [77]: 8 transition_type 0xae6-0xae7 (1)
0xae0|                     07                        |       .        |      [78]: 7 transition_type 0xae7-0xae8 (1)
0xae0|                        08                     |        .       |      [79]: 8 transition_type 0xae8-0xae9 (1)
0xae0|                           07                  |         .      |      [80]: 7 transition_type 0xae9-0xaea (1)
0xae0|                              08               |          .     |      [81]: 8 transition_type 0xaea-0xaeb (1)
0xae0|                                 07            |           .    |      [82]: 7 transition_type 0xaeb-0xaec (1)
0xae0|                                    08         |            .   |      [83]: 8 transition_type 0xaec-0xaed (1)
0xae0|                                       07      |             .  |      [84]: 7 transition_type 0xaed-0xaee (1)
0xae0|                                          08   |              . |      [85]: 8 transition_type 0xaee-0xaef (1)
0xae0|                                             07|               .|      [86]: 7 transition_type 0xaef-0xaf0 (1)
0xaf0|08                                             |.               |      [87]: 8 transition_type 0xaf0-0xaf1 (1)
0xaf0|   07                                          | .              |      [88]: 7 transition_type 0xaf1-0xaf2 (1)
0xaf0|      08                                       |  .             |      [89]: 8 transition_type 0xaf2-0xaf3 (1)
0xaf0|         07                                    |   .            |      [90]: 7 transition_type 0xaf3-0xaf4 (1)
0xaf0|            08                                 |    .           |      [91]: 8 transition_type 0xaf4-0xaf5 (1)
0xaf0|               07                              |     .          |      [92]: 7 transition_type 0xaf5-0xaf6 (1)
0xaf0|                  08                           |      .         |      [93]: 8 transition_type 0xaf6-0xaf7 (1)
0xaf0|                     07                        |       .        |      [94]: 7 transition_type 0xaf7-0xaf8 (1)
0xaf0|                        08                     |        .       |      [95]: 8 transition_type 0xaf8-0xaf9 (1)
0xaf0|                           07                  |         .      |      [96]: 7 transition_type 0xaf9-0xafa (1)
0xaf0|                              08               |          .     |      [97]: 8 transition_type 0xafa-0xafb (1)
0xaf0|                                 07            |           .    |      [98]: 7 transition_type 0xafb-0xafc (1)
0xaf0|                                    08         |            .   |      [99]: 8 transition_type 0xafc-0xafd (1)
0xaf0|                                       07      |             .  |      [100]: 7 transition_type 0xafd-0xafe (1)
0xaf0|                                          08   |              . |      [101]: 8 transition_type 0xafe-0xaff (1)
0xaf0|                                             07|               .|      [102]: 7 transition_type 0xaff-0xb00 (1)
0xb00|08                                             |.               |      [103]: 8 transition_type 0xb00-0xb01 (1)
0xb00|   09                                          | .              |      [104]: 9 transition_type 0xb01-0xb02 (1)
0xb00|      08                                       |  .             |      [105]: 8 transition_type 0xb02-0xb03 (1)
0xb00|         07                                    |   .            |      [106]: 7 transition_type 0xb03-0xb04 (1)
0xb00|            08                                 |    .           |      [107]: 8 transition_type 0xb04-0xb05 (1)
0xb00|               07                              |     .          |      [108]: 7 transition_type 0xb05-0xb06 (1)
0xb00|                  08                           |      .         |      [109]: 8 transition_type 0xb06-0xb07 (1)
0xb00|                     07                        |       .        |      [110]: 7 transition_type 0xb07-0xb08 (1)
0xb00|                        08                     |        .       |      [111]: 8 transition_type 0xb08-0xb09 (1)
0xb00|                           07                  |         .      |      [112]: 7 transition_type 0xb09-0xb0a (1)
0xb00|                              08               |          .     |      [113]: 8 transition_type 0xb0a-0xb0b (1)
0xb00|                                 07            |           .    |      [114]: 7 transition_type 0xb0b-0xb0c (1)
0xb00|                                    08         |            .   |      [115]: 8 transition_type 0xb0c-0xb0d (1)
0xb00|                                       07      |             .  |      [116]: 7 transition_type 0xb0d-0xb0e (1)
0xb00|                                          08   |              . |      [117]: 8 transition_type 0xb0e-0xb0f (1)
0xb00|                                             07|               .|      [118]: 7 transition_type 0xb0f-0xb10 (1)
0xb10|08                                             |.               |      [119]: 8 transition_type 0xb10-0xb11 (1)
0xb10|   07                                          | .              |      [120]: 7 transition_type 0xb11-0xb12 (1)
0xb10|      08                                       |  .             |      [121]: 8 transition_type 0xb12-0xb13 (1)
0xb10|         07                                    |   .            |      [122]: 7 transition_type 0xb13-0xb14 (1)
0xb10|            08                                 |    .           |      [123]: 8 transition_type 0xb14-0xb15 (1)
0xb10|               07                              |     .          |      [124]: 7 transition_type 0xb15-0xb16 (1)
0xb10|                  08                           |      .         |      [125]: 8 transition_type 0xb16-0xb17 (1)
0xb10|                     07                        |       .        |      [126]: 7 transition_type 0xb17-0xb18 (1)
0xb10|                        08                     |        .       |      [127]: 8 transition_type 0xb18-0xb19 (1)
0xb10|                           07                  |         .      |      [128]: 7 transition_type 0xb19-0xb1a (1)
0xb10|                              08               |          .     |      [129]: 8 transition_type 0xb1a-0xb1b (1)
0xb10|                                 07            |           .    |      [130]: 7 transition_type 0xb1b-0xb1c (1)
0xb10|                                    08         |            .   |      [131]: 8 transition_type 0xb1c-0xb1d (1)
0xb10|                                       07      |             .  |      [132]: 7 transition_type 0xb1d-0xb1e (1)
0xb10|                                          08   |              . |      [133]: 8 transition_type 0xb1e-0xb1f (1)
0xb10|                                             07|               .|      [134]: 7 transition_type 0xb1f-0xb20 (1)
0xb20|08                                             |.               |      [135]: 8 transition_type 0xb20-0xb21 (1)
0xb20|   07                                          | .              |      [136]: 7 transition_type 0xb21-0xb22 (1)
0xb20|      08                                       |  .             |      [137]: 8 transition_type 0xb22-0xb23 (1)
0xb20|         07                                    |   .            |      [138]: 7 transition_type 0xb23-0xb24 (1)
0xb20|            08                                 |    .           |      [139]: 8 transition_type 0xb24-0xb25 (1)
0xb20|               07                              |     .          |      [140]: 7 transition_type 0xb25-0xb26 (1)
0xb20|                  08                           |      .         |      [141]: 8 transition_type 0xb26-0xb27 (1)
0xb20|                     07                        |       .        |      [142]: 7 transition_type 0xb27-0xb28 (1)
0xb20|                        08                     |        .       |      [143]: 8 transition_type 0xb28-0xb29 (1)
0xb20|                           07                  |         .      |      [144]: 7 transition_type 0xb29-0xb2a (1)
0xb20|                              08               |          .     |      [145]: 8 transition_type 0xb2a-0xb2b (1)
0xb20|                                 07            |           .    |      [146]: 7 transition_type 0xb2b-0xb2c (1)
0xb20|                                    08         |            .   |      [147]: 8 transition_type 0xb2c-0xb2d (1)
0xb20|                                       07      |             .  |      [148]: 7 transition_type 0xb2d-0xb2e (1)
0xb20|                                          08   |              . |      [149]: 8 transition_type 0xb2e-0xb2f (1)
0xb20|                                             07|               .|      [150]: 7 transition_type 0xb2f-0xb30 (1)
0xb30|08                                             |.               |      [151]: 8 transition_type 0xb30-0xb31 (1)
0xb30|   07                                          | .              |      [152]: 7 transition_type 0xb31-0xb32 (1)
0xb30|      08                                       |  .             |      [153]: 8 transition_type 0xb32-0xb33 (1)
0xb30|         07                                    |   .            |      [154]: 7 transition_type 0xb33-0xb34 (1)
0xb30|            08                                 |    .           |      [155]: 8 transition_type 0xb34-0xb35 (1)
0xb30|               07                              |     .          |      [156]: 7 transition_type 0xb35-0xb36 (1)
0xb30|                  08                           |      .         |      [157]: 8 transition_type 0xb36-0xb37 (1)
0xb30|                     07                        |       .        |      [158]: 7 transition_type 0xb37-0xb38 (1)
0xb30|                        08                     |        .       |      [159]: 8 transition_type 0xb38-0xb39 (1)
0xb30|                           07                  |         .      |      [160]: 7 transition_type 0xb39-0xb3a (1)
0xb30|                              08               |          .     |      [161]: 8 transition_type 0xb3a-0xb3b (1)
0xb30|                                 07            |           .    |      [162]: 7 transition_type 0xb3b-0xb3c (1)
0xb30|                                    08         |            .   |      [163]: 8 transition_type 0xb3c-0xb3d (1)
0xb30|                                       07      |             .  |      [164]: 7 transition_type 0xb3d-0xb3e (1)
0xb30|                                          08   |              . |      [165]: 8 transition_type 0xb3e-0xb3f (1)
0xb30|                                             07|               .|      [166]: 7 transition_type 0xb3f-0xb40 (1)
0xb40|08                                             |.               |      [167]: 8 transition_type 0xb40-0xb41 (1)
0xb40|   07                                          | .              |      [168]: 7 transition_type 0xb41-0xb42 (1)
0xb40|      08                                       |  .             |      [169]: 8 transition_type 0xb42-0xb43 (1)
0xb40|         07                                    |   .            |      [170]: 7 transition_type 0xb43-0xb44 (1)
0xb40|            08                                 |    .           |      [171]: 8 transition_type 0xb44-0xb45 (1)
0xb40|               07                              |     .          |      [172]: 7 transition_type 0xb45-0xb46 (1)
0xb40|                  08                           |      .         |      [173]: 8 transition_type 0xb46-0xb47 (1)
0xb40|                     07                        |       .        |      [174]: 7 transition_type 0xb47-0xb48 (1)
0xb40|                        07                     |        .       |      [175]: 7 transition_type 0xb48-0xb49 (1)
     |                                               |                |    local_time_type_records[0:11]: 0xb49-0xb8b (66)
     |                                               |                |      [0]{}: local_time_type 0xb49-0xb4f (6)
0xb40|                           ff ff c7 5c         |         ...\   |        utoff: -14500 (valid) 0xb49-0xb4d (4)
0xb40|                                       00      |             .  |        dst: 0 (valid) 0xb4d-0xb4e (1)
0xb40|                                          00   |              . |        idx: 0 (valid) 0xb4e-0xb4f (1)
     |                                               |                |      [1]{}: local_time_type 0xb4f-0xb55 (6)
0xb40|                                             ff|               .|        utoff: -12652 (valid) 0xb4f-0xb53 (4)
0xb50|ff ce 94                                       |...             |
0xb50|         00                                    |   .            |        dst: 0 (valid) 0xb53-0xb54 (1)
0xb50|            04                                 |    .           |        idx: 4 (valid) 0xb54-0xb55 (1)
     |                                               |                |      [2]{}: local_time_type 0xb55-0xb5b (6)
0xb50|               ff ff dc a4                     |     ....       |        utoff: -9052 (valid) 0xb55-0xb59 (4)
0xb50|                           01                  |         .      |        dst: 1 (valid) 0xb59-0xb5a (1)
0xb50|                              08               |          .     |        idx: 8 (valid) 0xb5a-0xb5b (1)
     |                                               |                |      [3]{}: local_time_type 0xb5b-0xb61 (6)
0xb50|                                 ff ff ce c8   |           .... |        utoff: -12600 (valid) 0xb5b-0xb5f (4)
0xb50|                                             00|               .|        dst: 0 (valid) 0xb5f-0xb60 (1)
0xb60|04                                             |.               |        idx: 4 (valid) 0xb60-0xb61 (1)
     |                                               |                |      [4]{}: local_time_type 0xb61-0xb67 (6)
0xb60|   ff ff dc d8                                 | ....           |        utoff: -9000 (valid) 0xb61-0xb65 (4)
0xb60|               01                              |     .          |        dst: 1 (valid) 0xb65-0xb66 (1)
0xb60|                  08                           |      .         |        idx: 8 (valid) 0xb66-0xb67 (1)
     |                                               |                |      [5]{}: local_time_type 0xb67-0xb6d (6)
0xb60|                     ff ff dc d8               |       ....     |        utoff: -9000 (valid) 0xb67-0xb6b (4)
0xb60|                                 01            |           .    |        dst: 1 (valid) 0xb6b-0xb6c (1)
0xb60|                                    0c         |            .   |        idx: 12 (valid) 0xb6c-0xb6d (1)
     |                                               |                |      [6]{}: local_time_type 0xb6d-0xb73 (6)
0xb60|                                       ff ff dc|             ...|        utoff: -9000 (valid) 0xb6d-0xb71 (4)
0xb70|d8                                             |.               |
0xb70|   01                                          | .              |        dst: 1 (valid) 0xb71-0xb72 (1)
0xb70|      10                                       |  .             |        idx: 16 (valid) 0xb72-0xb73 (1)
     |                                               |                |      [7]{}: local_time_type 0xb73-0xb79 (6)
0xb70|         ff ff d5 d0                           |   ....         |        utoff: -10800 (valid) 0xb73-0xb77 (4)
0xb70|                     01                        |       .        |        dst: 1 (valid) 0xb77-0xb78 (1)
0xb70|                        14                     |        .       |        idx: 20 (valid) 0xb78-0xb79 (1)
     |                                               |                |      [8]{}: local_time_type 0xb79-0xb7f (6)
0xb70|                           ff ff c7 c0         |         ....   |        utoff: -14400 (valid) 0xb79-0xb7d (4)
0xb70|                                       00      |             .  |        dst: 0 (valid) 0xb7d-0xb7e (1)
0xb70|                                          18   |              . |        idx: 24 (valid) 0xb7e-0xb7f (1)
     |                                               |                |      [9]{}: local_time_type 0xb7f-0xb85 (6)
0xb70|                                             ff|               .|        utoff: -7200 (valid) 0xb7f-0xb83 (4)
0xb80|ff e3 e0                                       |...             |
0xb80|         01                                    |   .            |        dst: 1 (valid) 0xb83-0xb84 (1)
0xb80|            1c                                 |    .           |        idx: 28 (valid) 0xb84-0xb85 (1)
     |                                               |                |      [10]{}: local_time_type 0xb85-0xb8b (6)
0xb80|               ff ff d5 d0                     |     ....       |        utoff: -10800 (valid) 0xb85-0xb89 (4)
0xb80|                           01                  |         .      |        dst: 1 (valid) 0xb89-0xb8a (1)
0xb80|                              14               |          .     |        idx: 20 (valid) 0xb8a-0xb8b (1)
     |                                               |                |    time_zone_designations[0:8]: 0xb8b-0xbac (33)
0xb80|                                 4c 4d 54 00   |           LMT. |      [0]: "LMT" time_zone_designation 0xb8b-0xb8f (4)
0xb80|                                             4e|               N|      [1]: "NST" time_zone_designation 0xb8f-0xb93 (4)
0xb90|53 54 00                                       |ST.             |
0xb90|         4e 44 54 00                           |   NDT.         |      [2]: "NDT" time_zone_designation 0xb93-0xb97 (4)
0xb90|                     4e 50 54 00               |       NPT.     |      [3]: "NPT" time_zone_designation 0xb97-0xb9b (4)
0xb90|                                 4e 57 54 00   |           NWT. |      [4]: "NWT" time_zone_designation 0xb9b-0xb9f (4)
0xb90|                                             41|               A|      [5]: "ADT" time_zone_designation 0xb9f-0xba3 (4)
0xba0|44 54 00                                       |DT.             |
0xba0|         41 53 54 00                           |   AST.         |      [6]: "AST" time_zone_designation 0xba3-0xba7 (4)
0xba0|                     41 44 44 54 00            |       ADDT.    |      [7]: "ADDT" time_zone_designation 0xba7-0xbac (5)
     |                                               |                |    leap_second_records[0:27]: 0xbac-0xcf0 (324)
     |                                               |                |      [0]{}: leap_second_record 0xbac-0xbb8 (12)
0xba0|                                    00 00 00 00|            ....|        occur: "1972-07-01T00:00:00Z" (78796800) 0xbac-0xbb4 (8)
0xbb0|04 b2 58 00                                    |..X.            |
0xbb0|            00 00 00 01                        |    ....        |        corr: 1 0xbb4-0xbb8 (4)
     |                                               |                |      [1]{}: leap_second_record 0xbb8-0xbc4 (12)
0xbb0|                        00 00 00 00 05 a4 ec 01|        ........|        occur: "1973-01-01T00:00:01Z" (94694401) 0xbb8-0xbc0 (8)
0xbc0|00 00 00 02                                    |....            |        corr: 2 0xbc0-0xbc4 (4)
     |                                               |                |      [2]{}: leap_second_record 0xbc4-0xbd0 (12)
0xbc0|            00 00 00 00 07 86 1f 82            |    ........    |        occur: "1974-01-01T00:00:02Z" (126230402) 0xbc4-0xbcc (8)
0xbc0|                                    00 00 00 03|            ....|        corr: 3 0xbcc-0xbd0 (4)
     |                                               |                |      [3]{}: leap_second_record 0xbd0-0xbdc (12)
0xbd0|00 00 00 00 09 67 53 03                        |.....gS.        |        occur: "1975-01-01T00:00:03Z" (157766403) 0xbd0-0xbd8 (8)
0xbd0|                        00 00 00 04            |        ....    |        corr: 4 0xbd8-0xbdc (4)
     |                                               |                |      [4]{}: leap_second_record 0xbdc-0xbe8 (12)
0xbd0|                                    00 00 00 00|            ....|        occur: "1976-01-01T00:00:04Z" (189302404) 0xbdc-0xbe4 (8)
0xbe0|0b 48 86 84                                    |.H..            |
0xbe0|            00 00 00 05                        |    ....        |        corr: 5 0xbe4-0xbe8 (4)
     |                                               |                |      [5]{}: leap_second_record 0xbe8-0xbf4 (12)
0xbe0|                        00 00 00 00 0d 2b 0b 85|        .....+..|        occur: "1977-01-01T00:00:05Z" (220924805) 0xbe8-0xbf0 (8)
0xbf0|00 00 00 06                                    |....            |        corr: 6 0xbf0-0xbf4 (4)
     |                                               |                |      [6]{}: leap_second_record 0xbf4-0xc00 (12)
0xbf0|            00 00 00 00 0f 0c 3f 06            |    ......?.    |        occur: "1978-01-01T00:00:06Z" (252460806) 0xbf4-0xbfc (8)
0xbf0|                                    00 00 00 07|            ....|        corr: 7 0xbfc-0xc00 (4)
     |                                               |                |      [7]{}: leap_second_record 0xc00-0xc0c (12)
0xc00|00 00 00 00 10 ed 72 87                        |......r.        |        occur: "1979-01-01T00:00:07Z" (283996807) 0xc00-0xc08 (8)
0xc00|                        00 00 00 08            |        ....    |        corr: 8 0xc08-0xc0c (4)
     |                                               |                |      [8]{}: leap_second_record 0xc0c-0xc18 (12)
0xc00|                                    00 00 00 00|            ....|        occur: "1980-01-01T00:00:08Z" (315532808) 0xc0c-0xc14 (8)
0xc10|12 ce a6 08                                    |....            |
0xc10|            00 00 00 09                        |    ....        |        corr: 9 0xc14-0xc18 (4)
     |                                               |                |      [9]{}: leap_second_record 0xc18-0xc24 (12)
0xc10|                        00 00 00 00 15 9f ca 89|        ........|        occur: "1981-07-01T00:00:09Z" (362793609) 0xc18-0xc20 (8)
0xc20|00 00 00 0a                                    |....            |        corr: 10 0xc20-0xc24 (4)
     |                                               |                |      [10]{}: leap_second_record 0xc24-0xc30 (12)
0xc20|            00 00 00 00 17 80 fe 0a            |    ........    |        occur: "1982-07-01T00:00:10Z" (394329610) 0xc24-0xc2c (8)
0xc20|                                    00 00 00 0b|            ....|        corr: 11 0xc2c-0xc30 (4)
     |                                               |                |      [11]{}: leap_second_record 0xc30-0xc3c (12)
0xc30|00 00 00 00 19 62 31 8b                        |.....b1.        |        occur: "1983-07-01T00:00:11Z" (425865611) 0xc30-0xc38 (8)
0xc30|                        00 00 00 0c            |        ....    |        corr: 12 0xc38-0xc3c (4)
     |                                               |                |      [12]{}: leap_second_record 0xc3c-0xc48 (12)
0xc30|                                    00 00 00 00|            ....|        occur: "1985-07-01T00:00:12Z" (489024012) 0xc3c-0xc44 (8)
0xc40|1d 25 ea 0c                                    |.%..            |
0xc40|            00 00 00 0d                        |    ....        |        corr: 13 0xc44-0xc48 (4)
     |                                               |                |      [13]{}: leap_second_record 0xc48-0xc54 (12)
0xc40|                        00 00 00 00 21 da e5 0d|        ....!...|        occur: "1988-01-01T00:00:13Z" (567993613) 0xc48-0xc50 (8)
0xc50|00 00 00 0e                                    |....            |        corr: 14 0xc50-0xc54 (4)
     |                                               |                |      [14]{}: leap_second_record 0xc54-0xc60 (12)
0xc50|            00 00 00 00 25 9e 9d 8e            |    ....%...    |        occur: "1990-01-01T00:00:14Z" (631152014) 0xc54-0xc5c (8)
0xc50|                                    00 00 00 0f|            ....|        corr: 15 0xc5c-0xc60 (4)
     |                                               |                |      [15]{}: leap_second_record 0xc60-0xc6c (12)
0xc60|00 00 00 00 27 7f d1 0f                        |....'...        |        occur: "1991-01-01T00:00:15Z" (662688015) 0xc60-0xc68 (8)
0xc60|                        00 00 00 10            |        ....    |        corr: 16 0xc68-0xc6c (4)
     |                                               |                |      [16]{}: leap_second_record 0xc6c-0xc78 (12)
0xc60|                                    00 00 00 00|            ....|        occur: "1992-07-01T00:00:16Z" (709948816) 0xc6c-0xc74 (8)
0xc70|2a 50 f5 90                                    |*P..            |
0xc70|            00 00 00 11                        |    ....        |        corr: 17 0xc74-0xc78 (4)
     |                                               |                |      [17]{}: leap_second_record 0xc78-0xc84 (12)
0xc70|                        00 00 00 00 2c 32 29 11|        ....,2).|        occur: "1993-07-01T00:00:17Z" (741484817) 0xc78-0xc80 (8)
0xc80|00 00 00 12                                    |....            |        corr: 18 0xc80-0xc84 (4)
     |                                               |                |      [18]{}: leap_second_record 0xc84-0xc90 (12)
0xc80|            00 00 00 00 2e 13 5c 92            |    ......\.    |        occur: "1994-07-01T00:00:18Z" (773020818) 0xc84-0xc8c (8)
0xc80|                                    00 00 00 13|            ....|        corr: 19 0xc8c-0xc90 (4)
     |                                               |                |      [19]{}: leap_second_record 0xc90-0xc9c (12)
0xc90|00 00 00 00 30 e7 24 13                        |....0.$.        |        occur: "1996-01-01T00:00:19Z" (820454419) 0xc90-0xc98 (8)
0xc90|                        00 00 00 14            |        ....    |        corr: 20 0xc98-0xc9c (4)
     |                                               |                |      [20]{}: leap_second_record 0xc9c-0xca8 (12)
0xc90|                                    00 00 00 00|            ....|        occur: "1997-07-01T00:00:20Z" (867715220) 0xc9c-0xca4 (8)
0xca0|33 b8 48 94                                    |3.H.            |
0xca0|            00 00 00 15                        |    ....        |        corr: 21 0xca4-0xca8 (4)
     |                                               |                |      [21]{}: leap_second_record 0xca8-0xcb4 (12)
0xca0|                        00 00 00 00 36 8c 10 15|        ....6...|        occur: "1999-01-01T00:00:21Z" (915148821) 0xca8-0xcb0 (8)
0xcb0|00 00 00 16                                    |....            |        corr: 22 0xcb0-0xcb4 (4)
     |                                               |                |      [22]{}: leap_second_record 0xcb4-0xcc0 (12)
0xcb0|            00 00 00 00 43 b7 1b 96            |    ....C...    |        occur: "2006-01-01T00:00:22Z" (1136073622) 0xcb4-0xcbc (8)
0xcb0|                                    00 00 00 17|            ....|        corr: 23 0xcbc-0xcc0 (4)
     |                                               |                |      [23]{}: leap_second_record 0xcc0-0xccc (12)
0xcc0|00 00 00 00 49 5c 07 97                        |....I\..        |        occur: "2009-01-01T00:00:23Z" (1230768023) 0xcc0-0xcc8 (8)
0xcc0|                        00 00 00 18            |        ....    |        corr: 24 0xcc8-0xccc (4)
     |                                               |                |      [24]{}: leap_second_record 0xccc-0xcd8 (12)
0xcc0|                                    00 00 00 00|            ....|        occur: "2012-07-01T00:00:24Z" (1341100824) 0xccc-0xcd4 (8)
0xcd0|4f ef 93 18                                    |O...            |
0xcd0|            00 00 00 19                        |    ....        |        corr: 25 0xcd4-0xcd8 (4)
     |                                               |                |      [25]{}: leap_second_record 0xcd8-0xce4 (12)
0xcd0|                        00 00 00 00 55 93 2d 99|        ....U.-.|        occur: "2015-07-01T00:00:25Z" (1435708825) 0xcd8-0xce0 (8)
0xce0|00 00 00 1a                                    |....            |        corr: 26 0xce0-0xce4 (4)
     |                                               |                |      [26]{}: leap_second_record 0xce4-0xcf0 (12)
0xce0|            00 00 00 00 58 68 46 9a            |    ....XhF.    |        occur: "2017-01-01T00:00:26Z" (1483228826) 0xce4-0xcec (8)
0xce0|                                    00 00 00 1b|            ....|        corr: 27 0xcec-0xcf0 (4)
     |                                               |                |    standard_wall_indicators[0:11]: 0xcf0-0xcfb (11)
0xcf0|00                                             |.               |      [0]: 0 standard_wall_indicator (valid) 0xcf0-0xcf1 (1)
0xcf0|   00                                          | .              |      [1]: 0 standard_wall_indicator (valid) 0xcf1-0xcf2 (1)
0xcf0|      00                                       |  .             |      [2]: 0 standard_wall_indicator (valid) 0xcf2-0xcf3 (1)
0xcf0|         00                                    |   .            |      [3]: 0 standard_wall_indicator (valid) 0xcf3-0xcf4 (1)
0xcf0|            00                                 |    .           |      [4]: 0 standard_wall_indicator (valid) 0xcf4-0xcf5 (1)
0xcf0|               01                              |     .          |      [5]: 1 standard_wall_indicator (valid) 0xcf5-0xcf6 (1)
0xcf0|                  00                           |      .         |      [6]: 0 standard_wall_indicator (valid) 0xcf6-0xcf7 (1)
0xcf0|                     00                        |       .        |      [7]: 0 standard_wall_indicator (valid) 0xcf7-0xcf8 (1)
0xcf0|                        00                     |        .       |      [8]: 0 standard_wall_indicator (valid) 0xcf8-0xcf9 (1)
0xcf0|                           00                  |         .      |      [9]: 0 standard_wall_indicator (valid) 0xcf9-0xcfa (1)
0xcf0|                              00               |          .     |      [10]: 0 standard_wall_indicator (valid) 0xcfa-0xcfb (1)
     |                                               |                |    ut_local_indicators[0:11]: 0xcfb-0xd06 (11)
0xcf0|                                 00            |           .    |      [0]: 0 ut_local_indicator (valid) 0xcfb-0xcfc (1)
0xcf0|                                    00         |            .   |      [1]: 0 ut_local_indicator (valid) 0xcfc-0xcfd (1)
0xcf0|                                       00      |             .  |      [2]: 0 ut_local_indicator (valid) 0xcfd-0xcfe (1)
0xcf0|                                          00   |              . |      [3]: 0 ut_local_indicator (valid) 0xcfe-0xcff (1)
0xcf0|                                             00|               .|      [4]: 0 ut_local_indicator (valid) 0xcff-0xd00 (1)
0xd00|01                                             |.               |      [5]: 1 ut_local_indicator (valid) 0xd00-0xd01 (1)
0xd00|   00                                          | .              |      [6]: 0 ut_local_indicator (valid) 0xd01-0xd02 (1)
0xd00|      00                                       |  .             |      [7]: 0 ut_local_indicator (valid) 0xd02-0xd03 (1)
0xd00|         00                                    |   .            |      [8]: 0 ut_local_indicator (valid) 0xd03-0xd04 (1)
0xd00|            00                                 |    .           |      [9]: 0 ut_local_indicator (valid) 0xd04-0xd05 (1)
0xd00|               00                              |     .          |      [10]: 0 ut_local_indicator (valid) 0xd05-0xd06 (1)
     |                                               |                |  footer{}: 0xd06-0xd08 (2)
0xd00|                  0a                           |      .         |    nl1: 10 (valid) 0xd06-0xd07 (1)
     |                                               |                |    tz_string: "" 0xd07-0xd07 (0)
0xd00|                     0a|                       |       .|       |    nl2: 10 (valid) 0xd07-0xd08 (1)
