$ fq -d tzif dv Grand_Turk
     |00 01 02 03 04 05 06 07 08 09 0a 0b 0c 0d 0e 0f|0123456789abcdef|.{}: Grand_Turk (tzif) 0x0-0x7a7.7 (1960)
     |                                               |                |  v1header{}: 0x0-0x2b.7 (44)
0x000|54 5a 69 66                                    |TZif            |    magic: 0x545a6966 (valid) 0x0-0x3.7 (4)
0x000|            32                                 |    2           |    ver: "2" (0x32) (valid) 0x4-0x4.7 (1)
0x000|               00 00 00 00 00 00 00 00 00 00 00|     ...........|    reserved: raw bits 0x5-0x13.7 (15)
0x010|00 00 00 00                                    |....            |
0x010|            00 00 00 00                        |    ....        |    isutcnt: 0 0x14-0x17.7 (4)
0x010|                        00 00 00 00            |        ....    |    isstdcnt: 0 0x18-0x1b.7 (4)
0x010|                                    00 00 00 1b|            ....|    leapcnt: 27 0x1c-0x1f.7 (4)
0x020|00 00 00 57                                    |...W            |    timecnt: 87 0x20-0x23.7 (4)
0x020|            00 00 00 06                        |    ....        |    typecnt: 6 0x24-0x27.7 (4)
0x020|                        00 00 00 14            |        ....    |    charcnt: 20 0x28-0x2b.7 (4)
     |                                               |                |  v1datablock{}: 0x2c-0x2ee.7 (707)
     |                                               |                |    transition_times[0:87]: 0x2c-0x187.7 (348)
0x020|                                    80 00 00 00|            ....|      [0]: "1901-12-13T20:45:52Z" (-2147483648) transition_time 0x2c-0x2f.7 (4)
0x030|93 0f b4 fe                                    |....            |      [1]: "1912-02-01T05:07:10Z" (-1827687170) transition_time 0x30-0x33.7 (4)
0x030|            11 89 65 f8                        |    ..e.        |      [2]: "1979-04-29T07:00:08Z" (294217208) transition_time 0x34-0x37.7 (4)
0x030|                        12 79 48 e8            |        .yH.    |      [3]: "1979-10-28T06:00:08Z" (309938408) transition_time 0x38-0x3b.7 (4)
0x030|                                    13 69 47 f9|            .iG.|      [4]: "1980-04-27T07:00:09Z" (325666809) transition_time 0x3c-0x3f.7 (4)
0x040|14 59 2a e9                                    |.Y*.            |      [5]: "1980-10-26T06:00:09Z" (341388009) transition_time 0x40-0x43.7 (4)
0x040|            15 49 29 f9                        |    .I).        |      [6]: "1981-04-26T07:00:09Z" (357116409) transition_time 0x44-0x47.7 (4)
0x040|                        16 39 0c ea            |        .9..    |      [7]: "1981-10-25T06:00:10Z" (372837610) transition_time 0x48-0x4b.7 (4)
0x040|                                    17 29 0b fa|            .)..|      [8]: "1982-04-25T07:00:10Z" (388566010) transition_time 0x4c-0x4f.7 (4)
0x050|18 22 29 6b                                    |.")k            |      [9]: "1982-10-31T06:00:11Z" (404892011) transition_time 0x50-0x53.7 (4)
0x050|            19 08 ed fb                        |    ....        |      [10]: "1983-04-24T07:00:11Z" (420015611) transition_time 0x54-0x57.7 (4)
0x050|                        1a 02 0b 6c            |        ...l    |      [11]: "1983-10-30T06:00:12Z" (436341612) transition_time 0x58-0x5b.7 (4)
0x050|                                    1a f2 0a 7c|            ...||      [12]: "1984-04-29T07:00:12Z" (452070012) transition_time 0x5c-0x5f.7 (4)
0x060|1b e1 ed 6c                                    |...l            |      [13]: "1984-10-28T06:00:12Z" (467791212) transition_time 0x60-0x63.7 (4)
0x060|            1c d1 ec 7c                        |    ...|        |      [14]: "1985-04-28T07:00:12Z" (483519612) transition_time 0x64-0x67.7 (4)
0x060|                        1d c1 cf 6d            |        ...m    |      [15]: "1985-10-27T06:00:13Z" (499240813) transition_time 0x68-0x6b.7 (4)
0x060|                                    1e b1 ce 7d|            ...}|      [16]: "1986-04-27T07:00:13Z" (514969213) transition_time 0x6c-0x6f.7 (4)
0x070|1f a1 b1 6d                                    |...m            |      [17]: "1986-10-26T06:00:13Z" (530690413) transition_time 0x70-0x73.7 (4)
0x070|            20 76 00 fd                        |     v..        |      [18]: "1987-04-05T07:00:13Z" (544604413) transition_time 0x74-0x77.7 (4)
0x070|                        21 81 93 6d            |        !..m    |      [19]: "1987-10-25T06:00:13Z" (562140013) transition_time 0x78-0x7b.7 (4)
0x070|                                    22 55 e2 fe|            "U..|      [20]: "1988-04-03T07:00:14Z" (576054014) transition_time 0x7c-0x7f.7 (4)
0x080|23 6a af ee                                    |#j..            |      [21]: "1988-10-30T06:00:14Z" (594194414) transition_time 0x80-0x83.7 (4)
0x080|            24 35 c4 fe                        |    $5..        |      [22]: "1989-04-02T07:00:14Z" (607503614) transition_time 0x84-0x87.7 (4)
0x080|                        25 4a 91 ee            |        %J..    |      [23]: "1989-10-29T06:00:14Z" (625644014) transition_time 0x88-0x8b.7 (4)
0x080|                                    26 15 a6 ff|            &...|      [24]: "1990-04-01T07:00:15Z" (638953215) transition_time 0x8c-0x8f.7 (4)
0x090|27 2a 73 ef                                    |'*s.            |      [25]: "1990-10-28T06:00:15Z" (657093615) transition_time 0x90-0x93.7 (4)
0x090|            27 fe c3 80                        |    '...        |      [26]: "1991-04-07T07:00:16Z" (671007616) transition_time 0x94-0x97.7 (4)
0x090|                        29 0a 55 f0            |        ).U.    |      [27]: "1991-10-27T06:00:16Z" (688543216) transition_time 0x98-0x9b.7 (4)
0x090|                                    29 de a5 80|            )...|      [28]: "1992-04-05T07:00:16Z" (702457216) transition_time 0x9c-0x9f.7 (4)
0x0a0|2a ea 37 f1                                    |*.7.            |      [29]: "1992-10-25T06:00:17Z" (719992817) transition_time 0xa0-0xa3.7 (4)
0x0a0|            2b be 87 81                        |    +...        |      [30]: "1993-04-04T07:00:17Z" (733906817) transition_time 0xa4-0xa7.7 (4)
0x0a0|                        2c d3 54 72            |        ,.Tr    |      [31]: "1993-10-31T06:00:18Z" (752047218) transition_time 0xa8-0xab.7 (4)
0x0a0|                                    2d 9e 69 82|            -.i.|      [32]: "1994-04-03T07:00:18Z" (765356418) transition_time 0xac-0xaf.7 (4)
0x0b0|2e b3 36 73                                    |..6s            |      [33]: "1994-10-30T06:00:19Z" (783496819) transition_time 0xb0-0xb3.7 (4)
0x0b0|            2f 7e 4b 83                        |    /~K.        |      [34]: "1995-04-02T07:00:19Z" (796806019) transition_time 0xb4-0xb7.7 (4)
0x0b0|                        30 93 18 73            |        0..s    |      [35]: "1995-10-29T06:00:19Z" (814946419) transition_time 0xb8-0xbb.7 (4)
0x0b0|                                    31 67 68 04|            1gh.|      [36]: "1996-04-07T07:00:20Z" (828860420) transition_time 0xbc-0xbf.7 (4)
0x0c0|32 72 fa 74                                    |2r.t            |      [37]: "1996-10-27T06:00:20Z" (846396020) transition_time 0xc0-0xc3.7 (4)
0x0c0|            33 47 4a 04                        |    3GJ.        |      [38]: "1997-04-06T07:00:20Z" (860310020) transition_time 0xc4-0xc7.7 (4)
0x0c0|                        34 52 dc 75            |        4R.u    |      [39]: "1997-10-26T06:00:21Z" (877845621) transition_time 0xc8-0xcb.7 (4)
0x0c0|                                    35 27 2c 05|            5',.|      [40]: "1998-04-05T07:00:21Z" (891759621) transition_time 0xcc-0xcf.7 (4)
0x0d0|36 32 be 75                                    |62.u            |      [41]: "1998-10-25T06:00:21Z" (909295221) transition_time 0xd0-0xd3.7 (4)
0x0d0|            37 07 0e 06                        |    7...        |      [42]: "1999-04-04T07:00:22Z" (923209222) transition_time 0xd4-0xd7.7 (4)
0x0d0|                        38 1b da f6            |        8...    |      [43]: "1999-10-31T06:00:22Z" (941349622) transition_time 0xd8-0xdb.7 (4)
0x0d0|                                    38 e6 f0 06|            8...|      [44]: "2000-04-02T07:00:22Z" (954658822) transition_time 0xdc-0xdf.7 (4)
0x0e0|39 fb bc f6                                    |9...            |      [45]: "2000-10-29T06:00:22Z" (972799222) transition_time 0xe0-0xe3.7 (4)
0x0e0|            3a c6 d2 06                        |    :...        |      [46]: "2001-04-01T07:00:22Z" (986108422) transition_time 0xe4-0xe7.7 (4)
0x0e0|                        3b db 9e f6            |        ;...    |      [47]: "2001-10-28T06:00:22Z" (1004248822) transition_time 0xe8-0xeb.7 (4)
0x0e0|                                    3c af ee 86|            <...|      [48]: "2002-04-07T07:00:22Z" (1018162822) transition_time 0xec-0xef.7 (4)
0x0f0|3d bb 80 f6                                    |=...            |      [49]: "2002-10-27T06:00:22Z" (1035698422) transition_time 0xf0-0xf3.7 (4)
0x0f0|            3e 8f d0 86                        |    >...        |      [50]: "2003-04-06T07:00:22Z" (1049612422) transition_time 0xf4-0xf7.7 (4)
0x0f0|                        3f 9b 62 f6            |        ?.b.    |      [51]: "2003-10-26T06:00:22Z" (1067148022) transition_time 0xf8-0xfb.7 (4)
0x0f0|                                    40 6f b2 86|            @o..|      [52]: "2004-04-04T07:00:22Z" (1081062022) transition_time 0xfc-0xff.7 (4)
0x100|41 84 7f 76                                    |A..v            |      [53]: "2004-10-31T06:00:22Z" (1099202422) transition_time 0x100-0x103.7 (4)
0x100|            42 4f 94 86                        |    BO..        |      [54]: "2005-04-03T07:00:22Z" (1112511622) transition_time 0x104-0x107.7 (4)
0x100|                        43 64 61 76            |        Cdav    |      [55]: "2005-10-30T06:00:22Z" (1130652022) transition_time 0x108-0x10b.7 (4)
0x100|                                    44 2f 76 87|            D/v.|      [56]: "2006-04-02T07:00:23Z" (1143961223) transition_time 0x10c-0x10f.7 (4)
0x110|45 44 43 77                                    |EDCw            |      [57]: "2006-10-29T06:00:23Z" (1162101623) transition_time 0x110-0x113.7 (4)
0x110|            45 f3 a9 07                        |    E...        |      [58]: "2007-03-11T07:00:23Z" (1173596423) transition_time 0x114-0x117.7 (4)
0x110|                        47 2d 5f f7            |        G-_.    |      [59]: "2007-11-04T06:00:23Z" (1194156023) transition_time 0x118-0x11b.7 (4)
0x110|                                    47 d3 8b 07|            G...|      [60]: "2008-03-09T07:00:23Z" (1205046023) transition_time 0x11c-0x11f.7 (4)
0x120|49 0d 41 f7                                    |I.A.            |      [61]: "2008-11-02T06:00:23Z" (1225605623) transition_time 0x120-0x123.7 (4)
0x120|            49 b3 6d 08                        |    I.m.        |      [62]: "2009-03-08T07:00:24Z" (1236495624) transition_time 0x124-0x127.7 (4)
0x120|                        4a ed 23 f8            |        J.#.    |      [63]: "2009-11-01T06:00:24Z" (1257055224) transition_time 0x128-0x12b.7 (4)
0x120|                                    4b 9c 89 88|            K...|      [64]: "2010-03-14T07:00:24Z" (1268550024) transition_time 0x12c-0x12f.7 (4)
0x130|4c d6 40 78                                    |L.@x            |      [65]: "2010-11-07T06:00:24Z" (1289109624) transition_time 0x130-0x133.7 (4)
0x130|            4d 7c 6b 88                        |    M|k.        |      [66]: "2011-03-13T07:00:24Z" (1299999624) transition_time 0x134-0x137.7 (4)
0x130|                        4e b6 22 78            |        N."x    |      [67]: "2011-11-06T06:00:24Z" (1320559224) transition_time 0x138-0x13b.7 (4)
0x130|                                    4f 5c 4d 88|            O\M.|      [68]: "2012-03-11T07:00:24Z" (1331449224) transition_time 0x13c-0x13f.7 (4)
0x140|50 96 04 79                                    |P..y            |      [69]: "2012-11-04T06:00:25Z" (1352008825) transition_time 0x140-0x143.7 (4)
0x140|            51 3c 2f 89                        |    Q</.        |      [70]: "2013-03-10T07:00:25Z" (1362898825) transition_time 0x144-0x147.7 (4)
0x140|                        52 75 e6 79            |        Ru.y    |      [71]: "2013-11-03T06:00:25Z" (1383458425) transition_time 0x148-0x14b.7 (4)
0x140|                                    53 1c 11 89|            S...|      [72]: "2014-03-09T07:00:25Z" (1394348425) transition_time 0x14c-0x14f.7 (4)
0x150|54 55 c8 79                                    |TU.y            |      [73]: "2014-11-02T06:00:25Z" (1414908025) transition_time 0x150-0x153.7 (4)
0x150|            54 fb f3 89                        |    T...        |      [74]: "2015-03-08T07:00:25Z" (1425798025) transition_time 0x154-0x157.7 (4)
0x150|                        5a a4 d4 0b            |        Z...    |      [75]: "2018-03-11T07:00:27Z" (1520751627) transition_time 0x158-0x15b.7 (4)
0x150|                                    5b de 8a fb|            [...|      [76]: "2018-11-04T06:00:27Z" (1541311227) transition_time 0x15c-0x15f.7 (4)
0x160|5c 84 b6 0b                                    |\...            |      [77]: "2019-03-10T07:00:27Z" (1552201227) transition_time 0x160-0x163.7 (4)
0x160|            5d be 6c fb                        |    ].l.        |      [78]: "2019-11-03T06:00:27Z" (1572760827) transition_time 0x164-0x167.7 (4)
0x160|                        5e 64 98 0b            |        ^d..    |      [79]: "2020-03-08T07:00:27Z" (1583650827) transition_time 0x168-0x16b.7 (4)
0x160|                                    5f 9e 4e fb|            _.N.|      [80]: "2020-11-01T06:00:27Z" (1604210427) transition_time 0x16c-0x16f.7 (4)
0x170|60 4d b4 8b                                    |`M..            |      [81]: "2021-03-14T07:00:27Z" (1615705227) transition_time 0x170-0x173.7 (4)
0x170|            61 87 6b 7b                        |    a.k{        |      [82]: "2021-11-07T06:00:27Z" (1636264827) transition_time 0x174-0x177.7 (4)
0x170|                        62 2d 96 8b            |        b-..    |      [83]: "2022-03-13T07:00:27Z" (1647154827) transition_time 0x178-0x17b.7 (4)
0x170|                                    63 67 4d 7b|            cgM{|      [84]: "2022-11-06T06:00:27Z" (1667714427) transition_time 0x17c-0x17f.7 (4)
0x180|64 0d 78 8b                                    |d.x.            |      [85]: "2023-03-12T07:00:27Z" (1678604427) transition_time 0x180-0x183.7 (4)
0x180|            64 9b 78 1b                        |    d.x.        |      [86]: "2023-06-28T00:00:27Z" (1687910427) transition_time 0x184-0x187.7 (4)
     |                                               |                |    transition_types[0:87]: 0x188-0x1de.7 (87)
0x180|                        01                     |        .       |      [0]: 1 transition_type 0x188-0x188.7 (1)
0x180|                           02                  |         .      |      [1]: 2 transition_type 0x189-0x189.7 (1)
0x180|                              03               |          .     |      [2]: 3 transition_type 0x18a-0x18a.7 (1)
0x180|                                 02            |           .    |      [3]: 2 transition_type 0x18b-0x18b.7 (1)
0x180|                                    03         |            .   |      [4]: 3 transition_type 0x18c-0x18c.7 (1)
0x180|                                       02      |             .  |      [5]: 2 transition_type 0x18d-0x18d.7 (1)
0x180|                                          03   |              . |      [6]: 3 transition_type 0x18e-0x18e.7 (1)
0x180|                                             02|               .|      [7]: 2 transition_type 0x18f-0x18f.7 (1)
0x190|03                                             |.               |      [8]: 3 transition_type 0x190-0x190.7 (1)
0x190|   02                                          | .              |      [9]: 2 transition_type 0x191-0x191.7 (1)
0x190|      03                                       |  .             |      [10]: 3 transition_type 0x192-0x192.7 (1)
0x190|         02                                    |   .            |      [11]: 2 transition_type 0x193-0x193.7 (1)
0x190|            03                                 |    .           |      [12]: 3 transition_type 0x194-0x194.7 (1)
0x190|               02                              |     .          |      [13]: 2 transition_type 0x195-0x195.7 (1)
0x190|                  03                           |      .         |      [14]: 3 transition_type 0x196-0x196.7 (1)
0x190|                     02                        |       .        |      [15]: 2 transition_type 0x197-0x197.7 (1)
0x190|                        03                     |        .       |      [16]: 3 transition_type 0x198-0x198.7 (1)
0x190|                           02                  |         .      |      [17]: 2 transition_type 0x199-0x199.7 (1)
0x190|                              03               |          .     |      [18]: 3 transition_type 0x19a-0x19a.7 (1)
0x190|                                 02            |           .    |      [19]: 2 transition_type 0x19b-0x19b.7 (1)
0x190|                                    03         |            .   |      [20]: 3 transition_type 0x19c-0x19c.7 (1)
0x190|                                       02      |             .  |      [21]: 2 transition_type 0x19d-0x19d.7 (1)
0x190|                                          03   |              . |      [22]: 3 transition_type 0x19e-0x19e.7 (1)
0x190|                                             02|               .|      [23]: 2 transition_type 0x19f-0x19f.7 (1)
0x1a0|03                                             |.               |      [24]: 3 transition_type 0x1a0-0x1a0.7 (1)
0x1a0|   02                                          | .              |      [25]: 2 transition_type 0x1a1-0x1a1.7 (1)
0x1a0|      03                                       |  .             |      [26]: 3 transition_type 0x1a2-0x1a2.7 (1)
0x1a0|         02                                    |   .            |      [27]: 2 transition_type 0x1a3-0x1a3.7 (1)
0x1a0|            03                                 |    .           |      [28]: 3 transition_type 0x1a4-0x1a4.7 (1)
0x1a0|               02                              |     .          |      [29]: 2 transition_type 0x1a5-0x1a5.7 (1)
0x1a0|                  03                           |      .         |      [30]: 3 transition_type 0x1a6-0x1a6.7 (1)
0x1a0|                     02                        |       .        |      [31]: 2 transition_type 0x1a7-0x1a7.7 (1)
0x1a0|                        03                     |        .       |      [32]: 3 transition_type 0x1a8-0x1a8.7 (1)
0x1a0|                           02                  |         .      |      [33]: 2 transition_type 0x1a9-0x1a9.7 (1)
0x1a0|                              03               |          .     |      [34]: 3 transition_type 0x1aa-0x1aa.7 (1)
0x1a0|                                 02            |           .    |      [35]: 2 transition_type 0x1ab-0x1ab.7 (1)
0x1a0|                                    03         |            .   |      [36]: 3 transition_type 0x1ac-0x1ac.7 (1)
0x1a0|                                       02      |             .  |      [37]: 2 transition_type 0x1ad-0x1ad.7 (1)
0x1a0|                                          03   |              . |      [38]: 3 transition_type 0x1ae-0x1ae.7 (1)
0x1a0|                                             02|               .|      [39]: 2 transition_type 0x1af-0x1af.7 (1)
0x1b0|03                                             |.               |      [40]: 3 transition_type 0x1b0-0x1b0.7 (1)
0x1b0|   02                                          | .              |      [41]: 2 transition_type 0x1b1-0x1b1.7 (1)
0x1b0|      03                                       |  .             |      [42]: 3 transition_type 0x1b2-0x1b2.7 (1)
0x1b0|         02                                    |   .            |      [43]: 2 transition_type 0x1b3-0x1b3.7 (1)
0x1b0|            03                                 |    .           |      [44]: 3 transition_type 0x1b4-0x1b4.7 (1)
0x1b0|               02                              |     .          |      [45]: 2 transition_type 0x1b5-0x1b5.7 (1)
0x1b0|                  03                           |      .         |      [46]: 3 transition_type 0x1b6-0x1b6.7 (1)
0x1b0|                     02                        |       .        |      [47]: 2 transition_type 0x1b7-0x1b7.7 (1)
0x1b0|                        03                     |        .       |      [48]: 3 transition_type 0x1b8-0x1b8.7 (1)
0x1b0|                           02                  |         .      |      [49]: 2 transition_type 0x1b9-0x1b9.7 (1)
0x1b0|                              03               |          .     |      [50]: 3 transition_type 0x1ba-0x1ba.7 (1)
0x1b0|                                 02            |           .    |      [51]: 2 transition_type 0x1bb-0x1bb.7 (1)
0x1b0|                                    03         |            .   |      [52]: 3 transition_type 0x1bc-0x1bc.7 (1)
0x1b0|                                       02      |             .  |      [53]: 2 transition_type 0x1bd-0x1bd.7 (1)
0x1b0|                                          03   |              . |      [54]: 3 transition_type 0x1be-0x1be.7 (1)
0x1b0|                                             02|               .|      [55]: 2 transition_type 0x1bf-0x1bf.7 (1)
0x1c0|03                                             |.               |      [56]: 3 transition_type 0x1c0-0x1c0.7 (1)
0x1c0|   02                                          | .              |      [57]: 2 transition_type 0x1c1-0x1c1.7 (1)
0x1c0|      03                                       |  .             |      [58]: 3 transition_type 0x1c2-0x1c2.7 (1)
0x1c0|         02                                    |   .            |      [59]: 2 transition_type 0x1c3-0x1c3.7 (1)
0x1c0|            03                                 |    .           |      [60]: 3 transition_type 0x1c4-0x1c4.7 (1)
0x1c0|               02                              |     .          |      [61]: 2 transition_type 0x1c5-0x1c5.7 (1)
0x1c0|                  03                           |      .         |      [62]: 3 transition_type 0x1c6-0x1c6.7 (1)
0x1c0|                     02                        |       .        |      [63]: 2 transition_type 0x1c7-0x1c7.7 (1)
0x1c0|                        03                     |        .       |      [64]: 3 transition_type 0x1c8-0x1c8.7 (1)
0x1c0|                           02                  |         .      |      [65]: 2 transition_type 0x1c9-0x1c9.7 (1)
0x1c0|                              03               |          .     |      [66]: 3 transition_type 0x1ca-0x1ca.7 (1)
0x1c0|                                 02            |           .    |      [67]: 2 transition_type 0x1cb-0x1cb.7 (1)
0x1c0|                                    03         |            .   |      [68]: 3 transition_type 0x1cc-0x1cc.7 (1)
0x1c0|                                       02      |             .  |      [69]: 2 transition_type 0x1cd-0x1cd.7 (1)
0x1c0|                                          03   |              . |      [70]: 3 transition_type 0x1ce-0x1ce.7 (1)
0x1c0|                                             02|               .|      [71]: 2 transition_type 0x1cf-0x1cf.7 (1)
0x1d0|03                                             |.               |      [72]: 3 transition_type 0x1d0-0x1d0.7 (1)
0x1d0|   02                                          | .              |      [73]: 2 transition_type 0x1d1-0x1d1.7 (1)
0x1d0|      04                                       |  .             |      [74]: 4 transition_type 0x1d2-0x1d2.7 (1)
0x1d0|         03                                    |   .            |      [75]: 3 transition_type 0x1d3-0x1d3.7 (1)
0x1d0|            02                                 |    .           |      [76]: 2 transition_type 0x1d4-0x1d4.7 (1)
0x1d0|               03                              |     .          |      [77]: 3 transition_type 0x1d5-0x1d5.7 (1)
0x1d0|                  02                           |      .         |      [78]: 2 transition_type 0x1d6-0x1d6.7 (1)
0x1d0|                     03                        |       .        |      [79]: 3 transition_type 0x1d7-0x1d7.7 (1)
0x1d0|                        02                     |        .       |      [80]: 2 transition_type 0x1d8-0x1d8.7 (1)
0x1d0|                           03                  |         .      |      [81]: 3 transition_type 0x1d9-0x1d9.7 (1)
0x1d0|                              02               |          .     |      [82]: 2 transition_type 0x1da-0x1da.7 (1)
0x1d0|                                 03            |           .    |      [83]: 3 transition_type 0x1db-0x1db.7 (1)
0x1d0|                                    02         |            .   |      [84]: 2 transition_type 0x1dc-0x1dc.7 (1)
0x1d0|                                       03      |             .  |      [85]: 3 transition_type 0x1dd-0x1dd.7 (1)
0x1d0|                                          03   |              . |      [86]: 3 transition_type 0x1de-0x1de.7 (1)
     |                                               |                |    local_time_type_records[0:6]: 0x1df-0x202.7 (36)
     |                                               |                |      [0]{}: local_time_type 0x1df-0x1e4.7 (6)
0x1d0|                                             ff|               .|        utoff: -17072 (valid) 0x1df-0x1e2.7 (4)
0x1e0|ff bd 50                                       |..P             |
0x1e0|         00                                    |   .            |        dst: 0 (valid) 0x1e3-0x1e3.7 (1)
0x1e0|            00                                 |    .           |        idx: 0 (valid) 0x1e4-0x1e4.7 (1)
     |                                               |                |      [1]{}: local_time_type 0x1e5-0x1ea.7 (6)
0x1e0|               ff ff b8 02                     |     ....       |        utoff: -18430 (valid) 0x1e5-0x1e8.7 (4)
0x1e0|                           00                  |         .      |        dst: 0 (valid) 0x1e9-0x1e9.7 (1)
0x1e0|                              04               |          .     |        idx: 4 (valid) 0x1ea-0x1ea.7 (1)
     |                                               |                |      [2]{}: local_time_type 0x1eb-0x1f0.7 (6)
0x1e0|                                 ff ff b9 b0   |           .... |        utoff: -18000 (valid) 0x1eb-0x1ee.7 (4)
0x1e0|                                             00|               .|        dst: 0 (valid) 0x1ef-0x1ef.7 (1)
0x1f0|08                                             |.               |        idx: 8 (valid) 0x1f0-0x1f0.7 (1)
     |                                               |                |      [3]{}: local_time_type 0x1f1-0x1f6.7 (6)
0x1f0|   ff ff c7 c0                                 | ....           |        utoff: -14400 (valid) 0x1f1-0x1f4.7 (4)
0x1f0|               01                              |     .          |        dst: 1 (valid) 0x1f5-0x1f5.7 (1)
0x1f0|                  0c                           |      .         |        idx: 12 (valid) 0x1f6-0x1f6.7 (1)
     |                                               |                |      [4]{}: local_time_type 0x1f7-0x1fc.7 (6)
0x1f0|                     ff ff c7 c0               |       ....     |        utoff: -14400 (valid) 0x1f7-0x1fa.7 (4)
0x1f0|                                 00            |           .    |        dst: 0 (valid) 0x1fb-0x1fb.7 (1)
0x1f0|                                    10         |            .   |        idx: 16 (valid) 0x1fc-0x1fc.7 (1)
     |                                               |                |      [5]{}: local_time_type 0x1fd-0x202.7 (6)
0x1f0|                                       ff ff b9|             ...|        utoff: -18000 (valid) 0x1fd-0x200.7 (4)
0x200|b0                                             |.               |
0x200|   00                                          | .              |        dst: 0 (valid) 0x201-0x201.7 (1)
0x200|      08                                       |  .             |        idx: 8 (valid) 0x202-0x202.7 (1)
     |                                               |                |    time_zone_designations[0:5]: 0x203-0x216.7 (20)
0x200|         4c 4d 54 00                           |   LMT.         |      [0]: "LMT" time_zone_designation 0x203-0x206.7 (4)
0x200|                     4b 4d 54 00               |       KMT.     |      [1]: "KMT" time_zone_designation 0x207-0x20a.7 (4)
0x200|                                 45 53 54 00   |           EST. |      [2]: "EST" time_zone_designation 0x20b-0x20e.7 (4)
0x200|                                             45|               E|      [3]: "EDT" time_zone_designation 0x20f-0x212.7 (4)
0x210|44 54 00                                       |DT.             |
0x210|         41 53 54 00                           |   AST.         |      [4]: "AST" time_zone_designation 0x213-0x216.7 (4)
     |                                               |                |    leap_second_records[0:27]: 0x217-0x2ee.7 (216)
     |                                               |                |      [0]{}: leap_second_record 0x217-0x21e.7 (8)
0x210|                     04 b2 58 00               |       ..X.     |        occur: "1972-07-01T00:00:00Z" (78796800) 0x217-0x21a.7 (4)
0x210|                                 00 00 00 01   |           .... |        corr: 1 0x21b-0x21e.7 (4)
     |                                               |                |      [1]{}: leap_second_record 0x21f-0x226.7 (8)
0x210|                                             05|               .|        occur: "1973-01-01T00:00:01Z" (94694401) 0x21f-0x222.7 (4)
0x220|a4 ec 01                                       |...             |
0x220|         00 00 00 02                           |   ....         |        corr: 2 0x223-0x226.7 (4)
     |                                               |                |      [2]{}: leap_second_record 0x227-0x22e.7 (8)
0x220|                     07 86 1f 82               |       ....     |        occur: "1974-01-01T00:00:02Z" (126230402) 0x227-0x22a.7 (4)
0x220|                                 00 00 00 03   |           .... |        corr: 3 0x22b-0x22e.7 (4)
     |                                               |                |      [3]{}: leap_second_record 0x22f-0x236.7 (8)
0x220|                                             09|               .|        occur: "1975-01-01T00:00:03Z" (157766403) 0x22f-0x232.7 (4)
0x230|67 53 03                                       |gS.             |
0x230|         00 00 00 04                           |   ....         |        corr: 4 0x233-0x236.7 (4)
     |                                               |                |      [4]{}: leap_second_record 0x237-0x23e.7 (8)
0x230|                     0b 48 86 84               |       .H..     |        occur: "1976-01-01T00:00:04Z" (189302404) 0x237-0x23a.7 (4)
0x230|                                 00 00 00 05   |           .... |        corr: 5 0x23b-0x23e.7 (4)
     |                                               |                |      [5]{}: leap_second_record 0x23f-0x246.7 (8)
0x230|                                             0d|               .|        occur: "1977-01-01T00:00:05Z" (220924805) 0x23f-0x242.7 (4)
0x240|2b 0b 85                                       |+..             |
0x240|         00 00 00 06                           |   ....         |        corr: 6 0x243-0x246.7 (4)
     |                                               |                |      [6]{}: leap_second_record 0x247-0x24e.7 (8)
0x240|                     0f 0c 3f 06               |       ..?.     |        occur: "1978-01-01T00:00:06Z" (252460806) 0x247-0x24a.7 (4)
0x240|                                 00 00 00 07   |           .... |        corr: 7 0x24b-0x24e.7 (4)
     |                                               |                |      [7]{}: leap_second_record 0x24f-0x256.7 (8)
0x240|                                             10|               .|        occur: "1979-01-01T00:00:07Z" (283996807) 0x24f-0x252.7 (4)
0x250|ed 72 87                                       |.r.             |
0x250|         00 00 00 08                           |   ....         |        corr: 8 0x253-0x256.7 (4)
     |                                               |                |      [8]{}: leap_second_record 0x257-0x25e.7 (8)
0x250|                     12 ce a6 08               |       ....     |        occur: "1980-01-01T00:00:08Z" (315532808) 0x257-0x25a.7 (4)
0x250|                                 00 00 00 09   |           .... |        corr: 9 0x25b-0x25e.7 (4)
     |                                               |                |      [9]{}: leap_second_record 0x25f-0x266.7 (8)
0x250|                                             15|               .|        occur: "1981-07-01T00:00:09Z" (362793609) 0x25f-0x262.7 (4)
0x260|9f ca 89                                       |...             |
0x260|         00 00 00 0a                           |   ....         |        corr: 10 0x263-0x266.7 (4)
     |                                               |                |      [10]{}: leap_second_record 0x267-0x26e.7 (8)
0x260|                     17 80 fe 0a               |       ....     |        occur: "1982-07-01T00:00:10Z" (394329610) 0x267-0x26a.7 (4)
0x260|                                 00 00 00 0b   |           .... |        corr: 11 0x26b-0x26e.7 (4)
     |                                               |                |      [11]{}: leap_second_record 0x26f-0x276.7 (8)
0x260|                                             19|               .|        occur: "1983-07-01T00:00:11Z" (425865611) 0x26f-0x272.7 (4)
0x270|62 31 8b                                       |b1.             |
0x270|         00 00 00 0c                           |   ....         |        corr: 12 0x273-0x276.7 (4)
     |                                               |                |      [12]{}: leap_second_record 0x277-0x27e.7 (8)
0x270|                     1d 25 ea 0c               |       .%..     |        occur: "1985-07-01T00:00:12Z" (489024012) 0x277-0x27a.7 (4)
0x270|                                 00 00 00 0d   |           .... |        corr: 13 0x27b-0x27e.7 (4)
     |                                               |                |      [13]{}: leap_second_record 0x27f-0x286.7 (8)
0x270|                                             21|               !|        occur: "1988-01-01T00:00:13Z" (567993613) 0x27f-0x282.7 (4)
0x280|da e5 0d                                       |...             |
0x280|         00 00 00 0e                           |   ....         |        corr: 14 0x283-0x286.7 (4)
     |                                               |                |      [14]{}: leap_second_record 0x287-0x28e.7 (8)
0x280|                     25 9e 9d 8e               |       %...     |        occur: "1990-01-01T00:00:14Z" (631152014) 0x287-0x28a.7 (4)
0x280|                                 00 00 00 0f   |           .... |        corr: 15 0x28b-0x28e.7 (4)
     |                                               |                |      [15]{}: leap_second_record 0x28f-0x296.7 (8)
0x280|                                             27|               '|        occur: "1991-01-01T00:00:15Z" (662688015) 0x28f-0x292.7 (4)
0x290|7f d1 0f                                       |...             |
0x290|         00 00 00 10                           |   ....         |        corr: 16 0x293-0x296.7 (4)
     |                                               |                |      [16]{}: leap_second_record 0x297-0x29e.7 (8)
0x290|                     2a 50 f5 90               |       *P..     |        occur: "1992-07-01T00:00:16Z" (709948816) 0x297-0x29a.7 (4)
0x290|                                 00 00 00 11   |           .... |        corr: 17 0x29b-0x29e.7 (4)
     |                                               |                |      [17]{}: leap_second_record 0x29f-0x2a6.7 (8)
0x290|                                             2c|               ,|        occur: "1993-07-01T00:00:17Z" (741484817) 0x29f-0x2a2.7 (4)
0x2a0|32 29 11                                       |2).             |
0x2a0|         00 00 00 12                           |   ....         |        corr: 18 0x2a3-0x2a6.7 (4)
     |                                               |                |      [18]{}: leap_second_record 0x2a7-0x2ae.7 (8)
0x2a0|                     2e 13 5c 92               |       ..\.     |        occur: "1994-07-01T00:00:18Z" (773020818) 0x2a7-0x2aa.7 (4)
0x2a0|                                 00 00 00 13   |           .... |        corr: 19 0x2ab-0x2ae.7 (4)
     |                                               |                |      [19]{}: leap_second_record 0x2af-0x2b6.7 (8)
0x2a0|                                             30|               0|        occur: "1996-01-01T00:00:19Z" (820454419) 0x2af-0x2b2.7 (4)
0x2b0|e7 24 13                                       |.$.             |
0x2b0|         00 00 00 14                           |   ....         |        corr: 20 0x2b3-0x2b6.7 (4)
     |                                               |                |      [20]{}: leap_second_record 0x2b7-0x2be.7 (8)
0x2b0|                     33 b8 48 94               |       3.H.     |        occur: "1997-07-01T00:00:20Z" (867715220) 0x2b7-0x2ba.7 (4)
0x2b0|                                 00 00 00 15   |           .... |        corr: 21 0x2bb-0x2be.7 (4)
     |                                               |                |      [21]{}: leap_second_record 0x2bf-0x2c6.7 (8)
0x2b0|                                             36|               6|        occur: "1999-01-01T00:00:21Z" (915148821) 0x2bf-0x2c2.7 (4)
0x2c0|8c 10 15                                       |...             |
0x2c0|         00 00 00 16                           |   ....         |        corr: 22 0x2c3-0x2c6.7 (4)
     |                                               |                |      [22]{}: leap_second_record 0x2c7-0x2ce.7 (8)
0x2c0|                     43 b7 1b 96               |       C...     |        occur: "2006-01-01T00:00:22Z" (1136073622) 0x2c7-0x2ca.7 (4)
0x2c0|                                 00 00 00 17   |           .... |        corr: 23 0x2cb-0x2ce.7 (4)
     |                                               |                |      [23]{}: leap_second_record 0x2cf-0x2d6.7 (8)
0x2c0|                                             49|               I|        occur: "2009-01-01T00:00:23Z" (1230768023) 0x2cf-0x2d2.7 (4)
0x2d0|5c 07 97                                       |\..             |
0x2d0|         00 00 00 18                           |   ....         |        corr: 24 0x2d3-0x2d6.7 (4)
     |                                               |                |      [24]{}: leap_second_record 0x2d7-0x2de.7 (8)
0x2d0|                     4f ef 93 18               |       O...     |        occur: "2012-07-01T00:00:24Z" (1341100824) 0x2d7-0x2da.7 (4)
0x2d0|                                 00 00 00 19   |           .... |        corr: 25 0x2db-0x2de.7 (4)
     |                                               |                |      [25]{}: leap_second_record 0x2df-0x2e6.7 (8)
0x2d0|                                             55|               U|        occur: "2015-07-01T00:00:25Z" (1435708825) 0x2df-0x2e2.7 (4)
0x2e0|93 2d 99                                       |.-.             |
0x2e0|         00 00 00 1a                           |   ....         |        corr: 26 0x2e3-0x2e6.7 (4)
     |                                               |                |      [26]{}: leap_second_record 0x2e7-0x2ee.7 (8)
0x2e0|                     58 68 46 9a               |       XhF.     |        occur: "2017-01-01T00:00:26Z" (1483228826) 0x2e7-0x2ea.7 (4)
0x2e0|                                 00 00 00 1b   |           .... |        corr: 27 0x2eb-0x2ee.7 (4)
     |                                               |                |    standard_wall_indicators[0:0]: 0x2ef-NA (0)
     |                                               |                |    ut_local_indicators[0:0]: 0x2ef-NA (0)
     |                                               |                |  v2plusheader{}: 0x2ef-0x31a.7 (44)
0x2e0|                                             54|               T|    magic: 0x545a6966 (valid) 0x2ef-0x2f2.7 (4)
0x2f0|5a 69 66                                       |Zif             |
0x2f0|         32                                    |   2            |    ver: "2" (0x32) (valid) 0x2f3-0x2f3.7 (1)
0x2f0|            00 00 00 00 00 00 00 00 00 00 00 00|    ............|    reserved: raw bits 0x2f4-0x302.7 (15)
0x300|00 00 00                                       |...             |
0x300|         00 00 00 00                           |   ....         |    isutcnt: 0 0x303-0x306.7 (4)
0x300|                     00 00 00 00               |       ....     |    isstdcnt: 0 0x307-0x30a.7 (4)
0x300|                                 00 00 00 1b   |           .... |    leapcnt: 27 0x30b-0x30e.7 (4)
0x300|                                             00|               .|    timecnt: 87 0x30f-0x312.7 (4)
0x310|00 00 57                                       |..W             |
0x310|         00 00 00 06                           |   ....         |    typecnt: 6 0x313-0x316.7 (4)
0x310|                     00 00 00 14               |       ....     |    charcnt: 20 0x317-0x31a.7 (4)
     |                                               |                |  v2plusdatablock{}: 0x31b-0x7a5.7 (1163)
     |                                               |                |    transition_times[0:87]: 0x31b-0x5d2.7 (696)
0x310|                                 ff ff ff ff 69|           ....i|      [0]: "1890-01-01T04:44:32Z" (-2524504528) transition_time 0x31b-0x322.7 (8)
0x320|87 1e 30                                       |..0             |
0x320|         ff ff ff ff 93 0f b4 fe               |   ........     |      [1]: "1912-02-01T05:07:10Z" (-1827687170) transition_time 0x323-0x32a.7 (8)
0x320|                                 00 00 00 00 11|           .....|      [2]: "1979-04-29T07:00:08Z" (294217208) transition_time 0x32b-0x332.7 (8)
0x330|89 65 f8                                       |.e.             |
0x330|         00 00 00 00 12 79 48 e8               |   .....yH.     |      [3]: "1979-10-28T06:00:08Z" (309938408) transition_time 0x333-0x33a.7 (8)
0x330|                                 00 00 00 00 13|           .....|      [4]: "1980-04-27T07:00:09Z" (325666809) transition_time 0x33b-0x342.7 (8)
0x340|69 47 f9                                       |iG.             |
0x340|         00 00 00 00 14 59 2a e9               |   .....Y*.     |      [5]: "1980-10-26T06:00:09Z" (341388009) transition_time 0x343-0x34a.7 (8)
0x340|                                 00 00 00 00 15|           .....|      [6]: "1981-04-26T07:00:09Z" (357116409) transition_time 0x34b-0x352.7 (8)
0x350|49 29 f9                                       |I).             |
0x350|         00 00 00 00 16 39 0c ea               |   .....9..     |      [7]: "1981-10-25T06:00:10Z" (372837610) transition_time 0x353-0x35a.7 (8)
0x350|                                 00 00 00 00 17|           .....|      [8]: "1982-04-25T07:00:10Z" (388566010) transition_time 0x35b-0x362.7 (8)
0x360|29 0b fa                                       |)..             |
0x360|         00 00 00 00 18 22 29 6b               |   .....")k     |      [9]: "1982-10-31T06:00:11Z" (404892011) transition_time 0x363-0x36a.7 (8)
0x360|                                 00 00 00 00 19|           .....|      [10]: "1983-04-24T07:00:11Z" (420015611) transition_time 0x36b-0x372.7 (8)
0x370|08 ed fb                                       |...             |
0x370|         00 00 00 00 1a 02 0b 6c               |   .......l     |      [11]: "1983-10-30T06:00:12Z" (436341612) transition_time 0x373-0x37a.7 (8)
0x370|                                 00 00 00 00 1a|           .....|      [12]: "1984-04-29T07:00:12Z" (452070012) transition_time 0x37b-0x382.7 (8)
0x380|f2 0a 7c                                       |..|             |
0x380|         00 00 00 00 1b e1 ed 6c               |   .......l     |      [13]: "1984-10-28T06:00:12Z" (467791212) transition_time 0x383-0x38a.7 (8)
0x380|                                 00 00 00 00 1c|           .....|      [14]: "1985-04-28T07:00:12Z" (483519612) transition_time 0x38b-0x392.7 (8)
0x390|d1 ec 7c                                       |..|             |
0x390|         00 00 00 00 1d c1 cf 6d               |   .......m     |      [15]: "1985-10-27T06:00:13Z" (499240813) transition_time 0x393-0x39a.7 (8)
0x390|                                 00 00 00 00 1e|           .....|      [16]: "1986-04-27T07:00:13Z" (514969213) transition_time 0x39b-0x3a2.7 (8)
0x3a0|b1 ce 7d                                       |..}             |
0x3a0|         00 00 00 00 1f a1 b1 6d               |   .......m     |      [17]: "1986-10-26T06:00:13Z" (530690413) transition_time 0x3a3-0x3aa.7 (8)
0x3a0|                                 00 00 00 00 20|           .... |      [18]: "1987-04-05T07:00:13Z" (544604413) transition_time 0x3ab-0x3b2.7 (8)
0x3b0|76 00 fd                                       |v..             |
0x3b0|         00 00 00 00 21 81 93 6d               |   ....!..m     |      [19]: "1987-10-25T06:00:13Z" (562140013) transition_time 0x3b3-0x3ba.7 (8)
0x3b0|                                 00 00 00 00 22|           ...."|      [20]: "1988-04-03T07:00:14Z" (576054014) transition_time 0x3bb-0x3c2.7 (8)
0x3c0|55 e2 fe                                       |U..             |
0x3c0|         00 00 00 00 23 6a af ee               |   ....#j..     |      [21]: "1988-10-30T06:00:14Z" (594194414) transition_time 0x3c3-0x3ca.7 (8)
0x3c0|                                 00 00 00 00 24|           ....$|      [22]: "1989-04-02T07:00:14Z" (607503614) transition_time 0x3cb-0x3d2.7 (8)
0x3d0|35 c4 fe                                       |5..             |
0x3d0|         00 00 00 00 25 4a 91 ee               |   ....%J..     |      [23]: "1989-10-29T06:00:14Z" (625644014) transition_time 0x3d3-0x3da.7 (8)
0x3d0|                                 00 00 00 00 26|           ....&|      [24]: "1990-04-01T07:00:15Z" (638953215) transition_time 0x3db-0x3e2.7 (8)
0x3e0|15 a6 ff                                       |...             |
0x3e0|         00 00 00 00 27 2a 73 ef               |   ....'*s.     |      [25]: "1990-10-28T06:00:15Z" (657093615) transition_time 0x3e3-0x3ea.7 (8)
0x3e0|                                 00 00 00 00 27|           ....'|      [26]: "1991-04-07T07:00:16Z" (671007616) transition_time 0x3eb-0x3f2.7 (8)
0x3f0|fe c3 80                                       |...             |
0x3f0|         00 00 00 00 29 0a 55 f0               |   ....).U.     |      [27]: "1991-10-27T06:00:16Z" (688543216) transition_time 0x3f3-0x3fa.7 (8)
0x3f0|                                 00 00 00 00 29|           ....)|      [28]: "1992-04-05T07:00:16Z" (702457216) transition_time 0x3fb-0x402.7 (8)
0x400|de a5 80                                       |...             |
0x400|         00 00 00 00 2a ea 37 f1               |   ....*.7.     |      [29]: "1992-10-25T06:00:17Z" (719992817) transition_time 0x403-0x40a.7 (8)
0x400|                                 00 00 00 00 2b|           ....+|      [30]: "1993-04-04T07:00:17Z" (733906817) transition_time 0x40b-0x412.7 (8)
0x410|be 87 81                                       |...             |
0x410|         00 00 00 00 2c d3 54 72               |   ....,.Tr     |      [31]: "1993-10-31T06:00:18Z" (752047218) transition_time 0x413-0x41a.7 (8)
0x410|                                 00 00 00 00 2d|           ....-|      [32]: "1994-04-03T07:00:18Z" (765356418) transition_time 0x41b-0x422.7 (8)
0x420|9e 69 82                                       |.i.             |
0x420|         00 00 00 00 2e b3 36 73               |   ......6s     |      [33]: "1994-10-30T06:00:19Z" (783496819) transition_time 0x423-0x42a.7 (8)
0x420|                                 00 00 00 00 2f|           ..../|      [34]: "1995-04-02T07:00:19Z" (796806019) transition_time 0x42b-0x432.7 (8)
0x430|7e 4b 83                                       |~K.             |
0x430|         00 00 00 00 30 93 18 73               |   ....0..s     |      [35]: "1995-10-29T06:00:19Z" (814946419) transition_time 0x433-0x43a.7 (8)
0x430|                                 00 00 00 00 31|           ....1|      [36]: "1996-04-07T07:00:20Z" (828860420) transition_time 0x43b-0x442.7 (8)
0x440|67 68 04                                       |gh.             |
0x440|         00 00 00 00 32 72 fa 74               |   ....2r.t     |      [37]: "1996-10-27T06:00:20Z" (846396020) transition_time 0x443-0x44a.7 (8)
0x440|                                 00 00 00 00 33|           ....3|      [38]: "1997-04-06T07:00:20Z" (860310020) transition_time 0x44b-0x452.7 (8)
0x450|47 4a 04                                       |GJ.             |
0x450|         00 00 00 00 34 52 dc 75               |   ....4R.u     |      [39]: "1997-10-26T06:00:21Z" (877845621) transition_time 0x453-0x45a.7 (8)
0x450|                                 00 00 00 00 35|           ....5|      [40]: "1998-04-05T07:00:21Z" (891759621) transition_time 0x45b-0x462.7 (8)
0x460|27 2c 05                                       |',.             |
0x460|         00 00 00 00 36 32 be 75               |   ....62.u     |      [41]: "1998-10-25T06:00:21Z" (909295221) transition_time 0x463-0x46a.7 (8)
0x460|                                 00 00 00 00 37|           ....7|      [42]: "1999-04-04T07:00:22Z" (923209222) transition_time 0x46b-0x472.7 (8)
0x470|07 0e 06                                       |...             |
0x470|         00 00 00 00 38 1b da f6               |   ....8...     |      [43]: "1999-10-31T06:00:22Z" (941349622) transition_time 0x473-0x47a.7 (8)
0x470|                                 00 00 00 00 38|           ....8|      [44]: "2000-04-02T07:00:22Z" (954658822) transition_time 0x47b-0x482.7 (8)
0x480|e6 f0 06                                       |...             |
0x480|         00 00 00 00 39 fb bc f6               |   ....9...     |      [45]: "2000-10-29T06:00:22Z" (972799222) transition_time 0x483-0x48a.7 (8)
0x480|                                 00 00 00 00 3a|           ....:|      [46]: "2001-04-01T07:00:22Z" (986108422) transition_time 0x48b-0x492.7 (8)
0x490|c6 d2 06                                       |...             |
0x490|         00 00 00 00 3b db 9e f6               |   ....;...     |      [47]: "2001-10-28T06:00:22Z" (1004248822) transition_time 0x493-0x49a.7 (8)
0x490|                                 00 00 00 00 3c|           ....<|      [48]: "2002-04-07T07:00:22Z" (1018162822) transition_time 0x49b-0x4a2.7 (8)
0x4a0|af ee 86                                       |...             |
0x4a0|         00 00 00 00 3d bb 80 f6               |   ....=...     |      [49]: "2002-10-27T06:00:22Z" (1035698422) transition_time 0x4a3-0x4aa.7 (8)
0x4a0|                                 00 00 00 00 3e|           ....>|      [50]: "2003-04-06T07:00:22Z" (1049612422) transition_time 0x4ab-0x4b2.7 (8)
0x4b0|8f d0 86                                       |...             |
0x4b0|         00 00 00 00 3f 9b 62 f6               |   ....?.b.     |      [51]: "2003-10-26T06:00:22Z" (1067148022) transition_time 0x4b3-0x4ba.7 (8)
0x4b0|                                 00 00 00 00 40|           ....@|      [52]: "2004-04-04T07:00:22Z" (1081062022) transition_time 0x4bb-0x4c2.7 (8)
0x4c0|6f b2 86                                       |o..             |
0x4c0|         00 00 00 00 41 84 7f 76               |   ....A..v     |      [53]: "2004-10-31T06:00:22Z" (1099202422) transition_time 0x4c3-0x4ca.7 (8)
0x4c0|                                 00 00 00 00 42|           ....B|      [54]: "2005-04-03T07:00:22Z" (1112511622) transition_time 0x4cb-0x4d2.7 (8)
0x4d0|4f 94 86                                       |O..             |
0x4d0|         00 00 00 00 43 64 61 76               |   ....Cdav     |      [55]: "2005-10-30T06:00:22Z" (1130652022) transition_time 0x4d3-0x4da.7 (8)
0x4d0|                                 00 00 00 00 44|           ....D|      [56]: "2006-04-02T07:00:23Z" (1143961223) transition_time 0x4db-0x4e2.7 (8)
0x4e0|2f 76 87                                       |/v.             |
0x4e0|         00 00 00 00 45 44 43 77               |   ....EDCw     |      [57]: "2006-10-29T06:00:23Z" (1162101623) transition_time 0x4e3-0x4ea.7 (8)
0x4e0|                                 00 00 00 00 45|           ....E|      [58]: "2007-03-11T07:00:23Z" (1173596423) transition_time 0x4eb-0x4f2.7 (8)
0x4f0|f3 a9 07                                       |...             |
0x4f0|         00 00 00 00 47 2d 5f f7               |   ....G-_.     |      [59]: "2007-11-04T06:00:23Z" (1194156023) transition_time 0x4f3-0x4fa.7 (8)
0x4f0|                                 00 00 00 00 47|           ....G|      [60]: "2008-03-09T07:00:23Z" (1205046023) transition_time 0x4fb-0x502.7 (8)
0x500|d3 8b 07                                       |...             |
0x500|         00 00 00 00 49 0d 41 f7               |   ....I.A.     |      [61]: "2008-11-02T06:00:23Z" (1225605623) transition_time 0x503-0x50a.7 (8)
0x500|                                 00 00 00 00 49|           ....I|      [62]: "2009-03-08T07:00:24Z" (1236495624) transition_time 0x50b-0x512.7 (8)
0x510|b3 6d 08                                       |.m.             |
0x510|         00 00 00 00 4a ed 23 f8               |   ....J.#.     |      [63]: "2009-11-01T06:00:24Z" (1257055224) transition_time 0x513-0x51a.7 (8)
0x510|                                 00 00 00 00 4b|           ....K|      [64]: "2010-03-14T07:00:24Z" (1268550024) transition_time 0x51b-0x522.7 (8)
0x520|9c 89 88                                       |...             |
0x520|         00 00 00 00 4c d6 40 78               |   ....L.@x     |      [65]: "2010-11-07T06:00:24Z" (1289109624) transition_time 0x523-0x52a.7 (8)
0x520|                                 00 00 00 00 4d|           ....M|      [66]: "2011-03-13T07:00:24Z" (1299999624) transition_time 0x52b-0x532.7 (8)
0x530|7c 6b 88                                       ||k.             |
0x530|         00 00 00 00 4e b6 22 78               |   ....N."x     |      [67]: "2011-11-06T06:00:24Z" (1320559224) transition_time 0x533-0x53a.7 (8)
0x530|                                 00 00 00 00 4f|           ....O|      [68]: "2012-03-11T07:00:24Z" (1331449224) transition_time 0x53b-0x542.7 (8)
0x540|5c 4d 88                                       |\M.             |
0x540|         00 00 00 00 50 96 04 79               |   ....P..y     |      [69]: "2012-11-04T06:00:25Z" (1352008825) transition_time 0x543-0x54a.7 (8)
0x540|                                 00 00 00 00 51|           ....Q|      [70]: "2013-03-10T07:00:25Z" (1362898825) transition_time 0x54b-0x552.7 (8)
0x550|3c 2f 89                                       |</.             |
0x550|         00 00 00 00 52 75 e6 79               |   ....Ru.y     |      [71]: "2013-11-03T06:00:25Z" (1383458425) transition_time 0x553-0x55a.7 (8)
0x550|                                 00 00 00 00 53|           ....S|      [72]: "2014-03-09T07:00:25Z" (1394348425) transition_time 0x55b-0x562.7 (8)
0x560|1c 11 89                                       |...             |
0x560|         00 00 00 00 54 55 c8 79               |   ....TU.y     |      [73]: "2014-11-02T06:00:25Z" (1414908025) transition_time 0x563-0x56a.7 (8)
0x560|                                 00 00 00 00 54|           ....T|      [74]: "2015-03-08T07:00:25Z" (1425798025) transition_time 0x56b-0x572.7 (8)
0x570|fb f3 89                                       |...             |
0x570|         00 00 00 00 5a a4 d4 0b               |   ....Z...     |      [75]: "2018-03-11T07:00:27Z" (1520751627) transition_time 0x573-0x57a.7 (8)
0x570|                                 00 00 00 00 5b|           ....[|      [76]: "2018-11-04T06:00:27Z" (1541311227) transition_time 0x57b-0x582.7 (8)
0x580|de 8a fb                                       |...             |
0x580|         00 00 00 00 5c 84 b6 0b               |   ....\...     |      [77]: "2019-03-10T07:00:27Z" (1552201227) transition_time 0x583-0x58a.7 (8)
0x580|                                 00 00 00 00 5d|           ....]|      [78]: "2019-11-03T06:00:27Z" (1572760827) transition_time 0x58b-0x592.7 (8)
0x590|be 6c fb                                       |.l.             |
0x590|         00 00 00 00 5e 64 98 0b               |   ....^d..     |      [79]: "2020-03-08T07:00:27Z" (1583650827) transition_time 0x593-0x59a.7 (8)
0x590|                                 00 00 00 00 5f|           ...._|      [80]: "2020-11-01T06:00:27Z" (1604210427) transition_time 0x59b-0x5a2.7 (8)
0x5a0|9e 4e fb                                       |.N.             |
0x5a0|         00 00 00 00 60 4d b4 8b               |   ....`M..     |      [81]: "2021-03-14T07:00:27Z" (1615705227) transition_time 0x5a3-0x5aa.7 (8)
0x5a0|                                 00 00 00 00 61|           ....a|      [82]: "2021-11-07T06:00:27Z" (1636264827) transition_time 0x5ab-0x5b2.7 (8)
0x5b0|87 6b 7b                                       |.k{             |
0x5b0|         00 00 00 00 62 2d 96 8b               |   ....b-..     |      [83]: "2022-03-13T07:00:27Z" (1647154827) transition_time 0x5b3-0x5ba.7 (8)
0x5b0|                                 00 00 00 00 63|           ....c|      [84]: "2022-11-06T06:00:27Z" (1667714427) transition_time 0x5bb-0x5c2.7 (8)
0x5c0|67 4d 7b                                       |gM{             |
0x5c0|         00 00 00 00 64 0d 78 8b               |   ....d.x.     |      [85]: "2023-03-12T07:00:27Z" (1678604427) transition_time 0x5c3-0x5ca.7 (8)
0x5c0|                                 00 00 00 00 64|           ....d|      [86]: "2023-06-28T00:00:27Z" (1687910427) transition_time 0x5cb-0x5d2.7 (8)
0x5d0|9b 78 1b                                       |.x.             |
     |                                               |                |    transition_types[0:87]: 0x5d3-0x629.7 (87)
0x5d0|         01                                    |   .            |      [0]: 1 transition_type 0x5d3-0x5d3.7 (1)
0x5d0|            02                                 |    .           |      [1]: 2 transition_type 0x5d4-0x5d4.7 (1)
0x5d0|               03                              |     .          |      [2]: 3 transition_type 0x5d5-0x5d5.7 (1)
0x5d0|                  02                           |      .         |      [3]: 2 transition_type 0x5d6-0x5d6.7 (1)
0x5d0|                     03                        |       .        |      [4]: 3 transition_type 0x5d7-0x5d7.7 (1)
0x5d0|                        02                     |        .       |      [5]: 2 transition_type 0x5d8-0x5d8.7 (1)
0x5d0|                           03                  |         .      |      [6]: 3 transition_type 0x5d9-0x5d9.7 (1)
0x5d0|                              02               |          .     |      [7]: 2 transition_type 0x5da-0x5da.7 (1)
0x5d0|                                 03            |           .    |      [8]: 3 transition_type 0x5db-0x5db.7 (1)
0x5d0|                                    02         |            .   |      [9]: 2 transition_type 0x5dc-0x5dc.7 (1)
0x5d0|                                       03      |             .  |      [10]: 3 transition_type 0x5dd-0x5dd.7 (1)
0x5d0|                                          02   |              . |      [11]: 2 transition_type 0x5de-0x5de.7 (1)
0x5d0|                                             03|               .|      [12]: 3 transition_type 0x5df-0x5df.7 (1)
0x5e0|02                                             |.               |      [13]: 2 transition_type 0x5e0-0x5e0.7 (1)
0x5e0|   03                                          | .              |      [14]: 3 transition_type 0x5e1-0x5e1.7 (1)
0x5e0|      02                                       |  .             |      [15]: 2 transition_type 0x5e2-0x5e2.7 (1)
0x5e0|         03                                    |   .            |      [16]: 3 transition_type 0x5e3-0x5e3.7 (1)
0x5e0|            02                                 |    .           |      [17]: 2 transition_type 0x5e4-0x5e4.7 (1)
0x5e0|               03                              |     .          |      [18]: 3 transition_type 0x5e5-0x5e5.7 (1)
0x5e0|                  02                           |      .         |      [19]: 2 transition_type 0x5e6-0x5e6.7 (1)
0x5e0|                     03                        |       .        |      [20]: 3 transition_type 0x5e7-0x5e7.7 (1)
0x5e0|                        02                     |        .       |      [21]: 2 transition_type 0x5e8-0x5e8.7 (1)
0x5e0|                           03                  |         .      |      [22]: 3 transition_type 0x5e9-0x5e9.7 (1)
0x5e0|                              02               |          .     |      [23]: 2 transition_type 0x5ea-0x5ea.7 (1)
0x5e0|                                 03            |           .    |      [24]: 3 transition_type 0x5eb-0x5eb.7 (1)
0x5e0|                                    02         |            .   |      [25]: 2 transition_type 0x5ec-0x5ec.7 (1)
0x5e0|                                       03      |             .  |      [26]: 3 transition_type 0x5ed-0x5ed.7 (1)
0x5e0|                                          02   |              . |      [27]: 2 transition_type 0x5ee-0x5ee.7 (1)
0x5e0|                                             03|               .|      [28]: 3 transition_type 0x5ef-0x5ef.7 (1)
0x5f0|02                                             |.               |      [29]: 2 transition_type 0x5f0-0x5f0.7 (1)
0x5f0|   03                                          | .              |      [30]: 3 transition_type 0x5f1-0x5f1.7 (1)
0x5f0|      02                                       |  .             |      [31]: 2 transition_type 0x5f2-0x5f2.7 (1)
0x5f0|         03                                    |   .            |      [32]: 3 transition_type 0x5f3-0x5f3.7 (1)
0x5f0|            02                                 |    .           |      [33]: 2 transition_type 0x5f4-0x5f4.7 (1)
0x5f0|               03                              |     .          |      [34]: 3 transition_type 0x5f5-0x5f5.7 (1)
0x5f0|                  02                           |      .         |      [35]: 2 transition_type 0x5f6-0x5f6.7 (1)
0x5f0|                     03                        |       .        |      [36]: 3 transition_type 0x5f7-0x5f7.7 (1)
0x5f0|                        02                     |        .       |      [37]: 2 transition_type 0x5f8-0x5f8.7 (1)
0x5f0|                           03                  |         .      |      [38]: 3 transition_type 0x5f9-0x5f9.7 (1)
0x5f0|                              02               |          .     |      [39]: 2 transition_type 0x5fa-0x5fa.7 (1)
0x5f0|                                 03            |           .    |      [40]: 3 transition_type 0x5fb-0x5fb.7 (1)
0x5f0|                                    02         |            .   |      [41]: 2 transition_type 0x5fc-0x5fc.7 (1)
0x5f0|                                       03      |             .  |      [42]: 3 transition_type 0x5fd-0x5fd.7 (1)
0x5f0|                                          02   |              . |      [43]: 2 transition_type 0x5fe-0x5fe.7 (1)
0x5f0|                                             03|               .|      [44]: 3 transition_type 0x5ff-0x5ff.7 (1)
0x600|02                                             |.               |      [45]: 2 transition_type 0x600-0x600.7 (1)
0x600|   03                                          | .              |      [46]: 3 transition_type 0x601-0x601.7 (1)
0x600|      02                                       |  .             |      [47]: 2 transition_type 0x602-0x602.7 (1)
0x600|         03                                    |   .            |      [48]: 3 transition_type 0x603-0x603.7 (1)
0x600|            02                                 |    .           |      [49]: 2 transition_type 0x604-0x604.7 (1)
0x600|               03                              |     .          |      [50]: 3 transition_type 0x605-0x605.7 (1)
0x600|                  02                           |      .         |      [51]: 2 transition_type 0x606-0x606.7 (1)
0x600|                     03                        |       .        |      [52]: 3 transition_type 0x607-0x607.7 (1)
0x600|                        02                     |        .       |      [53]: 2 transition_type 0x608-0x608.7 (1)
0x600|                           03                  |         .      |      [54]: 3 transition_type 0x609-0x609.7 (1)
0x600|                              02               |          .     |      [55]: 2 transition_type 0x60a-0x60a.7 (1)
0x600|                                 03            |           .    |      [56]: 3 transition_type 0x60b-0x60b.7 (1)
0x600|                                    02         |            .   |      [57]: 2 transition_type 0x60c-0x60c.7 (1)
0x600|                                       03      |             .  |      [58]: 3 transition_type 0x60d-0x60d.7 (1)
0x600|                                          02   |              . |      [59]: 2 transition_type 0x60e-0x60e.7 (1)
0x600|                                             03|               .|      [60]: 3 transition_type 0x60f-0x60f.7 (1)
0x610|02                                             |.               |      [61]: 2 transition_type 0x610-0x610.7 (1)
0x610|   03                                          | .              |      [62]: 3 transition_type 0x611-0x611.7 (1)
0x610|      02                                       |  .             |      [63]: 2 transition_type 0x612-0x612.7 (1)
0x610|         03                                    |   .            |      [64]: 3 transition_type 0x613-0x613.7 (1)
0x610|            02                                 |    .           |      [65]: 2 transition_type 0x614-0x614.7 (1)
0x610|               03                              |     .          |      [66]: 3 transition_type 0x615-0x615.7 (1)
0x610|                  02                           |      .         |      [67]: 2 transition_type 0x616-0x616.7 (1)
0x610|                     03                        |       .        |      [68]: 3 transition_type 0x617-0x617.7 (1)
0x610|                        02                     |        .       |      [69]: 2 transition_type 0x618-0x618.7 (1)
0x610|                           03                  |         .      |      [70]: 3 transition_type 0x619-0x619.7 (1)
0x610|                              02               |          .     |      [71]: 2 transition_type 0x61a-0x61a.7 (1)
0x610|                                 03            |           .    |      [72]: 3 transition_type 0x61b-0x61b.7 (1)
0x610|                                    02         |            .   |      [73]: 2 transition_type 0x61c-0x61c.7 (1)
0x610|                                       04      |             .  |      [74]: 4 transition_type 0x61d-0x61d.7 (1)
0x610|                                          03   |              . |      [75]: 3 transition_type 0x61e-0x61e.7 (1)
0x610|                                             02|               .|      [76]: 2 transition_type 0x61f-0x61f.7 (1)
0x620|03                                             |.               |      [77]: 3 transition_type 0x620-0x620.7 (1)
0x620|   02                                          | .              |      [78]: 2 transition_type 0x621-0x621.7 (1)
0x620|      03                                       |  .             |      [79]: 3 transition_type 0x622-0x622.7 (1)
0x620|         02                                    |   .            |      [80]: 2 transition_type 0x623-0x623.7 (1)
0x620|            03                                 |    .           |      [81]: 3 transition_type 0x624-0x624.7 (1)
0x620|               02                              |     .          |      [82]: 2 transition_type 0x625-0x625.7 (1)
0x620|                  03                           |      .         |      [83]: 3 transition_type 0x626-0x626.7 (1)
0x620|                     02                        |       .        |      [84]: 2 transition_type 0x627-0x627.7 (1)
0x620|                        03                     |        .       |      [85]: 3 transition_type 0x628-0x628.7 (1)
0x620|                           03                  |         .      |      [86]: 3 transition_type 0x629-0x629.7 (1)
     |                                               |                |    local_time_type_records[0:6]: 0x62a-0x64d.7 (36)
     |                                               |                |      [0]{}: local_time_type 0x62a-0x62f.7 (6)
0x620|                              ff ff bd 50      |          ...P  |        utoff: -17072 (valid) 0x62a-0x62d.7 (4)
0x620|                                          00   |              . |        dst: 0 (valid) 0x62e-0x62e.7 (1)
0x620|                                             00|               .|        idx: 0 (valid) 0x62f-0x62f.7 (1)
     |                                               |                |      [1]{}: local_time_type 0x630-0x635.7 (6)
0x630|ff ff b8 02                                    |....            |        utoff: -18430 (valid) 0x630-0x633.7 (4)
0x630|            00                                 |    .           |        dst: 0 (valid) 0x634-0x634.7 (1)
0x630|               04                              |     .          |        idx: 4 (valid) 0x635-0x635.7 (1)
     |                                               |                |      [2]{}: local_time_type 0x636-0x63b.7 (6)
0x630|                  ff ff b9 b0                  |      ....      |        utoff: -18000 (valid) 0x636-0x639.7 (4)
0x630|                              00               |          .     |        dst: 0 (valid) 0x63a-0x63a.7 (1)
0x630|                                 08            |           .    |        idx: 8 (valid) 0x63b-0x63b.7 (1)
     |                                               |                |      [3]{}: local_time_type 0x63c-0x641.7 (6)
0x630|                                    ff ff c7 c0|            ....|        utoff: -14400 (valid) 0x63c-0x63f.7 (4)
0x640|01                                             |.               |        dst: 1 (valid) 0x640-0x640.7 (1)
0x640|   0c                                          | .              |        idx: 12 (valid) 0x641-0x641.7 (1)
     |                                               |                |      [4]{}: local_time_type 0x642-0x647.7 (6)
0x640|      ff ff c7 c0                              |  ....          |        utoff: -14400 (valid) 0x642-0x645.7 (4)
0x640|                  00                           |      .         |        dst: 0 (valid) 0x646-0x646.7 (1)
0x640|                     10                        |       .        |        idx: 16 (valid) 0x647-0x647.7 (1)
     |                                               |                |      [5]{}: local_time_type 0x648-0x64d.7 (6)
0x640|                        ff ff b9 b0            |        ....    |        utoff: -18000 (valid) 0x648-0x64b.7 (4)
0x640|                                    00         |            .   |        dst: 0 (valid) 0x64c-0x64c.7 (1)
0x640|                                       08      |             .  |        idx: 8 (valid) 0x64d-0x64d.7 (1)
     |                                               |                |    time_zone_designations[0:5]: 0x64e-0x661.7 (20)
0x640|                                          4c 4d|              LM|      [0]: "LMT" time_zone_designation 0x64e-0x651.7 (4)
0x650|54 00                                          |T.              |
0x650|      4b 4d 54 00                              |  KMT.          |      [1]: "KMT" time_zone_designation 0x652-0x655.7 (4)
0x650|                  45 53 54 00                  |      EST.      |      [2]: "EST" time_zone_designation 0x656-0x659.7 (4)
0x650|                              45 44 54 00      |          EDT.  |      [3]: "EDT" time_zone_designation 0x65a-0x65d.7 (4)
0x650|                                          41 53|              AS|      [4]: "AST" time_zone_designation 0x65e-0x661.7 (4)
0x660|54 00                                          |T.              |
     |                                               |                |    leap_second_records[0:27]: 0x662-0x7a5.7 (324)
     |                                               |                |      [0]{}: leap_second_record 0x662-0x66d.7 (12)
0x660|      00 00 00 00 04 b2 58 00                  |  ......X.      |        occur: "1972-07-01T00:00:00Z" (78796800) 0x662-0x669.7 (8)
0x660|                              00 00 00 01      |          ....  |        corr: 1 0x66a-0x66d.7 (4)
     |                                               |                |      [1]{}: leap_second_record 0x66e-0x679.7 (12)
0x660|                                          00 00|              ..|        occur: "1973-01-01T00:00:01Z" (94694401) 0x66e-0x675.7 (8)
0x670|00 00 05 a4 ec 01                              |......          |
0x670|                  00 00 00 02                  |      ....      |        corr: 2 0x676-0x679.7 (4)
     |                                               |                |      [2]{}: leap_second_record 0x67a-0x685.7 (12)
0x670|                              00 00 00 00 07 86|          ......|        occur: "1974-01-01T00:00:02Z" (126230402) 0x67a-0x681.7 (8)
0x680|1f 82                                          |..              |
0x680|      00 00 00 03                              |  ....          |        corr: 3 0x682-0x685.7 (4)
     |                                               |                |      [3]{}: leap_second_record 0x686-0x691.7 (12)
0x680|                  00 00 00 00 09 67 53 03      |      .....gS.  |        occur: "1975-01-01T00:00:03Z" (157766403) 0x686-0x68d.7 (8)
0x680|                                          00 00|              ..|        corr: 4 0x68e-0x691.7 (4)
0x690|00 04                                          |..              |
     |                                               |                |      [4]{}: leap_second_record 0x692-0x69d.7 (12)
0x690|      00 00 00 00 0b 48 86 84                  |  .....H..      |        occur: "1976-01-01T00:00:04Z" (189302404) 0x692-0x699.7 (8)
0x690|                              00 00 00 05      |          ....  |        corr: 5 0x69a-0x69d.7 (4)
     |                                               |                |      [5]{}: leap_second_record 0x69e-0x6a9.7 (12)
0x690|                                          00 00|              ..|        occur: "1977-01-01T00:00:05Z" (220924805) 0x69e-0x6a5.7 (8)
0x6a0|00 00 0d 2b 0b 85                              |...+..          |
0x6a0|                  00 00 00 06                  |      ....      |        corr: 6 0x6a6-0x6a9.7 (4)
     |                                               |                |      [6]{}: leap_second_record 0x6aa-0x6b5.7 (12)
0x6a0|                              00 00 00 00 0f 0c|          ......|        occur: "1978-01-01T00:00:06Z" (252460806) 0x6aa-0x6b1.7 (8)
0x6b0|3f 06                                          |?.              |
0x6b0|      00 00 00 07                              |  ....          |        corr: 7 0x6b2-0x6b5.7 (4)
     |                                               |                |      [7]{}: leap_second_record 0x6b6-0x6c1.7 (12)
0x6b0|                  00 00 00 00 10 ed 72 87      |      ......r.  |        occur: "1979-01-01T00:00:07Z" (283996807) 0x6b6-0x6bd.7 (8)
0x6b0|                                          00 00|              ..|        corr: 8 0x6be-0x6c1.7 (4)
0x6c0|00 08                                          |..              |
     |                                               |                |      [8]{}: leap_second_record 0x6c2-0x6cd.7 (12)
0x6c0|      00 00 00 00 12 ce a6 08                  |  ........      |        occur: "1980-01-01T00:00:08Z" (315532808) 0x6c2-0x6c9.7 (8)
0x6c0|                              00 00 00 09      |          ....  |        corr: 9 0x6ca-0x6cd.7 (4)
     |                                               |                |      [9]{}: leap_second_record 0x6ce-0x6d9.7 (12)
0x6c0|                                          00 00|              ..|        occur: "1981-07-01T00:00:09Z" (362793609) 0x6ce-0x6d5.7 (8)
0x6d0|00 00 15 9f ca 89                              |......          |
0x6d0|                  00 00 00 0a                  |      ....      |        corr: 10 0x6d6-0x6d9.7 (4)
     |                                               |                |      [10]{}: leap_second_record 0x6da-0x6e5.7 (12)
0x6d0|                              00 00 00 00 17 80|          ......|        occur: "1982-07-01T00:00:10Z" (394329610) 0x6da-0x6e1.7 (8)
0x6e0|fe 0a                                          |..              |
0x6e0|      00 00 00 0b                              |  ....          |        corr: 11 0x6e2-0x6e5.7 (4)
     |                                               |                |      [11]{}: leap_second_record 0x6e6-0x6f1.7 (12)
0x6e0|                  00 00 00 00 19 62 31 8b      |      .....b1.  |        occur: "1983-07-01T00:00:11Z" (425865611) 0x6e6-0x6ed.7 (8)
0x6e0|                                          00 00|              ..|        corr: 12 0x6ee-0x6f1.7 (4)
0x6f0|00 0c                                          |..              |
     |                                               |                |      [12]{}: leap_second_record 0x6f2-0x6fd.7 (12)
0x6f0|      00 00 00 00 1d 25 ea 0c                  |  .....%..      |        occur: "1985-07-01T00:00:12Z" (489024012) 0x6f2-0x6f9.7 (8)
0x6f0|                              00 00 00 0d      |          ....  |        corr: 13 0x6fa-0x6fd.7 (4)
     |                                               |                |      [13]{}: leap_second_record 0x6fe-0x709.7 (12)
0x6f0|                                          00 00|              ..|        occur: "1988-01-01T00:00:13Z" (567993613) 0x6fe-0x705.7 (8)
0x700|00 00 21 da e5 0d                              |..!...          |
0x700|                  00 00 00 0e                  |      ....      |        corr: 14 0x706-0x709.7 (4)
     |                                               |                |      [14]{}: leap_second_record 0x70a-0x715.7 (12)
0x700|                              00 00 00 00 25 9e|          ....%.|        occur: "1990-01-01T00:00:14Z" (631152014) 0x70a-0x711.7 (8)
0x710|9d 8e                                          |..              |
0x710|      00 00 00 0f                              |  ....          |        corr: 15 0x712-0x715.7 (4)
     |                                               |                |      [15]{}: leap_second_record 0x716-0x721.7 (12)
0x710|                  00 00 00 00 27 7f d1 0f      |      ....'...  |        occur: "1991-01-01T00:00:15Z" (662688015) 0x716-0x71d.7 (8)
0x710|                                          00 00|              ..|        corr: 16 0x71e-0x721.7 (4)
0x720|00 10                                          |..              |
     |                                               |                |      [16]{}: leap_second_record 0x722-0x72d.7 (12)
0x720|      00 00 00 00 2a 50 f5 90                  |  ....*P..      |        occur: "1992-07-01T00:00:16Z" (709948816) 0x722-0x729.7 (8)
0x720|                              00 00 00 11      |          ....  |        corr: 17 0x72a-0x72d.7 (4)
     |                                               |                |      [17]{}: leap_second_record 0x72e-0x739.7 (12)
0x720|                                          00 00|              ..|        occur: "1993-07-01T00:00:17Z" (741484817) 0x72e-0x735.7 (8)
0x730|00 00 2c 32 29 11                              |..,2).          |
0x730|                  00 00 00 12                  |      ....      |        corr: 18 0x736-0x739.7 (4)
     |                                               |                |      [18]{}: leap_second_record 0x73a-0x745.7 (12)
0x730|                              00 00 00 00 2e 13|          ......|        occur: "1994-07-01T00:00:18Z" (773020818) 0x73a-0x741.7 (8)
0x740|5c 92                                          |\.              |
0x740|      00 00 00 13                              |  ....          |        corr: 19 0x742-0x745.7 (4)
     |                                               |                |      [19]{}: leap_second_record 0x746-0x751.7 (12)
0x740|                  00 00 00 00 30 e7 24 13      |      ....0.$.  |        occur: "1996-01-01T00:00:19Z" (820454419) 0x746-0x74d.7 (8)
0x740|                                          00 00|              ..|        corr: 20 0x74e-0x751.7 (4)
0x750|00 14                                          |..              |
     |                                               |                |      [20]{}: leap_second_record 0x752-0x75d.7 (12)
0x750|      00 00 00 00 33 b8 48 94                  |  ....3.H.      |        occur: "1997-07-01T00:00:20Z" (867715220) 0x752-0x759.7 (8)
0x750|                              00 00 00 15      |          ....  |        corr: 21 0x75a-0x75d.7 (4)
     |                                               |                |      [21]{}: leap_second_record 0x75e-0x769.7 (12)
0x750|                                          00 00|              ..|        occur: "1999-01-01T00:00:21Z" (915148821) 0x75e-0x765.7 (8)
0x760|00 00 36 8c 10 15                              |..6...          |
0x760|                  00 00 00 16                  |      ....      |        corr: 22 0x766-0x769.7 (4)
     |                                               |                |      [22]{}: leap_second_record 0x76a-0x775.7 (12)
0x760|                              00 00 00 00 43 b7|          ....C.|        occur: "2006-01-01T00:00:22Z" (1136073622) 0x76a-0x771.7 (8)
0x770|1b 96                                          |..              |
0x770|      00 00 00 17                              |  ....          |        corr: 23 0x772-0x775.7 (4)
     |                                               |                |      [23]{}: leap_second_record 0x776-0x781.7 (12)
0x770|                  00 00 00 00 49 5c 07 97      |      ....I\..  |        occur: "2009-01-01T00:00:23Z" (1230768023) 0x776-0x77d.7 (8)
0x770|                                          00 00|              ..|        corr: 24 0x77e-0x781.7 (4)
0x780|00 18                                          |..              |
     |                                               |                |      [24]{}: leap_second_record 0x782-0x78d.7 (12)
0x780|      00 00 00 00 4f ef 93 18                  |  ....O...      |        occur: "2012-07-01T00:00:24Z" (1341100824) 0x782-0x789.7 (8)
0x780|                              00 00 00 19      |          ....  |        corr: 25 0x78a-0x78d.7 (4)
     |                                               |                |      [25]{}: leap_second_record 0x78e-0x799.7 (12)
0x780|                                          00 00|              ..|        occur: "2015-07-01T00:00:25Z" (1435708825) 0x78e-0x795.7 (8)
0x790|00 00 55 93 2d 99                              |..U.-.          |
0x790|                  00 00 00 1a                  |      ....      |        corr: 26 0x796-0x799.7 (4)
     |                                               |                |      [26]{}: leap_second_record 0x79a-0x7a5.7 (12)
0x790|                              00 00 00 00 58 68|          ....Xh|        occur: "2017-01-01T00:00:26Z" (1483228826) 0x79a-0x7a1.7 (8)
0x7a0|46 9a                                          |F.              |
0x7a0|      00 00 00 1b                              |  ....          |        corr: 27 0x7a2-0x7a5.7 (4)
     |                                               |                |    standard_wall_indicators[0:0]: 0x7a6-NA (0)
     |                                               |                |    ut_local_indicators[0:0]: 0x7a6-NA (0)
     |                                               |                |  footer{}: 0x7a6-0x7a7.7 (2)
0x7a0|                  0a                           |      .         |    nl1: 10 (valid) 0x7a6-0x7a6.7 (1)
     |                                               |                |    tz_string: "" 0x7a7-NA (0)
0x7a0|                     0a|                       |       .|       |    nl2: 10 (valid) 0x7a7-0x7a7.7 (1)
