$ fq -d tzif dv Guam
     |00 01 02 03 04 05 06 07 08 09 0a 0b 0c 0d 0e 0f|0123456789abcdef|.{}: Guam (tzif) 0x0-0x1ee (494)
     |                                               |                |  v1header{}: 0x0-0x2c (44)
0x000|54 5a 69 66                                    |TZif            |    magic: 0x545a6966 (valid) 0x0-0x4 (4)
0x000|            32                                 |    2           |    ver: "2" (0x32) (valid) 0x4-0x5 (1)
0x000|               00 00 00 00 00 00 00 00 00 00 00|     ...........|    reserved: raw bits 0x5-0x14 (15)
0x010|00 00 00 00                                    |....            |
0x010|            00 00 00 00                        |    ....        |    isutcnt: 0 0x14-0x18 (4)
0x010|                        00 00 00 00            |        ....    |    isstdcnt: 0 0x18-0x1c (4)
0x010|                                    00 00 00 00|            ....|    leapcnt: 0 0x1c-0x20 (4)
0x020|00 00 00 14                                    |....            |    timecnt: 20 0x20-0x24 (4)
0x020|            00 00 00 05                        |    ....        |    typecnt: 5 0x24-0x28 (4)
0x020|                        00 00 00 15            |        ....    |    charcnt: 21 0x28-0x2c (4)
     |                                               |                |  v1datablock{}: 0x2c-0xc3 (151)
     |                                               |                |    transition_times[0:20]: 0x2c-0x7c (80)
0x020|                                    80 00 00 00|            ....|      [0]: "1901-12-13T20:45:52Z" (-2147483648) transition_time 0x2c-0x30 (4)
0x030|cb 37 95 e0                                    |.7..            |      [1]: "1941-12-09T14:00:00Z" (-885549600) transition_time 0x30-0x34 (4)
0x030|            d0 2e 89 f0                        |    ....        |      [2]: "1944-07-30T15:00:00Z" (-802256400) transition_time 0x34-0x38 (4)
0x030|                        ec 37 be 00            |        .7..    |      [3]: "1959-06-26T16:00:00Z" (-331891200) transition_time 0x38-0x3c (4)
0x030|                                    ef 36 f8 f0|            .6..|      [4]: "1961-01-28T15:00:00Z" (-281610000) transition_time 0x3c-0x40 (4)
0x040|fb 9b 00 00                                    |....            |      [5]: "1967-08-31T16:00:00Z" (-73728000) transition_time 0x40-0x44 (4)
0x040|            fe 3f 27 8c                        |    .?'.        |      [6]: "1969-01-25T13:01:00Z" (-29415540) transition_time 0x44-0x48 (4)
0x040|                        ff 01 1e 00            |        ....    |      [7]: "1969-06-21T16:00:00Z" (-16704000) transition_time 0x48-0x4c (4)
0x040|                                    ff 5d 58 f0|            .]X.|      [8]: "1969-08-30T15:00:00Z" (-10659600) transition_time 0x4c-0x50 (4)
0x050|00 97 2c 00                                    |..,.            |      [9]: "1970-04-25T16:00:00Z" (9907200) transition_time 0x50-0x54 (4)
0x050|            01 46 75 70                        |    .Fup        |      [10]: "1970-09-05T15:00:00Z" (21394800) transition_time 0x54-0x58 (4)
0x050|                        02 77 0e 00            |        .w..    |      [11]: "1971-04-24T16:00:00Z" (41356800) transition_time 0x58-0x5c (4)
0x050|                                    03 26 57 70|            .&Wp|      [12]: "1971-09-04T15:00:00Z" (52844400) transition_time 0x5c-0x60 (4)
0x060|07 70 97 00                                    |.p..            |      [13]: "1973-12-15T16:00:00Z" (124819200) transition_time 0x60-0x64 (4)
0x060|            07 cc d1 f0                        |    ....        |      [14]: "1974-02-23T15:00:00Z" (130863600) transition_time 0x64-0x68 (4)
0x060|                        0c 08 91 00            |        ....    |      [15]: "1976-05-25T16:00:00Z" (201888000) transition_time 0x68-0x6c (4)
0x060|                                    0c 7c 87 2c|            .|.,|      [16]: "1976-08-21T15:01:00Z" (209487660) transition_time 0x6c-0x70 (4)
0x070|0d bf 94 80                                    |....            |      [17]: "1977-04-23T16:00:00Z" (230659200) transition_time 0x70-0x74 (4)
0x070|            0e 65 a3 70                        |    .e.p        |      [18]: "1977-08-27T15:00:00Z" (241542000) transition_time 0x74-0x78 (4)
0x070|                        3a 43 5e 60            |        :C^`    |      [19]: "2000-12-22T14:00:00Z" (977493600) transition_time 0x78-0x7c (4)
     |                                               |                |    transition_types[0:20]: 0x7c-0x90 (20)
0x070|                                    01         |            .   |      [0]: 1 transition_type 0x7c-0x7d (1)
0x070|                                       02      |             .  |      [1]: 2 transition_type 0x7d-0x7e (1)
0x070|                                          01   |              . |      [2]: 1 transition_type 0x7e-0x7f (1)
0x070|                                             03|               .|      [3]: 3 transition_type 0x7f-0x80 (1)
0x080|01                                             |.               |      [4]: 1 transition_type 0x80-0x81 (1)
0x080|   03                                          | .              |      [5]: 3 transition_type 0x81-0x82 (1)
0x080|      01                                       |  .             |      [6]: 1 transition_type 0x82-0x83 (1)
0x080|         03                                    |   .            |      [7]: 3 transition_type 0x83-0x84 (1)
0x080|            01                                 |    .           |      [8]: 1 transition_type 0x84-0x85 (1)
0x080|               03                              |     .          |      [9]: 3 transition_type 0x85-0x86 (1)
0x080|                  01                           |      .         |      [10]: 1 transition_type 0x86-0x87 (1)
0x080|                     03                        |       .        |      [11]: 3 transition_type 0x87-0x88 (1)
0x080|                        01                     |        .       |      [12]: 1 transition_type 0x88-0x89 (1)
0x080|                           03                  |         .      |      [13]: 3 transition_type 0x89-0x8a (1)
0x080|                              01               |          .     |      [14]: 1 transition_type 0x8a-0x8b (1)
0x080|                                 03            |           .    |      [15]: 3 transition_type 0x8b-0x8c (1)
0x080|                                    01         |            .   |      [16]: 1 transition_type 0x8c-0x8d (1)
0x080|                                       03      |             .  |      [17]: 3 transition_type 0x8d-0x8e (1)
0x080|                                          01   |              . |      [18]: 1 transition_type 0x8e-0x8f (1)
0x080|                                             04|               .|      [19]: 4 transition_type 0x8f-0x90 (1)
     |                                               |                |    local_time_type_records[0:5]: 0x90-0xae (30)
     |                                               |                |      [0]{}: local_time_type 0x90-0x96 (6)
0x090|ff ff 36 34                                    |..64            |        utoff: -51660 (valid) 0x90-0x94 (4)
0x090|            00                                 |    .           |        dst: 0 (valid) 0x94-0x95 (1)
0x090|               00                              |     .          |        idx: 0 (valid) 0x95-0x96 (1)
     |                                               |                |      [1]{}: local_time_type 0x96-0x9c (6)
0x090|                  00 00 8c a0                  |      ....      |        utoff: 36000 (valid) 0x96-0x9a (4)
0x090|                              00               |          .     |        dst: 0 (valid) 0x9a-0x9b (1)
0x090|                                 04            |           .    |        idx: 4 (valid) 0x9b-0x9c (1)
     |                                               |                |      [2]{}: local_time_type 0x9c-0xa2 (6)
0x090|                                    00 00 7e 90|            ..~.|        utoff: 32400 (valid) 0x9c-0xa0 (4)
0x0a0|00                                             |.               |        dst: 0 (valid) 0xa0-0xa1 (1)
0x0a0|   08                                          | .              |        idx: 8 (valid) 0xa1-0xa2 (1)
     |                                               |                |      [3]{}: local_time_type 0xa2-0xa8 (6)
0x0a0|      00 00 9a b0                              |  ....          |        utoff: 39600 (valid) 0xa2-0xa6 (4)
0x0a0|                  01                           |      .         |        dst: 1 (valid) 0xa6-0xa7 (1)
0x0a0|                     0c                        |       .        |        idx: 12 (valid) 0xa7-0xa8 (1)
     |                                               |                |      [4]{}: local_time_type 0xa8-0xae (6)
0x0a0|                        00 00 8c a0            |        ....    |        utoff: 36000 (valid) 0xa8-0xac (4)
0x0a0|                                    00         |            .   |        dst: 0 (valid) 0xac-0xad (1)
0x0a0|                                       10      |             .  |        idx: 16 (valid) 0xad-0xae (1)
     |                                               |                |    time_zone_designations[0:5]: 0xae-0xc3 (21)
0x0a0|                                          4c 4d|              LM|      [0]: "LMT" time_zone_designation 0xae-0xb2 (4)
0x0b0|54 00                                          |T.              |
0x0b0|      47 53 54 00                              |  GST.          |      [1]: "GST" time_zone_designation 0xb2-0xb6 (4)
0x0b0|                  2b 30 39 00                  |      +09.      |      [2]: "+09" time_zone_designation 0xb6-0xba (4)
0x0b0|                              47 44 54 00      |          GDT.  |      [3]: "GDT" time_zone_designation 0xba-0xbe (4)
0x0b0|                                          43 68|              Ch|      [4]: "ChST" time_zone_designation 0xbe-0xc3 (5)
0x0c0|53 54 00                                       |ST.             |
     |                                               |                |    leap_second_records[0:0]: 0xc3-0xc3 (0)
     |                                               |                |    standard_wall_indicators[0:0]: 0xc3-0xc3 (0)
     |                                               |                |    ut_local_indicators[0:0]: 0xc3-0xc3 (0)
     |                                               |                |  v2plusheader{}: 0xc3-0xef (44)
0x0c0|         54 5a 69 66                           |   TZif         |    magic: 0x545a6966 (valid) 0xc3-0xc7 (4)
0x0c0|                     32                        |       2        |    ver: "2" (0x32) (valid) 0xc7-0xc8 (1)
0x0c0|                        00 00 00 00 00 00 00 00|        ........|    reserved: raw bits 0xc8-0xd7 (15)
0x0d0|00 00 00 00 00 00 00                           |.......         |
0x0d0|                     00 00 00 00               |       ....     |    isutcnt: 0 0xd7-0xdb (4)
0x0d0|                                 00 00 00 00   |           .... |    isstdcnt: 0 0xdb-0xdf (4)
0x0d0|                                             00|               .|    leapcnt: 0 0xdf-0xe3 (4)
0x0e0|00 00 00                                       |...             |
0x0e0|         00 00 00 15                           |   ....         |    timecnt: 21 0xe3-0xe7 (4)
0x0e0|                     00 00 00 06               |       ....     |    typecnt: 6 0xe7-0xeb (4)
0x0e0|                                 00 00 00 15   |           .... |    charcnt: 21 0xeb-0xef (4)
     |                                               |                |  v2plusdatablock{}: 0xef-0x1e5 (246)
     |                                               |                |    transition_times[0:21]: 0xef-0x197 (168)
0x0e0|                                             ff|               .|      [0]: "1844-12-31T14:21:00Z" (-3944626740) transition_time 0xef-0xf7 (8)
0x0f0|ff ff ff 14 e1 c5 cc                           |.......         |
0x0f0|                     ff ff ff ff 7e 36 2d 4c   |       ....~6-L |      [1]: "1900-12-31T14:21:00Z" (-2177487540) transition_time 0xf7-0xff (8)
0x0f0|                                             ff|               .|      [2]: "1941-12-09T14:00:00Z" (-885549600) transition_time 0xff-0x107 (8)
0x100|ff ff ff cb 37 95 e0                           |....7..         |
0x100|                     ff ff ff ff d0 2e 89 f0   |       ........ |      [3]: "1944-07-30T15:00:00Z" (-802256400) transition_time 0x107-0x10f (8)
0x100|                                             ff|               .|      [4]: "1959-06-26T16:00:00Z" (-331891200) transition_time 0x10f-0x117 (8)
0x110|ff ff ff ec 37 be 00                           |....7..         |
0x110|                     ff ff ff ff ef 36 f8 f0   |       .....6.. |      [5]: "1961-01-28T15:00:00Z" (-281610000) transition_time 0x117-0x11f (8)
0x110|                                             ff|               .|      [6]: "1967-08-31T16:00:00Z" (-73728000) transition_time 0x11f-0x127 (8)
0x120|ff ff ff fb 9b 00 00                           |.......         |
0x120|                     ff ff ff ff fe 3f 27 8c   |       .....?'. |      [7]: "1969-01-25T13:01:00Z" (-29415540) transition_time 0x127-0x12f (8)
0x120|                                             ff|               .|      [8]: "1969-06-21T16:00:00Z" (-16704000) transition_time 0x12f-0x137 (8)
0x130|ff ff ff ff 01 1e 00                           |.......         |
0x130|                     ff ff ff ff ff 5d 58 f0   |       .....]X. |      [9]: "1969-08-30T15:00:00Z" (-10659600) transition_time 0x137-0x13f (8)
0x130|                                             00|               .|      [10]: "1970-04-25T16:00:00Z" (9907200) transition_time 0x13f-0x147 (8)
0x140|00 00 00 00 97 2c 00                           |.....,.         |
0x140|                     00 00 00 00 01 46 75 70   |       .....Fup |      [11]: "1970-09-05T15:00:00Z" (21394800) transition_time 0x147-0x14f (8)
0x140|                                             00|               .|      [12]: "1971-04-24T16:00:00Z" (41356800) transition_time 0x14f-0x157 (8)
0x150|00 00 00 02 77 0e 00                           |....w..         |
0x150|                     00 00 00 00 03 26 57 70   |       .....&Wp |      [13]: "1971-09-04T15:00:00Z" (52844400) transition_time 0x157-0x15f (8)
0x150|                                             00|               .|      [14]: "1973-12-15T16:00:00Z" (124819200) transition_time 0x15f-0x167 (8)
0x160|00 00 00 07 70 97 00                           |....p..         |
0x160|                     00 00 00 00 07 cc d1 f0   |       ........ |      [15]: "1974-02-23T15:00:00Z" (130863600) transition_time 0x167-0x16f (8)
0x160|                                             00|               .|      [16]: "1976-05-25T16:00:00Z" (201888000) transition_time 0x16f-0x177 (8)
0x170|00 00 00 0c 08 91 00                           |.......         |
0x170|                     00 00 00 00 0c 7c 87 2c   |       .....|., |      [17]: "1976-08-21T15:01:00Z" (209487660) transition_time 0x177-0x17f (8)
0x170|                                             00|               .|      [18]: "1977-04-23T16:00:00Z" (230659200) transition_time 0x17f-0x187 (8)
0x180|00 00 00 0d bf 94 80                           |.......         |
0x180|                     00 00 00 00 0e 65 a3 70   |       .....e.p |      [19]: "1977-08-27T15:00:00Z" (241542000) transition_time 0x187-0x18f (8)
0x180|                                             00|               .|      [20]: "2000-12-22T14:00:00Z" (977493600) transition_time 0x18f-0x197 (8)
0x190|00 00 00 3a 43 5e 60                           |...:C^`         |
     |                                               |                |    transition_types[0:21]: 0x197-0x1ac (21)
0x190|                     01                        |       .        |      [0]: 1 transition_type 0x197-0x198 (1)
0x190|                        02                     |        .       |      [1]: 2 transition_type 0x198-0x199 (1)
0x190|                           03                  |         .      |      [2]: 3 transition_type 0x199-0x19a (1)
0x190|                              02               |          .     |      [3]: 2 transition_type 0x19a-0x19b (1)
0x190|                                 04            |           .    |      [4]: 4 transition_type 0x19b-0x19c (1)
0x190|                                    02         |            .   |      [5]: 2 transition_type 0x19c-0x19d (1)
0x190|                                       04      |             .  |      [6]: 4 transition_type 0x19d-0x19e (1)
0x190|                                          02   |              . |      [7]: 2 transition_type 0x19e-0x19f (1)
0x190|                                             04|               .|      [8]: 4 transition_type 0x19f-0x1a0 (1)
0x1a0|02                                             |.               |      [9]: 2 transition_type 0x1a0-0x1a1 (1)
0x1a0|   04                                          | .              |      [10]: 4 transition_type 0x1a1-0x1a2 (1)
0x1a0|      02                                       |  .             |      [11]: 2 transition_type 0x1a2-0x1a3 (1)
0x1a0|         04                                    |   .            |      [12]: 4 transition_type 0x1a3-0x1a4 (1)
0x1a0|            02                                 |    .           |      [13]: 2 transition_type 0x1a4-0x1a5 (1)
0x1a0|               04                              |     .          |      [14]: 4 transition_type 0x1a5-0x1a6 (1)
0x1a0|                  02                           |      .         |      [15]: 2 transition_type 0x1a6-0x1a7 (1)
0x1a0|                     04                        |       .        |      [16]: 4 transition_type 0x1a7-0x1a8 (1)
0x1a0|                        02                     |        .       |      [17]: 2 transition_type 0x1a8-0x1a9 (1)
0x1a0|                           04                  |         .      |      [18]: 4 transition_type 0x1a9-0x1aa (1)
0x1a0|                              02               |          .     |      [19]: 2 transition_type 0x1aa-0x1ab (1)
0x1a0|                                 05            |           .    |      [20]: 5 transition_type 0x1ab-0x1ac (1)
     |                                               |                |    local_time_type_records[0:6]: 0x1ac-0x1d0 (36)
     |                                               |                |      [0]{}: local_time_type 0x1ac-0x1b2 (6)
0x1a0|                                    ff ff 36 34|            ..64|        utoff: -51660 (valid) 0x1ac-0x1b0 (4)
0x1b0|00                                             |.               |        dst: 0 (valid) 0x1b0-0x1b1 (1)
0x1b0|   00                                          | .              |        idx: 0 (valid) 0x1b1-0x1b2 (1)
     |                                               |                |      [1]{}: local_time_type 0x1b2-0x1b8 (6)
0x1b0|      00 00 87 b4                              |  ....          |        utoff: 34740 (valid) 0x1b2-0x1b6 (4)
0x1b0|                  00                           |      .         |        dst: 0 (valid) 0x1b6-0x1b7 (1)
0x1b0|                     00                        |       .        |        idx: 0 (valid) 0x1b7-0x1b8 (1)
     |                                               |                |      [2]{}: local_time_type 0x1b8-0x1be (6)
0x1b0|                        00 00 8c a0            |        ....    |        utoff: 36000 (valid) 0x1b8-0x1bc (4)
0x1b0|                                    00         |            .   |        dst: 0 (valid) 0x1bc-0x1bd (1)
0x1b0|                                       04      |             .  |        idx: 4 (valid) 0x1bd-0x1be (1)
     |                                               |                |      [3]{}: local_time_type 0x1be-0x1c4 (6)
0x1b0|                                          00 00|              ..|        utoff: 32400 (valid) 0x1be-0x1c2 (4)
0x1c0|7e 90                                          |~.              |
0x1c0|      00                                       |  .             |        dst: 0 (valid) 0x1c2-0x1c3 (1)
0x1c0|         08                                    |   .            |        idx: 8 (valid) 0x1c3-0x1c4 (1)
     |                                               |                |      [4]{}: local_time_type 0x1c4-0x1ca (6)
0x1c0|            00 00 9a b0                        |    ....        |        utoff: 39600 (valid) 0x1c4-0x1c8 (4)
0x1c0|                        01                     |        .       |        dst: 1 (valid) 0x1c8-0x1c9 (1)
0x1c0|                           0c                  |         .      |        idx: 12 (valid) 0x1c9-0x1ca (1)
     |                                               |                |      [5]{}: local_time_type 0x1ca-0x1d0 (6)
0x1c0|                              00 00 8c a0      |          ....  |        utoff: 36000 (valid) 0x1ca-0x1ce (4)
0x1c0|                                          00   |              . |        dst: 0 (valid) 0x1ce-0x1cf (1)
0x1c0|                                             10|               .|        idx: 16 (valid) 0x1cf-0x1d0 (1)
     |                                               |                |    time_zone_designations[0:5]: 0x1d0-0x1e5 (21)
0x1d0|4c 4d 54 00                                    |LMT.            |      [0]: "LMT" time_zone_designation 0x1d0-0x1d4 (4)
0x1d0|            47 53 54 00                        |    GST.        |      [1]: "GST" time_zone_designation 0x1d4-0x1d8 (4)
0x1d0|                        2b 30 39 00            |        +09.    |      [2]: "+09" time_zone_designation 0x1d8-0x1dc (4)
0x1d0|                                    47 44 54 00|            GDT.|      [3]: "GDT" time_zone_designation 0x1dc-0x1e0 (4)
0x1e0|43 68 53 54 00                                 |ChST.           |      [4]: "ChST" time_zone_designation 0x1e0-0x1e5 (5)
     |                                               |                |    leap_second_records[0:0]: 0x1e5-0x1e5 (0)
     |                                               |                |    standard_wall_indicators[0:0]: 0x1e5-0x1e5 (0)
     |                                               |                |    ut_local_indicators[0:0]: 0x1e5-0x1e5 (0)
     |                                               |                |  footer{}: 0x1e5-0x1ee (9)
0x1e0|               0a                              |     .          |    nl1: 10 (valid) 0x1e5-0x1e6 (1)
0x1e0|                  43 68 53 54 2d 31 30         |      ChST-10   |    tz_string: "ChST-10" 0x1e6-0x1ed (7)
0x1e0|                                       0a|     |             .| |    nl2: 10 (valid) 0x1ed-0x1ee (1)
