$ fq -d tzif dv Guatemala
     |00 01 02 03 04 05 06 07 08 09 0a 0b 0c 0d 0e 0f|0123456789abcdef|.{}: Guatemala (tzif) 0x0-0x33e (830)
     |                                               |                |  v1header{}: 0x0-0x2c (44)
0x000|54 5a 69 66                                    |TZif            |    magic: 0x545a6966 (valid) 0x0-0x4 (4)
0x000|            32                                 |    2           |    ver: "2" (0x32) (valid) 0x4-0x5 (1)
0x000|               00 00 00 00 00 00 00 00 00 00 00|     ...........|    reserved: raw bits 0x5-0x14 (15)
0x010|00 00 00 00                                    |....            |
0x010|            00 00 00 00                        |    ....        |    isutcnt: 0 0x14-0x18 (4)
0x010|                        00 00 00 00            |        ....    |    isstdcnt: 0 0x18-0x1c (4)
0x010|                                    00 00 00 1b|            ....|    leapcnt: 27 0x1c-0x20 (4)
0x020|00 00 00 0a                                    |....            |    timecnt: 10 0x20-0x24 (4)
0x020|            00 00 00 03                        |    ....        |    typecnt: 3 0x24-0x28 (4)
0x020|                        00 00 00 0c            |        ....    |    charcnt: 12 0x28-0x2c (4)
     |                                               |                |  v1datablock{}: 0x2c-0x154 (296)
     |                                               |                |    transition_times[0:10]: 0x2c-0x54 (40)
0x020|                                    9f 9d ea dc|            ....|      [0]: "1918-10-05T06:02:04Z" (-1617040676) transition_time 0x2c-0x30 (4)
0x030|07 55 ac 62                                    |.U.b            |      [1]: "1973-11-25T06:00:02Z" (123055202) transition_time 0x30-0x34 (4)
0x030|            07 cd 96 d3                        |    ....        |      [2]: "1974-02-24T05:00:03Z" (130914003) transition_time 0x34-0x38 (4)
0x030|                        19 2c 78 6b            |        .,xk    |      [3]: "1983-05-21T06:00:11Z" (422344811) transition_time 0x38-0x3c (4)
0x030|                                    19 cf e4 5c|            ...\|      [4]: "1983-09-22T05:00:12Z" (433054812) transition_time 0x3c-0x40 (4)
0x040|27 ea ee f0                                    |'...            |      [5]: "1991-03-23T06:00:16Z" (669708016) transition_time 0x40-0x44 (4)
0x040|            28 c8 5c e0                        |    (.\.        |      [6]: "1991-09-07T05:00:16Z" (684219616) transition_time 0x44-0x48 (4)
0x040|                        44 54 52 77            |        DTRw    |      [7]: "2006-04-30T06:00:23Z" (1146376823) transition_time 0x48-0x4c (4)
0x040|                                    45 1f 4b 67|            E.Kg|      [8]: "2006-10-01T05:00:23Z" (1159678823) transition_time 0x4c-0x50 (4)
0x050|64 9b 78 1b                                    |d.x.            |      [9]: "2023-06-28T00:00:27Z" (1687910427) transition_time 0x50-0x54 (4)
     |                                               |                |    transition_types[0:10]: 0x54-0x5e (10)
0x050|            02                                 |    .           |      [0]: 2 transition_type 0x54-0x55 (1)
0x050|               01                              |     .          |      [1]: 1 transition_type 0x55-0x56 (1)
0x050|                  02                           |      .         |      [2]: 2 transition_type 0x56-0x57 (1)
0x050|                     01                        |       .        |      [3]: 1 transition_type 0x57-0x58 (1)
0x050|                        02                     |        .       |      [4]: 2 transition_type 0x58-0x59 (1)
0x050|                           01                  |         .      |      [5]: 1 transition_type 0x59-0x5a (1)
0x050|                              02               |          .     |      [6]: 2 transition_type 0x5a-0x5b (1)
0x050|                                 01            |           .    |      [7]: 1 transition_type 0x5b-0x5c (1)
0x050|                                    02         |            .   |      [8]: 2 transition_type 0x5c-0x5d (1)
0x050|                                       02      |             .  |      [9]: 2 transition_type 0x5d-0x5e (1)
     |                                               |                |    local_time_type_records[0:3]: 0x5e-0x70 (18)
     |                                               |                |      [0]{}: local_time_type 0x5e-0x64 (6)
0x050|                                          ff ff|              ..|        utoff: -21724 (valid) 0x5e-0x62 (4)
0x060|ab 24                                          |.$              |
0x060|      00                                       |  .             |        dst: 0 (valid) 0x62-0x63 (1)
0x060|         00                                    |   .            |        idx: 0 (valid) 0x63-0x64 (1)
     |                                               |                |      [1]{}: local_time_type 0x64-0x6a (6)
0x060|            ff ff b9 b0                        |    ....        |        utoff: -18000 (valid) 0x64-0x68 (4)
0x060|                        01                     |        .       |        dst: 1 (valid) 0x68-0x69 (1)
0x060|                           04                  |         .      |        idx: 4 (valid) 0x69-0x6a (1)
     |                                               |                |      [2]{}: local_time_type 0x6a-0x70 (6)
0x060|                              ff ff ab a0      |          ....  |        utoff: -21600 (valid) 0x6a-0x6e (4)
0x060|                                          00   |              . |        dst: 0 (valid) 0x6e-0x6f (1)
0x060|                                             08|               .|        idx: 8 (valid) 0x6f-0x70 (1)
     |                                               |                |    time_zone_designations[0:3]: 0x70-0x7c (12)
0x070|4c 4d 54 00                                    |LMT.            |      [0]: "LMT" time_zone_designation 0x70-0x74 (4)
0x070|            43 44 54 00                        |    CDT.        |      [1]: "CDT" time_zone_designation 0x74-0x78 (4)
0x070|                        43 53 54 00            |        CST.    |      [2]: "CST" time_zone_designation 0x78-0x7c (4)
     |                                               |                |    leap_second_records[0:27]: 0x7c-0x154 (216)
     |                                               |                |      [0]{}: leap_second_record 0x7c-0x84 (8)
0x070|                                    04 b2 58 00|            ..X.|        occur: "1972-07-01T00:00:00Z" (78796800) 0x7c-0x80 (4)
0x080|00 00 00 01                                    |....            |        corr: 1 0x80-0x84 (4)
     |                                               |                |      [1]{}: leap_second_record 0x84-0x8c (8)
0x080|            05 a4 ec 01                        |    ....        |        occur: "1973-01-01T00:00:01Z" (94694401) 0x84-0x88 (4)
0x080|                        00 00 00 02            |        ....    |        corr: 2 0x88-0x8c (4)
     |                                               |                |      [2]{}: leap_second_record 0x8c-0x94 (8)
0x080|                                    07 86 1f 82|            ....|        occur: "1974-01-01T00:00:02Z" (126230402) 0x8c-0x90 (4)
0x090|00 00 00 03                                    |....            |        corr: 3 0x90-0x94 (4)
     |                                               |                |      [3]{}: leap_second_record 0x94-0x9c (8)
0x090|            09 67 53 03                        |    .gS.        |        occur: "1975-01-01T00:00:03Z" (157766403) 0x94-0x98 (4)
0x090|                        00 00 00 04            |        ....    |        corr: 4 0x98-0x9c (4)
     |                                               |                |      [4]{}: leap_second_record 0x9c-0xa4 (8)
0x090|                                    0b 48 86 84|            .H..|        occur: "1976-01-01T00:00:04Z" (189302404) 0x9c-0xa0 (4)
0x0a0|00 00 00 05                                    |....            |        corr: 5 0xa0-0xa4 (4)
     |                                               |                |      [5]{}: leap_second_record 0xa4-0xac (8)
0x0a0|            0d 2b 0b 85                        |    .+..        |        occur: "1977-01-01T00:00:05Z" (220924805) 0xa4-0xa8 (4)
0x0a0|                        00 00 00 06            |        ....    |        corr: 6 0xa8-0xac (4)
     |                                               |                |      [6]{}: leap_second_record 0xac-0xb4 (8)
0x0a0|                                    0f 0c 3f 06|            ..?.|        occur: "1978-01-01T00:00:06Z" (252460806) 0xac-0xb0 (4)
0x0b0|00 00 00 07                                    |....            |        corr: 7 0xb0-0xb4 (4)
     |                                               |                |      [7]{}: leap_second_record 0xb4-0xbc (8)
0x0b0|            10 ed 72 87                        |    ..r.        |        occur: "1979-01-01T00:00:07Z" (283996807) 0xb4-0xb8 (4)
0x0b0|                        00 00 00 08            |        ....    |        corr: 8 0xb8-0xbc (4)
     |                                               |                |      [8]{}: leap_second_record 0xbc-0xc4 (8)
0x0b0|                                    12 ce a6 08|            ....|        occur: "1980-01-01T00:00:08Z" (315532808) 0xbc-0xc0 (4)
0x0c0|00 00 00 09                                    |....            |        corr: 9 0xc0-0xc4 (4)
     |                                               |                |      [9]{}: leap_second_record 0xc4-0xcc (8)
0x0c0|            15 9f ca 89                        |    ....        |        occur: "1981-07-01T00:00:09Z" (362793609) 0xc4-0xc8 (4)
0x0c0|                        00 00 00 0a            |        ....    |        corr: 10 0xc8-0xcc (4)
     |                                               |                |      [10]{}: leap_second_record 0xcc-0xd4 (8)
0x0c0|                                    17 80 fe 0a|            ....|        occur: "1982-07-01T00:00:10Z" (394329610) 0xcc-0xd0 (4)
0x0d0|00 00 00 0b                                    |....            |        corr: 11 0xd0-0xd4 (4)
     |                                               |                |      [11]{}: leap_second_record 0xd4-0xdc (8)
0x0d0|            19 62 31 8b                        |    .b1.        |        occur: "1983-07-01T00:00:11Z" (425865611) 0xd4-0xd8 (4)
0x0d0|                        00 00 00 0c            |        ....    |        corr: 12 0xd8-0xdc (4)
     |                                               |                |      [12]{}: leap_second_record 0xdc-0xe4 (8)
0x0d0|                                    1d 25 ea 0c|            .%..|        occur: "1985-07-01T00:00:12Z" (489024012) 0xdc-0xe0 (4)
0x0e0|00 00 00 0d                                    |....            |        corr: 13 0xe0-0xe4 (4)
     |                                               |                |      [13]{}: leap_second_record 0xe4-0xec (8)
0x0e0|            21 da e5 0d                        |    !...        |        occur: "1988-01-01T00:00:13Z" (567993613) 0xe4-0xe8 (4)
0x0e0|                        00 00 00 0e            |        ....    |        corr: 14 0xe8-0xec (4)
     |                                               |                |      [14]{}: leap_second_record 0xec-0xf4 (8)
0x0e0|                                    25 9e 9d 8e|            %...|        occur: "1990-01-01T00:00:14Z" (631152014) 0xec-0xf0 (4)
0x0f0|00 00 00 0f                                    |....            |        corr: 15 0xf0-0xf4 (4)
     |                                               |                |      [15]{}: leap_second_record 0xf4-0xfc (8)
0x0f0|            27 7f d1 0f                        |    '...        |        occur: "1991-01-01T00:00:15Z" (662688015) 0xf4-0xf8 (4)
0x0f0|                        00 00 00 10            |        ....    |        corr: 16 0xf8-0xfc (4)
     |                                               |                |      [16]{}: leap_second_record 0xfc-0x104 (8)
0x0f0|                                    2a 50 f5 90|            *P..|        occur: "1992-07-01T00:00:16Z" (709948816) 0xfc-0x100 (4)
0x100|00 00 00 11                                    |....            |        corr: 17 0x100-0x104 (4)
     |                                               |                |      [17]{}: leap_second_record 0x104-0x10c (8)
0x100|            2c 32 29 11                        |    ,2).        |        occur: "1993-07-01T00:00:17Z" (741484817) 0x104-0x108 (4)
0x100|                        00 00 00 12            |        ....    |        corr: 18 0x108-0x10c (4)
     |                                               |                |      [18]{}: leap_second_record 0x10c-0x114 (8)
0x100|                                    2e 13 5c 92|            ..\.|        occur: "1994-07-01T00:00:18Z" (773020818) 0x10c-0x110 (4)
0x110|00 00 00 13                                    |....            |        corr: 19 0x110-0x114 (4)
     |                                               |                |      [19]{}: leap_second_record 0x114-0x11c (8)
0x110|            30 e7 24 13                        |    0.$.        |        occur: "1996-01-01T00:00:19Z" (820454419) 0x114-0x118 (4)
0x110|                        00 00 00 14            |        ....    |        corr: 20 0x118-0x11c (4)
     |                                               |                |      [20]{}: leap_second_record 0x11c-0x124 (8)
0x110|                                    33 b8 48 94|            3.H.|        occur: "1997-07-01T00:00:20Z" (867715220) 0x11c-0x120 (4)
0x120|00 00 00 15                                    |....            |        corr: 21 0x120-0x124 (4)
     |                                               |                |      [21]{}: leap_second_record 0x124-0x12c (8)
0x120|            36 8c 10 15                        |    6...        |        occur: "1999-01-01T00:00:21Z" (915148821) 0x124-0x128 (4)
0x120|                        00 00 00 16            |        ....    |        corr: 22 0x128-0x12c (4)
     |                                               |                |      [22]{}: leap_second_record 0x12c-0x134 (8)
0x120|                                    43 b7 1b 96|            C...|        occur: "2006-01-01T00:00:22Z" (1136073622) 0x12c-0x130 (4)
0x130|00 00 00 17                                    |....            |        corr: 23 0x130-0x134 (4)
     |                                               |                |      [23]{}: leap_second_record 0x134-0x13c (8)
0x130|            49 5c 07 97                        |    I\..        |        occur: "2009-01-01T00:00:23Z" (1230768023) 0x134-0x138 (4)
0x130|                        00 00 00 18            |        ....    |        corr: 24 0x138-0x13c (4)
     |                                               |                |      [24]{}: leap_second_record 0x13c-0x144 (8)
0x130|                                    4f ef 93 18|            O...|        occur: "2012-07-01T00:00:24Z" (1341100824) 0x13c-0x140 (4)
0x140|00 00 00 19                                    |....            |        corr: 25 0x140-0x144 (4)
     |                                               |                |      [25]{}: leap_second_record 0x144-0x14c (8)
0x140|            55 93 2d 99                        |    U.-.        |        occur: "2015-07-01T00:00:25Z" (1435708825) 0x144-0x148 (4)
0x140|                        00 00 00 1a            |        ....    |        corr: 26 0x148-0x14c (4)
     |                                               |                |      [26]{}: leap_second_record 0x14c-0x154 (8)
0x140|                                    58 68 46 9a|            XhF.|        occur: "2017-01-01T00:00:26Z" (1483228826) 0x14c-0x150 (4)
0x150|00 00 00 1b                                    |....            |        corr: 27 0x150-0x154 (4)
     |                                               |                |    standard_wall_indicators[0:0]: 0x154-0x154 (0)
     |                                               |                |    ut_local_indicators[0:0]: 0x154-0x154 (0)
     |                                               |                |  v2plusheader{}: 0x154-0x180 (44)
0x150|            54 5a 69 66                        |    TZif        |    magic: 0x545a6966 (valid) 0x154-0x158 (4)
0x150|                        32                     |        2       |    ver: "2" (0x32) (valid) 0x158-0x159 (1)
0x150|                           00 00 00 00 00 00 00|         .......|    reserved: raw bits 0x159-0x168 (15)
0x160|00 00 00 00 00 00 00 00                        |........        |
0x160|                        00 00 00 00            |        ....    |    isutcnt: 0 0x168-0x16c (4)
0x160|                                    00 00 00 00|            ....|    isstdcnt: 0 0x16c-0x170 (4)
0x170|00 00 00 1b                                    |....            |    leapcnt: 27 0x170-0x174 (4)
0x170|            00 00 00 0a                        |    ....        |    timecnt: 10 0x174-0x178 (4)
0x170|                        00 00 00 03            |        ....    |    typecnt: 3 0x178-0x17c (4)
0x170|                                    00 00 00 0c|            ....|    charcnt: 12 0x17c-0x180 (4)
     |                                               |                |  v2plusdatablock{}: 0x180-0x33c (444)
     |                                               |                |    transition_times[0:10]: 0x180-0x1d0 (80)
0x180|ff ff ff ff 9f 9d ea dc                        |........        |      [0]: "1918-10-05T06:02:04Z" (-1617040676) transition_time 0x180-0x188 (8)
0x180|                        00 00 00 00 07 55 ac 62|        .....U.b|      [1]: "1973-11-25T06:00:02Z" (123055202) transition_time 0x188-0x190 (8)
0x190|00 00 00 00 07 cd 96 d3                        |........        |      [2]: "1974-02-24T05:00:03Z" (130914003) transition_time 0x190-0x198 (8)
0x190|                        00 00 00 00 19 2c 78 6b|        .....,xk|      [3]: "1983-05-21T06:00:11Z" (422344811) transition_time 0x198-0x1a0 (8)
0x1a0|00 00 00 00 19 cf e4 5c                        |.......\        |      [4]: "1983-09-22T05:00:12Z" (433054812) transition_time 0x1a0-0x1a8 (8)
0x1a0|                        00 00 00 00 27 ea ee f0|        ....'...|      [5]: "1991-03-23T06:00:16Z" (669708016) transition_time 0x1a8-0x1b0 (8)
0x1b0|00 00 00 00 28 c8 5c e0                        |....(.\.        |      [6]: "1991-09-07T05:00:16Z" (684219616) transition_time 0x1b0-0x1b8 (8)
0x1b0|                        00 00 00 00 44 54 52 77|        ....DTRw|      [7]: "2006-04-30T06:00:23Z" (1146376823) transition_time 0x1b8-0x1c0 (8)
0x1c0|00 00 00 00 45 1f 4b 67                        |....E.Kg        |      [8]: "2006-10-01T05:00:23Z" (1159678823) transition_time 0x1c0-0x1c8 (8)
0x1c0|                        00 00 00 00 64 9b 78 1b|        ....d.x.|      [9]: "2023-06-28T00:00:27Z" (1687910427) transition_time 0x1c8-0x1d0 (8)
     |                                               |                |    transition_types[0:10]: 0x1d0-0x1da (10)
0x1d0|02                                             |.               |      [0]: 2 transition_type 0x1d0-0x1d1 (1)
0x1d0|   01                                          | .              |      [1]: 1 transition_type 0x1d1-0x1d2 (1)
0x1d0|      02                                       |  .             |      [2]: 2 transition_type 0x1d2-0x1d3 (1)
0x1d0|         01                                    |   .            |      [3]: 1 transition_type 0x1d3-0x1d4 (1)
0x1d0|            02                                 |    .           |      [4]: 2 transition_type 0x1d4-0x1d5 (1)
0x1d0|               01                              |     .          |      [5]: 1 transition_type 0x1d5-0x1d6 (1)
0x1d0|                  02                           |      .         |      [6]: 2 transition_type 0x1d6-0x1d7 (1)
0x1d0|                     01                        |       .        |      [7]: 1 transition_type 0x1d7-0x1d8 (1)
0x1d0|                        02                     |        .       |      [8]: 2 transition_type 0x1d8-0x1d9 (1)
0x1d0|                           02                  |         .      |      [9]: 2 transition_type 0x1d9-0x1da (1)
     |                                               |                |    local_time_type_records[0:3]: 0x1da-0x1ec (18)
     |                                               |                |      [0]{}: local_time_type 0x1da-0x1e0 (6)
0x1d0|                              ff ff ab 24      |          ...$  |        utoff: -21724 (valid) 0x1da-0x1de (4)
0x1d0|                                          00   |              . |        dst: 0 (valid) 0x1de-0x1df (1)
0x1d0|                                             00|               .|        idx: 0 (valid) 0x1df-0x1e0 (1)
     |                                               |                |      [1]{}: local_time_type 0x1e0-0x1e6 (6)
0x1e0|ff ff b9 b0                                    |....            |        utoff: -18000 (valid) 0x1e0-0x1e4 (4)
0x1e0|            01                                 |    .           |        dst: 1 (valid) 0x1e4-0x1e5 (1)
0x1e0|               04                              |     .          |        idx: 4 (valid) 0x1e5-0x1e6 (1)
     |                                               |                |      [2]{}: local_time_type 0x1e6-0x1ec (6)
0x1e0|                  ff ff ab a0                  |      ....      |        utoff: -21600 (valid) 0x1e6-0x1ea (4)
0x1e0|                              00               |          .     |        dst: 0 (valid) 0x1ea-0x1eb (1)
0x1e0|                                 08            |           .    |        idx: 8 (valid) 0x1eb-0x1ec (1)
     |                                               |                |    time_zone_designations[0:3]: 0x1ec-0x1f8 (12)
0x1e0|                                    4c 4d 54 00|            LMT.|      [0]: "LMT" time_zone_designation 0x1ec-0x1f0 (4)
0x1f0|43 44 54 00                                    |CDT.            |      [1]: "CDT" time_zone_designation 0x1f0-0x1f4 (4)
0x1f0|            43 53 54 00                        |    CST.        |      [2]: "CST" time_zone_designation 0x1f4-0x1f8 (4)
     |                                               |                |    leap_second_records[0:27]: 0x1f8-0x33c (324)
     |                                               |                |      [0]{}: leap_second_record 0x1f8-0x204 (12)
0x1f0|                        00 00 00 00 04 b2 58 00|        ......X.|        occur: "1972-07-01T00:00:00Z" (78796800) 0x1f8-0x200 (8)
0x200|00 00 00 01                                    |....            |        corr: 1 0x200-0x204 (4)
     |                                               |                |      [1]{}: leap_second_record 0x204-0x210 (12)
0x200|            00 00 00 00 05 a4 ec 01            |    ........    |        occur: "1973-01-01T00:00:01Z" (94694401) 0x204-0x20c (8)
0x200|                                    00 00 00 02|            ....|        corr: 2 0x20c-0x210 (4)
     |                                               |                |      [2]{}: leap_second_record 0x210-0x21c (12)
0x210|00 00 00 00 07 86 1f 82                        |........        |        occur: "1974-01-01T00:00:02Z" (126230402) 0x210-0x218 (8)
0x210|                        00 00 00 03            |        ....    |        corr: 3 0x218-0x21c (4)
     |                                               |                |      [3]{}: leap_second_record 0x21c-0x228 (12)
0x210|                                    00 00 00 00|            ....|        occur: "1975-01-01T00:00:03Z" (157766403) 0x21c-0x224 (8)
0x220|09 67 53 03                                    |.gS.            |
0x220|            00 00 00 04                        |    ....        |        corr: 4 0x224-0x228 (4)
     |                                               |                |      [4]{}: leap_second_record 0x228-0x234 (12)
0x220|                        00 00 00 00 0b 48 86 84|        .....H..|        occur: "1976-01-01T00:00:04Z" (189302404) 0x228-0x230 (8)
0x230|00 00 00 05                                    |....            |        corr: 5 0x230-0x234 (4)
     |                                               |                |      [5]{}: leap_second_record 0x234-0x240 (12)
0x230|            00 00 00 00 0d 2b 0b 85            |    .....+..    |        occur: "1977-01-01T00:00:05Z" (220924805) 0x234-0x23c (8)
0x230|                                    00 00 00 06|            ....|        corr: 6 0x23c-0x240 (4)
     |                                               |                |      [6]{}: leap_second_record 0x240-0x24c (12)
0x240|00 00 00 00 0f 0c 3f 06                        |......?.        |        occur: "1978-01-01T00:00:06Z" (252460806) 0x240-0x248 (8)
0x240|                        00 00 00 07            |        ....    |        corr: 7 0x248-0x24c (4)
     |                                               |                |      [7]{}: leap_second_record 0x24c-0x258 (12)
0x240|                                    00 00 00 00|            ....|        occur: "1979-01-01T00:00:07Z" (283996807) 0x24c-0x254 (8)
0x250|10 ed 72 87                                    |..r.            |
0x250|            00 00 00 08                        |    ....        |        corr: 8 0x254-0x258 (4)
     |                                               |                |      [8]{}: leap_second_record 0x258-0x264 (12)
0x250|                        00 00 00 00 12 ce a6 08|        ........|        occur: "1980-01-01T00:00:08Z" (315532808) 0x258-0x260 (8)
0x260|00 00 00 09                                    |....            |        corr: 9 0x260-0x264 (4)
     |                                               |                |      [9]{}: leap_second_record 0x264-0x270 (12)
0x260|            00 00 00 00 15 9f ca 89            |    ........    |        occur: "1981-07-01T00:00:09Z" (362793609) 0x264-0x26c (8)
0x260|                                    00 00 00 0a|            ....|        corr: 10 0x26c-0x270 (4)
     |                                               |                |      [10]{}: leap_second_record 0x270-0x27c (12)
0x270|00 00 00 00 17 80 fe 0a                        |........        |        occur: "1982-07-01T00:00:10Z" (394329610) 0x270-0x278 (8)
0x270|                        00 00 00 0b            |        ....    |        corr: 11 0x278-0x27c (4)
     |                                               |                |      [11]{}: leap_second_record 0x27c-0x288 (12)
0x270|                                    00 00 00 00|            ....|        occur: "1983-07-01T00:00:11Z" (425865611) 0x27c-0x284 (8)
0x280|19 62 31 8b                                    |.b1.            |
0x280|            00 00 00 0c                        |    ....        |        corr: 12 0x284-0x288 (4)
     |                                               |                |      [12]{}: leap_second_record 0x288-0x294 (12)
0x280|                        00 00 00 00 1d 25 ea 0c|        .....%..|        occur: "1985-07-01T00:00:12Z" (489024012) 0x288-0x290 (8)
0x290|00 00 00 0d                                    |....            |        corr: 13 0x290-0x294 (4)
     |                                               |                |      [13]{}: leap_second_record 0x294-0x2a0 (12)
0x290|            00 00 00 00 21 da e5 0d            |    ....!...    |        occur: "1988-01-01T00:00:13Z" (567993613) 0x294-0x29c (8)
0x290|                                    00 00 00 0e|            ....|        corr: 14 0x29c-0x2a0 (4)
     |                                               |                |      [14]{}: leap_second_record 0x2a0-0x2ac (12)
0x2a0|00 00 00 00 25 9e 9d 8e                        |....%...        |        occur: "1990-01-01T00:00:14Z" (631152014) 0x2a0-0x2a8 (8)
0x2a0|                        00 00 00 0f            |        ....    |        corr: 15 0x2a8-0x2ac (4)
     |                                               |                |      [15]{}: leap_second_record 0x2ac-0x2b8 (12)
0x2a0|                                    00 00 00 00|            ....|        occur: "1991-01-01T00:00:15Z" (662688015) 0x2ac-0x2b4 (8)
0x2b0|27 7f d1 0f                                    |'...            |
0x2b0|            00 00 00 10                        |    ....        |        corr: 16 0x2b4-0x2b8 (4)
     |                                               |                |      [16]{}: leap_second_record 0x2b8-0x2c4 (12)
0x2b0|                        00 00 00 00 2a 50 f5 90|        ....*P..|        occur: "1992-07-01T00:00:16Z" (709948816) 0x2b8-0x2c0 (8)
0x2c0|00 00 00 11                                    |....            |        corr: 17 0x2c0-0x2c4 (4)
     |                                               |                |      [17]{}: leap_second_record 0x2c4-0x2d0 (12)
0x2c0|            00 00 00 00 2c 32 29 11            |    ....,2).    |        occur: "1993-07-01T00:00:17Z" (741484817) 0x2c4-0x2cc (8)
0x2c0|                                    00 00 00 12|            ....|        corr: 18 0x2cc-0x2d0 (4)
     |                                               |                |      [18]{}: leap_second_record 0x2d0-0x2dc (12)
0x2d0|00 00 00 00 2e 13 5c 92                        |......\.        |        occur: "1994-07-01T00:00:18Z" (773020818) 0x2d0-0x2d8 (8)
0x2d0|                        00 00 00 13            |        ....    |        corr: 19 0x2d8-0x2dc (4)
     |                                               |                |      [19]{}: leap_second_record 0x2dc-0x2e8 (12)
0x2d0|                                    00 00 00 00|            ....|        occur: "1996-01-01T00:00:19Z" (820454419) 0x2dc-0x2e4 (8)
0x2e0|30 e7 24 13                                    |0.$.            |
0x2e0|            00 00 00 14                        |    ....        |        corr: 20 0x2e4-0x2e8 (4)
     |                                               |                |      [20]{}: leap_second_record 0x2e8-0x2f4 (12)
0x2e0|                        00 00 00 00 33 b8 48 94|        ....3.H.|        occur: "1997-07-01T00:00:20Z" (867715220) 0x2e8-0x2f0 (8)
0x2f0|00 00 00 15                                    |....            |        corr: 21 0x2f0-0x2f4 (4)
     |                                               |                |      [21]{}: leap_second_record 0x2f4-0x300 (12)
0x2f0|            00 00 00 00 36 8c 10 15            |    ....6...    |        occur: "1999-01-01T00:00:21Z" (915148821) 0x2f4-0x2fc (8)
0x2f0|                                    00 00 00 16|            ....|        corr: 22 0x2fc-0x300 (4)
     |                                               |                |      [22]{}: leap_second_record 0x300-0x30c (12)
0x300|00 00 00 00 43 b7 1b 96                        |....C...        |        occur: "2006-01-01T00:00:22Z" (1136073622) 0x300-0x308 (8)
0x300|                        00 00 00 17            |        ....    |        corr: 23 0x308-0x30c (4)
     |                                               |                |      [23]{}: leap_second_record 0x30c-0x318 (12)
0x300|                                    00 00 00 00|            ....|        occur: "2009-01-01T00:00:23Z" (1230768023) 0x30c-0x314 (8)
0x310|49 5c 07 97                                    |I\..            |
0x310|            00 00 00 18                        |    ....        |        corr: 24 0x314-0x318 (4)
     |                                               |                |      [24]{}: leap_second_record 0x318-0x324 (12)
0x310|                        00 00 00 00 4f ef 93 18|        ....O...|        occur: "2012-07-01T00:00:24Z" (1341100824) 0x318-0x320 (8)
0x320|00 00 00 19                                    |....            |        corr: 25 0x320-0x324 (4)
     |                                               |                |      [25]{}: leap_second_record 0x324-0x330 (12)
0x320|            00 00 00 00 55 93 2d 99            |    ....U.-.    |        occur: "2015-07-01T00:00:25Z" (1435708825) 0x324-0x32c (8)
0x320|                                    00 00 00 1a|            ....|        corr: 26 0x32c-0x330 (4)
     |                                               |                |      [26]{}: leap_second_record 0x330-0x33c (12)
0x330|00 00 00 00 58 68 46 9a                        |....XhF.        |        occur: "2017-01-01T00:00:26Z" (1483228826) 0x330-0x338 (8)
0x330|                        00 00 00 1b            |        ....    |        corr: 27 0x338-0x33c (4)
     |                                               |                |    standard_wall_indicators[0:0]: 0x33c-0x33c (0)
     |                                               |                |    ut_local_indicators[0:0]: 0x33c-0x33c (0)
     |                                               |                |  footer{}: 0x33c-0x33e (2)
0x330|                                    0a         |            .   |    nl1: 10 (valid) 0x33c-0x33d (1)
     |                                               |                |    tz_string: "" 0x33d-0x33d (0)
0x330|                                       0a|     |             .| |    nl2: 10 (valid) 0x33d-0x33e (1)
