$ fq -d tzif dv Halifax
     |00 01 02 03 04 05 06 07 08 09 0a 0b 0c 0d 0e 0f|0123456789abcdef|.{}: Halifax (tzif) 0x0-0xddd.7 (3550)
     |                                               |                |  v1header{}: 0x0-0x2b.7 (44)
0x000|54 5a 69 66                                    |TZif            |    magic: 0x545a6966 (valid) 0x0-0x3.7 (4)
0x000|            32                                 |    2           |    ver: "2" (0x32) (valid) 0x4-0x4.7 (1)
0x000|               00 00 00 00 00 00 00 00 00 00 00|     ...........|    reserved: raw bits 0x5-0x13.7 (15)
0x010|00 00 00 00                                    |....            |
0x010|            00 00 00 05                        |    ....        |    isutcnt: 5 0x14-0x17.7 (4)
0x010|                        00 00 00 05            |        ....    |    isstdcnt: 5 0x18-0x1b.7 (4)
0x010|                                    00 00 00 1b|            ....|    leapcnt: 27 0x1c-0x1f.7 (4)
0x020|00 00 00 c8                                    |....            |    timecnt: 200 0x20-0x23.7 (4)
0x020|            00 00 00 05                        |    ....        |    typecnt: 5 0x24-0x27.7 (4)
0x020|                        00 00 00 14            |        ....    |    charcnt: 20 0x28-0x2b.7 (4)
     |                                               |                |  v1datablock{}: 0x2c-0x527.7 (1276)
     |                                               |                |    transition_times[0:200]: 0x2c-0x34b.7 (800)
0x020|                                    80 f1 ab a0|            ....|      [0]: "1902-06-15T04:14:24Z" (-2131645536) transition_time 0x2c-0x2f.7 (4)
0x030|9a e4 de c0                                    |....            |      [1]: "1916-04-01T04:00:00Z" (-1696276800) transition_time 0x30-0x33.7 (4)
0x030|            9b d6 13 30                        |    ...0        |      [2]: "1916-10-01T03:00:00Z" (-1680469200) transition_time 0x34-0x37.7 (4)
0x030|                        9e b8 85 60            |        ...`    |      [3]: "1918-04-14T06:00:00Z" (-1632074400) transition_time 0x38-0x3b.7 (4)
0x030|                                    9f ba dd 50|            ...P|      [4]: "1918-10-27T05:00:00Z" (-1615143600) transition_time 0x3c-0x3f.7 (4)
0x040|a2 9d 17 40                                    |...@            |      [5]: "1920-05-09T04:00:00Z" (-1566763200) transition_time 0x40-0x43.7 (4)
0x040|            a3 30 b1 30                        |    .0.0        |      [6]: "1920-08-29T03:00:00Z" (-1557090000) transition_time 0x44-0x47.7 (4)
0x040|                        a4 7a 56 40            |        .zV@    |      [7]: "1921-05-06T04:00:00Z" (-1535486400) transition_time 0x48-0x4b.7 (4)
0x040|                                    a5 1b 1f 30|            ...0|      [8]: "1921-09-05T03:00:00Z" (-1524949200) transition_time 0x4c-0x4f.7 (4)
0x050|a6 53 a0 c0                                    |.S..            |      [9]: "1922-04-30T04:00:00Z" (-1504468800) transition_time 0x50-0x53.7 (4)
0x050|            a6 fc 52 b0                        |    ..R.        |      [10]: "1922-09-05T03:00:00Z" (-1493413200) transition_time 0x54-0x57.7 (4)
0x050|                        a8 3c bd 40            |        .<.@    |      [11]: "1923-05-06T04:00:00Z" (-1472414400) transition_time 0x58-0x5b.7 (4)
0x050|                                    a8 dc 34 b0|            ..4.|      [12]: "1923-09-04T03:00:00Z" (-1461963600) transition_time 0x5c-0x5f.7 (4)
0x060|aa 1c 9f 40                                    |...@            |      [13]: "1924-05-04T04:00:00Z" (-1440964800) transition_time 0x60-0x63.7 (4)
0x060|            aa cd 3a 30                        |    ..:0        |      [14]: "1924-09-15T03:00:00Z" (-1429390800) transition_time 0x64-0x67.7 (4)
0x060|                        ab fc 81 40            |        ...@    |      [15]: "1925-05-03T04:00:00Z" (-1409515200) transition_time 0x68-0x6b.7 (4)
0x060|                                    ac bf 91 30|            ...0|      [16]: "1925-09-28T03:00:00Z" (-1396731600) transition_time 0x6c-0x6f.7 (4)
0x070|ad ee d8 40                                    |...@            |      [17]: "1926-05-16T04:00:00Z" (-1376856000) transition_time 0x70-0x73.7 (4)
0x070|            ae 8c fe 30                        |    ...0        |      [18]: "1926-09-13T03:00:00Z" (-1366491600) transition_time 0x74-0x77.7 (4)
0x070|                        af bc 45 40            |        ..E@    |      [19]: "1927-05-01T04:00:00Z" (-1346616000) transition_time 0x78-0x7b.7 (4)
0x070|                                    b0 7f 55 30|            ..U0|      [20]: "1927-09-26T03:00:00Z" (-1333832400) transition_time 0x7c-0x7f.7 (4)
0x080|b1 ae 9c 40                                    |...@            |      [21]: "1928-05-13T04:00:00Z" (-1313956800) transition_time 0x80-0x83.7 (4)
0x080|            b2 4b 70 b0                        |    .Kp.        |      [22]: "1928-09-09T03:00:00Z" (-1303678800) transition_time 0x84-0x87.7 (4)
0x080|                        b3 8e 7e 40            |        ..~@    |      [23]: "1929-05-12T04:00:00Z" (-1282507200) transition_time 0x88-0x8b.7 (4)
0x080|                                    b4 24 bb 30|            .$.0|      [24]: "1929-09-03T03:00:00Z" (-1272661200) transition_time 0x8c-0x8f.7 (4)
0x090|b5 6e 60 40                                    |.n`@            |      [25]: "1930-05-11T04:00:00Z" (-1251057600) transition_time 0x90-0x93.7 (4)
0x090|            b6 15 c0 b0                        |    ....        |      [26]: "1930-09-15T03:00:00Z" (-1240088400) transition_time 0x94-0x97.7 (4)
0x090|                        b7 4e 42 40            |        .NB@    |      [27]: "1931-05-10T04:00:00Z" (-1219608000) transition_time 0x98-0x9b.7 (4)
0x090|                                    b8 08 17 b0|            ....|      [28]: "1931-09-28T03:00:00Z" (-1207429200) transition_time 0x9c-0x9f.7 (4)
0x0a0|b9 24 e9 c0                                    |.$..            |      [29]: "1932-05-01T04:00:00Z" (-1188763200) transition_time 0xa0-0xa3.7 (4)
0x0a0|            b9 e7 f9 b0                        |    ....        |      [30]: "1932-09-26T03:00:00Z" (-1175979600) transition_time 0xa4-0xa7.7 (4)
0x0a0|                        bb 04 cb c0            |        ....    |      [31]: "1933-04-30T04:00:00Z" (-1157313600) transition_time 0xa8-0xab.7 (4)
0x0a0|                                    bb d1 16 30|            ...0|      [32]: "1933-10-02T03:00:00Z" (-1143925200) transition_time 0xac-0xaf.7 (4)
0x0b0|bd 00 5d 40                                    |..]@            |      [33]: "1934-05-20T04:00:00Z" (-1124049600) transition_time 0xb0-0xb3.7 (4)
0x0b0|            bd 9d 31 b0                        |    ..1.        |      [34]: "1934-09-16T03:00:00Z" (-1113771600) transition_time 0xb4-0xb7.7 (4)
0x0b0|                        be f2 b4 40            |        ...@    |      [35]: "1935-06-02T04:00:00Z" (-1091390400) transition_time 0xb8-0xbb.7 (4)
0x0b0|                                    bf 90 da 30|            ...0|      [36]: "1935-09-30T03:00:00Z" (-1081026000) transition_time 0xbc-0xbf.7 (4)
0x0c0|c0 d3 e7 c0                                    |....            |      [37]: "1936-06-01T04:00:00Z" (-1059854400) transition_time 0xc0-0xc3.7 (4)
0x0c0|            c1 5e 47 30                        |    .^G0        |      [38]: "1936-09-14T03:00:00Z" (-1050786000) transition_time 0xc4-0xc7.7 (4)
0x0c0|                        c2 8d 8e 40            |        ...@    |      [39]: "1937-05-02T04:00:00Z" (-1030910400) transition_time 0xc8-0xcb.7 (4)
0x0c0|                                    c3 50 9e 30|            .P.0|      [40]: "1937-09-27T03:00:00Z" (-1018126800) transition_time 0xcc-0xcf.7 (4)
0x0d0|c4 6d 70 40                                    |.mp@            |      [41]: "1938-05-01T04:00:00Z" (-999460800) transition_time 0xd0-0xd3.7 (4)
0x0d0|            c5 30 80 30                        |    .0.0        |      [42]: "1938-09-26T03:00:00Z" (-986677200) transition_time 0xd4-0xd7.7 (4)
0x0d0|                        c6 72 3c 40            |        .r<@    |      [43]: "1939-05-28T04:00:00Z" (-965592000) transition_time 0xd8-0xdb.7 (4)
0x0d0|                                    c7 10 62 30|            ..b0|      [44]: "1939-09-25T03:00:00Z" (-955227600) transition_time 0xdc-0xdf.7 (4)
0x0e0|c8 36 6e c0                                    |.6n.            |      [45]: "1940-05-05T04:00:00Z" (-935956800) transition_time 0xe0-0xe3.7 (4)
0x0e0|            c8 f9 7e b0                        |    ..~.        |      [46]: "1940-09-30T03:00:00Z" (-923173200) transition_time 0xe4-0xe7.7 (4)
0x0e0|                        ca 16 50 c0            |        ..P.    |      [47]: "1941-05-04T04:00:00Z" (-904507200) transition_time 0xe8-0xeb.7 (4)
0x0e0|                                    ca d9 60 b0|            ..`.|      [48]: "1941-09-29T03:00:00Z" (-891723600) transition_time 0xec-0xef.7 (4)
0x0f0|cb 88 e2 60                                    |...`            |      [49]: "1942-02-09T06:00:00Z" (-880221600) transition_time 0xf0-0xf3.7 (4)
0x0f0|            d2 23 f4 70                        |    .#.p        |      [50]: "1945-08-14T23:00:00Z" (-769395600) transition_time 0xf4-0xf7.7 (4)
0x0f0|                        d2 60 ed d0            |        .`..    |      [51]: "1945-09-30T05:00:00Z" (-765399600) transition_time 0xf8-0xfb.7 (4)
0x0f0|                                    d3 75 d6 e0|            .u..|      [52]: "1946-04-28T06:00:00Z" (-747252000) transition_time 0xfc-0xff.7 (4)
0x100|d4 40 cf d0                                    |.@..            |      [53]: "1946-09-29T05:00:00Z" (-733950000) transition_time 0x100-0x103.7 (4)
0x100|            d5 55 b8 e0                        |    .U..        |      [54]: "1947-04-27T06:00:00Z" (-715802400) transition_time 0x104-0x107.7 (4)
0x100|                        d6 20 b1 d0            |        . ..    |      [55]: "1947-09-28T05:00:00Z" (-702500400) transition_time 0x108-0x10b.7 (4)
0x100|                                    d7 35 9a e0|            .5..|      [56]: "1948-04-25T06:00:00Z" (-684352800) transition_time 0x10c-0x10f.7 (4)
0x110|d8 00 93 d0                                    |....            |      [57]: "1948-09-26T05:00:00Z" (-671050800) transition_time 0x110-0x113.7 (4)
0x110|            d9 15 7c e0                        |    ..|.        |      [58]: "1949-04-24T06:00:00Z" (-652903200) transition_time 0x114-0x117.7 (4)
0x110|                        d9 e0 75 d0            |        ..u.    |      [59]: "1949-09-25T05:00:00Z" (-639601200) transition_time 0x118-0x11b.7 (4)
0x110|                                    dc de 7b 60|            ..{`|      [60]: "1951-04-29T06:00:00Z" (-589399200) transition_time 0x11c-0x11f.7 (4)
0x120|dd a9 74 50                                    |..tP            |      [61]: "1951-09-30T05:00:00Z" (-576097200) transition_time 0x120-0x123.7 (4)
0x120|            de be 5d 60                        |    ..]`        |      [62]: "1952-04-27T06:00:00Z" (-557949600) transition_time 0x124-0x127.7 (4)
0x120|                        df 89 56 50            |        ..VP    |      [63]: "1952-09-28T05:00:00Z" (-544647600) transition_time 0x128-0x12b.7 (4)
0x120|                                    e0 9e 3f 60|            ..?`|      [64]: "1953-04-26T06:00:00Z" (-526500000) transition_time 0x12c-0x12f.7 (4)
0x130|e1 69 38 50                                    |.i8P            |      [65]: "1953-09-27T05:00:00Z" (-513198000) transition_time 0x130-0x133.7 (4)
0x130|            e2 7e 21 60                        |    .~!`        |      [66]: "1954-04-25T06:00:00Z" (-495050400) transition_time 0x134-0x137.7 (4)
0x130|                        e3 49 1a 50            |        .I.P    |      [67]: "1954-09-26T05:00:00Z" (-481748400) transition_time 0x138-0x13b.7 (4)
0x130|                                    e6 47 1f e0|            .G..|      [68]: "1956-04-29T06:00:00Z" (-431546400) transition_time 0x13c-0x13f.7 (4)
0x140|e7 12 18 d0                                    |....            |      [69]: "1956-09-30T05:00:00Z" (-418244400) transition_time 0x140-0x143.7 (4)
0x140|            e8 27 01 e0                        |    .'..        |      [70]: "1957-04-28T06:00:00Z" (-400096800) transition_time 0x144-0x147.7 (4)
0x140|                        e8 f1 fa d0            |        ....    |      [71]: "1957-09-29T05:00:00Z" (-386794800) transition_time 0x148-0x14b.7 (4)
0x140|                                    ea 06 e3 e0|            ....|      [72]: "1958-04-27T06:00:00Z" (-368647200) transition_time 0x14c-0x14f.7 (4)
0x150|ea d1 dc d0                                    |....            |      [73]: "1958-09-28T05:00:00Z" (-355345200) transition_time 0x150-0x153.7 (4)
0x150|            eb e6 c5 e0                        |    ....        |      [74]: "1959-04-26T06:00:00Z" (-337197600) transition_time 0x154-0x157.7 (4)
0x150|                        ec b1 be d0            |        ....    |      [75]: "1959-09-27T05:00:00Z" (-323895600) transition_time 0x158-0x15b.7 (4)
0x150|                                    f1 8f a6 60|            ...`|      [76]: "1962-04-29T06:00:00Z" (-242244000) transition_time 0x15c-0x15f.7 (4)
0x160|f2 7f 89 50                                    |...P            |      [77]: "1962-10-28T05:00:00Z" (-226522800) transition_time 0x160-0x163.7 (4)
0x160|            f3 6f 88 60                        |    .o.`        |      [78]: "1963-04-28T06:00:00Z" (-210794400) transition_time 0x164-0x167.7 (4)
0x160|                        f4 5f 6b 50            |        ._kP    |      [79]: "1963-10-27T05:00:00Z" (-195073200) transition_time 0x168-0x16b.7 (4)
0x160|                                    f5 4f 6a 60|            .Oj`|      [80]: "1964-04-26T06:00:00Z" (-179344800) transition_time 0x16c-0x16f.7 (4)
0x170|f6 3f 4d 50                                    |.?MP            |      [81]: "1964-10-25T05:00:00Z" (-163623600) transition_time 0x170-0x173.7 (4)
0x170|            f7 2f 4c 60                        |    ./L`        |      [82]: "1965-04-25T06:00:00Z" (-147895200) transition_time 0x174-0x177.7 (4)
0x170|                        f8 28 69 d0            |        .(i.    |      [83]: "1965-10-31T05:00:00Z" (-131569200) transition_time 0x178-0x17b.7 (4)
0x170|                                    f9 0f 2e 60|            ...`|      [84]: "1966-04-24T06:00:00Z" (-116445600) transition_time 0x17c-0x17f.7 (4)
0x180|fa 08 4b d0                                    |..K.            |      [85]: "1966-10-30T05:00:00Z" (-100119600) transition_time 0x180-0x183.7 (4)
0x180|            fa f8 4a e0                        |    ..J.        |      [86]: "1967-04-30T06:00:00Z" (-84391200) transition_time 0x184-0x187.7 (4)
0x180|                        fb e8 2d d0            |        ..-.    |      [87]: "1967-10-29T05:00:00Z" (-68670000) transition_time 0x188-0x18b.7 (4)
0x180|                                    fc d8 2c e0|            ..,.|      [88]: "1968-04-28T06:00:00Z" (-52941600) transition_time 0x18c-0x18f.7 (4)
0x190|fd c8 0f d0                                    |....            |      [89]: "1968-10-27T05:00:00Z" (-37220400) transition_time 0x190-0x193.7 (4)
0x190|            fe b8 0e e0                        |    ....        |      [90]: "1969-04-27T06:00:00Z" (-21492000) transition_time 0x194-0x197.7 (4)
0x190|                        ff a7 f1 d0            |        ....    |      [91]: "1969-10-26T05:00:00Z" (-5770800) transition_time 0x198-0x19b.7 (4)
0x190|                                    00 97 f0 e0|            ....|      [92]: "1970-04-26T06:00:00Z" (9957600) transition_time 0x19c-0x19f.7 (4)
0x1a0|01 87 d3 d0                                    |....            |      [93]: "1970-10-25T05:00:00Z" (25678800) transition_time 0x1a0-0x1a3.7 (4)
0x1a0|            02 77 d2 e0                        |    .w..        |      [94]: "1971-04-25T06:00:00Z" (41407200) transition_time 0x1a4-0x1a7.7 (4)
0x1a0|                        03 70 f0 50            |        .p.P    |      [95]: "1971-10-31T05:00:00Z" (57733200) transition_time 0x1a8-0x1ab.7 (4)
0x1a0|                                    04 60 ef 60|            .`.`|      [96]: "1972-04-30T06:00:00Z" (73461600) transition_time 0x1ac-0x1af.7 (4)
0x1b0|05 50 d2 51                                    |.P.Q            |      [97]: "1972-10-29T05:00:01Z" (89182801) transition_time 0x1b0-0x1b3.7 (4)
0x1b0|            06 40 d1 62                        |    .@.b        |      [98]: "1973-04-29T06:00:02Z" (104911202) transition_time 0x1b4-0x1b7.7 (4)
0x1b0|                        07 30 b4 52            |        .0.R    |      [99]: "1973-10-28T05:00:02Z" (120632402) transition_time 0x1b8-0x1bb.7 (4)
0x1b0|                                    08 20 b3 63|            . .c|      [100]: "1974-04-28T06:00:03Z" (136360803) transition_time 0x1bc-0x1bf.7 (4)
0x1c0|09 10 96 53                                    |...S            |      [101]: "1974-10-27T05:00:03Z" (152082003) transition_time 0x1c0-0x1c3.7 (4)
0x1c0|            0a 00 95 64                        |    ...d        |      [102]: "1975-04-27T06:00:04Z" (167810404) transition_time 0x1c4-0x1c7.7 (4)
0x1c0|                        0a f0 78 54            |        ..xT    |      [103]: "1975-10-26T05:00:04Z" (183531604) transition_time 0x1c8-0x1cb.7 (4)
0x1c0|                                    0b e0 77 65|            ..we|      [104]: "1976-04-25T06:00:05Z" (199260005) transition_time 0x1cc-0x1cf.7 (4)
0x1d0|0c d9 94 d5                                    |....            |      [105]: "1976-10-31T05:00:05Z" (215586005) transition_time 0x1d0-0x1d3.7 (4)
0x1d0|            0d c0 59 66                        |    ..Yf        |      [106]: "1977-04-24T06:00:06Z" (230709606) transition_time 0x1d4-0x1d7.7 (4)
0x1d0|                        0e b9 76 d6            |        ..v.    |      [107]: "1977-10-30T05:00:06Z" (247035606) transition_time 0x1d8-0x1db.7 (4)
0x1d0|                                    0f a9 75 e7|            ..u.|      [108]: "1978-04-30T06:00:07Z" (262764007) transition_time 0x1dc-0x1df.7 (4)
0x1e0|10 99 58 d7                                    |..X.            |      [109]: "1978-10-29T05:00:07Z" (278485207) transition_time 0x1e0-0x1e3.7 (4)
0x1e0|            11 89 57 e8                        |    ..W.        |      [110]: "1979-04-29T06:00:08Z" (294213608) transition_time 0x1e4-0x1e7.7 (4)
0x1e0|                        12 79 3a d8            |        .y:.    |      [111]: "1979-10-28T05:00:08Z" (309934808) transition_time 0x1e8-0x1eb.7 (4)
0x1e0|                                    13 69 39 e9|            .i9.|      [112]: "1980-04-27T06:00:09Z" (325663209) transition_time 0x1ec-0x1ef.7 (4)
0x1f0|14 59 1c d9                                    |.Y..            |      [113]: "1980-10-26T05:00:09Z" (341384409) transition_time 0x1f0-0x1f3.7 (4)
0x1f0|            15 49 1b e9                        |    .I..        |      [114]: "1981-04-26T06:00:09Z" (357112809) transition_time 0x1f4-0x1f7.7 (4)
0x1f0|                        16 38 fe da            |        .8..    |      [115]: "1981-10-25T05:00:10Z" (372834010) transition_time 0x1f8-0x1fb.7 (4)
0x1f0|                                    17 28 fd ea|            .(..|      [116]: "1982-04-25T06:00:10Z" (388562410) transition_time 0x1fc-0x1ff.7 (4)
0x200|18 22 1b 5b                                    |.".[            |      [117]: "1982-10-31T05:00:11Z" (404888411) transition_time 0x200-0x203.7 (4)
0x200|            19 08 df eb                        |    ....        |      [118]: "1983-04-24T06:00:11Z" (420012011) transition_time 0x204-0x207.7 (4)
0x200|                        1a 01 fd 5c            |        ...\    |      [119]: "1983-10-30T05:00:12Z" (436338012) transition_time 0x208-0x20b.7 (4)
0x200|                                    1a f1 fc 6c|            ...l|      [120]: "1984-04-29T06:00:12Z" (452066412) transition_time 0x20c-0x20f.7 (4)
0x210|1b e1 df 5c                                    |...\            |      [121]: "1984-10-28T05:00:12Z" (467787612) transition_time 0x210-0x213.7 (4)
0x210|            1c d1 de 6c                        |    ...l        |      [122]: "1985-04-28T06:00:12Z" (483516012) transition_time 0x214-0x217.7 (4)
0x210|                        1d c1 c1 5d            |        ...]    |      [123]: "1985-10-27T05:00:13Z" (499237213) transition_time 0x218-0x21b.7 (4)
0x210|                                    1e b1 c0 6d|            ...m|      [124]: "1986-04-27T06:00:13Z" (514965613) transition_time 0x21c-0x21f.7 (4)
0x220|1f a1 a3 5d                                    |...]            |      [125]: "1986-10-26T05:00:13Z" (530686813) transition_time 0x220-0x223.7 (4)
0x220|            20 75 f2 ed                        |     u..        |      [126]: "1987-04-05T06:00:13Z" (544600813) transition_time 0x224-0x227.7 (4)
0x220|                        21 81 85 5d            |        !..]    |      [127]: "1987-10-25T05:00:13Z" (562136413) transition_time 0x228-0x22b.7 (4)
0x220|                                    22 55 d4 ee|            "U..|      [128]: "1988-04-03T06:00:14Z" (576050414) transition_time 0x22c-0x22f.7 (4)
0x230|23 6a a1 de                                    |#j..            |      [129]: "1988-10-30T05:00:14Z" (594190814) transition_time 0x230-0x233.7 (4)
0x230|            24 35 b6 ee                        |    $5..        |      [130]: "1989-04-02T06:00:14Z" (607500014) transition_time 0x234-0x237.7 (4)
0x230|                        25 4a 83 de            |        %J..    |      [131]: "1989-10-29T05:00:14Z" (625640414) transition_time 0x238-0x23b.7 (4)
0x230|                                    26 15 98 ef|            &...|      [132]: "1990-04-01T06:00:15Z" (638949615) transition_time 0x23c-0x23f.7 (4)
0x240|27 2a 65 df                                    |'*e.            |      [133]: "1990-10-28T05:00:15Z" (657090015) transition_time 0x240-0x243.7 (4)
0x240|            27 fe b5 70                        |    '..p        |      [134]: "1991-04-07T06:00:16Z" (671004016) transition_time 0x244-0x247.7 (4)
0x240|                        29 0a 47 e0            |        ).G.    |      [135]: "1991-10-27T05:00:16Z" (688539616) transition_time 0x248-0x24b.7 (4)
0x240|                                    29 de 97 70|            )..p|      [136]: "1992-04-05T06:00:16Z" (702453616) transition_time 0x24c-0x24f.7 (4)
0x250|2a ea 29 e1                                    |*.).            |      [137]: "1992-10-25T05:00:17Z" (719989217) transition_time 0x250-0x253.7 (4)
0x250|            2b be 79 71                        |    +.yq        |      [138]: "1993-04-04T06:00:17Z" (733903217) transition_time 0x254-0x257.7 (4)
0x250|                        2c d3 46 62            |        ,.Fb    |      [139]: "1993-10-31T05:00:18Z" (752043618) transition_time 0x258-0x25b.7 (4)
0x250|                                    2d 9e 5b 72|            -.[r|      [140]: "1994-04-03T06:00:18Z" (765352818) transition_time 0x25c-0x25f.7 (4)
0x260|2e b3 28 63                                    |..(c            |      [141]: "1994-10-30T05:00:19Z" (783493219) transition_time 0x260-0x263.7 (4)
0x260|            2f 7e 3d 73                        |    /~=s        |      [142]: "1995-04-02T06:00:19Z" (796802419) transition_time 0x264-0x267.7 (4)
0x260|                        30 93 0a 63            |        0..c    |      [143]: "1995-10-29T05:00:19Z" (814942819) transition_time 0x268-0x26b.7 (4)
0x260|                                    31 67 59 f4|            1gY.|      [144]: "1996-04-07T06:00:20Z" (828856820) transition_time 0x26c-0x26f.7 (4)
0x270|32 72 ec 64                                    |2r.d            |      [145]: "1996-10-27T05:00:20Z" (846392420) transition_time 0x270-0x273.7 (4)
0x270|            33 47 3b f4                        |    3G;.        |      [146]: "1997-04-06T06:00:20Z" (860306420) transition_time 0x274-0x277.7 (4)
0x270|                        34 52 ce 65            |        4R.e    |      [147]: "1997-10-26T05:00:21Z" (877842021) transition_time 0x278-0x27b.7 (4)
0x270|                                    35 27 1d f5|            5'..|      [148]: "1998-04-05T06:00:21Z" (891756021) transition_time 0x27c-0x27f.7 (4)
0x280|36 32 b0 65                                    |62.e            |      [149]: "1998-10-25T05:00:21Z" (909291621) transition_time 0x280-0x283.7 (4)
0x280|            37 06 ff f6                        |    7...        |      [150]: "1999-04-04T06:00:22Z" (923205622) transition_time 0x284-0x287.7 (4)
0x280|                        38 1b cc e6            |        8...    |      [151]: "1999-10-31T05:00:22Z" (941346022) transition_time 0x288-0x28b.7 (4)
0x280|                                    38 e6 e1 f6|            8...|      [152]: "2000-04-02T06:00:22Z" (954655222) transition_time 0x28c-0x28f.7 (4)
0x290|39 fb ae e6                                    |9...            |      [153]: "2000-10-29T05:00:22Z" (972795622) transition_time 0x290-0x293.7 (4)
0x290|            3a c6 c3 f6                        |    :...        |      [154]: "2001-04-01T06:00:22Z" (986104822) transition_time 0x294-0x297.7 (4)
0x290|                        3b db 90 e6            |        ;...    |      [155]: "2001-10-28T05:00:22Z" (1004245222) transition_time 0x298-0x29b.7 (4)
0x290|                                    3c af e0 76|            <..v|      [156]: "2002-04-07T06:00:22Z" (1018159222) transition_time 0x29c-0x29f.7 (4)
0x2a0|3d bb 72 e6                                    |=.r.            |      [157]: "2002-10-27T05:00:22Z" (1035694822) transition_time 0x2a0-0x2a3.7 (4)
0x2a0|            3e 8f c2 76                        |    >..v        |      [158]: "2003-04-06T06:00:22Z" (1049608822) transition_time 0x2a4-0x2a7.7 (4)
0x2a0|                        3f 9b 54 e6            |        ?.T.    |      [159]: "2003-10-26T05:00:22Z" (1067144422) transition_time 0x2a8-0x2ab.7 (4)
0x2a0|                                    40 6f a4 76|            @o.v|      [160]: "2004-04-04T06:00:22Z" (1081058422) transition_time 0x2ac-0x2af.7 (4)
0x2b0|41 84 71 66                                    |A.qf            |      [161]: "2004-10-31T05:00:22Z" (1099198822) transition_time 0x2b0-0x2b3.7 (4)
0x2b0|            42 4f 86 76                        |    BO.v        |      [162]: "2005-04-03T06:00:22Z" (1112508022) transition_time 0x2b4-0x2b7.7 (4)
0x2b0|                        43 64 53 66            |        CdSf    |      [163]: "2005-10-30T05:00:22Z" (1130648422) transition_time 0x2b8-0x2bb.7 (4)
0x2b0|                                    44 2f 68 77|            D/hw|      [164]: "2006-04-02T06:00:23Z" (1143957623) transition_time 0x2bc-0x2bf.7 (4)
0x2c0|45 44 35 67                                    |ED5g            |      [165]: "2006-10-29T05:00:23Z" (1162098023) transition_time 0x2c0-0x2c3.7 (4)
0x2c0|            45 f3 9a f7                        |    E...        |      [166]: "2007-03-11T06:00:23Z" (1173592823) transition_time 0x2c4-0x2c7.7 (4)
0x2c0|                        47 2d 51 e7            |        G-Q.    |      [167]: "2007-11-04T05:00:23Z" (1194152423) transition_time 0x2c8-0x2cb.7 (4)
0x2c0|                                    47 d3 7c f7|            G.|.|      [168]: "2008-03-09T06:00:23Z" (1205042423) transition_time 0x2cc-0x2cf.7 (4)
0x2d0|49 0d 33 e7                                    |I.3.            |      [169]: "2008-11-02T05:00:23Z" (1225602023) transition_time 0x2d0-0x2d3.7 (4)
0x2d0|            49 b3 5e f8                        |    I.^.        |      [170]: "2009-03-08T06:00:24Z" (1236492024) transition_time 0x2d4-0x2d7.7 (4)
0x2d0|                        4a ed 15 e8            |        J...    |      [171]: "2009-11-01T05:00:24Z" (1257051624) transition_time 0x2d8-0x2db.7 (4)
0x2d0|                                    4b 9c 7b 78|            K.{x|      [172]: "2010-03-14T06:00:24Z" (1268546424) transition_time 0x2dc-0x2df.7 (4)
0x2e0|4c d6 32 68                                    |L.2h            |      [173]: "2010-11-07T05:00:24Z" (1289106024) transition_time 0x2e0-0x2e3.7 (4)
0x2e0|            4d 7c 5d 78                        |    M|]x        |      [174]: "2011-03-13T06:00:24Z" (1299996024) transition_time 0x2e4-0x2e7.7 (4)
0x2e0|                        4e b6 14 68            |        N..h    |      [175]: "2011-11-06T05:00:24Z" (1320555624) transition_time 0x2e8-0x2eb.7 (4)
0x2e0|                                    4f 5c 3f 78|            O\?x|      [176]: "2012-03-11T06:00:24Z" (1331445624) transition_time 0x2ec-0x2ef.7 (4)
0x2f0|50 95 f6 69                                    |P..i            |      [177]: "2012-11-04T05:00:25Z" (1352005225) transition_time 0x2f0-0x2f3.7 (4)
0x2f0|            51 3c 21 79                        |    Q<!y        |      [178]: "2013-03-10T06:00:25Z" (1362895225) transition_time 0x2f4-0x2f7.7 (4)
0x2f0|                        52 75 d8 69            |        Ru.i    |      [179]: "2013-11-03T05:00:25Z" (1383454825) transition_time 0x2f8-0x2fb.7 (4)
0x2f0|                                    53 1c 03 79|            S..y|      [180]: "2014-03-09T06:00:25Z" (1394344825) transition_time 0x2fc-0x2ff.7 (4)
0x300|54 55 ba 69                                    |TU.i            |      [181]: "2014-11-02T05:00:25Z" (1414904425) transition_time 0x300-0x303.7 (4)
0x300|            54 fb e5 79                        |    T..y        |      [182]: "2015-03-08T06:00:25Z" (1425794425) transition_time 0x304-0x307.7 (4)
0x300|                        56 35 9c 6a            |        V5.j    |      [183]: "2015-11-01T05:00:26Z" (1446354026) transition_time 0x308-0x30b.7 (4)
0x300|                                    56 e5 01 fa|            V...|      [184]: "2016-03-13T06:00:26Z" (1457848826) transition_time 0x30c-0x30f.7 (4)
0x310|58 1e b8 ea                                    |X...            |      [185]: "2016-11-06T05:00:26Z" (1478408426) transition_time 0x310-0x313.7 (4)
0x310|            58 c4 e3 fb                        |    X...        |      [186]: "2017-03-12T06:00:27Z" (1489298427) transition_time 0x314-0x317.7 (4)
0x310|                        59 fe 9a eb            |        Y...    |      [187]: "2017-11-05T05:00:27Z" (1509858027) transition_time 0x318-0x31b.7 (4)
0x310|                                    5a a4 c5 fb|            Z...|      [188]: "2018-03-11T06:00:27Z" (1520748027) transition_time 0x31c-0x31f.7 (4)
0x320|5b de 7c eb                                    |[.|.            |      [189]: "2018-11-04T05:00:27Z" (1541307627) transition_time 0x320-0x323.7 (4)
0x320|            5c 84 a7 fb                        |    \...        |      [190]: "2019-03-10T06:00:27Z" (1552197627) transition_time 0x324-0x327.7 (4)
0x320|                        5d be 5e eb            |        ].^.    |      [191]: "2019-11-03T05:00:27Z" (1572757227) transition_time 0x328-0x32b.7 (4)
0x320|                                    5e 64 89 fb|            ^d..|      [192]: "2020-03-08T06:00:27Z" (1583647227) transition_time 0x32c-0x32f.7 (4)
0x330|5f 9e 40 eb                                    |_.@.            |      [193]: "2020-11-01T05:00:27Z" (1604206827) transition_time 0x330-0x333.7 (4)
0x330|            60 4d a6 7b                        |    `M.{        |      [194]: "2021-03-14T06:00:27Z" (1615701627) transition_time 0x334-0x337.7 (4)
0x330|                        61 87 5d 6b            |        a.]k    |      [195]: "2021-11-07T05:00:27Z" (1636261227) transition_time 0x338-0x33b.7 (4)
0x330|                                    62 2d 88 7b|            b-.{|      [196]: "2022-03-13T06:00:27Z" (1647151227) transition_time 0x33c-0x33f.7 (4)
0x340|63 67 3f 6b                                    |cg?k            |      [197]: "2022-11-06T05:00:27Z" (1667710827) transition_time 0x340-0x343.7 (4)
0x340|            64 0d 6a 7b                        |    d.j{        |      [198]: "2023-03-12T06:00:27Z" (1678600827) transition_time 0x344-0x347.7 (4)
0x340|                        64 9b 78 1b            |        d.x.    |      [199]: "2023-06-28T00:00:27Z" (1687910427) transition_time 0x348-0x34b.7 (4)
     |                                               |                |    transition_types[0:200]: 0x34c-0x413.7 (200)
0x340|                                    02         |            .   |      [0]: 2 transition_type 0x34c-0x34c.7 (1)
0x340|                                       01      |             .  |      [1]: 1 transition_type 0x34d-0x34d.7 (1)
0x340|                                          02   |              . |      [2]: 2 transition_type 0x34e-0x34e.7 (1)
0x340|                                             01|               .|      [3]: 1 transition_type 0x34f-0x34f.7 (1)
0x350|02                                             |.               |      [4]: 2 transition_type 0x350-0x350.7 (1)
0x350|   01                                          | .              |      [5]: 1 transition_type 0x351-0x351.7 (1)
0x350|      02                                       |  .             |      [6]: 2 transition_type 0x352-0x352.7 (1)
0x350|         01                                    |   .            |      [7]: 1 transition_type 0x353-0x353.7 (1)
0x350|            02                                 |    .           |      [8]: 2 transition_type 0x354-0x354.7 (1)
0x350|               01                              |     .          |      [9]: 1 transition_type 0x355-0x355.7 (1)
0x350|                  02                           |      .         |      [10]: 2 transition_type 0x356-0x356.7 (1)
0x350|                     01                        |       .        |      [11]: 1 transition_type 0x357-0x357.7 (1)
0x350|                        02                     |        .       |      [12]: 2 transition_type 0x358-0x358.7 (1)
0x350|                           01                  |         .      |      [13]: 1 transition_type 0x359-0x359.7 (1)
0x350|                              02               |          .     |      [14]: 2 transition_type 0x35a-0x35a.7 (1)
0x350|                                 01            |           .    |      [15]: 1 transition_type 0x35b-0x35b.7 (1)
0x350|                                    02         |            .   |      [16]: 2 transition_type 0x35c-0x35c.7 (1)
0x350|                                       01      |             .  |      [17]: 1 transition_type 0x35d-0x35d.7 (1)
0x350|                                          02   |              . |      [18]: 2 transition_type 0x35e-0x35e.7 (1)
0x350|                                             01|               .|      [19]: 1 transition_type 0x35f-0x35f.7 (1)
0x360|02                                             |.               |      [20]: 2 transition_type 0x360-0x360.7 (1)
0x360|   01                                          | .              |      [21]: 1 transition_type 0x361-0x361.7 (1)
0x360|      02                                       |  .             |      [22]: 2 transition_type 0x362-0x362.7 (1)
0x360|         01                                    |   .            |      [23]: 1 transition_type 0x363-0x363.7 (1)
0x360|            02                                 |    .           |      [24]: 2 transition_type 0x364-0x364.7 (1)
0x360|               01                              |     .          |      [25]: 1 transition_type 0x365-0x365.7 (1)
0x360|                  02                           |      .         |      [26]: 2 transition_type 0x366-0x366.7 (1)
0x360|                     01                        |       .        |      [27]: 1 transition_type 0x367-0x367.7 (1)
0x360|                        02                     |        .       |      [28]: 2 transition_type 0x368-0x368.7 (1)
0x360|                           01                  |         .      |      [29]: 1 transition_type 0x369-0x369.7 (1)
0x360|                              02               |          .     |      [30]: 2 transition_type 0x36a-0x36a.7 (1)
0x360|                                 01            |           .    |      [31]: 1 transition_type 0x36b-0x36b.7 (1)
0x360|                                    02         |            .   |      [32]: 2 transition_type 0x36c-0x36c.7 (1)
0x360|                                       01      |             .  |      [33]: 1 transition_type 0x36d-0x36d.7 (1)
0x360|                                          02   |              . |      [34]: 2 transition_type 0x36e-0x36e.7 (1)
0x360|                                             01|               .|      [35]: 1 transition_type 0x36f-0x36f.7 (1)
0x370|02                                             |.               |      [36]: 2 transition_type 0x370-0x370.7 (1)
0x370|   01                                          | .              |      [37]: 1 transition_type 0x371-0x371.7 (1)
0x370|      02                                       |  .             |      [38]: 2 transition_type 0x372-0x372.7 (1)
0x370|         01                                    |   .            |      [39]: 1 transition_type 0x373-0x373.7 (1)
0x370|            02                                 |    .           |      [40]: 2 transition_type 0x374-0x374.7 (1)
0x370|               01                              |     .          |      [41]: 1 transition_type 0x375-0x375.7 (1)
0x370|                  02                           |      .         |      [42]: 2 transition_type 0x376-0x376.7 (1)
0x370|                     01                        |       .        |      [43]: 1 transition_type 0x377-0x377.7 (1)
0x370|                        02                     |        .       |      [44]: 2 transition_type 0x378-0x378.7 (1)
0x370|                           01                  |         .      |      [45]: 1 transition_type 0x379-0x379.7 (1)
0x370|                              02               |          .     |      [46]: 2 transition_type 0x37a-0x37a.7 (1)
0x370|                                 01            |           .    |      [47]: 1 transition_type 0x37b-0x37b.7 (1)
0x370|                                    02         |            .   |      [48]: 2 transition_type 0x37c-0x37c.7 (1)
0x370|                                       03      |             .  |      [49]: 3 transition_type 0x37d-0x37d.7 (1)
0x370|                                          04   |              . |      [50]: 4 transition_type 0x37e-0x37e.7 (1)
0x370|                                             02|               .|      [51]: 2 transition_type 0x37f-0x37f.7 (1)
0x380|01                                             |.               |      [52]: 1 transition_type 0x380-0x380.7 (1)
0x380|   02                                          | .              |      [53]: 2 transition_type 0x381-0x381.7 (1)
0x380|      01                                       |  .             |      [54]: 1 transition_type 0x382-0x382.7 (1)
0x380|         02                                    |   .            |      [55]: 2 transition_type 0x383-0x383.7 (1)
0x380|            01                                 |    .           |      [56]: 1 transition_type 0x384-0x384.7 (1)
0x380|               02                              |     .          |      [57]: 2 transition_type 0x385-0x385.7 (1)
0x380|                  01                           |      .         |      [58]: 1 transition_type 0x386-0x386.7 (1)
0x380|                     02                        |       .        |      [59]: 2 transition_type 0x387-0x387.7 (1)
0x380|                        01                     |        .       |      [60]: 1 transition_type 0x388-0x388.7 (1)
0x380|                           02                  |         .      |      [61]: 2 transition_type 0x389-0x389.7 (1)
0x380|                              01               |          .     |      [62]: 1 transition_type 0x38a-0x38a.7 (1)
0x380|                                 02            |           .    |      [63]: 2 transition_type 0x38b-0x38b.7 (1)
0x380|                                    01         |            .   |      [64]: 1 transition_type 0x38c-0x38c.7 (1)
0x380|                                       02      |             .  |      [65]: 2 transition_type 0x38d-0x38d.7 (1)
0x380|                                          01   |              . |      [66]: 1 transition_type 0x38e-0x38e.7 (1)
0x380|                                             02|               .|      [67]: 2 transition_type 0x38f-0x38f.7 (1)
0x390|01                                             |.               |      [68]: 1 transition_type 0x390-0x390.7 (1)
0x390|   02                                          | .              |      [69]: 2 transition_type 0x391-0x391.7 (1)
0x390|      01                                       |  .             |      [70]: 1 transition_type 0x392-0x392.7 (1)
0x390|         02                                    |   .            |      [71]: 2 transition_type 0x393-0x393.7 (1)
0x390|            01                                 |    .           |      [72]: 1 transition_type 0x394-0x394.7 (1)
0x390|               02                              |     .          |      [73]: 2 transition_type 0x395-0x395.7 (1)
0x390|                  01                           |      .         |      [74]: 1 transition_type 0x396-0x396.7 (1)
0x390|                     02                        |       .        |      [75]: 2 transition_type 0x397-0x397.7 (1)
0x390|                        01                     |        .       |      [76]: 1 transition_type 0x398-0x398.7 (1)
0x390|                           02                  |         .      |      [77]: 2 transition_type 0x399-0x399.7 (1)
0x390|                              01               |          .     |      [78]: 1 transition_type 0x39a-0x39a.7 (1)
0x390|                                 02            |           .    |      [79]: 2 transition_type 0x39b-0x39b.7 (1)
0x390|                                    01         |            .   |      [80]: 1 transition_type 0x39c-0x39c.7 (1)
0x390|                                       02      |             .  |      [81]: 2 transition_type 0x39d-0x39d.7 (1)
0x390|                                          01   |              . |      [82]: 1 transition_type 0x39e-0x39e.7 (1)
0x390|                                             02|               .|      [83]: 2 transition_type 0x39f-0x39f.7 (1)
0x3a0|01                                             |.               |      [84]: 1 transition_type 0x3a0-0x3a0.7 (1)
0x3a0|   02                                          | .              |      [85]: 2 transition_type 0x3a1-0x3a1.7 (1)
0x3a0|      01                                       |  .             |      [86]: 1 transition_type 0x3a2-0x3a2.7 (1)
0x3a0|         02                                    |   .            |      [87]: 2 transition_type 0x3a3-0x3a3.7 (1)
0x3a0|            01                                 |    .           |      [88]: 1 transition_type 0x3a4-0x3a4.7 (1)
0x3a0|               02                              |     .          |      [89]: 2 transition_type 0x3a5-0x3a5.7 (1)
0x3a0|                  01                           |      .         |      [90]: 1 transition_type 0x3a6-0x3a6.7 (1)
0x3a0|                     02                        |       .        |      [91]: 2 transition_type 0x3a7-0x3a7.7 (1)
0x3a0|                        01                     |        .       |      [92]: 1 transition_type 0x3a8-0x3a8.7 (1)
0x3a0|                           02                  |         .      |      [93]: 2 transition_type 0x3a9-0x3a9.7 (1)
0x3a0|                              01               |          .     |      [94]: 1 transition_type 0x3aa-0x3aa.7 (1)
0x3a0|                                 02            |           .    |      [95]: 2 transition_type 0x3ab-0x3ab.7 (1)
0x3a0|                                    01         |            .   |      [96]: 1 transition_type 0x3ac-0x3ac.7 (1)
0x3a0|                                       02      |             .  |      [97]: 2 transition_type 0x3ad-0x3ad.7 (1)
0x3a0|                                          01   |              . |      [98]: 1 transition_type 0x3ae-0x3ae.7 (1)
0x3a0|                                             02|               .|      [99]: 2 transition_type 0x3af-0x3af.7 (1)
0x3b0|01                                             |.               |      [100]: 1 transition_type 0x3b0-0x3b0.7 (1)
0x3b0|   02                                          | .              |      [101]: 2 transition_type 0x3b1-0x3b1.7 (1)
0x3b0|      01                                       |  .             |      [102]: 1 transition_type 0x3b2-0x3b2.7 (1)
0x3b0|         02                                    |   .            |      [103]: 2 transition_type 0x3b3-0x3b3.7 (1)
0x3b0|            01                                 |    .           |      [104]: 1 transition_type 0x3b4-0x3b4.7 (1)
0x3b0|               02                              |     .          |      [105]: 2 transition_type 0x3b5-0x3b5.7 (1)
0x3b0|                  01                           |      .         |      [106]: 1 transition_type 0x3b6-0x3b6.7 (1)
0x3b0|                     02                        |       .        |      [107]: 2 transition_type 0x3b7-0x3b7.7 (1)
0x3b0|                        01                     |        .       |      [108]: 1 transition_type 0x3b8-0x3b8.7 (1)
0x3b0|                           02                  |         .      |      [109]: 2 transition_type 0x3b9-0x3b9.7 (1)
0x3b0|                              01               |          .     |      [110]: 1 transition_type 0x3ba-0x3ba.7 (1)
0x3b0|                                 02            |           .    |      [111]: 2 transition_type 0x3bb-0x3bb.7 (1)
0x3b0|                                    01         |            .   |      [112]: 1 transition_type 0x3bc-0x3bc.7 (1)
0x3b0|                                       02      |             .  |      [113]: 2 transition_type 0x3bd-0x3bd.7 (1)
0x3b0|                                          01   |              . |      [114]: 1 transition_type 0x3be-0x3be.7 (1)
0x3b0|                                             02|               .|      [115]: 2 transition_type 0x3bf-0x3bf.7 (1)
0x3c0|01                                             |.               |      [116]: 1 transition_type 0x3c0-0x3c0.7 (1)
0x3c0|   02                                          | .              |      [117]: 2 transition_type 0x3c1-0x3c1.7 (1)
0x3c0|      01                                       |  .             |      [118]: 1 transition_type 0x3c2-0x3c2.7 (1)
0x3c0|         02                                    |   .            |      [119]: 2 transition_type 0x3c3-0x3c3.7 (1)
0x3c0|            01                                 |    .           |      [120]: 1 transition_type 0x3c4-0x3c4.7 (1)
0x3c0|               02                              |     .          |      [121]: 2 transition_type 0x3c5-0x3c5.7 (1)
0x3c0|                  01                           |      .         |      [122]: 1 transition_type 0x3c6-0x3c6.7 (1)
0x3c0|                     02                        |       .        |      [123]: 2 transition_type 0x3c7-0x3c7.7 (1)
0x3c0|                        01                     |        .       |      [124]: 1 transition_type 0x3c8-0x3c8.7 (1)
0x3c0|                           02                  |         .      |      [125]: 2 transition_type 0x3c9-0x3c9.7 (1)
0x3c0|                              01               |          .     |      [126]: 1 transition_type 0x3ca-0x3ca.7 (1)
0x3c0|                                 02            |           .    |      [127]: 2 transition_type 0x3cb-0x3cb.7 (1)
0x3c0|                                    01         |            .   |      [128]: 1 transition_type 0x3cc-0x3cc.7 (1)
0x3c0|                                       02      |             .  |      [129]: 2 transition_type 0x3cd-0x3cd.7 (1)
0x3c0|                                          01   |              . |      [130]: 1 transition_type 0x3ce-0x3ce.7 (1)
0x3c0|                                             02|               .|      [131]: 2 transition_type 0x3cf-0x3cf.7 (1)
0x3d0|01                                             |.               |      [132]: 1 transition_type 0x3d0-0x3d0.7 (1)
0x3d0|   02                                          | .              |      [133]: 2 transition_type 0x3d1-0x3d1.7 (1)
0x3d0|      01                                       |  .             |      [134]: 1 transition_type 0x3d2-0x3d2.7 (1)
0x3d0|         02                                    |   .            |      [135]: 2 transition_type 0x3d3-0x3d3.7 (1)
0x3d0|            01                                 |    .           |      [136]: 1 transition_type 0x3d4-0x3d4.7 (1)
0x3d0|               02                              |     .          |      [137]: 2 transition_type 0x3d5-0x3d5.7 (1)
0x3d0|                  01                           |      .         |      [138]: 1 transition_type 0x3d6-0x3d6.7 (1)
0x3d0|                     02                        |       .        |      [139]: 2 transition_type 0x3d7-0x3d7.7 (1)
0x3d0|                        01                     |        .       |      [140]: 1 transition_type 0x3d8-0x3d8.7 (1)
0x3d0|                           02                  |         .      |      [141]: 2 transition_type 0x3d9-0x3d9.7 (1)
0x3d0|                              01               |          .     |      [142]: 1 transition_type 0x3da-0x3da.7 (1)
0x3d0|                                 02            |           .    |      [143]: 2 transition_type 0x3db-0x3db.7 (1)
0x3d0|                                    01         |            .   |      [144]: 1 transition_type 0x3dc-0x3dc.7 (1)
0x3d0|                                       02      |             .  |      [145]: 2 transition_type 0x3dd-0x3dd.7 (1)
0x3d0|                                          01   |              . |      [146]: 1 transition_type 0x3de-0x3de.7 (1)
0x3d0|                                             02|               .|      [147]: 2 transition_type 0x3df-0x3df.7 (1)
0x3e0|01                                             |.               |      [148]: 1 transition_type 0x3e0-0x3e0.7 (1)
0x3e0|   02                                          | .              |      [149]: 2 transition_type 0x3e1-0x3e1.7 (1)
0x3e0|      01                                       |  .             |      [150]: 1 transition_type 0x3e2-0x3e2.7 (1)
0x3e0|         02                                    |   .            |      [151]: 2 transition_type 0x3e3-0x3e3.7 (1)
0x3e0|            01                                 |    .           |      [152]: 1 transition_type 0x3e4-0x3e4.7 (1)
0x3e0|               02                              |     .          |      [153]: 2 transition_type 0x3e5-0x3e5.7 (1)
0x3e0|                  01                           |      .         |      [154]: 1 transition_type 0x3e6-0x3e6.7 (1)
0x3e0|                     02                        |       .        |      [155]: 2 transition_type 0x3e7-0x3e7.7 (1)
0x3e0|                        01                     |        .       |      [156]: 1 transition_type 0x3e8-0x3e8.7 (1)
0x3e0|                           02                  |         .      |      [157]: 2 transition_type 0x3e9-0x3e9.7 (1)
0x3e0|                              01               |          .     |      [158]: 1 transition_type 0x3ea-0x3ea.7 (1)
0x3e0|                                 02            |           .    |      [159]: 2 transition_type 0x3eb-0x3eb.7 (1)
0x3e0|                                    01         |            .   |      [160]: 1 transition_type 0x3ec-0x3ec.7 (1)
0x3e0|                                       02      |             .  |      [161]: 2 transition_type 0x3ed-0x3ed.7 (1)
0x3e0|                                          01   |              . |      [162]: 1 transition_type 0x3ee-0x3ee.7 (1)
0x3e0|                                             02|               .|      [163]: 2 transition_type 0x3ef-0x3ef.7 (1)
0x3f0|01                                             |.               |      [164]: 1 transition_type 0x3f0-0x3f0.7 (1)
0x3f0|   02                                          | .              |      [165]: 2 transition_type 0x3f1-0x3f1.7 (1)
0x3f0|      01                                       |  .             |      [166]: 1 transition_type 0x3f2-0x3f2.7 (1)
0x3f0|         02                                    |   .            |      [167]: 2 transition_type 0x3f3-0x3f3.7 (1)
0x3f0|            01                                 |    .           |      [168]: 1 transition_type 0x3f4-0x3f4.7 (1)
0x3f0|               02                              |     .          |      [169]: 2 transition_type 0x3f5-0x3f5.7 (1)
0x3f0|                  01                           |      .         |      [170]: 1 transition_type 0x3f6-0x3f6.7 (1)
0x3f0|                     02                        |       .        |      [171]: 2 transition_type 0x3f7-0x3f7.7 (1)
0x3f0|                        01                     |        .       |      [172]: 1 transition_type 0x3f8-0x3f8.7 (1)
0x3f0|                           02                  |         .      |      [173]: 2 transition_type 0x3f9-0x3f9.7 (1)
0x3f0|                              01               |          .     |      [174]: 1 transition_type 0x3fa-0x3fa.7 (1)
0x3f0|                                 02            |           .    |      [175]: 2 transition_type 0x3fb-0x3fb.7 (1)
0x3f0|                                    01         |            .   |      [176]: 1 transition_type 0x3fc-0x3fc.7 (1)
0x3f0|                                       02      |             .  |      [177]: 2 transition_type 0x3fd-0x3fd.7 (1)
0x3f0|                                          01   |              . |      [178]: 1 transition_type 0x3fe-0x3fe.7 (1)
0x3f0|                                             02|               .|      [179]: 2 transition_type 0x3ff-0x3ff.7 (1)
0x400|01                                             |.               |      [180]: 1 transition_type 0x400-0x400.7 (1)
0x400|   02                                          | .              |      [181]: 2 transition_type 0x401-0x401.7 (1)
0x400|      01                                       |  .             |      [182]: 1 transition_type 0x402-0x402.7 (1)
0x400|         02                                    |   .            |      [183]: 2 transition_type 0x403-0x403.7 (1)
0x400|            01                                 |    .           |      [184]: 1 transition_type 0x404-0x404.7 (1)
0x400|               02                              |     .          |      [185]: 2 transition_type 0x405-0x405.7 (1)
0x400|                  01                           |      .         |      [186]: 1 transition_type 0x406-0x406.7 (1)
0x400|                     02                        |       .        |      [187]: 2 transition_type 0x407-0x407.7 (1)
0x400|                        01                     |        .       |      [188]: 1 transition_type 0x408-0x408.7 (1)
0x400|                           02                  |         .      |      [189]: 2 transition_type 0x409-0x409.7 (1)
0x400|                              01               |          .     |      [190]: 1 transition_type 0x40a-0x40a.7 (1)
0x400|                                 02            |           .    |      [191]: 2 transition_type 0x40b-0x40b.7 (1)
0x400|                                    01         |            .   |      [192]: 1 transition_type 0x40c-0x40c.7 (1)
0x400|                                       02      |             .  |      [193]: 2 transition_type 0x40d-0x40d.7 (1)
0x400|                                          01   |              . |      [194]: 1 transition_type 0x40e-0x40e.7 (1)
0x400|                                             02|               .|      [195]: 2 transition_type 0x40f-0x40f.7 (1)
0x410|01                                             |.               |      [196]: 1 transition_type 0x410-0x410.7 (1)
0x410|   02                                          | .              |      [197]: 2 transition_type 0x411-0x411.7 (1)
0x410|      01                                       |  .             |      [198]: 1 transition_type 0x412-0x412.7 (1)
0x410|         01                                    |   .            |      [199]: 1 transition_type 0x413-0x413.7 (1)
     |                                               |                |    local_time_type_records[0:5]: 0x414-0x431.7 (30)
     |                                               |                |      [0]{}: local_time_type 0x414-0x419.7 (6)
0x410|            ff ff c4 60                        |    ...`        |        utoff: -15264 (valid) 0x414-0x417.7 (4)
0x410|                        00                     |        .       |        dst: 0 (valid) 0x418-0x418.7 (1)
0x410|                           00                  |         .      |        idx: 0 (valid) 0x419-0x419.7 (1)
     |                                               |                |      [1]{}: local_time_type 0x41a-0x41f.7 (6)
0x410|                              ff ff d5 d0      |          ....  |        utoff: -10800 (valid) 0x41a-0x41d.7 (4)
0x410|                                          01   |              . |        dst: 1 (valid) 0x41e-0x41e.7 (1)
0x410|                                             04|               .|        idx: 4 (valid) 0x41f-0x41f.7 (1)
     |                                               |                |      [2]{}: local_time_type 0x420-0x425.7 (6)
0x420|ff ff c7 c0                                    |....            |        utoff: -14400 (valid) 0x420-0x423.7 (4)
0x420|            00                                 |    .           |        dst: 0 (valid) 0x424-0x424.7 (1)
0x420|               08                              |     .          |        idx: 8 (valid) 0x425-0x425.7 (1)
     |                                               |                |      [3]{}: local_time_type 0x426-0x42b.7 (6)
0x420|                  ff ff d5 d0                  |      ....      |        utoff: -10800 (valid) 0x426-0x429.7 (4)
0x420|                              01               |          .     |        dst: 1 (valid) 0x42a-0x42a.7 (1)
0x420|                                 0c            |           .    |        idx: 12 (valid) 0x42b-0x42b.7 (1)
     |                                               |                |      [4]{}: local_time_type 0x42c-0x431.7 (6)
0x420|                                    ff ff d5 d0|            ....|        utoff: -10800 (valid) 0x42c-0x42f.7 (4)
0x430|01                                             |.               |        dst: 1 (valid) 0x430-0x430.7 (1)
0x430|   10                                          | .              |        idx: 16 (valid) 0x431-0x431.7 (1)
     |                                               |                |    time_zone_designations[0:5]: 0x432-0x445.7 (20)
0x430|      4c 4d 54 00                              |  LMT.          |      [0]: "LMT" time_zone_designation 0x432-0x435.7 (4)
0x430|                  41 44 54 00                  |      ADT.      |      [1]: "ADT" time_zone_designation 0x436-0x439.7 (4)
0x430|                              41 53 54 00      |          AST.  |      [2]: "AST" time_zone_designation 0x43a-0x43d.7 (4)
0x430|                                          41 57|              AW|      [3]: "AWT" time_zone_designation 0x43e-0x441.7 (4)
0x440|54 00                                          |T.              |
0x440|      41 50 54 00                              |  APT.          |      [4]: "APT" time_zone_designation 0x442-0x445.7 (4)
     |                                               |                |    leap_second_records[0:27]: 0x446-0x51d.7 (216)
     |                                               |                |      [0]{}: leap_second_record 0x446-0x44d.7 (8)
0x440|                  04 b2 58 00                  |      ..X.      |        occur: "1972-07-01T00:00:00Z" (78796800) 0x446-0x449.7 (4)
0x440|                              00 00 00 01      |          ....  |        corr: 1 0x44a-0x44d.7 (4)
     |                                               |                |      [1]{}: leap_second_record 0x44e-0x455.7 (8)
0x440|                                          05 a4|              ..|        occur: "1973-01-01T00:00:01Z" (94694401) 0x44e-0x451.7 (4)
0x450|ec 01                                          |..              |
0x450|      00 00 00 02                              |  ....          |        corr: 2 0x452-0x455.7 (4)
     |                                               |                |      [2]{}: leap_second_record 0x456-0x45d.7 (8)
0x450|                  07 86 1f 82                  |      ....      |        occur: "1974-01-01T00:00:02Z" (126230402) 0x456-0x459.7 (4)
0x450|                              00 00 00 03      |          ....  |        corr: 3 0x45a-0x45d.7 (4)
     |                                               |                |      [3]{}: leap_second_record 0x45e-0x465.7 (8)
0x450|                                          09 67|              .g|        occur: "1975-01-01T00:00:03Z" (157766403) 0x45e-0x461.7 (4)
0x460|53 03                                          |S.              |
0x460|      00 00 00 04                              |  ....          |        corr: 4 0x462-0x465.7 (4)
     |                                               |                |      [4]{}: leap_second_record 0x466-0x46d.7 (8)
0x460|                  0b 48 86 84                  |      .H..      |        occur: "1976-01-01T00:00:04Z" (189302404) 0x466-0x469.7 (4)
0x460|                              00 00 00 05      |          ....  |        corr: 5 0x46a-0x46d.7 (4)
     |                                               |                |      [5]{}: leap_second_record 0x46e-0x475.7 (8)
0x460|                                          0d 2b|              .+|        occur: "1977-01-01T00:00:05Z" (220924805) 0x46e-0x471.7 (4)
0x470|0b 85                                          |..              |
0x470|      00 00 00 06                              |  ....          |        corr: 6 0x472-0x475.7 (4)
     |                                               |                |      [6]{}: leap_second_record 0x476-0x47d.7 (8)
0x470|                  0f 0c 3f 06                  |      ..?.      |        occur: "1978-01-01T00:00:06Z" (252460806) 0x476-0x479.7 (4)
0x470|                              00 00 00 07      |          ....  |        corr: 7 0x47a-0x47d.7 (4)
     |                                               |                |      [7]{}: leap_second_record 0x47e-0x485.7 (8)
0x470|                                          10 ed|              ..|        occur: "1979-01-01T00:00:07Z" (283996807) 0x47e-0x481.7 (4)
0x480|72 87                                          |r.              |
0x480|      00 00 00 08                              |  ....          |        corr: 8 0x482-0x485.7 (4)
     |                                               |                |      [8]{}: leap_second_record 0x486-0x48d.7 (8)
0x480|                  12 ce a6 08                  |      ....      |        occur: "1980-01-01T00:00:08Z" (315532808) 0x486-0x489.7 (4)
0x480|                              00 00 00 09      |          ....  |        corr: 9 0x48a-0x48d.7 (4)
     |                                               |                |      [9]{}: leap_second_record 0x48e-0x495.7 (8)
0x480|                                          15 9f|              ..|        occur: "1981-07-01T00:00:09Z" (362793609) 0x48e-0x491.7 (4)
0x490|ca 89                                          |..              |
0x490|      00 00 00 0a                              |  ....          |        corr: 10 0x492-0x495.7 (4)
     |                                               |                |      [10]{}: leap_second_record 0x496-0x49d.7 (8)
0x490|                  17 80 fe 0a                  |      ....      |        occur: "1982-07-01T00:00:10Z" (394329610) 0x496-0x499.7 (4)
0x490|                              00 00 00 0b      |          ....  |        corr: 11 0x49a-0x49d.7 (4)
     |                                               |                |      [11]{}: leap_second_record 0x49e-0x4a5.7 (8)
0x490|                                          19 62|              .b|        occur: "1983-07-01T00:00:11Z" (425865611) 0x49e-0x4a1.7 (4)
0x4a0|31 8b                                          |1.              |
0x4a0|      00 00 00 0c                              |  ....          |        corr: 12 0x4a2-0x4a5.7 (4)
     |                                               |                |      [12]{}: leap_second_record 0x4a6-0x4ad.7 (8)
0x4a0|                  1d 25 ea 0c                  |      .%..      |        occur: "1985-07-01T00:00:12Z" (489024012) 0x4a6-0x4a9.7 (4)
0x4a0|                              00 00 00 0d      |          ....  |        corr: 13 0x4aa-0x4ad.7 (4)
     |                                               |                |      [13]{}: leap_second_record 0x4ae-0x4b5.7 (8)
0x4a0|                                          21 da|              !.|        occur: "1988-01-01T00:00:13Z" (567993613) 0x4ae-0x4b1.7 (4)
0x4b0|e5 0d                                          |..              |
0x4b0|      00 00 00 0e                              |  ....          |        corr: 14 0x4b2-0x4b5.7 (4)
     |                                               |                |      [14]{}: leap_second_record 0x4b6-0x4bd.7 (8)
0x4b0|                  25 9e 9d 8e                  |      %...      |        occur: "1990-01-01T00:00:14Z" (631152014) 0x4b6-0x4b9.7 (4)
0x4b0|                              00 00 00 0f      |          ....  |        corr: 15 0x4ba-0x4bd.7 (4)
     |                                               |                |      [15]{}: leap_second_record 0x4be-0x4c5.7 (8)
0x4b0|                                          27 7f|              '.|        occur: "1991-01-01T00:00:15Z" (662688015) 0x4be-0x4c1.7 (4)
0x4c0|d1 0f                                          |..              |
0x4c0|      00 00 00 10                              |  ....          |        corr: 16 0x4c2-0x4c5.7 (4)
     |                                               |                |      [16]{}: leap_second_record 0x4c6-0x4cd.7 (8)
0x4c0|                  2a 50 f5 90                  |      *P..      |        occur: "1992-07-01T00:00:16Z" (709948816) 0x4c6-0x4c9.7 (4)
0x4c0|                              00 00 00 11      |          ....  |        corr: 17 0x4ca-0x4cd.7 (4)
     |                                               |                |      [17]{}: leap_second_record 0x4ce-0x4d5.7 (8)
0x4c0|                                          2c 32|              ,2|        occur: "1993-07-01T00:00:17Z" (741484817) 0x4ce-0x4d1.7 (4)
0x4d0|29 11                                          |).              |
0x4d0|      00 00 00 12                              |  ....          |        corr: 18 0x4d2-0x4d5.7 (4)
     |                                               |                |      [18]{}: leap_second_record 0x4d6-0x4dd.7 (8)
0x4d0|                  2e 13 5c 92                  |      ..\.      |        occur: "1994-07-01T00:00:18Z" (773020818) 0x4d6-0x4d9.7 (4)
0x4d0|                              00 00 00 13      |          ....  |        corr: 19 0x4da-0x4dd.7 (4)
     |                                               |                |      [19]{}: leap_second_record 0x4de-0x4e5.7 (8)
0x4d0|                                          30 e7|              0.|        occur: "1996-01-01T00:00:19Z" (820454419) 0x4de-0x4e1.7 (4)
0x4e0|24 13                                          |$.              |
0x4e0|      00 00 00 14                              |  ....          |        corr: 20 0x4e2-0x4e5.7 (4)
     |                                               |                |      [20]{}: leap_second_record 0x4e6-0x4ed.7 (8)
0x4e0|                  33 b8 48 94                  |      3.H.      |        occur: "1997-07-01T00:00:20Z" (867715220) 0x4e6-0x4e9.7 (4)
0x4e0|                              00 00 00 15      |          ....  |        corr: 21 0x4ea-0x4ed.7 (4)
     |                                               |                |      [21]{}: leap_second_record 0x4ee-0x4f5.7 (8)
0x4e0|                                          36 8c|              6.|        occur: "1999-01-01T00:00:21Z" (915148821) 0x4ee-0x4f1.7 (4)
0x4f0|10 15                                          |..              |
0x4f0|      00 00 00 16                              |  ....          |        corr: 22 0x4f2-0x4f5.7 (4)
     |                                               |                |      [22]{}: leap_second_record 0x4f6-0x4fd.7 (8)
0x4f0|                  43 b7 1b 96                  |      C...      |        occur: "2006-01-01T00:00:22Z" (1136073622) 0x4f6-0x4f9.7 (4)
0x4f0|                              00 00 00 17      |          ....  |        corr: 23 0x4fa-0x4fd.7 (4)
     |                                               |                |      [23]{}: leap_second_record 0x4fe-0x505.7 (8)
0x4f0|                                          49 5c|              I\|        occur: "2009-01-01T00:00:23Z" (1230768023) 0x4fe-0x501.7 (4)
0x500|07 97                                          |..              |
0x500|      00 00 00 18                              |  ....          |        corr: 24 0x502-0x505.7 (4)
     |                                               |                |      [24]{}: leap_second_record 0x506-0x50d.7 (8)
0x500|                  4f ef 93 18                  |      O...      |        occur: "2012-07-01T00:00:24Z" (1341100824) 0x506-0x509.7 (4)
0x500|                              00 00 00 19      |          ....  |        corr: 25 0x50a-0x50d.7 (4)
     |                                               |                |      [25]{}: leap_second_record 0x50e-0x515.7 (8)
0x500|                                          55 93|              U.|        occur: "2015-07-01T00:00:25Z" (1435708825) 0x50e-0x511.7 (4)
0x510|2d 99                                          |-.              |
0x510|      00 00 00 1a                              |  ....          |        corr: 26 0x512-0x515.7 (4)
     |                                               |                |      [26]{}: leap_second_record 0x516-0x51d.7 (8)
0x510|                  58 68 46 9a                  |      XhF.      |        occur: "2017-01-01T00:00:26Z" (1483228826) 0x516-0x519.7 (4)
0x510|                              00 00 00 1b      |          ....  |        corr: 27 0x51a-0x51d.7 (4)
     |                                               |                |    standard_wall_indicators[0:5]: 0x51e-0x522.7 (5)
0x510|                                          00   |              . |      [0]: 0 standard_wall_indicator (valid) 0x51e-0x51e.7 (1)
0x510|                                             00|               .|      [1]: 0 standard_wall_indicator (valid) 0x51f-0x51f.7 (1)
0x520|00                                             |.               |      [2]: 0 standard_wall_indicator (valid) 0x520-0x520.7 (1)
0x520|   00                                          | .              |      [3]: 0 standard_wall_indicator (valid) 0x521-0x521.7 (1)
0x520|      01                                       |  .             |      [4]: 1 standard_wall_indicator (valid) 0x522-0x522.7 (1)
     |                                               |                |    ut_local_indicators[0:5]: 0x523-0x527.7 (5)
0x520|         00                                    |   .            |      [0]: 0 ut_local_indicator (valid) 0x523-0x523.7 (1)
0x520|            00                                 |    .           |      [1]: 0 ut_local_indicator (valid) 0x524-0x524.7 (1)
0x520|               00                              |     .          |      [2]: 0 ut_local_indicator (valid) 0x525-0x525.7 (1)
0x520|                  00                           |      .         |      [3]: 0 ut_local_indicator (valid) 0x526-0x526.7 (1)
0x520|                     01                        |       .        |      [4]: 1 ut_local_indicator (valid) 0x527-0x527.7 (1)
     |                                               |                |  v2plusheader{}: 0x528-0x553.7 (44)
0x520|                        54 5a 69 66            |        TZif    |    magic: 0x545a6966 (valid) 0x528-0x52b.7 (4)
0x520|                                    32         |            2   |    ver: "2" (0x32) (valid) 0x52c-0x52c.7 (1)
0x520|                                       00 00 00|             ...|    reserved: raw bits 0x52d-0x53b.7 (15)
0x530|00 00 00 00 00 00 00 00 00 00 00 00            |............    |
0x530|                                    00 00 00 05|            ....|    isutcnt: 5 0x53c-0x53f.7 (4)
0x540|00 00 00 05                                    |....            |    isstdcnt: 5 0x540-0x543.7 (4)
0x540|            00 00 00 1b                        |    ....        |    leapcnt: 27 0x544-0x547.7 (4)
0x540|                        00 00 00 c8            |        ....    |    timecnt: 200 0x548-0x54b.7 (4)
0x540|                                    00 00 00 05|            ....|    typecnt: 5 0x54c-0x54f.7 (4)
0x550|00 00 00 14                                    |....            |    charcnt: 20 0x550-0x553.7 (4)
     |                                               |                |  v2plusdatablock{}: 0x554-0xddb.7 (2184)
     |                                               |                |    transition_times[0:200]: 0x554-0xb93.7 (1600)
0x550|            ff ff ff ff 80 f1 ab a0            |    ........    |      [0]: "1902-06-15T04:14:24Z" (-2131645536) transition_time 0x554-0x55b.7 (8)
0x550|                                    ff ff ff ff|            ....|      [1]: "1916-04-01T04:00:00Z" (-1696276800) transition_time 0x55c-0x563.7 (8)
0x560|9a e4 de c0                                    |....            |
0x560|            ff ff ff ff 9b d6 13 30            |    .......0    |      [2]: "1916-10-01T03:00:00Z" (-1680469200) transition_time 0x564-0x56b.7 (8)
0x560|                                    ff ff ff ff|            ....|      [3]: "1918-04-14T06:00:00Z" (-1632074400) transition_time 0x56c-0x573.7 (8)
0x570|9e b8 85 60                                    |...`            |
0x570|            ff ff ff ff 9f ba dd 50            |    .......P    |      [4]: "1918-10-27T05:00:00Z" (-1615143600) transition_time 0x574-0x57b.7 (8)
0x570|                                    ff ff ff ff|            ....|      [5]: "1920-05-09T04:00:00Z" (-1566763200) transition_time 0x57c-0x583.7 (8)
0x580|a2 9d 17 40                                    |...@            |
0x580|            ff ff ff ff a3 30 b1 30            |    .....0.0    |      [6]: "1920-08-29T03:00:00Z" (-1557090000) transition_time 0x584-0x58b.7 (8)
0x580|                                    ff ff ff ff|            ....|      [7]: "1921-05-06T04:00:00Z" (-1535486400) transition_time 0x58c-0x593.7 (8)
0x590|a4 7a 56 40                                    |.zV@            |
0x590|            ff ff ff ff a5 1b 1f 30            |    .......0    |      [8]: "1921-09-05T03:00:00Z" (-1524949200) transition_time 0x594-0x59b.7 (8)
0x590|                                    ff ff ff ff|            ....|      [9]: "1922-04-30T04:00:00Z" (-1504468800) transition_time 0x59c-0x5a3.7 (8)
0x5a0|a6 53 a0 c0                                    |.S..            |
0x5a0|            ff ff ff ff a6 fc 52 b0            |    ......R.    |      [10]: "1922-09-05T03:00:00Z" (-1493413200) transition_time 0x5a4-0x5ab.7 (8)
0x5a0|                                    ff ff ff ff|            ....|      [11]: "1923-05-06T04:00:00Z" (-1472414400) transition_time 0x5ac-0x5b3.7 (8)
0x5b0|a8 3c bd 40                                    |.<.@            |
0x5b0|            ff ff ff ff a8 dc 34 b0            |    ......4.    |      [12]: "1923-09-04T03:00:00Z" (-1461963600) transition_time 0x5b4-0x5bb.7 (8)
0x5b0|                                    ff ff ff ff|            ....|      [13]: "1924-05-04T04:00:00Z" (-1440964800) transition_time 0x5bc-0x5c3.7 (8)
0x5c0|aa 1c 9f 40                                    |...@            |
0x5c0|            ff ff ff ff aa cd 3a 30            |    ......:0    |      [14]: "1924-09-15T03:00:00Z" (-1429390800) transition_time 0x5c4-0x5cb.7 (8)
0x5c0|                                    ff ff ff ff|            ....|      [15]: "1925-05-03T04:00:00Z" (-1409515200) transition_time 0x5cc-0x5d3.7 (8)
0x5d0|ab fc 81 40                                    |...@            |
0x5d0|            ff ff ff ff ac bf 91 30            |    .......0    |      [16]: "1925-09-28T03:00:00Z" (-1396731600) transition_time 0x5d4-0x5db.7 (8)
0x5d0|                                    ff ff ff ff|            ....|      [17]: "1926-05-16T04:00:00Z" (-1376856000) transition_time 0x5dc-0x5e3.7 (8)
0x5e0|ad ee d8 40                                    |...@            |
0x5e0|            ff ff ff ff ae 8c fe 30            |    .......0    |      [18]: "1926-09-13T03:00:00Z" (-1366491600) transition_time 0x5e4-0x5eb.7 (8)
0x5e0|                                    ff ff ff ff|            ....|      [19]: "1927-05-01T04:00:00Z" (-1346616000) transition_time 0x5ec-0x5f3.7 (8)
0x5f0|af bc 45 40                                    |..E@            |
0x5f0|            ff ff ff ff b0 7f 55 30            |    ......U0    |      [20]: "1927-09-26T03:00:00Z" (-1333832400) transition_time 0x5f4-0x5fb.7 (8)
0x5f0|                                    ff ff ff ff|            ....|      [21]: "1928-05-13T04:00:00Z" (-1313956800) transition_time 0x5fc-0x603.7 (8)
0x600|b1 ae 9c 40                                    |...@            |
0x600|            ff ff ff ff b2 4b 70 b0            |    .....Kp.    |      [22]: "1928-09-09T03:00:00Z" (-1303678800) transition_time 0x604-0x60b.7 (8)
0x600|                                    ff ff ff ff|            ....|      [23]: "1929-05-12T04:00:00Z" (-1282507200) transition_time 0x60c-0x613.7 (8)
0x610|b3 8e 7e 40                                    |..~@            |
0x610|            ff ff ff ff b4 24 bb 30            |    .....$.0    |      [24]: "1929-09-03T03:00:00Z" (-1272661200) transition_time 0x614-0x61b.7 (8)
0x610|                                    ff ff ff ff|            ....|      [25]: "1930-05-11T04:00:00Z" (-1251057600) transition_time 0x61c-0x623.7 (8)
0x620|b5 6e 60 40                                    |.n`@            |
0x620|            ff ff ff ff b6 15 c0 b0            |    ........    |      [26]: "1930-09-15T03:00:00Z" (-1240088400) transition_time 0x624-0x62b.7 (8)
0x620|                                    ff ff ff ff|            ....|      [27]: "1931-05-10T04:00:00Z" (-1219608000) transition_time 0x62c-0x633.7 (8)
0x630|b7 4e 42 40                                    |.NB@            |
0x630|            ff ff ff ff b8 08 17 b0            |    ........    |      [28]: "1931-09-28T03:00:00Z" (-1207429200) transition_time 0x634-0x63b.7 (8)
0x630|                                    ff ff ff ff|            ....|      [29]: "1932-05-01T04:00:00Z" (-1188763200) transition_time 0x63c-0x643.7 (8)
0x640|b9 24 e9 c0                                    |.$..            |
0x640|            ff ff ff ff b9 e7 f9 b0            |    ........    |      [30]: "1932-09-26T03:00:00Z" (-1175979600) transition_time 0x644-0x64b.7 (8)
0x640|                                    ff ff ff ff|            ....|      [31]: "1933-04-30T04:00:00Z" (-1157313600) transition_time 0x64c-0x653.7 (8)
0x650|bb 04 cb c0                                    |....            |
0x650|            ff ff ff ff bb d1 16 30            |    .......0    |      [32]: "1933-10-02T03:00:00Z" (-1143925200) transition_time 0x654-0x65b.7 (8)
0x650|                                    ff ff ff ff|            ....|      [33]: "1934-05-20T04:00:00Z" (-1124049600) transition_time 0x65c-0x663.7 (8)
0x660|bd 00 5d 40                                    |..]@            |
0x660|            ff ff ff ff bd 9d 31 b0            |    ......1.    |      [34]: "1934-09-16T03:00:00Z" (-1113771600) transition_time 0x664-0x66b.7 (8)
0x660|                                    ff ff ff ff|            ....|      [35]: "1935-06-02T04:00:00Z" (-1091390400) transition_time 0x66c-0x673.7 (8)
0x670|be f2 b4 40                                    |...@            |
0x670|            ff ff ff ff bf 90 da 30            |    .......0    |      [36]: "1935-09-30T03:00:00Z" (-1081026000) transition_time 0x674-0x67b.7 (8)
0x670|                                    ff ff ff ff|            ....|      [37]: "1936-06-01T04:00:00Z" (-1059854400) transition_time 0x67c-0x683.7 (8)
0x680|c0 d3 e7 c0                                    |....            |
0x680|            ff ff ff ff c1 5e 47 30            |    .....^G0    |      [38]: "1936-09-14T03:00:00Z" (-1050786000) transition_time 0x684-0x68b.7 (8)
0x680|                                    ff ff ff ff|            ....|      [39]: "1937-05-02T04:00:00Z" (-1030910400) transition_time 0x68c-0x693.7 (8)
0x690|c2 8d 8e 40                                    |...@            |
0x690|            ff ff ff ff c3 50 9e 30            |    .....P.0    |      [40]: "1937-09-27T03:00:00Z" (-1018126800) transition_time 0x694-0x69b.7 (8)
0x690|                                    ff ff ff ff|            ....|      [41]: "1938-05-01T04:00:00Z" (-999460800) transition_time 0x69c-0x6a3.7 (8)
0x6a0|c4 6d 70 40                                    |.mp@            |
0x6a0|            ff ff ff ff c5 30 80 30            |    .....0.0    |      [42]: "1938-09-26T03:00:00Z" (-986677200) transition_time 0x6a4-0x6ab.7 (8)
0x6a0|                                    ff ff ff ff|            ....|      [43]: "1939-05-28T04:00:00Z" (-965592000) transition_time 0x6ac-0x6b3.7 (8)
0x6b0|c6 72 3c 40                                    |.r<@            |
0x6b0|            ff ff ff ff c7 10 62 30            |    ......b0    |      [44]: "1939-09-25T03:00:00Z" (-955227600) transition_time 0x6b4-0x6bb.7 (8)
0x6b0|                                    ff ff ff ff|            ....|      [45]: "1940-05-05T04:00:00Z" (-935956800) transition_time 0x6bc-0x6c3.7 (8)
0x6c0|c8 36 6e c0                                    |.6n.            |
0x6c0|            ff ff ff ff c8 f9 7e b0            |    ......~.    |      [46]: "1940-09-30T03:00:00Z" (-923173200) transition_time 0x6c4-0x6cb.7 (8)
0x6c0|                                    ff ff ff ff|            ....|      [47]: "1941-05-04T04:00:00Z" (-904507200) transition_time 0x6cc-0x6d3.7 (8)
0x6d0|ca 16 50 c0                                    |..P.            |
0x6d0|            ff ff ff ff ca d9 60 b0            |    ......`.    |      [48]: "1941-09-29T03:00:00Z" (-891723600) transition_time 0x6d4-0x6db.7 (8)
0x6d0|                                    ff ff ff ff|            ....|      [49]: "1942-02-09T06:00:00Z" (-880221600) transition_time 0x6dc-0x6e3.7 (8)
0x6e0|cb 88 e2 60                                    |...`            |
0x6e0|            ff ff ff ff d2 23 f4 70            |    .....#.p    |      [50]: "1945-08-14T23:00:00Z" (-769395600) transition_time 0x6e4-0x6eb.7 (8)
0x6e0|                                    ff ff ff ff|            ....|      [51]: "1945-09-30T05:00:00Z" (-765399600) transition_time 0x6ec-0x6f3.7 (8)
0x6f0|d2 60 ed d0                                    |.`..            |
0x6f0|            ff ff ff ff d3 75 d6 e0            |    .....u..    |      [52]: "1946-04-28T06:00:00Z" (-747252000) transition_time 0x6f4-0x6fb.7 (8)
0x6f0|                                    ff ff ff ff|            ....|      [53]: "1946-09-29T05:00:00Z" (-733950000) transition_time 0x6fc-0x703.7 (8)
0x700|d4 40 cf d0                                    |.@..            |
0x700|            ff ff ff ff d5 55 b8 e0            |    .....U..    |      [54]: "1947-04-27T06:00:00Z" (-715802400) transition_time 0x704-0x70b.7 (8)
0x700|                                    ff ff ff ff|            ....|      [55]: "1947-09-28T05:00:00Z" (-702500400) transition_time 0x70c-0x713.7 (8)
0x710|d6 20 b1 d0                                    |. ..            |
0x710|            ff ff ff ff d7 35 9a e0            |    .....5..    |      [56]: "1948-04-25T06:00:00Z" (-684352800) transition_time 0x714-0x71b.7 (8)
0x710|                                    ff ff ff ff|            ....|      [57]: "1948-09-26T05:00:00Z" (-671050800) transition_time 0x71c-0x723.7 (8)
0x720|d8 00 93 d0                                    |....            |
0x720|            ff ff ff ff d9 15 7c e0            |    ......|.    |      [58]: "1949-04-24T06:00:00Z" (-652903200) transition_time 0x724-0x72b.7 (8)
0x720|                                    ff ff ff ff|            ....|      [59]: "1949-09-25T05:00:00Z" (-639601200) transition_time 0x72c-0x733.7 (8)
0x730|d9 e0 75 d0                                    |..u.            |
0x730|            ff ff ff ff dc de 7b 60            |    ......{`    |      [60]: "1951-04-29T06:00:00Z" (-589399200) transition_time 0x734-0x73b.7 (8)
0x730|                                    ff ff ff ff|            ....|      [61]: "1951-09-30T05:00:00Z" (-576097200) transition_time 0x73c-0x743.7 (8)
0x740|dd a9 74 50                                    |..tP            |
0x740|            ff ff ff ff de be 5d 60            |    ......]`    |      [62]: "1952-04-27T06:00:00Z" (-557949600) transition_time 0x744-0x74b.7 (8)
0x740|                                    ff ff ff ff|            ....|      [63]: "1952-09-28T05:00:00Z" (-544647600) transition_time 0x74c-0x753.7 (8)
0x750|df 89 56 50                                    |..VP            |
0x750|            ff ff ff ff e0 9e 3f 60            |    ......?`    |      [64]: "1953-04-26T06:00:00Z" (-526500000) transition_time 0x754-0x75b.7 (8)
0x750|                                    ff ff ff ff|            ....|      [65]: "1953-09-27T05:00:00Z" (-513198000) transition_time 0x75c-0x763.7 (8)
0x760|e1 69 38 50                                    |.i8P            |
0x760|            ff ff ff ff e2 7e 21 60            |    .....~!`    |      [66]: "1954-04-25T06:00:00Z" (-495050400) transition_time 0x764-0x76b.7 (8)
0x760|                                    ff ff ff ff|            ....|      [67]: "1954-09-26T05:00:00Z" (-481748400) transition_time 0x76c-0x773.7 (8)
0x770|e3 49 1a 50                                    |.I.P            |
0x770|            ff ff ff ff e6 47 1f e0            |    .....G..    |      [68]: "1956-04-29T06:00:00Z" (-431546400) transition_time 0x774-0x77b.7 (8)
0x770|                                    ff ff ff ff|            ....|      [69]: "1956-09-30T05:00:00Z" (-418244400) transition_time 0x77c-0x783.7 (8)
0x780|e7 12 18 d0                                    |....            |
0x780|            ff ff ff ff e8 27 01 e0            |    .....'..    |      [70]: "1957-04-28T06:00:00Z" (-400096800) transition_time 0x784-0x78b.7 (8)
0x780|                                    ff ff ff ff|            ....|      [71]: "1957-09-29T05:00:00Z" (-386794800) transition_time 0x78c-0x793.7 (8)
0x790|e8 f1 fa d0                                    |....            |
0x790|            ff ff ff ff ea 06 e3 e0            |    ........    |      [72]: "1958-04-27T06:00:00Z" (-368647200) transition_time 0x794-0x79b.7 (8)
0x790|                                    ff ff ff ff|            ....|      [73]: "1958-09-28T05:00:00Z" (-355345200) transition_time 0x79c-0x7a3.7 (8)
0x7a0|ea d1 dc d0                                    |....            |
0x7a0|            ff ff ff ff eb e6 c5 e0            |    ........    |      [74]: "1959-04-26T06:00:00Z" (-337197600) transition_time 0x7a4-0x7ab.7 (8)
0x7a0|                                    ff ff ff ff|            ....|      [75]: "1959-09-27T05:00:00Z" (-323895600) transition_time 0x7ac-0x7b3.7 (8)
0x7b0|ec b1 be d0                                    |....            |
0x7b0|            ff ff ff ff f1 8f a6 60            |    .......`    |      [76]: "1962-04-29T06:00:00Z" (-242244000) transition_time 0x7b4-0x7bb.7 (8)
0x7b0|                                    ff ff ff ff|            ....|      [77]: "1962-10-28T05:00:00Z" (-226522800) transition_time 0x7bc-0x7c3.7 (8)
0x7c0|f2 7f 89 50                                    |...P            |
0x7c0|            ff ff ff ff f3 6f 88 60            |    .....o.`    |      [78]: "1963-04-28T06:00:00Z" (-210794400) transition_time 0x7c4-0x7cb.7 (8)
0x7c0|                                    ff ff ff ff|            ....|      [79]: "1963-10-27T05:00:00Z" (-195073200) transition_time 0x7cc-0x7d3.7 (8)
0x7d0|f4 5f 6b 50                                    |._kP            |
0x7d0|            ff ff ff ff f5 4f 6a 60            |    .....Oj`    |      [80]: "1964-04-26T06:00:00Z" (-179344800) transition_time 0x7d4-0x7db.7 (8)
0x7d0|                                    ff ff ff ff|            ....|      [81]: "1964-10-25T05:00:00Z" (-163623600) transition_time 0x7dc-0x7e3.7 (8)
0x7e0|f6 3f 4d 50                                    |.?MP            |
0x7e0|            ff ff ff ff f7 2f 4c 60            |    ...../L`    |      [82]: "1965-04-25T06:00:00Z" (-147895200) transition_time 0x7e4-0x7eb.7 (8)
0x7e0|                                    ff ff ff ff|            ....|      [83]: "1965-10-31T05:00:00Z" (-131569200) transition_time 0x7ec-0x7f3.7 (8)
0x7f0|f8 28 69 d0                                    |.(i.            |
0x7f0|            ff ff ff ff f9 0f 2e 60            |    .......`    |      [84]: "1966-04-24T06:00:00Z" (-116445600) transition_time 0x7f4-0x7fb.7 (8)
0x7f0|                                    ff ff ff ff|            ....|      [85]: "1966-10-30T05:00:00Z" (-100119600) transition_time 0x7fc-0x803.7 (8)
0x800|fa 08 4b d0                                    |..K.            |
0x800|            ff ff ff ff fa f8 4a e0            |    ......J.    |      [86]: "1967-04-30T06:00:00Z" (-84391200) transition_time 0x804-0x80b.7 (8)
0x800|                                    ff ff ff ff|            ....|      [87]: "1967-10-29T05:00:00Z" (-68670000) transition_time 0x80c-0x813.7 (8)
0x810|fb e8 2d d0                                    |..-.            |
0x810|            ff ff ff ff fc d8 2c e0            |    ......,.    |      [88]: "1968-04-28T06:00:00Z" (-52941600) transition_time 0x814-0x81b.7 (8)
0x810|                                    ff ff ff ff|            ....|      [89]: "1968-10-27T05:00:00Z" (-37220400) transition_time 0x81c-0x823.7 (8)
0x820|fd c8 0f d0                                    |....            |
0x820|            ff ff ff ff fe b8 0e e0            |    ........    |      [90]: "1969-04-27T06:00:00Z" (-21492000) transition_time 0x824-0x82b.7 (8)
0x820|                                    ff ff ff ff|            ....|      [91]: "1969-10-26T05:00:00Z" (-5770800) transition_time 0x82c-0x833.7 (8)
0x830|ff a7 f1 d0                                    |....            |
0x830|            00 00 00 00 00 97 f0 e0            |    ........    |      [92]: "1970-04-26T06:00:00Z" (9957600) transition_time 0x834-0x83b.7 (8)
0x830|                                    00 00 00 00|            ....|      [93]: "1970-10-25T05:00:00Z" (25678800) transition_time 0x83c-0x843.7 (8)
0x840|01 87 d3 d0                                    |....            |
0x840|            00 00 00 00 02 77 d2 e0            |    .....w..    |      [94]: "1971-04-25T06:00:00Z" (41407200) transition_time 0x844-0x84b.7 (8)
0x840|                                    00 00 00 00|            ....|      [95]: "1971-10-31T05:00:00Z" (57733200) transition_time 0x84c-0x853.7 (8)
0x850|03 70 f0 50                                    |.p.P            |
0x850|            00 00 00 00 04 60 ef 60            |    .....`.`    |      [96]: "1972-04-30T06:00:00Z" (73461600) transition_time 0x854-0x85b.7 (8)
0x850|                                    00 00 00 00|            ....|      [97]: "1972-10-29T05:00:01Z" (89182801) transition_time 0x85c-0x863.7 (8)
0x860|05 50 d2 51                                    |.P.Q            |
0x860|            00 00 00 00 06 40 d1 62            |    .....@.b    |      [98]: "1973-04-29T06:00:02Z" (104911202) transition_time 0x864-0x86b.7 (8)
0x860|                                    00 00 00 00|            ....|      [99]: "1973-10-28T05:00:02Z" (120632402) transition_time 0x86c-0x873.7 (8)
0x870|07 30 b4 52                                    |.0.R            |
0x870|            00 00 00 00 08 20 b3 63            |    ..... .c    |      [100]: "1974-04-28T06:00:03Z" (136360803) transition_time 0x874-0x87b.7 (8)
0x870|                                    00 00 00 00|            ....|      [101]: "1974-10-27T05:00:03Z" (152082003) transition_time 0x87c-0x883.7 (8)
0x880|09 10 96 53                                    |...S            |
0x880|            00 00 00 00 0a 00 95 64            |    .......d    |      [102]: "1975-04-27T06:00:04Z" (167810404) transition_time 0x884-0x88b.7 (8)
0x880|                                    00 00 00 00|            ....|      [103]: "1975-10-26T05:00:04Z" (183531604) transition_time 0x88c-0x893.7 (8)
0x890|0a f0 78 54                                    |..xT            |
0x890|            00 00 00 00 0b e0 77 65            |    ......we    |      [104]: "1976-04-25T06:00:05Z" (199260005) transition_time 0x894-0x89b.7 (8)
0x890|                                    00 00 00 00|            ....|      [105]: "1976-10-31T05:00:05Z" (215586005) transition_time 0x89c-0x8a3.7 (8)
0x8a0|0c d9 94 d5                                    |....            |
0x8a0|            00 00 00 00 0d c0 59 66            |    ......Yf    |      [106]: "1977-04-24T06:00:06Z" (230709606) transition_time 0x8a4-0x8ab.7 (8)
0x8a0|                                    00 00 00 00|            ....|      [107]: "1977-10-30T05:00:06Z" (247035606) transition_time 0x8ac-0x8b3.7 (8)
0x8b0|0e b9 76 d6                                    |..v.            |
0x8b0|            00 00 00 00 0f a9 75 e7            |    ......u.    |      [108]: "1978-04-30T06:00:07Z" (262764007) transition_time 0x8b4-0x8bb.7 (8)
0x8b0|                                    00 00 00 00|            ....|      [109]: "1978-10-29T05:00:07Z" (278485207) transition_time 0x8bc-0x8c3.7 (8)
0x8c0|10 99 58 d7                                    |..X.            |
0x8c0|            00 00 00 00 11 89 57 e8            |    ......W.    |      [110]: "1979-04-29T06:00:08Z" (294213608) transition_time 0x8c4-0x8cb.7 (8)
0x8c0|                                    00 00 00 00|            ....|      [111]: "1979-10-28T05:00:08Z" (309934808) transition_time 0x8cc-0x8d3.7 (8)
0x8d0|12 79 3a d8                                    |.y:.            |
0x8d0|            00 00 00 00 13 69 39 e9            |    .....i9.    |      [112]: "1980-04-27T06:00:09Z" (325663209) transition_time 0x8d4-0x8db.7 (8)
0x8d0|                                    00 00 00 00|            ....|      [113]: "1980-10-26T05:00:09Z" (341384409) transition_time 0x8dc-0x8e3.7 (8)
0x8e0|14 59 1c d9                                    |.Y..            |
0x8e0|            00 00 00 00 15 49 1b e9            |    .....I..    |      [114]: "1981-04-26T06:00:09Z" (357112809) transition_time 0x8e4-0x8eb.7 (8)
0x8e0|                                    00 00 00 00|            ....|      [115]: "1981-10-25T05:00:10Z" (372834010) transition_time 0x8ec-0x8f3.7 (8)
0x8f0|16 38 fe da                                    |.8..            |
0x8f0|            00 00 00 00 17 28 fd ea            |    .....(..    |      [116]: "1982-04-25T06:00:10Z" (388562410) transition_time 0x8f4-0x8fb.7 (8)
0x8f0|                                    00 00 00 00|            ....|      [117]: "1982-10-31T05:00:11Z" (404888411) transition_time 0x8fc-0x903.7 (8)
0x900|18 22 1b 5b                                    |.".[            |
0x900|            00 00 00 00 19 08 df eb            |    ........    |      [118]: "1983-04-24T06:00:11Z" (420012011) transition_time 0x904-0x90b.7 (8)
0x900|                                    00 00 00 00|            ....|      [119]: "1983-10-30T05:00:12Z" (436338012) transition_time 0x90c-0x913.7 (8)
0x910|1a 01 fd 5c                                    |...\            |
0x910|            00 00 00 00 1a f1 fc 6c            |    .......l    |      [120]: "1984-04-29T06:00:12Z" (452066412) transition_time 0x914-0x91b.7 (8)
0x910|                                    00 00 00 00|            ....|      [121]: "1984-10-28T05:00:12Z" (467787612) transition_time 0x91c-0x923.7 (8)
0x920|1b e1 df 5c                                    |...\            |
0x920|            00 00 00 00 1c d1 de 6c            |    .......l    |      [122]: "1985-04-28T06:00:12Z" (483516012) transition_time 0x924-0x92b.7 (8)
0x920|                                    00 00 00 00|            ....|      [123]: "1985-10-27T05:00:13Z" (499237213) transition_time 0x92c-0x933.7 (8)
0x930|1d c1 c1 5d                                    |...]            |
0x930|            00 00 00 00 1e b1 c0 6d            |    .......m    |      [124]: "1986-04-27T06:00:13Z" (514965613) transition_time 0x934-0x93b.7 (8)
0x930|                                    00 00 00 00|            ....|      [125]: "1986-10-26T05:00:13Z" (530686813) transition_time 0x93c-0x943.7 (8)
0x940|1f a1 a3 5d                                    |...]            |
0x940|            00 00 00 00 20 75 f2 ed            |    .... u..    |      [126]: "1987-04-05T06:00:13Z" (544600813) transition_time 0x944-0x94b.7 (8)
0x940|                                    00 00 00 00|            ....|      [127]: "1987-10-25T05:00:13Z" (562136413) transition_time 0x94c-0x953.7 (8)
0x950|21 81 85 5d                                    |!..]            |
0x950|            00 00 00 00 22 55 d4 ee            |    ...."U..    |      [128]: "1988-04-03T06:00:14Z" (576050414) transition_time 0x954-0x95b.7 (8)
0x950|                                    00 00 00 00|            ....|      [129]: "1988-10-30T05:00:14Z" (594190814) transition_time 0x95c-0x963.7 (8)
0x960|23 6a a1 de                                    |#j..            |
0x960|            00 00 00 00 24 35 b6 ee            |    ....$5..    |      [130]: "1989-04-02T06:00:14Z" (607500014) transition_time 0x964-0x96b.7 (8)
0x960|                                    00 00 00 00|            ....|      [131]: "1989-10-29T05:00:14Z" (625640414) transition_time 0x96c-0x973.7 (8)
0x970|25 4a 83 de                                    |%J..            |
0x970|            00 00 00 00 26 15 98 ef            |    ....&...    |      [132]: "1990-04-01T06:00:15Z" (638949615) transition_time 0x974-0x97b.7 (8)
0x970|                                    00 00 00 00|            ....|      [133]: "1990-10-28T05:00:15Z" (657090015) transition_time 0x97c-0x983.7 (8)
0x980|27 2a 65 df                                    |'*e.            |
0x980|            00 00 00 00 27 fe b5 70            |    ....'..p    |      [134]: "1991-04-07T06:00:16Z" (671004016) transition_time 0x984-0x98b.7 (8)
0x980|                                    00 00 00 00|            ....|      [135]: "1991-10-27T05:00:16Z" (688539616) transition_time 0x98c-0x993.7 (8)
0x990|29 0a 47 e0                                    |).G.            |
0x990|            00 00 00 00 29 de 97 70            |    ....)..p    |      [136]: "1992-04-05T06:00:16Z" (702453616) transition_time 0x994-0x99b.7 (8)
0x990|                                    00 00 00 00|            ....|      [137]: "1992-10-25T05:00:17Z" (719989217) transition_time 0x99c-0x9a3.7 (8)
0x9a0|2a ea 29 e1                                    |*.).            |
0x9a0|            00 00 00 00 2b be 79 71            |    ....+.yq    |      [138]: "1993-04-04T06:00:17Z" (733903217) transition_time 0x9a4-0x9ab.7 (8)
0x9a0|                                    00 00 00 00|            ....|      [139]: "1993-10-31T05:00:18Z" (752043618) transition_time 0x9ac-0x9b3.7 (8)
0x9b0|2c d3 46 62                                    |,.Fb            |
0x9b0|            00 00 00 00 2d 9e 5b 72            |    ....-.[r    |      [140]: "1994-04-03T06:00:18Z" (765352818) transition_time 0x9b4-0x9bb.7 (8)
0x9b0|                                    00 00 00 00|            ....|      [141]: "1994-10-30T05:00:19Z" (783493219) transition_time 0x9bc-0x9c3.7 (8)
0x9c0|2e b3 28 63                                    |..(c            |
0x9c0|            00 00 00 00 2f 7e 3d 73            |    ..../~=s    |      [142]: "1995-04-02T06:00:19Z" (796802419) transition_time 0x9c4-0x9cb.7 (8)
0x9c0|                                    00 00 00 00|            ....|      [143]: "1995-10-29T05:00:19Z" (814942819) transition_time 0x9cc-0x9d3.7 (8)
0x9d0|30 93 0a 63                                    |0..c            |
0x9d0|            00 00 00 00 31 67 59 f4            |    ....1gY.    |      [144]: "1996-04-07T06:00:20Z" (828856820) transition_time 0x9d4-0x9db.7 (8)
0x9d0|                                    00 00 00 00|            ....|      [145]: "1996-10-27T05:00:20Z" (846392420) transition_time 0x9dc-0x9e3.7 (8)
0x9e0|32 72 ec 64                                    |2r.d            |
0x9e0|            00 00 00 00 33 47 3b f4            |    ....3G;.    |      [146]: "1997-04-06T06:00:20Z" (860306420) transition_time 0x9e4-0x9eb.7 (8)
0x9e0|                                    00 00 00 00|            ....|      [147]: "1997-10-26T05:00:21Z" (877842021) transition_time 0x9ec-0x9f3.7 (8)
0x9f0|34 52 ce 65                                    |4R.e            |
0x9f0|            00 00 00 00 35 27 1d f5            |    ....5'..    |      [148]: "1998-04-05T06:00:21Z" (891756021) transition_time 0x9f4-0x9fb.7 (8)
0x9f0|                                    00 00 00 00|            ....|      [149]: "1998-10-25T05:00:21Z" (909291621) transition_time 0x9fc-0xa03.7 (8)
0xa00|36 32 b0 65                                    |62.e            |
0xa00|            00 00 00 00 37 06 ff f6            |    ....7...    |      [150]: "1999-04-04T06:00:22Z" (923205622) transition_time 0xa04-0xa0b.7 (8)
0xa00|                                    00 00 00 00|            ....|      [151]: "1999-10-31T05:00:22Z" (941346022) transition_time 0xa0c-0xa13.7 (8)
0xa10|38 1b cc e6                                    |8...            |
0xa10|            00 00 00 00 38 e6 e1 f6            |    ....8...    |      [152]: "2000-04-02T06:00:22Z" (954655222) transition_time 0xa14-0xa1b.7 (8)
0xa10|                                    00 00 00 00|            ....|      [153]: "2000-10-29T05:00:22Z" (972795622) transition_time 0xa1c-0xa23.7 (8)
0xa20|39 fb ae e6                                    |9...            |
0xa20|            00 00 00 00 3a c6 c3 f6            |    ....:...    |      [154]: "2001-04-01T06:00:22Z" (986104822) transition_time 0xa24-0xa2b.7 (8)
0xa20|                                    00 00 00 00|            ....|      [155]: "2001-10-28T05:00:22Z" (1004245222) transition_time 0xa2c-0xa33.7 (8)
0xa30|3b db 90 e6                                    |;...            |
0xa30|            00 00 00 00 3c af e0 76            |    ....<..v    |      [156]: "2002-04-07T06:00:22Z" (1018159222) transition_time 0xa34-0xa3b.7 (8)
0xa30|                                    00 00 00 00|            ....|      [157]: "2002-10-27T05:00:22Z" (1035694822) transition_time 0xa3c-0xa43.7 (8)
0xa40|3d bb 72 e6                                    |=.r.            |
0xa40|            00 00 00 00 3e 8f c2 76            |    ....>..v    |      [158]: "2003-04-06T06:00:22Z" (1049608822) transition_time 0xa44-0xa4b.7 (8)
0xa40|                                    00 00 00 00|            ....|      [159]: "2003-10-26T05:00:22Z" (1067144422) transition_time 0xa4c-0xa53.7 (8)
0xa50|3f 9b 54 e6                                    |?.T.            |
0xa50|            00 00 00 00 40 6f a4 76            |    ....@o.v    |      [160]: "2004-04-04T06:00:22Z" (1081058422) transition_time 0xa54-0xa5b.7 (8)
0xa50|                                    00 00 00 00|            ....|      [161]: "2004-10-31T05:00:22Z" (1099198822) transition_time 0xa5c-0xa63.7 (8)
0xa60|41 84 71 66                                    |A.qf            |
0xa60|            00 00 00 00 42 4f 86 76            |    ....BO.v    |      [162]: "2005-04-03T06:00:22Z" (1112508022) transition_time 0xa64-0xa6b.7 (8)
0xa60|                                    00 00 00 00|            ....|      [163]: "2005-10-30T05:00:22Z" (1130648422) transition_time 0xa6c-0xa73.7 (8)
0xa70|43 64 53 66                                    |CdSf            |
0xa70|            00 00 00 00 44 2f 68 77            |    ....D/hw    |      [164]: "2006-04-02T06:00:23Z" (1143957623) transition_time 0xa74-0xa7b.7 (8)
0xa70|                                    00 00 00 00|            ....|      [165]: "2006-10-29T05:00:23Z" (1162098023) transition_time 0xa7c-0xa83.7 (8)
0xa80|45 44 35 67                                    |ED5g            |
0xa80|            00 00 00 00 45 f3 9a f7            |    ....E...    |      [166]: "2007-03-11T06:00:23Z" (1173592823) transition_time 0xa84-0xa8b.7 (8)
0xa80|                                    00 00 00 00|            ....|      [167]: "2007-11-04T05:00:23Z" (1194152423) transition_time 0xa8c-0xa93.7 (8)
0xa90|47 2d 51 e7                                    |G-Q.            |
0xa90|            00 00 00 00 47 d3 7c f7            |    ....G.|.    |      [168]: "2008-03-09T06:00:23Z" (1205042423) transition_time 0xa94-0xa9b.7 (8)
0xa90|                                    00 00 00 00|            ....|      [169]: "2008-11-02T05:00:23Z" (1225602023) transition_time 0xa9c-0xaa3.7 (8)
0xaa0|49 0d 33 e7                                    |I.3.            |
0xaa0|            00 00 00 00 49 b3 5e f8            |    ....I.^.    |      [170]: "2009-03-08T06:00:24Z" (1236492024) transition_time 0xaa4-0xaab.7 (8)
0xaa0|                                    00 00 00 00|            ....|      [171]: "2009-11-01T05:00:24Z" (1257051624) transition_time 0xaac-0xab3.7 (8)
0xab0|4a ed 15 e8                                    |J...            |
0xab0|            00 00 00 00 4b 9c 7b 78            |    ....K.{x    |      [172]: "2010-03-14T06:00:24Z" (1268546424) transition_time 0xab4-0xabb.7 (8)
0xab0|                                    00 00 00 00|            ....|      [173]: "2010-11-07T05:00:24Z" (1289106024) transition_time 0xabc-0xac3.7 (8)
0xac0|4c d6 32 68                                    |L.2h            |
0xac0|            00 00 00 00 4d 7c 5d 78            |    ....M|]x    |      [174]: "2011-03-13T06:00:24Z" (1299996024) transition_time 0xac4-0xacb.7 (8)
0xac0|                                    00 00 00 00|            ....|      [175]: "2011-11-06T05:00:24Z" (1320555624) transition_time 0xacc-0xad3.7 (8)
0xad0|4e b6 14 68                                    |N..h            |
0xad0|            00 00 00 00 4f 5c 3f 78            |    ....O\?x    |      [176]: "2012-03-11T06:00:24Z" (1331445624) transition_time 0xad4-0xadb.7 (8)
0xad0|                                    00 00 00 00|            ....|      [177]: "2012-11-04T05:00:25Z" (1352005225) transition_time 0xadc-0xae3.7 (8)
0xae0|50 95 f6 69                                    |P..i            |
0xae0|            00 00 00 00 51 3c 21 79            |    ....Q<!y    |      [178]: "2013-03-10T06:00:25Z" (1362895225) transition_time 0xae4-0xaeb.7 (8)
0xae0|                                    00 00 00 00|            ....|      [179]: "2013-11-03T05:00:25Z" (1383454825) transition_time 0xaec-0xaf3.7 (8)
0xaf0|52 75 d8 69                                    |Ru.i            |
0xaf0|            00 00 00 00 53 1c 03 79            |    ....S..y    |      [180]: "2014-03-09T06:00:25Z" (1394344825) transition_time 0xaf4-0xafb.7 (8)
0xaf0|                                    00 00 00 00|            ....|      [181]: "2014-11-02T05:00:25Z" (1414904425) transition_time 0xafc-0xb03.7 (8)
0xb00|54 55 ba 69                                    |TU.i            |
0xb00|            00 00 00 00 54 fb e5 79            |    ....T..y    |      [182]: "2015-03-08T06:00:25Z" (1425794425) transition_time 0xb04-0xb0b.7 (8)
0xb00|                                    00 00 00 00|            ....|      [183]: "2015-11-01T05:00:26Z" (1446354026) transition_time 0xb0c-0xb13.7 (8)
0xb10|56 35 9c 6a                                    |V5.j            |
0xb10|            00 00 00 00 56 e5 01 fa            |    ....V...    |      [184]: "2016-03-13T06:00:26Z" (1457848826) transition_time 0xb14-0xb1b.7 (8)
0xb10|                                    00 00 00 00|            ....|      [185]: "2016-11-06T05:00:26Z" (1478408426) transition_time 0xb1c-0xb23.7 (8)
0xb20|58 1e b8 ea                                    |X...            |
0xb20|            00 00 00 00 58 c4 e3 fb            |    ....X...    |      [186]: "2017-03-12T06:00:27Z" (1489298427) transition_time 0xb24-0xb2b.7 (8)
0xb20|                                    00 00 00 00|            ....|      [187]: "2017-11-05T05:00:27Z" (1509858027) transition_time 0xb2c-0xb33.7 (8)
0xb30|59 fe 9a eb                                    |Y...            |
0xb30|            00 00 00 00 5a a4 c5 fb            |    ....Z...    |      [188]: "2018-03-11T06:00:27Z" (1520748027) transition_time 0xb34-0xb3b.7 (8)
0xb30|                                    00 00 00 00|            ....|      [189]: "2018-11-04T05:00:27Z" (1541307627) transition_time 0xb3c-0xb43.7 (8)
0xb40|5b de 7c eb                                    |[.|.            |
0xb40|            00 00 00 00 5c 84 a7 fb            |    ....\...    |      [190]: "2019-03-10T06:00:27Z" (1552197627) transition_time 0xb44-0xb4b.7 (8)
0xb40|                                    00 00 00 00|            ....|      [191]: "2019-11-03T05:00:27Z" (1572757227) transition_time 0xb4c-0xb53.7 (8)
0xb50|5d be 5e eb                                    |].^.            |
0xb50|            00 00 00 00 5e 64 89 fb            |    ....^d..    |      [192]: "2020-03-08T06:00:27Z" (1583647227) transition_time 0xb54-0xb5b.7 (8)
0xb50|                                    00 00 00 00|            ....|      [193]: "2020-11-01T05:00:27Z" (1604206827) transition_time 0xb5c-0xb63.7 (8)
0xb60|5f 9e 40 eb                                    |_.@.            |
0xb60|            00 00 00 00 60 4d a6 7b            |    ....`M.{    |      [194]: "2021-03-14T06:00:27Z" (1615701627) transition_time 0xb64-0xb6b.7 (8)
0xb60|                                    00 00 00 00|            ....|      [195]: "2021-11-07T05:00:27Z" (1636261227) transition_time 0xb6c-0xb73.7 (8)
0xb70|61 87 5d 6b                                    |a.]k            |
0xb70|            00 00 00 00 62 2d 88 7b            |    ....b-.{    |      [196]: "2022-03-13T06:00:27Z" (1647151227) transition_time 0xb74-0xb7b.7 (8)
0xb70|                                    00 00 00 00|            ....|      [197]: "2022-11-06T05:00:27Z" (1667710827) transition_time 0xb7c-0xb83.7 (8)
0xb80|63 67 3f 6b                                    |cg?k            |
0xb80|            00 00 00 00 64 0d 6a 7b            |    ....d.j{    |      [198]: "2023-03-12T06:00:27Z" (1678600827) transition_time 0xb84-0xb8b.7 (8)
0xb80|                                    00 00 00 00|            ....|      [199]: "2023-06-28T00:00:27Z" (1687910427) transition_time 0xb8c-0xb93.7 (8)
0xb90|64 9b 78 1b                                    |d.x.            |
     |                                               |                |    transition_types[0:200]: 0xb94-0xc5b.7 (200)
0xb90|            02                                 |    .           |      [0]: 2 transition_type 0xb94-0xb94.7 (1)
0xb90|               01                              |     .          |      [1]: 1 transition_type 0xb95-0xb95.7 (1)
0xb90|                  02                           |      .         |      [2]: 2 transition_type 0xb96-0xb96.7 (1)
0xb90|                     01                        |       .        |      [3]: 1 transition_type 0xb97-0xb97.7 (1)
0xb90|                        02                     |        .       |      [4]: 2 transition_type 0xb98-0xb98.7 (1)
0xb90|                           01                  |         .      |      [5]: 1 transition_type 0xb99-0xb99.7 (1)
0xb90|                              02               |          .     |      [6]: 2 transition_type 0xb9a-0xb9a.7 (1)
0xb90|                                 01            |           .    |      [7]: 1 transition_type 0xb9b-0xb9b.7 (1)
0xb90|                                    02         |            .   |      [8]: 2 transition_type 0xb9c-0xb9c.7 (1)
0xb90|                                       01      |             .  |      [9]: 1 transition_type 0xb9d-0xb9d.7 (1)
0xb90|                                          02   |              . |      [10]: 2 transition_type 0xb9e-0xb9e.7 (1)
0xb90|                                             01|               .|      [11]: 1 transition_type 0xb9f-0xb9f.7 (1)
0xba0|02                                             |.               |      [12]: 2 transition_type 0xba0-0xba0.7 (1)
0xba0|   01                                          | .              |      [13]: 1 transition_type 0xba1-0xba1.7 (1)
0xba0|      02                                       |  .             |      [14]: 2 transition_type 0xba2-0xba2.7 (1)
0xba0|         01                                    |   .            |      [15]: 1 transition_type 0xba3-0xba3.7 (1)
0xba0|            02                                 |    .           |      [16]: 2 transition_type 0xba4-0xba4.7 (1)
0xba0|               01                              |     .          |      [17]: 1 transition_type 0xba5-0xba5.7 (1)
0xba0|                  02                           |      .         |      [18]: 2 transition_type 0xba6-0xba6.7 (1)
0xba0|                     01                        |       .        |      [19]: 1 transition_type 0xba7-0xba7.7 (1)
0xba0|                        02                     |        .       |      [20]: 2 transition_type 0xba8-0xba8.7 (1)
0xba0|                           01                  |         .      |      [21]: 1 transition_type 0xba9-0xba9.7 (1)
0xba0|                              02               |          .     |      [22]: 2 transition_type 0xbaa-0xbaa.7 (1)
0xba0|                                 01            |           .    |      [23]: 1 transition_type 0xbab-0xbab.7 (1)
0xba0|                                    02         |            .   |      [24]: 2 transition_type 0xbac-0xbac.7 (1)
0xba0|                                       01      |             .  |      [25]: 1 transition_type 0xbad-0xbad.7 (1)
0xba0|                                          02   |              . |      [26]: 2 transition_type 0xbae-0xbae.7 (1)
0xba0|                                             01|               .|      [27]: 1 transition_type 0xbaf-0xbaf.7 (1)
0xbb0|02                                             |.               |      [28]: 2 transition_type 0xbb0-0xbb0.7 (1)
0xbb0|   01                                          | .              |      [29]: 1 transition_type 0xbb1-0xbb1.7 (1)
0xbb0|      02                                       |  .             |      [30]: 2 transition_type 0xbb2-0xbb2.7 (1)
0xbb0|         01                                    |   .            |      [31]: 1 transition_type 0xbb3-0xbb3.7 (1)
0xbb0|            02                                 |    .           |      [32]: 2 transition_type 0xbb4-0xbb4.7 (1)
0xbb0|               01                              |     .          |      [33]: 1 transition_type 0xbb5-0xbb5.7 (1)
0xbb0|                  02                           |      .         |      [34]: 2 transition_type 0xbb6-0xbb6.7 (1)
0xbb0|                     01                        |       .        |      [35]: 1 transition_type 0xbb7-0xbb7.7 (1)
0xbb0|                        02                     |        .       |      [36]: 2 transition_type 0xbb8-0xbb8.7 (1)
0xbb0|                           01                  |         .      |      [37]: 1 transition_type 0xbb9-0xbb9.7 (1)
0xbb0|                              02               |          .     |      [38]: 2 transition_type 0xbba-0xbba.7 (1)
0xbb0|                                 01            |           .    |      [39]: 1 transition_type 0xbbb-0xbbb.7 (1)
0xbb0|                                    02         |            .   |      [40]: 2 transition_type 0xbbc-0xbbc.7 (1)
0xbb0|                                       01      |             .  |      [41]: 1 transition_type 0xbbd-0xbbd.7 (1)
0xbb0|                                          02   |              . |      [42]: 2 transition_type 0xbbe-0xbbe.7 (1)
0xbb0|                                             01|               .|      [43]: 1 transition_type 0xbbf-0xbbf.7 (1)
0xbc0|02                                             |.               |      [44]: 2 transition_type 0xbc0-0xbc0.7 (1)
0xbc0|   01                                          | .              |      [45]: 1 transition_type 0xbc1-0xbc1.7 (1)
0xbc0|      02                                       |  .             |      [46]: 2 transition_type 0xbc2-0xbc2.7 (1)
0xbc0|         01                                    |   .            |      [47]: 1 transition_type 0xbc3-0xbc3.7 (1)
0xbc0|            02                                 |    .           |      [48]: 2 transition_type 0xbc4-0xbc4.7 (1)
0xbc0|               03                              |     .          |      [49]: 3 transition_type 0xbc5-0xbc5.7 (1)
0xbc0|                  04                           |      .         |      [50]: 4 transition_type 0xbc6-0xbc6.7 (1)
0xbc0|                     02                        |       .        |      [51]: 2 transition_type 0xbc7-0xbc7.7 (1)
0xbc0|                        01                     |        .       |      [52]: 1 transition_type 0xbc8-0xbc8.7 (1)
0xbc0|                           02                  |         .      |      [53]: 2 transition_type 0xbc9-0xbc9.7 (1)
0xbc0|                              01               |          .     |      [54]: 1 transition_type 0xbca-0xbca.7 (1)
0xbc0|                                 02            |           .    |      [55]: 2 transition_type 0xbcb-0xbcb.7 (1)
0xbc0|                                    01         |            .   |      [56]: 1 transition_type 0xbcc-0xbcc.7 (1)
0xbc0|                                       02      |             .  |      [57]: 2 transition_type 0xbcd-0xbcd.7 (1)
0xbc0|                                          01   |              . |      [58]: 1 transition_type 0xbce-0xbce.7 (1)
0xbc0|                                             02|               .|      [59]: 2 transition_type 0xbcf-0xbcf.7 (1)
0xbd0|01                                             |.               |      [60]: 1 transition_type 0xbd0-0xbd0.7 (1)
0xbd0|   02                                          | .              |      [61]: 2 transition_type 0xbd1-0xbd1.7 (1)
0xbd0|      01                                       |  .             |      [62]: 1 transition_type 0xbd2-0xbd2.7 (1)
0xbd0|         02                                    |   .            |      [63]: 2 transition_type 0xbd3-0xbd3.7 (1)
0xbd0|            01                                 |    .           |      [64]: 1 transition_type 0xbd4-0xbd4.7 (1)
0xbd0|               02                              |     .          |      [65]: 2 transition_type 0xbd5-0xbd5.7 (1)
0xbd0|                  01                           |      .         |      [66]: 1 transition_type 0xbd6-0xbd6.7 (1)
0xbd0|                     02                        |       .        |      [67]: 2 transition_type 0xbd7-0xbd7.7 (1)
0xbd0|                        01                     |        .       |      [68]: 1 transition_type 0xbd8-0xbd8.7 (1)
0xbd0|                           02                  |         .      |      [69]: 2 transition_type 0xbd9-0xbd9.7 (1)
0xbd0|                              01               |          .     |      [70]: 1 transition_type 0xbda-0xbda.7 (1)
0xbd0|                                 02            |           .    |      [71]: 2 transition_type 0xbdb-0xbdb.7 (1)
0xbd0|                                    01         |            .   |      [72]: 1 transition_type 0xbdc-0xbdc.7 (1)
0xbd0|                                       02      |             .  |      [73]: 2 transition_type 0xbdd-0xbdd.7 (1)
0xbd0|                                          01   |              . |      [74]: 1 transition_type 0xbde-0xbde.7 (1)
0xbd0|                                             02|               .|      [75]: 2 transition_type 0xbdf-0xbdf.7 (1)
0xbe0|01                                             |.               |      [76]: 1 transition_type 0xbe0-0xbe0.7 (1)
0xbe0|   02                                          | .              |      [77]: 2 transition_type 0xbe1-0xbe1.7 (1)
0xbe0|      01                                       |  .             |      [78]: 1 transition_type 0xbe2-0xbe2.7 (1)
0xbe0|         02                                    |   .            |      [79]: 2 transition_type 0xbe3-0xbe3.7 (1)
0xbe0|            01                                 |    .           |      [80]: 1 transition_type 0xbe4-0xbe4.7 (1)
0xbe0|               02                              |     .          |      [81]: 2 transition_type 0xbe5-0xbe5.7 (1)
0xbe0|                  01                           |      .         |      [82]: 1 transition_type 0xbe6-0xbe6.7 (1)
0xbe0|                     02                        |       .        |      [83]: 2 transition_type 0xbe7-0xbe7.7 (1)
0xbe0|                        01                     |        .       |      [84]: 1 transition_type 0xbe8-0xbe8.7 (1)
0xbe0|                           02                  |         .      |      [85]: 2 transition_type 0xbe9-0xbe9.7 (1)
0xbe0|                              01               |          .     |      [86]: 1 transition_type 0xbea-0xbea.7 (1)
0xbe0|                                 02            |           .    |      [87]: 2 transition_type 0xbeb-0xbeb.7 (1)
0xbe0|                                    01         |            .   |      [88]: 1 transition_type 0xbec-0xbec.7 (1)
0xbe0|                                       02      |             .  |      [89]: 2 transition_type 0xbed-0xbed.7 (1)
0xbe0|                                          01   |              . |      [90]: 1 transition_type 0xbee-0xbee.7 (1)
0xbe0|                                             02|               .|      [91]: 2 transition_type 0xbef-0xbef.7 (1)
0xbf0|01                                             |.               |      [92]: 1 transition_type 0xbf0-0xbf0.7 (1)
0xbf0|   02                                          | .              |      [93]: 2 transition_type 0xbf1-0xbf1.7 (1)
0xbf0|      01                                       |  .             |      [94]: 1 transition_type 0xbf2-0xbf2.7 (1)
0xbf0|         02                                    |   .            |      [95]: 2 transition_type 0xbf3-0xbf3.7 (1)
0xbf0|            01                                 |    .           |      [96]: 1 transition_type 0xbf4-0xbf4.7 (1)
0xbf0|               02                              |     .          |      [97]: 2 transition_type 0xbf5-0xbf5.7 (1)
0xbf0|                  01                           |      .         |      [98]: 1 transition_type 0xbf6-0xbf6.7 (1)
0xbf0|                     02                        |       .        |      [99]: 2 transition_type 0xbf7-0xbf7.7 (1)
0xbf0|                        01                     |        .       |      [100]: 1 transition_type 0xbf8-0xbf8.7 (1)
0xbf0|                           02                  |         .      |      [101]: 2 transition_type 0xbf9-0xbf9.7 (1)
0xbf0|                              01               |          .     |      [102]: 1 transition_type 0xbfa-0xbfa.7 (1)
0xbf0|                                 02            |           .    |      [103]: 2 transition_type 0xbfb-0xbfb.7 (1)
0xbf0|                                    01         |            .   |      [104]: 1 transition_type 0xbfc-0xbfc.7 (1)
0xbf0|                                       02      |             .  |      [105]: 2 transition_type 0xbfd-0xbfd.7 (1)
0xbf0|                                          01   |              . |      [106]: 1 transition_type 0xbfe-0xbfe.7 (1)
0xbf0|                                             02|               .|      [107]: 2 transition_type 0xbff-0xbff.7 (1)
0xc00|01                                             |.               |      [108]: 1 transition_type 0xc00-0xc00.7 (1)
0xc00|   02                                          | .              |      [109]: 2 transition_type 0xc01-0xc01.7 (1)
0xc00|      01                                       |  .             |      [110]: 1 transition_type 0xc02-0xc02.7 (1)
0xc00|         02                                    |   .            |      [111]: 2 transition_type 0xc03-0xc03.7 (1)
0xc00|            01                                 |    .           |      [112]: 1 transition_type 0xc04-0xc04.7 (1)
0xc00|               02                              |     .          |      [113]: 2 transition_type 0xc05-0xc05.7 (1)
0xc00|                  01                           |      .         |      [114]: 1 transition_type 0xc06-0xc06.7 (1)
0xc00|                     02                        |       .        |      [115]: 2 transition_type 0xc07-0xc07.7 (1)
0xc00|                        01                     |        .       |      [116]: 1 transition_type 0xc08-0xc08.7 (1)
0xc00|                           02                  |         .      |      [117]: 2 transition_type 0xc09-0xc09.7 (1)
0xc00|                              01               |          .     |      [118]: 1 transition_type 0xc0a-0xc0a.7 (1)
0xc00|                                 02            |           .    |      [119]: 2 transition_type 0xc0b-0xc0b.7 (1)
0xc00|                                    01         |            .   |      [120]: 1 transition_type 0xc0c-0xc0c.7 (1)
0xc00|                                       02      |             .  |      [121]: 2 transition_type 0xc0d-0xc0d.7 (1)
0xc00|                                          01   |              . |      [122]: 1 transition_type 0xc0e-0xc0e.7 (1)
0xc00|                                             02|               .|      [123]: 2 transition_type 0xc0f-0xc0f.7 (1)
0xc10|01                                             |.               |      [124]: 1 transition_type 0xc10-0xc10.7 (1)
0xc10|   02                                          | .              |      [125]: 2 transition_type 0xc11-0xc11.7 (1)
0xc10|      01                                       |  .             |      [126]: 1 transition_type 0xc12-0xc12.7 (1)
0xc10|         02                                    |   .            |      [127]: 2 transition_type 0xc13-0xc13.7 (1)
0xc10|            01                                 |    .           |      [128]: 1 transition_type 0xc14-0xc14.7 (1)
0xc10|               02                              |     .          |      [129]: 2 transition_type 0xc15-0xc15.7 (1)
0xc10|                  01                           |      .         |      [130]: 1 transition_type 0xc16-0xc16.7 (1)
0xc10|                     02                        |       .        |      [131]: 2 transition_type 0xc17-0xc17.7 (1)
0xc10|                        01                     |        .       |      [132]: 1 transition_type 0xc18-0xc18.7 (1)
0xc10|                           02                  |         .      |      [133]: 2 transition_type 0xc19-0xc19.7 (1)
0xc10|                              01               |          .     |      [134]: 1 transition_type 0xc1a-0xc1a.7 (1)
0xc10|                                 02            |           .    |      [135]: 2 transition_type 0xc1b-0xc1b.7 (1)
0xc10|                                    01         |            .   |      [136]: 1 transition_type 0xc1c-0xc1c.7 (1)
0xc10|                                       02      |             .  |      [137]: 2 transition_type 0xc1d-0xc1d.7 (1)
0xc10|                                          01   |              . |      [138]: 1 transition_type 0xc1e-0xc1e.7 (1)
0xc10|                                             02|               .|      [139]: 2 transition_type 0xc1f-0xc1f.7 (1)
0xc20|01                                             |.               |      [140]: 1 transition_type 0xc20-0xc20.7 (1)
0xc20|   02                                          | .              |      [141]: 2 transition_type 0xc21-0xc21.7 (1)
0xc20|      01                                       |  .             |      [142]: 1 transition_type 0xc22-0xc22.7 (1)
0xc20|         02                                    |   .            |      [143]: 2 transition_type 0xc23-0xc23.7 (1)
0xc20|            01                                 |    .           |      [144]: 1 transition_type 0xc24-0xc24.7 (1)
0xc20|               02                              |     .          |      [145]: 2 transition_type 0xc25-0xc25.7 (1)
0xc20|                  01                           |      .         |      [146]: 1 transition_type 0xc26-0xc26.7 (1)
0xc20|                     02                        |       .        |      [147]: 2 transition_type 0xc27-0xc27.7 (1)
0xc20|                        01                     |        .       |      [148]: 1 transition_type 0xc28-0xc28.7 (1)
0xc20|                           02                  |         .      |      [149]: 2 transition_type 0xc29-0xc29.7 (1)
0xc20|                              01               |          .     |      [150]: 1 transition_type 0xc2a-0xc2a.7 (1)
0xc20|                                 02            |           .    |      [151]: 2 transition_type 0xc2b-0xc2b.7 (1)
0xc20|                                    01         |            .   |      [152]: 1 transition_type 0xc2c-0xc2c.7 (1)
0xc20|                                       02      |             .  |      [153]: 2 transition_type 0xc2d-0xc2d.7 (1)
0xc20|                                          01   |              . |      [154]: 1 transition_type 0xc2e-0xc2e.7 (1)
0xc20|                                             02|               .|      [155]: 2 transition_type 0xc2f-0xc2f.7 (1)
0xc30|01                                             |.               |      [156]: 1 transition_type 0xc30-0xc30.7 (1)
0xc30|   02                                          | .              |      [157]: 2 transition_type 0xc31-0xc31.7 (1)
0xc30|      01                                       |  .             |      [158]: 1 transition_type 0xc32-0xc32.7 (1)
0xc30|         02                                    |   .            |      [159]: 2 transition_type 0xc33-0xc33.7 (1)
0xc30|            01                                 |    .           |      [160]: 1 transition_type 0xc34-0xc34.7 (1)
0xc30|               02                              |     .          |      [161]: 2 transition_type 0xc35-0xc35.7 (1)
0xc30|                  01                           |      .         |      [162]: 1 transition_type 0xc36-0xc36.7 (1)
0xc30|                     02                        |       .        |      [163]: 2 transition_type 0xc37-0xc37.7 (1)
0xc30|                        01                     |        .       |      [164]: 1 transition_type 0xc38-0xc38.7 (1)
0xc30|                           02                  |         .      |      [165]: 2 transition_type 0xc39-0xc39.7 (1)
0xc30|                              01               |          .     |      [166]: 1 transition_type 0xc3a-0xc3a.7 (1)
0xc30|                                 02            |           .    |      [167]: 2 transition_type 0xc3b-0xc3b.7 (1)
0xc30|                                    01         |            .   |      [168]: 1 transition_type 0xc3c-0xc3c.7 (1)
0xc30|                                       02      |             .  |      [169]: 2 transition_type 0xc3d-0xc3d.7 (1)
0xc30|                                          01   |              . |      [170]: 1 transition_type 0xc3e-0xc3e.7 (1)
0xc30|                                             02|               .|      [171]: 2 transition_type 0xc3f-0xc3f.7 (1)
0xc40|01                                             |.               |      [172]: 1 transition_type 0xc40-0xc40.7 (1)
0xc40|   02                                          | .              |      [173]: 2 transition_type 0xc41-0xc41.7 (1)
0xc40|      01                                       |  .             |      [174]: 1 transition_type 0xc42-0xc42.7 (1)
0xc40|         02                                    |   .            |      [175]: 2 transition_type 0xc43-0xc43.7 (1)
0xc40|            01                                 |    .           |      [176]: 1 transition_type 0xc44-0xc44.7 (1)
0xc40|               02                              |     .          |      [177]: 2 transition_type 0xc45-0xc45.7 (1)
0xc40|                  01                           |      .         |      [178]: 1 transition_type 0xc46-0xc46.7 (1)
0xc40|                     02                        |       .        |      [179]: 2 transition_type 0xc47-0xc47.7 (1)
0xc40|                        01                     |        .       |      [180]: 1 transition_type 0xc48-0xc48.7 (1)
0xc40|                           02                  |         .      |      [181]: 2 transition_type 0xc49-0xc49.7 (1)
0xc40|                              01               |          .     |      [182]: 1 transition_type 0xc4a-0xc4a.7 (1)
0xc40|                                 02            |           .    |      [183]: 2 transition_type 0xc4b-0xc4b.7 (1)
0xc40|                                    01         |            .   |      [184]: 1 transition_type 0xc4c-0xc4c.7 (1)
0xc40|                                       02      |             .  |      [185]: 2 transition_type 0xc4d-0xc4d.7 (1)
0xc40|                                          01   |              . |      [186]: 1 transition_type 0xc4e-0xc4e.7 (1)
0xc40|                                             02|               .|      [187]: 2 transition_type 0xc4f-0xc4f.7 (1)
0xc50|01                                             |.               |      [188]: 1 transition_type 0xc50-0xc50.7 (1)
0xc50|   02                                          | .              |      [189]: 2 transition_type 0xc51-0xc51.7 (1)
0xc50|      01                                       |  .             |      [190]: 1 transition_type 0xc52-0xc52.7 (1)
0xc50|         02                                    |   .            |      [191]: 2 transition_type 0xc53-0xc53.7 (1)
0xc50|            01                                 |    .           |      [192]: 1 transition_type 0xc54-0xc54.7 (1)
0xc50|               02                              |     .          |      [193]: 2 transition_type 0xc55-0xc55.7 (1)
0xc50|                  01                           |      .         |      [194]: 1 transition_type 0xc56-0xc56.7 (1)
0xc50|                     02                        |       .        |      [195]: 2 transition_type 0xc57-0xc57.7 (1)
0xc50|                        01                     |        .       |      [196]: 1 transition_type 0xc58-0xc58.7 (1)
0xc50|                           02                  |         .      |      [197]: 2 transition_type 0xc59-0xc59.7 (1)
0xc50|                              01               |          .     |      [198]: 1 transition_type 0xc5a-0xc5a.7 (1)
0xc50|                                 01            |           .    |      [199]: 1 transition_type 0xc5b-0xc5b.7 (1)
     |                                               |                |    local_time_type_records[0:5]: 0xc5c-0xc79.7 (30)
     |                                               |                |      [0]{}: local_time_type 0xc5c-0xc61.7 (6)
0xc50|                                    ff ff c4 60|            ...`|        utoff: -15264 (valid) 0xc5c-0xc5f.7 (4)
0xc60|00                                             |.               |        dst: 0 (valid) 0xc60-0xc60.7 (1)
0xc60|   00                                          | .              |        idx: 0 (valid) 0xc61-0xc61.7 (1)
     |                                               |                |      [1]{}: local_time_type 0xc62-0xc67.7 (6)
0xc60|      ff ff d5 d0                              |  ....          |        utoff: -10800 (valid) 0xc62-0xc65.7 (4)
0xc60|                  01                           |      .         |        dst: 1 (valid) 0xc66-0xc66.7 (1)
0xc60|                     04                        |       .        |        idx: 4 (valid) 0xc67-0xc67.7 (1)
     |                                               |                |      [2]{}: local_time_type 0xc68-0xc6d.7 (6)
0xc60|                        ff ff c7 c0            |        ....    |        utoff: -14400 (valid) 0xc68-0xc6b.7 (4)
0xc60|                                    00         |            .   |        dst: 0 (valid) 0xc6c-0xc6c.7 (1)
0xc60|                                       08      |             .  |        idx: 8 (valid) 0xc6d-0xc6d.7 (1)
     |                                               |                |      [3]{}: local_time_type 0xc6e-0xc73.7 (6)
0xc60|                                          ff ff|              ..|        utoff: -10800 (valid) 0xc6e-0xc71.7 (4)
0xc70|d5 d0                                          |..              |
0xc70|      01                                       |  .             |        dst: 1 (valid) 0xc72-0xc72.7 (1)
0xc70|         0c                                    |   .            |        idx: 12 (valid) 0xc73-0xc73.7 (1)
     |                                               |                |      [4]{}: local_time_type 0xc74-0xc79.7 (6)
0xc70|            ff ff d5 d0                        |    ....        |        utoff: -10800 (valid) 0xc74-0xc77.7 (4)
0xc70|                        01                     |        .       |        dst: 1 (valid) 0xc78-0xc78.7 (1)
0xc70|                           10                  |         .      |        idx: 16 (valid) 0xc79-0xc79.7 (1)
     |                                               |                |    time_zone_designations[0:5]: 0xc7a-0xc8d.7 (20)
0xc70|                              4c 4d 54 00      |          LMT.  |      [0]: "LMT" time_zone_designation 0xc7a-0xc7d.7 (4)
0xc70|                                          41 44|              AD|      [1]: "ADT" time_zone_designation 0xc7e-0xc81.7 (4)
0xc80|54 00                                          |T.              |
0xc80|      41 53 54 00                              |  AST.          |      [2]: "AST" time_zone_designation 0xc82-0xc85.7 (4)
0xc80|                  41 57 54 00                  |      AWT.      |      [3]: "AWT" time_zone_designation 0xc86-0xc89.7 (4)
0xc80|                              41 50 54 00      |          APT.  |      [4]: "APT" time_zone_designation 0xc8a-0xc8d.7 (4)
     |                                               |                |    leap_second_records[0:27]: 0xc8e-0xdd1.7 (324)
     |                                               |                |      [0]{}: leap_second_record 0xc8e-0xc99.7 (12)
0xc80|                                          00 00|              ..|        occur: "1972-07-01T00:00:00Z" (78796800) 0xc8e-0xc95.7 (8)
0xc90|00 00 04 b2 58 00                              |....X.          |
0xc90|                  00 00 00 01                  |      ....      |        corr: 1 0xc96-0xc99.7 (4)
     |                                               |                |      [1]{}: leap_second_record 0xc9a-0xca5.7 (12)
0xc90|                              00 00 00 00 05 a4|          ......|        occur: "1973-01-01T00:00:01Z" (94694401) 0xc9a-0xca1.7 (8)
0xca0|ec 01                                          |..              |
0xca0|      00 00 00 02                              |  ....          |        corr: 2 0xca2-0xca5.7 (4)
     |                                               |                |      [2]{}: leap_second_record 0xca6-0xcb1.7 (12)
0xca0|                  00 00 00 00 07 86 1f 82      |      ........  |        occur: "1974-01-01T00:00:02Z" (126230402) 0xca6-0xcad.7 (8)
0xca0|                                          00 00|              ..|        corr: 3 0xcae-0xcb1.7 (4)
0xcb0|00 03                                          |..              |
     |                                               |                |      [3]{}: leap_second_record 0xcb2-0xcbd.7 (12)
0xcb0|      00 00 00 00 09 67 53 03                  |  .....gS.      |        occur: "1975-01-01T00:00:03Z" (157766403) 0xcb2-0xcb9.7 (8)
0xcb0|                              00 00 00 04      |          ....  |        corr: 4 0xcba-0xcbd.7 (4)
     |                                               |                |      [4]{}: leap_second_record 0xcbe-0xcc9.7 (12)
0xcb0|                                          00 00|              ..|        occur: "1976-01-01T00:00:04Z" (189302404) 0xcbe-0xcc5.7 (8)
0xcc0|00 00 0b 48 86 84                              |...H..          |
0xcc0|                  00 00 00 05                  |      ....      |        corr: 5 0xcc6-0xcc9.7 (4)
     |                                               |                |      [5]{}: leap_second_record 0xcca-0xcd5.7 (12)
0xcc0|                              00 00 00 00 0d 2b|          .....+|        occur: "1977-01-01T00:00:05Z" (220924805) 0xcca-0xcd1.7 (8)
0xcd0|0b 85                                          |..              |
0xcd0|      00 00 00 06                              |  ....          |        corr: 6 0xcd2-0xcd5.7 (4)
     |                                               |                |      [6]{}: leap_second_record 0xcd6-0xce1.7 (12)
0xcd0|                  00 00 00 00 0f 0c 3f 06      |      ......?.  |        occur: "1978-01-01T00:00:06Z" (252460806) 0xcd6-0xcdd.7 (8)
0xcd0|                                          00 00|              ..|        corr: 7 0xcde-0xce1.7 (4)
0xce0|00 07                                          |..              |
     |                                               |                |      [7]{}: leap_second_record 0xce2-0xced.7 (12)
0xce0|      00 00 00 00 10 ed 72 87                  |  ......r.      |        occur: "1979-01-01T00:00:07Z" (283996807) 0xce2-0xce9.7 (8)
0xce0|                              00 00 00 08      |          ....  |        corr: 8 0xcea-0xced.7 (4)
     |                                               |                |      [8]{}: leap_second_record 0xcee-0xcf9.7 (12)
0xce0|                                          00 00|              ..|        occur: "1980-01-01T00:00:08Z" (315532808) 0xcee-0xcf5.7 (8)
0xcf0|00 00 12 ce a6 08                              |......          |
0xcf0|                  00 00 00 09                  |      ....      |        corr: 9 0xcf6-0xcf9.7 (4)
     |                                               |                |      [9]{}: leap_second_record 0xcfa-0xd05.7 (12)
0xcf0|                              00 00 00 00 15 9f|          ......|        occur: "1981-07-01T00:00:09Z" (362793609) 0xcfa-0xd01.7 (8)
0xd00|ca 89                                          |..              |
0xd00|      00 00 00 0a                              |  ....          |        corr: 10 0xd02-0xd05.7 (4)
     |                                               |                |      [10]{}: leap_second_record 0xd06-0xd11.7 (12)
0xd00|                  00 00 00 00 17 80 fe 0a      |      ........  |        occur: "1982-07-01T00:00:10Z" (394329610) 0xd06-0xd0d.7 (8)
0xd00|                                          00 00|              ..|        corr: 11 0xd0e-0xd11.7 (4)
0xd10|00 0b                                          |..              |
     |                                               |                |      [11]{}: leap_second_record 0xd12-0xd1d.7 (12)
0xd10|      00 00 00 00 19 62 31 8b                  |  .....b1.      |        occur: "1983-07-01T00:00:11Z" (425865611) 0xd12-0xd19.7 (8)
0xd10|                              00 00 00 0c      |          ....  |        corr: 12 0xd1a-0xd1d.7 (4)
     |                                               |                |      [12]{}: leap_second_record 0xd1e-0xd29.7 (12)
0xd10|                                          00 00|              ..|        occur: "1985-07-01T00:00:12Z" (489024012) 0xd1e-0xd25.7 (8)
0xd20|00 00 1d 25 ea 0c                              |...%..          |
0xd20|                  00 00 00 0d                  |      ....      |        corr: 13 0xd26-0xd29.7 (4)
     |                                               |                |      [13]{}: leap_second_record 0xd2a-0xd35.7 (12)
0xd20|                              00 00 00 00 21 da|          ....!.|        occur: "1988-01-01T00:00:13Z" (567993613) 0xd2a-0xd31.7 (8)
0xd30|e5 0d                                          |..              |
0xd30|      00 00 00 0e                              |  ....          |        corr: 14 0xd32-0xd35.7 (4)
     |                                               |                |      [14]{}: leap_second_record 0xd36-0xd41.7 (12)
0xd30|                  00 00 00 00 25 9e 9d 8e      |      ....%...  |        occur: "1990-01-01T00:00:14Z" (631152014) 0xd36-0xd3d.7 (8)
0xd30|                                          00 00|              ..|        corr: 15 0xd3e-0xd41.7 (4)
0xd40|00 0f                                          |..              |
     |                                               |                |      [15]{}: leap_second_record 0xd42-0xd4d.7 (12)
0xd40|      00 00 00 00 27 7f d1 0f                  |  ....'...      |        occur: "1991-01-01T00:00:15Z" (662688015) 0xd42-0xd49.7 (8)
0xd40|                              00 00 00 10      |          ....  |        corr: 16 0xd4a-0xd4d.7 (4)
     |                                               |                |      [16]{}: leap_second_record 0xd4e-0xd59.7 (12)
0xd40|                                          00 00|              ..|        occur: "1992-07-01T00:00:16Z" (709948816) 0xd4e-0xd55.7 (8)
0xd50|00 00 2a 50 f5 90                              |..*P..          |
0xd50|                  00 00 00 11                  |      ....      |        corr: 17 0xd56-0xd59.7 (4)
     |                                               |                |      [17]{}: leap_second_record 0xd5a-0xd65.7 (12)
0xd50|                              00 00 00 00 2c 32|          ....,2|        occur: "1993-07-01T00:00:17Z" (741484817) 0xd5a-0xd61.7 (8)
0xd60|29 11                                          |).              |
0xd60|      00 00 00 12                              |  ....          |        corr: 18 0xd62-0xd65.7 (4)
     |                                               |                |      [18]{}: leap_second_record 0xd66-0xd71.7 (12)
0xd60|                  00 00 00 00 2e 13 5c 92      |      ......\.  |        occur: "1994-07-01T00:00:18Z" (773020818) 0xd66-0xd6d.7 (8)
0xd60|                                          00 00|              ..|        corr: 19 0xd6e-0xd71.7 (4)
0xd70|00 13                                          |..              |
     |                                               |                |      [19]{}: leap_second_record 0xd72-0xd7d.7 (12)
0xd70|      00 00 00 00 30 e7 24 13                  |  ....0.$.      |        occur: "1996-01-01T00:00:19Z" (820454419) 0xd72-0xd79.7 (8)
0xd70|                              00 00 00 14      |          ....  |        corr: 20 0xd7a-0xd7d.7 (4)
     |                                               |                |      [20]{}: leap_second_record 0xd7e-0xd89.7 (12)
0xd70|                                          00 00|              ..|        occur: "1997-07-01T00:00:20Z" (867715220) 0xd7e-0xd85.7 (8)
0xd80|00 00 33 b8 48 94                              |..3.H.          |
0xd80|                  00 00 00 15                  |      ....      |        corr: 21 0xd86-0xd89.7 (4)
     |                                               |                |      [21]{}: leap_second_record 0xd8a-0xd95.7 (12)
0xd80|                              00 00 00 00 36 8c|          ....6.|        occur: "1999-01-01T00:00:21Z" (915148821) 0xd8a-0xd91.7 (8)
0xd90|10 15                                          |..              |
0xd90|      00 00 00 16                              |  ....          |        corr: 22 0xd92-0xd95.7 (4)
     |                                               |                |      [22]{}: leap_second_record 0xd96-0xda1.7 (12)
0xd90|                  00 00 00 00 43 b7 1b 96      |      ....C...  |        occur: "2006-01-01T00:00:22Z" (1136073622) 0xd96-0xd9d.7 (8)
0xd90|                                          00 00|              ..|        corr: 23 0xd9e-0xda1.7 (4)
0xda0|00 17                                          |..              |
     |                                               |                |      [23]{}: leap_second_record 0xda2-0xdad.7 (12)
0xda0|      00 00 00 00 49 5c 07 97                  |  ....I\..      |        occur: "2009-01-01T00:00:23Z" (1230768023) 0xda2-0xda9.7 (8)
0xda0|                              00 00 00 18      |          ....  |        corr: 24 0xdaa-0xdad.7 (4)
     |                                               |                |      [24]{}: leap_second_record 0xdae-0xdb9.7 (12)
0xda0|                                          00 00|              ..|        occur: "2012-07-01T00:00:24Z" (1341100824) 0xdae-0xdb5.7 (8)
0xdb0|00 00 4f ef 93 18                              |..O...          |
0xdb0|                  00 00 00 19                  |      ....      |        corr: 25 0xdb6-0xdb9.7 (4)
     |                                               |                |      [25]{}: leap_second_record 0xdba-0xdc5.7 (12)
0xdb0|                              00 00 00 00 55 93|          ....U.|        occur: "2015-07-01T00:00:25Z" (1435708825) 0xdba-0xdc1.7 (8)
0xdc0|2d 99                                          |-.              |
0xdc0|      00 00 00 1a                              |  ....          |        corr: 26 0xdc2-0xdc5.7 (4)
     |                                               |                |      [26]{}: leap_second_record 0xdc6-0xdd1.7 (12)
0xdc0|                  00 00 00 00 58 68 46 9a      |      ....XhF.  |        occur: "2017-01-01T00:00:26Z" (1483228826) 0xdc6-0xdcd.7 (8)
0xdc0|                                          00 00|              ..|        corr: 27 0xdce-0xdd1.7 (4)
0xdd0|00 1b                                          |..              |
     |                                               |                |    standard_wall_indicators[0:5]: 0xdd2-0xdd6.7 (5)
0xdd0|      00                                       |  .             |      [0]: 0 standard_wall_indicator (valid) 0xdd2-0xdd2.7 (1)
0xdd0|         00                                    |   .            |      [1]: 0 standard_wall_indicator (valid) 0xdd3-0xdd3.7 (1)
0xdd0|            00                                 |    .           |      [2]: 0 standard_wall_indicator (valid) 0xdd4-0xdd4.7 (1)
0xdd0|               00                              |     .          |      [3]: 0 standard_wall_indicator (valid) 0xdd5-0xdd5.7 (1)
0xdd0|                  01                           |      .         |      [4]: 1 standard_wall_indicator (valid) 0xdd6-0xdd6.7 (1)
     |                                               |                |    ut_local_indicators[0:5]: 0xdd7-0xddb.7 (5)
0xdd0|                     00                        |       .        |      [0]: 0 ut_local_indicator (valid) 0xdd7-0xdd7.7 (1)
0xdd0|                        00                     |        .       |      [1]: 0 ut_local_indicator (valid) 0xdd8-0xdd8.7 (1)
0xdd0|                           00                  |         .      |      [2]: 0 ut_local_indicator (valid) 0xdd9-0xdd9.7 (1)
0xdd0|                              00               |          .     |      [3]: 0 ut_local_indicator (valid) 0xdda-0xdda.7 (1)
0xdd0|                                 01            |           .    |      [4]: 1 ut_local_indicator (valid) 0xddb-0xddb.7 (1)
     |                                               |                |  footer{}: 0xddc-0xddd.7 (2)
0xdd0|                                    0a         |            .   |    nl1: 10 (valid) 0xddc-0xddc.7 (1)
     |                                               |                |    tz_string: "" 0xddd-NA (0)
0xdd0|                                       0a|     |             .| |    nl2: 10 (valid) 0xddd-0xddd.7 (1)
