$ fq -d tzif dv Havana
     |00 01 02 03 04 05 06 07 08 09 0a 0b 0c 0d 0e 0f|0123456789abcdef|.{}: Havana (tzif) 0x0-0x9ea (2538)
     |                                               |                |  v1header{}: 0x0-0x2c (44)
0x000|54 5a 69 66                                    |TZif            |    magic: 0x545a6966 (valid) 0x0-0x4 (4)
0x000|            32                                 |    2           |    ver: "2" (0x32) (valid) 0x4-0x5 (1)
0x000|               00 00 00 00 00 00 00 00 00 00 00|     ...........|    reserved: raw bits 0x5-0x14 (15)
0x010|00 00 00 00                                    |....            |
0x010|            00 00 00 00                        |    ....        |    isutcnt: 0 0x14-0x18 (4)
0x010|                        00 00 00 06            |        ....    |    isstdcnt: 6 0x18-0x1c (4)
0x010|                                    00 00 00 1b|            ....|    leapcnt: 27 0x1c-0x20 (4)
0x020|00 00 00 80                                    |....            |    timecnt: 128 0x20-0x24 (4)
0x020|            00 00 00 06                        |    ....        |    typecnt: 6 0x24-0x28 (4)
0x020|                        00 00 00 10            |        ....    |    charcnt: 16 0x28-0x2c (4)
     |                                               |                |  v1datablock{}: 0x2c-0x3be (914)
     |                                               |                |    transition_times[0:128]: 0x2c-0x22c (512)
0x020|                                    80 00 00 00|            ....|      [0]: "1901-12-13T20:45:52Z" (-2147483648) transition_time 0x2c-0x30 (4)
0x030|ac 62 c2 80                                    |.b..            |      [1]: "1925-07-19T17:29:36Z" (-1402813824) transition_time 0x30-0x34 (4)
0x030|            b1 d3 94 50                        |    ...P        |      [2]: "1928-06-10T05:00:00Z" (-1311534000) transition_time 0x34-0x38 (4)
0x030|                        b2 74 5d 40            |        .t]@    |      [3]: "1928-10-10T04:00:00Z" (-1300996800) transition_time 0x38-0x3c (4)
0x030|                                    c8 5b 66 d0|            .[f.|      [4]: "1940-06-02T05:00:00Z" (-933534000) transition_time 0x3c-0x40 (4)
0x040|c8 d3 51 40                                    |..Q@            |      [5]: "1940-09-01T04:00:00Z" (-925675200) transition_time 0x40-0x44 (4)
0x040|            ca 3b 48 d0                        |    .;H.        |      [6]: "1941-06-01T05:00:00Z" (-902084400) transition_time 0x44-0x48 (4)
0x040|                        ca bc 6d c0            |        ..m.    |      [7]: "1941-09-07T04:00:00Z" (-893620800) transition_time 0x48-0x4c (4)
0x040|                                    cc 24 65 50|            .$eP|      [8]: "1942-06-07T05:00:00Z" (-870030000) transition_time 0x4c-0x50 (4)
0x050|cc 9c 4f c0                                    |..O.            |      [9]: "1942-09-06T04:00:00Z" (-862171200) transition_time 0x50-0x54 (4)
0x050|            d1 c4 0b 50                        |    ...P        |      [10]: "1945-06-03T05:00:00Z" (-775681200) transition_time 0x54-0x58 (4)
0x050|                        d2 3b f5 c0            |        .;..    |      [11]: "1945-09-02T04:00:00Z" (-767822400) transition_time 0x58-0x5c (4)
0x050|                                    d3 a3 ed 50|            ...P|      [12]: "1946-06-02T05:00:00Z" (-744231600) transition_time 0x5c-0x60 (4)
0x060|d4 1b d7 c0                                    |....            |      [13]: "1946-09-01T04:00:00Z" (-736372800) transition_time 0x60-0x64 (4)
0x060|            f7 60 05 d0                        |    .`..        |      [14]: "1965-06-01T05:00:00Z" (-144702000) transition_time 0x64-0x68 (4)
0x060|                        f7 ff 7d 40            |        ..}@    |      [15]: "1965-09-30T04:00:00Z" (-134251200) transition_time 0x68-0x6c (4)
0x060|                                    f9 3d 44 d0|            .=D.|      [16]: "1966-05-29T05:00:00Z" (-113425200) transition_time 0x6c-0x70 (4)
0x070|f9 e3 53 c0                                    |..S.            |      [17]: "1966-10-02T04:00:00Z" (-102542400) transition_time 0x70-0x74 (4)
0x070|            fa db 3b d0                        |    ..;.        |      [18]: "1967-04-08T05:00:00Z" (-86295600) transition_time 0x74-0x78 (4)
0x070|                        fb a7 86 40            |        ...@    |      [19]: "1967-09-10T04:00:00Z" (-72907200) transition_time 0x78-0x7c (4)
0x070|                                    fc c5 a9 d0|            ....|      [20]: "1968-04-14T05:00:00Z" (-54154800) transition_time 0x7c-0x80 (4)
0x080|fd 87 68 40                                    |..h@            |      [21]: "1968-09-08T04:00:00Z" (-41457600) transition_time 0x80-0x84 (4)
0x080|            fe b8 00 d0                        |    ....        |      [22]: "1969-04-27T05:00:00Z" (-21495600) transition_time 0x84-0x88 (4)
0x080|                        ff a7 e3 c0            |        ....    |      [23]: "1969-10-26T04:00:00Z" (-5774400) transition_time 0x88-0x8c (4)
0x080|                                    00 97 e2 d0|            ....|      [24]: "1970-04-26T05:00:00Z" (9954000) transition_time 0x8c-0x90 (4)
0x090|01 87 c5 c0                                    |....            |      [25]: "1970-10-25T04:00:00Z" (25675200) transition_time 0x90-0x94 (4)
0x090|            02 77 c4 d0                        |    .w..        |      [26]: "1971-04-25T05:00:00Z" (41403600) transition_time 0x94-0x98 (4)
0x090|                        03 70 e2 40            |        .p.@    |      [27]: "1971-10-31T04:00:00Z" (57729600) transition_time 0x98-0x9c (4)
0x090|                                    04 60 e1 50|            .`.P|      [28]: "1972-04-30T05:00:00Z" (73458000) transition_time 0x9c-0xa0 (4)
0x0a0|05 35 14 c1                                    |.5..            |      [29]: "1972-10-08T04:00:01Z" (87364801) transition_time 0xa0-0xa4 (4)
0x0a0|            06 40 c3 52                        |    .@.R        |      [30]: "1973-04-29T05:00:02Z" (104907602) transition_time 0xa4-0xa8 (4)
0x0a0|                        07 16 48 42            |        ..HB    |      [31]: "1973-10-08T04:00:02Z" (118900802) transition_time 0xa8-0xac (4)
0x0a0|                                    08 20 a5 53|            . .S|      [32]: "1974-04-28T05:00:03Z" (136357203) transition_time 0xac-0xb0 (4)
0x0b0|08 f7 7b c3                                    |..{.            |      [33]: "1974-10-08T04:00:03Z" (150436803) transition_time 0xb0-0xb4 (4)
0x0b0|            0a 00 87 54                        |    ...T        |      [34]: "1975-04-27T05:00:04Z" (167806804) transition_time 0xb4-0xb8 (4)
0x0b0|                        0a f0 6a 44            |        ..jD    |      [35]: "1975-10-26T04:00:04Z" (183528004) transition_time 0xb8-0xbc (4)
0x0b0|                                    0b e0 69 55|            ..iU|      [36]: "1976-04-25T05:00:05Z" (199256405) transition_time 0xbc-0xc0 (4)
0x0c0|0c d9 86 c5                                    |....            |      [37]: "1976-10-31T04:00:05Z" (215582405) transition_time 0xc0-0xc4 (4)
0x0c0|            0d c0 4b 56                        |    ..KV        |      [38]: "1977-04-24T05:00:06Z" (230706006) transition_time 0xc4-0xc8 (4)
0x0c0|                        0e b9 68 c6            |        ..h.    |      [39]: "1977-10-30T04:00:06Z" (247032006) transition_time 0xc8-0xcc (4)
0x0c0|                                    0f b2 a2 57|            ...W|      [40]: "1978-05-07T05:00:07Z" (263365207) transition_time 0xcc-0xd0 (4)
0x0d0|10 7d 9b 47                                    |.}.G            |      [41]: "1978-10-08T04:00:07Z" (276667207) transition_time 0xd0-0xd4 (4)
0x0d0|            11 51 ea d8                        |    .Q..        |      [42]: "1979-03-18T05:00:08Z" (290581208) transition_time 0xd4-0xd8 (4)
0x0d0|                        12 66 b7 c8            |        .f..    |      [43]: "1979-10-14T04:00:08Z" (308721608) transition_time 0xd8-0xdc (4)
0x0d0|                                    13 31 cc d9|            .1..|      [44]: "1980-03-16T05:00:09Z" (322030809) transition_time 0xdc-0xe0 (4)
0x0e0|14 46 99 c9                                    |.F..            |      [45]: "1980-10-12T04:00:09Z" (340171209) transition_time 0xe0-0xe4 (4)
0x0e0|            15 5b 82 d9                        |    .[..        |      [46]: "1981-05-10T05:00:09Z" (358318809) transition_time 0xe4-0xe8 (4)
0x0e0|                        16 26 7b ca            |        .&{.    |      [47]: "1981-10-11T04:00:10Z" (371620810) transition_time 0xe8-0xec (4)
0x0e0|                                    17 3b 64 da|            .;d.|      [48]: "1982-05-09T05:00:10Z" (389768410) transition_time 0xec-0xf0 (4)
0x0f0|18 06 5d cb                                    |..].            |      [49]: "1982-10-10T04:00:11Z" (403070411) transition_time 0xf0-0xf4 (4)
0x0f0|            19 1b 46 db                        |    ..F.        |      [50]: "1983-05-08T05:00:11Z" (421218011) transition_time 0xf4-0xf8 (4)
0x0f0|                        19 e6 3f cc            |        ..?.    |      [51]: "1983-10-09T04:00:12Z" (434520012) transition_time 0xf8-0xfc (4)
0x0f0|                                    1a fb 28 dc|            ..(.|      [52]: "1984-05-06T05:00:12Z" (452667612) transition_time 0xfc-0x100 (4)
0x100|1b cf 5c 4c                                    |..\L            |      [53]: "1984-10-14T04:00:12Z" (466574412) transition_time 0x100-0x104 (4)
0x100|            1c db 0a dc                        |    ....        |      [54]: "1985-05-05T05:00:12Z" (484117212) transition_time 0x104-0x108 (4)
0x100|                        1d af 3e 4d            |        ..>M    |      [55]: "1985-10-13T04:00:13Z" (498024013) transition_time 0x108-0x10c (4)
0x100|                                    1e 7a 53 5d|            .zS]|      [56]: "1986-03-16T05:00:13Z" (511333213) transition_time 0x10c-0x110 (4)
0x110|1f 8f 20 4d                                    |.. M            |      [57]: "1986-10-12T04:00:13Z" (529473613) transition_time 0x110-0x114 (4)
0x110|            20 5a 35 5d                        |     Z5]        |      [58]: "1987-03-15T05:00:13Z" (542782813) transition_time 0x114-0x118 (4)
0x110|                        21 6f 02 4d            |        !o.M    |      [59]: "1987-10-11T04:00:13Z" (560923213) transition_time 0x118-0x11c (4)
0x110|                                    22 43 51 de|            "CQ.|      [60]: "1988-03-20T05:00:14Z" (574837214) transition_time 0x11c-0x120 (4)
0x120|23 4e e4 4e                                    |#N.N            |      [61]: "1988-10-09T04:00:14Z" (592372814) transition_time 0x120-0x124 (4)
0x120|            24 23 33 de                        |    $#3.        |      [62]: "1989-03-19T05:00:14Z" (606286814) transition_time 0x124-0x128 (4)
0x120|                        25 2e c6 4e            |        %..N    |      [63]: "1989-10-08T04:00:14Z" (623822414) transition_time 0x128-0x12c (4)
0x120|                                    26 15 8a df|            &...|      [64]: "1990-04-01T05:00:15Z" (638946015) transition_time 0x12c-0x130 (4)
0x130|27 17 e2 cf                                    |'...            |      [65]: "1990-10-14T04:00:15Z" (655876815) transition_time 0x130-0x134 (4)
0x130|            27 fe a7 60                        |    '..`        |      [66]: "1991-04-07T05:00:16Z" (671000416) transition_time 0x134-0x138 (4)
0x130|                        28 f7 d2 e0            |        (...    |      [67]: "1991-10-13T05:00:16Z" (687330016) transition_time 0x138-0x13c (4)
0x130|                                    29 de 89 60|            )..`|      [68]: "1992-04-05T05:00:16Z" (702450016) transition_time 0x13c-0x140 (4)
0x140|2a d7 b4 e1                                    |*...            |      [69]: "1992-10-11T05:00:17Z" (718779617) transition_time 0x140-0x144 (4)
0x140|            2b be 6b 61                        |    +.ka        |      [70]: "1993-04-04T05:00:17Z" (733899617) transition_time 0x144-0x148 (4)
0x140|                        2c b7 96 e2            |        ,...    |      [71]: "1993-10-10T05:00:18Z" (750229218) transition_time 0x148-0x14c (4)
0x140|                                    2d 9e 4d 62|            -.Mb|      [72]: "1994-04-03T05:00:18Z" (765349218) transition_time 0x14c-0x150 (4)
0x150|2e 97 78 e3                                    |..x.            |      [73]: "1994-10-09T05:00:19Z" (781678819) transition_time 0x150-0x154 (4)
0x150|            2f 7e 2f 63                        |    /~/c        |      [74]: "1995-04-02T05:00:19Z" (796798819) transition_time 0x154-0x158 (4)
0x150|                        30 77 5a e3            |        0wZ.    |      [75]: "1995-10-08T05:00:19Z" (813128419) transition_time 0x158-0x15c (4)
0x150|                                    31 67 4b e4|            1gK.|      [76]: "1996-04-07T05:00:20Z" (828853220) transition_time 0x15c-0x160 (4)
0x160|32 57 3c e4                                    |2W<.            |      [77]: "1996-10-06T05:00:20Z" (844578020) transition_time 0x160-0x164 (4)
0x160|            33 47 2d e4                        |    3G-.        |      [78]: "1997-04-06T05:00:20Z" (860302820) transition_time 0x164-0x168 (4)
0x160|                        34 40 59 65            |        4@Ye    |      [79]: "1997-10-12T05:00:21Z" (876632421) transition_time 0x168-0x16c (4)
0x160|                                    35 1d d5 65|            5..e|      [80]: "1998-03-29T05:00:21Z" (891147621) transition_time 0x16c-0x170 (4)
0x170|36 32 b0 65                                    |62.e            |      [81]: "1998-10-25T05:00:21Z" (909291621) transition_time 0x170-0x174 (4)
0x170|            36 fd b7 66                        |    6..f        |      [82]: "1999-03-28T05:00:22Z" (922597222) transition_time 0x174-0x178 (4)
0x170|                        38 1b cc e6            |        8...    |      [83]: "1999-10-31T05:00:22Z" (941346022) transition_time 0x178-0x17c (4)
0x170|                                    38 e6 d3 e6|            8...|      [84]: "2000-04-02T05:00:22Z" (954651622) transition_time 0x17c-0x180 (4)
0x180|39 fb ae e6                                    |9...            |      [85]: "2000-10-29T05:00:22Z" (972795622) transition_time 0x180-0x184 (4)
0x180|            3a c6 b5 e6                        |    :...        |      [86]: "2001-04-01T05:00:22Z" (986101222) transition_time 0x184-0x188 (4)
0x180|                        3b db 90 e6            |        ;...    |      [87]: "2001-10-28T05:00:22Z" (1004245222) transition_time 0x188-0x18c (4)
0x180|                                    3c af d2 66|            <..f|      [88]: "2002-04-07T05:00:22Z" (1018155622) transition_time 0x18c-0x190 (4)
0x190|3d bb 72 e6                                    |=.r.            |      [89]: "2002-10-27T05:00:22Z" (1035694822) transition_time 0x190-0x194 (4)
0x190|            3e 8f b4 66                        |    >..f        |      [90]: "2003-04-06T05:00:22Z" (1049605222) transition_time 0x194-0x198 (4)
0x190|                        3f 9b 54 e6            |        ?.T.    |      [91]: "2003-10-26T05:00:22Z" (1067144422) transition_time 0x198-0x19c (4)
0x190|                                    40 66 5b e6|            @f[.|      [92]: "2004-03-28T05:00:22Z" (1080450022) transition_time 0x19c-0x1a0 (4)
0x1a0|45 44 35 67                                    |ED5g            |      [93]: "2006-10-29T05:00:23Z" (1162098023) transition_time 0x1a0-0x1a4 (4)
0x1a0|            45 f3 8c e7                        |    E...        |      [94]: "2007-03-11T05:00:23Z" (1173589223) transition_time 0x1a4-0x1a8 (4)
0x1a0|                        47 24 17 67            |        G$.g    |      [95]: "2007-10-28T05:00:23Z" (1193547623) transition_time 0x1a8-0x1ac (4)
0x1a0|                                    47 dc a9 67|            G..g|      [96]: "2008-03-16T05:00:23Z" (1205643623) transition_time 0x1ac-0x1b0 (4)
0x1b0|49 03 f9 67                                    |I..g            |      [97]: "2008-10-26T05:00:23Z" (1224997223) transition_time 0x1b0-0x1b4 (4)
0x1b0|            49 b3 50 e8                        |    I.P.        |      [98]: "2009-03-08T05:00:24Z" (1236488424) transition_time 0x1b4-0x1b8 (4)
0x1b0|                        4a e3 db 68            |        J..h    |      [99]: "2009-10-25T05:00:24Z" (1256446824) transition_time 0x1b8-0x1bc (4)
0x1b0|                                    4b 9c 6d 68|            K.mh|      [100]: "2010-03-14T05:00:24Z" (1268542824) transition_time 0x1bc-0x1c0 (4)
0x1c0|4c cc f7 e8                                    |L...            |      [101]: "2010-10-31T05:00:24Z" (1288501224) transition_time 0x1c0-0x1c4 (4)
0x1c0|            4d 85 89 e8                        |    M...        |      [102]: "2011-03-20T05:00:24Z" (1300597224) transition_time 0x1c4-0x1c8 (4)
0x1c0|                        4e bf 4e e8            |        N.N.    |      [103]: "2011-11-13T05:00:24Z" (1321160424) transition_time 0x1c8-0x1cc (4)
0x1c0|                                    4f 77 e0 e8|            Ow..|      [104]: "2012-04-01T05:00:24Z" (1333256424) transition_time 0x1cc-0x1d0 (4)
0x1d0|50 95 f6 69                                    |P..i            |      [105]: "2012-11-04T05:00:25Z" (1352005225) transition_time 0x1d0-0x1d4 (4)
0x1d0|            51 3c 13 69                        |    Q<.i        |      [106]: "2013-03-10T05:00:25Z" (1362891625) transition_time 0x1d4-0x1d8 (4)
0x1d0|                        52 75 d8 69            |        Ru.i    |      [107]: "2013-11-03T05:00:25Z" (1383454825) transition_time 0x1d8-0x1dc (4)
0x1d0|                                    53 1b f5 69|            S..i|      [108]: "2014-03-09T05:00:25Z" (1394341225) transition_time 0x1dc-0x1e0 (4)
0x1e0|54 55 ba 69                                    |TU.i            |      [109]: "2014-11-02T05:00:25Z" (1414904425) transition_time 0x1e0-0x1e4 (4)
0x1e0|            54 fb d7 69                        |    T..i        |      [110]: "2015-03-08T05:00:25Z" (1425790825) transition_time 0x1e4-0x1e8 (4)
0x1e0|                        56 35 9c 6a            |        V5.j    |      [111]: "2015-11-01T05:00:26Z" (1446354026) transition_time 0x1e8-0x1ec (4)
0x1e0|                                    56 e4 f3 ea|            V...|      [112]: "2016-03-13T05:00:26Z" (1457845226) transition_time 0x1ec-0x1f0 (4)
0x1f0|58 1e b8 ea                                    |X...            |      [113]: "2016-11-06T05:00:26Z" (1478408426) transition_time 0x1f0-0x1f4 (4)
0x1f0|            58 c4 d5 eb                        |    X...        |      [114]: "2017-03-12T05:00:27Z" (1489294827) transition_time 0x1f4-0x1f8 (4)
0x1f0|                        59 fe 9a eb            |        Y...    |      [115]: "2017-11-05T05:00:27Z" (1509858027) transition_time 0x1f8-0x1fc (4)
0x1f0|                                    5a a4 b7 eb|            Z...|      [116]: "2018-03-11T05:00:27Z" (1520744427) transition_time 0x1fc-0x200 (4)
0x200|5b de 7c eb                                    |[.|.            |      [117]: "2018-11-04T05:00:27Z" (1541307627) transition_time 0x200-0x204 (4)
0x200|            5c 84 99 eb                        |    \...        |      [118]: "2019-03-10T05:00:27Z" (1552194027) transition_time 0x204-0x208 (4)
0x200|                        5d be 5e eb            |        ].^.    |      [119]: "2019-11-03T05:00:27Z" (1572757227) transition_time 0x208-0x20c (4)
0x200|                                    5e 64 7b eb|            ^d{.|      [120]: "2020-03-08T05:00:27Z" (1583643627) transition_time 0x20c-0x210 (4)
0x210|5f 9e 40 eb                                    |_.@.            |      [121]: "2020-11-01T05:00:27Z" (1604206827) transition_time 0x210-0x214 (4)
0x210|            60 4d 98 6b                        |    `M.k        |      [122]: "2021-03-14T05:00:27Z" (1615698027) transition_time 0x214-0x218 (4)
0x210|                        61 87 5d 6b            |        a.]k    |      [123]: "2021-11-07T05:00:27Z" (1636261227) transition_time 0x218-0x21c (4)
0x210|                                    62 2d 7a 6b|            b-zk|      [124]: "2022-03-13T05:00:27Z" (1647147627) transition_time 0x21c-0x220 (4)
0x220|63 67 3f 6b                                    |cg?k            |      [125]: "2022-11-06T05:00:27Z" (1667710827) transition_time 0x220-0x224 (4)
0x220|            64 0d 5c 6b                        |    d.\k        |      [126]: "2023-03-12T05:00:27Z" (1678597227) transition_time 0x224-0x228 (4)
0x220|                        64 9b 78 1b            |        d.x.    |      [127]: "2023-06-28T00:00:27Z" (1687910427) transition_time 0x228-0x22c (4)
     |                                               |                |    transition_types[0:128]: 0x22c-0x2ac (128)
0x220|                                    01         |            .   |      [0]: 1 transition_type 0x22c-0x22d (1)
0x220|                                       03      |             .  |      [1]: 3 transition_type 0x22d-0x22e (1)
0x220|                                          02   |              . |      [2]: 2 transition_type 0x22e-0x22f (1)
0x220|                                             03|               .|      [3]: 3 transition_type 0x22f-0x230 (1)
0x230|02                                             |.               |      [4]: 2 transition_type 0x230-0x231 (1)
0x230|   03                                          | .              |      [5]: 3 transition_type 0x231-0x232 (1)
0x230|      02                                       |  .             |      [6]: 2 transition_type 0x232-0x233 (1)
0x230|         03                                    |   .            |      [7]: 3 transition_type 0x233-0x234 (1)
0x230|            02                                 |    .           |      [8]: 2 transition_type 0x234-0x235 (1)
0x230|               03                              |     .          |      [9]: 3 transition_type 0x235-0x236 (1)
0x230|                  02                           |      .         |      [10]: 2 transition_type 0x236-0x237 (1)
0x230|                     03                        |       .        |      [11]: 3 transition_type 0x237-0x238 (1)
0x230|                        02                     |        .       |      [12]: 2 transition_type 0x238-0x239 (1)
0x230|                           03                  |         .      |      [13]: 3 transition_type 0x239-0x23a (1)
0x230|                              02               |          .     |      [14]: 2 transition_type 0x23a-0x23b (1)
0x230|                                 03            |           .    |      [15]: 3 transition_type 0x23b-0x23c (1)
0x230|                                    02         |            .   |      [16]: 2 transition_type 0x23c-0x23d (1)
0x230|                                       03      |             .  |      [17]: 3 transition_type 0x23d-0x23e (1)
0x230|                                          02   |              . |      [18]: 2 transition_type 0x23e-0x23f (1)
0x230|                                             03|               .|      [19]: 3 transition_type 0x23f-0x240 (1)
0x240|02                                             |.               |      [20]: 2 transition_type 0x240-0x241 (1)
0x240|   03                                          | .              |      [21]: 3 transition_type 0x241-0x242 (1)
0x240|      02                                       |  .             |      [22]: 2 transition_type 0x242-0x243 (1)
0x240|         03                                    |   .            |      [23]: 3 transition_type 0x243-0x244 (1)
0x240|            02                                 |    .           |      [24]: 2 transition_type 0x244-0x245 (1)
0x240|               03                              |     .          |      [25]: 3 transition_type 0x245-0x246 (1)
0x240|                  02                           |      .         |      [26]: 2 transition_type 0x246-0x247 (1)
0x240|                     03                        |       .        |      [27]: 3 transition_type 0x247-0x248 (1)
0x240|                        02                     |        .       |      [28]: 2 transition_type 0x248-0x249 (1)
0x240|                           03                  |         .      |      [29]: 3 transition_type 0x249-0x24a (1)
0x240|                              02               |          .     |      [30]: 2 transition_type 0x24a-0x24b (1)
0x240|                                 03            |           .    |      [31]: 3 transition_type 0x24b-0x24c (1)
0x240|                                    02         |            .   |      [32]: 2 transition_type 0x24c-0x24d (1)
0x240|                                       03      |             .  |      [33]: 3 transition_type 0x24d-0x24e (1)
0x240|                                          02   |              . |      [34]: 2 transition_type 0x24e-0x24f (1)
0x240|                                             03|               .|      [35]: 3 transition_type 0x24f-0x250 (1)
0x250|02                                             |.               |      [36]: 2 transition_type 0x250-0x251 (1)
0x250|   03                                          | .              |      [37]: 3 transition_type 0x251-0x252 (1)
0x250|      02                                       |  .             |      [38]: 2 transition_type 0x252-0x253 (1)
0x250|         03                                    |   .            |      [39]: 3 transition_type 0x253-0x254 (1)
0x250|            02                                 |    .           |      [40]: 2 transition_type 0x254-0x255 (1)
0x250|               03                              |     .          |      [41]: 3 transition_type 0x255-0x256 (1)
0x250|                  02                           |      .         |      [42]: 2 transition_type 0x256-0x257 (1)
0x250|                     03                        |       .        |      [43]: 3 transition_type 0x257-0x258 (1)
0x250|                        02                     |        .       |      [44]: 2 transition_type 0x258-0x259 (1)
0x250|                           03                  |         .      |      [45]: 3 transition_type 0x259-0x25a (1)
0x250|                              02               |          .     |      [46]: 2 transition_type 0x25a-0x25b (1)
0x250|                                 03            |           .    |      [47]: 3 transition_type 0x25b-0x25c (1)
0x250|                                    02         |            .   |      [48]: 2 transition_type 0x25c-0x25d (1)
0x250|                                       03      |             .  |      [49]: 3 transition_type 0x25d-0x25e (1)
0x250|                                          02   |              . |      [50]: 2 transition_type 0x25e-0x25f (1)
0x250|                                             03|               .|      [51]: 3 transition_type 0x25f-0x260 (1)
0x260|02                                             |.               |      [52]: 2 transition_type 0x260-0x261 (1)
0x260|   03                                          | .              |      [53]: 3 transition_type 0x261-0x262 (1)
0x260|      02                                       |  .             |      [54]: 2 transition_type 0x262-0x263 (1)
0x260|         03                                    |   .            |      [55]: 3 transition_type 0x263-0x264 (1)
0x260|            02                                 |    .           |      [56]: 2 transition_type 0x264-0x265 (1)
0x260|               03                              |     .          |      [57]: 3 transition_type 0x265-0x266 (1)
0x260|                  02                           |      .         |      [58]: 2 transition_type 0x266-0x267 (1)
0x260|                     03                        |       .        |      [59]: 3 transition_type 0x267-0x268 (1)
0x260|                        02                     |        .       |      [60]: 2 transition_type 0x268-0x269 (1)
0x260|                           03                  |         .      |      [61]: 3 transition_type 0x269-0x26a (1)
0x260|                              02               |          .     |      [62]: 2 transition_type 0x26a-0x26b (1)
0x260|                                 03            |           .    |      [63]: 3 transition_type 0x26b-0x26c (1)
0x260|                                    02         |            .   |      [64]: 2 transition_type 0x26c-0x26d (1)
0x260|                                       03      |             .  |      [65]: 3 transition_type 0x26d-0x26e (1)
0x260|                                          02   |              . |      [66]: 2 transition_type 0x26e-0x26f (1)
0x260|                                             04|               .|      [67]: 4 transition_type 0x26f-0x270 (1)
0x270|02                                             |.               |      [68]: 2 transition_type 0x270-0x271 (1)
0x270|   04                                          | .              |      [69]: 4 transition_type 0x271-0x272 (1)
0x270|      02                                       |  .             |      [70]: 2 transition_type 0x272-0x273 (1)
0x270|         04                                    |   .            |      [71]: 4 transition_type 0x273-0x274 (1)
0x270|            02                                 |    .           |      [72]: 2 transition_type 0x274-0x275 (1)
0x270|               04                              |     .          |      [73]: 4 transition_type 0x275-0x276 (1)
0x270|                  02                           |      .         |      [74]: 2 transition_type 0x276-0x277 (1)
0x270|                     04                        |       .        |      [75]: 4 transition_type 0x277-0x278 (1)
0x270|                        02                     |        .       |      [76]: 2 transition_type 0x278-0x279 (1)
0x270|                           04                  |         .      |      [77]: 4 transition_type 0x279-0x27a (1)
0x270|                              02               |          .     |      [78]: 2 transition_type 0x27a-0x27b (1)
0x270|                                 04            |           .    |      [79]: 4 transition_type 0x27b-0x27c (1)
0x270|                                    05         |            .   |      [80]: 5 transition_type 0x27c-0x27d (1)
0x270|                                       04      |             .  |      [81]: 4 transition_type 0x27d-0x27e (1)
0x270|                                          05   |              . |      [82]: 5 transition_type 0x27e-0x27f (1)
0x270|                                             04|               .|      [83]: 4 transition_type 0x27f-0x280 (1)
0x280|05                                             |.               |      [84]: 5 transition_type 0x280-0x281 (1)
0x280|   04                                          | .              |      [85]: 4 transition_type 0x281-0x282 (1)
0x280|      05                                       |  .             |      [86]: 5 transition_type 0x282-0x283 (1)
0x280|         04                                    |   .            |      [87]: 4 transition_type 0x283-0x284 (1)
0x280|            05                                 |    .           |      [88]: 5 transition_type 0x284-0x285 (1)
0x280|               04                              |     .          |      [89]: 4 transition_type 0x285-0x286 (1)
0x280|                  05                           |      .         |      [90]: 5 transition_type 0x286-0x287 (1)
0x280|                     04                        |       .        |      [91]: 4 transition_type 0x287-0x288 (1)
0x280|                        05                     |        .       |      [92]: 5 transition_type 0x288-0x289 (1)
0x280|                           04                  |         .      |      [93]: 4 transition_type 0x289-0x28a (1)
0x280|                              05               |          .     |      [94]: 5 transition_type 0x28a-0x28b (1)
0x280|                                 04            |           .    |      [95]: 4 transition_type 0x28b-0x28c (1)
0x280|                                    05         |            .   |      [96]: 5 transition_type 0x28c-0x28d (1)
0x280|                                       04      |             .  |      [97]: 4 transition_type 0x28d-0x28e (1)
0x280|                                          05   |              . |      [98]: 5 transition_type 0x28e-0x28f (1)
0x280|                                             04|               .|      [99]: 4 transition_type 0x28f-0x290 (1)
0x290|05                                             |.               |      [100]: 5 transition_type 0x290-0x291 (1)
0x290|   04                                          | .              |      [101]: 4 transition_type 0x291-0x292 (1)
0x290|      05                                       |  .             |      [102]: 5 transition_type 0x292-0x293 (1)
0x290|         04                                    |   .            |      [103]: 4 transition_type 0x293-0x294 (1)
0x290|            05                                 |    .           |      [104]: 5 transition_type 0x294-0x295 (1)
0x290|               04                              |     .          |      [105]: 4 transition_type 0x295-0x296 (1)
0x290|                  05                           |      .         |      [106]: 5 transition_type 0x296-0x297 (1)
0x290|                     04                        |       .        |      [107]: 4 transition_type 0x297-0x298 (1)
0x290|                        05                     |        .       |      [108]: 5 transition_type 0x298-0x299 (1)
0x290|                           04                  |         .      |      [109]: 4 transition_type 0x299-0x29a (1)
0x290|                              05               |          .     |      [110]: 5 transition_type 0x29a-0x29b (1)
0x290|                                 04            |           .    |      [111]: 4 transition_type 0x29b-0x29c (1)
0x290|                                    05         |            .   |      [112]: 5 transition_type 0x29c-0x29d (1)
0x290|                                       04      |             .  |      [113]: 4 transition_type 0x29d-0x29e (1)
0x290|                                          05   |              . |      [114]: 5 transition_type 0x29e-0x29f (1)
0x290|                                             04|               .|      [115]: 4 transition_type 0x29f-0x2a0 (1)
0x2a0|05                                             |.               |      [116]: 5 transition_type 0x2a0-0x2a1 (1)
0x2a0|   04                                          | .              |      [117]: 4 transition_type 0x2a1-0x2a2 (1)
0x2a0|      05                                       |  .             |      [118]: 5 transition_type 0x2a2-0x2a3 (1)
0x2a0|         04                                    |   .            |      [119]: 4 transition_type 0x2a3-0x2a4 (1)
0x2a0|            05                                 |    .           |      [120]: 5 transition_type 0x2a4-0x2a5 (1)
0x2a0|               04                              |     .          |      [121]: 4 transition_type 0x2a5-0x2a6 (1)
0x2a0|                  05                           |      .         |      [122]: 5 transition_type 0x2a6-0x2a7 (1)
0x2a0|                     04                        |       .        |      [123]: 4 transition_type 0x2a7-0x2a8 (1)
0x2a0|                        05                     |        .       |      [124]: 5 transition_type 0x2a8-0x2a9 (1)
0x2a0|                           04                  |         .      |      [125]: 4 transition_type 0x2a9-0x2aa (1)
0x2a0|                              05               |          .     |      [126]: 5 transition_type 0x2aa-0x2ab (1)
0x2a0|                                 05            |           .    |      [127]: 5 transition_type 0x2ab-0x2ac (1)
     |                                               |                |    local_time_type_records[0:6]: 0x2ac-0x2d0 (36)
     |                                               |                |      [0]{}: local_time_type 0x2ac-0x2b2 (6)
0x2a0|                                    ff ff b2 c8|            ....|        utoff: -19768 (valid) 0x2ac-0x2b0 (4)
0x2b0|00                                             |.               |        dst: 0 (valid) 0x2b0-0x2b1 (1)
0x2b0|   00                                          | .              |        idx: 0 (valid) 0x2b1-0x2b2 (1)
     |                                               |                |      [1]{}: local_time_type 0x2b2-0x2b8 (6)
0x2b0|      ff ff b2 c0                              |  ....          |        utoff: -19776 (valid) 0x2b2-0x2b6 (4)
0x2b0|                  00                           |      .         |        dst: 0 (valid) 0x2b6-0x2b7 (1)
0x2b0|                     04                        |       .        |        idx: 4 (valid) 0x2b7-0x2b8 (1)
     |                                               |                |      [2]{}: local_time_type 0x2b8-0x2be (6)
0x2b0|                        ff ff c7 c0            |        ....    |        utoff: -14400 (valid) 0x2b8-0x2bc (4)
0x2b0|                                    01         |            .   |        dst: 1 (valid) 0x2bc-0x2bd (1)
0x2b0|                                       08      |             .  |        idx: 8 (valid) 0x2bd-0x2be (1)
     |                                               |                |      [3]{}: local_time_type 0x2be-0x2c4 (6)
0x2b0|                                          ff ff|              ..|        utoff: -18000 (valid) 0x2be-0x2c2 (4)
0x2c0|b9 b0                                          |..              |
0x2c0|      00                                       |  .             |        dst: 0 (valid) 0x2c2-0x2c3 (1)
0x2c0|         0c                                    |   .            |        idx: 12 (valid) 0x2c3-0x2c4 (1)
     |                                               |                |      [4]{}: local_time_type 0x2c4-0x2ca (6)
0x2c0|            ff ff b9 b0                        |    ....        |        utoff: -18000 (valid) 0x2c4-0x2c8 (4)
0x2c0|                        00                     |        .       |        dst: 0 (valid) 0x2c8-0x2c9 (1)
0x2c0|                           0c                  |         .      |        idx: 12 (valid) 0x2c9-0x2ca (1)
     |                                               |                |      [5]{}: local_time_type 0x2ca-0x2d0 (6)
0x2c0|                              ff ff c7 c0      |          ....  |        utoff: -14400 (valid) 0x2ca-0x2ce (4)
0x2c0|                                          01   |              . |        dst: 1 (valid) 0x2ce-0x2cf (1)
0x2c0|                                             08|               .|        idx: 8 (valid) 0x2cf-0x2d0 (1)
     |                                               |                |    time_zone_designations[0:4]: 0x2d0-0x2e0 (16)
0x2d0|4c 4d 54 00                                    |LMT.            |      [0]: "LMT" time_zone_designation 0x2d0-0x2d4 (4)
0x2d0|            48 4d 54 00                        |    HMT.        |      [1]: "HMT" time_zone_designation 0x2d4-0x2d8 (4)
0x2d0|                        43 44 54 00            |        CDT.    |      [2]: "CDT" time_zone_designation 0x2d8-0x2dc (4)
0x2d0|                                    43 53 54 00|            CST.|      [3]: "CST" time_zone_designation 0x2dc-0x2e0 (4)
     |                                               |                |    leap_second_records[0:27]: 0x2e0-0x3b8 (216)
     |                                               |                |      [0]{}: leap_second_record 0x2e0-0x2e8 (8)
0x2e0|04 b2 58 00                                    |..X.            |        occur: "1972-07-01T00:00:00Z" (78796800) 0x2e0-0x2e4 (4)
0x2e0|            00 00 00 01                        |    ....        |        corr: 1 0x2e4-0x2e8 (4)
     |                                               |                |      [1]{}: leap_second_record 0x2e8-0x2f0 (8)
0x2e0|                        05 a4 ec 01            |        ....    |        occur: "1973-01-01T00:00:01Z" (94694401) 0x2e8-0x2ec (4)
0x2e0|                                    00 00 00 02|            ....|        corr: 2 0x2ec-0x2f0 (4)
     |                                               |                |      [2]{}: leap_second_record 0x2f0-0x2f8 (8)
0x2f0|07 86 1f 82                                    |....            |        occur: "1974-01-01T00:00:02Z" (126230402) 0x2f0-0x2f4 (4)
0x2f0|            00 00 00 03                        |    ....        |        corr: 3 0x2f4-0x2f8 (4)
     |                                               |                |      [3]{}: leap_second_record 0x2f8-0x300 (8)
0x2f0|                        09 67 53 03            |        .gS.    |        occur: "1975-01-01T00:00:03Z" (157766403) 0x2f8-0x2fc (4)
0x2f0|                                    00 00 00 04|            ....|        corr: 4 0x2fc-0x300 (4)
     |                                               |                |      [4]{}: leap_second_record 0x300-0x308 (8)
0x300|0b 48 86 84                                    |.H..            |        occur: "1976-01-01T00:00:04Z" (189302404) 0x300-0x304 (4)
0x300|            00 00 00 05                        |    ....        |        corr: 5 0x304-0x308 (4)
     |                                               |                |      [5]{}: leap_second_record 0x308-0x310 (8)
0x300|                        0d 2b 0b 85            |        .+..    |        occur: "1977-01-01T00:00:05Z" (220924805) 0x308-0x30c (4)
0x300|                                    00 00 00 06|            ....|        corr: 6 0x30c-0x310 (4)
     |                                               |                |      [6]{}: leap_second_record 0x310-0x318 (8)
0x310|0f 0c 3f 06                                    |..?.            |        occur: "1978-01-01T00:00:06Z" (252460806) 0x310-0x314 (4)
0x310|            00 00 00 07                        |    ....        |        corr: 7 0x314-0x318 (4)
     |                                               |                |      [7]{}: leap_second_record 0x318-0x320 (8)
0x310|                        10 ed 72 87            |        ..r.    |        occur: "1979-01-01T00:00:07Z" (283996807) 0x318-0x31c (4)
0x310|                                    00 00 00 08|            ....|        corr: 8 0x31c-0x320 (4)
     |                                               |                |      [8]{}: leap_second_record 0x320-0x328 (8)
0x320|12 ce a6 08                                    |....            |        occur: "1980-01-01T00:00:08Z" (315532808) 0x320-0x324 (4)
0x320|            00 00 00 09                        |    ....        |        corr: 9 0x324-0x328 (4)
     |                                               |                |      [9]{}: leap_second_record 0x328-0x330 (8)
0x320|                        15 9f ca 89            |        ....    |        occur: "1981-07-01T00:00:09Z" (362793609) 0x328-0x32c (4)
0x320|                                    00 00 00 0a|            ....|        corr: 10 0x32c-0x330 (4)
     |                                               |                |      [10]{}: leap_second_record 0x330-0x338 (8)
0x330|17 80 fe 0a                                    |....            |        occur: "1982-07-01T00:00:10Z" (394329610) 0x330-0x334 (4)
0x330|            00 00 00 0b                        |    ....        |        corr: 11 0x334-0x338 (4)
     |                                               |                |      [11]{}: leap_second_record 0x338-0x340 (8)
0x330|                        19 62 31 8b            |        .b1.    |        occur: "1983-07-01T00:00:11Z" (425865611) 0x338-0x33c (4)
0x330|                                    00 00 00 0c|            ....|        corr: 12 0x33c-0x340 (4)
     |                                               |                |      [12]{}: leap_second_record 0x340-0x348 (8)
0x340|1d 25 ea 0c                                    |.%..            |        occur: "1985-07-01T00:00:12Z" (489024012) 0x340-0x344 (4)
0x340|            00 00 00 0d                        |    ....        |        corr: 13 0x344-0x348 (4)
     |                                               |                |      [13]{}: leap_second_record 0x348-0x350 (8)
0x340|                        21 da e5 0d            |        !...    |        occur: "1988-01-01T00:00:13Z" (567993613) 0x348-0x34c (4)
0x340|                                    00 00 00 0e|            ....|        corr: 14 0x34c-0x350 (4)
     |                                               |                |      [14]{}: leap_second_record 0x350-0x358 (8)
0x350|25 9e 9d 8e                                    |%...            |        occur: "1990-01-01T00:00:14Z" (631152014) 0x350-0x354 (4)
0x350|            00 00 00 0f                        |    ....        |        corr: 15 0x354-0x358 (4)
     |                                               |                |      [15]{}: leap_second_record 0x358-0x360 (8)
0x350|                        27 7f d1 0f            |        '...    |        occur: "1991-01-01T00:00:15Z" (662688015) 0x358-0x35c (4)
0x350|                                    00 00 00 10|            ....|        corr: 16 0x35c-0x360 (4)
     |                                               |                |      [16]{}: leap_second_record 0x360-0x368 (8)
0x360|2a 50 f5 90                                    |*P..            |        occur: "1992-07-01T00:00:16Z" (709948816) 0x360-0x364 (4)
0x360|            00 00 00 11                        |    ....        |        corr: 17 0x364-0x368 (4)
     |                                               |                |      [17]{}: leap_second_record 0x368-0x370 (8)
0x360|                        2c 32 29 11            |        ,2).    |        occur: "1993-07-01T00:00:17Z" (741484817) 0x368-0x36c (4)
0x360|                                    00 00 00 12|            ....|        corr: 18 0x36c-0x370 (4)
     |                                               |                |      [18]{}: leap_second_record 0x370-0x378 (8)
0x370|2e 13 5c 92                                    |..\.            |        occur: "1994-07-01T00:00:18Z" (773020818) 0x370-0x374 (4)
0x370|            00 00 00 13                        |    ....        |        corr: 19 0x374-0x378 (4)
     |                                               |                |      [19]{}: leap_second_record 0x378-0x380 (8)
0x370|                        30 e7 24 13            |        0.$.    |        occur: "1996-01-01T00:00:19Z" (820454419) 0x378-0x37c (4)
0x370|                                    00 00 00 14|            ....|        corr: 20 0x37c-0x380 (4)
     |                                               |                |      [20]{}: leap_second_record 0x380-0x388 (8)
0x380|33 b8 48 94                                    |3.H.            |        occur: "1997-07-01T00:00:20Z" (867715220) 0x380-0x384 (4)
0x380|            00 00 00 15                        |    ....        |        corr: 21 0x384-0x388 (4)
     |                                               |                |      [21]{}: leap_second_record 0x388-0x390 (8)
0x380|                        36 8c 10 15            |        6...    |        occur: "1999-01-01T00:00:21Z" (915148821) 0x388-0x38c (4)
0x380|                                    00 00 00 16|            ....|        corr: 22 0x38c-0x390 (4)
     |                                               |                |      [22]{}: leap_second_record 0x390-0x398 (8)
0x390|43 b7 1b 96                                    |C...            |        occur: "2006-01-01T00:00:22Z" (1136073622) 0x390-0x394 (4)
0x390|            00 00 00 17                        |    ....        |        corr: 23 0x394-0x398 (4)
     |                                               |                |      [23]{}: leap_second_record 0x398-0x3a0 (8)
0x390|                        49 5c 07 97            |        I\..    |        occur: "2009-01-01T00:00:23Z" (1230768023) 0x398-0x39c (4)
0x390|                                    00 00 00 18|            ....|        corr: 24 0x39c-0x3a0 (4)
     |                                               |                |      [24]{}: leap_second_record 0x3a0-0x3a8 (8)
0x3a0|4f ef 93 18                                    |O...            |        occur: "2012-07-01T00:00:24Z" (1341100824) 0x3a0-0x3a4 (4)
0x3a0|            00 00 00 19                        |    ....        |        corr: 25 0x3a4-0x3a8 (4)
     |                                               |                |      [25]{}: leap_second_record 0x3a8-0x3b0 (8)
0x3a0|                        55 93 2d 99            |        U.-.    |        occur: "2015-07-01T00:00:25Z" (1435708825) 0x3a8-0x3ac (4)
0x3a0|                                    00 00 00 1a|            ....|        corr: 26 0x3ac-0x3b0 (4)
     |                                               |                |      [26]{}: leap_second_record 0x3b0-0x3b8 (8)
0x3b0|58 68 46 9a                                    |XhF.            |        occur: "2017-01-01T00:00:26Z" (1483228826) 0x3b0-0x3b4 (4)
0x3b0|            00 00 00 1b                        |    ....        |        corr: 27 0x3b4-0x3b8 (4)
     |                                               |                |    standard_wall_indicators[0:6]: 0x3b8-0x3be (6)
0x3b0|                        00                     |        .       |      [0]: 0 standard_wall_indicator (valid) 0x3b8-0x3b9 (1)
0x3b0|                           00                  |         .      |      [1]: 0 standard_wall_indicator (valid) 0x3b9-0x3ba (1)
0x3b0|                              00               |          .     |      [2]: 0 standard_wall_indicator (valid) 0x3ba-0x3bb (1)
0x3b0|                                 00            |           .    |      [3]: 0 standard_wall_indicator (valid) 0x3bb-0x3bc (1)
0x3b0|                                    01         |            .   |      [4]: 1 standard_wall_indicator (valid) 0x3bc-0x3bd (1)
0x3b0|                                       01      |             .  |      [5]: 1 standard_wall_indicator (valid) 0x3bd-0x3be (1)
     |                                               |                |    ut_local_indicators[0:0]: 0x3be-0x3be (0)
     |                                               |                |  v2plusheader{}: 0x3be-0x3ea (44)
0x3b0|                                          54 5a|              TZ|    magic: 0x545a6966 (valid) 0x3be-0x3c2 (4)
0x3c0|69 66                                          |if              |
0x3c0|      32                                       |  2             |    ver: "2" (0x32) (valid) 0x3c2-0x3c3 (1)
0x3c0|         00 00 00 00 00 00 00 00 00 00 00 00 00|   .............|    reserved: raw bits 0x3c3-0x3d2 (15)
0x3d0|00 00                                          |..              |
0x3d0|      00 00 00 00                              |  ....          |    isutcnt: 0 0x3d2-0x3d6 (4)
0x3d0|                  00 00 00 06                  |      ....      |    isstdcnt: 6 0x3d6-0x3da (4)
0x3d0|                              00 00 00 1b      |          ....  |    leapcnt: 27 0x3da-0x3de (4)
0x3d0|                                          00 00|              ..|    timecnt: 128 0x3de-0x3e2 (4)
0x3e0|00 80                                          |..              |
0x3e0|      00 00 00 06                              |  ....          |    typecnt: 6 0x3e2-0x3e6 (4)
0x3e0|                  00 00 00 10                  |      ....      |    charcnt: 16 0x3e6-0x3ea (4)
     |                                               |                |  v2plusdatablock{}: 0x3ea-0x9e8 (1534)
     |                                               |                |    transition_times[0:128]: 0x3ea-0x7ea (1024)
0x3e0|                              ff ff ff ff 69 87|          ....i.|      [0]: "1890-01-01T05:29:28Z" (-2524501832) transition_time 0x3ea-0x3f2 (8)
0x3f0|28 b8                                          |(.              |
0x3f0|      ff ff ff ff ac 62 c2 80                  |  .....b..      |      [1]: "1925-07-19T17:29:36Z" (-1402813824) transition_time 0x3f2-0x3fa (8)
0x3f0|                              ff ff ff ff b1 d3|          ......|      [2]: "1928-06-10T05:00:00Z" (-1311534000) transition_time 0x3fa-0x402 (8)
0x400|94 50                                          |.P              |
0x400|      ff ff ff ff b2 74 5d 40                  |  .....t]@      |      [3]: "1928-10-10T04:00:00Z" (-1300996800) transition_time 0x402-0x40a (8)
0x400|                              ff ff ff ff c8 5b|          .....[|      [4]: "1940-06-02T05:00:00Z" (-933534000) transition_time 0x40a-0x412 (8)
0x410|66 d0                                          |f.              |
0x410|      ff ff ff ff c8 d3 51 40                  |  ......Q@      |      [5]: "1940-09-01T04:00:00Z" (-925675200) transition_time 0x412-0x41a (8)
0x410|                              ff ff ff ff ca 3b|          .....;|      [6]: "1941-06-01T05:00:00Z" (-902084400) transition_time 0x41a-0x422 (8)
0x420|48 d0                                          |H.              |
0x420|      ff ff ff ff ca bc 6d c0                  |  ......m.      |      [7]: "1941-09-07T04:00:00Z" (-893620800) transition_time 0x422-0x42a (8)
0x420|                              ff ff ff ff cc 24|          .....$|      [8]: "1942-06-07T05:00:00Z" (-870030000) transition_time 0x42a-0x432 (8)
0x430|65 50                                          |eP              |
0x430|      ff ff ff ff cc 9c 4f c0                  |  ......O.      |      [9]: "1942-09-06T04:00:00Z" (-862171200) transition_time 0x432-0x43a (8)
0x430|                              ff ff ff ff d1 c4|          ......|      [10]: "1945-06-03T05:00:00Z" (-775681200) transition_time 0x43a-0x442 (8)
0x440|0b 50                                          |.P              |
0x440|      ff ff ff ff d2 3b f5 c0                  |  .....;..      |      [11]: "1945-09-02T04:00:00Z" (-767822400) transition_time 0x442-0x44a (8)
0x440|                              ff ff ff ff d3 a3|          ......|      [12]: "1946-06-02T05:00:00Z" (-744231600) transition_time 0x44a-0x452 (8)
0x450|ed 50                                          |.P              |
0x450|      ff ff ff ff d4 1b d7 c0                  |  ........      |      [13]: "1946-09-01T04:00:00Z" (-736372800) transition_time 0x452-0x45a (8)
0x450|                              ff ff ff ff f7 60|          .....`|      [14]: "1965-06-01T05:00:00Z" (-144702000) transition_time 0x45a-0x462 (8)
0x460|05 d0                                          |..              |
0x460|      ff ff ff ff f7 ff 7d 40                  |  ......}@      |      [15]: "1965-09-30T04:00:00Z" (-134251200) transition_time 0x462-0x46a (8)
0x460|                              ff ff ff ff f9 3d|          .....=|      [16]: "1966-05-29T05:00:00Z" (-113425200) transition_time 0x46a-0x472 (8)
0x470|44 d0                                          |D.              |
0x470|      ff ff ff ff f9 e3 53 c0                  |  ......S.      |      [17]: "1966-10-02T04:00:00Z" (-102542400) transition_time 0x472-0x47a (8)
0x470|                              ff ff ff ff fa db|          ......|      [18]: "1967-04-08T05:00:00Z" (-86295600) transition_time 0x47a-0x482 (8)
0x480|3b d0                                          |;.              |
0x480|      ff ff ff ff fb a7 86 40                  |  .......@      |      [19]: "1967-09-10T04:00:00Z" (-72907200) transition_time 0x482-0x48a (8)
0x480|                              ff ff ff ff fc c5|          ......|      [20]: "1968-04-14T05:00:00Z" (-54154800) transition_time 0x48a-0x492 (8)
0x490|a9 d0                                          |..              |
0x490|      ff ff ff ff fd 87 68 40                  |  ......h@      |      [21]: "1968-09-08T04:00:00Z" (-41457600) transition_time 0x492-0x49a (8)
0x490|                              ff ff ff ff fe b8|          ......|      [22]: "1969-04-27T05:00:00Z" (-21495600) transition_time 0x49a-0x4a2 (8)
0x4a0|00 d0                                          |..              |
0x4a0|      ff ff ff ff ff a7 e3 c0                  |  ........      |      [23]: "1969-10-26T04:00:00Z" (-5774400) transition_time 0x4a2-0x4aa (8)
0x4a0|                              00 00 00 00 00 97|          ......|      [24]: "1970-04-26T05:00:00Z" (9954000) transition_time 0x4aa-0x4b2 (8)
0x4b0|e2 d0                                          |..              |
0x4b0|      00 00 00 00 01 87 c5 c0                  |  ........      |      [25]: "1970-10-25T04:00:00Z" (25675200) transition_time 0x4b2-0x4ba (8)
0x4b0|                              00 00 00 00 02 77|          .....w|      [26]: "1971-04-25T05:00:00Z" (41403600) transition_time 0x4ba-0x4c2 (8)
0x4c0|c4 d0                                          |..              |
0x4c0|      00 00 00 00 03 70 e2 40                  |  .....p.@      |      [27]: "1971-10-31T04:00:00Z" (57729600) transition_time 0x4c2-0x4ca (8)
0x4c0|                              00 00 00 00 04 60|          .....`|      [28]: "1972-04-30T05:00:00Z" (73458000) transition_time 0x4ca-0x4d2 (8)
0x4d0|e1 50                                          |.P              |
0x4d0|      00 00 00 00 05 35 14 c1                  |  .....5..      |      [29]: "1972-10-08T04:00:01Z" (87364801) transition_time 0x4d2-0x4da (8)
0x4d0|                              00 00 00 00 06 40|          .....@|      [30]: "1973-04-29T05:00:02Z" (104907602) transition_time 0x4da-0x4e2 (8)
0x4e0|c3 52                                          |.R              |
0x4e0|      00 00 00 00 07 16 48 42                  |  ......HB      |      [31]: "1973-10-08T04:00:02Z" (118900802) transition_time 0x4e2-0x4ea (8)
0x4e0|                              00 00 00 00 08 20|          ..... |      [32]: "1974-04-28T05:00:03Z" (136357203) transition_time 0x4ea-0x4f2 (8)
0x4f0|a5 53                                          |.S              |
0x4f0|      00 00 00 00 08 f7 7b c3                  |  ......{.      |      [33]: "1974-10-08T04:00:03Z" (150436803) transition_time 0x4f2-0x4fa (8)
0x4f0|                              00 00 00 00 0a 00|          ......|      [34]: "1975-04-27T05:00:04Z" (167806804) transition_time 0x4fa-0x502 (8)
0x500|87 54                                          |.T              |
0x500|      00 00 00 00 0a f0 6a 44                  |  ......jD      |      [35]: "1975-10-26T04:00:04Z" (183528004) transition_time 0x502-0x50a (8)
0x500|                              00 00 00 00 0b e0|          ......|      [36]: "1976-04-25T05:00:05Z" (199256405) transition_time 0x50a-0x512 (8)
0x510|69 55                                          |iU              |
0x510|      00 00 00 00 0c d9 86 c5                  |  ........      |      [37]: "1976-10-31T04:00:05Z" (215582405) transition_time 0x512-0x51a (8)
0x510|                              00 00 00 00 0d c0|          ......|      [38]: "1977-04-24T05:00:06Z" (230706006) transition_time 0x51a-0x522 (8)
0x520|4b 56                                          |KV              |
0x520|      00 00 00 00 0e b9 68 c6                  |  ......h.      |      [39]: "1977-10-30T04:00:06Z" (247032006) transition_time 0x522-0x52a (8)
0x520|                              00 00 00 00 0f b2|          ......|      [40]: "1978-05-07T05:00:07Z" (263365207) transition_time 0x52a-0x532 (8)
0x530|a2 57                                          |.W              |
0x530|      00 00 00 00 10 7d 9b 47                  |  .....}.G      |      [41]: "1978-10-08T04:00:07Z" (276667207) transition_time 0x532-0x53a (8)
0x530|                              00 00 00 00 11 51|          .....Q|      [42]: "1979-03-18T05:00:08Z" (290581208) transition_time 0x53a-0x542 (8)
0x540|ea d8                                          |..              |
0x540|      00 00 00 00 12 66 b7 c8                  |  .....f..      |      [43]: "1979-10-14T04:00:08Z" (308721608) transition_time 0x542-0x54a (8)
0x540|                              00 00 00 00 13 31|          .....1|      [44]: "1980-03-16T05:00:09Z" (322030809) transition_time 0x54a-0x552 (8)
0x550|cc d9                                          |..              |
0x550|      00 00 00 00 14 46 99 c9                  |  .....F..      |      [45]: "1980-10-12T04:00:09Z" (340171209) transition_time 0x552-0x55a (8)
0x550|                              00 00 00 00 15 5b|          .....[|      [46]: "1981-05-10T05:00:09Z" (358318809) transition_time 0x55a-0x562 (8)
0x560|82 d9                                          |..              |
0x560|      00 00 00 00 16 26 7b ca                  |  .....&{.      |      [47]: "1981-10-11T04:00:10Z" (371620810) transition_time 0x562-0x56a (8)
0x560|                              00 00 00 00 17 3b|          .....;|      [48]: "1982-05-09T05:00:10Z" (389768410) transition_time 0x56a-0x572 (8)
0x570|64 da                                          |d.              |
0x570|      00 00 00 00 18 06 5d cb                  |  ......].      |      [49]: "1982-10-10T04:00:11Z" (403070411) transition_time 0x572-0x57a (8)
0x570|                              00 00 00 00 19 1b|          ......|      [50]: "1983-05-08T05:00:11Z" (421218011) transition_time 0x57a-0x582 (8)
0x580|46 db                                          |F.              |
0x580|      00 00 00 00 19 e6 3f cc                  |  ......?.      |      [51]: "1983-10-09T04:00:12Z" (434520012) transition_time 0x582-0x58a (8)
0x580|                              00 00 00 00 1a fb|          ......|      [52]: "1984-05-06T05:00:12Z" (452667612) transition_time 0x58a-0x592 (8)
0x590|28 dc                                          |(.              |
0x590|      00 00 00 00 1b cf 5c 4c                  |  ......\L      |      [53]: "1984-10-14T04:00:12Z" (466574412) transition_time 0x592-0x59a (8)
0x590|                              00 00 00 00 1c db|          ......|      [54]: "1985-05-05T05:00:12Z" (484117212) transition_time 0x59a-0x5a2 (8)
0x5a0|0a dc                                          |..              |
0x5a0|      00 00 00 00 1d af 3e 4d                  |  ......>M      |      [55]: "1985-10-13T04:00:13Z" (498024013) transition_time 0x5a2-0x5aa (8)
0x5a0|                              00 00 00 00 1e 7a|          .....z|      [56]: "1986-03-16T05:00:13Z" (511333213) transition_time 0x5aa-0x5b2 (8)
0x5b0|53 5d                                          |S]              |
0x5b0|      00 00 00 00 1f 8f 20 4d                  |  ...... M      |      [57]: "1986-10-12T04:00:13Z" (529473613) transition_time 0x5b2-0x5ba (8)
0x5b0|                              00 00 00 00 20 5a|          .... Z|      [58]: "1987-03-15T05:00:13Z" (542782813) transition_time 0x5ba-0x5c2 (8)
0x5c0|35 5d                                          |5]              |
0x5c0|      00 00 00 00 21 6f 02 4d                  |  ....!o.M      |      [59]: "1987-10-11T04:00:13Z" (560923213) transition_time 0x5c2-0x5ca (8)
0x5c0|                              00 00 00 00 22 43|          ...."C|      [60]: "1988-03-20T05:00:14Z" (574837214) transition_time 0x5ca-0x5d2 (8)
0x5d0|51 de                                          |Q.              |
0x5d0|      00 00 00 00 23 4e e4 4e                  |  ....#N.N      |      [61]: "1988-10-09T04:00:14Z" (592372814) transition_time 0x5d2-0x5da (8)
0x5d0|                              00 00 00 00 24 23|          ....$#|      [62]: "1989-03-19T05:00:14Z" (606286814) transition_time 0x5da-0x5e2 (8)
0x5e0|33 de                                          |3.              |
0x5e0|      00 00 00 00 25 2e c6 4e                  |  ....%..N      |      [63]: "1989-10-08T04:00:14Z" (623822414) transition_time 0x5e2-0x5ea (8)
0x5e0|                              00 00 00 00 26 15|          ....&.|      [64]: "1990-04-01T05:00:15Z" (638946015) transition_time 0x5ea-0x5f2 (8)
0x5f0|8a df                                          |..              |
0x5f0|      00 00 00 00 27 17 e2 cf                  |  ....'...      |      [65]: "1990-10-14T04:00:15Z" (655876815) transition_time 0x5f2-0x5fa (8)
0x5f0|                              00 00 00 00 27 fe|          ....'.|      [66]: "1991-04-07T05:00:16Z" (671000416) transition_time 0x5fa-0x602 (8)
0x600|a7 60                                          |.`              |
0x600|      00 00 00 00 28 f7 d2 e0                  |  ....(...      |      [67]: "1991-10-13T05:00:16Z" (687330016) transition_time 0x602-0x60a (8)
0x600|                              00 00 00 00 29 de|          ....).|      [68]: "1992-04-05T05:00:16Z" (702450016) transition_time 0x60a-0x612 (8)
0x610|89 60                                          |.`              |
0x610|      00 00 00 00 2a d7 b4 e1                  |  ....*...      |      [69]: "1992-10-11T05:00:17Z" (718779617) transition_time 0x612-0x61a (8)
0x610|                              00 00 00 00 2b be|          ....+.|      [70]: "1993-04-04T05:00:17Z" (733899617) transition_time 0x61a-0x622 (8)
0x620|6b 61                                          |ka              |
0x620|      00 00 00 00 2c b7 96 e2                  |  ....,...      |      [71]: "1993-10-10T05:00:18Z" (750229218) transition_time 0x622-0x62a (8)
0x620|                              00 00 00 00 2d 9e|          ....-.|      [72]: "1994-04-03T05:00:18Z" (765349218) transition_time 0x62a-0x632 (8)
0x630|4d 62                                          |Mb              |
0x630|      00 00 00 00 2e 97 78 e3                  |  ......x.      |      [73]: "1994-10-09T05:00:19Z" (781678819) transition_time 0x632-0x63a (8)
0x630|                              00 00 00 00 2f 7e|          ..../~|      [74]: "1995-04-02T05:00:19Z" (796798819) transition_time 0x63a-0x642 (8)
0x640|2f 63                                          |/c              |
0x640|      00 00 00 00 30 77 5a e3                  |  ....0wZ.      |      [75]: "1995-10-08T05:00:19Z" (813128419) transition_time 0x642-0x64a (8)
0x640|                              00 00 00 00 31 67|          ....1g|      [76]: "1996-04-07T05:00:20Z" (828853220) transition_time 0x64a-0x652 (8)
0x650|4b e4                                          |K.              |
0x650|      00 00 00 00 32 57 3c e4                  |  ....2W<.      |      [77]: "1996-10-06T05:00:20Z" (844578020) transition_time 0x652-0x65a (8)
0x650|                              00 00 00 00 33 47|          ....3G|      [78]: "1997-04-06T05:00:20Z" (860302820) transition_time 0x65a-0x662 (8)
0x660|2d e4                                          |-.              |
0x660|      00 00 00 00 34 40 59 65                  |  ....4@Ye      |      [79]: "1997-10-12T05:00:21Z" (876632421) transition_time 0x662-0x66a (8)
0x660|                              00 00 00 00 35 1d|          ....5.|      [80]: "1998-03-29T05:00:21Z" (891147621) transition_time 0x66a-0x672 (8)
0x670|d5 65                                          |.e              |
0x670|      00 00 00 00 36 32 b0 65                  |  ....62.e      |      [81]: "1998-10-25T05:00:21Z" (909291621) transition_time 0x672-0x67a (8)
0x670|                              00 00 00 00 36 fd|          ....6.|      [82]: "1999-03-28T05:00:22Z" (922597222) transition_time 0x67a-0x682 (8)
0x680|b7 66                                          |.f              |
0x680|      00 00 00 00 38 1b cc e6                  |  ....8...      |      [83]: "1999-10-31T05:00:22Z" (941346022) transition_time 0x682-0x68a (8)
0x680|                              00 00 00 00 38 e6|          ....8.|      [84]: "2000-04-02T05:00:22Z" (954651622) transition_time 0x68a-0x692 (8)
0x690|d3 e6                                          |..              |
0x690|      00 00 00 00 39 fb ae e6                  |  ....9...      |      [85]: "2000-10-29T05:00:22Z" (972795622) transition_time 0x692-0x69a (8)
0x690|                              00 00 00 00 3a c6|          ....:.|      [86]: "2001-04-01T05:00:22Z" (986101222) transition_time 0x69a-0x6a2 (8)
0x6a0|b5 e6                                          |..              |
0x6a0|      00 00 00 00 3b db 90 e6                  |  ....;...      |      [87]: "2001-10-28T05:00:22Z" (1004245222) transition_time 0x6a2-0x6aa (8)
0x6a0|                              00 00 00 00 3c af|          ....<.|      [88]: "2002-04-07T05:00:22Z" (1018155622) transition_time 0x6aa-0x6b2 (8)
0x6b0|d2 66                                          |.f              |
0x6b0|      00 00 00 00 3d bb 72 e6                  |  ....=.r.      |      [89]: "2002-10-27T05:00:22Z" (1035694822) transition_time 0x6b2-0x6ba (8)
0x6b0|                              00 00 00 00 3e 8f|          ....>.|      [90]: "2003-04-06T05:00:22Z" (1049605222) transition_time 0x6ba-0x6c2 (8)
0x6c0|b4 66                                          |.f              |
0x6c0|      00 00 00 00 3f 9b 54 e6                  |  ....?.T.      |      [91]: "2003-10-26T05:00:22Z" (1067144422) transition_time 0x6c2-0x6ca (8)
0x6c0|                              00 00 00 00 40 66|          ....@f|      [92]: "2004-03-28T05:00:22Z" (1080450022) transition_time 0x6ca-0x6d2 (8)
0x6d0|5b e6                                          |[.              |
0x6d0|      00 00 00 00 45 44 35 67                  |  ....ED5g      |      [93]: "2006-10-29T05:00:23Z" (1162098023) transition_time 0x6d2-0x6da (8)
0x6d0|                              00 00 00 00 45 f3|          ....E.|      [94]: "2007-03-11T05:00:23Z" (1173589223) transition_time 0x6da-0x6e2 (8)
0x6e0|8c e7                                          |..              |
0x6e0|      00 00 00 00 47 24 17 67                  |  ....G$.g      |      [95]: "2007-10-28T05:00:23Z" (1193547623) transition_time 0x6e2-0x6ea (8)
0x6e0|                              00 00 00 00 47 dc|          ....G.|      [96]: "2008-03-16T05:00:23Z" (1205643623) transition_time 0x6ea-0x6f2 (8)
0x6f0|a9 67                                          |.g              |
0x6f0|      00 00 00 00 49 03 f9 67                  |  ....I..g      |      [97]: "2008-10-26T05:00:23Z" (1224997223) transition_time 0x6f2-0x6fa (8)
0x6f0|                              00 00 00 00 49 b3|          ....I.|      [98]: "2009-03-08T05:00:24Z" (1236488424) transition_time 0x6fa-0x702 (8)
0x700|50 e8                                          |P.              |
0x700|      00 00 00 00 4a e3 db 68                  |  ....J..h      |      [99]: "2009-10-25T05:00:24Z" (1256446824) transition_time 0x702-0x70a (8)
0x700|                              00 00 00 00 4b 9c|          ....K.|      [100]: "2010-03-14T05:00:24Z" (1268542824) transition_time 0x70a-0x712 (8)
0x710|6d 68                                          |mh              |
0x710|      00 00 00 00 4c cc f7 e8                  |  ....L...      |      [101]: "2010-10-31T05:00:24Z" (1288501224) transition_time 0x712-0x71a (8)
0x710|                              00 00 00 00 4d 85|          ....M.|      [102]: "2011-03-20T05:00:24Z" (1300597224) transition_time 0x71a-0x722 (8)
0x720|89 e8                                          |..              |
0x720|      00 00 00 00 4e bf 4e e8                  |  ....N.N.      |      [103]: "2011-11-13T05:00:24Z" (1321160424) transition_time 0x722-0x72a (8)
0x720|                              00 00 00 00 4f 77|          ....Ow|      [104]: "2012-04-01T05:00:24Z" (1333256424) transition_time 0x72a-0x732 (8)
0x730|e0 e8                                          |..              |
0x730|      00 00 00 00 50 95 f6 69                  |  ....P..i      |      [105]: "2012-11-04T05:00:25Z" (1352005225) transition_time 0x732-0x73a (8)
0x730|                              00 00 00 00 51 3c|          ....Q<|      [106]: "2013-03-10T05:00:25Z" (1362891625) transition_time 0x73a-0x742 (8)
0x740|13 69                                          |.i              |
0x740|      00 00 00 00 52 75 d8 69                  |  ....Ru.i      |      [107]: "2013-11-03T05:00:25Z" (1383454825) transition_time 0x742-0x74a (8)
0x740|                              00 00 00 00 53 1b|          ....S.|      [108]: "2014-03-09T05:00:25Z" (1394341225) transition_time 0x74a-0x752 (8)
0x750|f5 69                                          |.i              |
0x750|      00 00 00 00 54 55 ba 69                  |  ....TU.i      |      [109]: "2014-11-02T05:00:25Z" (1414904425) transition_time 0x752-0x75a (8)
0x750|                              00 00 00 00 54 fb|          ....T.|      [110]: "2015-03-08T05:00:25Z" (1425790825) transition_time 0x75a-0x762 (8)
0x760|d7 69                                          |.i              |
0x760|      00 00 00 00 56 35 9c 6a                  |  ....V5.j      |      [111]: "2015-11-01T05:00:26Z" (1446354026) transition_time 0x762-0x76a (8)
0x760|                              00 00 00 00 56 e4|          ....V.|      [112]: "2016-03-13T05:00:26Z" (1457845226) transition_time 0x76a-0x772 (8)
0x770|f3 ea                                          |..              |
0x770|      00 00 00 00 58 1e b8 ea                  |  ....X...      |      [113]: "2016-11-06T05:00:26Z" (1478408426) transition_time 0x772-0x77a (8)
0x770|                              00 00 00 00 58 c4|          ....X.|      [114]: "2017-03-12T05:00:27Z" (1489294827) transition_time 0x77a-0x782 (8)
0x780|d5 eb                                          |..              |
0x780|      00 00 00 00 59 fe 9a eb                  |  ....Y...      |      [115]: "2017-11-05T05:00:27Z" (1509858027) transition_time 0x782-0x78a (8)
0x780|                              00 00 00 00 5a a4|          ....Z.|      [116]: "2018-03-11T05:00:27Z" (1520744427) transition_time 0x78a-0x792 (8)
0x790|b7 eb                                          |..              |
0x790|      00 00 00 00 5b de 7c eb                  |  ....[.|.      |      [117]: "2018-11-04T05:00:27Z" (1541307627) transition_time 0x792-0x79a (8)
0x790|                              00 00 00 00 5c 84|          ....\.|      [118]: "2019-03-10T05:00:27Z" (1552194027) transition_time 0x79a-0x7a2 (8)
0x7a0|99 eb                                          |..              |
0x7a0|      00 00 00 00 5d be 5e eb                  |  ....].^.      |      [119]: "2019-11-03T05:00:27Z" (1572757227) transition_time 0x7a2-0x7aa (8)
0x7a0|                              00 00 00 00 5e 64|          ....^d|      [120]: "2020-03-08T05:00:27Z" (1583643627) transition_time 0x7aa-0x7b2 (8)
0x7b0|7b eb                                          |{.              |
0x7b0|      00 00 00 00 5f 9e 40 eb                  |  ...._.@.      |      [121]: "2020-11-01T05:00:27Z" (1604206827) transition_time 0x7b2-0x7ba (8)
0x7b0|                              00 00 00 00 60 4d|          ....`M|      [122]: "2021-03-14T05:00:27Z" (1615698027) transition_time 0x7ba-0x7c2 (8)
0x7c0|98 6b                                          |.k              |
0x7c0|      00 00 00 00 61 87 5d 6b                  |  ....a.]k      |      [123]: "2021-11-07T05:00:27Z" (1636261227) transition_time 0x7c2-0x7ca (8)
0x7c0|                              00 00 00 00 62 2d|          ....b-|      [124]: "2022-03-13T05:00:27Z" (1647147627) transition_time 0x7ca-0x7d2 (8)
0x7d0|7a 6b                                          |zk              |
0x7d0|      00 00 00 00 63 67 3f 6b                  |  ....cg?k      |      [125]: "2022-11-06T05:00:27Z" (1667710827) transition_time 0x7d2-0x7da (8)
0x7d0|                              00 00 00 00 64 0d|          ....d.|      [126]: "2023-03-12T05:00:27Z" (1678597227) transition_time 0x7da-0x7e2 (8)
0x7e0|5c 6b                                          |\k              |
0x7e0|      00 00 00 00 64 9b 78 1b                  |  ....d.x.      |      [127]: "2023-06-28T00:00:27Z" (1687910427) transition_time 0x7e2-0x7ea (8)
     |                                               |                |    transition_types[0:128]: 0x7ea-0x86a (128)
0x7e0|                              01               |          .     |      [0]: 1 transition_type 0x7ea-0x7eb (1)
0x7e0|                                 03            |           .    |      [1]: 3 transition_type 0x7eb-0x7ec (1)
0x7e0|                                    02         |            .   |      [2]: 2 transition_type 0x7ec-0x7ed (1)
0x7e0|                                       03      |             .  |      [3]: 3 transition_type 0x7ed-0x7ee (1)
0x7e0|                                          02   |              . |      [4]: 2 transition_type 0x7ee-0x7ef (1)
0x7e0|                                             03|               .|      [5]: 3 transition_type 0x7ef-0x7f0 (1)
0x7f0|02                                             |.               |      [6]: 2 transition_type 0x7f0-0x7f1 (1)
0x7f0|   03                                          | .              |      [7]: 3 transition_type 0x7f1-0x7f2 (1)
0x7f0|      02                                       |  .             |      [8]: 2 transition_type 0x7f2-0x7f3 (1)
0x7f0|         03                                    |   .            |      [9]: 3 transition_type 0x7f3-0x7f4 (1)
0x7f0|            02                                 |    .           |      [10]: 2 transition_type 0x7f4-0x7f5 (1)
0x7f0|               03                              |     .          |      [11]: 3 transition_type 0x7f5-0x7f6 (1)
0x7f0|                  02                           |      .         |      [12]: 2 transition_type 0x7f6-0x7f7 (1)
0x7f0|                     03                        |       .        |      [13]: 3 transition_type 0x7f7-0x7f8 (1)
0x7f0|                        02                     |        .       |      [14]: 2 transition_type 0x7f8-0x7f9 (1)
0x7f0|                           03                  |         .      |      [15]: 3 transition_type 0x7f9-0x7fa (1)
0x7f0|                              02               |          .     |      [16]: 2 transition_type 0x7fa-0x7fb (1)
0x7f0|                                 03            |           .    |      [17]: 3 transition_type 0x7fb-0x7fc (1)
0x7f0|                                    02         |            .   |      [18]: 2 transition_type 0x7fc-0x7fd (1)
0x7f0|                                       03      |             .  |      [19]: 3 transition_type 0x7fd-0x7fe (1)
0x7f0|                                          02   |              . |      [20]: 2 transition_type 0x7fe-0x7ff (1)
0x7f0|                                             03|               .|      [21]: 3 transition_type 0x7ff-0x800 (1)
0x800|02                                             |.               |      [22]: 2 transition_type 0x800-0x801 (1)
0x800|   03                                          | .              |      [23]: 3 transition_type 0x801-0x802 (1)
0x800|      02                                       |  .             |      [24]: 2 transition_type 0x802-0x803 (1)
0x800|         03                                    |   .            |      [25]: 3 transition_type 0x803-0x804 (1)
0x800|            02                                 |    .           |      [26]: 2 transition_type 0x804-0x805 (1)
0x800|               03                              |     .          |      [27]: 3 transition_type 0x805-0x806 (1)
0x800|                  02                           |      .         |      [28]: 2 transition_type 0x806-0x807 (1)
0x800|                     03                        |       .        |      [29]: 3 transition_type 0x807-0x808 (1)
0x800|                        02                     |        .       |      [30]: 2 transition_type 0x808-0x809 (1)
0x800|                           03                  |         .      |      [31]: 3 transition_type 0x809-0x80a (1)
0x800|                              02               |          .     |      [32]: 2 transition_type 0x80a-0x80b (1)
0x800|                                 03            |           .    |      [33]: 3 transition_type 0x80b-0x80c (1)
0x800|                                    02         |            .   |      [34]: 2 transition_type 0x80c-0x80d (1)
0x800|                                       03      |             .  |      [35]: 3 transition_type 0x80d-0x80e (1)
0x800|                                          02   |              . |      [36]: 2 transition_type 0x80e-0x80f (1)
0x800|                                             03|               .|      [37]: 3 transition_type 0x80f-0x810 (1)
0x810|02                                             |.               |      [38]: 2 transition_type 0x810-0x811 (1)
0x810|   03                                          | .              |      [39]: 3 transition_type 0x811-0x812 (1)
0x810|      02                                       |  .             |      [40]: 2 transition_type 0x812-0x813 (1)
0x810|         03                                    |   .            |      [41]: 3 transition_type 0x813-0x814 (1)
0x810|            02                                 |    .           |      [42]: 2 transition_type 0x814-0x815 (1)
0x810|               03                              |     .          |      [43]: 3 transition_type 0x815-0x816 (1)
0x810|                  02                           |      .         |      [44]: 2 transition_type 0x816-0x817 (1)
0x810|                     03                        |       .        |      [45]: 3 transition_type 0x817-0x818 (1)
0x810|                        02                     |        .       |      [46]: 2 transition_type 0x818-0x819 (1)
0x810|                           03                  |         .      |      [47]: 3 transition_type 0x819-0x81a (1)
0x810|                              02               |          .     |      [48]: 2 transition_type 0x81a-0x81b (1)
0x810|                                 03            |           .    |      [49]: 3 transition_type 0x81b-0x81c (1)
0x810|                                    02         |            .   |      [50]: 2 transition_type 0x81c-0x81d (1)
0x810|                                       03      |             .  |      [51]: 3 transition_type 0x81d-0x81e (1)
0x810|                                          02   |              . |      [52]: 2 transition_type 0x81e-0x81f (1)
0x810|                                             03|               .|      [53]: 3 transition_type 0x81f-0x820 (1)
0x820|02                                             |.               |      [54]: 2 transition_type 0x820-0x821 (1)
0x820|   03                                          | .              |      [55]: 3 transition_type 0x821-0x822 (1)
0x820|      02                                       |  .             |      [56]: 2 transition_type 0x822-0x823 (1)
0x820|         03                                    |   .            |      [57]: 3 transition_type 0x823-0x824 (1)
0x820|            02                                 |    .           |      [58]: 2 transition_type 0x824-0x825 (1)
0x820|               03                              |     .          |      [59]: 3 transition_type 0x825-0x826 (1)
0x820|                  02                           |      .         |      [60]: 2 transition_type 0x826-0x827 (1)
0x820|                     03                        |       .        |      [61]: 3 transition_type 0x827-0x828 (1)
0x820|                        02                     |        .       |      [62]: 2 transition_type 0x828-0x829 (1)
0x820|                           03                  |         .      |      [63]: 3 transition_type 0x829-0x82a (1)
0x820|                              02               |          .     |      [64]: 2 transition_type 0x82a-0x82b (1)
0x820|                                 03            |           .    |      [65]: 3 transition_type 0x82b-0x82c (1)
0x820|                                    02         |            .   |      [66]: 2 transition_type 0x82c-0x82d (1)
0x820|                                       04      |             .  |      [67]: 4 transition_type 0x82d-0x82e (1)
0x820|                                          02   |              . |      [68]: 2 transition_type 0x82e-0x82f (1)
0x820|                                             04|               .|      [69]: 4 transition_type 0x82f-0x830 (1)
0x830|02                                             |.               |      [70]: 2 transition_type 0x830-0x831 (1)
0x830|   04                                          | .              |      [71]: 4 transition_type 0x831-0x832 (1)
0x830|      02                                       |  .             |      [72]: 2 transition_type 0x832-0x833 (1)
0x830|         04                                    |   .            |      [73]: 4 transition_type 0x833-0x834 (1)
0x830|            02                                 |    .           |      [74]: 2 transition_type 0x834-0x835 (1)
0x830|               04                              |     .          |      [75]: 4 transition_type 0x835-0x836 (1)
0x830|                  02                           |      .         |      [76]: 2 transition_type 0x836-0x837 (1)
0x830|                     04                        |       .        |      [77]: 4 transition_type 0x837-0x838 (1)
0x830|                        02                     |        .       |      [78]: 2 transition_type 0x838-0x839 (1)
0x830|                           04                  |         .      |      [79]: 4 transition_type 0x839-0x83a (1)
0x830|                              05               |          .     |      [80]: 5 transition_type 0x83a-0x83b (1)
0x830|                                 04            |           .    |      [81]: 4 transition_type 0x83b-0x83c (1)
0x830|                                    05         |            .   |      [82]: 5 transition_type 0x83c-0x83d (1)
0x830|                                       04      |             .  |      [83]: 4 transition_type 0x83d-0x83e (1)
0x830|                                          05   |              . |      [84]: 5 transition_type 0x83e-0x83f (1)
0x830|                                             04|               .|      [85]: 4 transition_type 0x83f-0x840 (1)
0x840|05                                             |.               |      [86]: 5 transition_type 0x840-0x841 (1)
0x840|   04                                          | .              |      [87]: 4 transition_type 0x841-0x842 (1)
0x840|      05                                       |  .             |      [88]: 5 transition_type 0x842-0x843 (1)
0x840|         04                                    |   .            |      [89]: 4 transition_type 0x843-0x844 (1)
0x840|            05                                 |    .           |      [90]: 5 transition_type 0x844-0x845 (1)
0x840|               04                              |     .          |      [91]: 4 transition_type 0x845-0x846 (1)
0x840|                  05                           |      .         |      [92]: 5 transition_type 0x846-0x847 (1)
0x840|                     04                        |       .        |      [93]: 4 transition_type 0x847-0x848 (1)
0x840|                        05                     |        .       |      [94]: 5 transition_type 0x848-0x849 (1)
0x840|                           04                  |         .      |      [95]: 4 transition_type 0x849-0x84a (1)
0x840|                              05               |          .     |      [96]: 5 transition_type 0x84a-0x84b (1)
0x840|                                 04            |           .    |      [97]: 4 transition_type 0x84b-0x84c (1)
0x840|                                    05         |            .   |      [98]: 5 transition_type 0x84c-0x84d (1)
0x840|                                       04      |             .  |      [99]: 4 transition_type 0x84d-0x84e (1)
0x840|                                          05   |              . |      [100]: 5 transition_type 0x84e-0x84f (1)
0x840|                                             04|               .|      [101]: 4 transition_type 0x84f-0x850 (1)
0x850|05                                             |.               |      [102]: 5 transition_type 0x850-0x851 (1)
0x850|   04                                          | .              |      [103]: 4 transition_type 0x851-0x852 (1)
0x850|      05                                       |  .             |      [104]: 5 transition_type 0x852-0x853 (1)
0x850|         04                                    |   .            |      [105]: 4 transition_type 0x853-0x854 (1)
0x850|            05                                 |    .           |      [106]: 5 transition_type 0x854-0x855 (1)
0x850|               04                              |     .          |      [107]: 4 transition_type 0x855-0x856 (1)
0x850|                  05                           |      .         |      [108]: 5 transition_type 0x856-0x857 (1)
0x850|                     04                        |       .        |      [109]: 4 transition_type 0x857-0x858 (1)
0x850|                        05                     |        .       |      [110]: 5 transition_type 0x858-0x859 (1)
0x850|                           04                  |         .      |      [111]: 4 transition_type 0x859-0x85a (1)
0x850|                              05               |          .     |      [112]: 5 transition_type 0x85a-0x85b (1)
0x850|                                 04            |           .    |      [113]: 4 transition_type 0x85b-0x85c (1)
0x850|                                    05         |            .   |      [114]: 5 transition_type 0x85c-0x85d (1)
0x850|                                       04      |             .  |      [115]: 4 transition_type 0x85d-0x85e (1)
0x850|                                          05   |              . |      [116]: 5 transition_type 0x85e-0x85f (1)
0x850|                                             04|               .|      [117]: 4 transition_type 0x85f-0x860 (1)
0x860|05                                             |.               |      [118]: 5 transition_type 0x860-0x861 (1)
0x860|   04                                          | .              |      [119]: 4 transition_type 0x861-0x862 (1)
0x860|      05                                       |  .             |      [120]: 5 transition_type 0x862-0x863 (1)
0x860|         04                                    |   .            |      [121]: 4 transition_type 0x863-0x864 (1)
0x860|            05                                 |    .           |      [122]: 5 transition_type 0x864-0x865 (1)
0x860|               04                              |     .          |      [123]: 4 transition_type 0x865-0x866 (1)
0x860|                  05                           |      .         |      [124]: 5 transition_type 0x866-0x867 (1)
0x860|                     04                        |       .        |      [125]: 4 transition_type 0x867-0x868 (1)
0x860|                        05                     |        .       |      [126]: 5 transition_type 0x868-0x869 (1)
0x860|                           05                  |         .      |      [127]: 5 transition_type 0x869-0x86a (1)
     |                                               |                |    local_time_type_records[0:6]: 0x86a-0x88e (36)
     |                                               |                |      [0]{}: local_time_type 0x86a-0x870 (6)
0x860|                              ff ff b2 c8      |          ....  |        utoff: -19768 (valid) 0x86a-0x86e (4)
0x860|                                          00   |              . |        dst: 0 (valid) 0x86e-0x86f (1)
0x860|                                             00|               .|        idx: 0 (valid) 0x86f-0x870 (1)
     |                                               |                |      [1]{}: local_time_type 0x870-0x876 (6)
0x870|ff ff b2 c0                                    |....            |        utoff: -19776 (valid) 0x870-0x874 (4)
0x870|            00                                 |    .           |        dst: 0 (valid) 0x874-0x875 (1)
0x870|               04                              |     .          |        idx: 4 (valid) 0x875-0x876 (1)
     |                                               |                |      [2]{}: local_time_type 0x876-0x87c (6)
0x870|                  ff ff c7 c0                  |      ....      |        utoff: -14400 (valid) 0x876-0x87a (4)
0x870|                              01               |          .     |        dst: 1 (valid) 0x87a-0x87b (1)
0x870|                                 08            |           .    |        idx: 8 (valid) 0x87b-0x87c (1)
     |                                               |                |      [3]{}: local_time_type 0x87c-0x882 (6)
0x870|                                    ff ff b9 b0|            ....|        utoff: -18000 (valid) 0x87c-0x880 (4)
0x880|00                                             |.               |        dst: 0 (valid) 0x880-0x881 (1)
0x880|   0c                                          | .              |        idx: 12 (valid) 0x881-0x882 (1)
     |                                               |                |      [4]{}: local_time_type 0x882-0x888 (6)
0x880|      ff ff b9 b0                              |  ....          |        utoff: -18000 (valid) 0x882-0x886 (4)
0x880|                  00                           |      .         |        dst: 0 (valid) 0x886-0x887 (1)
0x880|                     0c                        |       .        |        idx: 12 (valid) 0x887-0x888 (1)
     |                                               |                |      [5]{}: local_time_type 0x888-0x88e (6)
0x880|                        ff ff c7 c0            |        ....    |        utoff: -14400 (valid) 0x888-0x88c (4)
0x880|                                    01         |            .   |        dst: 1 (valid) 0x88c-0x88d (1)
0x880|                                       08      |             .  |        idx: 8 (valid) 0x88d-0x88e (1)
     |                                               |                |    time_zone_designations[0:4]: 0x88e-0x89e (16)
0x880|                                          4c 4d|              LM|      [0]: "LMT" time_zone_designation 0x88e-0x892 (4)
0x890|54 00                                          |T.              |
0x890|      48 4d 54 00                              |  HMT.          |      [1]: "HMT" time_zone_designation 0x892-0x896 (4)
0x890|                  43 44 54 00                  |      CDT.      |      [2]: "CDT" time_zone_designation 0x896-0x89a (4)
0x890|                              43 53 54 00      |          CST.  |      [3]: "CST" time_zone_designation 0x89a-0x89e (4)
     |                                               |                |    leap_second_records[0:27]: 0x89e-0x9e2 (324)
     |                                               |                |      [0]{}: leap_second_record 0x89e-0x8aa (12)
0x890|                                          00 00|              ..|        occur: "1972-07-01T00:00:00Z" (78796800) 0x89e-0x8a6 (8)
0x8a0|00 00 04 b2 58 00                              |....X.          |
0x8a0|                  00 00 00 01                  |      ....      |        corr: 1 0x8a6-0x8aa (4)
     |                                               |                |      [1]{}: leap_second_record 0x8aa-0x8b6 (12)
0x8a0|                              00 00 00 00 05 a4|          ......|        occur: "1973-01-01T00:00:01Z" (94694401) 0x8aa-0x8b2 (8)
0x8b0|ec 01                                          |..              |
0x8b0|      00 00 00 02                              |  ....          |        corr: 2 0x8b2-0x8b6 (4)
     |                                               |                |      [2]{}: leap_second_record 0x8b6-0x8c2 (12)
0x8b0|                  00 00 00 00 07 86 1f 82      |      ........  |        occur: "1974-01-01T00:00:02Z" (126230402) 0x8b6-0x8be (8)
0x8b0|                                          00 00|              ..|        corr: 3 0x8be-0x8c2 (4)
0x8c0|00 03                                          |..              |
     |                                               |                |      [3]{}: leap_second_record 0x8c2-0x8ce (12)
0x8c0|      00 00 00 00 09 67 53 03                  |  .....gS.      |        occur: "1975-01-01T00:00:03Z" (157766403) 0x8c2-0x8ca (8)
0x8c0|                              00 00 00 04      |          ....  |        corr: 4 0x8ca-0x8ce (4)
     |                                               |                |      [4]{}: leap_second_record 0x8ce-0x8da (12)
0x8c0|                                          00 00|              ..|        occur: "1976-01-01T00:00:04Z" (189302404) 0x8ce-0x8d6 (8)
0x8d0|00 00 0b 48 86 84                              |...H..          |
0x8d0|                  00 00 00 05                  |      ....      |        corr: 5 0x8d6-0x8da (4)
     |                                               |                |      [5]{}: leap_second_record 0x8da-0x8e6 (12)
0x8d0|                              00 00 00 00 0d 2b|          .....+|        occur: "1977-01-01T00:00:05Z" (220924805) 0x8da-0x8e2 (8)
0x8e0|0b 85                                          |..              |
0x8e0|      00 00 00 06                              |  ....          |        corr: 6 0x8e2-0x8e6 (4)
     |                                               |                |      [6]{}: leap_second_record 0x8e6-0x8f2 (12)
0x8e0|                  00 00 00 00 0f 0c 3f 06      |      ......?.  |        occur: "1978-01-01T00:00:06Z" (252460806) 0x8e6-0x8ee (8)
0x8e0|                                          00 00|              ..|        corr: 7 0x8ee-0x8f2 (4)
0x8f0|00 07                                          |..              |
     |                                               |                |      [7]{}: leap_second_record 0x8f2-0x8fe (12)
0x8f0|      00 00 00 00 10 ed 72 87                  |  ......r.      |        occur: "1979-01-01T00:00:07Z" (283996807) 0x8f2-0x8fa (8)
0x8f0|                              00 00 00 08      |          ....  |        corr: 8 0x8fa-0x8fe (4)
     |                                               |                |      [8]{}: leap_second_record 0x8fe-0x90a (12)
0x8f0|                                          00 00|              ..|        occur: "1980-01-01T00:00:08Z" (315532808) 0x8fe-0x906 (8)
0x900|00 00 12 ce a6 08                              |......          |
0x900|                  00 00 00 09                  |      ....      |        corr: 9 0x906-0x90a (4)
     |                                               |                |      [9]{}: leap_second_record 0x90a-0x916 (12)
0x900|                              00 00 00 00 15 9f|          ......|        occur: "1981-07-01T00:00:09Z" (362793609) 0x90a-0x912 (8)
0x910|ca 89                                          |..              |
0x910|      00 00 00 0a                              |  ....          |        corr: 10 0x912-0x916 (4)
     |                                               |                |      [10]{}: leap_second_record 0x916-0x922 (12)
0x910|                  00 00 00 00 17 80 fe 0a      |      ........  |        occur: "1982-07-01T00:00:10Z" (394329610) 0x916-0x91e (8)
0x910|                                          00 00|              ..|        corr: 11 0x91e-0x922 (4)
0x920|00 0b                                          |..              |
     |                                               |                |      [11]{}: leap_second_record 0x922-0x92e (12)
0x920|      00 00 00 00 19 62 31 8b                  |  .....b1.      |        occur: "1983-07-01T00:00:11Z" (425865611) 0x922-0x92a (8)
0x920|                              00 00 00 0c      |          ....  |        corr: 12 0x92a-0x92e (4)
     |                                               |                |      [12]{}: leap_second_record 0x92e-0x93a (12)
0x920|                                          00 00|              ..|        occur: "1985-07-01T00:00:12Z" (489024012) 0x92e-0x936 (8)
0x930|00 00 1d 25 ea 0c                              |...%..          |
0x930|                  00 00 00 0d                  |      ....      |        corr: 13 0x936-0x93a (4)
     |                                               |                |      [13]{}: leap_second_record 0x93a-0x946 (12)
0x930|                              00 00 00 00 21 da|          ....!.|        occur: "1988-01-01T00:00:13Z" (567993613) 0x93a-0x942 (8)
0x940|e5 0d                                          |..              |
0x940|      00 00 00 0e                              |  ....          |        corr: 14 0x942-0x946 (4)
     |                                               |                |      [14]{}: leap_second_record 0x946-0x952 (12)
0x940|                  00 00 00 00 25 9e 9d 8e      |      ....%...  |        occur: "1990-01-01T00:00:14Z" (631152014) 0x946-0x94e (8)
0x940|                                          00 00|              ..|        corr: 15 0x94e-0x952 (4)
0x950|00 0f                                          |..              |
     |                                               |                |      [15]{}: leap_second_record 0x952-0x95e (12)
0x950|      00 00 00 00 27 7f d1 0f                  |  ....'...      |        occur: "1991-01-01T00:00:15Z" (662688015) 0x952-0x95a (8)
0x950|                              00 00 00 10      |          ....  |        corr: 16 0x95a-0x95e (4)
     |                                               |                |      [16]{}: leap_second_record 0x95e-0x96a (12)
0x950|                                          00 00|              ..|        occur: "1992-07-01T00:00:16Z" (709948816) 0x95e-0x966 (8)
0x960|00 00 2a 50 f5 90                              |..*P..          |
0x960|                  00 00 00 11                  |      ....      |        corr: 17 0x966-0x96a (4)
     |                                               |                |      [17]{}: leap_second_record 0x96a-0x976 (12)
0x960|                              00 00 00 00 2c 32|          ....,2|        occur: "1993-07-01T00:00:17Z" (741484817) 0x96a-0x972 (8)
0x970|29 11                                          |).              |
0x970|      00 00 00 12                              |  ....          |        corr: 18 0x972-0x976 (4)
     |                                               |                |      [18]{}: leap_second_record 0x976-0x982 (12)
0x970|                  00 00 00 00 2e 13 5c 92      |      ......\.  |        occur: "1994-07-01T00:00:18Z" (773020818) 0x976-0x97e (8)
0x970|                                          00 00|              ..|        corr: 19 0x97e-0x982 (4)
0x980|00 13                                          |..              |
     |                                               |                |      [19]{}: leap_second_record 0x982-0x98e (12)
0x980|      00 00 00 00 30 e7 24 13                  |  ....0.$.      |        occur: "1996-01-01T00:00:19Z" (820454419) 0x982-0x98a (8)
0x980|                              00 00 00 14      |          ....  |        corr: 20 0x98a-0x98e (4)
     |                                               |                |      [20]{}: leap_second_record 0x98e-0x99a (12)
0x980|                                          00 00|              ..|        occur: "1997-07-01T00:00:20Z" (867715220) 0x98e-0x996 (8)
0x990|00 00 33 b8 48 94                              |..3.H.          |
0x990|                  00 00 00 15                  |      ....      |        corr: 21 0x996-0x99a (4)
     |                                               |                |      [21]{}: leap_second_record 0x99a-0x9a6 (12)
0x990|                              00 00 00 00 36 8c|          ....6.|        occur: "1999-01-01T00:00:21Z" (915148821) 0x99a-0x9a2 (8)
0x9a0|10 15                                          |..              |
0x9a0|      00 00 00 16                              |  ....          |        corr: 22 0x9a2-0x9a6 (4)
     |                                               |                |      [22]{}: leap_second_record 0x9a6-0x9b2 (12)
0x9a0|                  00 00 00 00 43 b7 1b 96      |      ....C...  |        occur: "2006-01-01T00:00:22Z" (1136073622) 0x9a6-0x9ae (8)
0x9a0|                                          00 00|              ..|        corr: 23 0x9ae-0x9b2 (4)
0x9b0|00 17                                          |..              |
     |                                               |                |      [23]{}: leap_second_record 0x9b2-0x9be (12)
0x9b0|      00 00 00 00 49 5c 07 97                  |  ....I\..      |        occur: "2009-01-01T00:00:23Z" (1230768023) 0x9b2-0x9ba (8)
0x9b0|                              00 00 00 18      |          ....  |        corr: 24 0x9ba-0x9be (4)
     |                                               |                |      [24]{}: leap_second_record 0x9be-0x9ca (12)
0x9b0|                                          00 00|              ..|        occur: "2012-07-01T00:00:24Z" (1341100824) 0x9be-0x9c6 (8)
0x9c0|00 00 4f ef 93 18                              |..O...          |
0x9c0|                  00 00 00 19                  |      ....      |        corr: 25 0x9c6-0x9ca (4)
     |                                               |                |      [25]{}: leap_second_record 0x9ca-0x9d6 (12)
0x9c0|                              00 00 00 00 55 93|          ....U.|        occur: "2015-07-01T00:00:25Z" (1435708825) 0x9ca-0x9d2 (8)
0x9d0|2d 99                                          |-.              |
0x9d0|      00 00 00 1a                              |  ....          |        corr: 26 0x9d2-0x9d6 (4)
     |                                               |                |      [26]{}: leap_second_record 0x9d6-0x9e2 (12)
0x9d0|                  00 00 00 00 58 68 46 9a      |      ....XhF.  |        occur: "2017-01-01T00:00:26Z" (1483228826) 0x9d6-0x9de (8)
0x9d0|                                          00 00|              ..|        corr: 27 0x9de-0x9e2 (4)
0x9e0|00 1b                                          |..              |
     |                                               |                |    standard_wall_indicators[0:6]: 0x9e2-0x9e8 (6)
0x9e0|      00                                       |  .             |      [0]: 0 standard_wall_indicator (valid) 0x9e2-0x9e3 (1)
0x9e0|         00                                    |   .            |      [1]: 0 standard_wall_indicator (valid) 0x9e3-0x9e4 (1)
0x9e0|            00                                 |    .           |      [2]: 0 standard_wall_indicator (valid) 0x9e4-0x9e5 (1)
0x9e0|               00                              |     .          |      [3]: 0 standard_wall_indicator (valid) 0x9e5-0x9e6 (1)
0x9e0|                  01                           |      .         |      [4]: 1 standard_wall_indicator (valid) 0x9e6-0x9e7 (1)
0x9e0|                     01                        |       .        |      [5]: 1 standard_wall_indicator (valid) 0x9e7-0x9e8 (1)
     |                                               |                |    ut_local_indicators[0:0]: 0x9e8-0x9e8 (0)
     |                                               |                |  footer{}: 0x9e8-0x9ea (2)
0x9e0|                        0a                     |        .       |    nl1: 10 (valid) 0x9e8-0x9e9 (1)
     |                                               |                |    tz_string: "" 0x9e9-0x9e9 (0)
0x9e0|                           0a|                 |         .|     |    nl2: 10 (valid) 0x9e9-0x9ea (1)
