$ fq -d tzif dv Hebron
     |00 01 02 03 04 05 06 07 08 09 0a 0b 0c 0d 0e 0f|0123456789abcdef|.{}: Hebron (tzif) 0x0-0xa07.7 (2568)
     |                                               |                |  v1header{}: 0x0-0x2b.7 (44)
0x000|54 5a 69 66                                    |TZif            |    magic: 0x545a6966 (valid) 0x0-0x3.7 (4)
0x000|            32                                 |    2           |    ver: "2" (0x32) (valid) 0x4-0x4.7 (1)
0x000|               00 00 00 00 00 00 00 00 00 00 00|     ...........|    reserved: raw bits 0x5-0x13.7 (15)
0x010|00 00 00 00                                    |....            |
0x010|            00 00 00 0a                        |    ....        |    isutcnt: 10 0x14-0x17.7 (4)
0x010|                        00 00 00 0a            |        ....    |    isstdcnt: 10 0x18-0x1b.7 (4)
0x010|                                    00 00 00 1b|            ....|    leapcnt: 27 0x1c-0x1f.7 (4)
0x020|00 00 00 7c                                    |...|            |    timecnt: 124 0x20-0x23.7 (4)
0x020|            00 00 00 0a                        |    ....        |    typecnt: 10 0x24-0x27.7 (4)
0x020|                        00 00 00 15            |        ....    |    charcnt: 21 0x28-0x2b.7 (4)
     |                                               |                |  v1datablock{}: 0x2c-0x3d4.7 (937)
     |                                               |                |    transition_times[0:124]: 0x2c-0x21b.7 (496)
0x020|                                    80 00 00 00|            ....|      [0]: "1901-12-13T20:45:52Z" (-2147483648) transition_time 0x2c-0x2f.7 (4)
0x030|c8 59 cf 00                                    |.Y..            |      [1]: "1940-06-01T00:00:00Z" (-933638400) transition_time 0x30-0x33.7 (4)
0x030|            c8 fa a6 00                        |    ....        |      [2]: "1940-10-01T00:00:00Z" (-923097600) transition_time 0x34-0x37.7 (4)
0x030|                        c9 38 9c 80            |        .8..    |      [3]: "1940-11-17T00:00:00Z" (-919036800) transition_time 0x38-0x3b.7 (4)
0x030|                                    cc e5 eb 80|            ....|      [4]: "1942-11-01T00:00:00Z" (-857347200) transition_time 0x3c-0x3f.7 (4)
0x040|cd ac fe 00                                    |....            |      [5]: "1943-04-01T00:00:00Z" (-844300800) transition_time 0x40-0x43.7 (4)
0x040|            ce c7 1f 00                        |    ....        |      [6]: "1943-11-01T00:00:00Z" (-825811200) transition_time 0x44-0x47.7 (4)
0x040|                        cf 8f 83 00            |        ....    |      [7]: "1944-04-01T00:00:00Z" (-812678400) transition_time 0x48-0x4b.7 (4)
0x040|                                    d0 a9 a4 00|            ....|      [8]: "1944-11-01T00:00:00Z" (-794188800) transition_time 0x4c-0x4f.7 (4)
0x050|d1 84 7d 00                                    |..}.            |      [9]: "1945-04-16T00:00:00Z" (-779846400) transition_time 0x50-0x53.7 (4)
0x050|            d2 8a d7 80                        |    ....        |      [10]: "1945-11-01T00:00:00Z" (-762652800) transition_time 0x54-0x57.7 (4)
0x050|                        d3 65 b0 80            |        .e..    |      [11]: "1946-04-16T00:00:00Z" (-748310400) transition_time 0x58-0x5b.7 (4)
0x050|                                    d4 6c 0b 00|            .l..|      [12]: "1946-11-01T00:00:00Z" (-731116800) transition_time 0x5c-0x5f.7 (4)
0x060|e8 36 63 60                                    |.6c`            |      [13]: "1957-05-09T22:00:00Z" (-399088800) transition_time 0x60-0x63.7 (4)
0x060|            e8 f4 2d 50                        |    ..-P        |      [14]: "1957-09-30T21:00:00Z" (-386650800) transition_time 0x64-0x67.7 (4)
0x060|                        ea 0b b9 60            |        ...`    |      [15]: "1958-04-30T22:00:00Z" (-368330400) transition_time 0x68-0x6b.7 (4)
0x060|                                    ea d5 60 d0|            ..`.|      [16]: "1958-09-30T21:00:00Z" (-355114800) transition_time 0x6c-0x6f.7 (4)
0x070|eb ec fa f0                                    |....            |      [17]: "1959-04-30T23:00:00Z" (-336790800) transition_time 0x70-0x73.7 (4)
0x070|            ec b5 6d 00                        |    ..m.        |      [18]: "1959-09-30T00:00:00Z" (-323654400) transition_time 0x74-0x77.7 (4)
0x070|                        ed cf 7f f0            |        ....    |      [19]: "1960-04-30T23:00:00Z" (-305168400) transition_time 0x78-0x7b.7 (4)
0x070|                                    ee 97 f2 00|            ....|      [20]: "1960-09-30T00:00:00Z" (-292032000) transition_time 0x7c-0x7f.7 (4)
0x080|ef b0 b3 70                                    |...p            |      [21]: "1961-04-30T23:00:00Z" (-273632400) transition_time 0x80-0x83.7 (4)
0x080|            f0 79 25 80                        |    .y%.        |      [22]: "1961-09-30T00:00:00Z" (-260496000) transition_time 0x84-0x87.7 (4)
0x080|                        f1 91 e6 f0            |        ....    |      [23]: "1962-04-30T23:00:00Z" (-242096400) transition_time 0x88-0x8b.7 (4)
0x080|                                    f2 5a 59 00|            .ZY.|      [24]: "1962-09-30T00:00:00Z" (-228960000) transition_time 0x8c-0x8f.7 (4)
0x090|f3 73 1a 70                                    |.s.p            |      [25]: "1963-04-30T23:00:00Z" (-210560400) transition_time 0x90-0x93.7 (4)
0x090|            f4 3b 8c 80                        |    .;..        |      [26]: "1963-09-30T00:00:00Z" (-197424000) transition_time 0x94-0x97.7 (4)
0x090|                        f5 55 9f 70            |        .U.p    |      [27]: "1964-04-30T23:00:00Z" (-178938000) transition_time 0x98-0x9b.7 (4)
0x090|                                    f6 1e 11 80|            ....|      [28]: "1964-09-30T00:00:00Z" (-165801600) transition_time 0x9c-0x9f.7 (4)
0x0a0|f7 36 d2 f0                                    |.6..            |      [29]: "1965-04-30T23:00:00Z" (-147402000) transition_time 0xa0-0xa3.7 (4)
0x0a0|            f7 ff 45 00                        |    ..E.        |      [30]: "1965-09-30T00:00:00Z" (-134265600) transition_time 0xa4-0xa7.7 (4)
0x0a0|                        f9 18 06 70            |        ...p    |      [31]: "1966-04-30T23:00:00Z" (-115866000) transition_time 0xa8-0xab.7 (4)
0x0a0|                                    f9 e1 ca 00|            ....|      [32]: "1966-10-01T00:00:00Z" (-102643200) transition_time 0xac-0xaf.7 (4)
0x0b0|fa f9 39 f0                                    |..9.            |      [33]: "1967-04-30T23:00:00Z" (-84330000) transition_time 0xb0-0xb3.7 (4)
0x0b0|            fb 27 42 50                        |    .'BP        |      [34]: "1967-06-04T21:00:00Z" (-81313200) transition_time 0xb4-0xb7.7 (4)
0x0b0|                        08 7c 8b e3            |        .|..    |      [35]: "1974-07-06T22:00:03Z" (142380003) transition_time 0xb8-0xbb.7 (4)
0x0b0|                                    08 fd b0 d3|            ....|      [36]: "1974-10-12T21:00:03Z" (150843603) transition_time 0xbc-0xbf.7 (4)
0x0c0|09 f6 ea 64                                    |...d            |      [37]: "1975-04-19T22:00:04Z" (167176804) transition_time 0xc0-0xc3.7 (4)
0x0c0|            0a a6 33 d4                        |    ..3.        |      [38]: "1975-08-30T21:00:04Z" (178664404) transition_time 0xc4-0xc7.7 (4)
0x0c0|                        13 e9 fc 69            |        ...i    |      [39]: "1980-08-02T22:00:09Z" (334101609) transition_time 0xc8-0xcb.7 (4)
0x0c0|                                    14 21 5b 69|            .![i|      [40]: "1980-09-13T22:00:09Z" (337730409) transition_time 0xcc-0xcf.7 (4)
0x0d0|1a fa c6 6c                                    |...l            |      [41]: "1984-05-05T22:00:12Z" (452642412) transition_time 0xd0-0xd3.7 (4)
0x0d0|            1b 8e 6e 6c                        |    ..nl        |      [42]: "1984-08-25T22:00:12Z" (462319212) transition_time 0xd4-0xd7.7 (4)
0x0d0|                        1c be f8 ec            |        ....    |      [43]: "1985-04-13T22:00:12Z" (482277612) transition_time 0xd8-0xdb.7 (4)
0x0d0|                                    1d 77 7c dd|            .w|.|      [44]: "1985-08-31T21:00:13Z" (494370013) transition_time 0xdc-0xdf.7 (4)
0x0e0|1e cc ff 6d                                    |...m            |      [45]: "1986-05-17T22:00:13Z" (516751213) transition_time 0xe0-0xe3.7 (4)
0x0e0|            1f 60 99 5d                        |    .`.]        |      [46]: "1986-09-06T21:00:13Z" (526424413) transition_time 0xe4-0xe7.7 (4)
0x0e0|                        20 82 b1 6d            |         ..m    |      [47]: "1987-04-14T22:00:13Z" (545436013) transition_time 0xe8-0xeb.7 (4)
0x0e0|                                    21 49 b5 dd|            !I..|      [48]: "1987-09-12T21:00:13Z" (558478813) transition_time 0xec-0xef.7 (4)
0x0f0|22 5e 9e ee                                    |"^..            |      [49]: "1988-04-09T22:00:14Z" (576626414) transition_time 0xf0-0xf3.7 (4)
0x0f0|            23 20 5d 5e                        |    # ]^        |      [50]: "1988-09-03T21:00:14Z" (589323614) transition_time 0xf4-0xf7.7 (4)
0x0f0|                        24 5a 30 6e            |        $Z0n    |      [51]: "1989-04-29T22:00:14Z" (609890414) transition_time 0xf8-0xfb.7 (4)
0x0f0|                                    25 00 3f 5e|            %.?^|      [52]: "1989-09-02T21:00:14Z" (620773214) transition_time 0xfc-0xff.7 (4)
0x100|26 0b ed ef                                    |&...            |      [53]: "1990-03-24T22:00:15Z" (638316015) transition_time 0x100-0x103.7 (4)
0x100|            26 d6 e6 df                        |    &...        |      [54]: "1990-08-25T21:00:15Z" (651618015) transition_time 0x104-0x107.7 (4)
0x100|                        27 eb cf f0            |        '...    |      [55]: "1991-03-23T22:00:16Z" (669765616) transition_time 0x108-0x10b.7 (4)
0x100|                                    28 c0 03 60|            (..`|      [56]: "1991-08-31T21:00:16Z" (683672416) transition_time 0x10c-0x10f.7 (4)
0x110|29 d4 ec 70                                    |)..p            |      [57]: "1992-03-28T22:00:16Z" (701820016) transition_time 0x110-0x113.7 (4)
0x110|            2a a9 1f e1                        |    *...        |      [58]: "1992-09-05T21:00:17Z" (715726817) transition_time 0x114-0x117.7 (4)
0x110|                        2b bb 65 f1            |        +.e.    |      [59]: "1993-04-01T22:00:17Z" (733701617) transition_time 0x118-0x11b.7 (4)
0x110|                                    2c 89 01 e2|            ,...|      [60]: "1993-09-04T21:00:18Z" (747176418) transition_time 0x11c-0x11f.7 (4)
0x120|2d 9b 47 f2                                    |-.G.            |      [61]: "1994-03-31T22:00:18Z" (765151218) transition_time 0x120-0x123.7 (4)
0x120|            2e 5f a9 63                        |    ._.c        |      [62]: "1994-08-27T21:00:19Z" (778021219) transition_time 0x124-0x127.7 (4)
0x120|                        2f 7b 29 f3            |        /{).    |      [63]: "1995-03-30T22:00:19Z" (796600819) transition_time 0x128-0x12b.7 (4)
0x120|                                    30 48 c5 e3|            0H..|      [64]: "1995-09-02T21:00:19Z" (810075619) transition_time 0x12c-0x12f.7 (4)
0x130|30 e7 07 f3                                    |0...            |      [65]: "1995-12-31T22:00:19Z" (820447219) transition_time 0x130-0x133.7 (4)
0x130|            31 64 46 74                        |    1dFt        |      [66]: "1996-04-04T22:00:20Z" (828655220) transition_time 0x134-0x137.7 (4)
0x130|                        32 41 c2 74            |        2A.t    |      [67]: "1996-09-19T22:00:20Z" (843170420) transition_time 0x138-0x13b.7 (4)
0x130|                                    33 44 28 74|            3D(t|      [68]: "1997-04-03T22:00:20Z" (860104820) transition_time 0x13c-0x13f.7 (4)
0x140|34 21 a4 75                                    |4!.u            |      [69]: "1997-09-18T22:00:21Z" (874620021) transition_time 0x140-0x143.7 (4)
0x140|            35 24 0a 75                        |    5$.u        |      [70]: "1998-04-02T22:00:21Z" (891554421) transition_time 0x144-0x147.7 (4)
0x140|                        36 01 86 75            |        6..u    |      [71]: "1998-09-17T22:00:21Z" (906069621) transition_time 0x148-0x14b.7 (4)
0x140|                                    37 16 61 76|            7.av|      [72]: "1999-04-15T22:00:22Z" (924213622) transition_time 0x14c-0x14f.7 (4)
0x150|38 06 44 66                                    |8.Df            |      [73]: "1999-10-14T21:00:22Z" (939934822) transition_time 0x150-0x153.7 (4)
0x150|            38 ff 7d f6                        |    8.}.        |      [74]: "2000-04-20T22:00:22Z" (956268022) transition_time 0x154-0x157.7 (4)
0x150|                        39 ef 60 e6            |        9.`.    |      [75]: "2000-10-19T21:00:22Z" (971989222) transition_time 0x158-0x15b.7 (4)
0x150|                                    3a df 5f f6|            :._.|      [76]: "2001-04-19T22:00:22Z" (987717622) transition_time 0x15c-0x15f.7 (4)
0x160|3b cf 42 e6                                    |;.B.            |      [77]: "2001-10-18T21:00:22Z" (1003438822) transition_time 0x160-0x163.7 (4)
0x160|            3c bf 41 f6                        |    <.A.        |      [78]: "2002-04-18T22:00:22Z" (1019167222) transition_time 0x164-0x167.7 (4)
0x160|                        3d af 24 e6            |        =.$.    |      [79]: "2002-10-17T21:00:22Z" (1034888422) transition_time 0x168-0x16b.7 (4)
0x160|                                    3e 9f 23 f6|            >.#.|      [80]: "2003-04-17T22:00:22Z" (1050616822) transition_time 0x16c-0x16f.7 (4)
0x170|3f 8f 06 e6                                    |?...            |      [81]: "2003-10-16T21:00:22Z" (1066338022) transition_time 0x170-0x173.7 (4)
0x170|            40 7f 05 f6                        |    @...        |      [82]: "2004-04-15T22:00:22Z" (1082066422) transition_time 0x174-0x177.7 (4)
0x170|                        41 5c 81 f6            |        A\..    |      [83]: "2004-09-30T22:00:22Z" (1096581622) transition_time 0x178-0x17b.7 (4)
0x170|                                    42 5e e7 f6|            B^..|      [84]: "2005-04-14T22:00:22Z" (1113516022) transition_time 0x17c-0x17f.7 (4)
0x180|43 41 b8 06                                    |CA..            |      [85]: "2005-10-03T23:00:22Z" (1128380422) transition_time 0x180-0x183.7 (4)
0x180|            44 2d a6 77                        |    D-.w        |      [86]: "2006-03-31T22:00:23Z" (1143842423) transition_time 0x184-0x187.7 (4)
0x180|                        45 12 fd 67            |        E..g    |      [87]: "2006-09-21T21:00:23Z" (1158872423) transition_time 0x188-0x18b.7 (4)
0x180|                                    46 0e d9 f7|            F...|      [88]: "2007-03-31T22:00:23Z" (1175378423) transition_time 0x18c-0x18f.7 (4)
0x190|46 e8 6f 87                                    |F.o.            |      [89]: "2007-09-12T23:00:23Z" (1189638023) transition_time 0x190-0x193.7 (4)
0x190|            47 ec 18 f7                        |    G...        |      [90]: "2008-03-27T22:00:23Z" (1206655223) transition_time 0x194-0x197.7 (4)
0x190|                        48 bb 06 67            |        H..g    |      [91]: "2008-08-31T21:00:23Z" (1220216423) transition_time 0x198-0x19b.7 (4)
0x190|                                    49 cb fa f8|            I...|      [92]: "2009-03-26T22:00:24Z" (1238104824) transition_time 0x19c-0x19f.7 (4)
0x1a0|4a a0 3c 78                                    |J.<x            |      [93]: "2009-09-03T22:00:24Z" (1252015224) transition_time 0x1a0-0x1a3.7 (4)
0x1a0|            4b ab dc f8                        |    K...        |      [94]: "2010-03-25T22:00:24Z" (1269554424) transition_time 0x1a4-0x1a7.7 (4)
0x1a0|                        4c 61 bd e8            |        La..    |      [95]: "2010-08-10T21:00:24Z" (1281474024) transition_time 0x1a8-0x1ab.7 (4)
0x1a0|                                    4d 94 f9 b4|            M...|      [96]: "2011-03-31T22:01:24Z" (1301608884) transition_time 0x1ac-0x1af.7 (4)
0x1b0|4e 35 c2 68                                    |N5.h            |      [97]: "2011-07-31T21:00:24Z" (1312146024) transition_time 0x1b0-0x1b3.7 (4)
0x1b0|            4e 5c 0b f8                        |    N\..        |      [98]: "2011-08-29T22:00:24Z" (1314655224) transition_time 0x1b4-0x1b7.7 (4)
0x1b0|                        4e 84 dc 68            |        N..h    |      [99]: "2011-09-29T21:00:24Z" (1317330024) transition_time 0x1b8-0x1bb.7 (4)
0x1b0|                                    4f 74 db 78|            Ot.x|      [100]: "2012-03-29T22:00:24Z" (1333058424) transition_time 0x1bc-0x1bf.7 (4)
0x1c0|50 5b 91 f9                                    |P[..            |      [101]: "2012-09-20T22:00:25Z" (1348178425) transition_time 0x1c0-0x1c3.7 (4)
0x1c0|            51 54 bd 79                        |    QT.y        |      [102]: "2013-03-28T22:00:25Z" (1364508025) transition_time 0x1c4-0x1c7.7 (4)
0x1c0|                        52 44 a0 69            |        RD.i    |      [103]: "2013-09-26T21:00:25Z" (1380229225) transition_time 0x1c8-0x1cb.7 (4)
0x1c0|                                    53 34 9f 79|            S4.y|      [104]: "2014-03-27T22:00:25Z" (1395957625) transition_time 0x1cc-0x1cf.7 (4)
0x1d0|54 49 6c 69                                    |TIli            |      [105]: "2014-10-23T21:00:25Z" (1414098025) transition_time 0x1d0-0x1d3.7 (4)
0x1d0|            55 15 d2 f9                        |    U...        |      [106]: "2015-03-27T22:00:25Z" (1427493625) transition_time 0x1d4-0x1d7.7 (4)
0x1d0|                        56 29 5c 7a            |        V)\z    |      [107]: "2015-10-22T22:00:26Z" (1445551226) transition_time 0x1d8-0x1db.7 (4)
0x1d0|                                    56 f5 c3 0a|            V...|      [108]: "2016-03-25T23:00:26Z" (1458946826) transition_time 0x1dc-0x1df.7 (4)
0x1e0|58 13 ca 7a                                    |X..z            |      [109]: "2016-10-28T22:00:26Z" (1477692026) transition_time 0x1e0-0x1e3.7 (4)
0x1e0|            58 d5 a5 0b                        |    X...        |      [110]: "2017-03-24T23:00:27Z" (1490396427) transition_time 0x1e4-0x1e7.7 (4)
0x1e0|                        59 f3 ac 7b            |        Y..{    |      [111]: "2017-10-27T22:00:27Z" (1509141627) transition_time 0x1e8-0x1eb.7 (4)
0x1e0|                                    5a b5 87 0b|            Z...|      [112]: "2018-03-23T23:00:27Z" (1521846027) transition_time 0x1ec-0x1ef.7 (4)
0x1f0|5b d3 8e 7b                                    |[..{            |      [113]: "2018-10-26T22:00:27Z" (1540591227) transition_time 0x1f0-0x1f3.7 (4)
0x1f0|            5c 9d 43 fb                        |    \.C.        |      [114]: "2019-03-28T22:00:27Z" (1553810427) transition_time 0x1f4-0x1f7.7 (4)
0x1f0|                        5d b3 62 6b            |        ].bk    |      [115]: "2019-10-25T21:00:27Z" (1572037227) transition_time 0x1f8-0x1fb.7 (4)
0x1f0|                                    5e 7e 77 7b|            ^~w{|      [116]: "2020-03-27T22:00:27Z" (1585346427) transition_time 0x1fc-0x1ff.7 (4)
0x200|5f 93 52 7b                                    |_.R{            |      [117]: "2020-10-23T22:00:27Z" (1603490427) transition_time 0x200-0x203.7 (4)
0x200|            60 5e 59 7b                        |    `^Y{        |      [118]: "2021-03-26T22:00:27Z" (1616796027) transition_time 0x204-0x207.7 (4)
0x200|                        61 7b 1d 7b            |        a{.{    |      [119]: "2021-10-28T22:00:27Z" (1635458427) transition_time 0x208-0x20b.7 (4)
0x200|                                    62 3f 8c fb|            b?..|      [120]: "2022-03-26T22:00:27Z" (1648332027) transition_time 0x20c-0x20f.7 (4)
0x210|63 5c 5f 0b                                    |c\_.            |      [121]: "2022-10-28T23:00:27Z" (1666998027) transition_time 0x210-0x213.7 (4)
0x210|            64 1e 39 9b                        |    d.9.        |      [122]: "2023-03-25T00:00:27Z" (1679702427) transition_time 0x214-0x217.7 (4)
0x210|                        64 9b 78 1b            |        d.x.    |      [123]: "2023-06-28T00:00:27Z" (1687910427) transition_time 0x218-0x21b.7 (4)
     |                                               |                |    transition_types[0:124]: 0x21c-0x297.7 (124)
0x210|                                    03         |            .   |      [0]: 3 transition_type 0x21c-0x21c.7 (1)
0x210|                                       01      |             .  |      [1]: 1 transition_type 0x21d-0x21d.7 (1)
0x210|                                          02   |              . |      [2]: 2 transition_type 0x21e-0x21e.7 (1)
0x210|                                             01|               .|      [3]: 1 transition_type 0x21f-0x21f.7 (1)
0x220|02                                             |.               |      [4]: 2 transition_type 0x220-0x220.7 (1)
0x220|   01                                          | .              |      [5]: 1 transition_type 0x221-0x221.7 (1)
0x220|      02                                       |  .             |      [6]: 2 transition_type 0x222-0x222.7 (1)
0x220|         01                                    |   .            |      [7]: 1 transition_type 0x223-0x223.7 (1)
0x220|            02                                 |    .           |      [8]: 2 transition_type 0x224-0x224.7 (1)
0x220|               01                              |     .          |      [9]: 1 transition_type 0x225-0x225.7 (1)
0x220|                  02                           |      .         |      [10]: 2 transition_type 0x226-0x226.7 (1)
0x220|                     01                        |       .        |      [11]: 1 transition_type 0x227-0x227.7 (1)
0x220|                        02                     |        .       |      [12]: 2 transition_type 0x228-0x228.7 (1)
0x220|                           04                  |         .      |      [13]: 4 transition_type 0x229-0x229.7 (1)
0x220|                              03               |          .     |      [14]: 3 transition_type 0x22a-0x22a.7 (1)
0x220|                                 04            |           .    |      [15]: 4 transition_type 0x22b-0x22b.7 (1)
0x220|                                    03         |            .   |      [16]: 3 transition_type 0x22c-0x22c.7 (1)
0x220|                                       04      |             .  |      [17]: 4 transition_type 0x22d-0x22d.7 (1)
0x220|                                          03   |              . |      [18]: 3 transition_type 0x22e-0x22e.7 (1)
0x220|                                             04|               .|      [19]: 4 transition_type 0x22f-0x22f.7 (1)
0x230|03                                             |.               |      [20]: 3 transition_type 0x230-0x230.7 (1)
0x230|   04                                          | .              |      [21]: 4 transition_type 0x231-0x231.7 (1)
0x230|      03                                       |  .             |      [22]: 3 transition_type 0x232-0x232.7 (1)
0x230|         04                                    |   .            |      [23]: 4 transition_type 0x233-0x233.7 (1)
0x230|            03                                 |    .           |      [24]: 3 transition_type 0x234-0x234.7 (1)
0x230|               04                              |     .          |      [25]: 4 transition_type 0x235-0x235.7 (1)
0x230|                  03                           |      .         |      [26]: 3 transition_type 0x236-0x236.7 (1)
0x230|                     04                        |       .        |      [27]: 4 transition_type 0x237-0x237.7 (1)
0x230|                        03                     |        .       |      [28]: 3 transition_type 0x238-0x238.7 (1)
0x230|                           04                  |         .      |      [29]: 4 transition_type 0x239-0x239.7 (1)
0x230|                              03               |          .     |      [30]: 3 transition_type 0x23a-0x23a.7 (1)
0x230|                                 04            |           .    |      [31]: 4 transition_type 0x23b-0x23b.7 (1)
0x230|                                    03         |            .   |      [32]: 3 transition_type 0x23c-0x23c.7 (1)
0x230|                                       04      |             .  |      [33]: 4 transition_type 0x23d-0x23d.7 (1)
0x230|                                          06   |              . |      [34]: 6 transition_type 0x23e-0x23e.7 (1)
0x230|                                             05|               .|      [35]: 5 transition_type 0x23f-0x23f.7 (1)
0x240|06                                             |.               |      [36]: 6 transition_type 0x240-0x240.7 (1)
0x240|   05                                          | .              |      [37]: 5 transition_type 0x241-0x241.7 (1)
0x240|      06                                       |  .             |      [38]: 6 transition_type 0x242-0x242.7 (1)
0x240|         07                                    |   .            |      [39]: 7 transition_type 0x243-0x243.7 (1)
0x240|            08                                 |    .           |      [40]: 8 transition_type 0x244-0x244.7 (1)
0x240|               07                              |     .          |      [41]: 7 transition_type 0x245-0x245.7 (1)
0x240|                  08                           |      .         |      [42]: 8 transition_type 0x246-0x246.7 (1)
0x240|                     05                        |       .        |      [43]: 5 transition_type 0x247-0x247.7 (1)
0x240|                        06                     |        .       |      [44]: 6 transition_type 0x248-0x248.7 (1)
0x240|                           05                  |         .      |      [45]: 5 transition_type 0x249-0x249.7 (1)
0x240|                              06               |          .     |      [46]: 6 transition_type 0x24a-0x24a.7 (1)
0x240|                                 05            |           .    |      [47]: 5 transition_type 0x24b-0x24b.7 (1)
0x240|                                    06         |            .   |      [48]: 6 transition_type 0x24c-0x24c.7 (1)
0x240|                                       05      |             .  |      [49]: 5 transition_type 0x24d-0x24d.7 (1)
0x240|                                          06   |              . |      [50]: 6 transition_type 0x24e-0x24e.7 (1)
0x240|                                             05|               .|      [51]: 5 transition_type 0x24f-0x24f.7 (1)
0x250|06                                             |.               |      [52]: 6 transition_type 0x250-0x250.7 (1)
0x250|   05                                          | .              |      [53]: 5 transition_type 0x251-0x251.7 (1)
0x250|      06                                       |  .             |      [54]: 6 transition_type 0x252-0x252.7 (1)
0x250|         05                                    |   .            |      [55]: 5 transition_type 0x253-0x253.7 (1)
0x250|            06                                 |    .           |      [56]: 6 transition_type 0x254-0x254.7 (1)
0x250|               05                              |     .          |      [57]: 5 transition_type 0x255-0x255.7 (1)
0x250|                  06                           |      .         |      [58]: 6 transition_type 0x256-0x256.7 (1)
0x250|                     05                        |       .        |      [59]: 5 transition_type 0x257-0x257.7 (1)
0x250|                        06                     |        .       |      [60]: 6 transition_type 0x258-0x258.7 (1)
0x250|                           05                  |         .      |      [61]: 5 transition_type 0x259-0x259.7 (1)
0x250|                              06               |          .     |      [62]: 6 transition_type 0x25a-0x25a.7 (1)
0x250|                                 05            |           .    |      [63]: 5 transition_type 0x25b-0x25b.7 (1)
0x250|                                    06         |            .   |      [64]: 6 transition_type 0x25c-0x25c.7 (1)
0x250|                                       03      |             .  |      [65]: 3 transition_type 0x25d-0x25d.7 (1)
0x250|                                          04   |              . |      [66]: 4 transition_type 0x25e-0x25e.7 (1)
0x250|                                             09|               .|      [67]: 9 transition_type 0x25f-0x25f.7 (1)
0x260|04                                             |.               |      [68]: 4 transition_type 0x260-0x260.7 (1)
0x260|   09                                          | .              |      [69]: 9 transition_type 0x261-0x261.7 (1)
0x260|      04                                       |  .             |      [70]: 4 transition_type 0x262-0x262.7 (1)
0x260|         09                                    |   .            |      [71]: 9 transition_type 0x263-0x263.7 (1)
0x260|            04                                 |    .           |      [72]: 4 transition_type 0x264-0x264.7 (1)
0x260|               03                              |     .          |      [73]: 3 transition_type 0x265-0x265.7 (1)
0x260|                  04                           |      .         |      [74]: 4 transition_type 0x266-0x266.7 (1)
0x260|                     03                        |       .        |      [75]: 3 transition_type 0x267-0x267.7 (1)
0x260|                        04                     |        .       |      [76]: 4 transition_type 0x268-0x268.7 (1)
0x260|                           03                  |         .      |      [77]: 3 transition_type 0x269-0x269.7 (1)
0x260|                              04               |          .     |      [78]: 4 transition_type 0x26a-0x26a.7 (1)
0x260|                                 03            |           .    |      [79]: 3 transition_type 0x26b-0x26b.7 (1)
0x260|                                    04         |            .   |      [80]: 4 transition_type 0x26c-0x26c.7 (1)
0x260|                                       03      |             .  |      [81]: 3 transition_type 0x26d-0x26d.7 (1)
0x260|                                          04   |              . |      [82]: 4 transition_type 0x26e-0x26e.7 (1)
0x260|                                             03|               .|      [83]: 3 transition_type 0x26f-0x26f.7 (1)
0x270|04                                             |.               |      [84]: 4 transition_type 0x270-0x270.7 (1)
0x270|   03                                          | .              |      [85]: 3 transition_type 0x271-0x271.7 (1)
0x270|      04                                       |  .             |      [86]: 4 transition_type 0x272-0x272.7 (1)
0x270|         03                                    |   .            |      [87]: 3 transition_type 0x273-0x273.7 (1)
0x270|            04                                 |    .           |      [88]: 4 transition_type 0x274-0x274.7 (1)
0x270|               03                              |     .          |      [89]: 3 transition_type 0x275-0x275.7 (1)
0x270|                  04                           |      .         |      [90]: 4 transition_type 0x276-0x276.7 (1)
0x270|                     03                        |       .        |      [91]: 3 transition_type 0x277-0x277.7 (1)
0x270|                        04                     |        .       |      [92]: 4 transition_type 0x278-0x278.7 (1)
0x270|                           03                  |         .      |      [93]: 3 transition_type 0x279-0x279.7 (1)
0x270|                              04               |          .     |      [94]: 4 transition_type 0x27a-0x27a.7 (1)
0x270|                                 03            |           .    |      [95]: 3 transition_type 0x27b-0x27b.7 (1)
0x270|                                    04         |            .   |      [96]: 4 transition_type 0x27c-0x27c.7 (1)
0x270|                                       03      |             .  |      [97]: 3 transition_type 0x27d-0x27d.7 (1)
0x270|                                          04   |              . |      [98]: 4 transition_type 0x27e-0x27e.7 (1)
0x270|                                             03|               .|      [99]: 3 transition_type 0x27f-0x27f.7 (1)
0x280|04                                             |.               |      [100]: 4 transition_type 0x280-0x280.7 (1)
0x280|   03                                          | .              |      [101]: 3 transition_type 0x281-0x281.7 (1)
0x280|      04                                       |  .             |      [102]: 4 transition_type 0x282-0x282.7 (1)
0x280|         03                                    |   .            |      [103]: 3 transition_type 0x283-0x283.7 (1)
0x280|            04                                 |    .           |      [104]: 4 transition_type 0x284-0x284.7 (1)
0x280|               03                              |     .          |      [105]: 3 transition_type 0x285-0x285.7 (1)
0x280|                  04                           |      .         |      [106]: 4 transition_type 0x286-0x286.7 (1)
0x280|                     03                        |       .        |      [107]: 3 transition_type 0x287-0x287.7 (1)
0x280|                        04                     |        .       |      [108]: 4 transition_type 0x288-0x288.7 (1)
0x280|                           03                  |         .      |      [109]: 3 transition_type 0x289-0x289.7 (1)
0x280|                              04               |          .     |      [110]: 4 transition_type 0x28a-0x28a.7 (1)
0x280|                                 03            |           .    |      [111]: 3 transition_type 0x28b-0x28b.7 (1)
0x280|                                    04         |            .   |      [112]: 4 transition_type 0x28c-0x28c.7 (1)
0x280|                                       03      |             .  |      [113]: 3 transition_type 0x28d-0x28d.7 (1)
0x280|                                          04   |              . |      [114]: 4 transition_type 0x28e-0x28e.7 (1)
0x280|                                             03|               .|      [115]: 3 transition_type 0x28f-0x28f.7 (1)
0x290|04                                             |.               |      [116]: 4 transition_type 0x290-0x290.7 (1)
0x290|   03                                          | .              |      [117]: 3 transition_type 0x291-0x291.7 (1)
0x290|      04                                       |  .             |      [118]: 4 transition_type 0x292-0x292.7 (1)
0x290|         03                                    |   .            |      [119]: 3 transition_type 0x293-0x293.7 (1)
0x290|            04                                 |    .           |      [120]: 4 transition_type 0x294-0x294.7 (1)
0x290|               03                              |     .          |      [121]: 3 transition_type 0x295-0x295.7 (1)
0x290|                  04                           |      .         |      [122]: 4 transition_type 0x296-0x296.7 (1)
0x290|                     04                        |       .        |      [123]: 4 transition_type 0x297-0x297.7 (1)
     |                                               |                |    local_time_type_records[0:10]: 0x298-0x2d3.7 (60)
     |                                               |                |      [0]{}: local_time_type 0x298-0x29d.7 (6)
0x290|                        00 00 20 e7            |        .. .    |        utoff: 8423 (valid) 0x298-0x29b.7 (4)
0x290|                                    00         |            .   |        dst: 0 (valid) 0x29c-0x29c.7 (1)
0x290|                                       00      |             .  |        idx: 0 (valid) 0x29d-0x29d.7 (1)
     |                                               |                |      [1]{}: local_time_type 0x29e-0x2a3.7 (6)
0x290|                                          00 00|              ..|        utoff: 10800 (valid) 0x29e-0x2a1.7 (4)
0x2a0|2a 30                                          |*0              |
0x2a0|      01                                       |  .             |        dst: 1 (valid) 0x2a2-0x2a2.7 (1)
0x2a0|         04                                    |   .            |        idx: 4 (valid) 0x2a3-0x2a3.7 (1)
     |                                               |                |      [2]{}: local_time_type 0x2a4-0x2a9.7 (6)
0x2a0|            00 00 1c 20                        |    ...         |        utoff: 7200 (valid) 0x2a4-0x2a7.7 (4)
0x2a0|                        00                     |        .       |        dst: 0 (valid) 0x2a8-0x2a8.7 (1)
0x2a0|                           09                  |         .      |        idx: 9 (valid) 0x2a9-0x2a9.7 (1)
     |                                               |                |      [3]{}: local_time_type 0x2aa-0x2af.7 (6)
0x2a0|                              00 00 1c 20      |          ...   |        utoff: 7200 (valid) 0x2aa-0x2ad.7 (4)
0x2a0|                                          00   |              . |        dst: 0 (valid) 0x2ae-0x2ae.7 (1)
0x2a0|                                             09|               .|        idx: 9 (valid) 0x2af-0x2af.7 (1)
     |                                               |                |      [4]{}: local_time_type 0x2b0-0x2b5.7 (6)
0x2b0|00 00 2a 30                                    |..*0            |        utoff: 10800 (valid) 0x2b0-0x2b3.7 (4)
0x2b0|            01                                 |    .           |        dst: 1 (valid) 0x2b4-0x2b4.7 (1)
0x2b0|               04                              |     .          |        idx: 4 (valid) 0x2b5-0x2b5.7 (1)
     |                                               |                |      [5]{}: local_time_type 0x2b6-0x2bb.7 (6)
0x2b0|                  00 00 2a 30                  |      ..*0      |        utoff: 10800 (valid) 0x2b6-0x2b9.7 (4)
0x2b0|                              01               |          .     |        dst: 1 (valid) 0x2ba-0x2ba.7 (1)
0x2b0|                                 0d            |           .    |        idx: 13 (valid) 0x2bb-0x2bb.7 (1)
     |                                               |                |      [6]{}: local_time_type 0x2bc-0x2c1.7 (6)
0x2b0|                                    00 00 1c 20|            ... |        utoff: 7200 (valid) 0x2bc-0x2bf.7 (4)
0x2c0|00                                             |.               |        dst: 0 (valid) 0x2c0-0x2c0.7 (1)
0x2c0|   11                                          | .              |        idx: 17 (valid) 0x2c1-0x2c1.7 (1)
     |                                               |                |      [7]{}: local_time_type 0x2c2-0x2c7.7 (6)
0x2c0|      00 00 2a 30                              |  ..*0          |        utoff: 10800 (valid) 0x2c2-0x2c5.7 (4)
0x2c0|                  01                           |      .         |        dst: 1 (valid) 0x2c6-0x2c6.7 (1)
0x2c0|                     0d                        |       .        |        idx: 13 (valid) 0x2c7-0x2c7.7 (1)
     |                                               |                |      [8]{}: local_time_type 0x2c8-0x2cd.7 (6)
0x2c0|                        00 00 1c 20            |        ...     |        utoff: 7200 (valid) 0x2c8-0x2cb.7 (4)
0x2c0|                                    00         |            .   |        dst: 0 (valid) 0x2cc-0x2cc.7 (1)
0x2c0|                                       11      |             .  |        idx: 17 (valid) 0x2cd-0x2cd.7 (1)
     |                                               |                |      [9]{}: local_time_type 0x2ce-0x2d3.7 (6)
0x2c0|                                          00 00|              ..|        utoff: 7200 (valid) 0x2ce-0x2d1.7 (4)
0x2d0|1c 20                                          |.               |
0x2d0|      00                                       |  .             |        dst: 0 (valid) 0x2d2-0x2d2.7 (1)
0x2d0|         09                                    |   .            |        idx: 9 (valid) 0x2d3-0x2d3.7 (1)
     |                                               |                |    time_zone_designations[0:5]: 0x2d4-0x2e8.7 (21)
0x2d0|            4c 4d 54 00                        |    LMT.        |      [0]: "LMT" time_zone_designation 0x2d4-0x2d7.7 (4)
0x2d0|                        45 45 53 54 00         |        EEST.   |      [1]: "EEST" time_zone_designation 0x2d8-0x2dc.7 (5)
0x2d0|                                       45 45 54|             EET|      [2]: "EET" time_zone_designation 0x2dd-0x2e0.7 (4)
0x2e0|00                                             |.               |
0x2e0|   49 44 54 00                                 | IDT.           |      [3]: "IDT" time_zone_designation 0x2e1-0x2e4.7 (4)
0x2e0|               49 53 54 00                     |     IST.       |      [4]: "IST" time_zone_designation 0x2e5-0x2e8.7 (4)
     |                                               |                |    leap_second_records[0:27]: 0x2e9-0x3c0.7 (216)
     |                                               |                |      [0]{}: leap_second_record 0x2e9-0x2f0.7 (8)
0x2e0|                           04 b2 58 00         |         ..X.   |        occur: "1972-07-01T00:00:00Z" (78796800) 0x2e9-0x2ec.7 (4)
0x2e0|                                       00 00 00|             ...|        corr: 1 0x2ed-0x2f0.7 (4)
0x2f0|01                                             |.               |
     |                                               |                |      [1]{}: leap_second_record 0x2f1-0x2f8.7 (8)
0x2f0|   05 a4 ec 01                                 | ....           |        occur: "1973-01-01T00:00:01Z" (94694401) 0x2f1-0x2f4.7 (4)
0x2f0|               00 00 00 02                     |     ....       |        corr: 2 0x2f5-0x2f8.7 (4)
     |                                               |                |      [2]{}: leap_second_record 0x2f9-0x300.7 (8)
0x2f0|                           07 86 1f 82         |         ....   |        occur: "1974-01-01T00:00:02Z" (126230402) 0x2f9-0x2fc.7 (4)
0x2f0|                                       00 00 00|             ...|        corr: 3 0x2fd-0x300.7 (4)
0x300|03                                             |.               |
     |                                               |                |      [3]{}: leap_second_record 0x301-0x308.7 (8)
0x300|   09 67 53 03                                 | .gS.           |        occur: "1975-01-01T00:00:03Z" (157766403) 0x301-0x304.7 (4)
0x300|               00 00 00 04                     |     ....       |        corr: 4 0x305-0x308.7 (4)
     |                                               |                |      [4]{}: leap_second_record 0x309-0x310.7 (8)
0x300|                           0b 48 86 84         |         .H..   |        occur: "1976-01-01T00:00:04Z" (189302404) 0x309-0x30c.7 (4)
0x300|                                       00 00 00|             ...|        corr: 5 0x30d-0x310.7 (4)
0x310|05                                             |.               |
     |                                               |                |      [5]{}: leap_second_record 0x311-0x318.7 (8)
0x310|   0d 2b 0b 85                                 | .+..           |        occur: "1977-01-01T00:00:05Z" (220924805) 0x311-0x314.7 (4)
0x310|               00 00 00 06                     |     ....       |        corr: 6 0x315-0x318.7 (4)
     |                                               |                |      [6]{}: leap_second_record 0x319-0x320.7 (8)
0x310|                           0f 0c 3f 06         |         ..?.   |        occur: "1978-01-01T00:00:06Z" (252460806) 0x319-0x31c.7 (4)
0x310|                                       00 00 00|             ...|        corr: 7 0x31d-0x320.7 (4)
0x320|07                                             |.               |
     |                                               |                |      [7]{}: leap_second_record 0x321-0x328.7 (8)
0x320|   10 ed 72 87                                 | ..r.           |        occur: "1979-01-01T00:00:07Z" (283996807) 0x321-0x324.7 (4)
0x320|               00 00 00 08                     |     ....       |        corr: 8 0x325-0x328.7 (4)
     |                                               |                |      [8]{}: leap_second_record 0x329-0x330.7 (8)
0x320|                           12 ce a6 08         |         ....   |        occur: "1980-01-01T00:00:08Z" (315532808) 0x329-0x32c.7 (4)
0x320|                                       00 00 00|             ...|        corr: 9 0x32d-0x330.7 (4)
0x330|09                                             |.               |
     |                                               |                |      [9]{}: leap_second_record 0x331-0x338.7 (8)
0x330|   15 9f ca 89                                 | ....           |        occur: "1981-07-01T00:00:09Z" (362793609) 0x331-0x334.7 (4)
0x330|               00 00 00 0a                     |     ....       |        corr: 10 0x335-0x338.7 (4)
     |                                               |                |      [10]{}: leap_second_record 0x339-0x340.7 (8)
0x330|                           17 80 fe 0a         |         ....   |        occur: "1982-07-01T00:00:10Z" (394329610) 0x339-0x33c.7 (4)
0x330|                                       00 00 00|             ...|        corr: 11 0x33d-0x340.7 (4)
0x340|0b                                             |.               |
     |                                               |                |      [11]{}: leap_second_record 0x341-0x348.7 (8)
0x340|   19 62 31 8b                                 | .b1.           |        occur: "1983-07-01T00:00:11Z" (425865611) 0x341-0x344.7 (4)
0x340|               00 00 00 0c                     |     ....       |        corr: 12 0x345-0x348.7 (4)
     |                                               |                |      [12]{}: leap_second_record 0x349-0x350.7 (8)
0x340|                           1d 25 ea 0c         |         .%..   |        occur: "1985-07-01T00:00:12Z" (489024012) 0x349-0x34c.7 (4)
0x340|                                       00 00 00|             ...|        corr: 13 0x34d-0x350.7 (4)
0x350|0d                                             |.               |
     |                                               |                |      [13]{}: leap_second_record 0x351-0x358.7 (8)
0x350|   21 da e5 0d                                 | !...           |        occur: "1988-01-01T00:00:13Z" (567993613) 0x351-0x354.7 (4)
0x350|               00 00 00 0e                     |     ....       |        corr: 14 0x355-0x358.7 (4)
     |                                               |                |      [14]{}: leap_second_record 0x359-0x360.7 (8)
0x350|                           25 9e 9d 8e         |         %...   |        occur: "1990-01-01T00:00:14Z" (631152014) 0x359-0x35c.7 (4)
0x350|                                       00 00 00|             ...|        corr: 15 0x35d-0x360.7 (4)
0x360|0f                                             |.               |
     |                                               |                |      [15]{}: leap_second_record 0x361-0x368.7 (8)
0x360|   27 7f d1 0f                                 | '...           |        occur: "1991-01-01T00:00:15Z" (662688015) 0x361-0x364.7 (4)
0x360|               00 00 00 10                     |     ....       |        corr: 16 0x365-0x368.7 (4)
     |                                               |                |      [16]{}: leap_second_record 0x369-0x370.7 (8)
0x360|                           2a 50 f5 90         |         *P..   |        occur: "1992-07-01T00:00:16Z" (709948816) 0x369-0x36c.7 (4)
0x360|                                       00 00 00|             ...|        corr: 17 0x36d-0x370.7 (4)
0x370|11                                             |.               |
     |                                               |                |      [17]{}: leap_second_record 0x371-0x378.7 (8)
0x370|   2c 32 29 11                                 | ,2).           |        occur: "1993-07-01T00:00:17Z" (741484817) 0x371-0x374.7 (4)
0x370|               00 00 00 12                     |     ....       |        corr: 18 0x375-0x378.7 (4)
     |                                               |                |      [18]{}: leap_second_record 0x379-0x380.7 (8)
0x370|                           2e 13 5c 92         |         ..\.   |        occur: "1994-07-01T00:00:18Z" (773020818) 0x379-0x37c.7 (4)
0x370|                                       00 00 00|             ...|        corr: 19 0x37d-0x380.7 (4)
0x380|13                                             |.               |
     |                                               |                |      [19]{}: leap_second_record 0x381-0x388.7 (8)
0x380|   30 e7 24 13                                 | 0.$.           |        occur: "1996-01-01T00:00:19Z" (820454419) 0x381-0x384.7 (4)
0x380|               00 00 00 14                     |     ....       |        corr: 20 0x385-0x388.7 (4)
     |                                               |                |      [20]{}: leap_second_record 0x389-0x390.7 (8)
0x380|                           33 b8 48 94         |         3.H.   |        occur: "1997-07-01T00:00:20Z" (867715220) 0x389-0x38c.7 (4)
0x380|                                       00 00 00|             ...|        corr: 21 0x38d-0x390.7 (4)
0x390|15                                             |.               |
     |                                               |                |      [21]{}: leap_second_record 0x391-0x398.7 (8)
0x390|   36 8c 10 15                                 | 6...           |        occur: "1999-01-01T00:00:21Z" (915148821) 0x391-0x394.7 (4)
0x390|               00 00 00 16                     |     ....       |        corr: 22 0x395-0x398.7 (4)
     |                                               |                |      [22]{}: leap_second_record 0x399-0x3a0.7 (8)
0x390|                           43 b7 1b 96         |         C...   |        occur: "2006-01-01T00:00:22Z" (1136073622) 0x399-0x39c.7 (4)
0x390|                                       00 00 00|             ...|        corr: 23 0x39d-0x3a0.7 (4)
0x3a0|17                                             |.               |
     |                                               |                |      [23]{}: leap_second_record 0x3a1-0x3a8.7 (8)
0x3a0|   49 5c 07 97                                 | I\..           |        occur: "2009-01-01T00:00:23Z" (1230768023) 0x3a1-0x3a4.7 (4)
0x3a0|               00 00 00 18                     |     ....       |        corr: 24 0x3a5-0x3a8.7 (4)
     |                                               |                |      [24]{}: leap_second_record 0x3a9-0x3b0.7 (8)
0x3a0|                           4f ef 93 18         |         O...   |        occur: "2012-07-01T00:00:24Z" (1341100824) 0x3a9-0x3ac.7 (4)
0x3a0|                                       00 00 00|             ...|        corr: 25 0x3ad-0x3b0.7 (4)
0x3b0|19                                             |.               |
     |                                               |                |      [25]{}: leap_second_record 0x3b1-0x3b8.7 (8)
0x3b0|   55 93 2d 99                                 | U.-.           |        occur: "2015-07-01T00:00:25Z" (1435708825) 0x3b1-0x3b4.7 (4)
0x3b0|               00 00 00 1a                     |     ....       |        corr: 26 0x3b5-0x3b8.7 (4)
     |                                               |                |      [26]{}: leap_second_record 0x3b9-0x3c0.7 (8)
0x3b0|                           58 68 46 9a         |         XhF.   |        occur: "2017-01-01T00:00:26Z" (1483228826) 0x3b9-0x3bc.7 (4)
0x3b0|                                       00 00 00|             ...|        corr: 27 0x3bd-0x3c0.7 (4)
0x3c0|1b                                             |.               |
     |                                               |                |    standard_wall_indicators[0:10]: 0x3c1-0x3ca.7 (10)
0x3c0|   00                                          | .              |      [0]: 0 standard_wall_indicator (valid) 0x3c1-0x3c1.7 (1)
0x3c0|      01                                       |  .             |      [1]: 1 standard_wall_indicator (valid) 0x3c2-0x3c2.7 (1)
0x3c0|         01                                    |   .            |      [2]: 1 standard_wall_indicator (valid) 0x3c3-0x3c3.7 (1)
0x3c0|            00                                 |    .           |      [3]: 0 standard_wall_indicator (valid) 0x3c4-0x3c4.7 (1)
0x3c0|               00                              |     .          |      [4]: 0 standard_wall_indicator (valid) 0x3c5-0x3c5.7 (1)
0x3c0|                  00                           |      .         |      [5]: 0 standard_wall_indicator (valid) 0x3c6-0x3c6.7 (1)
0x3c0|                     00                        |       .        |      [6]: 0 standard_wall_indicator (valid) 0x3c7-0x3c7.7 (1)
0x3c0|                        01                     |        .       |      [7]: 1 standard_wall_indicator (valid) 0x3c8-0x3c8.7 (1)
0x3c0|                           01                  |         .      |      [8]: 1 standard_wall_indicator (valid) 0x3c9-0x3c9.7 (1)
0x3c0|                              01               |          .     |      [9]: 1 standard_wall_indicator (valid) 0x3ca-0x3ca.7 (1)
     |                                               |                |    ut_local_indicators[0:10]: 0x3cb-0x3d4.7 (10)
0x3c0|                                 00            |           .    |      [0]: 0 ut_local_indicator (valid) 0x3cb-0x3cb.7 (1)
0x3c0|                                    01         |            .   |      [1]: 1 ut_local_indicator (valid) 0x3cc-0x3cc.7 (1)
0x3c0|                                       01      |             .  |      [2]: 1 ut_local_indicator (valid) 0x3cd-0x3cd.7 (1)
0x3c0|                                          00   |              . |      [3]: 0 ut_local_indicator (valid) 0x3ce-0x3ce.7 (1)
0x3c0|                                             00|               .|      [4]: 0 ut_local_indicator (valid) 0x3cf-0x3cf.7 (1)
0x3d0|00                                             |.               |      [5]: 0 ut_local_indicator (valid) 0x3d0-0x3d0.7 (1)
0x3d0|   00                                          | .              |      [6]: 0 ut_local_indicator (valid) 0x3d1-0x3d1.7 (1)
0x3d0|      00                                       |  .             |      [7]: 0 ut_local_indicator (valid) 0x3d2-0x3d2.7 (1)
0x3d0|         00                                    |   .            |      [8]: 0 ut_local_indicator (valid) 0x3d3-0x3d3.7 (1)
0x3d0|            00                                 |    .           |      [9]: 0 ut_local_indicator (valid) 0x3d4-0x3d4.7 (1)
     |                                               |                |  v2plusheader{}: 0x3d5-0x400.7 (44)
0x3d0|               54 5a 69 66                     |     TZif       |    magic: 0x545a6966 (valid) 0x3d5-0x3d8.7 (4)
0x3d0|                           32                  |         2      |    ver: "2" (0x32) (valid) 0x3d9-0x3d9.7 (1)
0x3d0|                              00 00 00 00 00 00|          ......|    reserved: raw bits 0x3da-0x3e8.7 (15)
0x3e0|00 00 00 00 00 00 00 00 00                     |.........       |
0x3e0|                           00 00 00 0a         |         ....   |    isutcnt: 10 0x3e9-0x3ec.7 (4)
0x3e0|                                       00 00 00|             ...|    isstdcnt: 10 0x3ed-0x3f0.7 (4)
0x3f0|0a                                             |.               |
0x3f0|   00 00 00 1b                                 | ....           |    leapcnt: 27 0x3f1-0x3f4.7 (4)
0x3f0|               00 00 00 7c                     |     ...|       |    timecnt: 124 0x3f5-0x3f8.7 (4)
0x3f0|                           00 00 00 0a         |         ....   |    typecnt: 10 0x3f9-0x3fc.7 (4)
0x3f0|                                       00 00 00|             ...|    charcnt: 21 0x3fd-0x400.7 (4)
0x400|15                                             |.               |
     |                                               |                |  v2plusdatablock{}: 0x401-0xa05.7 (1541)
     |                                               |                |    transition_times[0:124]: 0x401-0x7e0.7 (992)
0x400|   ff ff ff ff 7d bd 4a 19                     | ....}.J.       |      [0]: "1900-09-30T21:39:37Z" (-2185410023) transition_time 0x401-0x408.7 (8)
0x400|                           ff ff ff ff c8 59 cf|         .....Y.|      [1]: "1940-06-01T00:00:00Z" (-933638400) transition_time 0x409-0x410.7 (8)
0x410|00                                             |.               |
0x410|   ff ff ff ff c8 fa a6 00                     | ........       |      [2]: "1940-10-01T00:00:00Z" (-923097600) transition_time 0x411-0x418.7 (8)
0x410|                           ff ff ff ff c9 38 9c|         .....8.|      [3]: "1940-11-17T00:00:00Z" (-919036800) transition_time 0x419-0x420.7 (8)
0x420|80                                             |.               |
0x420|   ff ff ff ff cc e5 eb 80                     | ........       |      [4]: "1942-11-01T00:00:00Z" (-857347200) transition_time 0x421-0x428.7 (8)
0x420|                           ff ff ff ff cd ac fe|         .......|      [5]: "1943-04-01T00:00:00Z" (-844300800) transition_time 0x429-0x430.7 (8)
0x430|00                                             |.               |
0x430|   ff ff ff ff ce c7 1f 00                     | ........       |      [6]: "1943-11-01T00:00:00Z" (-825811200) transition_time 0x431-0x438.7 (8)
0x430|                           ff ff ff ff cf 8f 83|         .......|      [7]: "1944-04-01T00:00:00Z" (-812678400) transition_time 0x439-0x440.7 (8)
0x440|00                                             |.               |
0x440|   ff ff ff ff d0 a9 a4 00                     | ........       |      [8]: "1944-11-01T00:00:00Z" (-794188800) transition_time 0x441-0x448.7 (8)
0x440|                           ff ff ff ff d1 84 7d|         ......}|      [9]: "1945-04-16T00:00:00Z" (-779846400) transition_time 0x449-0x450.7 (8)
0x450|00                                             |.               |
0x450|   ff ff ff ff d2 8a d7 80                     | ........       |      [10]: "1945-11-01T00:00:00Z" (-762652800) transition_time 0x451-0x458.7 (8)
0x450|                           ff ff ff ff d3 65 b0|         .....e.|      [11]: "1946-04-16T00:00:00Z" (-748310400) transition_time 0x459-0x460.7 (8)
0x460|80                                             |.               |
0x460|   ff ff ff ff d4 6c 0b 00                     | .....l..       |      [12]: "1946-11-01T00:00:00Z" (-731116800) transition_time 0x461-0x468.7 (8)
0x460|                           ff ff ff ff e8 36 63|         .....6c|      [13]: "1957-05-09T22:00:00Z" (-399088800) transition_time 0x469-0x470.7 (8)
0x470|60                                             |`               |
0x470|   ff ff ff ff e8 f4 2d 50                     | ......-P       |      [14]: "1957-09-30T21:00:00Z" (-386650800) transition_time 0x471-0x478.7 (8)
0x470|                           ff ff ff ff ea 0b b9|         .......|      [15]: "1958-04-30T22:00:00Z" (-368330400) transition_time 0x479-0x480.7 (8)
0x480|60                                             |`               |
0x480|   ff ff ff ff ea d5 60 d0                     | ......`.       |      [16]: "1958-09-30T21:00:00Z" (-355114800) transition_time 0x481-0x488.7 (8)
0x480|                           ff ff ff ff eb ec fa|         .......|      [17]: "1959-04-30T23:00:00Z" (-336790800) transition_time 0x489-0x490.7 (8)
0x490|f0                                             |.               |
0x490|   ff ff ff ff ec b5 6d 00                     | ......m.       |      [18]: "1959-09-30T00:00:00Z" (-323654400) transition_time 0x491-0x498.7 (8)
0x490|                           ff ff ff ff ed cf 7f|         .......|      [19]: "1960-04-30T23:00:00Z" (-305168400) transition_time 0x499-0x4a0.7 (8)
0x4a0|f0                                             |.               |
0x4a0|   ff ff ff ff ee 97 f2 00                     | ........       |      [20]: "1960-09-30T00:00:00Z" (-292032000) transition_time 0x4a1-0x4a8.7 (8)
0x4a0|                           ff ff ff ff ef b0 b3|         .......|      [21]: "1961-04-30T23:00:00Z" (-273632400) transition_time 0x4a9-0x4b0.7 (8)
0x4b0|70                                             |p               |
0x4b0|   ff ff ff ff f0 79 25 80                     | .....y%.       |      [22]: "1961-09-30T00:00:00Z" (-260496000) transition_time 0x4b1-0x4b8.7 (8)
0x4b0|                           ff ff ff ff f1 91 e6|         .......|      [23]: "1962-04-30T23:00:00Z" (-242096400) transition_time 0x4b9-0x4c0.7 (8)
0x4c0|f0                                             |.               |
0x4c0|   ff ff ff ff f2 5a 59 00                     | .....ZY.       |      [24]: "1962-09-30T00:00:00Z" (-228960000) transition_time 0x4c1-0x4c8.7 (8)
0x4c0|                           ff ff ff ff f3 73 1a|         .....s.|      [25]: "1963-04-30T23:00:00Z" (-210560400) transition_time 0x4c9-0x4d0.7 (8)
0x4d0|70                                             |p               |
0x4d0|   ff ff ff ff f4 3b 8c 80                     | .....;..       |      [26]: "1963-09-30T00:00:00Z" (-197424000) transition_time 0x4d1-0x4d8.7 (8)
0x4d0|                           ff ff ff ff f5 55 9f|         .....U.|      [27]: "1964-04-30T23:00:00Z" (-178938000) transition_time 0x4d9-0x4e0.7 (8)
0x4e0|70                                             |p               |
0x4e0|   ff ff ff ff f6 1e 11 80                     | ........       |      [28]: "1964-09-30T00:00:00Z" (-165801600) transition_time 0x4e1-0x4e8.7 (8)
0x4e0|                           ff ff ff ff f7 36 d2|         .....6.|      [29]: "1965-04-30T23:00:00Z" (-147402000) transition_time 0x4e9-0x4f0.7 (8)
0x4f0|f0                                             |.               |
0x4f0|   ff ff ff ff f7 ff 45 00                     | ......E.       |      [30]: "1965-09-30T00:00:00Z" (-134265600) transition_time 0x4f1-0x4f8.7 (8)
0x4f0|                           ff ff ff ff f9 18 06|         .......|      [31]: "1966-04-30T23:00:00Z" (-115866000) transition_time 0x4f9-0x500.7 (8)
0x500|70                                             |p               |
0x500|   ff ff ff ff f9 e1 ca 00                     | ........       |      [32]: "1966-10-01T00:00:00Z" (-102643200) transition_time 0x501-0x508.7 (8)
0x500|                           ff ff ff ff fa f9 39|         ......9|      [33]: "1967-04-30T23:00:00Z" (-84330000) transition_time 0x509-0x510.7 (8)
0x510|f0                                             |.               |
0x510|   ff ff ff ff fb 27 42 50                     | .....'BP       |      [34]: "1967-06-04T21:00:00Z" (-81313200) transition_time 0x511-0x518.7 (8)
0x510|                           00 00 00 00 08 7c 8b|         .....|.|      [35]: "1974-07-06T22:00:03Z" (142380003) transition_time 0x519-0x520.7 (8)
0x520|e3                                             |.               |
0x520|   00 00 00 00 08 fd b0 d3                     | ........       |      [36]: "1974-10-12T21:00:03Z" (150843603) transition_time 0x521-0x528.7 (8)
0x520|                           00 00 00 00 09 f6 ea|         .......|      [37]: "1975-04-19T22:00:04Z" (167176804) transition_time 0x529-0x530.7 (8)
0x530|64                                             |d               |
0x530|   00 00 00 00 0a a6 33 d4                     | ......3.       |      [38]: "1975-08-30T21:00:04Z" (178664404) transition_time 0x531-0x538.7 (8)
0x530|                           00 00 00 00 13 e9 fc|         .......|      [39]: "1980-08-02T22:00:09Z" (334101609) transition_time 0x539-0x540.7 (8)
0x540|69                                             |i               |
0x540|   00 00 00 00 14 21 5b 69                     | .....![i       |      [40]: "1980-09-13T22:00:09Z" (337730409) transition_time 0x541-0x548.7 (8)
0x540|                           00 00 00 00 1a fa c6|         .......|      [41]: "1984-05-05T22:00:12Z" (452642412) transition_time 0x549-0x550.7 (8)
0x550|6c                                             |l               |
0x550|   00 00 00 00 1b 8e 6e 6c                     | ......nl       |      [42]: "1984-08-25T22:00:12Z" (462319212) transition_time 0x551-0x558.7 (8)
0x550|                           00 00 00 00 1c be f8|         .......|      [43]: "1985-04-13T22:00:12Z" (482277612) transition_time 0x559-0x560.7 (8)
0x560|ec                                             |.               |
0x560|   00 00 00 00 1d 77 7c dd                     | .....w|.       |      [44]: "1985-08-31T21:00:13Z" (494370013) transition_time 0x561-0x568.7 (8)
0x560|                           00 00 00 00 1e cc ff|         .......|      [45]: "1986-05-17T22:00:13Z" (516751213) transition_time 0x569-0x570.7 (8)
0x570|6d                                             |m               |
0x570|   00 00 00 00 1f 60 99 5d                     | .....`.]       |      [46]: "1986-09-06T21:00:13Z" (526424413) transition_time 0x571-0x578.7 (8)
0x570|                           00 00 00 00 20 82 b1|         .... ..|      [47]: "1987-04-14T22:00:13Z" (545436013) transition_time 0x579-0x580.7 (8)
0x580|6d                                             |m               |
0x580|   00 00 00 00 21 49 b5 dd                     | ....!I..       |      [48]: "1987-09-12T21:00:13Z" (558478813) transition_time 0x581-0x588.7 (8)
0x580|                           00 00 00 00 22 5e 9e|         ...."^.|      [49]: "1988-04-09T22:00:14Z" (576626414) transition_time 0x589-0x590.7 (8)
0x590|ee                                             |.               |
0x590|   00 00 00 00 23 20 5d 5e                     | ....# ]^       |      [50]: "1988-09-03T21:00:14Z" (589323614) transition_time 0x591-0x598.7 (8)
0x590|                           00 00 00 00 24 5a 30|         ....$Z0|      [51]: "1989-04-29T22:00:14Z" (609890414) transition_time 0x599-0x5a0.7 (8)
0x5a0|6e                                             |n               |
0x5a0|   00 00 00 00 25 00 3f 5e                     | ....%.?^       |      [52]: "1989-09-02T21:00:14Z" (620773214) transition_time 0x5a1-0x5a8.7 (8)
0x5a0|                           00 00 00 00 26 0b ed|         ....&..|      [53]: "1990-03-24T22:00:15Z" (638316015) transition_time 0x5a9-0x5b0.7 (8)
0x5b0|ef                                             |.               |
0x5b0|   00 00 00 00 26 d6 e6 df                     | ....&...       |      [54]: "1990-08-25T21:00:15Z" (651618015) transition_time 0x5b1-0x5b8.7 (8)
0x5b0|                           00 00 00 00 27 eb cf|         ....'..|      [55]: "1991-03-23T22:00:16Z" (669765616) transition_time 0x5b9-0x5c0.7 (8)
0x5c0|f0                                             |.               |
0x5c0|   00 00 00 00 28 c0 03 60                     | ....(..`       |      [56]: "1991-08-31T21:00:16Z" (683672416) transition_time 0x5c1-0x5c8.7 (8)
0x5c0|                           00 00 00 00 29 d4 ec|         ....)..|      [57]: "1992-03-28T22:00:16Z" (701820016) transition_time 0x5c9-0x5d0.7 (8)
0x5d0|70                                             |p               |
0x5d0|   00 00 00 00 2a a9 1f e1                     | ....*...       |      [58]: "1992-09-05T21:00:17Z" (715726817) transition_time 0x5d1-0x5d8.7 (8)
0x5d0|                           00 00 00 00 2b bb 65|         ....+.e|      [59]: "1993-04-01T22:00:17Z" (733701617) transition_time 0x5d9-0x5e0.7 (8)
0x5e0|f1                                             |.               |
0x5e0|   00 00 00 00 2c 89 01 e2                     | ....,...       |      [60]: "1993-09-04T21:00:18Z" (747176418) transition_time 0x5e1-0x5e8.7 (8)
0x5e0|                           00 00 00 00 2d 9b 47|         ....-.G|      [61]: "1994-03-31T22:00:18Z" (765151218) transition_time 0x5e9-0x5f0.7 (8)
0x5f0|f2                                             |.               |
0x5f0|   00 00 00 00 2e 5f a9 63                     | ....._.c       |      [62]: "1994-08-27T21:00:19Z" (778021219) transition_time 0x5f1-0x5f8.7 (8)
0x5f0|                           00 00 00 00 2f 7b 29|         ..../{)|      [63]: "1995-03-30T22:00:19Z" (796600819) transition_time 0x5f9-0x600.7 (8)
0x600|f3                                             |.               |
0x600|   00 00 00 00 30 48 c5 e3                     | ....0H..       |      [64]: "1995-09-02T21:00:19Z" (810075619) transition_time 0x601-0x608.7 (8)
0x600|                           00 00 00 00 30 e7 07|         ....0..|      [65]: "1995-12-31T22:00:19Z" (820447219) transition_time 0x609-0x610.7 (8)
0x610|f3                                             |.               |
0x610|   00 00 00 00 31 64 46 74                     | ....1dFt       |      [66]: "1996-04-04T22:00:20Z" (828655220) transition_time 0x611-0x618.7 (8)
0x610|                           00 00 00 00 32 41 c2|         ....2A.|      [67]: "1996-09-19T22:00:20Z" (843170420) transition_time 0x619-0x620.7 (8)
0x620|74                                             |t               |
0x620|   00 00 00 00 33 44 28 74                     | ....3D(t       |      [68]: "1997-04-03T22:00:20Z" (860104820) transition_time 0x621-0x628.7 (8)
0x620|                           00 00 00 00 34 21 a4|         ....4!.|      [69]: "1997-09-18T22:00:21Z" (874620021) transition_time 0x629-0x630.7 (8)
0x630|75                                             |u               |
0x630|   00 00 00 00 35 24 0a 75                     | ....5$.u       |      [70]: "1998-04-02T22:00:21Z" (891554421) transition_time 0x631-0x638.7 (8)
0x630|                           00 00 00 00 36 01 86|         ....6..|      [71]: "1998-09-17T22:00:21Z" (906069621) transition_time 0x639-0x640.7 (8)
0x640|75                                             |u               |
0x640|   00 00 00 00 37 16 61 76                     | ....7.av       |      [72]: "1999-04-15T22:00:22Z" (924213622) transition_time 0x641-0x648.7 (8)
0x640|                           00 00 00 00 38 06 44|         ....8.D|      [73]: "1999-10-14T21:00:22Z" (939934822) transition_time 0x649-0x650.7 (8)
0x650|66                                             |f               |
0x650|   00 00 00 00 38 ff 7d f6                     | ....8.}.       |      [74]: "2000-04-20T22:00:22Z" (956268022) transition_time 0x651-0x658.7 (8)
0x650|                           00 00 00 00 39 ef 60|         ....9.`|      [75]: "2000-10-19T21:00:22Z" (971989222) transition_time 0x659-0x660.7 (8)
0x660|e6                                             |.               |
0x660|   00 00 00 00 3a df 5f f6                     | ....:._.       |      [76]: "2001-04-19T22:00:22Z" (987717622) transition_time 0x661-0x668.7 (8)
0x660|                           00 00 00 00 3b cf 42|         ....;.B|      [77]: "2001-10-18T21:00:22Z" (1003438822) transition_time 0x669-0x670.7 (8)
0x670|e6                                             |.               |
0x670|   00 00 00 00 3c bf 41 f6                     | ....<.A.       |      [78]: "2002-04-18T22:00:22Z" (1019167222) transition_time 0x671-0x678.7 (8)
0x670|                           00 00 00 00 3d af 24|         ....=.$|      [79]: "2002-10-17T21:00:22Z" (1034888422) transition_time 0x679-0x680.7 (8)
0x680|e6                                             |.               |
0x680|   00 00 00 00 3e 9f 23 f6                     | ....>.#.       |      [80]: "2003-04-17T22:00:22Z" (1050616822) transition_time 0x681-0x688.7 (8)
0x680|                           00 00 00 00 3f 8f 06|         ....?..|      [81]: "2003-10-16T21:00:22Z" (1066338022) transition_time 0x689-0x690.7 (8)
0x690|e6                                             |.               |
0x690|   00 00 00 00 40 7f 05 f6                     | ....@...       |      [82]: "2004-04-15T22:00:22Z" (1082066422) transition_time 0x691-0x698.7 (8)
0x690|                           00 00 00 00 41 5c 81|         ....A\.|      [83]: "2004-09-30T22:00:22Z" (1096581622) transition_time 0x699-0x6a0.7 (8)
0x6a0|f6                                             |.               |
0x6a0|   00 00 00 00 42 5e e7 f6                     | ....B^..       |      [84]: "2005-04-14T22:00:22Z" (1113516022) transition_time 0x6a1-0x6a8.7 (8)
0x6a0|                           00 00 00 00 43 41 b8|         ....CA.|      [85]: "2005-10-03T23:00:22Z" (1128380422) transition_time 0x6a9-0x6b0.7 (8)
0x6b0|06                                             |.               |
0x6b0|   00 00 00 00 44 2d a6 77                     | ....D-.w       |      [86]: "2006-03-31T22:00:23Z" (1143842423) transition_time 0x6b1-0x6b8.7 (8)
0x6b0|                           00 00 00 00 45 12 fd|         ....E..|      [87]: "2006-09-21T21:00:23Z" (1158872423) transition_time 0x6b9-0x6c0.7 (8)
0x6c0|67                                             |g               |
0x6c0|   00 00 00 00 46 0e d9 f7                     | ....F...       |      [88]: "2007-03-31T22:00:23Z" (1175378423) transition_time 0x6c1-0x6c8.7 (8)
0x6c0|                           00 00 00 00 46 e8 6f|         ....F.o|      [89]: "2007-09-12T23:00:23Z" (1189638023) transition_time 0x6c9-0x6d0.7 (8)
0x6d0|87                                             |.               |
0x6d0|   00 00 00 00 47 ec 18 f7                     | ....G...       |      [90]: "2008-03-27T22:00:23Z" (1206655223) transition_time 0x6d1-0x6d8.7 (8)
0x6d0|                           00 00 00 00 48 bb 06|         ....H..|      [91]: "2008-08-31T21:00:23Z" (1220216423) transition_time 0x6d9-0x6e0.7 (8)
0x6e0|67                                             |g               |
0x6e0|   00 00 00 00 49 cb fa f8                     | ....I...       |      [92]: "2009-03-26T22:00:24Z" (1238104824) transition_time 0x6e1-0x6e8.7 (8)
0x6e0|                           00 00 00 00 4a a0 3c|         ....J.<|      [93]: "2009-09-03T22:00:24Z" (1252015224) transition_time 0x6e9-0x6f0.7 (8)
0x6f0|78                                             |x               |
0x6f0|   00 00 00 00 4b ab dc f8                     | ....K...       |      [94]: "2010-03-25T22:00:24Z" (1269554424) transition_time 0x6f1-0x6f8.7 (8)
0x6f0|                           00 00 00 00 4c 61 bd|         ....La.|      [95]: "2010-08-10T21:00:24Z" (1281474024) transition_time 0x6f9-0x700.7 (8)
0x700|e8                                             |.               |
0x700|   00 00 00 00 4d 94 f9 b4                     | ....M...       |      [96]: "2011-03-31T22:01:24Z" (1301608884) transition_time 0x701-0x708.7 (8)
0x700|                           00 00 00 00 4e 35 c2|         ....N5.|      [97]: "2011-07-31T21:00:24Z" (1312146024) transition_time 0x709-0x710.7 (8)
0x710|68                                             |h               |
0x710|   00 00 00 00 4e 5c 0b f8                     | ....N\..       |      [98]: "2011-08-29T22:00:24Z" (1314655224) transition_time 0x711-0x718.7 (8)
0x710|                           00 00 00 00 4e 84 dc|         ....N..|      [99]: "2011-09-29T21:00:24Z" (1317330024) transition_time 0x719-0x720.7 (8)
0x720|68                                             |h               |
0x720|   00 00 00 00 4f 74 db 78                     | ....Ot.x       |      [100]: "2012-03-29T22:00:24Z" (1333058424) transition_time 0x721-0x728.7 (8)
0x720|                           00 00 00 00 50 5b 91|         ....P[.|      [101]: "2012-09-20T22:00:25Z" (1348178425) transition_time 0x729-0x730.7 (8)
0x730|f9                                             |.               |
0x730|   00 00 00 00 51 54 bd 79                     | ....QT.y       |      [102]: "2013-03-28T22:00:25Z" (1364508025) transition_time 0x731-0x738.7 (8)
0x730|                           00 00 00 00 52 44 a0|         ....RD.|      [103]: "2013-09-26T21:00:25Z" (1380229225) transition_time 0x739-0x740.7 (8)
0x740|69                                             |i               |
0x740|   00 00 00 00 53 34 9f 79                     | ....S4.y       |      [104]: "2014-03-27T22:00:25Z" (1395957625) transition_time 0x741-0x748.7 (8)
0x740|                           00 00 00 00 54 49 6c|         ....TIl|      [105]: "2014-10-23T21:00:25Z" (1414098025) transition_time 0x749-0x750.7 (8)
0x750|69                                             |i               |
0x750|   00 00 00 00 55 15 d2 f9                     | ....U...       |      [106]: "2015-03-27T22:00:25Z" (1427493625) transition_time 0x751-0x758.7 (8)
0x750|                           00 00 00 00 56 29 5c|         ....V)\|      [107]: "2015-10-22T22:00:26Z" (1445551226) transition_time 0x759-0x760.7 (8)
0x760|7a                                             |z               |
0x760|   00 00 00 00 56 f5 c3 0a                     | ....V...       |      [108]: "2016-03-25T23:00:26Z" (1458946826) transition_time 0x761-0x768.7 (8)
0x760|                           00 00 00 00 58 13 ca|         ....X..|      [109]: "2016-10-28T22:00:26Z" (1477692026) transition_time 0x769-0x770.7 (8)
0x770|7a                                             |z               |
0x770|   00 00 00 00 58 d5 a5 0b                     | ....X...       |      [110]: "2017-03-24T23:00:27Z" (1490396427) transition_time 0x771-0x778.7 (8)
0x770|                           00 00 00 00 59 f3 ac|         ....Y..|      [111]: "2017-10-27T22:00:27Z" (1509141627) transition_time 0x779-0x780.7 (8)
0x780|7b                                             |{               |
0x780|   00 00 00 00 5a b5 87 0b                     | ....Z...       |      [112]: "2018-03-23T23:00:27Z" (1521846027) transition_time 0x781-0x788.7 (8)
0x780|                           00 00 00 00 5b d3 8e|         ....[..|      [113]: "2018-10-26T22:00:27Z" (1540591227) transition_time 0x789-0x790.7 (8)
0x790|7b                                             |{               |
0x790|   00 00 00 00 5c 9d 43 fb                     | ....\.C.       |      [114]: "2019-03-28T22:00:27Z" (1553810427) transition_time 0x791-0x798.7 (8)
0x790|                           00 00 00 00 5d b3 62|         ....].b|      [115]: "2019-10-25T21:00:27Z" (1572037227) transition_time 0x799-0x7a0.7 (8)
0x7a0|6b                                             |k               |
0x7a0|   00 00 00 00 5e 7e 77 7b                     | ....^~w{       |      [116]: "2020-03-27T22:00:27Z" (1585346427) transition_time 0x7a1-0x7a8.7 (8)
0x7a0|                           00 00 00 00 5f 93 52|         ...._.R|      [117]: "2020-10-23T22:00:27Z" (1603490427) transition_time 0x7a9-0x7b0.7 (8)
0x7b0|7b                                             |{               |
0x7b0|   00 00 00 00 60 5e 59 7b                     | ....`^Y{       |      [118]: "2021-03-26T22:00:27Z" (1616796027) transition_time 0x7b1-0x7b8.7 (8)
0x7b0|                           00 00 00 00 61 7b 1d|         ....a{.|      [119]: "2021-10-28T22:00:27Z" (1635458427) transition_time 0x7b9-0x7c0.7 (8)
0x7c0|7b                                             |{               |
0x7c0|   00 00 00 00 62 3f 8c fb                     | ....b?..       |      [120]: "2022-03-26T22:00:27Z" (1648332027) transition_time 0x7c1-0x7c8.7 (8)
0x7c0|                           00 00 00 00 63 5c 5f|         ....c\_|      [121]: "2022-10-28T23:00:27Z" (1666998027) transition_time 0x7c9-0x7d0.7 (8)
0x7d0|0b                                             |.               |
0x7d0|   00 00 00 00 64 1e 39 9b                     | ....d.9.       |      [122]: "2023-03-25T00:00:27Z" (1679702427) transition_time 0x7d1-0x7d8.7 (8)
0x7d0|                           00 00 00 00 64 9b 78|         ....d.x|      [123]: "2023-06-28T00:00:27Z" (1687910427) transition_time 0x7d9-0x7e0.7 (8)
0x7e0|1b                                             |.               |
     |                                               |                |    transition_types[0:124]: 0x7e1-0x85c.7 (124)
0x7e0|   03                                          | .              |      [0]: 3 transition_type 0x7e1-0x7e1.7 (1)
0x7e0|      01                                       |  .             |      [1]: 1 transition_type 0x7e2-0x7e2.7 (1)
0x7e0|         02                                    |   .            |      [2]: 2 transition_type 0x7e3-0x7e3.7 (1)
0x7e0|            01                                 |    .           |      [3]: 1 transition_type 0x7e4-0x7e4.7 (1)
0x7e0|               02                              |     .          |      [4]: 2 transition_type 0x7e5-0x7e5.7 (1)
0x7e0|                  01                           |      .         |      [5]: 1 transition_type 0x7e6-0x7e6.7 (1)
0x7e0|                     02                        |       .        |      [6]: 2 transition_type 0x7e7-0x7e7.7 (1)
0x7e0|                        01                     |        .       |      [7]: 1 transition_type 0x7e8-0x7e8.7 (1)
0x7e0|                           02                  |         .      |      [8]: 2 transition_type 0x7e9-0x7e9.7 (1)
0x7e0|                              01               |          .     |      [9]: 1 transition_type 0x7ea-0x7ea.7 (1)
0x7e0|                                 02            |           .    |      [10]: 2 transition_type 0x7eb-0x7eb.7 (1)
0x7e0|                                    01         |            .   |      [11]: 1 transition_type 0x7ec-0x7ec.7 (1)
0x7e0|                                       02      |             .  |      [12]: 2 transition_type 0x7ed-0x7ed.7 (1)
0x7e0|                                          04   |              . |      [13]: 4 transition_type 0x7ee-0x7ee.7 (1)
0x7e0|                                             03|               .|      [14]: 3 transition_type 0x7ef-0x7ef.7 (1)
0x7f0|04                                             |.               |      [15]: 4 transition_type 0x7f0-0x7f0.7 (1)
0x7f0|   03                                          | .              |      [16]: 3 transition_type 0x7f1-0x7f1.7 (1)
0x7f0|      04                                       |  .             |      [17]: 4 transition_type 0x7f2-0x7f2.7 (1)
0x7f0|         03                                    |   .            |      [18]: 3 transition_type 0x7f3-0x7f3.7 (1)
0x7f0|            04                                 |    .           |      [19]: 4 transition_type 0x7f4-0x7f4.7 (1)
0x7f0|               03                              |     .          |      [20]: 3 transition_type 0x7f5-0x7f5.7 (1)
0x7f0|                  04                           |      .         |      [21]: 4 transition_type 0x7f6-0x7f6.7 (1)
0x7f0|                     03                        |       .        |      [22]: 3 transition_type 0x7f7-0x7f7.7 (1)
0x7f0|                        04                     |        .       |      [23]: 4 transition_type 0x7f8-0x7f8.7 (1)
0x7f0|                           03                  |         .      |      [24]: 3 transition_type 0x7f9-0x7f9.7 (1)
0x7f0|                              04               |          .     |      [25]: 4 transition_type 0x7fa-0x7fa.7 (1)
0x7f0|                                 03            |           .    |      [26]: 3 transition_type 0x7fb-0x7fb.7 (1)
0x7f0|                                    04         |            .   |      [27]: 4 transition_type 0x7fc-0x7fc.7 (1)
0x7f0|                                       03      |             .  |      [28]: 3 transition_type 0x7fd-0x7fd.7 (1)
0x7f0|                                          04   |              . |      [29]: 4 transition_type 0x7fe-0x7fe.7 (1)
0x7f0|                                             03|               .|      [30]: 3 transition_type 0x7ff-0x7ff.7 (1)
0x800|04                                             |.               |      [31]: 4 transition_type 0x800-0x800.7 (1)
0x800|   03                                          | .              |      [32]: 3 transition_type 0x801-0x801.7 (1)
0x800|      04                                       |  .             |      [33]: 4 transition_type 0x802-0x802.7 (1)
0x800|         06                                    |   .            |      [34]: 6 transition_type 0x803-0x803.7 (1)
0x800|            05                                 |    .           |      [35]: 5 transition_type 0x804-0x804.7 (1)
0x800|               06                              |     .          |      [36]: 6 transition_type 0x805-0x805.7 (1)
0x800|                  05                           |      .         |      [37]: 5 transition_type 0x806-0x806.7 (1)
0x800|                     06                        |       .        |      [38]: 6 transition_type 0x807-0x807.7 (1)
0x800|                        07                     |        .       |      [39]: 7 transition_type 0x808-0x808.7 (1)
0x800|                           08                  |         .      |      [40]: 8 transition_type 0x809-0x809.7 (1)
0x800|                              07               |          .     |      [41]: 7 transition_type 0x80a-0x80a.7 (1)
0x800|                                 08            |           .    |      [42]: 8 transition_type 0x80b-0x80b.7 (1)
0x800|                                    05         |            .   |      [43]: 5 transition_type 0x80c-0x80c.7 (1)
0x800|                                       06      |             .  |      [44]: 6 transition_type 0x80d-0x80d.7 (1)
0x800|                                          05   |              . |      [45]: 5 transition_type 0x80e-0x80e.7 (1)
0x800|                                             06|               .|      [46]: 6 transition_type 0x80f-0x80f.7 (1)
0x810|05                                             |.               |      [47]: 5 transition_type 0x810-0x810.7 (1)
0x810|   06                                          | .              |      [48]: 6 transition_type 0x811-0x811.7 (1)
0x810|      05                                       |  .             |      [49]: 5 transition_type 0x812-0x812.7 (1)
0x810|         06                                    |   .            |      [50]: 6 transition_type 0x813-0x813.7 (1)
0x810|            05                                 |    .           |      [51]: 5 transition_type 0x814-0x814.7 (1)
0x810|               06                              |     .          |      [52]: 6 transition_type 0x815-0x815.7 (1)
0x810|                  05                           |      .         |      [53]: 5 transition_type 0x816-0x816.7 (1)
0x810|                     06                        |       .        |      [54]: 6 transition_type 0x817-0x817.7 (1)
0x810|                        05                     |        .       |      [55]: 5 transition_type 0x818-0x818.7 (1)
0x810|                           06                  |         .      |      [56]: 6 transition_type 0x819-0x819.7 (1)
0x810|                              05               |          .     |      [57]: 5 transition_type 0x81a-0x81a.7 (1)
0x810|                                 06            |           .    |      [58]: 6 transition_type 0x81b-0x81b.7 (1)
0x810|                                    05         |            .   |      [59]: 5 transition_type 0x81c-0x81c.7 (1)
0x810|                                       06      |             .  |      [60]: 6 transition_type 0x81d-0x81d.7 (1)
0x810|                                          05   |              . |      [61]: 5 transition_type 0x81e-0x81e.7 (1)
0x810|                                             06|               .|      [62]: 6 transition_type 0x81f-0x81f.7 (1)
0x820|05                                             |.               |      [63]: 5 transition_type 0x820-0x820.7 (1)
0x820|   06                                          | .              |      [64]: 6 transition_type 0x821-0x821.7 (1)
0x820|      03                                       |  .             |      [65]: 3 transition_type 0x822-0x822.7 (1)
0x820|         04                                    |   .            |      [66]: 4 transition_type 0x823-0x823.7 (1)
0x820|            09                                 |    .           |      [67]: 9 transition_type 0x824-0x824.7 (1)
0x820|               04                              |     .          |      [68]: 4 transition_type 0x825-0x825.7 (1)
0x820|                  09                           |      .         |      [69]: 9 transition_type 0x826-0x826.7 (1)
0x820|                     04                        |       .        |      [70]: 4 transition_type 0x827-0x827.7 (1)
0x820|                        09                     |        .       |      [71]: 9 transition_type 0x828-0x828.7 (1)
0x820|                           04                  |         .      |      [72]: 4 transition_type 0x829-0x829.7 (1)
0x820|                              03               |          .     |      [73]: 3 transition_type 0x82a-0x82a.7 (1)
0x820|                                 04            |           .    |      [74]: 4 transition_type 0x82b-0x82b.7 (1)
0x820|                                    03         |            .   |      [75]: 3 transition_type 0x82c-0x82c.7 (1)
0x820|                                       04      |             .  |      [76]: 4 transition_type 0x82d-0x82d.7 (1)
0x820|                                          03   |              . |      [77]: 3 transition_type 0x82e-0x82e.7 (1)
0x820|                                             04|               .|      [78]: 4 transition_type 0x82f-0x82f.7 (1)
0x830|03                                             |.               |      [79]: 3 transition_type 0x830-0x830.7 (1)
0x830|   04                                          | .              |      [80]: 4 transition_type 0x831-0x831.7 (1)
0x830|      03                                       |  .             |      [81]: 3 transition_type 0x832-0x832.7 (1)
0x830|         04                                    |   .            |      [82]: 4 transition_type 0x833-0x833.7 (1)
0x830|            03                                 |    .           |      [83]: 3 transition_type 0x834-0x834.7 (1)
0x830|               04                              |     .          |      [84]: 4 transition_type 0x835-0x835.7 (1)
0x830|                  03                           |      .         |      [85]: 3 transition_type 0x836-0x836.7 (1)
0x830|                     04                        |       .        |      [86]: 4 transition_type 0x837-0x837.7 (1)
0x830|                        03                     |        .       |      [87]: 3 transition_type 0x838-0x838.7 (1)
0x830|                           04                  |         .      |      [88]: 4 transition_type 0x839-0x839.7 (1)
0x830|                              03               |          .     |      [89]: 3 transition_type 0x83a-0x83a.7 (1)
0x830|                                 04            |           .    |      [90]: 4 transition_type 0x83b-0x83b.7 (1)
0x830|                                    03         |            .   |      [91]: 3 transition_type 0x83c-0x83c.7 (1)
0x830|                                       04      |             .  |      [92]: 4 transition_type 0x83d-0x83d.7 (1)
0x830|                                          03   |              . |      [93]: 3 transition_type 0x83e-0x83e.7 (1)
0x830|                                             04|               .|      [94]: 4 transition_type 0x83f-0x83f.7 (1)
0x840|03                                             |.               |      [95]: 3 transition_type 0x840-0x840.7 (1)
0x840|   04                                          | .              |      [96]: 4 transition_type 0x841-0x841.7 (1)
0x840|      03                                       |  .             |      [97]: 3 transition_type 0x842-0x842.7 (1)
0x840|         04                                    |   .            |      [98]: 4 transition_type 0x843-0x843.7 (1)
0x840|            03                                 |    .           |      [99]: 3 transition_type 0x844-0x844.7 (1)
0x840|               04                              |     .          |      [100]: 4 transition_type 0x845-0x845.7 (1)
0x840|                  03                           |      .         |      [101]: 3 transition_type 0x846-0x846.7 (1)
0x840|                     04                        |       .        |      [102]: 4 transition_type 0x847-0x847.7 (1)
0x840|                        03                     |        .       |      [103]: 3 transition_type 0x848-0x848.7 (1)
0x840|                           04                  |         .      |      [104]: 4 transition_type 0x849-0x849.7 (1)
0x840|                              03               |          .     |      [105]: 3 transition_type 0x84a-0x84a.7 (1)
0x840|                                 04            |           .    |      [106]: 4 transition_type 0x84b-0x84b.7 (1)
0x840|                                    03         |            .   |      [107]: 3 transition_type 0x84c-0x84c.7 (1)
0x840|                                       04      |             .  |      [108]: 4 transition_type 0x84d-0x84d.7 (1)
0x840|                                          03   |              . |      [109]: 3 transition_type 0x84e-0x84e.7 (1)
0x840|                                             04|               .|      [110]: 4 transition_type 0x84f-0x84f.7 (1)
0x850|03                                             |.               |      [111]: 3 transition_type 0x850-0x850.7 (1)
0x850|   04                                          | .              |      [112]: 4 transition_type 0x851-0x851.7 (1)
0x850|      03                                       |  .             |      [113]: 3 transition_type 0x852-0x852.7 (1)
0x850|         04                                    |   .            |      [114]: 4 transition_type 0x853-0x853.7 (1)
0x850|            03                                 |    .           |      [115]: 3 transition_type 0x854-0x854.7 (1)
0x850|               04                              |     .          |      [116]: 4 transition_type 0x855-0x855.7 (1)
0x850|                  03                           |      .         |      [117]: 3 transition_type 0x856-0x856.7 (1)
0x850|                     04                        |       .        |      [118]: 4 transition_type 0x857-0x857.7 (1)
0x850|                        03                     |        .       |      [119]: 3 transition_type 0x858-0x858.7 (1)
0x850|                           04                  |         .      |      [120]: 4 transition_type 0x859-0x859.7 (1)
0x850|                              03               |          .     |      [121]: 3 transition_type 0x85a-0x85a.7 (1)
0x850|                                 04            |           .    |      [122]: 4 transition_type 0x85b-0x85b.7 (1)
0x850|                                    04         |            .   |      [123]: 4 transition_type 0x85c-0x85c.7 (1)
     |                                               |                |    local_time_type_records[0:10]: 0x85d-0x898.7 (60)
     |                                               |                |      [0]{}: local_time_type 0x85d-0x862.7 (6)
0x850|                                       00 00 20|             .. |        utoff: 8423 (valid) 0x85d-0x860.7 (4)
0x860|e7                                             |.               |
0x860|   00                                          | .              |        dst: 0 (valid) 0x861-0x861.7 (1)
0x860|      00                                       |  .             |        idx: 0 (valid) 0x862-0x862.7 (1)
     |                                               |                |      [1]{}: local_time_type 0x863-0x868.7 (6)
0x860|         00 00 2a 30                           |   ..*0         |        utoff: 10800 (valid) 0x863-0x866.7 (4)
0x860|                     01                        |       .        |        dst: 1 (valid) 0x867-0x867.7 (1)
0x860|                        04                     |        .       |        idx: 4 (valid) 0x868-0x868.7 (1)
     |                                               |                |      [2]{}: local_time_type 0x869-0x86e.7 (6)
0x860|                           00 00 1c 20         |         ...    |        utoff: 7200 (valid) 0x869-0x86c.7 (4)
0x860|                                       00      |             .  |        dst: 0 (valid) 0x86d-0x86d.7 (1)
0x860|                                          09   |              . |        idx: 9 (valid) 0x86e-0x86e.7 (1)
     |                                               |                |      [3]{}: local_time_type 0x86f-0x874.7 (6)
0x860|                                             00|               .|        utoff: 7200 (valid) 0x86f-0x872.7 (4)
0x870|00 1c 20                                       |..              |
0x870|         00                                    |   .            |        dst: 0 (valid) 0x873-0x873.7 (1)
0x870|            09                                 |    .           |        idx: 9 (valid) 0x874-0x874.7 (1)
     |                                               |                |      [4]{}: local_time_type 0x875-0x87a.7 (6)
0x870|               00 00 2a 30                     |     ..*0       |        utoff: 10800 (valid) 0x875-0x878.7 (4)
0x870|                           01                  |         .      |        dst: 1 (valid) 0x879-0x879.7 (1)
0x870|                              04               |          .     |        idx: 4 (valid) 0x87a-0x87a.7 (1)
     |                                               |                |      [5]{}: local_time_type 0x87b-0x880.7 (6)
0x870|                                 00 00 2a 30   |           ..*0 |        utoff: 10800 (valid) 0x87b-0x87e.7 (4)
0x870|                                             01|               .|        dst: 1 (valid) 0x87f-0x87f.7 (1)
0x880|0d                                             |.               |        idx: 13 (valid) 0x880-0x880.7 (1)
     |                                               |                |      [6]{}: local_time_type 0x881-0x886.7 (6)
0x880|   00 00 1c 20                                 | ...            |        utoff: 7200 (valid) 0x881-0x884.7 (4)
0x880|               00                              |     .          |        dst: 0 (valid) 0x885-0x885.7 (1)
0x880|                  11                           |      .         |        idx: 17 (valid) 0x886-0x886.7 (1)
     |                                               |                |      [7]{}: local_time_type 0x887-0x88c.7 (6)
0x880|                     00 00 2a 30               |       ..*0     |        utoff: 10800 (valid) 0x887-0x88a.7 (4)
0x880|                                 01            |           .    |        dst: 1 (valid) 0x88b-0x88b.7 (1)
0x880|                                    0d         |            .   |        idx: 13 (valid) 0x88c-0x88c.7 (1)
     |                                               |                |      [8]{}: local_time_type 0x88d-0x892.7 (6)
0x880|                                       00 00 1c|             ...|        utoff: 7200 (valid) 0x88d-0x890.7 (4)
0x890|20                                             |                |
0x890|   00                                          | .              |        dst: 0 (valid) 0x891-0x891.7 (1)
0x890|      11                                       |  .             |        idx: 17 (valid) 0x892-0x892.7 (1)
     |                                               |                |      [9]{}: local_time_type 0x893-0x898.7 (6)
0x890|         00 00 1c 20                           |   ...          |        utoff: 7200 (valid) 0x893-0x896.7 (4)
0x890|                     00                        |       .        |        dst: 0 (valid) 0x897-0x897.7 (1)
0x890|                        09                     |        .       |        idx: 9 (valid) 0x898-0x898.7 (1)
     |                                               |                |    time_zone_designations[0:5]: 0x899-0x8ad.7 (21)
0x890|                           4c 4d 54 00         |         LMT.   |      [0]: "LMT" time_zone_designation 0x899-0x89c.7 (4)
0x890|                                       45 45 53|             EES|      [1]: "EEST" time_zone_designation 0x89d-0x8a1.7 (5)
0x8a0|54 00                                          |T.              |
0x8a0|      45 45 54 00                              |  EET.          |      [2]: "EET" time_zone_designation 0x8a2-0x8a5.7 (4)
0x8a0|                  49 44 54 00                  |      IDT.      |      [3]: "IDT" time_zone_designation 0x8a6-0x8a9.7 (4)
0x8a0|                              49 53 54 00      |          IST.  |      [4]: "IST" time_zone_designation 0x8aa-0x8ad.7 (4)
     |                                               |                |    leap_second_records[0:27]: 0x8ae-0x9f1.7 (324)
     |                                               |                |      [0]{}: leap_second_record 0x8ae-0x8b9.7 (12)
0x8a0|                                          00 00|              ..|        occur: "1972-07-01T00:00:00Z" (78796800) 0x8ae-0x8b5.7 (8)
0x8b0|00 00 04 b2 58 00                              |....X.          |
0x8b0|                  00 00 00 01                  |      ....      |        corr: 1 0x8b6-0x8b9.7 (4)
     |                                               |                |      [1]{}: leap_second_record 0x8ba-0x8c5.7 (12)
0x8b0|                              00 00 00 00 05 a4|          ......|        occur: "1973-01-01T00:00:01Z" (94694401) 0x8ba-0x8c1.7 (8)
0x8c0|ec 01                                          |..              |
0x8c0|      00 00 00 02                              |  ....          |        corr: 2 0x8c2-0x8c5.7 (4)
     |                                               |                |      [2]{}: leap_second_record 0x8c6-0x8d1.7 (12)
0x8c0|                  00 00 00 00 07 86 1f 82      |      ........  |        occur: "1974-01-01T00:00:02Z" (126230402) 0x8c6-0x8cd.7 (8)
0x8c0|                                          00 00|              ..|        corr: 3 0x8ce-0x8d1.7 (4)
0x8d0|00 03                                          |..              |
     |                                               |                |      [3]{}: leap_second_record 0x8d2-0x8dd.7 (12)
0x8d0|      00 00 00 00 09 67 53 03                  |  .....gS.      |        occur: "1975-01-01T00:00:03Z" (157766403) 0x8d2-0x8d9.7 (8)
0x8d0|                              00 00 00 04      |          ....  |        corr: 4 0x8da-0x8dd.7 (4)
     |                                               |                |      [4]{}: leap_second_record 0x8de-0x8e9.7 (12)
0x8d0|                                          00 00|              ..|        occur: "1976-01-01T00:00:04Z" (189302404) 0x8de-0x8e5.7 (8)
0x8e0|00 00 0b 48 86 84                              |...H..          |
0x8e0|                  00 00 00 05                  |      ....      |        corr: 5 0x8e6-0x8e9.7 (4)
     |                                               |                |      [5]{}: leap_second_record 0x8ea-0x8f5.7 (12)
0x8e0|                              00 00 00 00 0d 2b|          .....+|        occur: "1977-01-01T00:00:05Z" (220924805) 0x8ea-0x8f1.7 (8)
0x8f0|0b 85                                          |..              |
0x8f0|      00 00 00 06                              |  ....          |        corr: 6 0x8f2-0x8f5.7 (4)
     |                                               |                |      [6]{}: leap_second_record 0x8f6-0x901.7 (12)
0x8f0|                  00 00 00 00 0f 0c 3f 06      |      ......?.  |        occur: "1978-01-01T00:00:06Z" (252460806) 0x8f6-0x8fd.7 (8)
0x8f0|                                          00 00|              ..|        corr: 7 0x8fe-0x901.7 (4)
0x900|00 07                                          |..              |
     |                                               |                |      [7]{}: leap_second_record 0x902-0x90d.7 (12)
0x900|      00 00 00 00 10 ed 72 87                  |  ......r.      |        occur: "1979-01-01T00:00:07Z" (283996807) 0x902-0x909.7 (8)
0x900|                              00 00 00 08      |          ....  |        corr: 8 0x90a-0x90d.7 (4)
     |                                               |                |      [8]{}: leap_second_record 0x90e-0x919.7 (12)
0x900|                                          00 00|              ..|        occur: "1980-01-01T00:00:08Z" (315532808) 0x90e-0x915.7 (8)
0x910|00 00 12 ce a6 08                              |......          |
0x910|                  00 00 00 09                  |      ....      |        corr: 9 0x916-0x919.7 (4)
     |                                               |                |      [9]{}: leap_second_record 0x91a-0x925.7 (12)
0x910|                              00 00 00 00 15 9f|          ......|        occur: "1981-07-01T00:00:09Z" (362793609) 0x91a-0x921.7 (8)
0x920|ca 89                                          |..              |
0x920|      00 00 00 0a                              |  ....          |        corr: 10 0x922-0x925.7 (4)
     |                                               |                |      [10]{}: leap_second_record 0x926-0x931.7 (12)
0x920|                  00 00 00 00 17 80 fe 0a      |      ........  |        occur: "1982-07-01T00:00:10Z" (394329610) 0x926-0x92d.7 (8)
0x920|                                          00 00|              ..|        corr: 11 0x92e-0x931.7 (4)
0x930|00 0b                                          |..              |
     |                                               |                |      [11]{}: leap_second_record 0x932-0x93d.7 (12)
0x930|      00 00 00 00 19 62 31 8b                  |  .....b1.      |        occur: "1983-07-01T00:00:11Z" (425865611) 0x932-0x939.7 (8)
0x930|                              00 00 00 0c      |          ....  |        corr: 12 0x93a-0x93d.7 (4)
     |                                               |                |      [12]{}: leap_second_record 0x93e-0x949.7 (12)
0x930|                                          00 00|              ..|        occur: "1985-07-01T00:00:12Z" (489024012) 0x93e-0x945.7 (8)
0x940|00 00 1d 25 ea 0c                              |...%..          |
0x940|                  00 00 00 0d                  |      ....      |        corr: 13 0x946-0x949.7 (4)
     |                                               |                |      [13]{}: leap_second_record 0x94a-0x955.7 (12)
0x940|                              00 00 00 00 21 da|          ....!.|        occur: "1988-01-01T00:00:13Z" (567993613) 0x94a-0x951.7 (8)
0x950|e5 0d                                          |..              |
0x950|      00 00 00 0e                              |  ....          |        corr: 14 0x952-0x955.7 (4)
     |                                               |                |      [14]{}: leap_second_record 0x956-0x961.7 (12)
0x950|                  00 00 00 00 25 9e 9d 8e      |      ....%...  |        occur: "1990-01-01T00:00:14Z" (631152014) 0x956-0x95d.7 (8)
0x950|                                          00 00|              ..|        corr: 15 0x95e-0x961.7 (4)
0x960|00 0f                                          |..              |
     |                                               |                |      [15]{}: leap_second_record 0x962-0x96d.7 (12)
0x960|      00 00 00 00 27 7f d1 0f                  |  ....'...      |        occur: "1991-01-01T00:00:15Z" (662688015) 0x962-0x969.7 (8)
0x960|                              00 00 00 10      |          ....  |        corr: 16 0x96a-0x96d.7 (4)
     |                                               |                |      [16]{}: leap_second_record 0x96e-0x979.7 (12)
0x960|                                          00 00|              ..|        occur: "1992-07-01T00:00:16Z" (709948816) 0x96e-0x975.7 (8)
0x970|00 00 2a 50 f5 90                              |..*P..          |
0x970|                  00 00 00 11                  |      ....      |        corr: 17 0x976-0x979.7 (4)
     |                                               |                |      [17]{}: leap_second_record 0x97a-0x985.7 (12)
0x970|                              00 00 00 00 2c 32|          ....,2|        occur: "1993-07-01T00:00:17Z" (741484817) 0x97a-0x981.7 (8)
0x980|29 11                                          |).              |
0x980|      00 00 00 12                              |  ....          |        corr: 18 0x982-0x985.7 (4)
     |                                               |                |      [18]{}: leap_second_record 0x986-0x991.7 (12)
0x980|                  00 00 00 00 2e 13 5c 92      |      ......\.  |        occur: "1994-07-01T00:00:18Z" (773020818) 0x986-0x98d.7 (8)
0x980|                                          00 00|              ..|        corr: 19 0x98e-0x991.7 (4)
0x990|00 13                                          |..              |
     |                                               |                |      [19]{}: leap_second_record 0x992-0x99d.7 (12)
0x990|      00 00 00 00 30 e7 24 13                  |  ....0.$.      |        occur: "1996-01-01T00:00:19Z" (820454419) 0x992-0x999.7 (8)
0x990|                              00 00 00 14      |          ....  |        corr: 20 0x99a-0x99d.7 (4)
     |                                               |                |      [20]{}: leap_second_record 0x99e-0x9a9.7 (12)
0x990|                                          00 00|              ..|        occur: "1997-07-01T00:00:20Z" (867715220) 0x99e-0x9a5.7 (8)
0x9a0|00 00 33 b8 48 94                              |..3.H.          |
0x9a0|                  00 00 00 15                  |      ....      |        corr: 21 0x9a6-0x9a9.7 (4)
     |                                               |                |      [21]{}: leap_second_record 0x9aa-0x9b5.7 (12)
0x9a0|                              00 00 00 00 36 8c|          ....6.|        occur: "1999-01-01T00:00:21Z" (915148821) 0x9aa-0x9b1.7 (8)
0x9b0|10 15                                          |..              |
0x9b0|      00 00 00 16                              |  ....          |        corr: 22 0x9b2-0x9b5.7 (4)
     |                                               |                |      [22]{}: leap_second_record 0x9b6-0x9c1.7 (12)
0x9b0|                  00 00 00 00 43 b7 1b 96      |      ....C...  |        occur: "2006-01-01T00:00:22Z" (1136073622) 0x9b6-0x9bd.7 (8)
0x9b0|                                          00 00|              ..|        corr: 23 0x9be-0x9c1.7 (4)
0x9c0|00 17                                          |..              |
     |                                               |                |      [23]{}: leap_second_record 0x9c2-0x9cd.7 (12)
0x9c0|      00 00 00 00 49 5c 07 97                  |  ....I\..      |        occur: "2009-01-01T00:00:23Z" (1230768023) 0x9c2-0x9c9.7 (8)
0x9c0|                              00 00 00 18      |          ....  |        corr: 24 0x9ca-0x9cd.7 (4)
     |                                               |                |      [24]{}: leap_second_record 0x9ce-0x9d9.7 (12)
0x9c0|                                          00 00|              ..|        occur: "2012-07-01T00:00:24Z" (1341100824) 0x9ce-0x9d5.7 (8)
0x9d0|00 00 4f ef 93 18                              |..O...          |
0x9d0|                  00 00 00 19                  |      ....      |        corr: 25 0x9d6-0x9d9.7 (4)
     |                                               |                |      [25]{}: leap_second_record 0x9da-0x9e5.7 (12)
0x9d0|                              00 00 00 00 55 93|          ....U.|        occur: "2015-07-01T00:00:25Z" (1435708825) 0x9da-0x9e1.7 (8)
0x9e0|2d 99                                          |-.              |
0x9e0|      00 00 00 1a                              |  ....          |        corr: 26 0x9e2-0x9e5.7 (4)
     |                                               |                |      [26]{}: leap_second_record 0x9e6-0x9f1.7 (12)
0x9e0|                  00 00 00 00 58 68 46 9a      |      ....XhF.  |        occur: "2017-01-01T00:00:26Z" (1483228826) 0x9e6-0x9ed.7 (8)
0x9e0|                                          00 00|              ..|        corr: 27 0x9ee-0x9f1.7 (4)
0x9f0|00 1b                                          |..              |
     |                                               |                |    standard_wall_indicators[0:10]: 0x9f2-0x9fb.7 (10)
0x9f0|      00                                       |  .             |      [0]: 0 standard_wall_indicator (valid) 0x9f2-0x9f2.7 (1)
0x9f0|         01                                    |   .            |      [1]: 1 standard_wall_indicator (valid) 0x9f3-0x9f3.7 (1)
0x9f0|            01                                 |    .           |      [2]: 1 standard_wall_indicator (valid) 0x9f4-0x9f4.7 (1)
0x9f0|               00                              |     .          |      [3]: 0 standard_wall_indicator (valid) 0x9f5-0x9f5.7 (1)
0x9f0|                  00                           |      .         |      [4]: 0 standard_wall_indicator (valid) 0x9f6-0x9f6.7 (1)
0x9f0|                     00                        |       .        |      [5]: 0 standard_wall_indicator (valid) 0x9f7-0x9f7.7 (1)
0x9f0|                        00                     |        .       |      [6]: 0 standard_wall_indicator (valid) 0x9f8-0x9f8.7 (1)
0x9f0|                           01                  |         .      |      [7]: 1 standard_wall_indicator (valid) 0x9f9-0x9f9.7 (1)
0x9f0|                              01               |          .     |      [8]: 1 standard_wall_indicator (valid) 0x9fa-0x9fa.7 (1)
0x9f0|                                 01            |           .    |      [9]: 1 standard_wall_indicator (valid) 0x9fb-0x9fb.7 (1)
     |                                               |                |    ut_local_indicators[0:10]: 0x9fc-0xa05.7 (10)
0x9f0|                                    00         |            .   |      [0]: 0 ut_local_indicator (valid) 0x9fc-0x9fc.7 (1)
0x9f0|                                       01      |             .  |      [1]: 1 ut_local_indicator (valid) 0x9fd-0x9fd.7 (1)
0x9f0|                                          01   |              . |      [2]: 1 ut_local_indicator (valid) 0x9fe-0x9fe.7 (1)
0x9f0|                                             00|               .|      [3]: 0 ut_local_indicator (valid) 0x9ff-0x9ff.7 (1)
0xa00|00                                             |.               |      [4]: 0 ut_local_indicator (valid) 0xa00-0xa00.7 (1)
0xa00|   00                                          | .              |      [5]: 0 ut_local_indicator (valid) 0xa01-0xa01.7 (1)
0xa00|      00                                       |  .             |      [6]: 0 ut_local_indicator (valid) 0xa02-0xa02.7 (1)
0xa00|         00                                    |   .            |      [7]: 0 ut_local_indicator (valid) 0xa03-0xa03.7 (1)
0xa00|            00                                 |    .           |      [8]: 0 ut_local_indicator (valid) 0xa04-0xa04.7 (1)
0xa00|               00                              |     .          |      [9]: 0 ut_local_indicator (valid) 0xa05-0xa05.7 (1)
     |                                               |                |  footer{}: 0xa06-0xa07.7 (2)
0xa00|                  0a                           |      .         |    nl1: 10 (valid) 0xa06-0xa06.7 (1)
     |                                               |                |    tz_string: "" 0xa07-NA (0)
0xa00|                     0a|                       |       .|       |    nl2: 10 (valid) 0xa07-0xa07.7 (1)
