$ fq -d tzif dv Helsinki
     |00 01 02 03 04 05 06 07 08 09 0a 0b 0c 0d 0e 0f|0123456789abcdef|.{}: Helsinki (tzif) 0x0-0x76b.7 (1900)
     |                                               |                |  v1header{}: 0x0-0x2b.7 (44)
0x000|54 5a 69 66                                    |TZif            |    magic: 0x545a6966 (valid) 0x0-0x3.7 (4)
0x000|            32                                 |    2           |    ver: "2" (0x32) (valid) 0x4-0x4.7 (1)
0x000|               00 00 00 00 00 00 00 00 00 00 00|     ...........|    reserved: raw bits 0x5-0x13.7 (15)
0x010|00 00 00 00                                    |....            |
0x010|            00 00 00 06                        |    ....        |    isutcnt: 6 0x14-0x17.7 (4)
0x010|                        00 00 00 06            |        ....    |    isstdcnt: 6 0x18-0x1b.7 (4)
0x010|                                    00 00 00 00|            ....|    leapcnt: 0 0x1c-0x1f.7 (4)
0x020|00 00 00 76                                    |...v            |    timecnt: 118 0x20-0x23.7 (4)
0x020|            00 00 00 06                        |    ....        |    typecnt: 6 0x24-0x27.7 (4)
0x020|                        00 00 00 11            |        ....    |    charcnt: 17 0x28-0x2b.7 (4)
     |                                               |                |  v1datablock{}: 0x2c-0x2ba.7 (655)
     |                                               |                |    transition_times[0:118]: 0x2c-0x203.7 (472)
0x020|                                    80 00 00 00|            ....|      [0]: "1901-12-13T20:45:52Z" (-2147483648) transition_time 0x2c-0x2f.7 (4)
0x030|a4 73 6f 1b                                    |.so.            |      [1]: "1921-04-30T22:20:11Z" (-1535938789) transition_time 0x30-0x33.7 (4)
0x030|            cb ce 51 60                        |    ..Q`        |      [2]: "1942-04-02T22:00:00Z" (-875671200) transition_time 0x34-0x37.7 (4)
0x030|                        cc c0 e5 60            |        ...`    |      [3]: "1942-10-03T22:00:00Z" (-859773600) transition_time 0x38-0x3b.7 (4)
0x030|                                    15 23 dd 80|            .#..|      [4]: "1981-03-29T00:00:00Z" (354672000) transition_time 0x3c-0x3f.7 (4)
0x040|16 13 ce 80                                    |....            |      [5]: "1981-09-27T00:00:00Z" (370396800) transition_time 0x40-0x43.7 (4)
0x040|            17 03 bf 80                        |    ....        |      [6]: "1982-03-28T00:00:00Z" (386121600) transition_time 0x44-0x47.7 (4)
0x040|                        17 f3 b0 80            |        ....    |      [7]: "1982-09-26T00:00:00Z" (401846400) transition_time 0x48-0x4b.7 (4)
0x040|                                    18 e3 af 90|            ....|      [8]: "1983-03-27T01:00:00Z" (417574800) transition_time 0x4c-0x4f.7 (4)
0x050|19 d3 a0 90                                    |....            |      [9]: "1983-09-25T01:00:00Z" (433299600) transition_time 0x50-0x53.7 (4)
0x050|            1a c3 91 90                        |    ....        |      [10]: "1984-03-25T01:00:00Z" (449024400) transition_time 0x54-0x57.7 (4)
0x050|                        1b bc bd 10            |        ....    |      [11]: "1984-09-30T01:00:00Z" (465354000) transition_time 0x58-0x5b.7 (4)
0x050|                                    1c ac ae 10|            ....|      [12]: "1985-03-31T01:00:00Z" (481078800) transition_time 0x5c-0x5f.7 (4)
0x060|1d 9c 9f 10                                    |....            |      [13]: "1985-09-29T01:00:00Z" (496803600) transition_time 0x60-0x63.7 (4)
0x060|            1e 8c 90 10                        |    ....        |      [14]: "1986-03-30T01:00:00Z" (512528400) transition_time 0x64-0x67.7 (4)
0x060|                        1f 7c 81 10            |        .|..    |      [15]: "1986-09-28T01:00:00Z" (528253200) transition_time 0x68-0x6b.7 (4)
0x060|                                    20 6c 72 10|             lr.|      [16]: "1987-03-29T01:00:00Z" (543978000) transition_time 0x6c-0x6f.7 (4)
0x070|21 5c 63 10                                    |!\c.            |      [17]: "1987-09-27T01:00:00Z" (559702800) transition_time 0x70-0x73.7 (4)
0x070|            22 4c 54 10                        |    "LT.        |      [18]: "1988-03-27T01:00:00Z" (575427600) transition_time 0x74-0x77.7 (4)
0x070|                        23 3c 45 10            |        #<E.    |      [19]: "1988-09-25T01:00:00Z" (591152400) transition_time 0x78-0x7b.7 (4)
0x070|                                    24 2c 36 10|            $,6.|      [20]: "1989-03-26T01:00:00Z" (606877200) transition_time 0x7c-0x7f.7 (4)
0x080|25 1c 27 10                                    |%.'.            |      [21]: "1989-09-24T01:00:00Z" (622602000) transition_time 0x80-0x83.7 (4)
0x080|            26 0c 18 10                        |    &...        |      [22]: "1990-03-25T01:00:00Z" (638326800) transition_time 0x84-0x87.7 (4)
0x080|                        27 05 43 90            |        '.C.    |      [23]: "1990-09-30T01:00:00Z" (654656400) transition_time 0x88-0x8b.7 (4)
0x080|                                    27 f5 34 90|            '.4.|      [24]: "1991-03-31T01:00:00Z" (670381200) transition_time 0x8c-0x8f.7 (4)
0x090|28 e5 25 90                                    |(.%.            |      [25]: "1991-09-29T01:00:00Z" (686106000) transition_time 0x90-0x93.7 (4)
0x090|            29 d5 16 90                        |    )...        |      [26]: "1992-03-29T01:00:00Z" (701830800) transition_time 0x94-0x97.7 (4)
0x090|                        2a c5 07 90            |        *...    |      [27]: "1992-09-27T01:00:00Z" (717555600) transition_time 0x98-0x9b.7 (4)
0x090|                                    2b b4 f8 90|            +...|      [28]: "1993-03-28T01:00:00Z" (733280400) transition_time 0x9c-0x9f.7 (4)
0x0a0|2c a4 e9 90                                    |,...            |      [29]: "1993-09-26T01:00:00Z" (749005200) transition_time 0xa0-0xa3.7 (4)
0x0a0|            2d 94 da 90                        |    -...        |      [30]: "1994-03-27T01:00:00Z" (764730000) transition_time 0xa4-0xa7.7 (4)
0x0a0|                        2e 84 cb 90            |        ....    |      [31]: "1994-09-25T01:00:00Z" (780454800) transition_time 0xa8-0xab.7 (4)
0x0a0|                                    2f 74 bc 90|            /t..|      [32]: "1995-03-26T01:00:00Z" (796179600) transition_time 0xac-0xaf.7 (4)
0x0b0|30 64 ad 90                                    |0d..            |      [33]: "1995-09-24T01:00:00Z" (811904400) transition_time 0xb0-0xb3.7 (4)
0x0b0|            31 5d d9 10                        |    1]..        |      [34]: "1996-03-31T01:00:00Z" (828234000) transition_time 0xb4-0xb7.7 (4)
0x0b0|                        32 72 b4 10            |        2r..    |      [35]: "1996-10-27T01:00:00Z" (846378000) transition_time 0xb8-0xbb.7 (4)
0x0b0|                                    33 3d bb 10|            3=..|      [36]: "1997-03-30T01:00:00Z" (859683600) transition_time 0xbc-0xbf.7 (4)
0x0c0|34 52 96 10                                    |4R..            |      [37]: "1997-10-26T01:00:00Z" (877827600) transition_time 0xc0-0xc3.7 (4)
0x0c0|            35 1d 9d 10                        |    5...        |      [38]: "1998-03-29T01:00:00Z" (891133200) transition_time 0xc4-0xc7.7 (4)
0x0c0|                        36 32 78 10            |        62x.    |      [39]: "1998-10-25T01:00:00Z" (909277200) transition_time 0xc8-0xcb.7 (4)
0x0c0|                                    36 fd 7f 10|            6...|      [40]: "1999-03-28T01:00:00Z" (922582800) transition_time 0xcc-0xcf.7 (4)
0x0d0|38 1b 94 90                                    |8...            |      [41]: "1999-10-31T01:00:00Z" (941331600) transition_time 0xd0-0xd3.7 (4)
0x0d0|            38 dd 61 10                        |    8.a.        |      [42]: "2000-03-26T01:00:00Z" (954032400) transition_time 0xd4-0xd7.7 (4)
0x0d0|                        39 fb 76 90            |        9.v.    |      [43]: "2000-10-29T01:00:00Z" (972781200) transition_time 0xd8-0xdb.7 (4)
0x0d0|                                    3a bd 43 10|            :.C.|      [44]: "2001-03-25T01:00:00Z" (985482000) transition_time 0xdc-0xdf.7 (4)
0x0e0|3b db 58 90                                    |;.X.            |      [45]: "2001-10-28T01:00:00Z" (1004230800) transition_time 0xe0-0xe3.7 (4)
0x0e0|            3c a6 5f 90                        |    <._.        |      [46]: "2002-03-31T01:00:00Z" (1017536400) transition_time 0xe4-0xe7.7 (4)
0x0e0|                        3d bb 3a 90            |        =.:.    |      [47]: "2002-10-27T01:00:00Z" (1035680400) transition_time 0xe8-0xeb.7 (4)
0x0e0|                                    3e 86 41 90|            >.A.|      [48]: "2003-03-30T01:00:00Z" (1048986000) transition_time 0xec-0xef.7 (4)
0x0f0|3f 9b 1c 90                                    |?...            |      [49]: "2003-10-26T01:00:00Z" (1067130000) transition_time 0xf0-0xf3.7 (4)
0x0f0|            40 66 23 90                        |    @f#.        |      [50]: "2004-03-28T01:00:00Z" (1080435600) transition_time 0xf4-0xf7.7 (4)
0x0f0|                        41 84 39 10            |        A.9.    |      [51]: "2004-10-31T01:00:00Z" (1099184400) transition_time 0xf8-0xfb.7 (4)
0x0f0|                                    42 46 05 90|            BF..|      [52]: "2005-03-27T01:00:00Z" (1111885200) transition_time 0xfc-0xff.7 (4)
0x100|43 64 1b 10                                    |Cd..            |      [53]: "2005-10-30T01:00:00Z" (1130634000) transition_time 0x100-0x103.7 (4)
0x100|            44 25 e7 90                        |    D%..        |      [54]: "2006-03-26T01:00:00Z" (1143334800) transition_time 0x104-0x107.7 (4)
0x100|                        45 43 fd 10            |        EC..    |      [55]: "2006-10-29T01:00:00Z" (1162083600) transition_time 0x108-0x10b.7 (4)
0x100|                                    46 05 c9 90|            F...|      [56]: "2007-03-25T01:00:00Z" (1174784400) transition_time 0x10c-0x10f.7 (4)
0x110|47 23 df 10                                    |G#..            |      [57]: "2007-10-28T01:00:00Z" (1193533200) transition_time 0x110-0x113.7 (4)
0x110|            47 ee e6 10                        |    G...        |      [58]: "2008-03-30T01:00:00Z" (1206838800) transition_time 0x114-0x117.7 (4)
0x110|                        49 03 c1 10            |        I...    |      [59]: "2008-10-26T01:00:00Z" (1224982800) transition_time 0x118-0x11b.7 (4)
0x110|                                    49 ce c8 10|            I...|      [60]: "2009-03-29T01:00:00Z" (1238288400) transition_time 0x11c-0x11f.7 (4)
0x120|4a e3 a3 10                                    |J...            |      [61]: "2009-10-25T01:00:00Z" (1256432400) transition_time 0x120-0x123.7 (4)
0x120|            4b ae aa 10                        |    K...        |      [62]: "2010-03-28T01:00:00Z" (1269738000) transition_time 0x124-0x127.7 (4)
0x120|                        4c cc bf 90            |        L...    |      [63]: "2010-10-31T01:00:00Z" (1288486800) transition_time 0x128-0x12b.7 (4)
0x120|                                    4d 8e 8c 10|            M...|      [64]: "2011-03-27T01:00:00Z" (1301187600) transition_time 0x12c-0x12f.7 (4)
0x130|4e ac a1 90                                    |N...            |      [65]: "2011-10-30T01:00:00Z" (1319936400) transition_time 0x130-0x133.7 (4)
0x130|            4f 6e 6e 10                        |    Onn.        |      [66]: "2012-03-25T01:00:00Z" (1332637200) transition_time 0x134-0x137.7 (4)
0x130|                        50 8c 83 90            |        P...    |      [67]: "2012-10-28T01:00:00Z" (1351386000) transition_time 0x138-0x13b.7 (4)
0x130|                                    51 57 8a 90|            QW..|      [68]: "2013-03-31T01:00:00Z" (1364691600) transition_time 0x13c-0x13f.7 (4)
0x140|52 6c 65 90                                    |Rle.            |      [69]: "2013-10-27T01:00:00Z" (1382835600) transition_time 0x140-0x143.7 (4)
0x140|            53 37 6c 90                        |    S7l.        |      [70]: "2014-03-30T01:00:00Z" (1396141200) transition_time 0x144-0x147.7 (4)
0x140|                        54 4c 47 90            |        TLG.    |      [71]: "2014-10-26T01:00:00Z" (1414285200) transition_time 0x148-0x14b.7 (4)
0x140|                                    55 17 4e 90|            U.N.|      [72]: "2015-03-29T01:00:00Z" (1427590800) transition_time 0x14c-0x14f.7 (4)
0x150|56 2c 29 90                                    |V,).            |      [73]: "2015-10-25T01:00:00Z" (1445734800) transition_time 0x150-0x153.7 (4)
0x150|            56 f7 30 90                        |    V.0.        |      [74]: "2016-03-27T01:00:00Z" (1459040400) transition_time 0x154-0x157.7 (4)
0x150|                        58 15 46 10            |        X.F.    |      [75]: "2016-10-30T01:00:00Z" (1477789200) transition_time 0x158-0x15b.7 (4)
0x150|                                    58 d7 12 90|            X...|      [76]: "2017-03-26T01:00:00Z" (1490490000) transition_time 0x15c-0x15f.7 (4)
0x160|59 f5 28 10                                    |Y.(.            |      [77]: "2017-10-29T01:00:00Z" (1509238800) transition_time 0x160-0x163.7 (4)
0x160|            5a b6 f4 90                        |    Z...        |      [78]: "2018-03-25T01:00:00Z" (1521939600) transition_time 0x164-0x167.7 (4)
0x160|                        5b d5 0a 10            |        [...    |      [79]: "2018-10-28T01:00:00Z" (1540688400) transition_time 0x168-0x16b.7 (4)
0x160|                                    5c a0 11 10|            \...|      [80]: "2019-03-31T01:00:00Z" (1553994000) transition_time 0x16c-0x16f.7 (4)
0x170|5d b4 ec 10                                    |]...            |      [81]: "2019-10-27T01:00:00Z" (1572138000) transition_time 0x170-0x173.7 (4)
0x170|            5e 7f f3 10                        |    ^...        |      [82]: "2020-03-29T01:00:00Z" (1585443600) transition_time 0x174-0x177.7 (4)
0x170|                        5f 94 ce 10            |        _...    |      [83]: "2020-10-25T01:00:00Z" (1603587600) transition_time 0x178-0x17b.7 (4)
0x170|                                    60 5f d5 10|            `_..|      [84]: "2021-03-28T01:00:00Z" (1616893200) transition_time 0x17c-0x17f.7 (4)
0x180|61 7d ea 90                                    |a}..            |      [85]: "2021-10-31T01:00:00Z" (1635642000) transition_time 0x180-0x183.7 (4)
0x180|            62 3f b7 10                        |    b?..        |      [86]: "2022-03-27T01:00:00Z" (1648342800) transition_time 0x184-0x187.7 (4)
0x180|                        63 5d cc 90            |        c]..    |      [87]: "2022-10-30T01:00:00Z" (1667091600) transition_time 0x188-0x18b.7 (4)
0x180|                                    64 1f 99 10|            d...|      [88]: "2023-03-26T01:00:00Z" (1679792400) transition_time 0x18c-0x18f.7 (4)
0x190|65 3d ae 90                                    |e=..            |      [89]: "2023-10-29T01:00:00Z" (1698541200) transition_time 0x190-0x193.7 (4)
0x190|            66 08 b5 90                        |    f...        |      [90]: "2024-03-31T01:00:00Z" (1711846800) transition_time 0x194-0x197.7 (4)
0x190|                        67 1d 90 90            |        g...    |      [91]: "2024-10-27T01:00:00Z" (1729990800) transition_time 0x198-0x19b.7 (4)
0x190|                                    67 e8 97 90|            g...|      [92]: "2025-03-30T01:00:00Z" (1743296400) transition_time 0x19c-0x19f.7 (4)
0x1a0|68 fd 72 90                                    |h.r.            |      [93]: "2025-10-26T01:00:00Z" (1761440400) transition_time 0x1a0-0x1a3.7 (4)
0x1a0|            69 c8 79 90                        |    i.y.        |      [94]: "2026-03-29T01:00:00Z" (1774746000) transition_time 0x1a4-0x1a7.7 (4)
0x1a0|                        6a dd 54 90            |        j.T.    |      [95]: "2026-10-25T01:00:00Z" (1792890000) transition_time 0x1a8-0x1ab.7 (4)
0x1a0|                                    6b a8 5b 90|            k.[.|      [96]: "2027-03-28T01:00:00Z" (1806195600) transition_time 0x1ac-0x1af.7 (4)
0x1b0|6c c6 71 10                                    |l.q.            |      [97]: "2027-10-31T01:00:00Z" (1824944400) transition_time 0x1b0-0x1b3.7 (4)
0x1b0|            6d 88 3d 90                        |    m.=.        |      [98]: "2028-03-26T01:00:00Z" (1837645200) transition_time 0x1b4-0x1b7.7 (4)
0x1b0|                        6e a6 53 10            |        n.S.    |      [99]: "2028-10-29T01:00:00Z" (1856394000) transition_time 0x1b8-0x1bb.7 (4)
0x1b0|                                    6f 68 1f 90|            oh..|      [100]: "2029-03-25T01:00:00Z" (1869094800) transition_time 0x1bc-0x1bf.7 (4)
0x1c0|70 86 35 10                                    |p.5.            |      [101]: "2029-10-28T01:00:00Z" (1887843600) transition_time 0x1c0-0x1c3.7 (4)
0x1c0|            71 51 3c 10                        |    qQ<.        |      [102]: "2030-03-31T01:00:00Z" (1901149200) transition_time 0x1c4-0x1c7.7 (4)
0x1c0|                        72 66 17 10            |        rf..    |      [103]: "2030-10-27T01:00:00Z" (1919293200) transition_time 0x1c8-0x1cb.7 (4)
0x1c0|                                    73 31 1e 10|            s1..|      [104]: "2031-03-30T01:00:00Z" (1932598800) transition_time 0x1cc-0x1cf.7 (4)
0x1d0|74 45 f9 10                                    |tE..            |      [105]: "2031-10-26T01:00:00Z" (1950742800) transition_time 0x1d0-0x1d3.7 (4)
0x1d0|            75 11 00 10                        |    u...        |      [106]: "2032-03-28T01:00:00Z" (1964048400) transition_time 0x1d4-0x1d7.7 (4)
0x1d0|                        76 2f 15 90            |        v/..    |      [107]: "2032-10-31T01:00:00Z" (1982797200) transition_time 0x1d8-0x1db.7 (4)
0x1d0|                                    76 f0 e2 10|            v...|      [108]: "2033-03-27T01:00:00Z" (1995498000) transition_time 0x1dc-0x1df.7 (4)
0x1e0|78 0e f7 90                                    |x...            |      [109]: "2033-10-30T01:00:00Z" (2014246800) transition_time 0x1e0-0x1e3.7 (4)
0x1e0|            78 d0 c4 10                        |    x...        |      [110]: "2034-03-26T01:00:00Z" (2026947600) transition_time 0x1e4-0x1e7.7 (4)
0x1e0|                        79 ee d9 90            |        y...    |      [111]: "2034-10-29T01:00:00Z" (2045696400) transition_time 0x1e8-0x1eb.7 (4)
0x1e0|                                    7a b0 a6 10|            z...|      [112]: "2035-03-25T01:00:00Z" (2058397200) transition_time 0x1ec-0x1ef.7 (4)
0x1f0|7b ce bb 90                                    |{...            |      [113]: "2035-10-28T01:00:00Z" (2077146000) transition_time 0x1f0-0x1f3.7 (4)
0x1f0|            7c 99 c2 90                        |    |...        |      [114]: "2036-03-30T01:00:00Z" (2090451600) transition_time 0x1f4-0x1f7.7 (4)
0x1f0|                        7d ae 9d 90            |        }...    |      [115]: "2036-10-26T01:00:00Z" (2108595600) transition_time 0x1f8-0x1fb.7 (4)
0x1f0|                                    7e 79 a4 90|            ~y..|      [116]: "2037-03-29T01:00:00Z" (2121901200) transition_time 0x1fc-0x1ff.7 (4)
0x200|7f 8e 7f 90                                    |....            |      [117]: "2037-10-25T01:00:00Z" (2140045200) transition_time 0x200-0x203.7 (4)
     |                                               |                |    transition_types[0:118]: 0x204-0x279.7 (118)
0x200|            01                                 |    .           |      [0]: 1 transition_type 0x204-0x204.7 (1)
0x200|               03                              |     .          |      [1]: 3 transition_type 0x205-0x205.7 (1)
0x200|                  02                           |      .         |      [2]: 2 transition_type 0x206-0x206.7 (1)
0x200|                     03                        |       .        |      [3]: 3 transition_type 0x207-0x207.7 (1)
0x200|                        02                     |        .       |      [4]: 2 transition_type 0x208-0x208.7 (1)
0x200|                           03                  |         .      |      [5]: 3 transition_type 0x209-0x209.7 (1)
0x200|                              02               |          .     |      [6]: 2 transition_type 0x20a-0x20a.7 (1)
0x200|                                 03            |           .    |      [7]: 3 transition_type 0x20b-0x20b.7 (1)
0x200|                                    04         |            .   |      [8]: 4 transition_type 0x20c-0x20c.7 (1)
0x200|                                       05      |             .  |      [9]: 5 transition_type 0x20d-0x20d.7 (1)
0x200|                                          04   |              . |      [10]: 4 transition_type 0x20e-0x20e.7 (1)
0x200|                                             05|               .|      [11]: 5 transition_type 0x20f-0x20f.7 (1)
0x210|04                                             |.               |      [12]: 4 transition_type 0x210-0x210.7 (1)
0x210|   05                                          | .              |      [13]: 5 transition_type 0x211-0x211.7 (1)
0x210|      04                                       |  .             |      [14]: 4 transition_type 0x212-0x212.7 (1)
0x210|         05                                    |   .            |      [15]: 5 transition_type 0x213-0x213.7 (1)
0x210|            04                                 |    .           |      [16]: 4 transition_type 0x214-0x214.7 (1)
0x210|               05                              |     .          |      [17]: 5 transition_type 0x215-0x215.7 (1)
0x210|                  04                           |      .         |      [18]: 4 transition_type 0x216-0x216.7 (1)
0x210|                     05                        |       .        |      [19]: 5 transition_type 0x217-0x217.7 (1)
0x210|                        04                     |        .       |      [20]: 4 transition_type 0x218-0x218.7 (1)
0x210|                           05                  |         .      |      [21]: 5 transition_type 0x219-0x219.7 (1)
0x210|                              04               |          .     |      [22]: 4 transition_type 0x21a-0x21a.7 (1)
0x210|                                 05            |           .    |      [23]: 5 transition_type 0x21b-0x21b.7 (1)
0x210|                                    04         |            .   |      [24]: 4 transition_type 0x21c-0x21c.7 (1)
0x210|                                       05      |             .  |      [25]: 5 transition_type 0x21d-0x21d.7 (1)
0x210|                                          04   |              . |      [26]: 4 transition_type 0x21e-0x21e.7 (1)
0x210|                                             05|               .|      [27]: 5 transition_type 0x21f-0x21f.7 (1)
0x220|04                                             |.               |      [28]: 4 transition_type 0x220-0x220.7 (1)
0x220|   05                                          | .              |      [29]: 5 transition_type 0x221-0x221.7 (1)
0x220|      04                                       |  .             |      [30]: 4 transition_type 0x222-0x222.7 (1)
0x220|         05                                    |   .            |      [31]: 5 transition_type 0x223-0x223.7 (1)
0x220|            04                                 |    .           |      [32]: 4 transition_type 0x224-0x224.7 (1)
0x220|               05                              |     .          |      [33]: 5 transition_type 0x225-0x225.7 (1)
0x220|                  04                           |      .         |      [34]: 4 transition_type 0x226-0x226.7 (1)
0x220|                     05                        |       .        |      [35]: 5 transition_type 0x227-0x227.7 (1)
0x220|                        04                     |        .       |      [36]: 4 transition_type 0x228-0x228.7 (1)
0x220|                           05                  |         .      |      [37]: 5 transition_type 0x229-0x229.7 (1)
0x220|                              04               |          .     |      [38]: 4 transition_type 0x22a-0x22a.7 (1)
0x220|                                 05            |           .    |      [39]: 5 transition_type 0x22b-0x22b.7 (1)
0x220|                                    04         |            .   |      [40]: 4 transition_type 0x22c-0x22c.7 (1)
0x220|                                       05      |             .  |      [41]: 5 transition_type 0x22d-0x22d.7 (1)
0x220|                                          04   |              . |      [42]: 4 transition_type 0x22e-0x22e.7 (1)
0x220|                                             05|               .|      [43]: 5 transition_type 0x22f-0x22f.7 (1)
0x230|04                                             |.               |      [44]: 4 transition_type 0x230-0x230.7 (1)
0x230|   05                                          | .              |      [45]: 5 transition_type 0x231-0x231.7 (1)
0x230|      04                                       |  .             |      [46]: 4 transition_type 0x232-0x232.7 (1)
0x230|         05                                    |   .            |      [47]: 5 transition_type 0x233-0x233.7 (1)
0x230|            04                                 |    .           |      [48]: 4 transition_type 0x234-0x234.7 (1)
0x230|               05                              |     .          |      [49]: 5 transition_type 0x235-0x235.7 (1)
0x230|                  04                           |      .         |      [50]: 4 transition_type 0x236-0x236.7 (1)
0x230|                     05                        |       .        |      [51]: 5 transition_type 0x237-0x237.7 (1)
0x230|                        04                     |        .       |      [52]: 4 transition_type 0x238-0x238.7 (1)
0x230|                           05                  |         .      |      [53]: 5 transition_type 0x239-0x239.7 (1)
0x230|                              04               |          .     |      [54]: 4 transition_type 0x23a-0x23a.7 (1)
0x230|                                 05            |           .    |      [55]: 5 transition_type 0x23b-0x23b.7 (1)
0x230|                                    04         |            .   |      [56]: 4 transition_type 0x23c-0x23c.7 (1)
0x230|                                       05      |             .  |      [57]: 5 transition_type 0x23d-0x23d.7 (1)
0x230|                                          04   |              . |      [58]: 4 transition_type 0x23e-0x23e.7 (1)
0x230|                                             05|               .|      [59]: 5 transition_type 0x23f-0x23f.7 (1)
0x240|04                                             |.               |      [60]: 4 transition_type 0x240-0x240.7 (1)
0x240|   05                                          | .              |      [61]: 5 transition_type 0x241-0x241.7 (1)
0x240|      04                                       |  .             |      [62]: 4 transition_type 0x242-0x242.7 (1)
0x240|         05                                    |   .            |      [63]: 5 transition_type 0x243-0x243.7 (1)
0x240|            04                                 |    .           |      [64]: 4 transition_type 0x244-0x244.7 (1)
0x240|               05                              |     .          |      [65]: 5 transition_type 0x245-0x245.7 (1)
0x240|                  04                           |      .         |      [66]: 4 transition_type 0x246-0x246.7 (1)
0x240|                     05                        |       .        |      [67]: 5 transition_type 0x247-0x247.7 (1)
0x240|                        04                     |        .       |      [68]: 4 transition_type 0x248-0x248.7 (1)
0x240|                           05                  |         .      |      [69]: 5 transition_type 0x249-0x249.7 (1)
0x240|                              04               |          .     |      [70]: 4 transition_type 0x24a-0x24a.7 (1)
0x240|                                 05            |           .    |      [71]: 5 transition_type 0x24b-0x24b.7 (1)
0x240|                                    04         |            .   |      [72]: 4 transition_type 0x24c-0x24c.7 (1)
0x240|                                       05      |             .  |      [73]: 5 transition_type 0x24d-0x24d.7 (1)
0x240|                                          04   |              . |      [74]: 4 transition_type 0x24e-0x24e.7 (1)
0x240|                                             05|               .|      [75]: 5 transition_type 0x24f-0x24f.7 (1)
0x250|04                                             |.               |      [76]: 4 transition_type 0x250-0x250.7 (1)
0x250|   05                                          | .              |      [77]: 5 transition_type 0x251-0x251.7 (1)
0x250|      04                                       |  .             |      [78]: 4 transition_type 0x252-0x252.7 (1)
0x250|         05                                    |   .            |      [79]: 5 transition_type 0x253-0x253.7 (1)
0x250|            04                                 |    .           |      [80]: 4 transition_type 0x254-0x254.7 (1)
0x250|               05                              |     .          |      [81]: 5 transition_type 0x255-0x255.7 (1)
0x250|                  04                           |      .         |      [82]: 4 transition_type 0x256-0x256.7 (1)
0x250|                     05                        |       .        |      [83]: 5 transition_type 0x257-0x257.7 (1)
0x250|                        04                     |        .       |      [84]: 4 transition_type 0x258-0x258.7 (1)
0x250|                           05                  |         .      |      [85]: 5 transition_type 0x259-0x259.7 (1)
0x250|                              04               |          .     |      [86]: 4 transition_type 0x25a-0x25a.7 (1)
0x250|                                 05            |           .    |      [87]: 5 transition_type 0x25b-0x25b.7 (1)
0x250|                                    04         |            .   |      [88]: 4 transition_type 0x25c-0x25c.7 (1)
0x250|                                       05      |             .  |      [89]: 5 transition_type 0x25d-0x25d.7 (1)
0x250|                                          04   |              . |      [90]: 4 transition_type 0x25e-0x25e.7 (1)
0x250|                                             05|               .|      [91]: 5 transition_type 0x25f-0x25f.7 (1)
0x260|04                                             |.               |      [92]: 4 transition_type 0x260-0x260.7 (1)
0x260|   05                                          | .              |      [93]: 5 transition_type 0x261-0x261.7 (1)
0x260|      04                                       |  .             |      [94]: 4 transition_type 0x262-0x262.7 (1)
0x260|         05                                    |   .            |      [95]: 5 transition_type 0x263-0x263.7 (1)
0x260|            04                                 |    .           |      [96]: 4 transition_type 0x264-0x264.7 (1)
0x260|               05                              |     .          |      [97]: 5 transition_type 0x265-0x265.7 (1)
0x260|                  04                           |      .         |      [98]: 4 transition_type 0x266-0x266.7 (1)
0x260|                     05                        |       .        |      [99]: 5 transition_type 0x267-0x267.7 (1)
0x260|                        04                     |        .       |      [100]: 4 transition_type 0x268-0x268.7 (1)
0x260|                           05                  |         .      |      [101]: 5 transition_type 0x269-0x269.7 (1)
0x260|                              04               |          .     |      [102]: 4 transition_type 0x26a-0x26a.7 (1)
0x260|                                 05            |           .    |      [103]: 5 transition_type 0x26b-0x26b.7 (1)
0x260|                                    04         |            .   |      [104]: 4 transition_type 0x26c-0x26c.7 (1)
0x260|                                       05      |             .  |      [105]: 5 transition_type 0x26d-0x26d.7 (1)
0x260|                                          04   |              . |      [106]: 4 transition_type 0x26e-0x26e.7 (1)
0x260|                                             05|               .|      [107]: 5 transition_type 0x26f-0x26f.7 (1)
0x270|04                                             |.               |      [108]: 4 transition_type 0x270-0x270.7 (1)
0x270|   05                                          | .              |      [109]: 5 transition_type 0x271-0x271.7 (1)
0x270|      04                                       |  .             |      [110]: 4 transition_type 0x272-0x272.7 (1)
0x270|         05                                    |   .            |      [111]: 5 transition_type 0x273-0x273.7 (1)
0x270|            04                                 |    .           |      [112]: 4 transition_type 0x274-0x274.7 (1)
0x270|               05                              |     .          |      [113]: 5 transition_type 0x275-0x275.7 (1)
0x270|                  04                           |      .         |      [114]: 4 transition_type 0x276-0x276.7 (1)
0x270|                     05                        |       .        |      [115]: 5 transition_type 0x277-0x277.7 (1)
0x270|                        04                     |        .       |      [116]: 4 transition_type 0x278-0x278.7 (1)
0x270|                           05                  |         .      |      [117]: 5 transition_type 0x279-0x279.7 (1)
     |                                               |                |    local_time_type_records[0:6]: 0x27a-0x29d.7 (36)
     |                                               |                |      [0]{}: local_time_type 0x27a-0x27f.7 (6)
0x270|                              00 00 17 65      |          ...e  |        utoff: 5989 (valid) 0x27a-0x27d.7 (4)
0x270|                                          00   |              . |        dst: 0 (valid) 0x27e-0x27e.7 (1)
0x270|                                             00|               .|        idx: 0 (valid) 0x27f-0x27f.7 (1)
     |                                               |                |      [1]{}: local_time_type 0x280-0x285.7 (6)
0x280|00 00 17 65                                    |...e            |        utoff: 5989 (valid) 0x280-0x283.7 (4)
0x280|            00                                 |    .           |        dst: 0 (valid) 0x284-0x284.7 (1)
0x280|               04                              |     .          |        idx: 4 (valid) 0x285-0x285.7 (1)
     |                                               |                |      [2]{}: local_time_type 0x286-0x28b.7 (6)
0x280|                  00 00 2a 30                  |      ..*0      |        utoff: 10800 (valid) 0x286-0x289.7 (4)
0x280|                              01               |          .     |        dst: 1 (valid) 0x28a-0x28a.7 (1)
0x280|                                 08            |           .    |        idx: 8 (valid) 0x28b-0x28b.7 (1)
     |                                               |                |      [3]{}: local_time_type 0x28c-0x291.7 (6)
0x280|                                    00 00 1c 20|            ... |        utoff: 7200 (valid) 0x28c-0x28f.7 (4)
0x290|00                                             |.               |        dst: 0 (valid) 0x290-0x290.7 (1)
0x290|   0d                                          | .              |        idx: 13 (valid) 0x291-0x291.7 (1)
     |                                               |                |      [4]{}: local_time_type 0x292-0x297.7 (6)
0x290|      00 00 2a 30                              |  ..*0          |        utoff: 10800 (valid) 0x292-0x295.7 (4)
0x290|                  01                           |      .         |        dst: 1 (valid) 0x296-0x296.7 (1)
0x290|                     08                        |       .        |        idx: 8 (valid) 0x297-0x297.7 (1)
     |                                               |                |      [5]{}: local_time_type 0x298-0x29d.7 (6)
0x290|                        00 00 1c 20            |        ...     |        utoff: 7200 (valid) 0x298-0x29b.7 (4)
0x290|                                    00         |            .   |        dst: 0 (valid) 0x29c-0x29c.7 (1)
0x290|                                       0d      |             .  |        idx: 13 (valid) 0x29d-0x29d.7 (1)
     |                                               |                |    time_zone_designations[0:4]: 0x29e-0x2ae.7 (17)
0x290|                                          4c 4d|              LM|      [0]: "LMT" time_zone_designation 0x29e-0x2a1.7 (4)
0x2a0|54 00                                          |T.              |
0x2a0|      48 4d 54 00                              |  HMT.          |      [1]: "HMT" time_zone_designation 0x2a2-0x2a5.7 (4)
0x2a0|                  45 45 53 54 00               |      EEST.     |      [2]: "EEST" time_zone_designation 0x2a6-0x2aa.7 (5)
0x2a0|                                 45 45 54 00   |           EET. |      [3]: "EET" time_zone_designation 0x2ab-0x2ae.7 (4)
     |                                               |                |    leap_second_records[0:0]: 0x2af-NA (0)
     |                                               |                |    standard_wall_indicators[0:6]: 0x2af-0x2b4.7 (6)
0x2a0|                                             00|               .|      [0]: 0 standard_wall_indicator (valid) 0x2af-0x2af.7 (1)
0x2b0|00                                             |.               |      [1]: 0 standard_wall_indicator (valid) 0x2b0-0x2b0.7 (1)
0x2b0|   00                                          | .              |      [2]: 0 standard_wall_indicator (valid) 0x2b1-0x2b1.7 (1)
0x2b0|      00                                       |  .             |      [3]: 0 standard_wall_indicator (valid) 0x2b2-0x2b2.7 (1)
0x2b0|         01                                    |   .            |      [4]: 1 standard_wall_indicator (valid) 0x2b3-0x2b3.7 (1)
0x2b0|            01                                 |    .           |      [5]: 1 standard_wall_indicator (valid) 0x2b4-0x2b4.7 (1)
     |                                               |                |    ut_local_indicators[0:6]: 0x2b5-0x2ba.7 (6)
0x2b0|               00                              |     .          |      [0]: 0 ut_local_indicator (valid) 0x2b5-0x2b5.7 (1)
0x2b0|                  00                           |      .         |      [1]: 0 ut_local_indicator (valid) 0x2b6-0x2b6.7 (1)
0x2b0|                     00                        |       .        |      [2]: 0 ut_local_indicator (valid) 0x2b7-0x2b7.7 (1)
0x2b0|                        00                     |        .       |      [3]: 0 ut_local_indicator (valid) 0x2b8-0x2b8.7 (1)
0x2b0|                           01                  |         .      |      [4]: 1 ut_local_indicator (valid) 0x2b9-0x2b9.7 (1)
0x2b0|                              01               |          .     |      [5]: 1 ut_local_indicator (valid) 0x2ba-0x2ba.7 (1)
     |                                               |                |  v2plusheader{}: 0x2bb-0x2e6.7 (44)
0x2b0|                                 54 5a 69 66   |           TZif |    magic: 0x545a6966 (valid) 0x2bb-0x2be.7 (4)
0x2b0|                                             32|               2|    ver: "2" (0x32) (valid) 0x2bf-0x2bf.7 (1)
0x2c0|00 00 00 00 00 00 00 00 00 00 00 00 00 00 00   |............... |    reserved: raw bits 0x2c0-0x2ce.7 (15)
0x2c0|                                             00|               .|    isutcnt: 6 0x2cf-0x2d2.7 (4)
0x2d0|00 00 06                                       |...             |
0x2d0|         00 00 00 06                           |   ....         |    isstdcnt: 6 0x2d3-0x2d6.7 (4)
0x2d0|                     00 00 00 00               |       ....     |    leapcnt: 0 0x2d7-0x2da.7 (4)
0x2d0|                                 00 00 00 76   |           ...v |    timecnt: 118 0x2db-0x2de.7 (4)
0x2d0|                                             00|               .|    typecnt: 6 0x2df-0x2e2.7 (4)
0x2e0|00 00 06                                       |...             |
0x2e0|         00 00 00 11                           |   ....         |    charcnt: 17 0x2e3-0x2e6.7 (4)
     |                                               |                |  v2plusdatablock{}: 0x2e7-0x74d.7 (1127)
     |                                               |                |    transition_times[0:118]: 0x2e7-0x696.7 (944)
0x2e0|                     ff ff ff ff 53 ba 26 9b   |       ....S.&. |      [0]: "1878-05-30T22:20:11Z" (-2890258789) transition_time 0x2e7-0x2ee.7 (8)
0x2e0|                                             ff|               .|      [1]: "1921-04-30T22:20:11Z" (-1535938789) transition_time 0x2ef-0x2f6.7 (8)
0x2f0|ff ff ff a4 73 6f 1b                           |....so.         |
0x2f0|                     ff ff ff ff cb ce 51 60   |       ......Q` |      [2]: "1942-04-02T22:00:00Z" (-875671200) transition_time 0x2f7-0x2fe.7 (8)
0x2f0|                                             ff|               .|      [3]: "1942-10-03T22:00:00Z" (-859773600) transition_time 0x2ff-0x306.7 (8)
0x300|ff ff ff cc c0 e5 60                           |......`         |
0x300|                     00 00 00 00 15 23 dd 80   |       .....#.. |      [4]: "1981-03-29T00:00:00Z" (354672000) transition_time 0x307-0x30e.7 (8)
0x300|                                             00|               .|      [5]: "1981-09-27T00:00:00Z" (370396800) transition_time 0x30f-0x316.7 (8)
0x310|00 00 00 16 13 ce 80                           |.......         |
0x310|                     00 00 00 00 17 03 bf 80   |       ........ |      [6]: "1982-03-28T00:00:00Z" (386121600) transition_time 0x317-0x31e.7 (8)
0x310|                                             00|               .|      [7]: "1982-09-26T00:00:00Z" (401846400) transition_time 0x31f-0x326.7 (8)
0x320|00 00 00 17 f3 b0 80                           |.......         |
0x320|                     00 00 00 00 18 e3 af 90   |       ........ |      [8]: "1983-03-27T01:00:00Z" (417574800) transition_time 0x327-0x32e.7 (8)
0x320|                                             00|               .|      [9]: "1983-09-25T01:00:00Z" (433299600) transition_time 0x32f-0x336.7 (8)
0x330|00 00 00 19 d3 a0 90                           |.......         |
0x330|                     00 00 00 00 1a c3 91 90   |       ........ |      [10]: "1984-03-25T01:00:00Z" (449024400) transition_time 0x337-0x33e.7 (8)
0x330|                                             00|               .|      [11]: "1984-09-30T01:00:00Z" (465354000) transition_time 0x33f-0x346.7 (8)
0x340|00 00 00 1b bc bd 10                           |.......         |
0x340|                     00 00 00 00 1c ac ae 10   |       ........ |      [12]: "1985-03-31T01:00:00Z" (481078800) transition_time 0x347-0x34e.7 (8)
0x340|                                             00|               .|      [13]: "1985-09-29T01:00:00Z" (496803600) transition_time 0x34f-0x356.7 (8)
0x350|00 00 00 1d 9c 9f 10                           |.......         |
0x350|                     00 00 00 00 1e 8c 90 10   |       ........ |      [14]: "1986-03-30T01:00:00Z" (512528400) transition_time 0x357-0x35e.7 (8)
0x350|                                             00|               .|      [15]: "1986-09-28T01:00:00Z" (528253200) transition_time 0x35f-0x366.7 (8)
0x360|00 00 00 1f 7c 81 10                           |....|..         |
0x360|                     00 00 00 00 20 6c 72 10   |       .... lr. |      [16]: "1987-03-29T01:00:00Z" (543978000) transition_time 0x367-0x36e.7 (8)
0x360|                                             00|               .|      [17]: "1987-09-27T01:00:00Z" (559702800) transition_time 0x36f-0x376.7 (8)
0x370|00 00 00 21 5c 63 10                           |...!\c.         |
0x370|                     00 00 00 00 22 4c 54 10   |       ...."LT. |      [18]: "1988-03-27T01:00:00Z" (575427600) transition_time 0x377-0x37e.7 (8)
0x370|                                             00|               .|      [19]: "1988-09-25T01:00:00Z" (591152400) transition_time 0x37f-0x386.7 (8)
0x380|00 00 00 23 3c 45 10                           |...#<E.         |
0x380|                     00 00 00 00 24 2c 36 10   |       ....$,6. |      [20]: "1989-03-26T01:00:00Z" (606877200) transition_time 0x387-0x38e.7 (8)
0x380|                                             00|               .|      [21]: "1989-09-24T01:00:00Z" (622602000) transition_time 0x38f-0x396.7 (8)
0x390|00 00 00 25 1c 27 10                           |...%.'.         |
0x390|                     00 00 00 00 26 0c 18 10   |       ....&... |      [22]: "1990-03-25T01:00:00Z" (638326800) transition_time 0x397-0x39e.7 (8)
0x390|                                             00|               .|      [23]: "1990-09-30T01:00:00Z" (654656400) transition_time 0x39f-0x3a6.7 (8)
0x3a0|00 00 00 27 05 43 90                           |...'.C.         |
0x3a0|                     00 00 00 00 27 f5 34 90   |       ....'.4. |      [24]: "1991-03-31T01:00:00Z" (670381200) transition_time 0x3a7-0x3ae.7 (8)
0x3a0|                                             00|               .|      [25]: "1991-09-29T01:00:00Z" (686106000) transition_time 0x3af-0x3b6.7 (8)
0x3b0|00 00 00 28 e5 25 90                           |...(.%.         |
0x3b0|                     00 00 00 00 29 d5 16 90   |       ....)... |      [26]: "1992-03-29T01:00:00Z" (701830800) transition_time 0x3b7-0x3be.7 (8)
0x3b0|                                             00|               .|      [27]: "1992-09-27T01:00:00Z" (717555600) transition_time 0x3bf-0x3c6.7 (8)
0x3c0|00 00 00 2a c5 07 90                           |...*...         |
0x3c0|                     00 00 00 00 2b b4 f8 90   |       ....+... |      [28]: "1993-03-28T01:00:00Z" (733280400) transition_time 0x3c7-0x3ce.7 (8)
0x3c0|                                             00|               .|      [29]: "1993-09-26T01:00:00Z" (749005200) transition_time 0x3cf-0x3d6.7 (8)
0x3d0|00 00 00 2c a4 e9 90                           |...,...         |
0x3d0|                     00 00 00 00 2d 94 da 90   |       ....-... |      [30]: "1994-03-27T01:00:00Z" (764730000) transition_time 0x3d7-0x3de.7 (8)
0x3d0|                                             00|               .|      [31]: "1994-09-25T01:00:00Z" (780454800) transition_time 0x3df-0x3e6.7 (8)
0x3e0|00 00 00 2e 84 cb 90                           |.......         |
0x3e0|                     00 00 00 00 2f 74 bc 90   |       ..../t.. |      [32]: "1995-03-26T01:00:00Z" (796179600) transition_time 0x3e7-0x3ee.7 (8)
0x3e0|                                             00|               .|      [33]: "1995-09-24T01:00:00Z" (811904400) transition_time 0x3ef-0x3f6.7 (8)
0x3f0|00 00 00 30 64 ad 90                           |...0d..         |
0x3f0|                     00 00 00 00 31 5d d9 10   |       ....1].. |      [34]: "1996-03-31T01:00:00Z" (828234000) transition_time 0x3f7-0x3fe.7 (8)
0x3f0|                                             00|               .|      [35]: "1996-10-27T01:00:00Z" (846378000) transition_time 0x3ff-0x406.7 (8)
0x400|00 00 00 32 72 b4 10                           |...2r..         |
0x400|                     00 00 00 00 33 3d bb 10   |       ....3=.. |      [36]: "1997-03-30T01:00:00Z" (859683600) transition_time 0x407-0x40e.7 (8)
0x400|                                             00|               .|      [37]: "1997-10-26T01:00:00Z" (877827600) transition_time 0x40f-0x416.7 (8)
0x410|00 00 00 34 52 96 10                           |...4R..         |
0x410|                     00 00 00 00 35 1d 9d 10   |       ....5... |      [38]: "1998-03-29T01:00:00Z" (891133200) transition_time 0x417-0x41e.7 (8)
0x410|                                             00|               .|      [39]: "1998-10-25T01:00:00Z" (909277200) transition_time 0x41f-0x426.7 (8)
0x420|00 00 00 36 32 78 10                           |...62x.         |
0x420|                     00 00 00 00 36 fd 7f 10   |       ....6... |      [40]: "1999-03-28T01:00:00Z" (922582800) transition_time 0x427-0x42e.7 (8)
0x420|                                             00|               .|      [41]: "1999-10-31T01:00:00Z" (941331600) transition_time 0x42f-0x436.7 (8)
0x430|00 00 00 38 1b 94 90                           |...8...         |
0x430|                     00 00 00 00 38 dd 61 10   |       ....8.a. |      [42]: "2000-03-26T01:00:00Z" (954032400) transition_time 0x437-0x43e.7 (8)
0x430|                                             00|               .|      [43]: "2000-10-29T01:00:00Z" (972781200) transition_time 0x43f-0x446.7 (8)
0x440|00 00 00 39 fb 76 90                           |...9.v.         |
0x440|                     00 00 00 00 3a bd 43 10   |       ....:.C. |      [44]: "2001-03-25T01:00:00Z" (985482000) transition_time 0x447-0x44e.7 (8)
0x440|                                             00|               .|      [45]: "2001-10-28T01:00:00Z" (1004230800) transition_time 0x44f-0x456.7 (8)
0x450|00 00 00 3b db 58 90                           |...;.X.         |
0x450|                     00 00 00 00 3c a6 5f 90   |       ....<._. |      [46]: "2002-03-31T01:00:00Z" (1017536400) transition_time 0x457-0x45e.7 (8)
0x450|                                             00|               .|      [47]: "2002-10-27T01:00:00Z" (1035680400) transition_time 0x45f-0x466.7 (8)
0x460|00 00 00 3d bb 3a 90                           |...=.:.         |
0x460|                     00 00 00 00 3e 86 41 90   |       ....>.A. |      [48]: "2003-03-30T01:00:00Z" (1048986000) transition_time 0x467-0x46e.7 (8)
0x460|                                             00|               .|      [49]: "2003-10-26T01:00:00Z" (1067130000) transition_time 0x46f-0x476.7 (8)
0x470|00 00 00 3f 9b 1c 90                           |...?...         |
0x470|                     00 00 00 00 40 66 23 90   |       ....@f#. |      [50]: "2004-03-28T01:00:00Z" (1080435600) transition_time 0x477-0x47e.7 (8)
0x470|                                             00|               .|      [51]: "2004-10-31T01:00:00Z" (1099184400) transition_time 0x47f-0x486.7 (8)
0x480|00 00 00 41 84 39 10                           |...A.9.         |
0x480|                     00 00 00 00 42 46 05 90   |       ....BF.. |      [52]: "2005-03-27T01:00:00Z" (1111885200) transition_time 0x487-0x48e.7 (8)
0x480|                                             00|               .|      [53]: "2005-10-30T01:00:00Z" (1130634000) transition_time 0x48f-0x496.7 (8)
0x490|00 00 00 43 64 1b 10                           |...Cd..         |
0x490|                     00 00 00 00 44 25 e7 90   |       ....D%.. |      [54]: "2006-03-26T01:00:00Z" (1143334800) transition_time 0x497-0x49e.7 (8)
0x490|                                             00|               .|      [55]: "2006-10-29T01:00:00Z" (1162083600) transition_time 0x49f-0x4a6.7 (8)
0x4a0|00 00 00 45 43 fd 10                           |...EC..         |
0x4a0|                     00 00 00 00 46 05 c9 90   |       ....F... |      [56]: "2007-03-25T01:00:00Z" (1174784400) transition_time 0x4a7-0x4ae.7 (8)
0x4a0|                                             00|               .|      [57]: "2007-10-28T01:00:00Z" (1193533200) transition_time 0x4af-0x4b6.7 (8)
0x4b0|00 00 00 47 23 df 10                           |...G#..         |
0x4b0|                     00 00 00 00 47 ee e6 10   |       ....G... |      [58]: "2008-03-30T01:00:00Z" (1206838800) transition_time 0x4b7-0x4be.7 (8)
0x4b0|                                             00|               .|      [59]: "2008-10-26T01:00:00Z" (1224982800) transition_time 0x4bf-0x4c6.7 (8)
0x4c0|00 00 00 49 03 c1 10                           |...I...         |
0x4c0|                     00 00 00 00 49 ce c8 10   |       ....I... |      [60]: "2009-03-29T01:00:00Z" (1238288400) transition_time 0x4c7-0x4ce.7 (8)
0x4c0|                                             00|               .|      [61]: "2009-10-25T01:00:00Z" (1256432400) transition_time 0x4cf-0x4d6.7 (8)
0x4d0|00 00 00 4a e3 a3 10                           |...J...         |
0x4d0|                     00 00 00 00 4b ae aa 10   |       ....K... |      [62]: "2010-03-28T01:00:00Z" (1269738000) transition_time 0x4d7-0x4de.7 (8)
0x4d0|                                             00|               .|      [63]: "2010-10-31T01:00:00Z" (1288486800) transition_time 0x4df-0x4e6.7 (8)
0x4e0|00 00 00 4c cc bf 90                           |...L...         |
0x4e0|                     00 00 00 00 4d 8e 8c 10   |       ....M... |      [64]: "2011-03-27T01:00:00Z" (1301187600) transition_time 0x4e7-0x4ee.7 (8)
0x4e0|                                             00|               .|      [65]: "2011-10-30T01:00:00Z" (1319936400) transition_time 0x4ef-0x4f6.7 (8)
0x4f0|00 00 00 4e ac a1 90                           |...N...         |
0x4f0|                     00 00 00 00 4f 6e 6e 10   |       ....Onn. |      [66]: "2012-03-25T01:00:00Z" (1332637200) transition_time 0x4f7-0x4fe.7 (8)
0x4f0|                                             00|               .|      [67]: "2012-10-28T01:00:00Z" (1351386000) transition_time 0x4ff-0x506.7 (8)
0x500|00 00 00 50 8c 83 90                           |...P...         |
0x500|                     00 00 00 00 51 57 8a 90   |       ....QW.. |      [68]: "2013-03-31T01:00:00Z" (1364691600) transition_time 0x507-0x50e.7 (8)
0x500|                                             00|               .|      [69]: "2013-10-27T01:00:00Z" (1382835600) transition_time 0x50f-0x516.7 (8)
0x510|00 00 00 52 6c 65 90                           |...Rle.         |
0x510|                     00 00 00 00 53 37 6c 90   |       ....S7l. |      [70]: "2014-03-30T01:00:00Z" (1396141200) transition_time 0x517-0x51e.7 (8)
0x510|                                             00|               .|      [71]: "2014-10-26T01:00:00Z" (1414285200) transition_time 0x51f-0x526.7 (8)
0x520|00 00 00 54 4c 47 90                           |...TLG.         |
0x520|                     00 00 00 00 55 17 4e 90   |       ....U.N. |      [72]: "2015-03-29T01:00:00Z" (1427590800) transition_time 0x527-0x52e.7 (8)
0x520|                                             00|               .|      [73]: "2015-10-25T01:00:00Z" (1445734800) transition_time 0x52f-0x536.7 (8)
0x530|00 00 00 56 2c 29 90                           |...V,).         |
0x530|                     00 00 00 00 56 f7 30 90   |       ....V.0. |      [74]: "2016-03-27T01:00:00Z" (1459040400) transition_time 0x537-0x53e.7 (8)
0x530|                                             00|               .|      [75]: "2016-10-30T01:00:00Z" (1477789200) transition_time 0x53f-0x546.7 (8)
0x540|00 00 00 58 15 46 10                           |...X.F.         |
0x540|                     00 00 00 00 58 d7 12 90   |       ....X... |      [76]: "2017-03-26T01:00:00Z" (1490490000) transition_time 0x547-0x54e.7 (8)
0x540|                                             00|               .|      [77]: "2017-10-29T01:00:00Z" (1509238800) transition_time 0x54f-0x556.7 (8)
0x550|00 00 00 59 f5 28 10                           |...Y.(.         |
0x550|                     00 00 00 00 5a b6 f4 90   |       ....Z... |      [78]: "2018-03-25T01:00:00Z" (1521939600) transition_time 0x557-0x55e.7 (8)
0x550|                                             00|               .|      [79]: "2018-10-28T01:00:00Z" (1540688400) transition_time 0x55f-0x566.7 (8)
0x560|00 00 00 5b d5 0a 10                           |...[...         |
0x560|                     00 00 00 00 5c a0 11 10   |       ....\... |      [80]: "2019-03-31T01:00:00Z" (1553994000) transition_time 0x567-0x56e.7 (8)
0x560|                                             00|               .|      [81]: "2019-10-27T01:00:00Z" (1572138000) transition_time 0x56f-0x576.7 (8)
0x570|00 00 00 5d b4 ec 10                           |...]...         |
0x570|                     00 00 00 00 5e 7f f3 10   |       ....^... |      [82]: "2020-03-29T01:00:00Z" (1585443600) transition_time 0x577-0x57e.7 (8)
0x570|                                             00|               .|      [83]: "2020-10-25T01:00:00Z" (1603587600) transition_time 0x57f-0x586.7 (8)
0x580|00 00 00 5f 94 ce 10                           |..._...         |
0x580|                     00 00 00 00 60 5f d5 10   |       ....`_.. |      [84]: "2021-03-28T01:00:00Z" (1616893200) transition_time 0x587-0x58e.7 (8)
0x580|                                             00|               .|      [85]: "2021-10-31T01:00:00Z" (1635642000) transition_time 0x58f-0x596.7 (8)
0x590|00 00 00 61 7d ea 90                           |...a}..         |
0x590|                     00 00 00 00 62 3f b7 10   |       ....b?.. |      [86]: "2022-03-27T01:00:00Z" (1648342800) transition_time 0x597-0x59e.7 (8)
0x590|                                             00|               .|      [87]: "2022-10-30T01:00:00Z" (1667091600) transition_time 0x59f-0x5a6.7 (8)
0x5a0|00 00 00 63 5d cc 90                           |...c]..         |
0x5a0|                     00 00 00 00 64 1f 99 10   |       ....d... |      [88]: "2023-03-26T01:00:00Z" (1679792400) transition_time 0x5a7-0x5ae.7 (8)
0x5a0|                                             00|               .|      [89]: "2023-10-29T01:00:00Z" (1698541200) transition_time 0x5af-0x5b6.7 (8)
0x5b0|00 00 00 65 3d ae 90                           |...e=..         |
0x5b0|                     00 00 00 00 66 08 b5 90   |       ....f... |      [90]: "2024-03-31T01:00:00Z" (1711846800) transition_time 0x5b7-0x5be.7 (8)
0x5b0|                                             00|               .|      [91]: "2024-10-27T01:00:00Z" (1729990800) transition_time 0x5bf-0x5c6.7 (8)
0x5c0|00 00 00 67 1d 90 90                           |...g...         |
0x5c0|                     00 00 00 00 67 e8 97 90   |       ....g... |      [92]: "2025-03-30T01:00:00Z" (1743296400) transition_time 0x5c7-0x5ce.7 (8)
0x5c0|                                             00|               .|      [93]: "2025-10-26T01:00:00Z" (1761440400) transition_time 0x5cf-0x5d6.7 (8)
0x5d0|00 00 00 68 fd 72 90                           |...h.r.         |
0x5d0|                     00 00 00 00 69 c8 79 90   |       ....i.y. |      [94]: "2026-03-29T01:00:00Z" (1774746000) transition_time 0x5d7-0x5de.7 (8)
0x5d0|                                             00|               .|      [95]: "2026-10-25T01:00:00Z" (1792890000) transition_time 0x5df-0x5e6.7 (8)
0x5e0|00 00 00 6a dd 54 90                           |...j.T.         |
0x5e0|                     00 00 00 00 6b a8 5b 90   |       ....k.[. |      [96]: "2027-03-28T01:00:00Z" (1806195600) transition_time 0x5e7-0x5ee.7 (8)
0x5e0|                                             00|               .|      [97]: "2027-10-31T01:00:00Z" (1824944400) transition_time 0x5ef-0x5f6.7 (8)
0x5f0|00 00 00 6c c6 71 10                           |...l.q.         |
0x5f0|                     00 00 00 00 6d 88 3d 90   |       ....m.=. |      [98]: "2028-03-26T01:00:00Z" (1837645200) transition_time 0x5f7-0x5fe.7 (8)
0x5f0|                                             00|               .|      [99]: "2028-10-29T01:00:00Z" (1856394000) transition_time 0x5ff-0x606.7 (8)
0x600|00 00 00 6e a6 53 10                           |...n.S.         |
0x600|                     00 00 00 00 6f 68 1f 90   |       ....oh.. |      [100]: "2029-03-25T01:00:00Z" (1869094800) transition_time 0x607-0x60e.7 (8)
0x600|                                             00|               .|      [101]: "2029-10-28T01:00:00Z" (1887843600) transition_time 0x60f-0x616.7 (8)
0x610|00 00 00 70 86 35 10                           |...p.5.         |
0x610|                     00 00 00 00 71 51 3c 10   |       ....qQ<. |      [102]: "2030-03-31T01:00:00Z" (1901149200) transition_time 0x617-0x61e.7 (8)
0x610|                                             00|               .|      [103]: "2030-10-27T01:00:00Z" (1919293200) transition_time 0x61f-0x626.7 (8)
0x620|00 00 00 72 66 17 10                           |...rf..         |
0x620|                     00 00 00 00 73 31 1e 10   |       ....s1.. |      [104]: "2031-03-30T01:00:00Z" (1932598800) transition_time 0x627-0x62e.7 (8)
0x620|                                             00|               .|      [105]: "2031-10-26T01:00:00Z" (1950742800) transition_time 0x62f-0x636.7 (8)
0x630|00 00 00 74 45 f9 10                           |...tE..         |
0x630|                     00 00 00 00 75 11 00 10   |       ....u... |      [106]: "2032-03-28T01:00:00Z" (1964048400) transition_time 0x637-0x63e.7 (8)
0x630|                                             00|               .|      [107]: "2032-10-31T01:00:00Z" (1982797200) transition_time 0x63f-0x646.7 (8)
0x640|00 00 00 76 2f 15 90                           |...v/..         |
0x640|                     00 00 00 00 76 f0 e2 10   |       ....v... |      [108]: "2033-03-27T01:00:00Z" (1995498000) transition_time 0x647-0x64e.7 (8)
0x640|                                             00|               .|      [109]: "2033-10-30T01:00:00Z" (2014246800) transition_time 0x64f-0x656.7 (8)
0x650|00 00 00 78 0e f7 90                           |...x...         |
0x650|                     00 00 00 00 78 d0 c4 10   |       ....x... |      [110]: "2034-03-26T01:00:00Z" (2026947600) transition_time 0x657-0x65e.7 (8)
0x650|                                             00|               .|      [111]: "2034-10-29T01:00:00Z" (2045696400) transition_time 0x65f-0x666.7 (8)
0x660|00 00 00 79 ee d9 90                           |...y...         |
0x660|                     00 00 00 00 7a b0 a6 10   |       ....z... |      [112]: "2035-03-25T01:00:00Z" (2058397200) transition_time 0x667-0x66e.7 (8)
0x660|                                             00|               .|      [113]: "2035-10-28T01:00:00Z" (2077146000) transition_time 0x66f-0x676.7 (8)
0x670|00 00 00 7b ce bb 90                           |...{...         |
0x670|                     00 00 00 00 7c 99 c2 90   |       ....|... |      [114]: "2036-03-30T01:00:00Z" (2090451600) transition_time 0x677-0x67e.7 (8)
0x670|                                             00|               .|      [115]: "2036-10-26T01:00:00Z" (2108595600) transition_time 0x67f-0x686.7 (8)
0x680|00 00 00 7d ae 9d 90                           |...}...         |
0x680|                     00 00 00 00 7e 79 a4 90   |       ....~y.. |      [116]: "2037-03-29T01:00:00Z" (2121901200) transition_time 0x687-0x68e.7 (8)
0x680|                                             00|               .|      [117]: "2037-10-25T01:00:00Z" (2140045200) transition_time 0x68f-0x696.7 (8)
0x690|00 00 00 7f 8e 7f 90                           |.......         |
     |                                               |                |    transition_types[0:118]: 0x697-0x70c.7 (118)
0x690|                     01                        |       .        |      [0]: 1 transition_type 0x697-0x697.7 (1)
0x690|                        03                     |        .       |      [1]: 3 transition_type 0x698-0x698.7 (1)
0x690|                           02                  |         .      |      [2]: 2 transition_type 0x699-0x699.7 (1)
0x690|                              03               |          .     |      [3]: 3 transition_type 0x69a-0x69a.7 (1)
0x690|                                 02            |           .    |      [4]: 2 transition_type 0x69b-0x69b.7 (1)
0x690|                                    03         |            .   |      [5]: 3 transition_type 0x69c-0x69c.7 (1)
0x690|                                       02      |             .  |      [6]: 2 transition_type 0x69d-0x69d.7 (1)
0x690|                                          03   |              . |      [7]: 3 transition_type 0x69e-0x69e.7 (1)
0x690|                                             04|               .|      [8]: 4 transition_type 0x69f-0x69f.7 (1)
0x6a0|05                                             |.               |      [9]: 5 transition_type 0x6a0-0x6a0.7 (1)
0x6a0|   04                                          | .              |      [10]: 4 transition_type 0x6a1-0x6a1.7 (1)
0x6a0|      05                                       |  .             |      [11]: 5 transition_type 0x6a2-0x6a2.7 (1)
0x6a0|         04                                    |   .            |      [12]: 4 transition_type 0x6a3-0x6a3.7 (1)
0x6a0|            05                                 |    .           |      [13]: 5 transition_type 0x6a4-0x6a4.7 (1)
0x6a0|               04                              |     .          |      [14]: 4 transition_type 0x6a5-0x6a5.7 (1)
0x6a0|                  05                           |      .         |      [15]: 5 transition_type 0x6a6-0x6a6.7 (1)
0x6a0|                     04                        |       .        |      [16]: 4 transition_type 0x6a7-0x6a7.7 (1)
0x6a0|                        05                     |        .       |      [17]: 5 transition_type 0x6a8-0x6a8.7 (1)
0x6a0|                           04                  |         .      |      [18]: 4 transition_type 0x6a9-0x6a9.7 (1)
0x6a0|                              05               |          .     |      [19]: 5 transition_type 0x6aa-0x6aa.7 (1)
0x6a0|                                 04            |           .    |      [20]: 4 transition_type 0x6ab-0x6ab.7 (1)
0x6a0|                                    05         |            .   |      [21]: 5 transition_type 0x6ac-0x6ac.7 (1)
0x6a0|                                       04      |             .  |      [22]: 4 transition_type 0x6ad-0x6ad.7 (1)
0x6a0|                                          05   |              . |      [23]: 5 transition_type 0x6ae-0x6ae.7 (1)
0x6a0|                                             04|               .|      [24]: 4 transition_type 0x6af-0x6af.7 (1)
0x6b0|05                                             |.               |      [25]: 5 transition_type 0x6b0-0x6b0.7 (1)
0x6b0|   04                                          | .              |      [26]: 4 transition_type 0x6b1-0x6b1.7 (1)
0x6b0|      05                                       |  .             |      [27]: 5 transition_type 0x6b2-0x6b2.7 (1)
0x6b0|         04                                    |   .            |      [28]: 4 transition_type 0x6b3-0x6b3.7 (1)
0x6b0|            05                                 |    .           |      [29]: 5 transition_type 0x6b4-0x6b4.7 (1)
0x6b0|               04                              |     .          |      [30]: 4 transition_type 0x6b5-0x6b5.7 (1)
0x6b0|                  05                           |      .         |      [31]: 5 transition_type 0x6b6-0x6b6.7 (1)
0x6b0|                     04                        |       .        |      [32]: 4 transition_type 0x6b7-0x6b7.7 (1)
0x6b0|                        05                     |        .       |      [33]: 5 transition_type 0x6b8-0x6b8.7 (1)
0x6b0|                           04                  |         .      |      [34]: 4 transition_type 0x6b9-0x6b9.7 (1)
0x6b0|                              05               |          .     |      [35]: 5 transition_type 0x6ba-0x6ba.7 (1)
0x6b0|                                 04            |           .    |      [36]: 4 transition_type 0x6bb-0x6bb.7 (1)
0x6b0|                                    05         |            .   |      [37]: 5 transition_type 0x6bc-0x6bc.7 (1)
0x6b0|                                       04      |             .  |      [38]: 4 transition_type 0x6bd-0x6bd.7 (1)
0x6b0|                                          05   |              . |      [39]: 5 transition_type 0x6be-0x6be.7 (1)
0x6b0|                                             04|               .|      [40]: 4 transition_type 0x6bf-0x6bf.7 (1)
0x6c0|05                                             |.               |      [41]: 5 transition_type 0x6c0-0x6c0.7 (1)
0x6c0|   04                                          | .              |      [42]: 4 transition_type 0x6c1-0x6c1.7 (1)
0x6c0|      05                                       |  .             |      [43]: 5 transition_type 0x6c2-0x6c2.7 (1)
0x6c0|         04                                    |   .            |      [44]: 4 transition_type 0x6c3-0x6c3.7 (1)
0x6c0|            05                                 |    .           |      [45]: 5 transition_type 0x6c4-0x6c4.7 (1)
0x6c0|               04                              |     .          |      [46]: 4 transition_type 0x6c5-0x6c5.7 (1)
0x6c0|                  05                           |      .         |      [47]: 5 transition_type 0x6c6-0x6c6.7 (1)
0x6c0|                     04                        |       .        |      [48]: 4 transition_type 0x6c7-0x6c7.7 (1)
0x6c0|                        05                     |        .       |      [49]: 5 transition_type 0x6c8-0x6c8.7 (1)
0x6c0|                           04                  |         .      |      [50]: 4 transition_type 0x6c9-0x6c9.7 (1)
0x6c0|                              05               |          .     |      [51]: 5 transition_type 0x6ca-0x6ca.7 (1)
0x6c0|                                 04            |           .    |      [52]: 4 transition_type 0x6cb-0x6cb.7 (1)
0x6c0|                                    05         |            .   |      [53]: 5 transition_type 0x6cc-0x6cc.7 (1)
0x6c0|                                       04      |             .  |      [54]: 4 transition_type 0x6cd-0x6cd.7 (1)
0x6c0|                                          05   |              . |      [55]: 5 transition_type 0x6ce-0x6ce.7 (1)
0x6c0|                                             04|               .|      [56]: 4 transition_type 0x6cf-0x6cf.7 (1)
0x6d0|05                                             |.               |      [57]: 5 transition_type 0x6d0-0x6d0.7 (1)
0x6d0|   04                                          | .              |      [58]: 4 transition_type 0x6d1-0x6d1.7 (1)
0x6d0|      05                                       |  .             |      [59]: 5 transition_type 0x6d2-0x6d2.7 (1)
0x6d0|         04                                    |   .            |      [60]: 4 transition_type 0x6d3-0x6d3.7 (1)
0x6d0|            05                                 |    .           |      [61]: 5 transition_type 0x6d4-0x6d4.7 (1)
0x6d0|               04                              |     .          |      [62]: 4 transition_type 0x6d5-0x6d5.7 (1)
0x6d0|                  05                           |      .         |      [63]: 5 transition_type 0x6d6-0x6d6.7 (1)
0x6d0|                     04                        |       .        |      [64]: 4 transition_type 0x6d7-0x6d7.7 (1)
0x6d0|                        05                     |        .       |      [65]: 5 transition_type 0x6d8-0x6d8.7 (1)
0x6d0|                           04                  |         .      |      [66]: 4 transition_type 0x6d9-0x6d9.7 (1)
0x6d0|                              05               |          .     |      [67]: 5 transition_type 0x6da-0x6da.7 (1)
0x6d0|                                 04            |           .    |      [68]: 4 transition_type 0x6db-0x6db.7 (1)
0x6d0|                                    05         |            .   |      [69]: 5 transition_type 0x6dc-0x6dc.7 (1)
0x6d0|                                       04      |             .  |      [70]: 4 transition_type 0x6dd-0x6dd.7 (1)
0x6d0|                                          05   |              . |      [71]: 5 transition_type 0x6de-0x6de.7 (1)
0x6d0|                                             04|               .|      [72]: 4 transition_type 0x6df-0x6df.7 (1)
0x6e0|05                                             |.               |      [73]: 5 transition_type 0x6e0-0x6e0.7 (1)
0x6e0|   04                                          | .              |      [74]: 4 transition_type 0x6e1-0x6e1.7 (1)
0x6e0|      05                                       |  .             |      [75]: 5 transition_type 0x6e2-0x6e2.7 (1)
0x6e0|         04                                    |   .            |      [76]: 4 transition_type 0x6e3-0x6e3.7 (1)
0x6e0|            05                                 |    .           |      [77]: 5 transition_type 0x6e4-0x6e4.7 (1)
0x6e0|               04                              |     .          |      [78]: 4 transition_type 0x6e5-0x6e5.7 (1)
0x6e0|                  05                           |      .         |      [79]: 5 transition_type 0x6e6-0x6e6.7 (1)
0x6e0|                     04                        |       .        |      [80]: 4 transition_type 0x6e7-0x6e7.7 (1)
0x6e0|                        05                     |        .       |      [81]: 5 transition_type 0x6e8-0x6e8.7 (1)
0x6e0|                           04                  |         .      |      [82]: 4 transition_type 0x6e9-0x6e9.7 (1)
0x6e0|                              05               |          .     |      [83]: 5 transition_type 0x6ea-0x6ea.7 (1)
0x6e0|                                 04            |           .    |      [84]: 4 transition_type 0x6eb-0x6eb.7 (1)
0x6e0|                                    05         |            .   |      [85]: 5 transition_type 0x6ec-0x6ec.7 (1)
0x6e0|                                       04      |             .  |      [86]: 4 transition_type 0x6ed-0x6ed.7 (1)
0x6e0|                                          05   |              . |      [87]: 5 transition_type 0x6ee-0x6ee.7 (1)
0x6e0|                                             04|               .|      [88]: 4 transition_type 0x6ef-0x6ef.7 (1)
0x6f0|05                                             |.               |      [89]: 5 transition_type 0x6f0-0x6f0.7 (1)
0x6f0|   04                                          | .              |      [90]: 4 transition_type 0x6f1-0x6f1.7 (1)
0x6f0|      05                                       |  .             |      [91]: 5 transition_type 0x6f2-0x6f2.7 (1)
0x6f0|         04                                    |   .            |      [92]: 4 transition_type 0x6f3-0x6f3.7 (1)
0x6f0|            05                                 |    .           |      [93]: 5 transition_type 0x6f4-0x6f4.7 (1)
0x6f0|               04                              |     .          |      [94]: 4 transition_type 0x6f5-0x6f5.7 (1)
0x6f0|                  05                           |      .         |      [95]: 5 transition_type 0x6f6-0x6f6.7 (1)
0x6f0|                     04                        |       .        |      [96]: 4 transition_type 0x6f7-0x6f7.7 (1)
0x6f0|                        05                     |        .       |      [97]: 5 transition_type 0x6f8-0x6f8.7 (1)
0x6f0|                           04                  |         .      |      [98]: 4 transition_type 0x6f9-0x6f9.7 (1)
0x6f0|                              05               |          .     |      [99]: 5 transition_type 0x6fa-0x6fa.7 (1)
0x6f0|                                 04            |           .    |      [100]: 4 transition_type 0x6fb-0x6fb.7 (1)
0x6f0|                                    05         |            .   |      [101]: 5 transition_type 0x6fc-0x6fc.7 (1)
0x6f0|                                       04      |             .  |      [102]: 4 transition_type 0x6fd-0x6fd.7 (1)
0x6f0|                                          05   |              . |      [103]: 5 transition_type 0x6fe-0x6fe.7 (1)
0x6f0|                                             04|               .|      [104]: 4 transition_type 0x6ff-0x6ff.7 (1)
0x700|05                                             |.               |      [105]: 5 transition_type 0x700-0x700.7 (1)
0x700|   04                                          | .              |      [106]: 4 transition_type 0x701-0x701.7 (1)
0x700|      05                                       |  .             |      [107]: 5 transition_type 0x702-0x702.7 (1)
0x700|         04                                    |   .            |      [108]: 4 transition_type 0x703-0x703.7 (1)
0x700|            05                                 |    .           |      [109]: 5 transition_type 0x704-0x704.7 (1)
0x700|               04                              |     .          |      [110]: 4 transition_type 0x705-0x705.7 (1)
0x700|                  05                           |      .         |      [111]: 5 transition_type 0x706-0x706.7 (1)
0x700|                     04                        |       .        |      [112]: 4 transition_type 0x707-0x707.7 (1)
0x700|                        05                     |        .       |      [113]: 5 transition_type 0x708-0x708.7 (1)
0x700|                           04                  |         .      |      [114]: 4 transition_type 0x709-0x709.7 (1)
0x700|                              05               |          .     |      [115]: 5 transition_type 0x70a-0x70a.7 (1)
0x700|                                 04            |           .    |      [116]: 4 transition_type 0x70b-0x70b.7 (1)
0x700|                                    05         |            .   |      [117]: 5 transition_type 0x70c-0x70c.7 (1)
     |                                               |                |    local_time_type_records[0:6]: 0x70d-0x730.7 (36)
     |                                               |                |      [0]{}: local_time_type 0x70d-0x712.7 (6)
0x700|                                       00 00 17|             ...|        utoff: 5989 (valid) 0x70d-0x710.7 (4)
0x710|65                                             |e               |
0x710|   00                                          | .              |        dst: 0 (valid) 0x711-0x711.7 (1)
0x710|      00                                       |  .             |        idx: 0 (valid) 0x712-0x712.7 (1)
     |                                               |                |      [1]{}: local_time_type 0x713-0x718.7 (6)
0x710|         00 00 17 65                           |   ...e         |        utoff: 5989 (valid) 0x713-0x716.7 (4)
0x710|                     00                        |       .        |        dst: 0 (valid) 0x717-0x717.7 (1)
0x710|                        04                     |        .       |        idx: 4 (valid) 0x718-0x718.7 (1)
     |                                               |                |      [2]{}: local_time_type 0x719-0x71e.7 (6)
0x710|                           00 00 2a 30         |         ..*0   |        utoff: 10800 (valid) 0x719-0x71c.7 (4)
0x710|                                       01      |             .  |        dst: 1 (valid) 0x71d-0x71d.7 (1)
0x710|                                          08   |              . |        idx: 8 (valid) 0x71e-0x71e.7 (1)
     |                                               |                |      [3]{}: local_time_type 0x71f-0x724.7 (6)
0x710|                                             00|               .|        utoff: 7200 (valid) 0x71f-0x722.7 (4)
0x720|00 1c 20                                       |..              |
0x720|         00                                    |   .            |        dst: 0 (valid) 0x723-0x723.7 (1)
0x720|            0d                                 |    .           |        idx: 13 (valid) 0x724-0x724.7 (1)
     |                                               |                |      [4]{}: local_time_type 0x725-0x72a.7 (6)
0x720|               00 00 2a 30                     |     ..*0       |        utoff: 10800 (valid) 0x725-0x728.7 (4)
0x720|                           01                  |         .      |        dst: 1 (valid) 0x729-0x729.7 (1)
0x720|                              08               |          .     |        idx: 8 (valid) 0x72a-0x72a.7 (1)
     |                                               |                |      [5]{}: local_time_type 0x72b-0x730.7 (6)
0x720|                                 00 00 1c 20   |           ...  |        utoff: 7200 (valid) 0x72b-0x72e.7 (4)
0x720|                                             00|               .|        dst: 0 (valid) 0x72f-0x72f.7 (1)
0x730|0d                                             |.               |        idx: 13 (valid) 0x730-0x730.7 (1)
     |                                               |                |    time_zone_designations[0:4]: 0x731-0x741.7 (17)
0x730|   4c 4d 54 00                                 | LMT.           |      [0]: "LMT" time_zone_designation 0x731-0x734.7 (4)
0x730|               48 4d 54 00                     |     HMT.       |      [1]: "HMT" time_zone_designation 0x735-0x738.7 (4)
0x730|                           45 45 53 54 00      |         EEST.  |      [2]: "EEST" time_zone_designation 0x739-0x73d.7 (5)
0x730|                                          45 45|              EE|      [3]: "EET" time_zone_designation 0x73e-0x741.7 (4)
0x740|54 00                                          |T.              |
     |                                               |                |    leap_second_records[0:0]: 0x742-NA (0)
     |                                               |                |    standard_wall_indicators[0:6]: 0x742-0x747.7 (6)
0x740|      00                                       |  .             |      [0]: 0 standard_wall_indicator (valid) 0x742-0x742.7 (1)
0x740|         00                                    |   .            |      [1]: 0 standard_wall_indicator (valid) 0x743-0x743.7 (1)
0x740|            00                                 |    .           |      [2]: 0 standard_wall_indicator (valid) 0x744-0x744.7 (1)
0x740|               00                              |     .          |      [3]: 0 standard_wall_indicator (valid) 0x745-0x745.7 (1)
0x740|                  01                           |      .         |      [4]: 1 standard_wall_indicator (valid) 0x746-0x746.7 (1)
0x740|                     01                        |       .        |      [5]: 1 standard_wall_indicator (valid) 0x747-0x747.7 (1)
     |                                               |                |    ut_local_indicators[0:6]: 0x748-0x74d.7 (6)
0x740|                        00                     |        .       |      [0]: 0 ut_local_indicator (valid) 0x748-0x748.7 (1)
0x740|                           00                  |         .      |      [1]: 0 ut_local_indicator (valid) 0x749-0x749.7 (1)
0x740|                              00               |          .     |      [2]: 0 ut_local_indicator (valid) 0x74a-0x74a.7 (1)
0x740|                                 00            |           .    |      [3]: 0 ut_local_indicator (valid) 0x74b-0x74b.7 (1)
0x740|                                    01         |            .   |      [4]: 1 ut_local_indicator (valid) 0x74c-0x74c.7 (1)
0x740|                                       01      |             .  |      [5]: 1 ut_local_indicator (valid) 0x74d-0x74d.7 (1)
     |                                               |                |  footer{}: 0x74e-0x76b.7 (30)
0x740|                                          0a   |              . |    nl1: 10 (valid) 0x74e-0x74e.7 (1)
0x740|                                             45|               E|    tz_string: "EET-2EEST,M3.5.0/3,M10.5.0/4" 0x74f-0x76a.7 (28)
0x750|45 54 2d 32 45 45 53 54 2c 4d 33 2e 35 2e 30 2f|ET-2EEST,M3.5.0/|
0x760|33 2c 4d 31 30 2e 35 2e 30 2f 34               |3,M10.5.0/4     |
0x760|                                 0a|           |           .|   |    nl2: 10 (valid) 0x76b-0x76b.7 (1)
