$ fq -d tzif dv Ho_Chi_Minh
     |00 01 02 03 04 05 06 07 08 09 0a 0b 0c 0d 0e 0f|0123456789abcdef|.{}: Ho_Chi_Minh (tzif) 0x0-0x373.7 (884)
     |                                               |                |  v1header{}: 0x0-0x2b.7 (44)
0x000|54 5a 69 66                                    |TZif            |    magic: 0x545a6966 (valid) 0x0-0x3.7 (4)
0x000|            32                                 |    2           |    ver: "2" (0x32) (valid) 0x4-0x4.7 (1)
0x000|               00 00 00 00 00 00 00 00 00 00 00|     ...........|    reserved: raw bits 0x5-0x13.7 (15)
0x010|00 00 00 00                                    |....            |
0x010|            00 00 00 00                        |    ....        |    isutcnt: 0 0x14-0x17.7 (4)
0x010|                        00 00 00 00            |        ....    |    isstdcnt: 0 0x18-0x1b.7 (4)
0x010|                                    00 00 00 1b|            ....|    leapcnt: 27 0x1c-0x1f.7 (4)
0x020|00 00 00 0a                                    |....            |    timecnt: 10 0x20-0x23.7 (4)
0x020|            00 00 00 06                        |    ....        |    typecnt: 6 0x24-0x27.7 (4)
0x020|                        00 00 00 15            |        ....    |    charcnt: 21 0x28-0x2b.7 (4)
     |                                               |                |  v1datablock{}: 0x2c-0x16e.7 (323)
     |                                               |                |    transition_times[0:10]: 0x2c-0x53.7 (40)
0x020|                                    88 8c 43 8a|            ..C.|      [0]: "1906-06-30T16:53:30Z" (-2004073590) transition_time 0x2c-0x2f.7 (4)
0x030|91 a3 2b 0a                                    |..+.            |      [1]: "1911-04-30T16:53:30Z" (-1851577590) transition_time 0x30-0x33.7 (4)
0x030|            cd 35 e6 80                        |    .5..        |      [2]: "1942-12-31T16:00:00Z" (-852105600) transition_time 0x34-0x37.7 (4)
0x030|                        d1 59 ce 70            |        .Y.p    |      [3]: "1945-03-14T15:00:00Z" (-782643600) transition_time 0x38-0x3b.7 (4)
0x030|                                    d2 3b 3e f0|            .;>.|      [4]: "1945-09-01T15:00:00Z" (-767869200) transition_time 0x3c-0x3f.7 (4)
0x040|d5 32 bb 10                                    |.2..            |      [5]: "1947-03-31T17:00:00Z" (-718095600) transition_time 0x40-0x43.7 (4)
0x040|            e4 b6 e4 80                        |    ....        |      [6]: "1955-06-30T16:00:00Z" (-457776000) transition_time 0x44-0x47.7 (4)
0x040|                        ed 2f 98 00            |        ./..    |      [7]: "1959-12-31T16:00:00Z" (-315648000) transition_time 0x48-0x4b.7 (4)
0x040|                                    0a 3d c7 04|            .=..|      [8]: "1975-06-12T16:00:04Z" (171820804) transition_time 0x4c-0x4f.7 (4)
0x050|64 9b 78 1b                                    |d.x.            |      [9]: "2023-06-28T00:00:27Z" (1687910427) transition_time 0x50-0x53.7 (4)
     |                                               |                |    transition_types[0:10]: 0x54-0x5d.7 (10)
0x050|            01                                 |    .           |      [0]: 1 transition_type 0x54-0x54.7 (1)
0x050|               02                              |     .          |      [1]: 2 transition_type 0x55-0x55.7 (1)
0x050|                  03                           |      .         |      [2]: 3 transition_type 0x56-0x56.7 (1)
0x050|                     04                        |       .        |      [3]: 4 transition_type 0x57-0x57.7 (1)
0x050|                        02                     |        .       |      [4]: 2 transition_type 0x58-0x58.7 (1)
0x050|                           03                  |         .      |      [5]: 3 transition_type 0x59-0x59.7 (1)
0x050|                              02               |          .     |      [6]: 2 transition_type 0x5a-0x5a.7 (1)
0x050|                                 03            |           .    |      [7]: 3 transition_type 0x5b-0x5b.7 (1)
0x050|                                    02         |            .   |      [8]: 2 transition_type 0x5c-0x5c.7 (1)
0x050|                                       02      |             .  |      [9]: 2 transition_type 0x5d-0x5d.7 (1)
     |                                               |                |    local_time_type_records[0:6]: 0x5e-0x81.7 (36)
     |                                               |                |      [0]{}: local_time_type 0x5e-0x63.7 (6)
0x050|                                          00 00|              ..|        utoff: 25590 (valid) 0x5e-0x61.7 (4)
0x060|63 f6                                          |c.              |
0x060|      00                                       |  .             |        dst: 0 (valid) 0x62-0x62.7 (1)
0x060|         00                                    |   .            |        idx: 0 (valid) 0x63-0x63.7 (1)
     |                                               |                |      [1]{}: local_time_type 0x64-0x69.7 (6)
0x060|            00 00 63 f6                        |    ..c.        |        utoff: 25590 (valid) 0x64-0x67.7 (4)
0x060|                        00                     |        .       |        dst: 0 (valid) 0x68-0x68.7 (1)
0x060|                           04                  |         .      |        idx: 4 (valid) 0x69-0x69.7 (1)
     |                                               |                |      [2]{}: local_time_type 0x6a-0x6f.7 (6)
0x060|                              00 00 62 70      |          ..bp  |        utoff: 25200 (valid) 0x6a-0x6d.7 (4)
0x060|                                          00   |              . |        dst: 0 (valid) 0x6e-0x6e.7 (1)
0x060|                                             09|               .|        idx: 9 (valid) 0x6f-0x6f.7 (1)
     |                                               |                |      [3]{}: local_time_type 0x70-0x75.7 (6)
0x070|00 00 70 80                                    |..p.            |        utoff: 28800 (valid) 0x70-0x73.7 (4)
0x070|            00                                 |    .           |        dst: 0 (valid) 0x74-0x74.7 (1)
0x070|               0d                              |     .          |        idx: 13 (valid) 0x75-0x75.7 (1)
     |                                               |                |      [4]{}: local_time_type 0x76-0x7b.7 (6)
0x070|                  00 00 7e 90                  |      ..~.      |        utoff: 32400 (valid) 0x76-0x79.7 (4)
0x070|                              00               |          .     |        dst: 0 (valid) 0x7a-0x7a.7 (1)
0x070|                                 11            |           .    |        idx: 17 (valid) 0x7b-0x7b.7 (1)
     |                                               |                |      [5]{}: local_time_type 0x7c-0x81.7 (6)
0x070|                                    00 00 62 70|            ..bp|        utoff: 25200 (valid) 0x7c-0x7f.7 (4)
0x080|00                                             |.               |        dst: 0 (valid) 0x80-0x80.7 (1)
0x080|   09                                          | .              |        idx: 9 (valid) 0x81-0x81.7 (1)
     |                                               |                |    time_zone_designations[0:5]: 0x82-0x96.7 (21)
0x080|      4c 4d 54 00                              |  LMT.          |      [0]: "LMT" time_zone_designation 0x82-0x85.7 (4)
0x080|                  50 4c 4d 54 00               |      PLMT.     |      [1]: "PLMT" time_zone_designation 0x86-0x8a.7 (5)
0x080|                                 2b 30 37 00   |           +07. |      [2]: "+07" time_zone_designation 0x8b-0x8e.7 (4)
0x080|                                             2b|               +|      [3]: "+08" time_zone_designation 0x8f-0x92.7 (4)
0x090|30 38 00                                       |08.             |
0x090|         2b 30 39 00                           |   +09.         |      [4]: "+09" time_zone_designation 0x93-0x96.7 (4)
     |                                               |                |    leap_second_records[0:27]: 0x97-0x16e.7 (216)
     |                                               |                |      [0]{}: leap_second_record 0x97-0x9e.7 (8)
0x090|                     04 b2 58 00               |       ..X.     |        occur: "1972-07-01T00:00:00Z" (78796800) 0x97-0x9a.7 (4)
0x090|                                 00 00 00 01   |           .... |        corr: 1 0x9b-0x9e.7 (4)
     |                                               |                |      [1]{}: leap_second_record 0x9f-0xa6.7 (8)
0x090|                                             05|               .|        occur: "1973-01-01T00:00:01Z" (94694401) 0x9f-0xa2.7 (4)
0x0a0|a4 ec 01                                       |...             |
0x0a0|         00 00 00 02                           |   ....         |        corr: 2 0xa3-0xa6.7 (4)
     |                                               |                |      [2]{}: leap_second_record 0xa7-0xae.7 (8)
0x0a0|                     07 86 1f 82               |       ....     |        occur: "1974-01-01T00:00:02Z" (126230402) 0xa7-0xaa.7 (4)
0x0a0|                                 00 00 00 03   |           .... |        corr: 3 0xab-0xae.7 (4)
     |                                               |                |      [3]{}: leap_second_record 0xaf-0xb6.7 (8)
0x0a0|                                             09|               .|        occur: "1975-01-01T00:00:03Z" (157766403) 0xaf-0xb2.7 (4)
0x0b0|67 53 03                                       |gS.             |
0x0b0|         00 00 00 04                           |   ....         |        corr: 4 0xb3-0xb6.7 (4)
     |                                               |                |      [4]{}: leap_second_record 0xb7-0xbe.7 (8)
0x0b0|                     0b 48 86 84               |       .H..     |        occur: "1976-01-01T00:00:04Z" (189302404) 0xb7-0xba.7 (4)
0x0b0|                                 00 00 00 05   |           .... |        corr: 5 0xbb-0xbe.7 (4)
     |                                               |                |      [5]{}: leap_second_record 0xbf-0xc6.7 (8)
0x0b0|                                             0d|               .|        occur: "1977-01-01T00:00:05Z" (220924805) 0xbf-0xc2.7 (4)
0x0c0|2b 0b 85                                       |+..             |
0x0c0|         00 00 00 06                           |   ....         |        corr: 6 0xc3-0xc6.7 (4)
     |                                               |                |      [6]{}: leap_second_record 0xc7-0xce.7 (8)
0x0c0|                     0f 0c 3f 06               |       ..?.     |        occur: "1978-01-01T00:00:06Z" (252460806) 0xc7-0xca.7 (4)
0x0c0|                                 00 00 00 07   |           .... |        corr: 7 0xcb-0xce.7 (4)
     |                                               |                |      [7]{}: leap_second_record 0xcf-0xd6.7 (8)
0x0c0|                                             10|               .|        occur: "1979-01-01T00:00:07Z" (283996807) 0xcf-0xd2.7 (4)
0x0d0|ed 72 87                                       |.r.             |
0x0d0|         00 00 00 08                           |   ....         |        corr: 8 0xd3-0xd6.7 (4)
     |                                               |                |      [8]{}: leap_second_record 0xd7-0xde.7 (8)
0x0d0|                     12 ce a6 08               |       ....     |        occur: "1980-01-01T00:00:08Z" (315532808) 0xd7-0xda.7 (4)
0x0d0|                                 00 00 00 09   |           .... |        corr: 9 0xdb-0xde.7 (4)
     |                                               |                |      [9]{}: leap_second_record 0xdf-0xe6.7 (8)
0x0d0|                                             15|               .|        occur: "1981-07-01T00:00:09Z" (362793609) 0xdf-0xe2.7 (4)
0x0e0|9f ca 89                                       |...             |
0x0e0|         00 00 00 0a                           |   ....         |        corr: 10 0xe3-0xe6.7 (4)
     |                                               |                |      [10]{}: leap_second_record 0xe7-0xee.7 (8)
0x0e0|                     17 80 fe 0a               |       ....     |        occur: "1982-07-01T00:00:10Z" (394329610) 0xe7-0xea.7 (4)
0x0e0|                                 00 00 00 0b   |           .... |        corr: 11 0xeb-0xee.7 (4)
     |                                               |                |      [11]{}: leap_second_record 0xef-0xf6.7 (8)
0x0e0|                                             19|               .|        occur: "1983-07-01T00:00:11Z" (425865611) 0xef-0xf2.7 (4)
0x0f0|62 31 8b                                       |b1.             |
0x0f0|         00 00 00 0c                           |   ....         |        corr: 12 0xf3-0xf6.7 (4)
     |                                               |                |      [12]{}: leap_second_record 0xf7-0xfe.7 (8)
0x0f0|                     1d 25 ea 0c               |       .%..     |        occur: "1985-07-01T00:00:12Z" (489024012) 0xf7-0xfa.7 (4)
0x0f0|                                 00 00 00 0d   |           .... |        corr: 13 0xfb-0xfe.7 (4)
     |                                               |                |      [13]{}: leap_second_record 0xff-0x106.7 (8)
0x0f0|                                             21|               !|        occur: "1988-01-01T00:00:13Z" (567993613) 0xff-0x102.7 (4)
0x100|da e5 0d                                       |...             |
0x100|         00 00 00 0e                           |   ....         |        corr: 14 0x103-0x106.7 (4)
     |                                               |                |      [14]{}: leap_second_record 0x107-0x10e.7 (8)
0x100|                     25 9e 9d 8e               |       %...     |        occur: "1990-01-01T00:00:14Z" (631152014) 0x107-0x10a.7 (4)
0x100|                                 00 00 00 0f   |           .... |        corr: 15 0x10b-0x10e.7 (4)
     |                                               |                |      [15]{}: leap_second_record 0x10f-0x116.7 (8)
0x100|                                             27|               '|        occur: "1991-01-01T00:00:15Z" (662688015) 0x10f-0x112.7 (4)
0x110|7f d1 0f                                       |...             |
0x110|         00 00 00 10                           |   ....         |        corr: 16 0x113-0x116.7 (4)
     |                                               |                |      [16]{}: leap_second_record 0x117-0x11e.7 (8)
0x110|                     2a 50 f5 90               |       *P..     |        occur: "1992-07-01T00:00:16Z" (709948816) 0x117-0x11a.7 (4)
0x110|                                 00 00 00 11   |           .... |        corr: 17 0x11b-0x11e.7 (4)
     |                                               |                |      [17]{}: leap_second_record 0x11f-0x126.7 (8)
0x110|                                             2c|               ,|        occur: "1993-07-01T00:00:17Z" (741484817) 0x11f-0x122.7 (4)
0x120|32 29 11                                       |2).             |
0x120|         00 00 00 12                           |   ....         |        corr: 18 0x123-0x126.7 (4)
     |                                               |                |      [18]{}: leap_second_record 0x127-0x12e.7 (8)
0x120|                     2e 13 5c 92               |       ..\.     |        occur: "1994-07-01T00:00:18Z" (773020818) 0x127-0x12a.7 (4)
0x120|                                 00 00 00 13   |           .... |        corr: 19 0x12b-0x12e.7 (4)
     |                                               |                |      [19]{}: leap_second_record 0x12f-0x136.7 (8)
0x120|                                             30|               0|        occur: "1996-01-01T00:00:19Z" (820454419) 0x12f-0x132.7 (4)
0x130|e7 24 13                                       |.$.             |
0x130|         00 00 00 14                           |   ....         |        corr: 20 0x133-0x136.7 (4)
     |                                               |                |      [20]{}: leap_second_record 0x137-0x13e.7 (8)
0x130|                     33 b8 48 94               |       3.H.     |        occur: "1997-07-01T00:00:20Z" (867715220) 0x137-0x13a.7 (4)
0x130|                                 00 00 00 15   |           .... |        corr: 21 0x13b-0x13e.7 (4)
     |                                               |                |      [21]{}: leap_second_record 0x13f-0x146.7 (8)
0x130|                                             36|               6|        occur: "1999-01-01T00:00:21Z" (915148821) 0x13f-0x142.7 (4)
0x140|8c 10 15                                       |...             |
0x140|         00 00 00 16                           |   ....         |        corr: 22 0x143-0x146.7 (4)
     |                                               |                |      [22]{}: leap_second_record 0x147-0x14e.7 (8)
0x140|                     43 b7 1b 96               |       C...     |        occur: "2006-01-01T00:00:22Z" (1136073622) 0x147-0x14a.7 (4)
0x140|                                 00 00 00 17   |           .... |        corr: 23 0x14b-0x14e.7 (4)
     |                                               |                |      [23]{}: leap_second_record 0x14f-0x156.7 (8)
0x140|                                             49|               I|        occur: "2009-01-01T00:00:23Z" (1230768023) 0x14f-0x152.7 (4)
0x150|5c 07 97                                       |\..             |
0x150|         00 00 00 18                           |   ....         |        corr: 24 0x153-0x156.7 (4)
     |                                               |                |      [24]{}: leap_second_record 0x157-0x15e.7 (8)
0x150|                     4f ef 93 18               |       O...     |        occur: "2012-07-01T00:00:24Z" (1341100824) 0x157-0x15a.7 (4)
0x150|                                 00 00 00 19   |           .... |        corr: 25 0x15b-0x15e.7 (4)
     |                                               |                |      [25]{}: leap_second_record 0x15f-0x166.7 (8)
0x150|                                             55|               U|        occur: "2015-07-01T00:00:25Z" (1435708825) 0x15f-0x162.7 (4)
0x160|93 2d 99                                       |.-.             |
0x160|         00 00 00 1a                           |   ....         |        corr: 26 0x163-0x166.7 (4)
     |                                               |                |      [26]{}: leap_second_record 0x167-0x16e.7 (8)
0x160|                     58 68 46 9a               |       XhF.     |        occur: "2017-01-01T00:00:26Z" (1483228826) 0x167-0x16a.7 (4)
0x160|                                 00 00 00 1b   |           .... |        corr: 27 0x16b-0x16e.7 (4)
     |                                               |                |    standard_wall_indicators[0:0]: 0x16f-NA (0)
     |                                               |                |    ut_local_indicators[0:0]: 0x16f-NA (0)
     |                                               |                |  v2plusheader{}: 0x16f-0x19a.7 (44)
0x160|                                             54|               T|    magic: 0x545a6966 (valid) 0x16f-0x172.7 (4)
0x170|5a 69 66                                       |Zif             |
0x170|         32                                    |   2            |    ver: "2" (0x32) (valid) 0x173-0x173.7 (1)
0x170|            00 00 00 00 00 00 00 00 00 00 00 00|    ............|    reserved: raw bits 0x174-0x182.7 (15)
0x180|00 00 00                                       |...             |
0x180|         00 00 00 00                           |   ....         |    isutcnt: 0 0x183-0x186.7 (4)
0x180|                     00 00 00 00               |       ....     |    isstdcnt: 0 0x187-0x18a.7 (4)
0x180|                                 00 00 00 1b   |           .... |    leapcnt: 27 0x18b-0x18e.7 (4)
0x180|                                             00|               .|    timecnt: 10 0x18f-0x192.7 (4)
0x190|00 00 0a                                       |...             |
0x190|         00 00 00 06                           |   ....         |    typecnt: 6 0x193-0x196.7 (4)
0x190|                     00 00 00 15               |       ....     |    charcnt: 21 0x197-0x19a.7 (4)
     |                                               |                |  v2plusdatablock{}: 0x19b-0x371.7 (471)
     |                                               |                |    transition_times[0:10]: 0x19b-0x1ea.7 (80)
0x190|                                 ff ff ff ff 88|           .....|      [0]: "1906-06-30T16:53:30Z" (-2004073590) transition_time 0x19b-0x1a2.7 (8)
0x1a0|8c 43 8a                                       |.C.             |
0x1a0|         ff ff ff ff 91 a3 2b 0a               |   ......+.     |      [1]: "1911-04-30T16:53:30Z" (-1851577590) transition_time 0x1a3-0x1aa.7 (8)
0x1a0|                                 ff ff ff ff cd|           .....|      [2]: "1942-12-31T16:00:00Z" (-852105600) transition_time 0x1ab-0x1b2.7 (8)
0x1b0|35 e6 80                                       |5..             |
0x1b0|         ff ff ff ff d1 59 ce 70               |   .....Y.p     |      [3]: "1945-03-14T15:00:00Z" (-782643600) transition_time 0x1b3-0x1ba.7 (8)
0x1b0|                                 ff ff ff ff d2|           .....|      [4]: "1945-09-01T15:00:00Z" (-767869200) transition_time 0x1bb-0x1c2.7 (8)
0x1c0|3b 3e f0                                       |;>.             |
0x1c0|         ff ff ff ff d5 32 bb 10               |   .....2..     |      [5]: "1947-03-31T17:00:00Z" (-718095600) transition_time 0x1c3-0x1ca.7 (8)
0x1c0|                                 ff ff ff ff e4|           .....|      [6]: "1955-06-30T16:00:00Z" (-457776000) transition_time 0x1cb-0x1d2.7 (8)
0x1d0|b6 e4 80                                       |...             |
0x1d0|         ff ff ff ff ed 2f 98 00               |   ...../..     |      [7]: "1959-12-31T16:00:00Z" (-315648000) transition_time 0x1d3-0x1da.7 (8)
0x1d0|                                 00 00 00 00 0a|           .....|      [8]: "1975-06-12T16:00:04Z" (171820804) transition_time 0x1db-0x1e2.7 (8)
0x1e0|3d c7 04                                       |=..             |
0x1e0|         00 00 00 00 64 9b 78 1b               |   ....d.x.     |      [9]: "2023-06-28T00:00:27Z" (1687910427) transition_time 0x1e3-0x1ea.7 (8)
     |                                               |                |    transition_types[0:10]: 0x1eb-0x1f4.7 (10)
0x1e0|                                 01            |           .    |      [0]: 1 transition_type 0x1eb-0x1eb.7 (1)
0x1e0|                                    02         |            .   |      [1]: 2 transition_type 0x1ec-0x1ec.7 (1)
0x1e0|                                       03      |             .  |      [2]: 3 transition_type 0x1ed-0x1ed.7 (1)
0x1e0|                                          04   |              . |      [3]: 4 transition_type 0x1ee-0x1ee.7 (1)
0x1e0|                                             02|               .|      [4]: 2 transition_type 0x1ef-0x1ef.7 (1)
0x1f0|03                                             |.               |      [5]: 3 transition_type 0x1f0-0x1f0.7 (1)
0x1f0|   02                                          | .              |      [6]: 2 transition_type 0x1f1-0x1f1.7 (1)
0x1f0|      03                                       |  .             |      [7]: 3 transition_type 0x1f2-0x1f2.7 (1)
0x1f0|         02                                    |   .            |      [8]: 2 transition_type 0x1f3-0x1f3.7 (1)
0x1f0|            02                                 |    .           |      [9]: 2 transition_type 0x1f4-0x1f4.7 (1)
     |                                               |                |    local_time_type_records[0:6]: 0x1f5-0x218.7 (36)
     |                                               |                |      [0]{}: local_time_type 0x1f5-0x1fa.7 (6)
0x1f0|               00 00 63 f6                     |     ..c.       |        utoff: 25590 (valid) 0x1f5-0x1f8.7 (4)
0x1f0|                           00                  |         .      |        dst: 0 (valid) 0x1f9-0x1f9.7 (1)
0x1f0|                              00               |          .     |        idx: 0 (valid) 0x1fa-0x1fa.7 (1)
     |                                               |                |      [1]{}: local_time_type 0x1fb-0x200.7 (6)
0x1f0|                                 00 00 63 f6   |           ..c. |        utoff: 25590 (valid) 0x1fb-0x1fe.7 (4)
0x1f0|                                             00|               .|        dst: 0 (valid) 0x1ff-0x1ff.7 (1)
0x200|04                                             |.               |        idx: 4 (valid) 0x200-0x200.7 (1)
     |                                               |                |      [2]{}: local_time_type 0x201-0x206.7 (6)
0x200|   00 00 62 70                                 | ..bp           |        utoff: 25200 (valid) 0x201-0x204.7 (4)
0x200|               00                              |     .          |        dst: 0 (valid) 0x205-0x205.7 (1)
0x200|                  09                           |      .         |        idx: 9 (valid) 0x206-0x206.7 (1)
     |                                               |                |      [3]{}: local_time_type 0x207-0x20c.7 (6)
0x200|                     00 00 70 80               |       ..p.     |        utoff: 28800 (valid) 0x207-0x20a.7 (4)
0x200|                                 00            |           .    |        dst: 0 (valid) 0x20b-0x20b.7 (1)
0x200|                                    0d         |            .   |        idx: 13 (valid) 0x20c-0x20c.7 (1)
     |                                               |                |      [4]{}: local_time_type 0x20d-0x212.7 (6)
0x200|                                       00 00 7e|             ..~|        utoff: 32400 (valid) 0x20d-0x210.7 (4)
0x210|90                                             |.               |
0x210|   00                                          | .              |        dst: 0 (valid) 0x211-0x211.7 (1)
0x210|      11                                       |  .             |        idx: 17 (valid) 0x212-0x212.7 (1)
     |                                               |                |      [5]{}: local_time_type 0x213-0x218.7 (6)
0x210|         00 00 62 70                           |   ..bp         |        utoff: 25200 (valid) 0x213-0x216.7 (4)
0x210|                     00                        |       .        |        dst: 0 (valid) 0x217-0x217.7 (1)
0x210|                        09                     |        .       |        idx: 9 (valid) 0x218-0x218.7 (1)
     |                                               |                |    time_zone_designations[0:5]: 0x219-0x22d.7 (21)
0x210|                           4c 4d 54 00         |         LMT.   |      [0]: "LMT" time_zone_designation 0x219-0x21c.7 (4)
0x210|                                       50 4c 4d|             PLM|      [1]: "PLMT" time_zone_designation 0x21d-0x221.7 (5)
0x220|54 00                                          |T.              |
0x220|      2b 30 37 00                              |  +07.          |      [2]: "+07" time_zone_designation 0x222-0x225.7 (4)
0x220|                  2b 30 38 00                  |      +08.      |      [3]: "+08" time_zone_designation 0x226-0x229.7 (4)
0x220|                              2b 30 39 00      |          +09.  |      [4]: "+09" time_zone_designation 0x22a-0x22d.7 (4)
     |                                               |                |    leap_second_records[0:27]: 0x22e-0x371.7 (324)
     |                                               |                |      [0]{}: leap_second_record 0x22e-0x239.7 (12)
0x220|                                          00 00|              ..|        occur: "1972-07-01T00:00:00Z" (78796800) 0x22e-0x235.7 (8)
0x230|00 00 04 b2 58 00                              |....X.          |
0x230|                  00 00 00 01                  |      ....      |        corr: 1 0x236-0x239.7 (4)
     |                                               |                |      [1]{}: leap_second_record 0x23a-0x245.7 (12)
0x230|                              00 00 00 00 05 a4|          ......|        occur: "1973-01-01T00:00:01Z" (94694401) 0x23a-0x241.7 (8)
0x240|ec 01                                          |..              |
0x240|      00 00 00 02                              |  ....          |        corr: 2 0x242-0x245.7 (4)
     |                                               |                |      [2]{}: leap_second_record 0x246-0x251.7 (12)
0x240|                  00 00 00 00 07 86 1f 82      |      ........  |        occur: "1974-01-01T00:00:02Z" (126230402) 0x246-0x24d.7 (8)
0x240|                                          00 00|              ..|        corr: 3 0x24e-0x251.7 (4)
0x250|00 03                                          |..              |
     |                                               |                |      [3]{}: leap_second_record 0x252-0x25d.7 (12)
0x250|      00 00 00 00 09 67 53 03                  |  .....gS.      |        occur: "1975-01-01T00:00:03Z" (157766403) 0x252-0x259.7 (8)
0x250|                              00 00 00 04      |          ....  |        corr: 4 0x25a-0x25d.7 (4)
     |                                               |                |      [4]{}: leap_second_record 0x25e-0x269.7 (12)
0x250|                                          00 00|              ..|        occur: "1976-01-01T00:00:04Z" (189302404) 0x25e-0x265.7 (8)
0x260|00 00 0b 48 86 84                              |...H..          |
0x260|                  00 00 00 05                  |      ....      |        corr: 5 0x266-0x269.7 (4)
     |                                               |                |      [5]{}: leap_second_record 0x26a-0x275.7 (12)
0x260|                              00 00 00 00 0d 2b|          .....+|        occur: "1977-01-01T00:00:05Z" (220924805) 0x26a-0x271.7 (8)
0x270|0b 85                                          |..              |
0x270|      00 00 00 06                              |  ....          |        corr: 6 0x272-0x275.7 (4)
     |                                               |                |      [6]{}: leap_second_record 0x276-0x281.7 (12)
0x270|                  00 00 00 00 0f 0c 3f 06      |      ......?.  |        occur: "1978-01-01T00:00:06Z" (252460806) 0x276-0x27d.7 (8)
0x270|                                          00 00|              ..|        corr: 7 0x27e-0x281.7 (4)
0x280|00 07                                          |..              |
     |                                               |                |      [7]{}: leap_second_record 0x282-0x28d.7 (12)
0x280|      00 00 00 00 10 ed 72 87                  |  ......r.      |        occur: "1979-01-01T00:00:07Z" (283996807) 0x282-0x289.7 (8)
0x280|                              00 00 00 08      |          ....  |        corr: 8 0x28a-0x28d.7 (4)
     |                                               |                |      [8]{}: leap_second_record 0x28e-0x299.7 (12)
0x280|                                          00 00|              ..|        occur: "1980-01-01T00:00:08Z" (315532808) 0x28e-0x295.7 (8)
0x290|00 00 12 ce a6 08                              |......          |
0x290|                  00 00 00 09                  |      ....      |        corr: 9 0x296-0x299.7 (4)
     |                                               |                |      [9]{}: leap_second_record 0x29a-0x2a5.7 (12)
0x290|                              00 00 00 00 15 9f|          ......|        occur: "1981-07-01T00:00:09Z" (362793609) 0x29a-0x2a1.7 (8)
0x2a0|ca 89                                          |..              |
0x2a0|      00 00 00 0a                              |  ....          |        corr: 10 0x2a2-0x2a5.7 (4)
     |                                               |                |      [10]{}: leap_second_record 0x2a6-0x2b1.7 (12)
0x2a0|                  00 00 00 00 17 80 fe 0a      |      ........  |        occur: "1982-07-01T00:00:10Z" (394329610) 0x2a6-0x2ad.7 (8)
0x2a0|                                          00 00|              ..|        corr: 11 0x2ae-0x2b1.7 (4)
0x2b0|00 0b                                          |..              |
     |                                               |                |      [11]{}: leap_second_record 0x2b2-0x2bd.7 (12)
0x2b0|      00 00 00 00 19 62 31 8b                  |  .....b1.      |        occur: "1983-07-01T00:00:11Z" (425865611) 0x2b2-0x2b9.7 (8)
0x2b0|                              00 00 00 0c      |          ....  |        corr: 12 0x2ba-0x2bd.7 (4)
     |                                               |                |      [12]{}: leap_second_record 0x2be-0x2c9.7 (12)
0x2b0|                                          00 00|              ..|        occur: "1985-07-01T00:00:12Z" (489024012) 0x2be-0x2c5.7 (8)
0x2c0|00 00 1d 25 ea 0c                              |...%..          |
0x2c0|                  00 00 00 0d                  |      ....      |        corr: 13 0x2c6-0x2c9.7 (4)
     |                                               |                |      [13]{}: leap_second_record 0x2ca-0x2d5.7 (12)
0x2c0|                              00 00 00 00 21 da|          ....!.|        occur: "1988-01-01T00:00:13Z" (567993613) 0x2ca-0x2d1.7 (8)
0x2d0|e5 0d                                          |..              |
0x2d0|      00 00 00 0e                              |  ....          |        corr: 14 0x2d2-0x2d5.7 (4)
     |                                               |                |      [14]{}: leap_second_record 0x2d6-0x2e1.7 (12)
0x2d0|                  00 00 00 00 25 9e 9d 8e      |      ....%...  |        occur: "1990-01-01T00:00:14Z" (631152014) 0x2d6-0x2dd.7 (8)
0x2d0|                                          00 00|              ..|        corr: 15 0x2de-0x2e1.7 (4)
0x2e0|00 0f                                          |..              |
     |                                               |                |      [15]{}: leap_second_record 0x2e2-0x2ed.7 (12)
0x2e0|      00 00 00 00 27 7f d1 0f                  |  ....'...      |        occur: "1991-01-01T00:00:15Z" (662688015) 0x2e2-0x2e9.7 (8)
0x2e0|                              00 00 00 10      |          ....  |        corr: 16 0x2ea-0x2ed.7 (4)
     |                                               |                |      [16]{}: leap_second_record 0x2ee-0x2f9.7 (12)
0x2e0|                                          00 00|              ..|        occur: "1992-07-01T00:00:16Z" (709948816) 0x2ee-0x2f5.7 (8)
0x2f0|00 00 2a 50 f5 90                              |..*P..          |
0x2f0|                  00 00 00 11                  |      ....      |        corr: 17 0x2f6-0x2f9.7 (4)
     |                                               |                |      [17]{}: leap_second_record 0x2fa-0x305.7 (12)
0x2f0|                              00 00 00 00 2c 32|          ....,2|        occur: "1993-07-01T00:00:17Z" (741484817) 0x2fa-0x301.7 (8)
0x300|29 11                                          |).              |
0x300|      00 00 00 12                              |  ....          |        corr: 18 0x302-0x305.7 (4)
     |                                               |                |      [18]{}: leap_second_record 0x306-0x311.7 (12)
0x300|                  00 00 00 00 2e 13 5c 92      |      ......\.  |        occur: "1994-07-01T00:00:18Z" (773020818) 0x306-0x30d.7 (8)
0x300|                                          00 00|              ..|        corr: 19 0x30e-0x311.7 (4)
0x310|00 13                                          |..              |
     |                                               |                |      [19]{}: leap_second_record 0x312-0x31d.7 (12)
0x310|      00 00 00 00 30 e7 24 13                  |  ....0.$.      |        occur: "1996-01-01T00:00:19Z" (820454419) 0x312-0x319.7 (8)
0x310|                              00 00 00 14      |          ....  |        corr: 20 0x31a-0x31d.7 (4)
     |                                               |                |      [20]{}: leap_second_record 0x31e-0x329.7 (12)
0x310|                                          00 00|              ..|        occur: "1997-07-01T00:00:20Z" (867715220) 0x31e-0x325.7 (8)
0x320|00 00 33 b8 48 94                              |..3.H.          |
0x320|                  00 00 00 15                  |      ....      |        corr: 21 0x326-0x329.7 (4)
     |                                               |                |      [21]{}: leap_second_record 0x32a-0x335.7 (12)
0x320|                              00 00 00 00 36 8c|          ....6.|        occur: "1999-01-01T00:00:21Z" (915148821) 0x32a-0x331.7 (8)
0x330|10 15                                          |..              |
0x330|      00 00 00 16                              |  ....          |        corr: 22 0x332-0x335.7 (4)
     |                                               |                |      [22]{}: leap_second_record 0x336-0x341.7 (12)
0x330|                  00 00 00 00 43 b7 1b 96      |      ....C...  |        occur: "2006-01-01T00:00:22Z" (1136073622) 0x336-0x33d.7 (8)
0x330|                                          00 00|              ..|        corr: 23 0x33e-0x341.7 (4)
0x340|00 17                                          |..              |
     |                                               |                |      [23]{}: leap_second_record 0x342-0x34d.7 (12)
0x340|      00 00 00 00 49 5c 07 97                  |  ....I\..      |        occur: "2009-01-01T00:00:23Z" (1230768023) 0x342-0x349.7 (8)
0x340|                              00 00 00 18      |          ....  |        corr: 24 0x34a-0x34d.7 (4)
     |                                               |                |      [24]{}: leap_second_record 0x34e-0x359.7 (12)
0x340|                                          00 00|              ..|        occur: "2012-07-01T00:00:24Z" (1341100824) 0x34e-0x355.7 (8)
0x350|00 00 4f ef 93 18                              |..O...          |
0x350|                  00 00 00 19                  |      ....      |        corr: 25 0x356-0x359.7 (4)
     |                                               |                |      [25]{}: leap_second_record 0x35a-0x365.7 (12)
0x350|                              00 00 00 00 55 93|          ....U.|        occur: "2015-07-01T00:00:25Z" (1435708825) 0x35a-0x361.7 (8)
0x360|2d 99                                          |-.              |
0x360|      00 00 00 1a                              |  ....          |        corr: 26 0x362-0x365.7 (4)
     |                                               |                |      [26]{}: leap_second_record 0x366-0x371.7 (12)
0x360|                  00 00 00 00 58 68 46 9a      |      ....XhF.  |        occur: "2017-01-01T00:00:26Z" (1483228826) 0x366-0x36d.7 (8)
0x360|                                          00 00|              ..|        corr: 27 0x36e-0x371.7 (4)
0x370|00 1b                                          |..              |
     |                                               |                |    standard_wall_indicators[0:0]: 0x372-NA (0)
     |                                               |                |    ut_local_indicators[0:0]: 0x372-NA (0)
     |                                               |                |  footer{}: 0x372-0x373.7 (2)
0x370|      0a                                       |  .             |    nl1: 10 (valid) 0x372-0x372.7 (1)
     |                                               |                |    tz_string: "" 0x373-NA (0)
0x370|         0a|                                   |   .|           |    nl2: 10 (valid) 0x373-0x373.7 (1)
