$ fq -d tzif dv Hobart
     |00 01 02 03 04 05 06 07 08 09 0a 0b 0c 0d 0e 0f|0123456789abcdef|.{}: Hobart (tzif) 0x0-0x936 (2358)
     |                                               |                |  v1header{}: 0x0-0x2c (44)
0x000|54 5a 69 66                                    |TZif            |    magic: 0x545a6966 (valid) 0x0-0x4 (4)
0x000|            32                                 |    2           |    ver: "2" (0x32) (valid) 0x4-0x5 (1)
0x000|               00 00 00 00 00 00 00 00 00 00 00|     ...........|    reserved: raw bits 0x5-0x14 (15)
0x010|00 00 00 00                                    |....            |
0x010|            00 00 00 00                        |    ....        |    isutcnt: 0 0x14-0x18 (4)
0x010|                        00 00 00 04            |        ....    |    isstdcnt: 4 0x18-0x1c (4)
0x010|                                    00 00 00 00|            ....|    leapcnt: 0 0x1c-0x20 (4)
0x020|00 00 00 9a                                    |....            |    timecnt: 154 0x20-0x24 (4)
0x020|            00 00 00 04                        |    ....        |    typecnt: 4 0x24-0x28 (4)
0x020|                        00 00 00 0e            |        ....    |    charcnt: 14 0x28-0x2c (4)
     |                                               |                |  v1datablock{}: 0x2c-0x358 (812)
     |                                               |                |    transition_times[0:154]: 0x2c-0x294 (616)
0x020|                                    80 00 00 00|            ....|      [0]: "1901-12-13T20:45:52Z" (-2147483648) transition_time 0x2c-0x30 (4)
0x030|9b d5 78 80                                    |..x.            |      [1]: "1916-09-30T16:00:00Z" (-1680508800) transition_time 0x30-0x34 (4)
0x030|            9c bc 2f 00                        |    ../.        |      [2]: "1917-03-24T16:00:00Z" (-1665388800) transition_time 0x34-0x38 (4)
0x030|                        9d da 44 80            |        ..D.    |      [3]: "1917-10-27T16:00:00Z" (-1646640000) transition_time 0x38-0x3c (4)
0x030|                                    9e 80 61 80|            ..a.|      [4]: "1918-03-02T16:00:00Z" (-1635753600) transition_time 0x3c-0x40 (4)
0x040|9f ba 26 80                                    |..&.            |      [5]: "1918-10-26T16:00:00Z" (-1615190400) transition_time 0x40-0x44 (4)
0x040|            a0 60 43 80                        |    .`C.        |      [6]: "1919-03-01T16:00:00Z" (-1604304000) transition_time 0x44-0x48 (4)
0x040|                        cb 54 b3 00            |        .T..    |      [7]: "1941-12-31T16:00:00Z" (-883641600) transition_time 0x48-0x4c (4)
0x040|                                    cb c7 65 80|            ..e.|      [8]: "1942-03-28T16:00:00Z" (-876124800) transition_time 0x4c-0x50 (4)
0x050|cc b7 56 80                                    |..V.            |      [9]: "1942-09-26T16:00:00Z" (-860400000) transition_time 0x50-0x54 (4)
0x050|            cd a7 47 80                        |    ..G.        |      [10]: "1943-03-27T16:00:00Z" (-844675200) transition_time 0x54-0x58 (4)
0x050|                        ce a0 73 00            |        ..s.    |      [11]: "1943-10-02T16:00:00Z" (-828345600) transition_time 0x58-0x5c (4)
0x050|                                    cf 87 29 80|            ..).|      [12]: "1944-03-25T16:00:00Z" (-813225600) transition_time 0x5c-0x60 (4)
0x060|fb c2 8d 00                                    |....            |      [13]: "1967-09-30T16:00:00Z" (-71136000) transition_time 0x60-0x64 (4)
0x060|            fc b2 7e 00                        |    ..~.        |      [14]: "1968-03-30T16:00:00Z" (-55411200) transition_time 0x64-0x68 (4)
0x060|                        fd c7 59 00            |        ..Y.    |      [15]: "1968-10-26T16:00:00Z" (-37267200) transition_time 0x68-0x6c (4)
0x060|                                    fe 76 b0 80|            .v..|      [16]: "1969-03-08T16:00:00Z" (-25776000) transition_time 0x6c-0x70 (4)
0x070|ff a7 3b 00                                    |..;.            |      [17]: "1969-10-25T16:00:00Z" (-5817600) transition_time 0x70-0x74 (4)
0x070|            00 56 92 80                        |    .V..        |      [18]: "1970-03-07T16:00:00Z" (5673600) transition_time 0x74-0x78 (4)
0x070|                        01 87 1d 00            |        ....    |      [19]: "1970-10-24T16:00:00Z" (25632000) transition_time 0x78-0x7c (4)
0x070|                                    02 3f af 00|            .?..|      [20]: "1971-03-13T16:00:00Z" (37728000) transition_time 0x7c-0x80 (4)
0x080|03 70 39 80                                    |.p9.            |      [21]: "1971-10-30T16:00:00Z" (57686400) transition_time 0x80-0x84 (4)
0x080|            04 0d 1c 00                        |    ....        |      [22]: "1972-02-26T16:00:00Z" (67968000) transition_time 0x84-0x88 (4)
0x080|                        05 50 1b 80            |        .P..    |      [23]: "1972-10-28T16:00:00Z" (89136000) transition_time 0x88-0x8c (4)
0x080|                                    05 f6 38 80|            ..8.|      [24]: "1973-03-03T16:00:00Z" (100022400) transition_time 0x8c-0x90 (4)
0x090|07 2f fd 80                                    |./..            |      [25]: "1973-10-27T16:00:00Z" (120585600) transition_time 0x90-0x94 (4)
0x090|            07 d6 1a 80                        |    ....        |      [26]: "1974-03-02T16:00:00Z" (131472000) transition_time 0x94-0x98 (4)
0x090|                        09 0f df 80            |        ....    |      [27]: "1974-10-26T16:00:00Z" (152035200) transition_time 0x98-0x9c (4)
0x090|                                    09 b5 fc 80|            ....|      [28]: "1975-03-01T16:00:00Z" (162921600) transition_time 0x9c-0xa0 (4)
0x0a0|0a ef c1 80                                    |....            |      [29]: "1975-10-25T16:00:00Z" (183484800) transition_time 0xa0-0xa4 (4)
0x0a0|            0b 9f 19 00                        |    ....        |      [30]: "1976-03-06T16:00:00Z" (194976000) transition_time 0xa4-0xa8 (4)
0x0a0|                        0c d8 de 00            |        ....    |      [31]: "1976-10-30T16:00:00Z" (215539200) transition_time 0xa8-0xac (4)
0x0a0|                                    0d 7e fb 00|            .~..|      [32]: "1977-03-05T16:00:00Z" (226425600) transition_time 0xac-0xb0 (4)
0x0b0|0e b8 c0 00                                    |....            |      [33]: "1977-10-29T16:00:00Z" (246988800) transition_time 0xb0-0xb4 (4)
0x0b0|            0f 5e dd 00                        |    .^..        |      [34]: "1978-03-04T16:00:00Z" (257875200) transition_time 0xb4-0xb8 (4)
0x0b0|                        10 98 a2 00            |        ....    |      [35]: "1978-10-28T16:00:00Z" (278438400) transition_time 0xb8-0xbc (4)
0x0b0|                                    11 3e bf 00|            .>..|      [36]: "1979-03-03T16:00:00Z" (289324800) transition_time 0xbc-0xc0 (4)
0x0c0|12 78 84 00                                    |.x..            |      [37]: "1979-10-27T16:00:00Z" (309888000) transition_time 0xc0-0xc4 (4)
0x0c0|            13 1e a1 00                        |    ....        |      [38]: "1980-03-01T16:00:00Z" (320774400) transition_time 0xc4-0xc8 (4)
0x0c0|                        14 58 66 00            |        .Xf.    |      [39]: "1980-10-25T16:00:00Z" (341337600) transition_time 0xc8-0xcc (4)
0x0c0|                                    14 fe 83 00|            ....|      [40]: "1981-02-28T16:00:00Z" (352224000) transition_time 0xcc-0xd0 (4)
0x0d0|16 38 48 00                                    |.8H.            |      [41]: "1981-10-24T16:00:00Z" (372787200) transition_time 0xd0-0xd4 (4)
0x0d0|            17 03 4f 00                        |    ..O.        |      [42]: "1982-03-27T16:00:00Z" (386092800) transition_time 0xd4-0xd8 (4)
0x0d0|                        18 21 64 80            |        .!d.    |      [43]: "1982-10-30T16:00:00Z" (404841600) transition_time 0xd8-0xdc (4)
0x0d0|                                    18 e3 31 00|            ..1.|      [44]: "1983-03-26T16:00:00Z" (417542400) transition_time 0xdc-0xe0 (4)
0x0e0|1a 01 46 80                                    |..F.            |      [45]: "1983-10-29T16:00:00Z" (436291200) transition_time 0xe0-0xe4 (4)
0x0e0|            1a a7 63 80                        |    ..c.        |      [46]: "1984-03-03T16:00:00Z" (447177600) transition_time 0xe4-0xe8 (4)
0x0e0|                        1b e1 28 80            |        ..(.    |      [47]: "1984-10-27T16:00:00Z" (467740800) transition_time 0xe8-0xec (4)
0x0e0|                                    1c 87 45 80|            ..E.|      [48]: "1985-03-02T16:00:00Z" (478627200) transition_time 0xec-0xf0 (4)
0x0f0|1d c1 0a 80                                    |....            |      [49]: "1985-10-26T16:00:00Z" (499190400) transition_time 0xf0-0xf4 (4)
0x0f0|            1e 67 27 80                        |    .g'.        |      [50]: "1986-03-01T16:00:00Z" (510076800) transition_time 0xf4-0xf8 (4)
0x0f0|                        1f 97 b2 00            |        ....    |      [51]: "1986-10-18T16:00:00Z" (530035200) transition_time 0xf8-0xfc (4)
0x0f0|                                    20 59 7e 80|             Y~.|      [52]: "1987-03-14T16:00:00Z" (542736000) transition_time 0xfc-0x100 (4)
0x100|21 80 ce 80                                    |!...            |      [53]: "1987-10-24T16:00:00Z" (562089600) transition_time 0x100-0x104 (4)
0x100|            22 42 9b 00                        |    "B..        |      [54]: "1988-03-19T16:00:00Z" (574790400) transition_time 0x104-0x108 (4)
0x100|                        23 69 eb 00            |        #i..    |      [55]: "1988-10-29T16:00:00Z" (594144000) transition_time 0x108-0x10c (4)
0x100|                                    24 22 7d 00|            $"}.|      [56]: "1989-03-18T16:00:00Z" (606240000) transition_time 0x10c-0x110 (4)
0x110|25 49 cd 00                                    |%I..            |      [57]: "1989-10-28T16:00:00Z" (625593600) transition_time 0x110-0x114 (4)
0x110|            26 02 5f 00                        |    &._.        |      [58]: "1990-03-17T16:00:00Z" (637689600) transition_time 0x114-0x118 (4)
0x110|                        27 29 af 00            |        ')..    |      [59]: "1990-10-27T16:00:00Z" (657043200) transition_time 0x118-0x11c (4)
0x110|                                    27 f4 b6 00|            '...|      [60]: "1991-03-30T16:00:00Z" (670348800) transition_time 0x11c-0x120 (4)
0x120|28 ed e1 80                                    |(...            |      [61]: "1991-10-05T16:00:00Z" (686678400) transition_time 0x120-0x124 (4)
0x120|            29 d4 98 00                        |    )...        |      [62]: "1992-03-28T16:00:00Z" (701798400) transition_time 0x124-0x128 (4)
0x120|                        2a cd c3 80            |        *...    |      [63]: "1992-10-03T16:00:00Z" (718128000) transition_time 0x128-0x12c (4)
0x120|                                    2b b4 7a 00|            +.z.|      [64]: "1993-03-27T16:00:00Z" (733248000) transition_time 0x12c-0x130 (4)
0x130|2c ad a5 80                                    |,...            |      [65]: "1993-10-02T16:00:00Z" (749577600) transition_time 0x130-0x134 (4)
0x130|            2d 94 5c 00                        |    -.\.        |      [66]: "1994-03-26T16:00:00Z" (764697600) transition_time 0x134-0x138 (4)
0x130|                        2e 8d 87 80            |        ....    |      [67]: "1994-10-01T16:00:00Z" (781027200) transition_time 0x138-0x13c (4)
0x130|                                    2f 74 3e 00|            /t>.|      [68]: "1995-03-25T16:00:00Z" (796147200) transition_time 0x13c-0x140 (4)
0x140|30 6d 69 80                                    |0mi.            |      [69]: "1995-09-30T16:00:00Z" (812476800) transition_time 0x140-0x144 (4)
0x140|            31 5d 5a 80                        |    1]Z.        |      [70]: "1996-03-30T16:00:00Z" (828201600) transition_time 0x144-0x148 (4)
0x140|                        32 56 86 00            |        2V..    |      [71]: "1996-10-05T16:00:00Z" (844531200) transition_time 0x148-0x14c (4)
0x140|                                    33 3d 3c 80|            3=<.|      [72]: "1997-03-29T16:00:00Z" (859651200) transition_time 0x14c-0x150 (4)
0x150|34 36 68 00                                    |46h.            |      [73]: "1997-10-04T16:00:00Z" (875980800) transition_time 0x150-0x154 (4)
0x150|            35 1d 1e 80                        |    5...        |      [74]: "1998-03-28T16:00:00Z" (891100800) transition_time 0x154-0x158 (4)
0x150|                        36 16 4a 00            |        6.J.    |      [75]: "1998-10-03T16:00:00Z" (907430400) transition_time 0x158-0x15c (4)
0x150|                                    36 fd 00 80|            6...|      [76]: "1999-03-27T16:00:00Z" (922550400) transition_time 0x15c-0x160 (4)
0x160|37 f6 2c 00                                    |7.,.            |      [77]: "1999-10-02T16:00:00Z" (938880000) transition_time 0x160-0x164 (4)
0x160|            38 dc e2 80                        |    8...        |      [78]: "2000-03-25T16:00:00Z" (954000000) transition_time 0x164-0x168 (4)
0x160|                        39 a7 e9 80            |        9...    |      [79]: "2000-08-26T16:00:00Z" (967305600) transition_time 0x168-0x16c (4)
0x160|                                    3a bc c4 80|            :...|      [80]: "2001-03-24T16:00:00Z" (985449600) transition_time 0x16c-0x170 (4)
0x170|3b bf 2a 80                                    |;.*.            |      [81]: "2001-10-06T16:00:00Z" (1002384000) transition_time 0x170-0x174 (4)
0x170|            3c a5 e1 00                        |    <...        |      [82]: "2002-03-30T16:00:00Z" (1017504000) transition_time 0x174-0x178 (4)
0x170|                        3d 9f 0c 80            |        =...    |      [83]: "2002-10-05T16:00:00Z" (1033833600) transition_time 0x178-0x17c (4)
0x170|                                    3e 85 c3 00|            >...|      [84]: "2003-03-29T16:00:00Z" (1048953600) transition_time 0x17c-0x180 (4)
0x180|3f 7e ee 80                                    |?~..            |      [85]: "2003-10-04T16:00:00Z" (1065283200) transition_time 0x180-0x184 (4)
0x180|            40 65 a5 00                        |    @e..        |      [86]: "2004-03-27T16:00:00Z" (1080403200) transition_time 0x184-0x188 (4)
0x180|                        41 5e d0 80            |        A^..    |      [87]: "2004-10-02T16:00:00Z" (1096732800) transition_time 0x188-0x18c (4)
0x180|                                    42 45 87 00|            BE..|      [88]: "2005-03-26T16:00:00Z" (1111852800) transition_time 0x18c-0x190 (4)
0x190|43 3e b2 80                                    |C>..            |      [89]: "2005-10-01T16:00:00Z" (1128182400) transition_time 0x190-0x194 (4)
0x190|            44 2e a3 80                        |    D...        |      [90]: "2006-04-01T16:00:00Z" (1143907200) transition_time 0x194-0x198 (4)
0x190|                        45 1e 94 80            |        E...    |      [91]: "2006-09-30T16:00:00Z" (1159632000) transition_time 0x198-0x19c (4)
0x190|                                    46 05 4b 00|            F.K.|      [92]: "2007-03-24T16:00:00Z" (1174752000) transition_time 0x19c-0x1a0 (4)
0x1a0|47 07 b1 00                                    |G...            |      [93]: "2007-10-06T16:00:00Z" (1191686400) transition_time 0x1a0-0x1a4 (4)
0x1a0|            47 f7 a2 00                        |    G...        |      [94]: "2008-04-05T16:00:00Z" (1207411200) transition_time 0x1a4-0x1a8 (4)
0x1a0|                        48 e7 93 00            |        H...    |      [95]: "2008-10-04T16:00:00Z" (1223136000) transition_time 0x1a8-0x1ac (4)
0x1a0|                                    49 d7 84 00|            I...|      [96]: "2009-04-04T16:00:00Z" (1238860800) transition_time 0x1ac-0x1b0 (4)
0x1b0|4a c7 75 00                                    |J.u.            |      [97]: "2009-10-03T16:00:00Z" (1254585600) transition_time 0x1b0-0x1b4 (4)
0x1b0|            4b b7 66 00                        |    K.f.        |      [98]: "2010-04-03T16:00:00Z" (1270310400) transition_time 0x1b4-0x1b8 (4)
0x1b0|                        4c a7 57 00            |        L.W.    |      [99]: "2010-10-02T16:00:00Z" (1286035200) transition_time 0x1b8-0x1bc (4)
0x1b0|                                    4d 97 48 00|            M.H.|      [100]: "2011-04-02T16:00:00Z" (1301760000) transition_time 0x1bc-0x1c0 (4)
0x1c0|4e 87 39 00                                    |N.9.            |      [101]: "2011-10-01T16:00:00Z" (1317484800) transition_time 0x1c0-0x1c4 (4)
0x1c0|            4f 77 2a 00                        |    Ow*.        |      [102]: "2012-03-31T16:00:00Z" (1333209600) transition_time 0x1c4-0x1c8 (4)
0x1c0|                        50 70 55 80            |        PpU.    |      [103]: "2012-10-06T16:00:00Z" (1349539200) transition_time 0x1c8-0x1cc (4)
0x1c0|                                    51 60 46 80|            Q`F.|      [104]: "2013-04-06T16:00:00Z" (1365264000) transition_time 0x1cc-0x1d0 (4)
0x1d0|52 50 37 80                                    |RP7.            |      [105]: "2013-10-05T16:00:00Z" (1380988800) transition_time 0x1d0-0x1d4 (4)
0x1d0|            53 40 28 80                        |    S@(.        |      [106]: "2014-04-05T16:00:00Z" (1396713600) transition_time 0x1d4-0x1d8 (4)
0x1d0|                        54 30 19 80            |        T0..    |      [107]: "2014-10-04T16:00:00Z" (1412438400) transition_time 0x1d8-0x1dc (4)
0x1d0|                                    55 20 0a 80|            U ..|      [108]: "2015-04-04T16:00:00Z" (1428163200) transition_time 0x1dc-0x1e0 (4)
0x1e0|56 0f fb 80                                    |V...            |      [109]: "2015-10-03T16:00:00Z" (1443888000) transition_time 0x1e0-0x1e4 (4)
0x1e0|            56 ff ec 80                        |    V...        |      [110]: "2016-04-02T16:00:00Z" (1459612800) transition_time 0x1e4-0x1e8 (4)
0x1e0|                        57 ef dd 80            |        W...    |      [111]: "2016-10-01T16:00:00Z" (1475337600) transition_time 0x1e8-0x1ec (4)
0x1e0|                                    58 df ce 80|            X...|      [112]: "2017-04-01T16:00:00Z" (1491062400) transition_time 0x1ec-0x1f0 (4)
0x1f0|59 cf bf 80                                    |Y...            |      [113]: "2017-09-30T16:00:00Z" (1506787200) transition_time 0x1f0-0x1f4 (4)
0x1f0|            5a bf b0 80                        |    Z...        |      [114]: "2018-03-31T16:00:00Z" (1522512000) transition_time 0x1f4-0x1f8 (4)
0x1f0|                        5b b8 dc 00            |        [...    |      [115]: "2018-10-06T16:00:00Z" (1538841600) transition_time 0x1f8-0x1fc (4)
0x1f0|                                    5c a8 cd 00|            \...|      [116]: "2019-04-06T16:00:00Z" (1554566400) transition_time 0x1fc-0x200 (4)
0x200|5d 98 be 00                                    |]...            |      [117]: "2019-10-05T16:00:00Z" (1570291200) transition_time 0x200-0x204 (4)
0x200|            5e 88 af 00                        |    ^...        |      [118]: "2020-04-04T16:00:00Z" (1586016000) transition_time 0x204-0x208 (4)
0x200|                        5f 78 a0 00            |        _x..    |      [119]: "2020-10-03T16:00:00Z" (1601740800) transition_time 0x208-0x20c (4)
0x200|                                    60 68 91 00|            `h..|      [120]: "2021-04-03T16:00:00Z" (1617465600) transition_time 0x20c-0x210 (4)
0x210|61 58 82 00                                    |aX..            |      [121]: "2021-10-02T16:00:00Z" (1633190400) transition_time 0x210-0x214 (4)
0x210|            62 48 73 00                        |    bHs.        |      [122]: "2022-04-02T16:00:00Z" (1648915200) transition_time 0x214-0x218 (4)
0x210|                        63 38 64 00            |        c8d.    |      [123]: "2022-10-01T16:00:00Z" (1664640000) transition_time 0x218-0x21c (4)
0x210|                                    64 28 55 00|            d(U.|      [124]: "2023-04-01T16:00:00Z" (1680364800) transition_time 0x21c-0x220 (4)
0x220|65 18 46 00                                    |e.F.            |      [125]: "2023-09-30T16:00:00Z" (1696089600) transition_time 0x220-0x224 (4)
0x220|            66 11 71 80                        |    f.q.        |      [126]: "2024-04-06T16:00:00Z" (1712419200) transition_time 0x224-0x228 (4)
0x220|                        67 01 62 80            |        g.b.    |      [127]: "2024-10-05T16:00:00Z" (1728144000) transition_time 0x228-0x22c (4)
0x220|                                    67 f1 53 80|            g.S.|      [128]: "2025-04-05T16:00:00Z" (1743868800) transition_time 0x22c-0x230 (4)
0x230|68 e1 44 80                                    |h.D.            |      [129]: "2025-10-04T16:00:00Z" (1759593600) transition_time 0x230-0x234 (4)
0x230|            69 d1 35 80                        |    i.5.        |      [130]: "2026-04-04T16:00:00Z" (1775318400) transition_time 0x234-0x238 (4)
0x230|                        6a c1 26 80            |        j.&.    |      [131]: "2026-10-03T16:00:00Z" (1791043200) transition_time 0x238-0x23c (4)
0x230|                                    6b b1 17 80|            k...|      [132]: "2027-04-03T16:00:00Z" (1806768000) transition_time 0x23c-0x240 (4)
0x240|6c a1 08 80                                    |l...            |      [133]: "2027-10-02T16:00:00Z" (1822492800) transition_time 0x240-0x244 (4)
0x240|            6d 90 f9 80                        |    m...        |      [134]: "2028-04-01T16:00:00Z" (1838217600) transition_time 0x244-0x248 (4)
0x240|                        6e 80 ea 80            |        n...    |      [135]: "2028-09-30T16:00:00Z" (1853942400) transition_time 0x248-0x24c (4)
0x240|                                    6f 70 db 80|            op..|      [136]: "2029-03-31T16:00:00Z" (1869667200) transition_time 0x24c-0x250 (4)
0x250|70 6a 07 00                                    |pj..            |      [137]: "2029-10-06T16:00:00Z" (1885996800) transition_time 0x250-0x254 (4)
0x250|            71 59 f8 00                        |    qY..        |      [138]: "2030-04-06T16:00:00Z" (1901721600) transition_time 0x254-0x258 (4)
0x250|                        72 49 e9 00            |        rI..    |      [139]: "2030-10-05T16:00:00Z" (1917446400) transition_time 0x258-0x25c (4)
0x250|                                    73 39 da 00|            s9..|      [140]: "2031-04-05T16:00:00Z" (1933171200) transition_time 0x25c-0x260 (4)
0x260|74 29 cb 00                                    |t)..            |      [141]: "2031-10-04T16:00:00Z" (1948896000) transition_time 0x260-0x264 (4)
0x260|            75 19 bc 00                        |    u...        |      [142]: "2032-04-03T16:00:00Z" (1964620800) transition_time 0x264-0x268 (4)
0x260|                        76 09 ad 00            |        v...    |      [143]: "2032-10-02T16:00:00Z" (1980345600) transition_time 0x268-0x26c (4)
0x260|                                    76 f9 9e 00|            v...|      [144]: "2033-04-02T16:00:00Z" (1996070400) transition_time 0x26c-0x270 (4)
0x270|77 e9 8f 00                                    |w...            |      [145]: "2033-10-01T16:00:00Z" (2011795200) transition_time 0x270-0x274 (4)
0x270|            78 d9 80 00                        |    x...        |      [146]: "2034-04-01T16:00:00Z" (2027520000) transition_time 0x274-0x278 (4)
0x270|                        79 c9 71 00            |        y.q.    |      [147]: "2034-09-30T16:00:00Z" (2043244800) transition_time 0x278-0x27c (4)
0x270|                                    7a b9 62 00|            z.b.|      [148]: "2035-03-31T16:00:00Z" (2058969600) transition_time 0x27c-0x280 (4)
0x280|7b b2 8d 80                                    |{...            |      [149]: "2035-10-06T16:00:00Z" (2075299200) transition_time 0x280-0x284 (4)
0x280|            7c a2 7e 80                        |    |.~.        |      [150]: "2036-04-05T16:00:00Z" (2091024000) transition_time 0x284-0x288 (4)
0x280|                        7d 92 6f 80            |        }.o.    |      [151]: "2036-10-04T16:00:00Z" (2106748800) transition_time 0x288-0x28c (4)
0x280|                                    7e 82 60 80|            ~.`.|      [152]: "2037-04-04T16:00:00Z" (2122473600) transition_time 0x28c-0x290 (4)
0x290|7f 72 51 80                                    |.rQ.            |      [153]: "2037-10-03T16:00:00Z" (2138198400) transition_time 0x290-0x294 (4)
     |                                               |                |    transition_types[0:154]: 0x294-0x32e (154)
0x290|            03                                 |    .           |      [0]: 3 transition_type 0x294-0x295 (1)
0x290|               01                              |     .          |      [1]: 1 transition_type 0x295-0x296 (1)
0x290|                  02                           |      .         |      [2]: 2 transition_type 0x296-0x297 (1)
0x290|                     01                        |       .        |      [3]: 1 transition_type 0x297-0x298 (1)
0x290|                        02                     |        .       |      [4]: 2 transition_type 0x298-0x299 (1)
0x290|                           01                  |         .      |      [5]: 1 transition_type 0x299-0x29a (1)
0x290|                              02               |          .     |      [6]: 2 transition_type 0x29a-0x29b (1)
0x290|                                 01            |           .    |      [7]: 1 transition_type 0x29b-0x29c (1)
0x290|                                    02         |            .   |      [8]: 2 transition_type 0x29c-0x29d (1)
0x290|                                       01      |             .  |      [9]: 1 transition_type 0x29d-0x29e (1)
0x290|                                          02   |              . |      [10]: 2 transition_type 0x29e-0x29f (1)
0x290|                                             01|               .|      [11]: 1 transition_type 0x29f-0x2a0 (1)
0x2a0|02                                             |.               |      [12]: 2 transition_type 0x2a0-0x2a1 (1)
0x2a0|   01                                          | .              |      [13]: 1 transition_type 0x2a1-0x2a2 (1)
0x2a0|      02                                       |  .             |      [14]: 2 transition_type 0x2a2-0x2a3 (1)
0x2a0|         01                                    |   .            |      [15]: 1 transition_type 0x2a3-0x2a4 (1)
0x2a0|            02                                 |    .           |      [16]: 2 transition_type 0x2a4-0x2a5 (1)
0x2a0|               01                              |     .          |      [17]: 1 transition_type 0x2a5-0x2a6 (1)
0x2a0|                  02                           |      .         |      [18]: 2 transition_type 0x2a6-0x2a7 (1)
0x2a0|                     01                        |       .        |      [19]: 1 transition_type 0x2a7-0x2a8 (1)
0x2a0|                        02                     |        .       |      [20]: 2 transition_type 0x2a8-0x2a9 (1)
0x2a0|                           01                  |         .      |      [21]: 1 transition_type 0x2a9-0x2aa (1)
0x2a0|                              02               |          .     |      [22]: 2 transition_type 0x2aa-0x2ab (1)
0x2a0|                                 01            |           .    |      [23]: 1 transition_type 0x2ab-0x2ac (1)
0x2a0|                                    02         |            .   |      [24]: 2 transition_type 0x2ac-0x2ad (1)
0x2a0|                                       01      |             .  |      [25]: 1 transition_type 0x2ad-0x2ae (1)
0x2a0|                                          02   |              . |      [26]: 2 transition_type 0x2ae-0x2af (1)
0x2a0|                                             01|               .|      [27]: 1 transition_type 0x2af-0x2b0 (1)
0x2b0|02                                             |.               |      [28]: 2 transition_type 0x2b0-0x2b1 (1)
0x2b0|   01                                          | .              |      [29]: 1 transition_type 0x2b1-0x2b2 (1)
0x2b0|      02                                       |  .             |      [30]: 2 transition_type 0x2b2-0x2b3 (1)
0x2b0|         01                                    |   .            |      [31]: 1 transition_type 0x2b3-0x2b4 (1)
0x2b0|            02                                 |    .           |      [32]: 2 transition_type 0x2b4-0x2b5 (1)
0x2b0|               01                              |     .          |      [33]: 1 transition_type 0x2b5-0x2b6 (1)
0x2b0|                  02                           |      .         |      [34]: 2 transition_type 0x2b6-0x2b7 (1)
0x2b0|                     01                        |       .        |      [35]: 1 transition_type 0x2b7-0x2b8 (1)
0x2b0|                        02                     |        .       |      [36]: 2 transition_type 0x2b8-0x2b9 (1)
0x2b0|                           01                  |         .      |      [37]: 1 transition_type 0x2b9-0x2ba (1)
0x2b0|                              02               |          .     |      [38]: 2 transition_type 0x2ba-0x2bb (1)
0x2b0|                                 01            |           .    |      [39]: 1 transition_type 0x2bb-0x2bc (1)
0x2b0|                                    02         |            .   |      [40]: 2 transition_type 0x2bc-0x2bd (1)
0x2b0|                                       01      |             .  |      [41]: 1 transition_type 0x2bd-0x2be (1)
0x2b0|                                          02   |              . |      [42]: 2 transition_type 0x2be-0x2bf (1)
0x2b0|                                             01|               .|      [43]: 1 transition_type 0x2bf-0x2c0 (1)
0x2c0|02                                             |.               |      [44]: 2 transition_type 0x2c0-0x2c1 (1)
0x2c0|   01                                          | .              |      [45]: 1 transition_type 0x2c1-0x2c2 (1)
0x2c0|      02                                       |  .             |      [46]: 2 transition_type 0x2c2-0x2c3 (1)
0x2c0|         01                                    |   .            |      [47]: 1 transition_type 0x2c3-0x2c4 (1)
0x2c0|            02                                 |    .           |      [48]: 2 transition_type 0x2c4-0x2c5 (1)
0x2c0|               01                              |     .          |      [49]: 1 transition_type 0x2c5-0x2c6 (1)
0x2c0|                  02                           |      .         |      [50]: 2 transition_type 0x2c6-0x2c7 (1)
0x2c0|                     01                        |       .        |      [51]: 1 transition_type 0x2c7-0x2c8 (1)
0x2c0|                        02                     |        .       |      [52]: 2 transition_type 0x2c8-0x2c9 (1)
0x2c0|                           01                  |         .      |      [53]: 1 transition_type 0x2c9-0x2ca (1)
0x2c0|                              02               |          .     |      [54]: 2 transition_type 0x2ca-0x2cb (1)
0x2c0|                                 01            |           .    |      [55]: 1 transition_type 0x2cb-0x2cc (1)
0x2c0|                                    02         |            .   |      [56]: 2 transition_type 0x2cc-0x2cd (1)
0x2c0|                                       01      |             .  |      [57]: 1 transition_type 0x2cd-0x2ce (1)
0x2c0|                                          02   |              . |      [58]: 2 transition_type 0x2ce-0x2cf (1)
0x2c0|                                             01|               .|      [59]: 1 transition_type 0x2cf-0x2d0 (1)
0x2d0|02                                             |.               |      [60]: 2 transition_type 0x2d0-0x2d1 (1)
0x2d0|   01                                          | .              |      [61]: 1 transition_type 0x2d1-0x2d2 (1)
0x2d0|      02                                       |  .             |      [62]: 2 transition_type 0x2d2-0x2d3 (1)
0x2d0|         01                                    |   .            |      [63]: 1 transition_type 0x2d3-0x2d4 (1)
0x2d0|            02                                 |    .           |      [64]: 2 transition_type 0x2d4-0x2d5 (1)
0x2d0|               01                              |     .          |      [65]: 1 transition_type 0x2d5-0x2d6 (1)
0x2d0|                  02                           |      .         |      [66]: 2 transition_type 0x2d6-0x2d7 (1)
0x2d0|                     01                        |       .        |      [67]: 1 transition_type 0x2d7-0x2d8 (1)
0x2d0|                        02                     |        .       |      [68]: 2 transition_type 0x2d8-0x2d9 (1)
0x2d0|                           01                  |         .      |      [69]: 1 transition_type 0x2d9-0x2da (1)
0x2d0|                              02               |          .     |      [70]: 2 transition_type 0x2da-0x2db (1)
0x2d0|                                 01            |           .    |      [71]: 1 transition_type 0x2db-0x2dc (1)
0x2d0|                                    02         |            .   |      [72]: 2 transition_type 0x2dc-0x2dd (1)
0x2d0|                                       01      |             .  |      [73]: 1 transition_type 0x2dd-0x2de (1)
0x2d0|                                          02   |              . |      [74]: 2 transition_type 0x2de-0x2df (1)
0x2d0|                                             01|               .|      [75]: 1 transition_type 0x2df-0x2e0 (1)
0x2e0|02                                             |.               |      [76]: 2 transition_type 0x2e0-0x2e1 (1)
0x2e0|   01                                          | .              |      [77]: 1 transition_type 0x2e1-0x2e2 (1)
0x2e0|      02                                       |  .             |      [78]: 2 transition_type 0x2e2-0x2e3 (1)
0x2e0|         01                                    |   .            |      [79]: 1 transition_type 0x2e3-0x2e4 (1)
0x2e0|            02                                 |    .           |      [80]: 2 transition_type 0x2e4-0x2e5 (1)
0x2e0|               01                              |     .          |      [81]: 1 transition_type 0x2e5-0x2e6 (1)
0x2e0|                  02                           |      .         |      [82]: 2 transition_type 0x2e6-0x2e7 (1)
0x2e0|                     01                        |       .        |      [83]: 1 transition_type 0x2e7-0x2e8 (1)
0x2e0|                        02                     |        .       |      [84]: 2 transition_type 0x2e8-0x2e9 (1)
0x2e0|                           01                  |         .      |      [85]: 1 transition_type 0x2e9-0x2ea (1)
0x2e0|                              02               |          .     |      [86]: 2 transition_type 0x2ea-0x2eb (1)
0x2e0|                                 01            |           .    |      [87]: 1 transition_type 0x2eb-0x2ec (1)
0x2e0|                                    02         |            .   |      [88]: 2 transition_type 0x2ec-0x2ed (1)
0x2e0|                                       01      |             .  |      [89]: 1 transition_type 0x2ed-0x2ee (1)
0x2e0|                                          02   |              . |      [90]: 2 transition_type 0x2ee-0x2ef (1)
0x2e0|                                             01|               .|      [91]: 1 transition_type 0x2ef-0x2f0 (1)
0x2f0|02                                             |.               |      [92]: 2 transition_type 0x2f0-0x2f1 (1)
0x2f0|   01                                          | .              |      [93]: 1 transition_type 0x2f1-0x2f2 (1)
0x2f0|      02                                       |  .             |      [94]: 2 transition_type 0x2f2-0x2f3 (1)
0x2f0|         01                                    |   .            |      [95]: 1 transition_type 0x2f3-0x2f4 (1)
0x2f0|            02                                 |    .           |      [96]: 2 transition_type 0x2f4-0x2f5 (1)
0x2f0|               01                              |     .          |      [97]: 1 transition_type 0x2f5-0x2f6 (1)
0x2f0|                  02                           |      .         |      [98]: 2 transition_type 0x2f6-0x2f7 (1)
0x2f0|                     01                        |       .        |      [99]: 1 transition_type 0x2f7-0x2f8 (1)
0x2f0|                        02                     |        .       |      [100]: 2 transition_type 0x2f8-0x2f9 (1)
0x2f0|                           01                  |         .      |      [101]: 1 transition_type 0x2f9-0x2fa (1)
0x2f0|                              02               |          .     |      [102]: 2 transition_type 0x2fa-0x2fb (1)
0x2f0|                                 01            |           .    |      [103]: 1 transition_type 0x2fb-0x2fc (1)
0x2f0|                                    02         |            .   |      [104]: 2 transition_type 0x2fc-0x2fd (1)
0x2f0|                                       01      |             .  |      [105]: 1 transition_type 0x2fd-0x2fe (1)
0x2f0|                                          02   |              . |      [106]: 2 transition_type 0x2fe-0x2ff (1)
0x2f0|                                             01|               .|      [107]: 1 transition_type 0x2ff-0x300 (1)
0x300|02                                             |.               |      [108]: 2 transition_type 0x300-0x301 (1)
0x300|   01                                          | .              |      [109]: 1 transition_type 0x301-0x302 (1)
0x300|      02                                       |  .             |      [110]: 2 transition_type 0x302-0x303 (1)
0x300|         01                                    |   .            |      [111]: 1 transition_type 0x303-0x304 (1)
0x300|            02                                 |    .           |      [112]: 2 transition_type 0x304-0x305 (1)
0x300|               01                              |     .          |      [113]: 1 transition_type 0x305-0x306 (1)
0x300|                  02                           |      .         |      [114]: 2 transition_type 0x306-0x307 (1)
0x300|                     01                        |       .        |      [115]: 1 transition_type 0x307-0x308 (1)
0x300|                        02                     |        .       |      [116]: 2 transition_type 0x308-0x309 (1)
0x300|                           01                  |         .      |      [117]: 1 transition_type 0x309-0x30a (1)
0x300|                              02               |          .     |      [118]: 2 transition_type 0x30a-0x30b (1)
0x300|                                 01            |           .    |      [119]: 1 transition_type 0x30b-0x30c (1)
0x300|                                    02         |            .   |      [120]: 2 transition_type 0x30c-0x30d (1)
0x300|                                       01      |             .  |      [121]: 1 transition_type 0x30d-0x30e (1)
0x300|                                          02   |              . |      [122]: 2 transition_type 0x30e-0x30f (1)
0x300|                                             01|               .|      [123]: 1 transition_type 0x30f-0x310 (1)
0x310|02                                             |.               |      [124]: 2 transition_type 0x310-0x311 (1)
0x310|   01                                          | .              |      [125]: 1 transition_type 0x311-0x312 (1)
0x310|      02                                       |  .             |      [126]: 2 transition_type 0x312-0x313 (1)
0x310|         01                                    |   .            |      [127]: 1 transition_type 0x313-0x314 (1)
0x310|            02                                 |    .           |      [128]: 2 transition_type 0x314-0x315 (1)
0x310|               01                              |     .          |      [129]: 1 transition_type 0x315-0x316 (1)
0x310|                  02                           |      .         |      [130]: 2 transition_type 0x316-0x317 (1)
0x310|                     01                        |       .        |      [131]: 1 transition_type 0x317-0x318 (1)
0x310|                        02                     |        .       |      [132]: 2 transition_type 0x318-0x319 (1)
0x310|                           01                  |         .      |      [133]: 1 transition_type 0x319-0x31a (1)
0x310|                              02               |          .     |      [134]: 2 transition_type 0x31a-0x31b (1)
0x310|                                 01            |           .    |      [135]: 1 transition_type 0x31b-0x31c (1)
0x310|                                    02         |            .   |      [136]: 2 transition_type 0x31c-0x31d (1)
0x310|                                       01      |             .  |      [137]: 1 transition_type 0x31d-0x31e (1)
0x310|                                          02   |              . |      [138]: 2 transition_type 0x31e-0x31f (1)
0x310|                                             01|               .|      [139]: 1 transition_type 0x31f-0x320 (1)
0x320|02                                             |.               |      [140]: 2 transition_type 0x320-0x321 (1)
0x320|   01                                          | .              |      [141]: 1 transition_type 0x321-0x322 (1)
0x320|      02                                       |  .             |      [142]: 2 transition_type 0x322-0x323 (1)
0x320|         01                                    |   .            |      [143]: 1 transition_type 0x323-0x324 (1)
0x320|            02                                 |    .           |      [144]: 2 transition_type 0x324-0x325 (1)
0x320|               01                              |     .          |      [145]: 1 transition_type 0x325-0x326 (1)
0x320|                  02                           |      .         |      [146]: 2 transition_type 0x326-0x327 (1)
0x320|                     01                        |       .        |      [147]: 1 transition_type 0x327-0x328 (1)
0x320|                        02                     |        .       |      [148]: 2 transition_type 0x328-0x329 (1)
0x320|                           01                  |         .      |      [149]: 1 transition_type 0x329-0x32a (1)
0x320|                              02               |          .     |      [150]: 2 transition_type 0x32a-0x32b (1)
0x320|                                 01            |           .    |      [151]: 1 transition_type 0x32b-0x32c (1)
0x320|                                    02         |            .   |      [152]: 2 transition_type 0x32c-0x32d (1)
0x320|                                       01      |             .  |      [153]: 1 transition_type 0x32d-0x32e (1)
     |                                               |                |    local_time_type_records[0:4]: 0x32e-0x346 (24)
     |                                               |                |      [0]{}: local_time_type 0x32e-0x334 (6)
0x320|                                          00 00|              ..|        utoff: 35356 (valid) 0x32e-0x332 (4)
0x330|8a 1c                                          |..              |
0x330|      00                                       |  .             |        dst: 0 (valid) 0x332-0x333 (1)
0x330|         00                                    |   .            |        idx: 0 (valid) 0x333-0x334 (1)
     |                                               |                |      [1]{}: local_time_type 0x334-0x33a (6)
0x330|            00 00 9a b0                        |    ....        |        utoff: 39600 (valid) 0x334-0x338 (4)
0x330|                        01                     |        .       |        dst: 1 (valid) 0x338-0x339 (1)
0x330|                           04                  |         .      |        idx: 4 (valid) 0x339-0x33a (1)
     |                                               |                |      [2]{}: local_time_type 0x33a-0x340 (6)
0x330|                              00 00 8c a0      |          ....  |        utoff: 36000 (valid) 0x33a-0x33e (4)
0x330|                                          00   |              . |        dst: 0 (valid) 0x33e-0x33f (1)
0x330|                                             09|               .|        idx: 9 (valid) 0x33f-0x340 (1)
     |                                               |                |      [3]{}: local_time_type 0x340-0x346 (6)
0x340|00 00 8c a0                                    |....            |        utoff: 36000 (valid) 0x340-0x344 (4)
0x340|            00                                 |    .           |        dst: 0 (valid) 0x344-0x345 (1)
0x340|               09                              |     .          |        idx: 9 (valid) 0x345-0x346 (1)
     |                                               |                |    time_zone_designations[0:3]: 0x346-0x354 (14)
0x340|                  4c 4d 54 00                  |      LMT.      |      [0]: "LMT" time_zone_designation 0x346-0x34a (4)
0x340|                              41 45 44 54 00   |          AEDT. |      [1]: "AEDT" time_zone_designation 0x34a-0x34f (5)
0x340|                                             41|               A|      [2]: "AEST" time_zone_designation 0x34f-0x354 (5)
0x350|45 53 54 00                                    |EST.            |
     |                                               |                |    leap_second_records[0:0]: 0x354-0x354 (0)
     |                                               |                |    standard_wall_indicators[0:4]: 0x354-0x358 (4)
0x350|            00                                 |    .           |      [0]: 0 standard_wall_indicator (valid) 0x354-0x355 (1)
0x350|               01                              |     .          |      [1]: 1 standard_wall_indicator (valid) 0x355-0x356 (1)
0x350|                  01                           |      .         |      [2]: 1 standard_wall_indicator (valid) 0x356-0x357 (1)
0x350|                     00                        |       .        |      [3]: 0 standard_wall_indicator (valid) 0x357-0x358 (1)
     |                                               |                |    ut_local_indicators[0:0]: 0x358-0x358 (0)
     |                                               |                |  v2plusheader{}: 0x358-0x384 (44)
0x350|                        54 5a 69 66            |        TZif    |    magic: 0x545a6966 (valid) 0x358-0x35c (4)
0x350|                                    32         |            2   |    ver: "2" (0x32) (valid) 0x35c-0x35d (1)
0x350|                                       00 00 00|             ...|    reserved: raw bits 0x35d-0x36c (15)
0x360|00 00 00 00 00 00 00 00 00 00 00 00            |............    |
0x360|                                    00 00 00 00|            ....|    isutcnt: 0 0x36c-0x370 (4)
0x370|00 00 00 04                                    |....            |    isstdcnt: 4 0x370-0x374 (4)
0x370|            00 00 00 00                        |    ....        |    leapcnt: 0 0x374-0x378 (4)
0x370|                        00 00 00 9a            |        ....    |    timecnt: 154 0x378-0x37c (4)
0x370|                                    00 00 00 04|            ....|    typecnt: 4 0x37c-0x380 (4)
0x380|00 00 00 0e                                    |....            |    charcnt: 14 0x380-0x384 (4)
     |                                               |                |  v2plusdatablock{}: 0x384-0x918 (1428)
     |                                               |                |    transition_times[0:154]: 0x384-0x854 (1232)
0x380|            ff ff ff ff 74 2e 00 e4            |    ....t...    |      [0]: "1895-08-31T14:10:44Z" (-2345795356) transition_time 0x384-0x38c (8)
0x380|                                    ff ff ff ff|            ....|      [1]: "1916-09-30T16:00:00Z" (-1680508800) transition_time 0x38c-0x394 (8)
0x390|9b d5 78 80                                    |..x.            |
0x390|            ff ff ff ff 9c bc 2f 00            |    ....../.    |      [2]: "1917-03-24T16:00:00Z" (-1665388800) transition_time 0x394-0x39c (8)
0x390|                                    ff ff ff ff|            ....|      [3]: "1917-10-27T16:00:00Z" (-1646640000) transition_time 0x39c-0x3a4 (8)
0x3a0|9d da 44 80                                    |..D.            |
0x3a0|            ff ff ff ff 9e 80 61 80            |    ......a.    |      [4]: "1918-03-02T16:00:00Z" (-1635753600) transition_time 0x3a4-0x3ac (8)
0x3a0|                                    ff ff ff ff|            ....|      [5]: "1918-10-26T16:00:00Z" (-1615190400) transition_time 0x3ac-0x3b4 (8)
0x3b0|9f ba 26 80                                    |..&.            |
0x3b0|            ff ff ff ff a0 60 43 80            |    .....`C.    |      [6]: "1919-03-01T16:00:00Z" (-1604304000) transition_time 0x3b4-0x3bc (8)
0x3b0|                                    ff ff ff ff|            ....|      [7]: "1941-12-31T16:00:00Z" (-883641600) transition_time 0x3bc-0x3c4 (8)
0x3c0|cb 54 b3 00                                    |.T..            |
0x3c0|            ff ff ff ff cb c7 65 80            |    ......e.    |      [8]: "1942-03-28T16:00:00Z" (-876124800) transition_time 0x3c4-0x3cc (8)
0x3c0|                                    ff ff ff ff|            ....|      [9]: "1942-09-26T16:00:00Z" (-860400000) transition_time 0x3cc-0x3d4 (8)
0x3d0|cc b7 56 80                                    |..V.            |
0x3d0|            ff ff ff ff cd a7 47 80            |    ......G.    |      [10]: "1943-03-27T16:00:00Z" (-844675200) transition_time 0x3d4-0x3dc (8)
0x3d0|                                    ff ff ff ff|            ....|      [11]: "1943-10-02T16:00:00Z" (-828345600) transition_time 0x3dc-0x3e4 (8)
0x3e0|ce a0 73 00                                    |..s.            |
0x3e0|            ff ff ff ff cf 87 29 80            |    ......).    |      [12]: "1944-03-25T16:00:00Z" (-813225600) transition_time 0x3e4-0x3ec (8)
0x3e0|                                    ff ff ff ff|            ....|      [13]: "1967-09-30T16:00:00Z" (-71136000) transition_time 0x3ec-0x3f4 (8)
0x3f0|fb c2 8d 00                                    |....            |
0x3f0|            ff ff ff ff fc b2 7e 00            |    ......~.    |      [14]: "1968-03-30T16:00:00Z" (-55411200) transition_time 0x3f4-0x3fc (8)
0x3f0|                                    ff ff ff ff|            ....|      [15]: "1968-10-26T16:00:00Z" (-37267200) transition_time 0x3fc-0x404 (8)
0x400|fd c7 59 00                                    |..Y.            |
0x400|            ff ff ff ff fe 76 b0 80            |    .....v..    |      [16]: "1969-03-08T16:00:00Z" (-25776000) transition_time 0x404-0x40c (8)
0x400|                                    ff ff ff ff|            ....|      [17]: "1969-10-25T16:00:00Z" (-5817600) transition_time 0x40c-0x414 (8)
0x410|ff a7 3b 00                                    |..;.            |
0x410|            00 00 00 00 00 56 92 80            |    .....V..    |      [18]: "1970-03-07T16:00:00Z" (5673600) transition_time 0x414-0x41c (8)
0x410|                                    00 00 00 00|            ....|      [19]: "1970-10-24T16:00:00Z" (25632000) transition_time 0x41c-0x424 (8)
0x420|01 87 1d 00                                    |....            |
0x420|            00 00 00 00 02 3f af 00            |    .....?..    |      [20]: "1971-03-13T16:00:00Z" (37728000) transition_time 0x424-0x42c (8)
0x420|                                    00 00 00 00|            ....|      [21]: "1971-10-30T16:00:00Z" (57686400) transition_time 0x42c-0x434 (8)
0x430|03 70 39 80                                    |.p9.            |
0x430|            00 00 00 00 04 0d 1c 00            |    ........    |      [22]: "1972-02-26T16:00:00Z" (67968000) transition_time 0x434-0x43c (8)
0x430|                                    00 00 00 00|            ....|      [23]: "1972-10-28T16:00:00Z" (89136000) transition_time 0x43c-0x444 (8)
0x440|05 50 1b 80                                    |.P..            |
0x440|            00 00 00 00 05 f6 38 80            |    ......8.    |      [24]: "1973-03-03T16:00:00Z" (100022400) transition_time 0x444-0x44c (8)
0x440|                                    00 00 00 00|            ....|      [25]: "1973-10-27T16:00:00Z" (120585600) transition_time 0x44c-0x454 (8)
0x450|07 2f fd 80                                    |./..            |
0x450|            00 00 00 00 07 d6 1a 80            |    ........    |      [26]: "1974-03-02T16:00:00Z" (131472000) transition_time 0x454-0x45c (8)
0x450|                                    00 00 00 00|            ....|      [27]: "1974-10-26T16:00:00Z" (152035200) transition_time 0x45c-0x464 (8)
0x460|09 0f df 80                                    |....            |
0x460|            00 00 00 00 09 b5 fc 80            |    ........    |      [28]: "1975-03-01T16:00:00Z" (162921600) transition_time 0x464-0x46c (8)
0x460|                                    00 00 00 00|            ....|      [29]: "1975-10-25T16:00:00Z" (183484800) transition_time 0x46c-0x474 (8)
0x470|0a ef c1 80                                    |....            |
0x470|            00 00 00 00 0b 9f 19 00            |    ........    |      [30]: "1976-03-06T16:00:00Z" (194976000) transition_time 0x474-0x47c (8)
0x470|                                    00 00 00 00|            ....|      [31]: "1976-10-30T16:00:00Z" (215539200) transition_time 0x47c-0x484 (8)
0x480|0c d8 de 00                                    |....            |
0x480|            00 00 00 00 0d 7e fb 00            |    .....~..    |      [32]: "1977-03-05T16:00:00Z" (226425600) transition_time 0x484-0x48c (8)
0x480|                                    00 00 00 00|            ....|      [33]: "1977-10-29T16:00:00Z" (246988800) transition_time 0x48c-0x494 (8)
0x490|0e b8 c0 00                                    |....            |
0x490|            00 00 00 00 0f 5e dd 00            |    .....^..    |      [34]: "1978-03-04T16:00:00Z" (257875200) transition_time 0x494-0x49c (8)
0x490|                                    00 00 00 00|            ....|      [35]: "1978-10-28T16:00:00Z" (278438400) transition_time 0x49c-0x4a4 (8)
0x4a0|10 98 a2 00                                    |....            |
0x4a0|            00 00 00 00 11 3e bf 00            |    .....>..    |      [36]: "1979-03-03T16:00:00Z" (289324800) transition_time 0x4a4-0x4ac (8)
0x4a0|                                    00 00 00 00|            ....|      [37]: "1979-10-27T16:00:00Z" (309888000) transition_time 0x4ac-0x4b4 (8)
0x4b0|12 78 84 00                                    |.x..            |
0x4b0|            00 00 00 00 13 1e a1 00            |    ........    |      [38]: "1980-03-01T16:00:00Z" (320774400) transition_time 0x4b4-0x4bc (8)
0x4b0|                                    00 00 00 00|            ....|      [39]: "1980-10-25T16:00:00Z" (341337600) transition_time 0x4bc-0x4c4 (8)
0x4c0|14 58 66 00                                    |.Xf.            |
0x4c0|            00 00 00 00 14 fe 83 00            |    ........    |      [40]: "1981-02-28T16:00:00Z" (352224000) transition_time 0x4c4-0x4cc (8)
0x4c0|                                    00 00 00 00|            ....|      [41]: "1981-10-24T16:00:00Z" (372787200) transition_time 0x4cc-0x4d4 (8)
0x4d0|16 38 48 00                                    |.8H.            |
0x4d0|            00 00 00 00 17 03 4f 00            |    ......O.    |      [42]: "1982-03-27T16:00:00Z" (386092800) transition_time 0x4d4-0x4dc (8)
0x4d0|                                    00 00 00 00|            ....|      [43]: "1982-10-30T16:00:00Z" (404841600) transition_time 0x4dc-0x4e4 (8)
0x4e0|18 21 64 80                                    |.!d.            |
0x4e0|            00 00 00 00 18 e3 31 00            |    ......1.    |      [44]: "1983-03-26T16:00:00Z" (417542400) transition_time 0x4e4-0x4ec (8)
0x4e0|                                    00 00 00 00|            ....|      [45]: "1983-10-29T16:00:00Z" (436291200) transition_time 0x4ec-0x4f4 (8)
0x4f0|1a 01 46 80                                    |..F.            |
0x4f0|            00 00 00 00 1a a7 63 80            |    ......c.    |      [46]: "1984-03-03T16:00:00Z" (447177600) transition_time 0x4f4-0x4fc (8)
0x4f0|                                    00 00 00 00|            ....|      [47]: "1984-10-27T16:00:00Z" (467740800) transition_time 0x4fc-0x504 (8)
0x500|1b e1 28 80                                    |..(.            |
0x500|            00 00 00 00 1c 87 45 80            |    ......E.    |      [48]: "1985-03-02T16:00:00Z" (478627200) transition_time 0x504-0x50c (8)
0x500|                                    00 00 00 00|            ....|      [49]: "1985-10-26T16:00:00Z" (499190400) transition_time 0x50c-0x514 (8)
0x510|1d c1 0a 80                                    |....            |
0x510|            00 00 00 00 1e 67 27 80            |    .....g'.    |      [50]: "1986-03-01T16:00:00Z" (510076800) transition_time 0x514-0x51c (8)
0x510|                                    00 00 00 00|            ....|      [51]: "1986-10-18T16:00:00Z" (530035200) transition_time 0x51c-0x524 (8)
0x520|1f 97 b2 00                                    |....            |
0x520|            00 00 00 00 20 59 7e 80            |    .... Y~.    |      [52]: "1987-03-14T16:00:00Z" (542736000) transition_time 0x524-0x52c (8)
0x520|                                    00 00 00 00|            ....|      [53]: "1987-10-24T16:00:00Z" (562089600) transition_time 0x52c-0x534 (8)
0x530|21 80 ce 80                                    |!...            |
0x530|            00 00 00 00 22 42 9b 00            |    ...."B..    |      [54]: "1988-03-19T16:00:00Z" (574790400) transition_time 0x534-0x53c (8)
0x530|                                    00 00 00 00|            ....|      [55]: "1988-10-29T16:00:00Z" (594144000) transition_time 0x53c-0x544 (8)
0x540|23 69 eb 00                                    |#i..            |
0x540|            00 00 00 00 24 22 7d 00            |    ....$"}.    |      [56]: "1989-03-18T16:00:00Z" (606240000) transition_time 0x544-0x54c (8)
0x540|                                    00 00 00 00|            ....|      [57]: "1989-10-28T16:00:00Z" (625593600) transition_time 0x54c-0x554 (8)
0x550|25 49 cd 00                                    |%I..            |
0x550|            00 00 00 00 26 02 5f 00            |    ....&._.    |      [58]: "1990-03-17T16:00:00Z" (637689600) transition_time 0x554-0x55c (8)
0x550|                                    00 00 00 00|            ....|      [59]: "1990-10-27T16:00:00Z" (657043200) transition_time 0x55c-0x564 (8)
0x560|27 29 af 00                                    |')..            |
0x560|            00 00 00 00 27 f4 b6 00            |    ....'...    |      [60]: "1991-03-30T16:00:00Z" (670348800) transition_time 0x564-0x56c (8)
0x560|                                    00 00 00 00|            ....|      [61]: "1991-10-05T16:00:00Z" (686678400) transition_time 0x56c-0x574 (8)
0x570|28 ed e1 80                                    |(...            |
0x570|            00 00 00 00 29 d4 98 00            |    ....)...    |      [62]: "1992-03-28T16:00:00Z" (701798400) transition_time 0x574-0x57c (8)
0x570|                                    00 00 00 00|            ....|      [63]: "1992-10-03T16:00:00Z" (718128000) transition_time 0x57c-0x584 (8)
0x580|2a cd c3 80                                    |*...            |
0x580|            00 00 00 00 2b b4 7a 00            |    ....+.z.    |      [64]: "1993-03-27T16:00:00Z" (733248000) transition_time 0x584-0x58c (8)
0x580|                                    00 00 00 00|            ....|      [65]: "1993-10-02T16:00:00Z" (749577600) transition_time 0x58c-0x594 (8)
0x590|2c ad a5 80                                    |,...            |
0x590|            00 00 00 00 2d 94 5c 00            |    ....-.\.    |      [66]: "1994-03-26T16:00:00Z" (764697600) transition_time 0x594-0x59c (8)
0x590|                                    00 00 00 00|            ....|      [67]: "1994-10-01T16:00:00Z" (781027200) transition_time 0x59c-0x5a4 (8)
0x5a0|2e 8d 87 80                                    |....            |
0x5a0|            00 00 00 00 2f 74 3e 00            |    ..../t>.    |      [68]: "1995-03-25T16:00:00Z" (796147200) transition_time 0x5a4-0x5ac (8)
0x5a0|                                    00 00 00 00|            ....|      [69]: "1995-09-30T16:00:00Z" (812476800) transition_time 0x5ac-0x5b4 (8)
0x5b0|30 6d 69 80                                    |0mi.            |
0x5b0|            00 00 00 00 31 5d 5a 80            |    ....1]Z.    |      [70]: "1996-03-30T16:00:00Z" (828201600) transition_time 0x5b4-0x5bc (8)
0x5b0|                                    00 00 00 00|            ....|      [71]: "1996-10-05T16:00:00Z" (844531200) transition_time 0x5bc-0x5c4 (8)
0x5c0|32 56 86 00                                    |2V..            |
0x5c0|            00 00 00 00 33 3d 3c 80            |    ....3=<.    |      [72]: "1997-03-29T16:00:00Z" (859651200) transition_time 0x5c4-0x5cc (8)
0x5c0|                                    00 00 00 00|            ....|      [73]: "1997-10-04T16:00:00Z" (875980800) transition_time 0x5cc-0x5d4 (8)
0x5d0|34 36 68 00                                    |46h.            |
0x5d0|            00 00 00 00 35 1d 1e 80            |    ....5...    |      [74]: "1998-03-28T16:00:00Z" (891100800) transition_time 0x5d4-0x5dc (8)
0x5d0|                                    00 00 00 00|            ....|      [75]: "1998-10-03T16:00:00Z" (907430400) transition_time 0x5dc-0x5e4 (8)
0x5e0|36 16 4a 00                                    |6.J.            |
0x5e0|            00 00 00 00 36 fd 00 80            |    ....6...    |      [76]: "1999-03-27T16:00:00Z" (922550400) transition_time 0x5e4-0x5ec (8)
0x5e0|                                    00 00 00 00|            ....|      [77]: "1999-10-02T16:00:00Z" (938880000) transition_time 0x5ec-0x5f4 (8)
0x5f0|37 f6 2c 00                                    |7.,.            |
0x5f0|            00 00 00 00 38 dc e2 80            |    ....8...    |      [78]: "2000-03-25T16:00:00Z" (954000000) transition_time 0x5f4-0x5fc (8)
0x5f0|                                    00 00 00 00|            ....|      [79]: "2000-08-26T16:00:00Z" (967305600) transition_time 0x5fc-0x604 (8)
0x600|39 a7 e9 80                                    |9...            |
0x600|            00 00 00 00 3a bc c4 80            |    ....:...    |      [80]: "2001-03-24T16:00:00Z" (985449600) transition_time 0x604-0x60c (8)
0x600|                                    00 00 00 00|            ....|      [81]: "2001-10-06T16:00:00Z" (1002384000) transition_time 0x60c-0x614 (8)
0x610|3b bf 2a 80                                    |;.*.            |
0x610|            00 00 00 00 3c a5 e1 00            |    ....<...    |      [82]: "2002-03-30T16:00:00Z" (1017504000) transition_time 0x614-0x61c (8)
0x610|                                    00 00 00 00|            ....|      [83]: "2002-10-05T16:00:00Z" (1033833600) transition_time 0x61c-0x624 (8)
0x620|3d 9f 0c 80                                    |=...            |
0x620|            00 00 00 00 3e 85 c3 00            |    ....>...    |      [84]: "2003-03-29T16:00:00Z" (1048953600) transition_time 0x624-0x62c (8)
0x620|                                    00 00 00 00|            ....|      [85]: "2003-10-04T16:00:00Z" (1065283200) transition_time 0x62c-0x634 (8)
0x630|3f 7e ee 80                                    |?~..            |
0x630|            00 00 00 00 40 65 a5 00            |    ....@e..    |      [86]: "2004-03-27T16:00:00Z" (1080403200) transition_time 0x634-0x63c (8)
0x630|                                    00 00 00 00|            ....|      [87]: "2004-10-02T16:00:00Z" (1096732800) transition_time 0x63c-0x644 (8)
0x640|41 5e d0 80                                    |A^..            |
0x640|            00 00 00 00 42 45 87 00            |    ....BE..    |      [88]: "2005-03-26T16:00:00Z" (1111852800) transition_time 0x644-0x64c (8)
0x640|                                    00 00 00 00|            ....|      [89]: "2005-10-01T16:00:00Z" (1128182400) transition_time 0x64c-0x654 (8)
0x650|43 3e b2 80                                    |C>..            |
0x650|            00 00 00 00 44 2e a3 80            |    ....D...    |      [90]: "2006-04-01T16:00:00Z" (1143907200) transition_time 0x654-0x65c (8)
0x650|                                    00 00 00 00|            ....|      [91]: "2006-09-30T16:00:00Z" (1159632000) transition_time 0x65c-0x664 (8)
0x660|45 1e 94 80                                    |E...            |
0x660|            00 00 00 00 46 05 4b 00            |    ....F.K.    |      [92]: "2007-03-24T16:00:00Z" (1174752000) transition_time 0x664-0x66c (8)
0x660|                                    00 00 00 00|            ....|      [93]: "2007-10-06T16:00:00Z" (1191686400) transition_time 0x66c-0x674 (8)
0x670|47 07 b1 00                                    |G...            |
0x670|            00 00 00 00 47 f7 a2 00            |    ....G...    |      [94]: "2008-04-05T16:00:00Z" (1207411200) transition_time 0x674-0x67c (8)
0x670|                                    00 00 00 00|            ....|      [95]: "2008-10-04T16:00:00Z" (1223136000) transition_time 0x67c-0x684 (8)
0x680|48 e7 93 00                                    |H...            |
0x680|            00 00 00 00 49 d7 84 00            |    ....I...    |      [96]: "2009-04-04T16:00:00Z" (1238860800) transition_time 0x684-0x68c (8)
0x680|                                    00 00 00 00|            ....|      [97]: "2009-10-03T16:00:00Z" (1254585600) transition_time 0x68c-0x694 (8)
0x690|4a c7 75 00                                    |J.u.            |
0x690|            00 00 00 00 4b b7 66 00            |    ....K.f.    |      [98]: "2010-04-03T16:00:00Z" (1270310400) transition_time 0x694-0x69c (8)
0x690|                                    00 00 00 00|            ....|      [99]: "2010-10-02T16:00:00Z" (1286035200) transition_time 0x69c-0x6a4 (8)
0x6a0|4c a7 57 00                                    |L.W.            |
0x6a0|            00 00 00 00 4d 97 48 00            |    ....M.H.    |      [100]: "2011-04-02T16:00:00Z" (1301760000) transition_time 0x6a4-0x6ac (8)
0x6a0|                                    00 00 00 00|            ....|      [101]: "2011-10-01T16:00:00Z" (1317484800) transition_time 0x6ac-0x6b4 (8)
0x6b0|4e 87 39 00                                    |N.9.            |
0x6b0|            00 00 00 00 4f 77 2a 00            |    ....Ow*.    |      [102]: "2012-03-31T16:00:00Z" (1333209600) transition_time 0x6b4-0x6bc (8)
0x6b0|                                    00 00 00 00|            ....|      [103]: "2012-10-06T16:00:00Z" (1349539200) transition_time 0x6bc-0x6c4 (8)
0x6c0|50 70 55 80                                    |PpU.            |
0x6c0|            00 00 00 00 51 60 46 80            |    ....Q`F.    |      [104]: "2013-04-06T16:00:00Z" (1365264000) transition_time 0x6c4-0x6cc (8)
0x6c0|                                    00 00 00 00|            ....|      [105]: "2013-10-05T16:00:00Z" (1380988800) transition_time 0x6cc-0x6d4 (8)
0x6d0|52 50 37 80                                    |RP7.            |
0x6d0|            00 00 00 00 53 40 28 80            |    ....S@(.    |      [106]: "2014-04-05T16:00:00Z" (1396713600) transition_time 0x6d4-0x6dc (8)
0x6d0|                                    00 00 00 00|            ....|      [107]: "2014-10-04T16:00:00Z" (1412438400) transition_time 0x6dc-0x6e4 (8)
0x6e0|54 30 19 80                                    |T0..            |
0x6e0|            00 00 00 00 55 20 0a 80            |    ....U ..    |      [108]: "2015-04-04T16:00:00Z" (1428163200) transition_time 0x6e4-0x6ec (8)
0x6e0|                                    00 00 00 00|            ....|      [109]: "2015-10-03T16:00:00Z" (1443888000) transition_time 0x6ec-0x6f4 (8)
0x6f0|56 0f fb 80                                    |V...            |
0x6f0|            00 00 00 00 56 ff ec 80            |    ....V...    |      [110]: "2016-04-02T16:00:00Z" (1459612800) transition_time 0x6f4-0x6fc (8)
0x6f0|                                    00 00 00 00|            ....|      [111]: "2016-10-01T16:00:00Z" (1475337600) transition_time 0x6fc-0x704 (8)
0x700|57 ef dd 80                                    |W...            |
0x700|            00 00 00 00 58 df ce 80            |    ....X...    |      [112]: "2017-04-01T16:00:00Z" (1491062400) transition_time 0x704-0x70c (8)
0x700|                                    00 00 00 00|            ....|      [113]: "2017-09-30T16:00:00Z" (1506787200) transition_time 0x70c-0x714 (8)
0x710|59 cf bf 80                                    |Y...            |
0x710|            00 00 00 00 5a bf b0 80            |    ....Z...    |      [114]: "2018-03-31T16:00:00Z" (1522512000) transition_time 0x714-0x71c (8)
0x710|                                    00 00 00 00|            ....|      [115]: "2018-10-06T16:00:00Z" (1538841600) transition_time 0x71c-0x724 (8)
0x720|5b b8 dc 00                                    |[...            |
0x720|            00 00 00 00 5c a8 cd 00            |    ....\...    |      [116]: "2019-04-06T16:00:00Z" (1554566400) transition_time 0x724-0x72c (8)
0x720|                                    00 00 00 00|            ....|      [117]: "2019-10-05T16:00:00Z" (1570291200) transition_time 0x72c-0x734 (8)
0x730|5d 98 be 00                                    |]...            |
0x730|            00 00 00 00 5e 88 af 00            |    ....^...    |      [118]: "2020-04-04T16:00:00Z" (1586016000) transition_time 0x734-0x73c (8)
0x730|                                    00 00 00 00|            ....|      [119]: "2020-10-03T16:00:00Z" (1601740800) transition_time 0x73c-0x744 (8)
0x740|5f 78 a0 00                                    |_x..            |
0x740|            00 00 00 00 60 68 91 00            |    ....`h..    |      [120]: "2021-04-03T16:00:00Z" (1617465600) transition_time 0x744-0x74c (8)
0x740|                                    00 00 00 00|            ....|      [121]: "2021-10-02T16:00:00Z" (1633190400) transition_time 0x74c-0x754 (8)
0x750|61 58 82 00                                    |aX..            |
0x750|            00 00 00 00 62 48 73 00            |    ....bHs.    |      [122]: "2022-04-02T16:00:00Z" (1648915200) transition_time 0x754-0x75c (8)
0x750|                                    00 00 00 00|            ....|      [123]: "2022-10-01T16:00:00Z" (1664640000) transition_time 0x75c-0x764 (8)
0x760|63 38 64 00                                    |c8d.            |
0x760|            00 00 00 00 64 28 55 00            |    ....d(U.    |      [124]: "2023-04-01T16:00:00Z" (1680364800) transition_time 0x764-0x76c (8)
0x760|                                    00 00 00 00|            ....|      [125]: "2023-09-30T16:00:00Z" (1696089600) transition_time 0x76c-0x774 (8)
0x770|65 18 46 00                                    |e.F.            |
0x770|            00 00 00 00 66 11 71 80            |    ....f.q.    |      [126]: "2024-04-06T16:00:00Z" (1712419200) transition_time 0x774-0x77c (8)
0x770|                                    00 00 00 00|            ....|      [127]: "2024-10-05T16:00:00Z" (1728144000) transition_time 0x77c-0x784 (8)
0x780|67 01 62 80                                    |g.b.            |
0x780|            00 00 00 00 67 f1 53 80            |    ....g.S.    |      [128]: "2025-04-05T16:00:00Z" (1743868800) transition_time 0x784-0x78c (8)
0x780|                                    00 00 00 00|            ....|      [129]: "2025-10-04T16:00:00Z" (1759593600) transition_time 0x78c-0x794 (8)
0x790|68 e1 44 80                                    |h.D.            |
0x790|            00 00 00 00 69 d1 35 80            |    ....i.5.    |      [130]: "2026-04-04T16:00:00Z" (1775318400) transition_time 0x794-0x79c (8)
0x790|                                    00 00 00 00|            ....|      [131]: "2026-10-03T16:00:00Z" (1791043200) transition_time 0x79c-0x7a4 (8)
0x7a0|6a c1 26 80                                    |j.&.            |
0x7a0|            00 00 00 00 6b b1 17 80            |    ....k...    |      [132]: "2027-04-03T16:00:00Z" (1806768000) transition_time 0x7a4-0x7ac (8)
0x7a0|                                    00 00 00 00|            ....|      [133]: "2027-10-02T16:00:00Z" (1822492800) transition_time 0x7ac-0x7b4 (8)
0x7b0|6c a1 08 80                                    |l...            |
0x7b0|            00 00 00 00 6d 90 f9 80            |    ....m...    |      [134]: "2028-04-01T16:00:00Z" (1838217600) transition_time 0x7b4-0x7bc (8)
0x7b0|                                    00 00 00 00|            ....|      [135]: "2028-09-30T16:00:00Z" (1853942400) transition_time 0x7bc-0x7c4 (8)
0x7c0|6e 80 ea 80                                    |n...            |
0x7c0|            00 00 00 00 6f 70 db 80            |    ....op..    |      [136]: "2029-03-31T16:00:00Z" (1869667200) transition_time 0x7c4-0x7cc (8)
0x7c0|                                    00 00 00 00|            ....|      [137]: "2029-10-06T16:00:00Z" (1885996800) transition_time 0x7cc-0x7d4 (8)
0x7d0|70 6a 07 00                                    |pj..            |
0x7d0|            00 00 00 00 71 59 f8 00            |    ....qY..    |      [138]: "2030-04-06T16:00:00Z" (1901721600) transition_time 0x7d4-0x7dc (8)
0x7d0|                                    00 00 00 00|            ....|      [139]: "2030-10-05T16:00:00Z" (1917446400) transition_time 0x7dc-0x7e4 (8)
0x7e0|72 49 e9 00                                    |rI..            |
0x7e0|            00 00 00 00 73 39 da 00            |    ....s9..    |      [140]: "2031-04-05T16:00:00Z" (1933171200) transition_time 0x7e4-0x7ec (8)
0x7e0|                                    00 00 00 00|            ....|      [141]: "2031-10-04T16:00:00Z" (1948896000) transition_time 0x7ec-0x7f4 (8)
0x7f0|74 29 cb 00                                    |t)..            |
0x7f0|            00 00 00 00 75 19 bc 00            |    ....u...    |      [142]: "2032-04-03T16:00:00Z" (1964620800) transition_time 0x7f4-0x7fc (8)
0x7f0|                                    00 00 00 00|            ....|      [143]: "2032-10-02T16:00:00Z" (1980345600) transition_time 0x7fc-0x804 (8)
0x800|76 09 ad 00                                    |v...            |
0x800|            00 00 00 00 76 f9 9e 00            |    ....v...    |      [144]: "2033-04-02T16:00:00Z" (1996070400) transition_time 0x804-0x80c (8)
0x800|                                    00 00 00 00|            ....|      [145]: "2033-10-01T16:00:00Z" (2011795200) transition_time 0x80c-0x814 (8)
0x810|77 e9 8f 00                                    |w...            |
0x810|            00 00 00 00 78 d9 80 00            |    ....x...    |      [146]: "2034-04-01T16:00:00Z" (2027520000) transition_time 0x814-0x81c (8)
0x810|                                    00 00 00 00|            ....|      [147]: "2034-09-30T16:00:00Z" (2043244800) transition_time 0x81c-0x824 (8)
0x820|79 c9 71 00                                    |y.q.            |
0x820|            00 00 00 00 7a b9 62 00            |    ....z.b.    |      [148]: "2035-03-31T16:00:00Z" (2058969600) transition_time 0x824-0x82c (8)
0x820|                                    00 00 00 00|            ....|      [149]: "2035-10-06T16:00:00Z" (2075299200) transition_time 0x82c-0x834 (8)
0x830|7b b2 8d 80                                    |{...            |
0x830|            00 00 00 00 7c a2 7e 80            |    ....|.~.    |      [150]: "2036-04-05T16:00:00Z" (2091024000) transition_time 0x834-0x83c (8)
0x830|                                    00 00 00 00|            ....|      [151]: "2036-10-04T16:00:00Z" (2106748800) transition_time 0x83c-0x844 (8)
0x840|7d 92 6f 80                                    |}.o.            |
0x840|            00 00 00 00 7e 82 60 80            |    ....~.`.    |      [152]: "2037-04-04T16:00:00Z" (2122473600) transition_time 0x844-0x84c (8)
0x840|                                    00 00 00 00|            ....|      [153]: "2037-10-03T16:00:00Z" (2138198400) transition_time 0x84c-0x854 (8)
0x850|7f 72 51 80                                    |.rQ.            |
     |                                               |                |    transition_types[0:154]: 0x854-0x8ee (154)
0x850|            03                                 |    .           |      [0]: 3 transition_type 0x854-0x855 (1)
0x850|               01                              |     .          |      [1]: 1 transition_type 0x855-0x856 (1)
0x850|                  02                           |      .         |      [2]: 2 transition_type 0x856-0x857 (1)
0x850|                     01                        |       .        |      [3]: 1 transition_type 0x857-0x858 (1)
0x850|                        02                     |        .       |      [4]: 2 transition_type 0x858-0x859 (1)
0x850|                           01                  |         .      |      [5]: 1 transition_type 0x859-0x85a (1)
0x850|                              02               |          .     |      [6]: 2 transition_type 0x85a-0x85b (1)
0x850|                                 01            |           .    |      [7]: 1 transition_type 0x85b-0x85c (1)
0x850|                                    02         |            .   |      [8]: 2 transition_type 0x85c-0x85d (1)
0x850|                                       01      |             .  |      [9]: 1 transition_type 0x85d-0x85e (1)
0x850|                                          02   |              . |      [10]: 2 transition_type 0x85e-0x85f (1)
0x850|                                             01|               .|      [11]: 1 transition_type 0x85f-0x860 (1)
0x860|02                                             |.               |      [12]: 2 transition_type 0x860-0x861 (1)
0x860|   01                                          | .              |      [13]: 1 transition_type 0x861-0x862 (1)
0x860|      02                                       |  .             |      [14]: 2 transition_type 0x862-0x863 (1)
0x860|         01                                    |   .            |      [15]: 1 transition_type 0x863-0x864 (1)
0x860|            02                                 |    .           |      [16]: 2 transition_type 0x864-0x865 (1)
0x860|               01                              |     .          |      [17]: 1 transition_type 0x865-0x866 (1)
0x860|                  02                           |      .         |      [18]: 2 transition_type 0x866-0x867 (1)
0x860|                     01                        |       .        |      [19]: 1 transition_type 0x867-0x868 (1)
0x860|                        02                     |        .       |      [20]: 2 transition_type 0x868-0x869 (1)
0x860|                           01                  |         .      |      [21]: 1 transition_type 0x869-0x86a (1)
0x860|                              02               |          .     |      [22]: 2 transition_type 0x86a-0x86b (1)
0x860|                                 01            |           .    |      [23]: 1 transition_type 0x86b-0x86c (1)
0x860|                                    02         |            .   |      [24]: 2 transition_type 0x86c-0x86d (1)
0x860|                                       01      |             .  |      [25]: 1 transition_type 0x86d-0x86e (1)
0x860|                                          02   |              . |      [26]: 2 transition_type 0x86e-0x86f (1)
0x860|                                             01|               .|      [27]: 1 transition_type 0x86f-0x870 (1)
0x870|02                                             |.               |      [28]: 2 transition_type 0x870-0x871 (1)
0x870|   01                                          | .              |      [29]: 1 transition_type 0x871-0x872 (1)
0x870|      02                                       |  .             |      [30]: 2 transition_type 0x872-0x873 (1)
0x870|         01                                    |   .            |      [31]: 1 transition_type 0x873-0x874 (1)
0x870|            02                                 |    .           |      [32]: 2 transition_type 0x874-0x875 (1)
0x870|               01                              |     .          |      [33]: 1 transition_type 0x875-0x876 (1)
0x870|                  02                           |      .         |      [34]: 2 transition_type 0x876-0x877 (1)
0x870|                     01                        |       .        |      [35]: 1 transition_type 0x877-0x878 (1)
0x870|                        02                     |        .       |      [36]: 2 transition_type 0x878-0x879 (1)
0x870|                           01                  |         .      |      [37]: 1 transition_type 0x879-0x87a (1)
0x870|                              02               |          .     |      [38]: 2 transition_type 0x87a-0x87b (1)
0x870|                                 01            |           .    |      [39]: 1 transition_type 0x87b-0x87c (1)
0x870|                                    02         |            .   |      [40]: 2 transition_type 0x87c-0x87d (1)
0x870|                                       01      |             .  |      [41]: 1 transition_type 0x87d-0x87e (1)
0x870|                                          02   |              . |      [42]: 2 transition_type 0x87e-0x87f (1)
0x870|                                             01|               .|      [43]: 1 transition_type 0x87f-0x880 (1)
0x880|02                                             |.               |      [44]: 2 transition_type 0x880-0x881 (1)
0x880|   01                                          | .              |      [45]: 1 transition_type 0x881-0x882 (1)
0x880|      02                                       |  .             |      [46]: 2 transition_type 0x882-0x883 (1)
0x880|         01                                    |   .            |      [47]: 1 transition_type 0x883-0x884 (1)
0x880|            02                                 |    .           |      [48]: 2 transition_type 0x884-0x885 (1)
0x880|               01                              |     .          |      [49]: 1 transition_type 0x885-0x886 (1)
0x880|                  02                           |      .         |      [50]: 2 transition_type 0x886-0x887 (1)
0x880|                     01                        |       .        |      [51]: 1 transition_type 0x887-0x888 (1)
0x880|                        02                     |        .       |      [52]: 2 transition_type 0x888-0x889 (1)
0x880|                           01                  |         .      |      [53]: 1 transition_type 0x889-0x88a (1)
0x880|                              02               |          .     |      [54]: 2 transition_type 0x88a-0x88b (1)
0x880|                                 01            |           .    |      [55]: 1 transition_type 0x88b-0x88c (1)
0x880|                                    02         |            .   |      [56]: 2 transition_type 0x88c-0x88d (1)
0x880|                                       01      |             .  |      [57]: 1 transition_type 0x88d-0x88e (1)
0x880|                                          02   |              . |      [58]: 2 transition_type 0x88e-0x88f (1)
0x880|                                             01|               .|      [59]: 1 transition_type 0x88f-0x890 (1)
0x890|02                                             |.               |      [60]: 2 transition_type 0x890-0x891 (1)
0x890|   01                                          | .              |      [61]: 1 transition_type 0x891-0x892 (1)
0x890|      02                                       |  .             |      [62]: 2 transition_type 0x892-0x893 (1)
0x890|         01                                    |   .            |      [63]: 1 transition_type 0x893-0x894 (1)
0x890|            02                                 |    .           |      [64]: 2 transition_type 0x894-0x895 (1)
0x890|               01                              |     .          |      [65]: 1 transition_type 0x895-0x896 (1)
0x890|                  02                           |      .         |      [66]: 2 transition_type 0x896-0x897 (1)
0x890|                     01                        |       .        |      [67]: 1 transition_type 0x897-0x898 (1)
0x890|                        02                     |        .       |      [68]: 2 transition_type 0x898-0x899 (1)
0x890|                           01                  |         .      |      [69]: 1 transition_type 0x899-0x89a (1)
0x890|                              02               |          .     |      [70]: 2 transition_type 0x89a-0x89b (1)
0x890|                                 01            |           .    |      [71]: 1 transition_type 0x89b-0x89c (1)
0x890|                                    02         |            .   |      [72]: 2 transition_type 0x89c-0x89d (1)
0x890|                                       01      |             .  |      [73]: 1 transition_type 0x89d-0x89e (1)
0x890|                                          02   |              . |      [74]: 2 transition_type 0x89e-0x89f (1)
0x890|                                             01|               .|      [75]: 1 transition_type 0x89f-0x8a0 (1)
0x8a0|02                                             |.               |      [76]: 2 transition_type 0x8a0-0x8a1 (1)
0x8a0|   01                                          | .              |      [77]: 1 transition_type 0x8a1-0x8a2 (1)
0x8a0|      02                                       |  .             |      [78]: 2 transition_type 0x8a2-0x8a3 (1)
0x8a0|         01                                    |   .            |      [79]: 1 transition_type 0x8a3-0x8a4 (1)
0x8a0|            02                                 |    .           |      [80]: 2 transition_type 0x8a4-0x8a5 (1)
0x8a0|               01                              |     .          |      [81]: 1 transition_type 0x8a5-0x8a6 (1)
0x8a0|                  02                           |      .         |      [82]: 2 transition_type 0x8a6-0x8a7 (1)
0x8a0|                     01                        |       .        |      [83]: 1 transition_type 0x8a7-0x8a8 (1)
0x8a0|                        02                     |        .       |      [84]: 2 transition_type 0x8a8-0x8a9 (1)
0x8a0|                           01                  |         .      |      [85]: 1 transition_type 0x8a9-0x8aa (1)
0x8a0|                              02               |          .     |      [86]: 2 transition_type 0x8aa-0x8ab (1)
0x8a0|                                 01            |           .    |      [87]: 1 transition_type 0x8ab-0x8ac (1)
0x8a0|                                    02         |            .   |      [88]: 2 transition_type 0x8ac-0x8ad (1)
0x8a0|                                       01      |             .  |      [89]: 1 transition_type 0x8ad-0x8ae (1)
0x8a0|                                          02   |              . |      [90]: 2 transition_type 0x8ae-0x8af (1)
0x8a0|                                             01|               .|      [91]: 1 transition_type 0x8af-0x8b0 (1)
0x8b0|02                                             |.               |      [92]: 2 transition_type 0x8b0-0x8b1 (1)
0x8b0|   01                                          | .              |      [93]: 1 transition_type 0x8b1-0x8b2 (1)
0x8b0|      02                                       |  .             |      [94]: 2 transition_type 0x8b2-0x8b3 (1)
0x8b0|         01                                    |   .            |      [95]: 1 transition_type 0x8b3-0x8b4 (1)
0x8b0|            02                                 |    .           |      [96]: 2 transition_type 0x8b4-0x8b5 (1)
0x8b0|               01                              |     .          |      [97]: 1 transition_type 0x8b5-0x8b6 (1)
0x8b0|                  02                           |      .         |      [98]: 2 transition_type 0x8b6-0x8b7 (1)
0x8b0|                     01                        |       .        |      [99]: 1 transition_type 0x8b7-0x8b8 (1)
0x8b0|                        02                     |        .       |      [100]: 2 transition_type 0x8b8-0x8b9 (1)
0x8b0|                           01                  |         .      |      [101]: 1 transition_type 0x8b9-0x8ba (1)
0x8b0|                              02               |          .     |      [102]: 2 transition_type 0x8ba-0x8bb (1)
0x8b0|                                 01            |           .    |      [103]: 1 transition_type 0x8bb-0x8bc (1)
0x8b0|                                    02         |            .   |      [104]: 2 transition_type 0x8bc-0x8bd (1)
0x8b0|                                       01      |             .  |      [105]: 1 transition_type 0x8bd-0x8be (1)
0x8b0|                                          02   |              . |      [106]: 2 transition_type 0x8be-0x8bf (1)
0x8b0|                                             01|               .|      [107]: 1 transition_type 0x8bf-0x8c0 (1)
0x8c0|02                                             |.               |      [108]: 2 transition_type 0x8c0-0x8c1 (1)
0x8c0|   01                                          | .              |      [109]: 1 transition_type 0x8c1-0x8c2 (1)
0x8c0|      02                                       |  .             |      [110]: 2 transition_type 0x8c2-0x8c3 (1)
0x8c0|         01                                    |   .            |      [111]: 1 transition_type 0x8c3-0x8c4 (1)
0x8c0|            02                                 |    .           |      [112]: 2 transition_type 0x8c4-0x8c5 (1)
0x8c0|               01                              |     .          |      [113]: 1 transition_type 0x8c5-0x8c6 (1)
0x8c0|                  02                           |      .         |      [114]: 2 transition_type 0x8c6-0x8c7 (1)
0x8c0|                     01                        |       .        |      [115]: 1 transition_type 0x8c7-0x8c8 (1)
0x8c0|                        02                     |        .       |      [116]: 2 transition_type 0x8c8-0x8c9 (1)
0x8c0|                           01                  |         .      |      [117]: 1 transition_type 0x8c9-0x8ca (1)
0x8c0|                              02               |          .     |      [118]: 2 transition_type 0x8ca-0x8cb (1)
0x8c0|                                 01            |           .    |      [119]: 1 transition_type 0x8cb-0x8cc (1)
0x8c0|                                    02         |            .   |      [120]: 2 transition_type 0x8cc-0x8cd (1)
0x8c0|                                       01      |             .  |      [121]: 1 transition_type 0x8cd-0x8ce (1)
0x8c0|                                          02   |              . |      [122]: 2 transition_type 0x8ce-0x8cf (1)
0x8c0|                                             01|               .|      [123]: 1 transition_type 0x8cf-0x8d0 (1)
0x8d0|02                                             |.               |      [124]: 2 transition_type 0x8d0-0x8d1 (1)
0x8d0|   01                                          | .              |      [125]: 1 transition_type 0x8d1-0x8d2 (1)
0x8d0|      02                                       |  .             |      [126]: 2 transition_type 0x8d2-0x8d3 (1)
0x8d0|         01                                    |   .            |      [127]: 1 transition_type 0x8d3-0x8d4 (1)
0x8d0|            02                                 |    .           |      [128]: 2 transition_type 0x8d4-0x8d5 (1)
0x8d0|               01                              |     .          |      [129]: 1 transition_type 0x8d5-0x8d6 (1)
0x8d0|                  02                           |      .         |      [130]: 2 transition_type 0x8d6-0x8d7 (1)
0x8d0|                     01                        |       .        |      [131]: 1 transition_type 0x8d7-0x8d8 (1)
0x8d0|                        02                     |        .       |      [132]: 2 transition_type 0x8d8-0x8d9 (1)
0x8d0|                           01                  |         .      |      [133]: 1 transition_type 0x8d9-0x8da (1)
0x8d0|                              02               |          .     |      [134]: 2 transition_type 0x8da-0x8db (1)
0x8d0|                                 01            |           .    |      [135]: 1 transition_type 0x8db-0x8dc (1)
0x8d0|                                    02         |            .   |      [136]: 2 transition_type 0x8dc-0x8dd (1)
0x8d0|                                       01      |             .  |      [137]: 1 transition_type 0x8dd-0x8de (1)
0x8d0|                                          02   |              . |      [138]: 2 transition_type 0x8de-0x8df (1)
0x8d0|                                             01|               .|      [139]: 1 transition_type 0x8df-0x8e0 (1)
0x8e0|02                                             |.               |      [140]: 2 transition_type 0x8e0-0x8e1 (1)
0x8e0|   01                                          | .              |      [141]: 1 transition_type 0x8e1-0x8e2 (1)
0x8e0|      02                                       |  .             |      [142]: 2 transition_type 0x8e2-0x8e3 (1)
0x8e0|         01                                    |   .            |      [143]: 1 transition_type 0x8e3-0x8e4 (1)
0x8e0|            02                                 |    .           |      [144]: 2 transition_type 0x8e4-0x8e5 (1)
0x8e0|               01                              |     .          |      [145]: 1 transition_type 0x8e5-0x8e6 (1)
0x8e0|                  02                           |      .         |      [146]: 2 transition_type 0x8e6-0x8e7 (1)
0x8e0|                     01                        |       .        |      [147]: 1 transition_type 0x8e7-0x8e8 (1)
0x8e0|                        02                     |        .       |      [148]: 2 transition_type 0x8e8-0x8e9 (1)
0x8e0|                           01                  |         .      |      [149]: 1 transition_type 0x8e9-0x8ea (1)
0x8e0|                              02               |          .     |      [150]: 2 transition_type 0x8ea-0x8eb (1)
0x8e0|                                 01            |           .    |      [151]: 1 transition_type 0x8eb-0x8ec (1)
0x8e0|                                    02         |            .   |      [152]: 2 transition_type 0x8ec-0x8ed (1)
0x8e0|                                       01      |             .  |      [153]: 1 transition_type 0x8ed-0x8ee (1)
     |                                               |                |    local_time_type_records[0:4]: 0x8ee-0x906 (24)
     |                                               |                |      [0]{}: local_time_type 0x8ee-0x8f4 (6)
0x8e0|                                          00 00|              ..|        utoff: 35356 (valid) 0x8ee-0x8f2 (4)
0x8f0|8a 1c                                          |..              |
0x8f0|      00                                       |  .             |        dst: 0 (valid) 0x8f2-0x8f3 (1)
0x8f0|         00                                    |   .            |        idx: 0 (valid) 0x8f3-0x8f4 (1)
     |                                               |                |      [1]{}: local_time_type 0x8f4-0x8fa (6)
0x8f0|            00 00 9a b0                        |    ....        |        utoff: 39600 (valid) 0x8f4-0x8f8 (4)
0x8f0|                        01                     |        .       |        dst: 1 (valid) 0x8f8-0x8f9 (1)
0x8f0|                           04                  |         .      |        idx: 4 (valid) 0x8f9-0x8fa (1)
     |                                               |                |      [2]{}: local_time_type 0x8fa-0x900 (6)
0x8f0|                              00 00 8c a0      |          ....  |        utoff: 36000 (valid) 0x8fa-0x8fe (4)
0x8f0|                                          00   |              . |        dst: 0 (valid) 0x8fe-0x8ff (1)
0x8f0|                                             09|               .|        idx: 9 (valid) 0x8ff-0x900 (1)
     |                                               |                |      [3]{}: local_time_type 0x900-0x906 (6)
0x900|00 00 8c a0                                    |....            |        utoff: 36000 (valid) 0x900-0x904 (4)
0x900|            00                                 |    .           |        dst: 0 (valid) 0x904-0x905 (1)
0x900|               09                              |     .          |        idx: 9 (valid) 0x905-0x906 (1)
     |                                               |                |    time_zone_designations[0:3]: 0x906-0x914 (14)
0x900|                  4c 4d 54 00                  |      LMT.      |      [0]: "LMT" time_zone_designation 0x906-0x90a (4)
0x900|                              41 45 44 54 00   |          AEDT. |      [1]: "AEDT" time_zone_designation 0x90a-0x90f (5)
0x900|                                             41|               A|      [2]: "AEST" time_zone_designation 0x90f-0x914 (5)
0x910|45 53 54 00                                    |EST.            |
     |                                               |                |    leap_second_records[0:0]: 0x914-0x914 (0)
     |                                               |                |    standard_wall_indicators[0:4]: 0x914-0x918 (4)
0x910|            00                                 |    .           |      [0]: 0 standard_wall_indicator (valid) 0x914-0x915 (1)
0x910|               01                              |     .          |      [1]: 1 standard_wall_indicator (valid) 0x915-0x916 (1)
0x910|                  01                           |      .         |      [2]: 1 standard_wall_indicator (valid) 0x916-0x917 (1)
0x910|                     00                        |       .        |      [3]: 0 standard_wall_indicator (valid) 0x917-0x918 (1)
     |                                               |                |    ut_local_indicators[0:0]: 0x918-0x918 (0)
     |                                               |                |  footer{}: 0x918-0x936 (30)
0x910|                        0a                     |        .       |    nl1: 10 (valid) 0x918-0x919 (1)
0x910|                           41 45 53 54 2d 31 30|         AEST-10|    tz_string: "AEST-10AEDT,M10.1.0,M4.1.0/3" 0x919-0x935 (28)
0x920|41 45 44 54 2c 4d 31 30 2e 31 2e 30 2c 4d 34 2e|AEDT,M10.1.0,M4.|
0x930|31 2e 30 2f 33                                 |1.0/3           |
0x930|               0a|                             |     .|         |    nl2: 10 (valid) 0x935-0x936 (1)
