$ fq -d tzif dv Hong_Kong
     |00 01 02 03 04 05 06 07 08 09 0a 0b 0c 0d 0e 0f|0123456789abcdef|.{}: Hong_Kong (tzif) 0x0-0x6f6 (1782)
     |                                               |                |  v1header{}: 0x0-0x2c (44)
0x000|54 5a 69 66                                    |TZif            |    magic: 0x545a6966 (valid) 0x0-0x4 (4)
0x000|            32                                 |    2           |    ver: "2" (0x32) (valid) 0x4-0x5 (1)
0x000|               00 00 00 00 00 00 00 00 00 00 00|     ...........|    reserved: raw bits 0x5-0x14 (15)
0x010|00 00 00 00                                    |....            |
0x010|            00 00 00 08                        |    ....        |    isutcnt: 8 0x14-0x18 (4)
0x010|                        00 00 00 08            |        ....    |    isstdcnt: 8 0x18-0x1c (4)
0x010|                                    00 00 00 1b|            ....|    leapcnt: 27 0x1c-0x20 (4)
0x020|00 00 00 46                                    |...F            |    timecnt: 70 0x20-0x24 (4)
0x020|            00 00 00 08                        |    ....        |    typecnt: 8 0x24-0x28 (4)
0x020|                        00 00 00 16            |        ....    |    charcnt: 22 0x28-0x2c (4)
     |                                               |                |  v1datablock{}: 0x2c-0x2b8 (652)
     |                                               |                |    transition_times[0:70]: 0x2c-0x144 (280)
0x020|                                    85 69 63 90|            .ic.|      [0]: "1904-10-29T17:00:00Z" (-2056690800) transition_time 0x2c-0x30 (4)
0x030|ca 4d 31 30                                    |.M10            |      [1]: "1941-06-14T19:00:00Z" (-900910800) transition_time 0x30-0x34 (4)
0x030|            ca db 93 30                        |    ...0        |      [2]: "1941-09-30T19:00:00Z" (-891579600) transition_time 0x34-0x38 (4)
0x030|                        cb 4b 71 78            |        .Kqx    |      [3]: "1941-12-24T15:30:00Z" (-884248200) transition_time 0x38-0x3c (4)
0x030|                                    d2 a0 de 90|            ....|      [4]: "1945-11-17T17:00:00Z" (-761209200) transition_time 0x3c-0x40 (4)
0x040|d3 6b d7 80                                    |.k..            |      [5]: "1946-04-20T16:00:00Z" (-747907200) transition_time 0x40-0x44 (4)
0x040|            d4 93 58 b8                        |    ..X.        |      [6]: "1946-11-30T19:30:00Z" (-728541000) transition_time 0x44-0x48 (4)
0x040|                        d5 42 b0 38            |        .B.8    |      [7]: "1947-04-12T19:30:00Z" (-717049800) transition_time 0x48-0x4c (4)
0x040|                                    d6 73 3a b8|            .s:.|      [8]: "1947-11-29T19:30:00Z" (-697091400) transition_time 0x4c-0x50 (4)
0x050|d7 3e 41 b8                                    |.>A.            |      [9]: "1948-05-01T19:30:00Z" (-683785800) transition_time 0x50-0x54 (4)
0x050|            d8 2e 32 b8                        |    ..2.        |      [10]: "1948-10-30T19:30:00Z" (-668061000) transition_time 0x54-0x58 (4)
0x050|                        d8 f9 39 b8            |        ..9.    |      [11]: "1949-04-02T19:30:00Z" (-654755400) transition_time 0x58-0x5c (4)
0x050|                                    da 0e 14 b8|            ....|      [12]: "1949-10-29T19:30:00Z" (-636611400) transition_time 0x5c-0x60 (4)
0x060|da d9 1b b8                                    |....            |      [13]: "1950-04-01T19:30:00Z" (-623305800) transition_time 0x60-0x64 (4)
0x060|            db ed f6 b8                        |    ....        |      [14]: "1950-10-28T19:30:00Z" (-605161800) transition_time 0x64-0x68 (4)
0x060|                        dc b8 fd b8            |        ....    |      [15]: "1951-03-31T19:30:00Z" (-591856200) transition_time 0x68-0x6c (4)
0x060|                                    dd cd d8 b8|            ....|      [16]: "1951-10-27T19:30:00Z" (-573712200) transition_time 0x6c-0x70 (4)
0x070|de a2 1a 38                                    |...8            |      [17]: "1952-04-05T19:30:00Z" (-559801800) transition_time 0x70-0x74 (4)
0x070|            df b6 f5 38                        |    ...8        |      [18]: "1952-11-01T19:30:00Z" (-541657800) transition_time 0x74-0x78 (4)
0x070|                        e0 81 fc 38            |        ...8    |      [19]: "1953-04-04T19:30:00Z" (-528352200) transition_time 0x78-0x7c (4)
0x070|                                    e1 96 c9 28|            ...(|      [20]: "1953-10-31T18:30:00Z" (-510211800) transition_time 0x7c-0x80 (4)
0x080|e2 4f 69 38                                    |.Oi8            |      [21]: "1954-03-20T19:30:00Z" (-498112200) transition_time 0x80-0x84 (4)
0x080|            e3 76 ab 28                        |    .v.(        |      [22]: "1954-10-30T18:30:00Z" (-478762200) transition_time 0x84-0x88 (4)
0x080|                        e4 2f 4b 38            |        ./K8    |      [23]: "1955-03-19T19:30:00Z" (-466662600) transition_time 0x88-0x8c (4)
0x080|                                    e5 5f c7 a8|            ._..|      [24]: "1955-11-05T18:30:00Z" (-446707800) transition_time 0x8c-0x90 (4)
0x090|e6 0f 2d 38                                    |..-8            |      [25]: "1956-03-17T19:30:00Z" (-435213000) transition_time 0x90-0x94 (4)
0x090|            e7 3f a9 a8                        |    .?..        |      [26]: "1956-11-03T18:30:00Z" (-415258200) transition_time 0x94-0x98 (4)
0x090|                        e7 f8 49 b8            |        ..I.    |      [27]: "1957-03-23T19:30:00Z" (-403158600) transition_time 0x98-0x9c (4)
0x090|                                    e9 1f 8b a8|            ....|      [28]: "1957-11-02T18:30:00Z" (-383808600) transition_time 0x9c-0xa0 (4)
0x0a0|e9 d8 2b b8                                    |..+.            |      [29]: "1958-03-22T19:30:00Z" (-371709000) transition_time 0xa0-0xa4 (4)
0x0a0|            ea ff 6d a8                        |    ..m.        |      [30]: "1958-11-01T18:30:00Z" (-352359000) transition_time 0xa4-0xa8 (4)
0x0a0|                        eb b8 0d b8            |        ....    |      [31]: "1959-03-21T19:30:00Z" (-340259400) transition_time 0xa8-0xac (4)
0x0a0|                                    ec df 4f a8|            ..O.|      [32]: "1959-10-31T18:30:00Z" (-320909400) transition_time 0xac-0xb0 (4)
0x0b0|ed 97 ef b8                                    |....            |      [33]: "1960-03-19T19:30:00Z" (-308809800) transition_time 0xb0-0xb4 (4)
0x0b0|            ee c8 6c 28                        |    ..l(        |      [34]: "1960-11-05T18:30:00Z" (-288855000) transition_time 0xb4-0xb8 (4)
0x0b0|                        ef 77 d1 b8            |        .w..    |      [35]: "1961-03-18T19:30:00Z" (-277360200) transition_time 0xb8-0xbc (4)
0x0b0|                                    f0 a8 4e 28|            ..N(|      [36]: "1961-11-04T18:30:00Z" (-257405400) transition_time 0xbc-0xc0 (4)
0x0c0|f1 57 b3 b8                                    |.W..            |      [37]: "1962-03-17T19:30:00Z" (-245910600) transition_time 0xc0-0xc4 (4)
0x0c0|            f2 88 30 28                        |    ..0(        |      [38]: "1962-11-03T18:30:00Z" (-225955800) transition_time 0xc4-0xc8 (4)
0x0c0|                        f3 40 d0 38            |        .@.8    |      [39]: "1963-03-23T19:30:00Z" (-213856200) transition_time 0xc8-0xcc (4)
0x0c0|                                    f4 68 12 28|            .h.(|      [40]: "1963-11-02T18:30:00Z" (-194506200) transition_time 0xcc-0xd0 (4)
0x0d0|f5 20 b2 38                                    |. .8            |      [41]: "1964-03-21T19:30:00Z" (-182406600) transition_time 0xd0-0xd4 (4)
0x0d0|            f6 47 f4 28                        |    .G.(        |      [42]: "1964-10-31T18:30:00Z" (-163056600) transition_time 0xd4-0xd8 (4)
0x0d0|                        f7 25 7e 38            |        .%~8    |      [43]: "1965-04-17T19:30:00Z" (-148537800) transition_time 0xd8-0xdc (4)
0x0d0|                                    f8 15 61 28|            ..a(|      [44]: "1965-10-16T18:30:00Z" (-132816600) transition_time 0xdc-0xe0 (4)
0x0e0|f9 05 60 38                                    |..`8            |      [45]: "1966-04-16T19:30:00Z" (-117088200) transition_time 0xe0-0xe4 (4)
0x0e0|            f9 f5 43 28                        |    ..C(        |      [46]: "1966-10-15T18:30:00Z" (-101367000) transition_time 0xe4-0xe8 (4)
0x0e0|                        fa e5 42 38            |        ..B8    |      [47]: "1967-04-15T19:30:00Z" (-85638600) transition_time 0xe8-0xec (4)
0x0e0|                                    fb de 5f a8|            .._.|      [48]: "1967-10-21T18:30:00Z" (-69312600) transition_time 0xec-0xf0 (4)
0x0f0|fc ce 5e b8                                    |..^.            |      [49]: "1968-04-20T19:30:00Z" (-53584200) transition_time 0xf0-0xf4 (4)
0x0f0|            fd be 41 a8                        |    ..A.        |      [50]: "1968-10-19T18:30:00Z" (-37863000) transition_time 0xf4-0xf8 (4)
0x0f0|                        fe ae 40 b8            |        ..@.    |      [51]: "1969-04-19T19:30:00Z" (-22134600) transition_time 0xf8-0xfc (4)
0x0f0|                                    ff 9e 23 a8|            ..#.|      [52]: "1969-10-18T18:30:00Z" (-6413400) transition_time 0xfc-0x100 (4)
0x100|00 8e 22 b8                                    |..".            |      [53]: "1970-04-18T19:30:00Z" (9315000) transition_time 0x100-0x104 (4)
0x100|            01 7e 05 a8                        |    .~..        |      [54]: "1970-10-17T18:30:00Z" (25036200) transition_time 0x104-0x108 (4)
0x100|                        02 6e 04 b8            |        .n..    |      [55]: "1971-04-17T19:30:00Z" (40764600) transition_time 0x108-0x10c (4)
0x100|                                    03 5d e7 a8|            .]..|      [56]: "1971-10-16T18:30:00Z" (56485800) transition_time 0x10c-0x110 (4)
0x110|04 4d e6 b8                                    |.M..            |      [57]: "1972-04-15T19:30:00Z" (72214200) transition_time 0x110-0x114 (4)
0x110|            05 47 04 29                        |    .G.)        |      [58]: "1972-10-21T18:30:01Z" (88540201) transition_time 0x114-0x118 (4)
0x110|                        06 37 03 3a            |        .7.:    |      [59]: "1973-04-21T19:30:02Z" (104268602) transition_time 0x118-0x11c (4)
0x110|                                    07 26 e6 2a|            .&.*|      [60]: "1973-10-20T18:30:02Z" (119989802) transition_time 0x11c-0x120 (4)
0x120|07 83 3d 3a                                    |..=:            |      [61]: "1973-12-29T19:30:02Z" (126041402) transition_time 0x120-0x124 (4)
0x120|            09 06 c8 2b                        |    ...+        |      [62]: "1974-10-19T18:30:03Z" (151439403) transition_time 0x124-0x128 (4)
0x120|                        09 f6 c7 3c            |        ...<    |      [63]: "1975-04-19T19:30:04Z" (167167804) transition_time 0x128-0x12c (4)
0x120|                                    0a e6 aa 2c|            ...,|      [64]: "1975-10-18T18:30:04Z" (182889004) transition_time 0x12c-0x130 (4)
0x130|0b d6 a9 3d                                    |...=            |      [65]: "1976-04-17T19:30:05Z" (198617405) transition_time 0x130-0x134 (4)
0x130|            0c c6 8c 2d                        |    ...-        |      [66]: "1976-10-16T18:30:05Z" (214338605) transition_time 0x134-0x138 (4)
0x130|                        11 9b 39 40            |        ..9@    |      [67]: "1979-05-12T19:30:08Z" (295385408) transition_time 0x138-0x13c (4)
0x130|                                    12 6f 6c b0|            .ol.|      [68]: "1979-10-20T18:30:08Z" (309292208) transition_time 0x13c-0x140 (4)
0x140|64 9b 78 1b                                    |d.x.            |      [69]: "2023-06-28T00:00:27Z" (1687910427) transition_time 0x140-0x144 (4)
     |                                               |                |    transition_types[0:70]: 0x144-0x18a (70)
0x140|            01                                 |    .           |      [0]: 1 transition_type 0x144-0x145 (1)
0x140|               02                              |     .          |      [1]: 2 transition_type 0x145-0x146 (1)
0x140|                  03                           |      .         |      [2]: 3 transition_type 0x146-0x147 (1)
0x140|                     04                        |       .        |      [3]: 4 transition_type 0x147-0x148 (1)
0x140|                        07                     |        .       |      [4]: 7 transition_type 0x148-0x149 (1)
0x140|                           02                  |         .      |      [5]: 2 transition_type 0x149-0x14a (1)
0x140|                              05               |          .     |      [6]: 5 transition_type 0x14a-0x14b (1)
0x140|                                 06            |           .    |      [7]: 6 transition_type 0x14b-0x14c (1)
0x140|                                    05         |            .   |      [8]: 5 transition_type 0x14c-0x14d (1)
0x140|                                       06      |             .  |      [9]: 6 transition_type 0x14d-0x14e (1)
0x140|                                          05   |              . |      [10]: 5 transition_type 0x14e-0x14f (1)
0x140|                                             02|               .|      [11]: 2 transition_type 0x14f-0x150 (1)
0x150|05                                             |.               |      [12]: 5 transition_type 0x150-0x151 (1)
0x150|   02                                          | .              |      [13]: 2 transition_type 0x151-0x152 (1)
0x150|      05                                       |  .             |      [14]: 5 transition_type 0x152-0x153 (1)
0x150|         02                                    |   .            |      [15]: 2 transition_type 0x153-0x154 (1)
0x150|            05                                 |    .           |      [16]: 5 transition_type 0x154-0x155 (1)
0x150|               02                              |     .          |      [17]: 2 transition_type 0x155-0x156 (1)
0x150|                  05                           |      .         |      [18]: 5 transition_type 0x156-0x157 (1)
0x150|                     02                        |       .        |      [19]: 2 transition_type 0x157-0x158 (1)
0x150|                        07                     |        .       |      [20]: 7 transition_type 0x158-0x159 (1)
0x150|                           02                  |         .      |      [21]: 2 transition_type 0x159-0x15a (1)
0x150|                              07               |          .     |      [22]: 7 transition_type 0x15a-0x15b (1)
0x150|                                 02            |           .    |      [23]: 2 transition_type 0x15b-0x15c (1)
0x150|                                    07         |            .   |      [24]: 7 transition_type 0x15c-0x15d (1)
0x150|                                       02      |             .  |      [25]: 2 transition_type 0x15d-0x15e (1)
0x150|                                          07   |              . |      [26]: 7 transition_type 0x15e-0x15f (1)
0x150|                                             02|               .|      [27]: 2 transition_type 0x15f-0x160 (1)
0x160|07                                             |.               |      [28]: 7 transition_type 0x160-0x161 (1)
0x160|   02                                          | .              |      [29]: 2 transition_type 0x161-0x162 (1)
0x160|      07                                       |  .             |      [30]: 7 transition_type 0x162-0x163 (1)
0x160|         02                                    |   .            |      [31]: 2 transition_type 0x163-0x164 (1)
0x160|            07                                 |    .           |      [32]: 7 transition_type 0x164-0x165 (1)
0x160|               02                              |     .          |      [33]: 2 transition_type 0x165-0x166 (1)
0x160|                  07                           |      .         |      [34]: 7 transition_type 0x166-0x167 (1)
0x160|                     02                        |       .        |      [35]: 2 transition_type 0x167-0x168 (1)
0x160|                        07                     |        .       |      [36]: 7 transition_type 0x168-0x169 (1)
0x160|                           02                  |         .      |      [37]: 2 transition_type 0x169-0x16a (1)
0x160|                              07               |          .     |      [38]: 7 transition_type 0x16a-0x16b (1)
0x160|                                 02            |           .    |      [39]: 2 transition_type 0x16b-0x16c (1)
0x160|                                    07         |            .   |      [40]: 7 transition_type 0x16c-0x16d (1)
0x160|                                       02      |             .  |      [41]: 2 transition_type 0x16d-0x16e (1)
0x160|                                          07   |              . |      [42]: 7 transition_type 0x16e-0x16f (1)
0x160|                                             02|               .|      [43]: 2 transition_type 0x16f-0x170 (1)
0x170|07                                             |.               |      [44]: 7 transition_type 0x170-0x171 (1)
0x170|   02                                          | .              |      [45]: 2 transition_type 0x171-0x172 (1)
0x170|      07                                       |  .             |      [46]: 7 transition_type 0x172-0x173 (1)
0x170|         02                                    |   .            |      [47]: 2 transition_type 0x173-0x174 (1)
0x170|            07                                 |    .           |      [48]: 7 transition_type 0x174-0x175 (1)
0x170|               02                              |     .          |      [49]: 2 transition_type 0x175-0x176 (1)
0x170|                  07                           |      .         |      [50]: 7 transition_type 0x176-0x177 (1)
0x170|                     02                        |       .        |      [51]: 2 transition_type 0x177-0x178 (1)
0x170|                        07                     |        .       |      [52]: 7 transition_type 0x178-0x179 (1)
0x170|                           02                  |         .      |      [53]: 2 transition_type 0x179-0x17a (1)
0x170|                              07               |          .     |      [54]: 7 transition_type 0x17a-0x17b (1)
0x170|                                 02            |           .    |      [55]: 2 transition_type 0x17b-0x17c (1)
0x170|                                    07         |            .   |      [56]: 7 transition_type 0x17c-0x17d (1)
0x170|                                       02      |             .  |      [57]: 2 transition_type 0x17d-0x17e (1)
0x170|                                          07   |              . |      [58]: 7 transition_type 0x17e-0x17f (1)
0x170|                                             02|               .|      [59]: 2 transition_type 0x17f-0x180 (1)
0x180|07                                             |.               |      [60]: 7 transition_type 0x180-0x181 (1)
0x180|   02                                          | .              |      [61]: 2 transition_type 0x181-0x182 (1)
0x180|      07                                       |  .             |      [62]: 7 transition_type 0x182-0x183 (1)
0x180|         02                                    |   .            |      [63]: 2 transition_type 0x183-0x184 (1)
0x180|            07                                 |    .           |      [64]: 7 transition_type 0x184-0x185 (1)
0x180|               02                              |     .          |      [65]: 2 transition_type 0x185-0x186 (1)
0x180|                  07                           |      .         |      [66]: 7 transition_type 0x186-0x187 (1)
0x180|                     02                        |       .        |      [67]: 2 transition_type 0x187-0x188 (1)
0x180|                        07                     |        .       |      [68]: 7 transition_type 0x188-0x189 (1)
0x180|                           07                  |         .      |      [69]: 7 transition_type 0x189-0x18a (1)
     |                                               |                |    local_time_type_records[0:8]: 0x18a-0x1ba (48)
     |                                               |                |      [0]{}: local_time_type 0x18a-0x190 (6)
0x180|                              00 00 6b 0a      |          ..k.  |        utoff: 27402 (valid) 0x18a-0x18e (4)
0x180|                                          00   |              . |        dst: 0 (valid) 0x18e-0x18f (1)
0x180|                                             00|               .|        idx: 0 (valid) 0x18f-0x190 (1)
     |                                               |                |      [1]{}: local_time_type 0x190-0x196 (6)
0x190|00 00 70 80                                    |..p.            |        utoff: 28800 (valid) 0x190-0x194 (4)
0x190|            00                                 |    .           |        dst: 0 (valid) 0x194-0x195 (1)
0x190|               04                              |     .          |        idx: 4 (valid) 0x195-0x196 (1)
     |                                               |                |      [2]{}: local_time_type 0x196-0x19c (6)
0x190|                  00 00 7e 90                  |      ..~.      |        utoff: 32400 (valid) 0x196-0x19a (4)
0x190|                              01               |          .     |        dst: 1 (valid) 0x19a-0x19b (1)
0x190|                                 08            |           .    |        idx: 8 (valid) 0x19b-0x19c (1)
     |                                               |                |      [3]{}: local_time_type 0x19c-0x1a2 (6)
0x190|                                    00 00 77 88|            ..w.|        utoff: 30600 (valid) 0x19c-0x1a0 (4)
0x1a0|01                                             |.               |        dst: 1 (valid) 0x1a0-0x1a1 (1)
0x1a0|   0d                                          | .              |        idx: 13 (valid) 0x1a1-0x1a2 (1)
     |                                               |                |      [4]{}: local_time_type 0x1a2-0x1a8 (6)
0x1a0|      00 00 7e 90                              |  ..~.          |        utoff: 32400 (valid) 0x1a2-0x1a6 (4)
0x1a0|                  00                           |      .         |        dst: 0 (valid) 0x1a6-0x1a7 (1)
0x1a0|                     12                        |       .        |        idx: 18 (valid) 0x1a7-0x1a8 (1)
     |                                               |                |      [5]{}: local_time_type 0x1a8-0x1ae (6)
0x1a0|                        00 00 70 80            |        ..p.    |        utoff: 28800 (valid) 0x1a8-0x1ac (4)
0x1a0|                                    00         |            .   |        dst: 0 (valid) 0x1ac-0x1ad (1)
0x1a0|                                       04      |             .  |        idx: 4 (valid) 0x1ad-0x1ae (1)
     |                                               |                |      [6]{}: local_time_type 0x1ae-0x1b4 (6)
0x1a0|                                          00 00|              ..|        utoff: 32400 (valid) 0x1ae-0x1b2 (4)
0x1b0|7e 90                                          |~.              |
0x1b0|      01                                       |  .             |        dst: 1 (valid) 0x1b2-0x1b3 (1)
0x1b0|         08                                    |   .            |        idx: 8 (valid) 0x1b3-0x1b4 (1)
     |                                               |                |      [7]{}: local_time_type 0x1b4-0x1ba (6)
0x1b0|            00 00 70 80                        |    ..p.        |        utoff: 28800 (valid) 0x1b4-0x1b8 (4)
0x1b0|                        00                     |        .       |        dst: 0 (valid) 0x1b8-0x1b9 (1)
0x1b0|                           04                  |         .      |        idx: 4 (valid) 0x1b9-0x1ba (1)
     |                                               |                |    time_zone_designations[0:5]: 0x1ba-0x1d0 (22)
0x1b0|                              4c 4d 54 00      |          LMT.  |      [0]: "LMT" time_zone_designation 0x1ba-0x1be (4)
0x1b0|                                          48 4b|              HK|      [1]: "HKT" time_zone_designation 0x1be-0x1c2 (4)
0x1c0|54 00                                          |T.              |
0x1c0|      48 4b 53 54 00                           |  HKST.         |      [2]: "HKST" time_zone_designation 0x1c2-0x1c7 (5)
0x1c0|                     48 4b 57 54 00            |       HKWT.    |      [3]: "HKWT" time_zone_designation 0x1c7-0x1cc (5)
0x1c0|                                    4a 53 54 00|            JST.|      [4]: "JST" time_zone_designation 0x1cc-0x1d0 (4)
     |                                               |                |    leap_second_records[0:27]: 0x1d0-0x2a8 (216)
     |                                               |                |      [0]{}: leap_second_record 0x1d0-0x1d8 (8)
0x1d0|04 b2 58 00                                    |..X.            |        occur: "1972-07-01T00:00:00Z" (78796800) 0x1d0-0x1d4 (4)
0x1d0|            00 00 00 01                        |    ....        |        corr: 1 0x1d4-0x1d8 (4)
     |                                               |                |      [1]{}: leap_second_record 0x1d8-0x1e0 (8)
0x1d0|                        05 a4 ec 01            |        ....    |        occur: "1973-01-01T00:00:01Z" (94694401) 0x1d8-0x1dc (4)
0x1d0|                                    00 00 00 02|            ....|        corr: 2 0x1dc-0x1e0 (4)
     |                                               |                |      [2]{}: leap_second_record 0x1e0-0x1e8 (8)
0x1e0|07 86 1f 82                                    |....            |        occur: "1974-01-01T00:00:02Z" (126230402) 0x1e0-0x1e4 (4)
0x1e0|            00 00 00 03                        |    ....        |        corr: 3 0x1e4-0x1e8 (4)
     |                                               |                |      [3]{}: leap_second_record 0x1e8-0x1f0 (8)
0x1e0|                        09 67 53 03            |        .gS.    |        occur: "1975-01-01T00:00:03Z" (157766403) 0x1e8-0x1ec (4)
0x1e0|                                    00 00 00 04|            ....|        corr: 4 0x1ec-0x1f0 (4)
     |                                               |                |      [4]{}: leap_second_record 0x1f0-0x1f8 (8)
0x1f0|0b 48 86 84                                    |.H..            |        occur: "1976-01-01T00:00:04Z" (189302404) 0x1f0-0x1f4 (4)
0x1f0|            00 00 00 05                        |    ....        |        corr: 5 0x1f4-0x1f8 (4)
     |                                               |                |      [5]{}: leap_second_record 0x1f8-0x200 (8)
0x1f0|                        0d 2b 0b 85            |        .+..    |        occur: "1977-01-01T00:00:05Z" (220924805) 0x1f8-0x1fc (4)
0x1f0|                                    00 00 00 06|            ....|        corr: 6 0x1fc-0x200 (4)
     |                                               |                |      [6]{}: leap_second_record 0x200-0x208 (8)
0x200|0f 0c 3f 06                                    |..?.            |        occur: "1978-01-01T00:00:06Z" (252460806) 0x200-0x204 (4)
0x200|            00 00 00 07                        |    ....        |        corr: 7 0x204-0x208 (4)
     |                                               |                |      [7]{}: leap_second_record 0x208-0x210 (8)
0x200|                        10 ed 72 87            |        ..r.    |        occur: "1979-01-01T00:00:07Z" (283996807) 0x208-0x20c (4)
0x200|                                    00 00 00 08|            ....|        corr: 8 0x20c-0x210 (4)
     |                                               |                |      [8]{}: leap_second_record 0x210-0x218 (8)
0x210|12 ce a6 08                                    |....            |        occur: "1980-01-01T00:00:08Z" (315532808) 0x210-0x214 (4)
0x210|            00 00 00 09                        |    ....        |        corr: 9 0x214-0x218 (4)
     |                                               |                |      [9]{}: leap_second_record 0x218-0x220 (8)
0x210|                        15 9f ca 89            |        ....    |        occur: "1981-07-01T00:00:09Z" (362793609) 0x218-0x21c (4)
0x210|                                    00 00 00 0a|            ....|        corr: 10 0x21c-0x220 (4)
     |                                               |                |      [10]{}: leap_second_record 0x220-0x228 (8)
0x220|17 80 fe 0a                                    |....            |        occur: "1982-07-01T00:00:10Z" (394329610) 0x220-0x224 (4)
0x220|            00 00 00 0b                        |    ....        |        corr: 11 0x224-0x228 (4)
     |                                               |                |      [11]{}: leap_second_record 0x228-0x230 (8)
0x220|                        19 62 31 8b            |        .b1.    |        occur: "1983-07-01T00:00:11Z" (425865611) 0x228-0x22c (4)
0x220|                                    00 00 00 0c|            ....|        corr: 12 0x22c-0x230 (4)
     |                                               |                |      [12]{}: leap_second_record 0x230-0x238 (8)
0x230|1d 25 ea 0c                                    |.%..            |        occur: "1985-07-01T00:00:12Z" (489024012) 0x230-0x234 (4)
0x230|            00 00 00 0d                        |    ....        |        corr: 13 0x234-0x238 (4)
     |                                               |                |      [13]{}: leap_second_record 0x238-0x240 (8)
0x230|                        21 da e5 0d            |        !...    |        occur: "1988-01-01T00:00:13Z" (567993613) 0x238-0x23c (4)
0x230|                                    00 00 00 0e|            ....|        corr: 14 0x23c-0x240 (4)
     |                                               |                |      [14]{}: leap_second_record 0x240-0x248 (8)
0x240|25 9e 9d 8e                                    |%...            |        occur: "1990-01-01T00:00:14Z" (631152014) 0x240-0x244 (4)
0x240|            00 00 00 0f                        |    ....        |        corr: 15 0x244-0x248 (4)
     |                                               |                |      [15]{}: leap_second_record 0x248-0x250 (8)
0x240|                        27 7f d1 0f            |        '...    |        occur: "1991-01-01T00:00:15Z" (662688015) 0x248-0x24c (4)
0x240|                                    00 00 00 10|            ....|        corr: 16 0x24c-0x250 (4)
     |                                               |                |      [16]{}: leap_second_record 0x250-0x258 (8)
0x250|2a 50 f5 90                                    |*P..            |        occur: "1992-07-01T00:00:16Z" (709948816) 0x250-0x254 (4)
0x250|            00 00 00 11                        |    ....        |        corr: 17 0x254-0x258 (4)
     |                                               |                |      [17]{}: leap_second_record 0x258-0x260 (8)
0x250|                        2c 32 29 11            |        ,2).    |        occur: "1993-07-01T00:00:17Z" (741484817) 0x258-0x25c (4)
0x250|                                    00 00 00 12|            ....|        corr: 18 0x25c-0x260 (4)
     |                                               |                |      [18]{}: leap_second_record 0x260-0x268 (8)
0x260|2e 13 5c 92                                    |..\.            |        occur: "1994-07-01T00:00:18Z" (773020818) 0x260-0x264 (4)
0x260|            00 00 00 13                        |    ....        |        corr: 19 0x264-0x268 (4)
     |                                               |                |      [19]{}: leap_second_record 0x268-0x270 (8)
0x260|                        30 e7 24 13            |        0.$.    |        occur: "1996-01-01T00:00:19Z" (820454419) 0x268-0x26c (4)
0x260|                                    00 00 00 14|            ....|        corr: 20 0x26c-0x270 (4)
     |                                               |                |      [20]{}: leap_second_record 0x270-0x278 (8)
0x270|33 b8 48 94                                    |3.H.            |        occur: "1997-07-01T00:00:20Z" (867715220) 0x270-0x274 (4)
0x270|            00 00 00 15                        |    ....        |        corr: 21 0x274-0x278 (4)
     |                                               |                |      [21]{}: leap_second_record 0x278-0x280 (8)
0x270|                        36 8c 10 15            |        6...    |        occur: "1999-01-01T00:00:21Z" (915148821) 0x278-0x27c (4)
0x270|                                    00 00 00 16|            ....|        corr: 22 0x27c-0x280 (4)
     |                                               |                |      [22]{}: leap_second_record 0x280-0x288 (8)
0x280|43 b7 1b 96                                    |C...            |        occur: "2006-01-01T00:00:22Z" (1136073622) 0x280-0x284 (4)
0x280|            00 00 00 17                        |    ....        |        corr: 23 0x284-0x288 (4)
     |                                               |                |      [23]{}: leap_second_record 0x288-0x290 (8)
0x280|                        49 5c 07 97            |        I\..    |        occur: "2009-01-01T00:00:23Z" (1230768023) 0x288-0x28c (4)
0x280|                                    00 00 00 18|            ....|        corr: 24 0x28c-0x290 (4)
     |                                               |                |      [24]{}: leap_second_record 0x290-0x298 (8)
0x290|4f ef 93 18                                    |O...            |        occur: "2012-07-01T00:00:24Z" (1341100824) 0x290-0x294 (4)
0x290|            00 00 00 19                        |    ....        |        corr: 25 0x294-0x298 (4)
     |                                               |                |      [25]{}: leap_second_record 0x298-0x2a0 (8)
0x290|                        55 93 2d 99            |        U.-.    |        occur: "2015-07-01T00:00:25Z" (1435708825) 0x298-0x29c (4)
0x290|                                    00 00 00 1a|            ....|        corr: 26 0x29c-0x2a0 (4)
     |                                               |                |      [26]{}: leap_second_record 0x2a0-0x2a8 (8)
0x2a0|58 68 46 9a                                    |XhF.            |        occur: "2017-01-01T00:00:26Z" (1483228826) 0x2a0-0x2a4 (4)
0x2a0|            00 00 00 1b                        |    ....        |        corr: 27 0x2a4-0x2a8 (4)
     |                                               |                |    standard_wall_indicators[0:8]: 0x2a8-0x2b0 (8)
0x2a0|                        00                     |        .       |      [0]: 0 standard_wall_indicator (valid) 0x2a8-0x2a9 (1)
0x2a0|                           01                  |         .      |      [1]: 1 standard_wall_indicator (valid) 0x2a9-0x2aa (1)
0x2a0|                              00               |          .     |      [2]: 0 standard_wall_indicator (valid) 0x2aa-0x2ab (1)
0x2a0|                                 00            |           .    |      [3]: 0 standard_wall_indicator (valid) 0x2ab-0x2ac (1)
0x2a0|                                    00         |            .   |      [4]: 0 standard_wall_indicator (valid) 0x2ac-0x2ad (1)
0x2a0|                                       01      |             .  |      [5]: 1 standard_wall_indicator (valid) 0x2ad-0x2ae (1)
0x2a0|                                          01   |              . |      [6]: 1 standard_wall_indicator (valid) 0x2ae-0x2af (1)
0x2a0|                                             00|               .|      [7]: 0 standard_wall_indicator (valid) 0x2af-0x2b0 (1)
     |                                               |                |    ut_local_indicators[0:8]: 0x2b0-0x2b8 (8)
0x2b0|00                                             |.               |      [0]: 0 ut_local_indicator (valid) 0x2b0-0x2b1 (1)
0x2b0|   01                                          | .              |      [1]: 1 ut_local_indicator (valid) 0x2b1-0x2b2 (1)
0x2b0|      00                                       |  .             |      [2]: 0 ut_local_indicator (valid) 0x2b2-0x2b3 (1)
0x2b0|         00                                    |   .            |      [3]: 0 ut_local_indicator (valid) 0x2b3-0x2b4 (1)
0x2b0|            00                                 |    .           |      [4]: 0 ut_local_indicator (valid) 0x2b4-0x2b5 (1)
0x2b0|               00                              |     .          |      [5]: 0 ut_local_indicator (valid) 0x2b5-0x2b6 (1)
0x2b0|                  00                           |      .         |      [6]: 0 ut_local_indicator (valid) 0x2b6-0x2b7 (1)
0x2b0|                     00                        |       .        |      [7]: 0 ut_local_indicator (valid) 0x2b7-0x2b8 (1)
     |                                               |                |  v2plusheader{}: 0x2b8-0x2e4 (44)
0x2b0|                        54 5a 69 66            |        TZif    |    magic: 0x545a6966 (valid) 0x2b8-0x2bc (4)
0x2b0|                                    32         |            2   |    ver: "2" (0x32) (valid) 0x2bc-0x2bd (1)
0x2b0|                                       00 00 00|             ...|    reserved: raw bits 0x2bd-0x2cc (15)
0x2c0|00 00 00 00 00 00 00 00 00 00 00 00            |............    |
0x2c0|                                    00 00 00 08|            ....|    isutcnt: 8 0x2cc-0x2d0 (4)
0x2d0|00 00 00 08                                    |....            |    isstdcnt: 8 0x2d0-0x2d4 (4)
0x2d0|            00 00 00 1b                        |    ....        |    leapcnt: 27 0x2d4-0x2d8 (4)
0x2d0|                        00 00 00 46            |        ...F    |    timecnt: 70 0x2d8-0x2dc (4)
0x2d0|                                    00 00 00 08|            ....|    typecnt: 8 0x2dc-0x2e0 (4)
0x2e0|00 00 00 16                                    |....            |    charcnt: 22 0x2e0-0x2e4 (4)
     |                                               |                |  v2plusdatablock{}: 0x2e4-0x6f4 (1040)
     |                                               |                |    transition_times[0:70]: 0x2e4-0x514 (560)
0x2e0|            ff ff ff ff 85 69 63 90            |    .....ic.    |      [0]: "1904-10-29T17:00:00Z" (-2056690800) transition_time 0x2e4-0x2ec (8)
0x2e0|                                    ff ff ff ff|            ....|      [1]: "1941-06-14T19:00:00Z" (-900910800) transition_time 0x2ec-0x2f4 (8)
0x2f0|ca 4d 31 30                                    |.M10            |
0x2f0|            ff ff ff ff ca db 93 30            |    .......0    |      [2]: "1941-09-30T19:00:00Z" (-891579600) transition_time 0x2f4-0x2fc (8)
0x2f0|                                    ff ff ff ff|            ....|      [3]: "1941-12-24T15:30:00Z" (-884248200) transition_time 0x2fc-0x304 (8)
0x300|cb 4b 71 78                                    |.Kqx            |
0x300|            ff ff ff ff d2 a0 de 90            |    ........    |      [4]: "1945-11-17T17:00:00Z" (-761209200) transition_time 0x304-0x30c (8)
0x300|                                    ff ff ff ff|            ....|      [5]: "1946-04-20T16:00:00Z" (-747907200) transition_time 0x30c-0x314 (8)
0x310|d3 6b d7 80                                    |.k..            |
0x310|            ff ff ff ff d4 93 58 b8            |    ......X.    |      [6]: "1946-11-30T19:30:00Z" (-728541000) transition_time 0x314-0x31c (8)
0x310|                                    ff ff ff ff|            ....|      [7]: "1947-04-12T19:30:00Z" (-717049800) transition_time 0x31c-0x324 (8)
0x320|d5 42 b0 38                                    |.B.8            |
0x320|            ff ff ff ff d6 73 3a b8            |    .....s:.    |      [8]: "1947-11-29T19:30:00Z" (-697091400) transition_time 0x324-0x32c (8)
0x320|                                    ff ff ff ff|            ....|      [9]: "1948-05-01T19:30:00Z" (-683785800) transition_time 0x32c-0x334 (8)
0x330|d7 3e 41 b8                                    |.>A.            |
0x330|            ff ff ff ff d8 2e 32 b8            |    ......2.    |      [10]: "1948-10-30T19:30:00Z" (-668061000) transition_time 0x334-0x33c (8)
0x330|                                    ff ff ff ff|            ....|      [11]: "1949-04-02T19:30:00Z" (-654755400) transition_time 0x33c-0x344 (8)
0x340|d8 f9 39 b8                                    |..9.            |
0x340|            ff ff ff ff da 0e 14 b8            |    ........    |      [12]: "1949-10-29T19:30:00Z" (-636611400) transition_time 0x344-0x34c (8)
0x340|                                    ff ff ff ff|            ....|      [13]: "1950-04-01T19:30:00Z" (-623305800) transition_time 0x34c-0x354 (8)
0x350|da d9 1b b8                                    |....            |
0x350|            ff ff ff ff db ed f6 b8            |    ........    |      [14]: "1950-10-28T19:30:00Z" (-605161800) transition_time 0x354-0x35c (8)
0x350|                                    ff ff ff ff|            ....|      [15]: "1951-03-31T19:30:00Z" (-591856200) transition_time 0x35c-0x364 (8)
0x360|dc b8 fd b8                                    |....            |
0x360|            ff ff ff ff dd cd d8 b8            |    ........    |      [16]: "1951-10-27T19:30:00Z" (-573712200) transition_time 0x364-0x36c (8)
0x360|                                    ff ff ff ff|            ....|      [17]: "1952-04-05T19:30:00Z" (-559801800) transition_time 0x36c-0x374 (8)
0x370|de a2 1a 38                                    |...8            |
0x370|            ff ff ff ff df b6 f5 38            |    .......8    |      [18]: "1952-11-01T19:30:00Z" (-541657800) transition_time 0x374-0x37c (8)
0x370|                                    ff ff ff ff|            ....|      [19]: "1953-04-04T19:30:00Z" (-528352200) transition_time 0x37c-0x384 (8)
0x380|e0 81 fc 38                                    |...8            |
0x380|            ff ff ff ff e1 96 c9 28            |    .......(    |      [20]: "1953-10-31T18:30:00Z" (-510211800) transition_time 0x384-0x38c (8)
0x380|                                    ff ff ff ff|            ....|      [21]: "1954-03-20T19:30:00Z" (-498112200) transition_time 0x38c-0x394 (8)
0x390|e2 4f 69 38                                    |.Oi8            |
0x390|            ff ff ff ff e3 76 ab 28            |    .....v.(    |      [22]: "1954-10-30T18:30:00Z" (-478762200) transition_time 0x394-0x39c (8)
0x390|                                    ff ff ff ff|            ....|      [23]: "1955-03-19T19:30:00Z" (-466662600) transition_time 0x39c-0x3a4 (8)
0x3a0|e4 2f 4b 38                                    |./K8            |
0x3a0|            ff ff ff ff e5 5f c7 a8            |    ....._..    |      [24]: "1955-11-05T18:30:00Z" (-446707800) transition_time 0x3a4-0x3ac (8)
0x3a0|                                    ff ff ff ff|            ....|      [25]: "1956-03-17T19:30:00Z" (-435213000) transition_time 0x3ac-0x3b4 (8)
0x3b0|e6 0f 2d 38                                    |..-8            |
0x3b0|            ff ff ff ff e7 3f a9 a8            |    .....?..    |      [26]: "1956-11-03T18:30:00Z" (-415258200) transition_time 0x3b4-0x3bc (8)
0x3b0|                                    ff ff ff ff|            ....|      [27]: "1957-03-23T19:30:00Z" (-403158600) transition_time 0x3bc-0x3c4 (8)
0x3c0|e7 f8 49 b8                                    |..I.            |
0x3c0|            ff ff ff ff e9 1f 8b a8            |    ........    |      [28]: "1957-11-02T18:30:00Z" (-383808600) transition_time 0x3c4-0x3cc (8)
0x3c0|                                    ff ff ff ff|            ....|      [29]: "1958-03-22T19:30:00Z" (-371709000) transition_time 0x3cc-0x3d4 (8)
0x3d0|e9 d8 2b b8                                    |..+.            |
0x3d0|            ff ff ff ff ea ff 6d a8            |    ......m.    |      [30]: "1958-11-01T18:30:00Z" (-352359000) transition_time 0x3d4-0x3dc (8)
0x3d0|                                    ff ff ff ff|            ....|      [31]: "1959-03-21T19:30:00Z" (-340259400) transition_time 0x3dc-0x3e4 (8)
0x3e0|eb b8 0d b8                                    |....            |
0x3e0|            ff ff ff ff ec df 4f a8            |    ......O.    |      [32]: "1959-10-31T18:30:00Z" (-320909400) transition_time 0x3e4-0x3ec (8)
0x3e0|                                    ff ff ff ff|            ....|      [33]: "1960-03-19T19:30:00Z" (-308809800) transition_time 0x3ec-0x3f4 (8)
0x3f0|ed 97 ef b8                                    |....            |
0x3f0|            ff ff ff ff ee c8 6c 28            |    ......l(    |      [34]: "1960-11-05T18:30:00Z" (-288855000) transition_time 0x3f4-0x3fc (8)
0x3f0|                                    ff ff ff ff|            ....|      [35]: "1961-03-18T19:30:00Z" (-277360200) transition_time 0x3fc-0x404 (8)
0x400|ef 77 d1 b8                                    |.w..            |
0x400|            ff ff ff ff f0 a8 4e 28            |    ......N(    |      [36]: "1961-11-04T18:30:00Z" (-257405400) transition_time 0x404-0x40c (8)
0x400|                                    ff ff ff ff|            ....|      [37]: "1962-03-17T19:30:00Z" (-245910600) transition_time 0x40c-0x414 (8)
0x410|f1 57 b3 b8                                    |.W..            |
0x410|            ff ff ff ff f2 88 30 28            |    ......0(    |      [38]: "1962-11-03T18:30:00Z" (-225955800) transition_time 0x414-0x41c (8)
0x410|                                    ff ff ff ff|            ....|      [39]: "1963-03-23T19:30:00Z" (-213856200) transition_time 0x41c-0x424 (8)
0x420|f3 40 d0 38                                    |.@.8            |
0x420|            ff ff ff ff f4 68 12 28            |    .....h.(    |      [40]: "1963-11-02T18:30:00Z" (-194506200) transition_time 0x424-0x42c (8)
0x420|                                    ff ff ff ff|            ....|      [41]: "1964-03-21T19:30:00Z" (-182406600) transition_time 0x42c-0x434 (8)
0x430|f5 20 b2 38                                    |. .8            |
0x430|            ff ff ff ff f6 47 f4 28            |    .....G.(    |      [42]: "1964-10-31T18:30:00Z" (-163056600) transition_time 0x434-0x43c (8)
0x430|                                    ff ff ff ff|            ....|      [43]: "1965-04-17T19:30:00Z" (-148537800) transition_time 0x43c-0x444 (8)
0x440|f7 25 7e 38                                    |.%~8            |
0x440|            ff ff ff ff f8 15 61 28            |    ......a(    |      [44]: "1965-10-16T18:30:00Z" (-132816600) transition_time 0x444-0x44c (8)
0x440|                                    ff ff ff ff|            ....|      [45]: "1966-04-16T19:30:00Z" (-117088200) transition_time 0x44c-0x454 (8)
0x450|f9 05 60 38                                    |..`8            |
0x450|            ff ff ff ff f9 f5 43 28            |    ......C(    |      [46]: "1966-10-15T18:30:00Z" (-101367000) transition_time 0x454-0x45c (8)
0x450|                                    ff ff ff ff|            ....|      [47]: "1967-04-15T19:30:00Z" (-85638600) transition_time 0x45c-0x464 (8)
0x460|fa e5 42 38                                    |..B8            |
0x460|            ff ff ff ff fb de 5f a8            |    ......_.    |      [48]: "1967-10-21T18:30:00Z" (-69312600) transition_time 0x464-0x46c (8)
0x460|                                    ff ff ff ff|            ....|      [49]: "1968-04-20T19:30:00Z" (-53584200) transition_time 0x46c-0x474 (8)
0x470|fc ce 5e b8                                    |..^.            |
0x470|            ff ff ff ff fd be 41 a8            |    ......A.    |      [50]: "1968-10-19T18:30:00Z" (-37863000) transition_time 0x474-0x47c (8)
0x470|                                    ff ff ff ff|            ....|      [51]: "1969-04-19T19:30:00Z" (-22134600) transition_time 0x47c-0x484 (8)
0x480|fe ae 40 b8                                    |..@.            |
0x480|            ff ff ff ff ff 9e 23 a8            |    ......#.    |      [52]: "1969-10-18T18:30:00Z" (-6413400) transition_time 0x484-0x48c (8)
0x480|                                    00 00 00 00|            ....|      [53]: "1970-04-18T19:30:00Z" (9315000) transition_time 0x48c-0x494 (8)
0x490|00 8e 22 b8                                    |..".            |
0x490|            00 00 00 00 01 7e 05 a8            |    .....~..    |      [54]: "1970-10-17T18:30:00Z" (25036200) transition_time 0x494-0x49c (8)
0x490|                                    00 00 00 00|            ....|      [55]: "1971-04-17T19:30:00Z" (40764600) transition_time 0x49c-0x4a4 (8)
0x4a0|02 6e 04 b8                                    |.n..            |
0x4a0|            00 00 00 00 03 5d e7 a8            |    .....]..    |      [56]: "1971-10-16T18:30:00Z" (56485800) transition_time 0x4a4-0x4ac (8)
0x4a0|                                    00 00 00 00|            ....|      [57]: "1972-04-15T19:30:00Z" (72214200) transition_time 0x4ac-0x4b4 (8)
0x4b0|04 4d e6 b8                                    |.M..            |
0x4b0|            00 00 00 00 05 47 04 29            |    .....G.)    |      [58]: "1972-10-21T18:30:01Z" (88540201) transition_time 0x4b4-0x4bc (8)
0x4b0|                                    00 00 00 00|            ....|      [59]: "1973-04-21T19:30:02Z" (104268602) transition_time 0x4bc-0x4c4 (8)
0x4c0|06 37 03 3a                                    |.7.:            |
0x4c0|            00 00 00 00 07 26 e6 2a            |    .....&.*    |      [60]: "1973-10-20T18:30:02Z" (119989802) transition_time 0x4c4-0x4cc (8)
0x4c0|                                    00 00 00 00|            ....|      [61]: "1973-12-29T19:30:02Z" (126041402) transition_time 0x4cc-0x4d4 (8)
0x4d0|07 83 3d 3a                                    |..=:            |
0x4d0|            00 00 00 00 09 06 c8 2b            |    .......+    |      [62]: "1974-10-19T18:30:03Z" (151439403) transition_time 0x4d4-0x4dc (8)
0x4d0|                                    00 00 00 00|            ....|      [63]: "1975-04-19T19:30:04Z" (167167804) transition_time 0x4dc-0x4e4 (8)
0x4e0|09 f6 c7 3c                                    |...<            |
0x4e0|            00 00 00 00 0a e6 aa 2c            |    .......,    |      [64]: "1975-10-18T18:30:04Z" (182889004) transition_time 0x4e4-0x4ec (8)
0x4e0|                                    00 00 00 00|            ....|      [65]: "1976-04-17T19:30:05Z" (198617405) transition_time 0x4ec-0x4f4 (8)
0x4f0|0b d6 a9 3d                                    |...=            |
0x4f0|            00 00 00 00 0c c6 8c 2d            |    .......-    |      [66]: "1976-10-16T18:30:05Z" (214338605) transition_time 0x4f4-0x4fc (8)
0x4f0|                                    00 00 00 00|            ....|      [67]: "1979-05-12T19:30:08Z" (295385408) transition_time 0x4fc-0x504 (8)
0x500|11 9b 39 40                                    |..9@            |
0x500|            00 00 00 00 12 6f 6c b0            |    .....ol.    |      [68]: "1979-10-20T18:30:08Z" (309292208) transition_time 0x504-0x50c (8)
0x500|                                    00 00 00 00|            ....|      [69]: "2023-06-28T00:00:27Z" (1687910427) transition_time 0x50c-0x514 (8)
0x510|64 9b 78 1b                                    |d.x.            |
     |                                               |                |    transition_types[0:70]: 0x514-0x55a (70)
0x510|            01                                 |    .           |      [0]: 1 transition_type 0x514-0x515 (1)
0x510|               02                              |     .          |      [1]: 2 transition_type 0x515-0x516 (1)
0x510|                  03                           |      .         |      [2]: 3 transition_type 0x516-0x517 (1)
0x510|                     04                        |       .        |      [3]: 4 transition_type 0x517-0x518 (1)
0x510|                        07                     |        .       |      [4]: 7 transition_type 0x518-0x519 (1)
0x510|                           02                  |         .      |      [5]: 2 transition_type 0x519-0x51a (1)
0x510|                              05               |          .     |      [6]: 5 transition_type 0x51a-0x51b (1)
0x510|                                 06            |           .    |      [7]: 6 transition_type 0x51b-0x51c (1)
0x510|                                    05         |            .   |      [8]: 5 transition_type 0x51c-0x51d (1)
0x510|                                       06      |             .  |      [9]: 6 transition_type 0x51d-0x51e (1)
0x510|                                          05   |              . |      [10]: 5 transition_type 0x51e-0x51f (1)
0x510|                                             02|               .|      [11]: 2 transition_type 0x51f-0x520 (1)
0x520|05                                             |.               |      [12]: 5 transition_type 0x520-0x521 (1)
0x520|   02                                          | .              |      [13]: 2 transition_type 0x521-0x522 (1)
0x520|      05                                       |  .             |      [14]: 5 transition_type 0x522-0x523 (1)
0x520|         02                                    |   .            |      [15]: 2 transition_type 0x523-0x524 (1)
0x520|            05                                 |    .           |      [16]: 5 transition_type 0x524-0x525 (1)
0x520|               02                              |     .          |      [17]: 2 transition_type 0x525-0x526 (1)
0x520|                  05                           |      .         |      [18]: 5 transition_type 0x526-0x527 (1)
0x520|                     02                        |       .        |      [19]: 2 transition_type 0x527-0x528 (1)
0x520|                        07                     |        .       |      [20]: 7 transition_type 0x528-0x529 (1)
0x520|                           02                  |         .      |      [21]: 2 transition_type 0x529-0x52a (1)
0x520|                              07               |          .     |      [22]: 7 transition_type 0x52a-0x52b (1)
0x520|                                 02            |           .    |      [23]: 2 transition_type 0x52b-0x52c (1)
0x520|                                    07         |            .   |      [24]: 7 transition_type 0x52c-0x52d (1)
0x520|                                       02      |             .  |      [25]: 2 transition_type 0x52d-0x52e (1)
0x520|                                          07   |              . |      [26]: 7 transition_type 0x52e-0x52f (1)
0x520|                                             02|               .|      [27]: 2 transition_type 0x52f-0x530 (1)
0x530|07                                             |.               |      [28]: 7 transition_type 0x530-0x531 (1)
0x530|   02                                          | .              |      [29]: 2 transition_type 0x531-0x532 (1)
0x530|      07                                       |  .             |      [30]: 7 transition_type 0x532-0x533 (1)
0x530|         02                                    |   .            |      [31]: 2 transition_type 0x533-0x534 (1)
0x530|            07                                 |    .           |      [32]: 7 transition_type 0x534-0x535 (1)
0x530|               02                              |     .          |      [33]: 2 transition_type 0x535-0x536 (1)
0x530|                  07                           |      .         |      [34]: 7 transition_type 0x536-0x537 (1)
0x530|                     02                        |       .        |      [35]: 2 transition_type 0x537-0x538 (1)
0x530|                        07                     |        .       |      [36]: 7 transition_type 0x538-0x539 (1)
0x530|                           02                  |         .      |      [37]: 2 transition_type 0x539-0x53a (1)
0x530|                              07               |          .     |      [38]: 7 transition_type 0x53a-0x53b (1)
0x530|                                 02            |           .    |      [39]: 2 transition_type 0x53b-0x53c (1)
0x530|                                    07         |            .   |      [40]: 7 transition_type 0x53c-0x53d (1)
0x530|                                       02      |             .  |      [41]: 2 transition_type 0x53d-0x53e (1)
0x530|                                          07   |              . |      [42]: 7 transition_type 0x53e-0x53f (1)
0x530|                                             02|               .|      [43]: 2 transition_type 0x53f-0x540 (1)
0x540|07                                             |.               |      [44]: 7 transition_type 0x540-0x541 (1)
0x540|   02                                          | .              |      [45]: 2 transition_type 0x541-0x542 (1)
0x540|      07                                       |  .             |      [46]: 7 transition_type 0x542-0x543 (1)
0x540|         02                                    |   .            |      [47]: 2 transition_type 0x543-0x544 (1)
0x540|            07                                 |    .           |      [48]: 7 transition_type 0x544-0x545 (1)
0x540|               02                              |     .          |      [49]: 2 transition_type 0x545-0x546 (1)
0x540|                  07                           |      .         |      [50]: 7 transition_type 0x546-0x547 (1)
0x540|                     02                        |       .        |      [51]: 2 transition_type 0x547-0x548 (1)
0x540|                        07                     |        .       |      [52]: 7 transition_type 0x548-0x549 (1)
0x540|                           02                  |         .      |      [53]: 2 transition_type 0x549-0x54a (1)
0x540|                              07               |          .     |      [54]: 7 transition_type 0x54a-0x54b (1)
0x540|                                 02            |           .    |      [55]: 2 transition_type 0x54b-0x54c (1)
0x540|                                    07         |            .   |      [56]: 7 transition_type 0x54c-0x54d (1)
0x540|                                       02      |             .  |      [57]: 2 transition_type 0x54d-0x54e (1)
0x540|                                          07   |              . |      [58]: 7 transition_type 0x54e-0x54f (1)
0x540|                                             02|               .|      [59]: 2 transition_type 0x54f-0x550 (1)
0x550|07                                             |.               |      [60]: 7 transition_type 0x550-0x551 (1)
0x550|   02                                          | .              |      [61]: 2 transition_type 0x551-0x552 (1)
0x550|      07                                       |  .             |      [62]: 7 transition_type 0x552-0x553 (1)
0x550|         02                                    |   .            |      [63]: 2 transition_type 0x553-0x554 (1)
0x550|            07                                 |    .           |      [64]: 7 transition_type 0x554-0x555 (1)
0x550|               02                              |     .          |      [65]: 2 transition_type 0x555-0x556 (1)
0x550|                  07                           |      .         |      [66]: 7 transition_type 0x556-0x557 (1)
0x550|                     02                        |       .        |      [67]: 2 transition_type 0x557-0x558 (1)
0x550|                        07                     |        .       |      [68]: 7 transition_type 0x558-0x559 (1)
0x550|                           07                  |         .      |      [69]: 7 transition_type 0x559-0x55a (1)
     |                                               |                |    local_time_type_records[0:8]: 0x55a-0x58a (48)
     |                                               |                |      [0]{}: local_time_type 0x55a-0x560 (6)
0x550|                              00 00 6b 0a      |          ..k.  |        utoff: 27402 (valid) 0x55a-0x55e (4)
0x550|                                          00   |              . |        dst: 0 (valid) 0x55e-0x55f (1)
0x550|                                             00|               .|        idx: 0 (valid) 0x55f-0x560 (1)
     |                                               |                |      [1]{}: local_time_type 0x560-0x566 (6)
0x560|00 00 70 80                                    |..p.            |        utoff: 28800 (valid) 0x560-0x564 (4)
0x560|            00                                 |    .           |        dst: 0 (valid) 0x564-0x565 (1)
0x560|               04                              |     .          |        idx: 4 (valid) 0x565-0x566 (1)
     |                                               |                |      [2]{}: local_time_type 0x566-0x56c (6)
0x560|                  00 00 7e 90                  |      ..~.      |        utoff: 32400 (valid) 0x566-0x56a (4)
0x560|                              01               |          .     |        dst: 1 (valid) 0x56a-0x56b (1)
0x560|                                 08            |           .    |        idx: 8 (valid) 0x56b-0x56c (1)
     |                                               |                |      [3]{}: local_time_type 0x56c-0x572 (6)
0x560|                                    00 00 77 88|            ..w.|        utoff: 30600 (valid) 0x56c-0x570 (4)
0x570|01                                             |.               |        dst: 1 (valid) 0x570-0x571 (1)
0x570|   0d                                          | .              |        idx: 13 (valid) 0x571-0x572 (1)
     |                                               |                |      [4]{}: local_time_type 0x572-0x578 (6)
0x570|      00 00 7e 90                              |  ..~.          |        utoff: 32400 (valid) 0x572-0x576 (4)
0x570|                  00                           |      .         |        dst: 0 (valid) 0x576-0x577 (1)
0x570|                     12                        |       .        |        idx: 18 (valid) 0x577-0x578 (1)
     |                                               |                |      [5]{}: local_time_type 0x578-0x57e (6)
0x570|                        00 00 70 80            |        ..p.    |        utoff: 28800 (valid) 0x578-0x57c (4)
0x570|                                    00         |            .   |        dst: 0 (valid) 0x57c-0x57d (1)
0x570|                                       04      |             .  |        idx: 4 (valid) 0x57d-0x57e (1)
     |                                               |                |      [6]{}: local_time_type 0x57e-0x584 (6)
0x570|                                          00 00|              ..|        utoff: 32400 (valid) 0x57e-0x582 (4)
0x580|7e 90                                          |~.              |
0x580|      01                                       |  .             |        dst: 1 (valid) 0x582-0x583 (1)
0x580|         08                                    |   .            |        idx: 8 (valid) 0x583-0x584 (1)
     |                                               |                |      [7]{}: local_time_type 0x584-0x58a (6)
0x580|            00 00 70 80                        |    ..p.        |        utoff: 28800 (valid) 0x584-0x588 (4)
0x580|                        00                     |        .       |        dst: 0 (valid) 0x588-0x589 (1)
0x580|                           04                  |         .      |        idx: 4 (valid) 0x589-0x58a (1)
     |                                               |                |    time_zone_designations[0:5]: 0x58a-0x5a0 (22)
0x580|                              4c 4d 54 00      |          LMT.  |      [0]: "LMT" time_zone_designation 0x58a-0x58e (4)
0x580|                                          48 4b|              HK|      [1]: "HKT" time_zone_designation 0x58e-0x592 (4)
0x590|54 00                                          |T.              |
0x590|      48 4b 53 54 00                           |  HKST.         |      [2]: "HKST" time_zone_designation 0x592-0x597 (5)
0x590|                     48 4b 57 54 00            |       HKWT.    |      [3]: "HKWT" time_zone_designation 0x597-0x59c (5)
0x590|                                    4a 53 54 00|            JST.|      [4]: "JST" time_zone_designation 0x59c-0x5a0 (4)
     |                                               |                |    leap_second_records[0:27]: 0x5a0-0x6e4 (324)
     |                                               |                |      [0]{}: leap_second_record 0x5a0-0x5ac (12)
0x5a0|00 00 00 00 04 b2 58 00                        |......X.        |        occur: "1972-07-01T00:00:00Z" (78796800) 0x5a0-0x5a8 (8)
0x5a0|                        00 00 00 01            |        ....    |        corr: 1 0x5a8-0x5ac (4)
     |                                               |                |      [1]{}: leap_second_record 0x5ac-0x5b8 (12)
0x5a0|                                    00 00 00 00|            ....|        occur: "1973-01-01T00:00:01Z" (94694401) 0x5ac-0x5b4 (8)
0x5b0|05 a4 ec 01                                    |....            |
0x5b0|            00 00 00 02                        |    ....        |        corr: 2 0x5b4-0x5b8 (4)
     |                                               |                |      [2]{}: leap_second_record 0x5b8-0x5c4 (12)
0x5b0|                        00 00 00 00 07 86 1f 82|        ........|        occur: "1974-01-01T00:00:02Z" (126230402) 0x5b8-0x5c0 (8)
0x5c0|00 00 00 03                                    |....            |        corr: 3 0x5c0-0x5c4 (4)
     |                                               |                |      [3]{}: leap_second_record 0x5c4-0x5d0 (12)
0x5c0|            00 00 00 00 09 67 53 03            |    .....gS.    |        occur: "1975-01-01T00:00:03Z" (157766403) 0x5c4-0x5cc (8)
0x5c0|                                    00 00 00 04|            ....|        corr: 4 0x5cc-0x5d0 (4)
     |                                               |                |      [4]{}: leap_second_record 0x5d0-0x5dc (12)
0x5d0|00 00 00 00 0b 48 86 84                        |.....H..        |        occur: "1976-01-01T00:00:04Z" (189302404) 0x5d0-0x5d8 (8)
0x5d0|                        00 00 00 05            |        ....    |        corr: 5 0x5d8-0x5dc (4)
     |                                               |                |      [5]{}: leap_second_record 0x5dc-0x5e8 (12)
0x5d0|                                    00 00 00 00|            ....|        occur: "1977-01-01T00:00:05Z" (220924805) 0x5dc-0x5e4 (8)
0x5e0|0d 2b 0b 85                                    |.+..            |
0x5e0|            00 00 00 06                        |    ....        |        corr: 6 0x5e4-0x5e8 (4)
     |                                               |                |      [6]{}: leap_second_record 0x5e8-0x5f4 (12)
0x5e0|                        00 00 00 00 0f 0c 3f 06|        ......?.|        occur: "1978-01-01T00:00:06Z" (252460806) 0x5e8-0x5f0 (8)
0x5f0|00 00 00 07                                    |....            |        corr: 7 0x5f0-0x5f4 (4)
     |                                               |                |      [7]{}: leap_second_record 0x5f4-0x600 (12)
0x5f0|            00 00 00 00 10 ed 72 87            |    ......r.    |        occur: "1979-01-01T00:00:07Z" (283996807) 0x5f4-0x5fc (8)
0x5f0|                                    00 00 00 08|            ....|        corr: 8 0x5fc-0x600 (4)
     |                                               |                |      [8]{}: leap_second_record 0x600-0x60c (12)
0x600|00 00 00 00 12 ce a6 08                        |........        |        occur: "1980-01-01T00:00:08Z" (315532808) 0x600-0x608 (8)
0x600|                        00 00 00 09            |        ....    |        corr: 9 0x608-0x60c (4)
     |                                               |                |      [9]{}: leap_second_record 0x60c-0x618 (12)
0x600|                                    00 00 00 00|            ....|        occur: "1981-07-01T00:00:09Z" (362793609) 0x60c-0x614 (8)
0x610|15 9f ca 89                                    |....            |
0x610|            00 00 00 0a                        |    ....        |        corr: 10 0x614-0x618 (4)
     |                                               |                |      [10]{}: leap_second_record 0x618-0x624 (12)
0x610|                        00 00 00 00 17 80 fe 0a|        ........|        occur: "1982-07-01T00:00:10Z" (394329610) 0x618-0x620 (8)
0x620|00 00 00 0b                                    |....            |        corr: 11 0x620-0x624 (4)
     |                                               |                |      [11]{}: leap_second_record 0x624-0x630 (12)
0x620|            00 00 00 00 19 62 31 8b            |    .....b1.    |        occur: "1983-07-01T00:00:11Z" (425865611) 0x624-0x62c (8)
0x620|                                    00 00 00 0c|            ....|        corr: 12 0x62c-0x630 (4)
     |                                               |                |      [12]{}: leap_second_record 0x630-0x63c (12)
0x630|00 00 00 00 1d 25 ea 0c                        |.....%..        |        occur: "1985-07-01T00:00:12Z" (489024012) 0x630-0x638 (8)
0x630|                        00 00 00 0d            |        ....    |        corr: 13 0x638-0x63c (4)
     |                                               |                |      [13]{}: leap_second_record 0x63c-0x648 (12)
0x630|                                    00 00 00 00|            ....|        occur: "1988-01-01T00:00:13Z" (567993613) 0x63c-0x644 (8)
0x640|21 da e5 0d                                    |!...            |
0x640|            00 00 00 0e                        |    ....        |        corr: 14 0x644-0x648 (4)
     |                                               |                |      [14]{}: leap_second_record 0x648-0x654 (12)
0x640|                        00 00 00 00 25 9e 9d 8e|        ....%...|        occur: "1990-01-01T00:00:14Z" (631152014) 0x648-0x650 (8)
0x650|00 00 00 0f                                    |....            |        corr: 15 0x650-0x654 (4)
     |                                               |                |      [15]{}: leap_second_record 0x654-0x660 (12)
0x650|            00 00 00 00 27 7f d1 0f            |    ....'...    |        occur: "1991-01-01T00:00:15Z" (662688015) 0x654-0x65c (8)
0x650|                                    00 00 00 10|            ....|        corr: 16 0x65c-0x660 (4)
     |                                               |                |      [16]{}: leap_second_record 0x660-0x66c (12)
0x660|00 00 00 00 2a 50 f5 90                        |....*P..        |        occur: "1992-07-01T00:00:16Z" (709948816) 0x660-0x668 (8)
0x660|                        00 00 00 11            |        ....    |        corr: 17 0x668-0x66c (4)
     |                                               |                |      [17]{}: leap_second_record 0x66c-0x678 (12)
0x660|                                    00 00 00 00|            ....|        occur: "1993-07-01T00:00:17Z" (741484817) 0x66c-0x674 (8)
0x670|2c 32 29 11                                    |,2).            |
0x670|            00 00 00 12                        |    ....        |        corr: 18 0x674-0x678 (4)
     |                                               |                |      [18]{}: leap_second_record 0x678-0x684 (12)
0x670|                        00 00 00 00 2e 13 5c 92|        ......\.|        occur: "1994-07-01T00:00:18Z" (773020818) 0x678-0x680 (8)
0x680|00 00 00 13                                    |....            |        corr: 19 0x680-0x684 (4)
     |                                               |                |      [19]{}: leap_second_record 0x684-0x690 (12)
0x680|            00 00 00 00 30 e7 24 13            |    ....0.$.    |        occur: "1996-01-01T00:00:19Z" (820454419) 0x684-0x68c (8)
0x680|                                    00 00 00 14|            ....|        corr: 20 0x68c-0x690 (4)
     |                                               |                |      [20]{}: leap_second_record 0x690-0x69c (12)
0x690|00 00 00 00 33 b8 48 94                        |....3.H.        |        occur: "1997-07-01T00:00:20Z" (867715220) 0x690-0x698 (8)
0x690|                        00 00 00 15            |        ....    |        corr: 21 0x698-0x69c (4)
     |                                               |                |      [21]{}: leap_second_record 0x69c-0x6a8 (12)
0x690|                                    00 00 00 00|            ....|        occur: "1999-01-01T00:00:21Z" (915148821) 0x69c-0x6a4 (8)
0x6a0|36 8c 10 15                                    |6...            |
0x6a0|            00 00 00 16                        |    ....        |        corr: 22 0x6a4-0x6a8 (4)
     |                                               |                |      [22]{}: leap_second_record 0x6a8-0x6b4 (12)
0x6a0|                        00 00 00 00 43 b7 1b 96|        ....C...|        occur: "2006-01-01T00:00:22Z" (1136073622) 0x6a8-0x6b0 (8)
0x6b0|00 00 00 17                                    |....            |        corr: 23 0x6b0-0x6b4 (4)
     |                                               |                |      [23]{}: leap_second_record 0x6b4-0x6c0 (12)
0x6b0|            00 00 00 00 49 5c 07 97            |    ....I\..    |        occur: "2009-01-01T00:00:23Z" (1230768023) 0x6b4-0x6bc (8)
0x6b0|                                    00 00 00 18|            ....|        corr: 24 0x6bc-0x6c0 (4)
     |                                               |                |      [24]{}: leap_second_record 0x6c0-0x6cc (12)
0x6c0|00 00 00 00 4f ef 93 18                        |....O...        |        occur: "2012-07-01T00:00:24Z" (1341100824) 0x6c0-0x6c8 (8)
0x6c0|                        00 00 00 19            |        ....    |        corr: 25 0x6c8-0x6cc (4)
     |                                               |                |      [25]{}: leap_second_record 0x6cc-0x6d8 (12)
0x6c0|                                    00 00 00 00|            ....|        occur: "2015-07-01T00:00:25Z" (1435708825) 0x6cc-0x6d4 (8)
0x6d0|55 93 2d 99                                    |U.-.            |
0x6d0|            00 00 00 1a                        |    ....        |        corr: 26 0x6d4-0x6d8 (4)
     |                                               |                |      [26]{}: leap_second_record 0x6d8-0x6e4 (12)
0x6d0|                        00 00 00 00 58 68 46 9a|        ....XhF.|        occur: "2017-01-01T00:00:26Z" (1483228826) 0x6d8-0x6e0 (8)
0x6e0|00 00 00 1b                                    |....            |        corr: 27 0x6e0-0x6e4 (4)
     |                                               |                |    standard_wall_indicators[0:8]: 0x6e4-0x6ec (8)
0x6e0|            00                                 |    .           |      [0]: 0 standard_wall_indicator (valid) 0x6e4-0x6e5 (1)
0x6e0|               01                              |     .          |      [1]: 1 standard_wall_indicator (valid) 0x6e5-0x6e6 (1)
0x6e0|                  00                           |      .         |      [2]: 0 standard_wall_indicator (valid) 0x6e6-0x6e7 (1)
0x6e0|                     00                        |       .        |      [3]: 0 standard_wall_indicator (valid) 0x6e7-0x6e8 (1)
0x6e0|                        00                     |        .       |      [4]: 0 standard_wall_indicator (valid) 0x6e8-0x6e9 (1)
0x6e0|                           01                  |         .      |      [5]: 1 standard_wall_indicator (valid) 0x6e9-0x6ea (1)
0x6e0|                              01               |          .     |      [6]: 1 standard_wall_indicator (valid) 0x6ea-0x6eb (1)
0x6e0|                                 00            |           .    |      [7]: 0 standard_wall_indicator (valid) 0x6eb-0x6ec (1)
     |                                               |                |    ut_local_indicators[0:8]: 0x6ec-0x6f4 (8)
0x6e0|                                    00         |            .   |      [0]: 0 ut_local_indicator (valid) 0x6ec-0x6ed (1)
0x6e0|                                       01      |             .  |      [1]: 1 ut_local_indicator (valid) 0x6ed-0x6ee (1)
0x6e0|                                          00   |              . |      [2]: 0 ut_local_indicator (valid) 0x6ee-0x6ef (1)
0x6e0|                                             00|               .|      [3]: 0 ut_local_indicator (valid) 0x6ef-0x6f0 (1)
0x6f0|00                                             |.               |      [4]: 0 ut_local_indicator (valid) 0x6f0-0x6f1 (1)
0x6f0|   00                                          | .              |      [5]: 0 ut_local_indicator (valid) 0x6f1-0x6f2 (1)
0x6f0|      00                                       |  .             |      [6]: 0 ut_local_indicator (valid) 0x6f2-0x6f3 (1)
0x6f0|         00                                    |   .            |      [7]: 0 ut_local_indicator (valid) 0x6f3-0x6f4 (1)
     |                                               |                |  footer{}: 0x6f4-0x6f6 (2)
0x6f0|            0a                                 |    .           |    nl1: 10 (valid) 0x6f4-0x6f5 (1)
     |                                               |                |    tz_string: "" 0x6f5-0x6f5 (0)
0x6f0|               0a|                             |     .|         |    nl2: 10 (valid) 0x6f5-0x6f6 (1)
