$ fq -d tzif dv Honolulu
     |00 01 02 03 04 05 06 07 08 09 0a 0b 0c 0d 0e 0f|0123456789abcdef|.{}: Honolulu (tzif) 0x0-0x148.7 (329)
     |                                               |                |  v1header{}: 0x0-0x2b.7 (44)
0x000|54 5a 69 66                                    |TZif            |    magic: 0x545a6966 (valid) 0x0-0x3.7 (4)
0x000|            32                                 |    2           |    ver: "2" (0x32) (valid) 0x4-0x4.7 (1)
0x000|               00 00 00 00 00 00 00 00 00 00 00|     ...........|    reserved: raw bits 0x5-0x13.7 (15)
0x010|00 00 00 00                                    |....            |
0x010|            00 00 00 06                        |    ....        |    isutcnt: 6 0x14-0x17.7 (4)
0x010|                        00 00 00 06            |        ....    |    isstdcnt: 6 0x18-0x1b.7 (4)
0x010|                                    00 00 00 00|            ....|    leapcnt: 0 0x1c-0x1f.7 (4)
0x020|00 00 00 07                                    |....            |    timecnt: 7 0x20-0x23.7 (4)
0x020|            00 00 00 06                        |    ....        |    typecnt: 6 0x24-0x27.7 (4)
0x020|                        00 00 00 14            |        ....    |    charcnt: 20 0x28-0x2b.7 (4)
     |                                               |                |  v1datablock{}: 0x2c-0x92.7 (103)
     |                                               |                |    transition_times[0:7]: 0x2c-0x47.7 (28)
0x020|                                    80 00 00 00|            ....|      [0]: "1901-12-13T20:45:52Z" (-2147483648) transition_time 0x2c-0x2f.7 (4)
0x030|bb 05 43 48                                    |..CH            |      [1]: "1933-04-30T12:30:00Z" (-1157283000) transition_time 0x30-0x33.7 (4)
0x030|            bb 21 71 58                        |    .!qX        |      [2]: "1933-05-21T21:30:00Z" (-1155436200) transition_time 0x34-0x37.7 (4)
0x030|                        cb 89 3d c8            |        ..=.    |      [3]: "1942-02-09T12:30:00Z" (-880198200) transition_time 0x38-0x3b.7 (4)
0x030|                                    d2 23 f4 70|            .#.p|      [4]: "1945-08-14T23:00:00Z" (-769395600) transition_time 0x3c-0x3f.7 (4)
0x040|d2 61 49 38                                    |.aI8            |      [5]: "1945-09-30T11:30:00Z" (-765376200) transition_time 0x40-0x43.7 (4)
0x040|            d5 8d 73 48                        |    ..sH        |      [6]: "1947-06-08T12:30:00Z" (-712150200) transition_time 0x44-0x47.7 (4)
     |                                               |                |    transition_types[0:7]: 0x48-0x4e.7 (7)
0x040|                        01                     |        .       |      [0]: 1 transition_type 0x48-0x48.7 (1)
0x040|                           02                  |         .      |      [1]: 2 transition_type 0x49-0x49.7 (1)
0x040|                              01               |          .     |      [2]: 1 transition_type 0x4a-0x4a.7 (1)
0x040|                                 03            |           .    |      [3]: 3 transition_type 0x4b-0x4b.7 (1)
0x040|                                    04         |            .   |      [4]: 4 transition_type 0x4c-0x4c.7 (1)
0x040|                                       01      |             .  |      [5]: 1 transition_type 0x4d-0x4d.7 (1)
0x040|                                          05   |              . |      [6]: 5 transition_type 0x4e-0x4e.7 (1)
     |                                               |                |    local_time_type_records[0:6]: 0x4f-0x72.7 (36)
     |                                               |                |      [0]{}: local_time_type 0x4f-0x54.7 (6)
0x040|                                             ff|               .|        utoff: -37886 (valid) 0x4f-0x52.7 (4)
0x050|ff 6c 02                                       |.l.             |
0x050|         00                                    |   .            |        dst: 0 (valid) 0x53-0x53.7 (1)
0x050|            00                                 |    .           |        idx: 0 (valid) 0x54-0x54.7 (1)
     |                                               |                |      [1]{}: local_time_type 0x55-0x5a.7 (6)
0x050|               ff ff 6c 58                     |     ..lX       |        utoff: -37800 (valid) 0x55-0x58.7 (4)
0x050|                           00                  |         .      |        dst: 0 (valid) 0x59-0x59.7 (1)
0x050|                              04               |          .     |        idx: 4 (valid) 0x5a-0x5a.7 (1)
     |                                               |                |      [2]{}: local_time_type 0x5b-0x60.7 (6)
0x050|                                 ff ff 7a 68   |           ..zh |        utoff: -34200 (valid) 0x5b-0x5e.7 (4)
0x050|                                             01|               .|        dst: 1 (valid) 0x5f-0x5f.7 (1)
0x060|08                                             |.               |        idx: 8 (valid) 0x60-0x60.7 (1)
     |                                               |                |      [3]{}: local_time_type 0x61-0x66.7 (6)
0x060|   ff ff 7a 68                                 | ..zh           |        utoff: -34200 (valid) 0x61-0x64.7 (4)
0x060|               01                              |     .          |        dst: 1 (valid) 0x65-0x65.7 (1)
0x060|                  0c                           |      .         |        idx: 12 (valid) 0x66-0x66.7 (1)
     |                                               |                |      [4]{}: local_time_type 0x67-0x6c.7 (6)
0x060|                     ff ff 7a 68               |       ..zh     |        utoff: -34200 (valid) 0x67-0x6a.7 (4)
0x060|                                 01            |           .    |        dst: 1 (valid) 0x6b-0x6b.7 (1)
0x060|                                    10         |            .   |        idx: 16 (valid) 0x6c-0x6c.7 (1)
     |                                               |                |      [5]{}: local_time_type 0x6d-0x72.7 (6)
0x060|                                       ff ff 73|             ..s|        utoff: -36000 (valid) 0x6d-0x70.7 (4)
0x070|60                                             |`               |
0x070|   00                                          | .              |        dst: 0 (valid) 0x71-0x71.7 (1)
0x070|      04                                       |  .             |        idx: 4 (valid) 0x72-0x72.7 (1)
     |                                               |                |    time_zone_designations[0:5]: 0x73-0x86.7 (20)
0x070|         4c 4d 54 00                           |   LMT.         |      [0]: "LMT" time_zone_designation 0x73-0x76.7 (4)
0x070|                     48 53 54 00               |       HST.     |      [1]: "HST" time_zone_designation 0x77-0x7a.7 (4)
0x070|                                 48 44 54 00   |           HDT. |      [2]: "HDT" time_zone_designation 0x7b-0x7e.7 (4)
0x070|                                             48|               H|      [3]: "HWT" time_zone_designation 0x7f-0x82.7 (4)
0x080|57 54 00                                       |WT.             |
0x080|         48 50 54 00                           |   HPT.         |      [4]: "HPT" time_zone_designation 0x83-0x86.7 (4)
     |                                               |                |    leap_second_records[0:0]: 0x87-NA (0)
     |                                               |                |    standard_wall_indicators[0:6]: 0x87-0x8c.7 (6)
0x080|                     00                        |       .        |      [0]: 0 standard_wall_indicator (valid) 0x87-0x87.7 (1)
0x080|                        00                     |        .       |      [1]: 0 standard_wall_indicator (valid) 0x88-0x88.7 (1)
0x080|                           00                  |         .      |      [2]: 0 standard_wall_indicator (valid) 0x89-0x89.7 (1)
0x080|                              00               |          .     |      [3]: 0 standard_wall_indicator (valid) 0x8a-0x8a.7 (1)
0x080|                                 01            |           .    |      [4]: 1 standard_wall_indicator (valid) 0x8b-0x8b.7 (1)
0x080|                                    00         |            .   |      [5]: 0 standard_wall_indicator (valid) 0x8c-0x8c.7 (1)
     |                                               |                |    ut_local_indicators[0:6]: 0x8d-0x92.7 (6)
0x080|                                       00      |             .  |      [0]: 0 ut_local_indicator (valid) 0x8d-0x8d.7 (1)
0x080|                                          00   |              . |      [1]: 0 ut_local_indicator (valid) 0x8e-0x8e.7 (1)
0x080|                                             00|               .|      [2]: 0 ut_local_indicator (valid) 0x8f-0x8f.7 (1)
0x090|00                                             |.               |      [3]: 0 ut_local_indicator (valid) 0x90-0x90.7 (1)
0x090|   01                                          | .              |      [4]: 1 ut_local_indicator (valid) 0x91-0x91.7 (1)
0x090|      00                                       |  .             |      [5]: 0 ut_local_indicator (valid) 0x92-0x92.7 (1)
     |                                               |                |  v2plusheader{}: 0x93-0xbe.7 (44)
0x090|         54 5a 69 66                           |   TZif         |    magic: 0x545a6966 (valid) 0x93-0x96.7 (4)
0x090|                     32                        |       2        |    ver: "2" (0x32) (valid) 0x97-0x97.7 (1)
0x090|                        00 00 00 00 00 00 00 00|        ........|    reserved: raw bits 0x98-0xa6.7 (15)
0x0a0|00 00 00 00 00 00 00                           |.......         |
0x0a0|                     00 00 00 06               |       ....     |    isutcnt: 6 0xa7-0xaa.7 (4)
0x0a0|                                 00 00 00 06   |           .... |    isstdcnt: 6 0xab-0xae.7 (4)
0x0a0|                                             00|               .|    leapcnt: 0 0xaf-0xb2.7 (4)
0x0b0|00 00 00                                       |...             |
0x0b0|         00 00 00 07                           |   ....         |    timecnt: 7 0xb3-0xb6.7 (4)
0x0b0|                     00 00 00 06               |       ....     |    typecnt: 6 0xb7-0xba.7 (4)
0x0b0|                                 00 00 00 14   |           .... |    charcnt: 20 0xbb-0xbe.7 (4)
     |                                               |                |  v2plusdatablock{}: 0xbf-0x141.7 (131)
     |                                               |                |    transition_times[0:7]: 0xbf-0xf6.7 (56)
0x0b0|                                             ff|               .|      [0]: "1896-01-13T22:31:26Z" (-2334101314) transition_time 0xbf-0xc6.7 (8)
0x0c0|ff ff ff 74 e0 70 be                           |...t.p.         |
0x0c0|                     ff ff ff ff bb 05 43 48   |       ......CH |      [1]: "1933-04-30T12:30:00Z" (-1157283000) transition_time 0xc7-0xce.7 (8)
0x0c0|                                             ff|               .|      [2]: "1933-05-21T21:30:00Z" (-1155436200) transition_time 0xcf-0xd6.7 (8)
0x0d0|ff ff ff bb 21 71 58                           |....!qX         |
0x0d0|                     ff ff ff ff cb 89 3d c8   |       ......=. |      [3]: "1942-02-09T12:30:00Z" (-880198200) transition_time 0xd7-0xde.7 (8)
0x0d0|                                             ff|               .|      [4]: "1945-08-14T23:00:00Z" (-769395600) transition_time 0xdf-0xe6.7 (8)
0x0e0|ff ff ff d2 23 f4 70                           |....#.p         |
0x0e0|                     ff ff ff ff d2 61 49 38   |       .....aI8 |      [5]: "1945-09-30T11:30:00Z" (-765376200) transition_time 0xe7-0xee.7 (8)
0x0e0|                                             ff|               .|      [6]: "1947-06-08T12:30:00Z" (-712150200) transition_time 0xef-0xf6.7 (8)
0x0f0|ff ff ff d5 8d 73 48                           |.....sH         |
     |                                               |                |    transition_types[0:7]: 0xf7-0xfd.7 (7)
0x0f0|                     01                        |       .        |      [0]: 1 transition_type 0xf7-0xf7.7 (1)
0x0f0|                        02                     |        .       |      [1]: 2 transition_type 0xf8-0xf8.7 (1)
0x0f0|                           01                  |         .      |      [2]: 1 transition_type 0xf9-0xf9.7 (1)
0x0f0|                              03               |          .     |      [3]: 3 transition_type 0xfa-0xfa.7 (1)
0x0f0|                                 04            |           .    |      [4]: 4 transition_type 0xfb-0xfb.7 (1)
0x0f0|                                    01         |            .   |      [5]: 1 transition_type 0xfc-0xfc.7 (1)
0x0f0|                                       05      |             .  |      [6]: 5 transition_type 0xfd-0xfd.7 (1)
     |                                               |                |    local_time_type_records[0:6]: 0xfe-0x121.7 (36)
     |                                               |                |      [0]{}: local_time_type 0xfe-0x103.7 (6)
0x0f0|                                          ff ff|              ..|        utoff: -37886 (valid) 0xfe-0x101.7 (4)
0x100|6c 02                                          |l.              |
0x100|      00                                       |  .             |        dst: 0 (valid) 0x102-0x102.7 (1)
0x100|         00                                    |   .            |        idx: 0 (valid) 0x103-0x103.7 (1)
     |                                               |                |      [1]{}: local_time_type 0x104-0x109.7 (6)
0x100|            ff ff 6c 58                        |    ..lX        |        utoff: -37800 (valid) 0x104-0x107.7 (4)
0x100|                        00                     |        .       |        dst: 0 (valid) 0x108-0x108.7 (1)
0x100|                           04                  |         .      |        idx: 4 (valid) 0x109-0x109.7 (1)
     |                                               |                |      [2]{}: local_time_type 0x10a-0x10f.7 (6)
0x100|                              ff ff 7a 68      |          ..zh  |        utoff: -34200 (valid) 0x10a-0x10d.7 (4)
0x100|                                          01   |              . |        dst: 1 (valid) 0x10e-0x10e.7 (1)
0x100|                                             08|               .|        idx: 8 (valid) 0x10f-0x10f.7 (1)
     |                                               |                |      [3]{}: local_time_type 0x110-0x115.7 (6)
0x110|ff ff 7a 68                                    |..zh            |        utoff: -34200 (valid) 0x110-0x113.7 (4)
0x110|            01                                 |    .           |        dst: 1 (valid) 0x114-0x114.7 (1)
0x110|               0c                              |     .          |        idx: 12 (valid) 0x115-0x115.7 (1)
     |                                               |                |      [4]{}: local_time_type 0x116-0x11b.7 (6)
0x110|                  ff ff 7a 68                  |      ..zh      |        utoff: -34200 (valid) 0x116-0x119.7 (4)
0x110|                              01               |          .     |        dst: 1 (valid) 0x11a-0x11a.7 (1)
0x110|                                 10            |           .    |        idx: 16 (valid) 0x11b-0x11b.7 (1)
     |                                               |                |      [5]{}: local_time_type 0x11c-0x121.7 (6)
0x110|                                    ff ff 73 60|            ..s`|        utoff: -36000 (valid) 0x11c-0x11f.7 (4)
0x120|00                                             |.               |        dst: 0 (valid) 0x120-0x120.7 (1)
0x120|   04                                          | .              |        idx: 4 (valid) 0x121-0x121.7 (1)
     |                                               |                |    time_zone_designations[0:5]: 0x122-0x135.7 (20)
0x120|      4c 4d 54 00                              |  LMT.          |      [0]: "LMT" time_zone_designation 0x122-0x125.7 (4)
0x120|                  48 53 54 00                  |      HST.      |      [1]: "HST" time_zone_designation 0x126-0x129.7 (4)
0x120|                              48 44 54 00      |          HDT.  |      [2]: "HDT" time_zone_designation 0x12a-0x12d.7 (4)
0x120|                                          48 57|              HW|      [3]: "HWT" time_zone_designation 0x12e-0x131.7 (4)
0x130|54 00                                          |T.              |
0x130|      48 50 54 00                              |  HPT.          |      [4]: "HPT" time_zone_designation 0x132-0x135.7 (4)
     |                                               |                |    leap_second_records[0:0]: 0x136-NA (0)
     |                                               |                |    standard_wall_indicators[0:6]: 0x136-0x13b.7 (6)
0x130|                  00                           |      .         |      [0]: 0 standard_wall_indicator (valid) 0x136-0x136.7 (1)
0x130|                     00                        |       .        |      [1]: 0 standard_wall_indicator (valid) 0x137-0x137.7 (1)
0x130|                        00                     |        .       |      [2]: 0 standard_wall_indicator (valid) 0x138-0x138.7 (1)
0x130|                           00                  |         .      |      [3]: 0 standard_wall_indicator (valid) 0x139-0x139.7 (1)
0x130|                              01               |          .     |      [4]: 1 standard_wall_indicator (valid) 0x13a-0x13a.7 (1)
0x130|                                 00            |           .    |      [5]: 0 standard_wall_indicator (valid) 0x13b-0x13b.7 (1)
     |                                               |                |    ut_local_indicators[0:6]: 0x13c-0x141.7 (6)
0x130|                                    00         |            .   |      [0]: 0 ut_local_indicator (valid) 0x13c-0x13c.7 (1)
0x130|                                       00      |             .  |      [1]: 0 ut_local_indicator (valid) 0x13d-0x13d.7 (1)
0x130|                                          00   |              . |      [2]: 0 ut_local_indicator (valid) 0x13e-0x13e.7 (1)
0x130|                                             00|               .|      [3]: 0 ut_local_indicator (valid) 0x13f-0x13f.7 (1)
0x140|01                                             |.               |      [4]: 1 ut_local_indicator (valid) 0x140-0x140.7 (1)
0x140|   00                                          | .              |      [5]: 0 ut_local_indicator (valid) 0x141-0x141.7 (1)
     |                                               |                |  footer{}: 0x142-0x148.7 (7)
0x140|      0a                                       |  .             |    nl1: 10 (valid) 0x142-0x142.7 (1)
0x140|         48 53 54 31 30                        |   HST10        |    tz_string: "HST10" 0x143-0x147.7 (5)
0x140|                        0a|                    |        .|      |    nl2: 10 (valid) 0x148-0x148.7 (1)
