$ fq -d tzif dv Hovd
     |00 01 02 03 04 05 06 07 08 09 0a 0b 0c 0d 0e 0f|0123456789abcdef|.{}: Hovd (tzif) 0x0-0x58f.7 (1424)
     |                                               |                |  v1header{}: 0x0-0x2b.7 (44)
0x000|54 5a 69 66                                    |TZif            |    magic: 0x545a6966 (valid) 0x0-0x3.7 (4)
0x000|            32                                 |    2           |    ver: "2" (0x32) (valid) 0x4-0x4.7 (1)
0x000|               00 00 00 00 00 00 00 00 00 00 00|     ...........|    reserved: raw bits 0x5-0x13.7 (15)
0x010|00 00 00 00                                    |....            |
0x010|            00 00 00 00                        |    ....        |    isutcnt: 0 0x14-0x17.7 (4)
0x010|                        00 00 00 00            |        ....    |    isstdcnt: 0 0x18-0x1b.7 (4)
0x010|                                    00 00 00 1b|            ....|    leapcnt: 27 0x1c-0x1f.7 (4)
0x020|00 00 00 33                                    |...3            |    timecnt: 51 0x20-0x23.7 (4)
0x020|            00 00 00 04                        |    ....        |    typecnt: 4 0x24-0x27.7 (4)
0x020|                        00 00 00 10            |        ....    |    charcnt: 16 0x28-0x2b.7 (4)
     |                                               |                |  v1datablock{}: 0x2c-0x22a.7 (511)
     |                                               |                |    transition_times[0:51]: 0x2c-0xf7.7 (204)
0x020|                                    86 d3 fc 94|            ....|      [0]: "1905-07-31T17:53:24Z" (-2032927596) transition_time 0x2c-0x2f.7 (4)
0x030|0f 0b ea a6                                    |....            |      [1]: "1977-12-31T18:00:06Z" (252439206) transition_time 0x30-0x33.7 (4)
0x030|            18 e9 d6 9b                        |    ....        |      [2]: "1983-03-31T17:00:11Z" (417978011) transition_time 0x34-0x37.7 (4)
0x030|                        19 db 0b 0c            |        ....    |      [3]: "1983-09-30T16:00:12Z" (433785612) transition_time 0x38-0x3b.7 (4)
0x030|                                    1a cc 5b 9c|            ..[.|      [4]: "1984-03-31T17:00:12Z" (449600412) transition_time 0x3c-0x3f.7 (4)
0x040|1b bc 3e 8c                                    |..>.            |      [5]: "1984-09-29T16:00:12Z" (465321612) transition_time 0x40-0x43.7 (4)
0x040|            1c ac 3d 9c                        |    ..=.        |      [6]: "1985-03-30T17:00:12Z" (481050012) transition_time 0x44-0x47.7 (4)
0x040|                        1d 9c 20 8d            |        .. .    |      [7]: "1985-09-28T16:00:13Z" (496771213) transition_time 0x48-0x4b.7 (4)
0x040|                                    1e 8c 1f 9d|            ....|      [8]: "1986-03-29T17:00:13Z" (512499613) transition_time 0x4c-0x4f.7 (4)
0x050|1f 7c 02 8d                                    |.|..            |      [9]: "1986-09-27T16:00:13Z" (528220813) transition_time 0x50-0x53.7 (4)
0x050|            20 6c 01 9d                        |     l..        |      [10]: "1987-03-28T17:00:13Z" (543949213) transition_time 0x54-0x57.7 (4)
0x050|                        21 5b e4 8d            |        ![..    |      [11]: "1987-09-26T16:00:13Z" (559670413) transition_time 0x58-0x5b.7 (4)
0x050|                                    22 4b e3 9e|            "K..|      [12]: "1988-03-26T17:00:14Z" (575398814) transition_time 0x5c-0x5f.7 (4)
0x060|23 3b c6 8e                                    |#;..            |      [13]: "1988-09-24T16:00:14Z" (591120014) transition_time 0x60-0x63.7 (4)
0x060|            24 2b c5 9e                        |    $+..        |      [14]: "1989-03-25T17:00:14Z" (606848414) transition_time 0x64-0x67.7 (4)
0x060|                        25 1b a8 8e            |        %...    |      [15]: "1989-09-23T16:00:14Z" (622569614) transition_time 0x68-0x6b.7 (4)
0x060|                                    26 0b a7 9f|            &...|      [16]: "1990-03-24T17:00:15Z" (638298015) transition_time 0x6c-0x6f.7 (4)
0x070|27 04 c5 0f                                    |'...            |      [17]: "1990-09-29T16:00:15Z" (654624015) transition_time 0x70-0x73.7 (4)
0x070|            27 f4 c4 20                        |    '..         |      [18]: "1991-03-30T17:00:16Z" (670352416) transition_time 0x74-0x77.7 (4)
0x070|                        28 e4 a7 10            |        (...    |      [19]: "1991-09-28T16:00:16Z" (686073616) transition_time 0x78-0x7b.7 (4)
0x070|                                    29 d4 a6 20|            ).. |      [20]: "1992-03-28T17:00:16Z" (701802016) transition_time 0x7c-0x7f.7 (4)
0x080|2a c4 89 11                                    |*...            |      [21]: "1992-09-26T16:00:17Z" (717523217) transition_time 0x80-0x83.7 (4)
0x080|            2b b4 88 21                        |    +..!        |      [22]: "1993-03-27T17:00:17Z" (733251617) transition_time 0x84-0x87.7 (4)
0x080|                        2c a4 6b 12            |        ,.k.    |      [23]: "1993-09-25T16:00:18Z" (748972818) transition_time 0x88-0x8b.7 (4)
0x080|                                    2d 94 6a 22|            -.j"|      [24]: "1994-03-26T17:00:18Z" (764701218) transition_time 0x8c-0x8f.7 (4)
0x090|2e 84 4d 13                                    |..M.            |      [25]: "1994-09-24T16:00:19Z" (780422419) transition_time 0x90-0x93.7 (4)
0x090|            2f 74 4c 23                        |    /tL#        |      [26]: "1995-03-25T17:00:19Z" (796150819) transition_time 0x94-0x97.7 (4)
0x090|                        30 64 2f 13            |        0d/.    |      [27]: "1995-09-23T16:00:19Z" (811872019) transition_time 0x98-0x9b.7 (4)
0x090|                                    31 5d 68 a4|            1]h.|      [28]: "1996-03-30T17:00:20Z" (828205220) transition_time 0x9c-0x9f.7 (4)
0x0a0|32 4d 4b 94                                    |2MK.            |      [29]: "1996-09-28T16:00:20Z" (843926420) transition_time 0xa0-0xa3.7 (4)
0x0a0|            33 3d 4a a4                        |    3=J.        |      [30]: "1997-03-29T17:00:20Z" (859654820) transition_time 0xa4-0xa7.7 (4)
0x0a0|                        34 2d 2d 95            |        4--.    |      [31]: "1997-09-27T16:00:21Z" (875376021) transition_time 0xa8-0xab.7 (4)
0x0a0|                                    35 1d 2c a5|            5.,.|      [32]: "1998-03-28T17:00:21Z" (891104421) transition_time 0xac-0xaf.7 (4)
0x0b0|36 0d 0f 95                                    |6...            |      [33]: "1998-09-26T16:00:21Z" (906825621) transition_time 0xb0-0xb3.7 (4)
0x0b0|            3a e9 c1 c6                        |    :...        |      [34]: "2001-04-27T19:00:22Z" (988398022) transition_time 0xb4-0xb7.7 (4)
0x0b0|                        3b b4 ba b6            |        ;...    |      [35]: "2001-09-28T18:00:22Z" (1001700022) transition_time 0xb8-0xbb.7 (4)
0x0b0|                                    3c a4 b9 c6|            <...|      [36]: "2002-03-29T19:00:22Z" (1017428422) transition_time 0xbc-0xbf.7 (4)
0x0c0|3d 94 9c b6                                    |=...            |      [37]: "2002-09-27T18:00:22Z" (1033149622) transition_time 0xc0-0xc3.7 (4)
0x0c0|            3e 84 9b c6                        |    >...        |      [38]: "2003-03-28T19:00:22Z" (1048878022) transition_time 0xc4-0xc7.7 (4)
0x0c0|                        3f 74 7e b6            |        ?t~.    |      [39]: "2003-09-26T18:00:22Z" (1064599222) transition_time 0xc8-0xcb.7 (4)
0x0c0|                                    40 64 7d c6|            @d}.|      [40]: "2004-03-26T19:00:22Z" (1080327622) transition_time 0xcc-0xcf.7 (4)
0x0d0|41 54 60 b6                                    |AT`.            |      [41]: "2004-09-24T18:00:22Z" (1096048822) transition_time 0xd0-0xd3.7 (4)
0x0d0|            42 44 5f c6                        |    BD_.        |      [42]: "2005-03-25T19:00:22Z" (1111777222) transition_time 0xd4-0xd7.7 (4)
0x0d0|                        43 34 42 b6            |        C4B.    |      [43]: "2005-09-23T18:00:22Z" (1127498422) transition_time 0xd8-0xdb.7 (4)
0x0d0|                                    44 24 41 c7|            D$A.|      [44]: "2006-03-24T19:00:23Z" (1143226823) transition_time 0xdc-0xdf.7 (4)
0x0e0|45 1d 5f 37                                    |E._7            |      [45]: "2006-09-29T18:00:23Z" (1159552823) transition_time 0xe0-0xe3.7 (4)
0x0e0|            55 15 a8 c9                        |    U...        |      [46]: "2015-03-27T19:00:25Z" (1427482825) transition_time 0xe4-0xe7.7 (4)
0x0e0|                        56 05 6f 9a            |        V.o.    |      [47]: "2015-09-25T16:00:26Z" (1443196826) transition_time 0xe8-0xeb.7 (4)
0x0e0|                                    56 f5 8a ca|            V...|      [48]: "2016-03-25T19:00:26Z" (1458932426) transition_time 0xec-0xef.7 (4)
0x0f0|57 e5 51 9a                                    |W.Q.            |      [49]: "2016-09-23T16:00:26Z" (1474646426) transition_time 0xf0-0xf3.7 (4)
0x0f0|            64 9b 78 1b                        |    d.x.        |      [50]: "2023-06-28T00:00:27Z" (1687910427) transition_time 0xf4-0xf7.7 (4)
     |                                               |                |    transition_types[0:51]: 0xf8-0x12a.7 (51)
0x0f0|                        01                     |        .       |      [0]: 1 transition_type 0xf8-0xf8.7 (1)
0x0f0|                           03                  |         .      |      [1]: 3 transition_type 0xf9-0xf9.7 (1)
0x0f0|                              02               |          .     |      [2]: 2 transition_type 0xfa-0xfa.7 (1)
0x0f0|                                 03            |           .    |      [3]: 3 transition_type 0xfb-0xfb.7 (1)
0x0f0|                                    02         |            .   |      [4]: 2 transition_type 0xfc-0xfc.7 (1)
0x0f0|                                       03      |             .  |      [5]: 3 transition_type 0xfd-0xfd.7 (1)
0x0f0|                                          02   |              . |      [6]: 2 transition_type 0xfe-0xfe.7 (1)
0x0f0|                                             03|               .|      [7]: 3 transition_type 0xff-0xff.7 (1)
0x100|02                                             |.               |      [8]: 2 transition_type 0x100-0x100.7 (1)
0x100|   03                                          | .              |      [9]: 3 transition_type 0x101-0x101.7 (1)
0x100|      02                                       |  .             |      [10]: 2 transition_type 0x102-0x102.7 (1)
0x100|         03                                    |   .            |      [11]: 3 transition_type 0x103-0x103.7 (1)
0x100|            02                                 |    .           |      [12]: 2 transition_type 0x104-0x104.7 (1)
0x100|               03                              |     .          |      [13]: 3 transition_type 0x105-0x105.7 (1)
0x100|                  02                           |      .         |      [14]: 2 transition_type 0x106-0x106.7 (1)
0x100|                     03                        |       .        |      [15]: 3 transition_type 0x107-0x107.7 (1)
0x100|                        02                     |        .       |      [16]: 2 transition_type 0x108-0x108.7 (1)
0x100|                           03                  |         .      |      [17]: 3 transition_type 0x109-0x109.7 (1)
0x100|                              02               |          .     |      [18]: 2 transition_type 0x10a-0x10a.7 (1)
0x100|                                 03            |           .    |      [19]: 3 transition_type 0x10b-0x10b.7 (1)
0x100|                                    02         |            .   |      [20]: 2 transition_type 0x10c-0x10c.7 (1)
0x100|                                       03      |             .  |      [21]: 3 transition_type 0x10d-0x10d.7 (1)
0x100|                                          02   |              . |      [22]: 2 transition_type 0x10e-0x10e.7 (1)
0x100|                                             03|               .|      [23]: 3 transition_type 0x10f-0x10f.7 (1)
0x110|02                                             |.               |      [24]: 2 transition_type 0x110-0x110.7 (1)
0x110|   03                                          | .              |      [25]: 3 transition_type 0x111-0x111.7 (1)
0x110|      02                                       |  .             |      [26]: 2 transition_type 0x112-0x112.7 (1)
0x110|         03                                    |   .            |      [27]: 3 transition_type 0x113-0x113.7 (1)
0x110|            02                                 |    .           |      [28]: 2 transition_type 0x114-0x114.7 (1)
0x110|               03                              |     .          |      [29]: 3 transition_type 0x115-0x115.7 (1)
0x110|                  02                           |      .         |      [30]: 2 transition_type 0x116-0x116.7 (1)
0x110|                     03                        |       .        |      [31]: 3 transition_type 0x117-0x117.7 (1)
0x110|                        02                     |        .       |      [32]: 2 transition_type 0x118-0x118.7 (1)
0x110|                           03                  |         .      |      [33]: 3 transition_type 0x119-0x119.7 (1)
0x110|                              02               |          .     |      [34]: 2 transition_type 0x11a-0x11a.7 (1)
0x110|                                 03            |           .    |      [35]: 3 transition_type 0x11b-0x11b.7 (1)
0x110|                                    02         |            .   |      [36]: 2 transition_type 0x11c-0x11c.7 (1)
0x110|                                       03      |             .  |      [37]: 3 transition_type 0x11d-0x11d.7 (1)
0x110|                                          02   |              . |      [38]: 2 transition_type 0x11e-0x11e.7 (1)
0x110|                                             03|               .|      [39]: 3 transition_type 0x11f-0x11f.7 (1)
0x120|02                                             |.               |      [40]: 2 transition_type 0x120-0x120.7 (1)
0x120|   03                                          | .              |      [41]: 3 transition_type 0x121-0x121.7 (1)
0x120|      02                                       |  .             |      [42]: 2 transition_type 0x122-0x122.7 (1)
0x120|         03                                    |   .            |      [43]: 3 transition_type 0x123-0x123.7 (1)
0x120|            02                                 |    .           |      [44]: 2 transition_type 0x124-0x124.7 (1)
0x120|               03                              |     .          |      [45]: 3 transition_type 0x125-0x125.7 (1)
0x120|                  02                           |      .         |      [46]: 2 transition_type 0x126-0x126.7 (1)
0x120|                     03                        |       .        |      [47]: 3 transition_type 0x127-0x127.7 (1)
0x120|                        02                     |        .       |      [48]: 2 transition_type 0x128-0x128.7 (1)
0x120|                           03                  |         .      |      [49]: 3 transition_type 0x129-0x129.7 (1)
0x120|                              03               |          .     |      [50]: 3 transition_type 0x12a-0x12a.7 (1)
     |                                               |                |    local_time_type_records[0:4]: 0x12b-0x142.7 (24)
     |                                               |                |      [0]{}: local_time_type 0x12b-0x130.7 (6)
0x120|                                 00 00 55 ec   |           ..U. |        utoff: 21996 (valid) 0x12b-0x12e.7 (4)
0x120|                                             00|               .|        dst: 0 (valid) 0x12f-0x12f.7 (1)
0x130|00                                             |.               |        idx: 0 (valid) 0x130-0x130.7 (1)
     |                                               |                |      [1]{}: local_time_type 0x131-0x136.7 (6)
0x130|   00 00 54 60                                 | ..T`           |        utoff: 21600 (valid) 0x131-0x134.7 (4)
0x130|               00                              |     .          |        dst: 0 (valid) 0x135-0x135.7 (1)
0x130|                  04                           |      .         |        idx: 4 (valid) 0x136-0x136.7 (1)
     |                                               |                |      [2]{}: local_time_type 0x137-0x13c.7 (6)
0x130|                     00 00 70 80               |       ..p.     |        utoff: 28800 (valid) 0x137-0x13a.7 (4)
0x130|                                 01            |           .    |        dst: 1 (valid) 0x13b-0x13b.7 (1)
0x130|                                    08         |            .   |        idx: 8 (valid) 0x13c-0x13c.7 (1)
     |                                               |                |      [3]{}: local_time_type 0x13d-0x142.7 (6)
0x130|                                       00 00 62|             ..b|        utoff: 25200 (valid) 0x13d-0x140.7 (4)
0x140|70                                             |p               |
0x140|   00                                          | .              |        dst: 0 (valid) 0x141-0x141.7 (1)
0x140|      0c                                       |  .             |        idx: 12 (valid) 0x142-0x142.7 (1)
     |                                               |                |    time_zone_designations[0:4]: 0x143-0x152.7 (16)
0x140|         4c 4d 54 00                           |   LMT.         |      [0]: "LMT" time_zone_designation 0x143-0x146.7 (4)
0x140|                     2b 30 36 00               |       +06.     |      [1]: "+06" time_zone_designation 0x147-0x14a.7 (4)
0x140|                                 2b 30 38 00   |           +08. |      [2]: "+08" time_zone_designation 0x14b-0x14e.7 (4)
0x140|                                             2b|               +|      [3]: "+07" time_zone_designation 0x14f-0x152.7 (4)
0x150|30 37 00                                       |07.             |
     |                                               |                |    leap_second_records[0:27]: 0x153-0x22a.7 (216)
     |                                               |                |      [0]{}: leap_second_record 0x153-0x15a.7 (8)
0x150|         04 b2 58 00                           |   ..X.         |        occur: "1972-07-01T00:00:00Z" (78796800) 0x153-0x156.7 (4)
0x150|                     00 00 00 01               |       ....     |        corr: 1 0x157-0x15a.7 (4)
     |                                               |                |      [1]{}: leap_second_record 0x15b-0x162.7 (8)
0x150|                                 05 a4 ec 01   |           .... |        occur: "1973-01-01T00:00:01Z" (94694401) 0x15b-0x15e.7 (4)
0x150|                                             00|               .|        corr: 2 0x15f-0x162.7 (4)
0x160|00 00 02                                       |...             |
     |                                               |                |      [2]{}: leap_second_record 0x163-0x16a.7 (8)
0x160|         07 86 1f 82                           |   ....         |        occur: "1974-01-01T00:00:02Z" (126230402) 0x163-0x166.7 (4)
0x160|                     00 00 00 03               |       ....     |        corr: 3 0x167-0x16a.7 (4)
     |                                               |                |      [3]{}: leap_second_record 0x16b-0x172.7 (8)
0x160|                                 09 67 53 03   |           .gS. |        occur: "1975-01-01T00:00:03Z" (157766403) 0x16b-0x16e.7 (4)
0x160|                                             00|               .|        corr: 4 0x16f-0x172.7 (4)
0x170|00 00 04                                       |...             |
     |                                               |                |      [4]{}: leap_second_record 0x173-0x17a.7 (8)
0x170|         0b 48 86 84                           |   .H..         |        occur: "1976-01-01T00:00:04Z" (189302404) 0x173-0x176.7 (4)
0x170|                     00 00 00 05               |       ....     |        corr: 5 0x177-0x17a.7 (4)
     |                                               |                |      [5]{}: leap_second_record 0x17b-0x182.7 (8)
0x170|                                 0d 2b 0b 85   |           .+.. |        occur: "1977-01-01T00:00:05Z" (220924805) 0x17b-0x17e.7 (4)
0x170|                                             00|               .|        corr: 6 0x17f-0x182.7 (4)
0x180|00 00 06                                       |...             |
     |                                               |                |      [6]{}: leap_second_record 0x183-0x18a.7 (8)
0x180|         0f 0c 3f 06                           |   ..?.         |        occur: "1978-01-01T00:00:06Z" (252460806) 0x183-0x186.7 (4)
0x180|                     00 00 00 07               |       ....     |        corr: 7 0x187-0x18a.7 (4)
     |                                               |                |      [7]{}: leap_second_record 0x18b-0x192.7 (8)
0x180|                                 10 ed 72 87   |           ..r. |        occur: "1979-01-01T00:00:07Z" (283996807) 0x18b-0x18e.7 (4)
0x180|                                             00|               .|        corr: 8 0x18f-0x192.7 (4)
0x190|00 00 08                                       |...             |
     |                                               |                |      [8]{}: leap_second_record 0x193-0x19a.7 (8)
0x190|         12 ce a6 08                           |   ....         |        occur: "1980-01-01T00:00:08Z" (315532808) 0x193-0x196.7 (4)
0x190|                     00 00 00 09               |       ....     |        corr: 9 0x197-0x19a.7 (4)
     |                                               |                |      [9]{}: leap_second_record 0x19b-0x1a2.7 (8)
0x190|                                 15 9f ca 89   |           .... |        occur: "1981-07-01T00:00:09Z" (362793609) 0x19b-0x19e.7 (4)
0x190|                                             00|               .|        corr: 10 0x19f-0x1a2.7 (4)
0x1a0|00 00 0a                                       |...             |
     |                                               |                |      [10]{}: leap_second_record 0x1a3-0x1aa.7 (8)
0x1a0|         17 80 fe 0a                           |   ....         |        occur: "1982-07-01T00:00:10Z" (394329610) 0x1a3-0x1a6.7 (4)
0x1a0|                     00 00 00 0b               |       ....     |        corr: 11 0x1a7-0x1aa.7 (4)
     |                                               |                |      [11]{}: leap_second_record 0x1ab-0x1b2.7 (8)
0x1a0|                                 19 62 31 8b   |           .b1. |        occur: "1983-07-01T00:00:11Z" (425865611) 0x1ab-0x1ae.7 (4)
0x1a0|                                             00|               .|        corr: 12 0x1af-0x1b2.7 (4)
0x1b0|00 00 0c                                       |...             |
     |                                               |                |      [12]{}: leap_second_record 0x1b3-0x1ba.7 (8)
0x1b0|         1d 25 ea 0c                           |   .%..         |        occur: "1985-07-01T00:00:12Z" (489024012) 0x1b3-0x1b6.7 (4)
0x1b0|                     00 00 00 0d               |       ....     |        corr: 13 0x1b7-0x1ba.7 (4)
     |                                               |                |      [13]{}: leap_second_record 0x1bb-0x1c2.7 (8)
0x1b0|                                 21 da e5 0d   |           !... |        occur: "1988-01-01T00:00:13Z" (567993613) 0x1bb-0x1be.7 (4)
0x1b0|                                             00|               .|        corr: 14 0x1bf-0x1c2.7 (4)
0x1c0|00 00 0e                                       |...             |
     |                                               |                |      [14]{}: leap_second_record 0x1c3-0x1ca.7 (8)
0x1c0|         25 9e 9d 8e                           |   %...         |        occur: "1990-01-01T00:00:14Z" (631152014) 0x1c3-0x1c6.7 (4)
0x1c0|                     00 00 00 0f               |       ....     |        corr: 15 0x1c7-0x1ca.7 (4)
     |                                               |                |      [15]{}: leap_second_record 0x1cb-0x1d2.7 (8)
0x1c0|                                 27 7f d1 0f   |           '... |        occur: "1991-01-01T00:00:15Z" (662688015) 0x1cb-0x1ce.7 (4)
0x1c0|                                             00|               .|        corr: 16 0x1cf-0x1d2.7 (4)
0x1d0|00 00 10                                       |...             |
     |                                               |                |      [16]{}: leap_second_record 0x1d3-0x1da.7 (8)
0x1d0|         2a 50 f5 90                           |   *P..         |        occur: "1992-07-01T00:00:16Z" (709948816) 0x1d3-0x1d6.7 (4)
0x1d0|                     00 00 00 11               |       ....     |        corr: 17 0x1d7-0x1da.7 (4)
     |                                               |                |      [17]{}: leap_second_record 0x1db-0x1e2.7 (8)
0x1d0|                                 2c 32 29 11   |           ,2). |        occur: "1993-07-01T00:00:17Z" (741484817) 0x1db-0x1de.7 (4)
0x1d0|                                             00|               .|        corr: 18 0x1df-0x1e2.7 (4)
0x1e0|00 00 12                                       |...             |
     |                                               |                |      [18]{}: leap_second_record 0x1e3-0x1ea.7 (8)
0x1e0|         2e 13 5c 92                           |   ..\.         |        occur: "1994-07-01T00:00:18Z" (773020818) 0x1e3-0x1e6.7 (4)
0x1e0|                     00 00 00 13               |       ....     |        corr: 19 0x1e7-0x1ea.7 (4)
     |                                               |                |      [19]{}: leap_second_record 0x1eb-0x1f2.7 (8)
0x1e0|                                 30 e7 24 13   |           0.$. |        occur: "1996-01-01T00:00:19Z" (820454419) 0x1eb-0x1ee.7 (4)
0x1e0|                                             00|               .|        corr: 20 0x1ef-0x1f2.7 (4)
0x1f0|00 00 14                                       |...             |
     |                                               |                |      [20]{}: leap_second_record 0x1f3-0x1fa.7 (8)
0x1f0|         33 b8 48 94                           |   3.H.         |        occur: "1997-07-01T00:00:20Z" (867715220) 0x1f3-0x1f6.7 (4)
0x1f0|                     00 00 00 15               |       ....     |        corr: 21 0x1f7-0x1fa.7 (4)
     |                                               |                |      [21]{}: leap_second_record 0x1fb-0x202.7 (8)
0x1f0|                                 36 8c 10 15   |           6... |        occur: "1999-01-01T00:00:21Z" (915148821) 0x1fb-0x1fe.7 (4)
0x1f0|                                             00|               .|        corr: 22 0x1ff-0x202.7 (4)
0x200|00 00 16                                       |...             |
     |                                               |                |      [22]{}: leap_second_record 0x203-0x20a.7 (8)
0x200|         43 b7 1b 96                           |   C...         |        occur: "2006-01-01T00:00:22Z" (1136073622) 0x203-0x206.7 (4)
0x200|                     00 00 00 17               |       ....     |        corr: 23 0x207-0x20a.7 (4)
     |                                               |                |      [23]{}: leap_second_record 0x20b-0x212.7 (8)
0x200|                                 49 5c 07 97   |           I\.. |        occur: "2009-01-01T00:00:23Z" (1230768023) 0x20b-0x20e.7 (4)
0x200|                                             00|               .|        corr: 24 0x20f-0x212.7 (4)
0x210|00 00 18                                       |...             |
     |                                               |                |      [24]{}: leap_second_record 0x213-0x21a.7 (8)
0x210|         4f ef 93 18                           |   O...         |        occur: "2012-07-01T00:00:24Z" (1341100824) 0x213-0x216.7 (4)
0x210|                     00 00 00 19               |       ....     |        corr: 25 0x217-0x21a.7 (4)
     |                                               |                |      [25]{}: leap_second_record 0x21b-0x222.7 (8)
0x210|                                 55 93 2d 99   |           U.-. |        occur: "2015-07-01T00:00:25Z" (1435708825) 0x21b-0x21e.7 (4)
0x210|                                             00|               .|        corr: 26 0x21f-0x222.7 (4)
0x220|00 00 1a                                       |...             |
     |                                               |                |      [26]{}: leap_second_record 0x223-0x22a.7 (8)
0x220|         58 68 46 9a                           |   XhF.         |        occur: "2017-01-01T00:00:26Z" (1483228826) 0x223-0x226.7 (4)
0x220|                     00 00 00 1b               |       ....     |        corr: 27 0x227-0x22a.7 (4)
     |                                               |                |    standard_wall_indicators[0:0]: 0x22b-NA (0)
     |                                               |                |    ut_local_indicators[0:0]: 0x22b-NA (0)
     |                                               |                |  v2plusheader{}: 0x22b-0x256.7 (44)
0x220|                                 54 5a 69 66   |           TZif |    magic: 0x545a6966 (valid) 0x22b-0x22e.7 (4)
0x220|                                             32|               2|    ver: "2" (0x32) (valid) 0x22f-0x22f.7 (1)
0x230|00 00 00 00 00 00 00 00 00 00 00 00 00 00 00   |............... |    reserved: raw bits 0x230-0x23e.7 (15)
0x230|                                             00|               .|    isutcnt: 0 0x23f-0x242.7 (4)
0x240|00 00 00                                       |...             |
0x240|         00 00 00 00                           |   ....         |    isstdcnt: 0 0x243-0x246.7 (4)
0x240|                     00 00 00 1b               |       ....     |    leapcnt: 27 0x247-0x24a.7 (4)
0x240|                                 00 00 00 33   |           ...3 |    timecnt: 51 0x24b-0x24e.7 (4)
0x240|                                             00|               .|    typecnt: 4 0x24f-0x252.7 (4)
0x250|00 00 04                                       |...             |
0x250|         00 00 00 10                           |   ....         |    charcnt: 16 0x253-0x256.7 (4)
     |                                               |                |  v2plusdatablock{}: 0x257-0x58d.7 (823)
     |                                               |                |    transition_times[0:51]: 0x257-0x3ee.7 (408)
0x250|                     ff ff ff ff 86 d3 fc 94   |       ........ |      [0]: "1905-07-31T17:53:24Z" (-2032927596) transition_time 0x257-0x25e.7 (8)
0x250|                                             00|               .|      [1]: "1977-12-31T18:00:06Z" (252439206) transition_time 0x25f-0x266.7 (8)
0x260|00 00 00 0f 0b ea a6                           |.......         |
0x260|                     00 00 00 00 18 e9 d6 9b   |       ........ |      [2]: "1983-03-31T17:00:11Z" (417978011) transition_time 0x267-0x26e.7 (8)
0x260|                                             00|               .|      [3]: "1983-09-30T16:00:12Z" (433785612) transition_time 0x26f-0x276.7 (8)
0x270|00 00 00 19 db 0b 0c                           |.......         |
0x270|                     00 00 00 00 1a cc 5b 9c   |       ......[. |      [4]: "1984-03-31T17:00:12Z" (449600412) transition_time 0x277-0x27e.7 (8)
0x270|                                             00|               .|      [5]: "1984-09-29T16:00:12Z" (465321612) transition_time 0x27f-0x286.7 (8)
0x280|00 00 00 1b bc 3e 8c                           |.....>.         |
0x280|                     00 00 00 00 1c ac 3d 9c   |       ......=. |      [6]: "1985-03-30T17:00:12Z" (481050012) transition_time 0x287-0x28e.7 (8)
0x280|                                             00|               .|      [7]: "1985-09-28T16:00:13Z" (496771213) transition_time 0x28f-0x296.7 (8)
0x290|00 00 00 1d 9c 20 8d                           |..... .         |
0x290|                     00 00 00 00 1e 8c 1f 9d   |       ........ |      [8]: "1986-03-29T17:00:13Z" (512499613) transition_time 0x297-0x29e.7 (8)
0x290|                                             00|               .|      [9]: "1986-09-27T16:00:13Z" (528220813) transition_time 0x29f-0x2a6.7 (8)
0x2a0|00 00 00 1f 7c 02 8d                           |....|..         |
0x2a0|                     00 00 00 00 20 6c 01 9d   |       .... l.. |      [10]: "1987-03-28T17:00:13Z" (543949213) transition_time 0x2a7-0x2ae.7 (8)
0x2a0|                                             00|               .|      [11]: "1987-09-26T16:00:13Z" (559670413) transition_time 0x2af-0x2b6.7 (8)
0x2b0|00 00 00 21 5b e4 8d                           |...![..         |
0x2b0|                     00 00 00 00 22 4b e3 9e   |       ...."K.. |      [12]: "1988-03-26T17:00:14Z" (575398814) transition_time 0x2b7-0x2be.7 (8)
0x2b0|                                             00|               .|      [13]: "1988-09-24T16:00:14Z" (591120014) transition_time 0x2bf-0x2c6.7 (8)
0x2c0|00 00 00 23 3b c6 8e                           |...#;..         |
0x2c0|                     00 00 00 00 24 2b c5 9e   |       ....$+.. |      [14]: "1989-03-25T17:00:14Z" (606848414) transition_time 0x2c7-0x2ce.7 (8)
0x2c0|                                             00|               .|      [15]: "1989-09-23T16:00:14Z" (622569614) transition_time 0x2cf-0x2d6.7 (8)
0x2d0|00 00 00 25 1b a8 8e                           |...%...         |
0x2d0|                     00 00 00 00 26 0b a7 9f   |       ....&... |      [16]: "1990-03-24T17:00:15Z" (638298015) transition_time 0x2d7-0x2de.7 (8)
0x2d0|                                             00|               .|      [17]: "1990-09-29T16:00:15Z" (654624015) transition_time 0x2df-0x2e6.7 (8)
0x2e0|00 00 00 27 04 c5 0f                           |...'...         |
0x2e0|                     00 00 00 00 27 f4 c4 20   |       ....'..  |      [18]: "1991-03-30T17:00:16Z" (670352416) transition_time 0x2e7-0x2ee.7 (8)
0x2e0|                                             00|               .|      [19]: "1991-09-28T16:00:16Z" (686073616) transition_time 0x2ef-0x2f6.7 (8)
0x2f0|00 00 00 28 e4 a7 10                           |...(...         |
0x2f0|                     00 00 00 00 29 d4 a6 20   |       ....)..  |      [20]: "1992-03-28T17:00:16Z" (701802016) transition_time 0x2f7-0x2fe.7 (8)
0x2f0|                                             00|               .|      [21]: "1992-09-26T16:00:17Z" (717523217) transition_time 0x2ff-0x306.7 (8)
0x300|00 00 00 2a c4 89 11                           |...*...         |
0x300|                     00 00 00 00 2b b4 88 21   |       ....+..! |      [22]: "1993-03-27T17:00:17Z" (733251617) transition_time 0x307-0x30e.7 (8)
0x300|                                             00|               .|      [23]: "1993-09-25T16:00:18Z" (748972818) transition_time 0x30f-0x316.7 (8)
0x310|00 00 00 2c a4 6b 12                           |...,.k.         |
0x310|                     00 00 00 00 2d 94 6a 22   |       ....-.j" |      [24]: "1994-03-26T17:00:18Z" (764701218) transition_time 0x317-0x31e.7 (8)
0x310|                                             00|               .|      [25]: "1994-09-24T16:00:19Z" (780422419) transition_time 0x31f-0x326.7 (8)
0x320|00 00 00 2e 84 4d 13                           |.....M.         |
0x320|                     00 00 00 00 2f 74 4c 23   |       ..../tL# |      [26]: "1995-03-25T17:00:19Z" (796150819) transition_time 0x327-0x32e.7 (8)
0x320|                                             00|               .|      [27]: "1995-09-23T16:00:19Z" (811872019) transition_time 0x32f-0x336.7 (8)
0x330|00 00 00 30 64 2f 13                           |...0d/.         |
0x330|                     00 00 00 00 31 5d 68 a4   |       ....1]h. |      [28]: "1996-03-30T17:00:20Z" (828205220) transition_time 0x337-0x33e.7 (8)
0x330|                                             00|               .|      [29]: "1996-09-28T16:00:20Z" (843926420) transition_time 0x33f-0x346.7 (8)
0x340|00 00 00 32 4d 4b 94                           |...2MK.         |
0x340|                     00 00 00 00 33 3d 4a a4   |       ....3=J. |      [30]: "1997-03-29T17:00:20Z" (859654820) transition_time 0x347-0x34e.7 (8)
0x340|                                             00|               .|      [31]: "1997-09-27T16:00:21Z" (875376021) transition_time 0x34f-0x356.7 (8)
0x350|00 00 00 34 2d 2d 95                           |...4--.         |
0x350|                     00 00 00 00 35 1d 2c a5   |       ....5.,. |      [32]: "1998-03-28T17:00:21Z" (891104421) transition_time 0x357-0x35e.7 (8)
0x350|                                             00|               .|      [33]: "1998-09-26T16:00:21Z" (906825621) transition_time 0x35f-0x366.7 (8)
0x360|00 00 00 36 0d 0f 95                           |...6...         |
0x360|                     00 00 00 00 3a e9 c1 c6   |       ....:... |      [34]: "2001-04-27T19:00:22Z" (988398022) transition_time 0x367-0x36e.7 (8)
0x360|                                             00|               .|      [35]: "2001-09-28T18:00:22Z" (1001700022) transition_time 0x36f-0x376.7 (8)
0x370|00 00 00 3b b4 ba b6                           |...;...         |
0x370|                     00 00 00 00 3c a4 b9 c6   |       ....<... |      [36]: "2002-03-29T19:00:22Z" (1017428422) transition_time 0x377-0x37e.7 (8)
0x370|                                             00|               .|      [37]: "2002-09-27T18:00:22Z" (1033149622) transition_time 0x37f-0x386.7 (8)
0x380|00 00 00 3d 94 9c b6                           |...=...         |
0x380|                     00 00 00 00 3e 84 9b c6   |       ....>... |      [38]: "2003-03-28T19:00:22Z" (1048878022) transition_time 0x387-0x38e.7 (8)
0x380|                                             00|               .|      [39]: "2003-09-26T18:00:22Z" (1064599222) transition_time 0x38f-0x396.7 (8)
0x390|00 00 00 3f 74 7e b6                           |...?t~.         |
0x390|                     00 00 00 00 40 64 7d c6   |       ....@d}. |      [40]: "2004-03-26T19:00:22Z" (1080327622) transition_time 0x397-0x39e.7 (8)
0x390|                                             00|               .|      [41]: "2004-09-24T18:00:22Z" (1096048822) transition_time 0x39f-0x3a6.7 (8)
0x3a0|00 00 00 41 54 60 b6                           |...AT`.         |
0x3a0|                     00 00 00 00 42 44 5f c6   |       ....BD_. |      [42]: "2005-03-25T19:00:22Z" (1111777222) transition_time 0x3a7-0x3ae.7 (8)
0x3a0|                                             00|               .|      [43]: "2005-09-23T18:00:22Z" (1127498422) transition_time 0x3af-0x3b6.7 (8)
0x3b0|00 00 00 43 34 42 b6                           |...C4B.         |
0x3b0|                     00 00 00 00 44 24 41 c7   |       ....D$A. |      [44]: "2006-03-24T19:00:23Z" (1143226823) transition_time 0x3b7-0x3be.7 (8)
0x3b0|                                             00|               .|      [45]: "2006-09-29T18:00:23Z" (1159552823) transition_time 0x3bf-0x3c6.7 (8)
0x3c0|00 00 00 45 1d 5f 37                           |...E._7         |
0x3c0|                     00 00 00 00 55 15 a8 c9   |       ....U... |      [46]: "2015-03-27T19:00:25Z" (1427482825) transition_time 0x3c7-0x3ce.7 (8)
0x3c0|                                             00|               .|      [47]: "2015-09-25T16:00:26Z" (1443196826) transition_time 0x3cf-0x3d6.7 (8)
0x3d0|00 00 00 56 05 6f 9a                           |...V.o.         |
0x3d0|                     00 00 00 00 56 f5 8a ca   |       ....V... |      [48]: "2016-03-25T19:00:26Z" (1458932426) transition_time 0x3d7-0x3de.7 (8)
0x3d0|                                             00|               .|      [49]: "2016-09-23T16:00:26Z" (1474646426) transition_time 0x3df-0x3e6.7 (8)
0x3e0|00 00 00 57 e5 51 9a                           |...W.Q.         |
0x3e0|                     00 00 00 00 64 9b 78 1b   |       ....d.x. |      [50]: "2023-06-28T00:00:27Z" (1687910427) transition_time 0x3e7-0x3ee.7 (8)
     |                                               |                |    transition_types[0:51]: 0x3ef-0x421.7 (51)
0x3e0|                                             01|               .|      [0]: 1 transition_type 0x3ef-0x3ef.7 (1)
0x3f0|03                                             |.               |      [1]: 3 transition_type 0x3f0-0x3f0.7 (1)
0x3f0|   02                                          | .              |      [2]: 2 transition_type 0x3f1-0x3f1.7 (1)
0x3f0|      03                                       |  .             |      [3]: 3 transition_type 0x3f2-0x3f2.7 (1)
0x3f0|         02                                    |   .            |      [4]: 2 transition_type 0x3f3-0x3f3.7 (1)
0x3f0|            03                                 |    .           |      [5]: 3 transition_type 0x3f4-0x3f4.7 (1)
0x3f0|               02                              |     .          |      [6]: 2 transition_type 0x3f5-0x3f5.7 (1)
0x3f0|                  03                           |      .         |      [7]: 3 transition_type 0x3f6-0x3f6.7 (1)
0x3f0|                     02                        |       .        |      [8]: 2 transition_type 0x3f7-0x3f7.7 (1)
0x3f0|                        03                     |        .       |      [9]: 3 transition_type 0x3f8-0x3f8.7 (1)
0x3f0|                           02                  |         .      |      [10]: 2 transition_type 0x3f9-0x3f9.7 (1)
0x3f0|                              03               |          .     |      [11]: 3 transition_type 0x3fa-0x3fa.7 (1)
0x3f0|                                 02            |           .    |      [12]: 2 transition_type 0x3fb-0x3fb.7 (1)
0x3f0|                                    03         |            .   |      [13]: 3 transition_type 0x3fc-0x3fc.7 (1)
0x3f0|                                       02      |             .  |      [14]: 2 transition_type 0x3fd-0x3fd.7 (1)
0x3f0|                                          03   |              . |      [15]: 3 transition_type 0x3fe-0x3fe.7 (1)
0x3f0|                                             02|               .|      [16]: 2 transition_type 0x3ff-0x3ff.7 (1)
0x400|03                                             |.               |      [17]: 3 transition_type 0x400-0x400.7 (1)
0x400|   02                                          | .              |      [18]: 2 transition_type 0x401-0x401.7 (1)
0x400|      03                                       |  .             |      [19]: 3 transition_type 0x402-0x402.7 (1)
0x400|         02                                    |   .            |      [20]: 2 transition_type 0x403-0x403.7 (1)
0x400|            03                                 |    .           |      [21]: 3 transition_type 0x404-0x404.7 (1)
0x400|               02                              |     .          |      [22]: 2 transition_type 0x405-0x405.7 (1)
0x400|                  03                           |      .         |      [23]: 3 transition_type 0x406-0x406.7 (1)
0x400|                     02                        |       .        |      [24]: 2 transition_type 0x407-0x407.7 (1)
0x400|                        03                     |        .       |      [25]: 3 transition_type 0x408-0x408.7 (1)
0x400|                           02                  |         .      |      [26]: 2 transition_type 0x409-0x409.7 (1)
0x400|                              03               |          .     |      [27]: 3 transition_type 0x40a-0x40a.7 (1)
0x400|                                 02            |           .    |      [28]: 2 transition_type 0x40b-0x40b.7 (1)
0x400|                                    03         |            .   |      [29]: 3 transition_type 0x40c-0x40c.7 (1)
0x400|                                       02      |             .  |      [30]: 2 transition_type 0x40d-0x40d.7 (1)
0x400|                                          03   |              . |      [31]: 3 transition_type 0x40e-0x40e.7 (1)
0x400|                                             02|               .|      [32]: 2 transition_type 0x40f-0x40f.7 (1)
0x410|03                                             |.               |      [33]: 3 transition_type 0x410-0x410.7 (1)
0x410|   02                                          | .              |      [34]: 2 transition_type 0x411-0x411.7 (1)
0x410|      03                                       |  .             |      [35]: 3 transition_type 0x412-0x412.7 (1)
0x410|         02                                    |   .            |      [36]: 2 transition_type 0x413-0x413.7 (1)
0x410|            03                                 |    .           |      [37]: 3 transition_type 0x414-0x414.7 (1)
0x410|               02                              |     .          |      [38]: 2 transition_type 0x415-0x415.7 (1)
0x410|                  03                           |      .         |      [39]: 3 transition_type 0x416-0x416.7 (1)
0x410|                     02                        |       .        |      [40]: 2 transition_type 0x417-0x417.7 (1)
0x410|                        03                     |        .       |      [41]: 3 transition_type 0x418-0x418.7 (1)
0x410|                           02                  |         .      |      [42]: 2 transition_type 0x419-0x419.7 (1)
0x410|                              03               |          .     |      [43]: 3 transition_type 0x41a-0x41a.7 (1)
0x410|                                 02            |           .    |      [44]: 2 transition_type 0x41b-0x41b.7 (1)
0x410|                                    03         |            .   |      [45]: 3 transition_type 0x41c-0x41c.7 (1)
0x410|                                       02      |             .  |      [46]: 2 transition_type 0x41d-0x41d.7 (1)
0x410|                                          03   |              . |      [47]: 3 transition_type 0x41e-0x41e.7 (1)
0x410|                                             02|               .|      [48]: 2 transition_type 0x41f-0x41f.7 (1)
0x420|03                                             |.               |      [49]: 3 transition_type 0x420-0x420.7 (1)
0x420|   03                                          | .              |      [50]: 3 transition_type 0x421-0x421.7 (1)
     |                                               |                |    local_time_type_records[0:4]: 0x422-0x439.7 (24)
     |                                               |                |      [0]{}: local_time_type 0x422-0x427.7 (6)
0x420|      00 00 55 ec                              |  ..U.          |        utoff: 21996 (valid) 0x422-0x425.7 (4)
0x420|                  00                           |      .         |        dst: 0 (valid) 0x426-0x426.7 (1)
0x420|                     00                        |       .        |        idx: 0 (valid) 0x427-0x427.7 (1)
     |                                               |                |      [1]{}: local_time_type 0x428-0x42d.7 (6)
0x420|                        00 00 54 60            |        ..T`    |        utoff: 21600 (valid) 0x428-0x42b.7 (4)
0x420|                                    00         |            .   |        dst: 0 (valid) 0x42c-0x42c.7 (1)
0x420|                                       04      |             .  |        idx: 4 (valid) 0x42d-0x42d.7 (1)
     |                                               |                |      [2]{}: local_time_type 0x42e-0x433.7 (6)
0x420|                                          00 00|              ..|        utoff: 28800 (valid) 0x42e-0x431.7 (4)
0x430|70 80                                          |p.              |
0x430|      01                                       |  .             |        dst: 1 (valid) 0x432-0x432.7 (1)
0x430|         08                                    |   .            |        idx: 8 (valid) 0x433-0x433.7 (1)
     |                                               |                |      [3]{}: local_time_type 0x434-0x439.7 (6)
0x430|            00 00 62 70                        |    ..bp        |        utoff: 25200 (valid) 0x434-0x437.7 (4)
0x430|                        00                     |        .       |        dst: 0 (valid) 0x438-0x438.7 (1)
0x430|                           0c                  |         .      |        idx: 12 (valid) 0x439-0x439.7 (1)
     |                                               |                |    time_zone_designations[0:4]: 0x43a-0x449.7 (16)
0x430|                              4c 4d 54 00      |          LMT.  |      [0]: "LMT" time_zone_designation 0x43a-0x43d.7 (4)
0x430|                                          2b 30|              +0|      [1]: "+06" time_zone_designation 0x43e-0x441.7 (4)
0x440|36 00                                          |6.              |
0x440|      2b 30 38 00                              |  +08.          |      [2]: "+08" time_zone_designation 0x442-0x445.7 (4)
0x440|                  2b 30 37 00                  |      +07.      |      [3]: "+07" time_zone_designation 0x446-0x449.7 (4)
     |                                               |                |    leap_second_records[0:27]: 0x44a-0x58d.7 (324)
     |                                               |                |      [0]{}: leap_second_record 0x44a-0x455.7 (12)
0x440|                              00 00 00 00 04 b2|          ......|        occur: "1972-07-01T00:00:00Z" (78796800) 0x44a-0x451.7 (8)
0x450|58 00                                          |X.              |
0x450|      00 00 00 01                              |  ....          |        corr: 1 0x452-0x455.7 (4)
     |                                               |                |      [1]{}: leap_second_record 0x456-0x461.7 (12)
0x450|                  00 00 00 00 05 a4 ec 01      |      ........  |        occur: "1973-01-01T00:00:01Z" (94694401) 0x456-0x45d.7 (8)
0x450|                                          00 00|              ..|        corr: 2 0x45e-0x461.7 (4)
0x460|00 02                                          |..              |
     |                                               |                |      [2]{}: leap_second_record 0x462-0x46d.7 (12)
0x460|      00 00 00 00 07 86 1f 82                  |  ........      |        occur: "1974-01-01T00:00:02Z" (126230402) 0x462-0x469.7 (8)
0x460|                              00 00 00 03      |          ....  |        corr: 3 0x46a-0x46d.7 (4)
     |                                               |                |      [3]{}: leap_second_record 0x46e-0x479.7 (12)
0x460|                                          00 00|              ..|        occur: "1975-01-01T00:00:03Z" (157766403) 0x46e-0x475.7 (8)
0x470|00 00 09 67 53 03                              |...gS.          |
0x470|                  00 00 00 04                  |      ....      |        corr: 4 0x476-0x479.7 (4)
     |                                               |                |      [4]{}: leap_second_record 0x47a-0x485.7 (12)
0x470|                              00 00 00 00 0b 48|          .....H|        occur: "1976-01-01T00:00:04Z" (189302404) 0x47a-0x481.7 (8)
0x480|86 84                                          |..              |
0x480|      00 00 00 05                              |  ....          |        corr: 5 0x482-0x485.7 (4)
     |                                               |                |      [5]{}: leap_second_record 0x486-0x491.7 (12)
0x480|                  00 00 00 00 0d 2b 0b 85      |      .....+..  |        occur: "1977-01-01T00:00:05Z" (220924805) 0x486-0x48d.7 (8)
0x480|                                          00 00|              ..|        corr: 6 0x48e-0x491.7 (4)
0x490|00 06                                          |..              |
     |                                               |                |      [6]{}: leap_second_record 0x492-0x49d.7 (12)
0x490|      00 00 00 00 0f 0c 3f 06                  |  ......?.      |        occur: "1978-01-01T00:00:06Z" (252460806) 0x492-0x499.7 (8)
0x490|                              00 00 00 07      |          ....  |        corr: 7 0x49a-0x49d.7 (4)
     |                                               |                |      [7]{}: leap_second_record 0x49e-0x4a9.7 (12)
0x490|                                          00 00|              ..|        occur: "1979-01-01T00:00:07Z" (283996807) 0x49e-0x4a5.7 (8)
0x4a0|00 00 10 ed 72 87                              |....r.          |
0x4a0|                  00 00 00 08                  |      ....      |        corr: 8 0x4a6-0x4a9.7 (4)
     |                                               |                |      [8]{}: leap_second_record 0x4aa-0x4b5.7 (12)
0x4a0|                              00 00 00 00 12 ce|          ......|        occur: "1980-01-01T00:00:08Z" (315532808) 0x4aa-0x4b1.7 (8)
0x4b0|a6 08                                          |..              |
0x4b0|      00 00 00 09                              |  ....          |        corr: 9 0x4b2-0x4b5.7 (4)
     |                                               |                |      [9]{}: leap_second_record 0x4b6-0x4c1.7 (12)
0x4b0|                  00 00 00 00 15 9f ca 89      |      ........  |        occur: "1981-07-01T00:00:09Z" (362793609) 0x4b6-0x4bd.7 (8)
0x4b0|                                          00 00|              ..|        corr: 10 0x4be-0x4c1.7 (4)
0x4c0|00 0a                                          |..              |
     |                                               |                |      [10]{}: leap_second_record 0x4c2-0x4cd.7 (12)
0x4c0|      00 00 00 00 17 80 fe 0a                  |  ........      |        occur: "1982-07-01T00:00:10Z" (394329610) 0x4c2-0x4c9.7 (8)
0x4c0|                              00 00 00 0b      |          ....  |        corr: 11 0x4ca-0x4cd.7 (4)
     |                                               |                |      [11]{}: leap_second_record 0x4ce-0x4d9.7 (12)
0x4c0|                                          00 00|              ..|        occur: "1983-07-01T00:00:11Z" (425865611) 0x4ce-0x4d5.7 (8)
0x4d0|00 00 19 62 31 8b                              |...b1.          |
0x4d0|                  00 00 00 0c                  |      ....      |        corr: 12 0x4d6-0x4d9.7 (4)
     |                                               |                |      [12]{}: leap_second_record 0x4da-0x4e5.7 (12)
0x4d0|                              00 00 00 00 1d 25|          .....%|        occur: "1985-07-01T00:00:12Z" (489024012) 0x4da-0x4e1.7 (8)
0x4e0|ea 0c                                          |..              |
0x4e0|      00 00 00 0d                              |  ....          |        corr: 13 0x4e2-0x4e5.7 (4)
     |                                               |                |      [13]{}: leap_second_record 0x4e6-0x4f1.7 (12)
0x4e0|                  00 00 00 00 21 da e5 0d      |      ....!...  |        occur: "1988-01-01T00:00:13Z" (567993613) 0x4e6-0x4ed.7 (8)
0x4e0|                                          00 00|              ..|        corr: 14 0x4ee-0x4f1.7 (4)
0x4f0|00 0e                                          |..              |
     |                                               |                |      [14]{}: leap_second_record 0x4f2-0x4fd.7 (12)
0x4f0|      00 00 00 00 25 9e 9d 8e                  |  ....%...      |        occur: "1990-01-01T00:00:14Z" (631152014) 0x4f2-0x4f9.7 (8)
0x4f0|                              00 00 00 0f      |          ....  |        corr: 15 0x4fa-0x4fd.7 (4)
     |                                               |                |      [15]{}: leap_second_record 0x4fe-0x509.7 (12)
0x4f0|                                          00 00|              ..|        occur: "1991-01-01T00:00:15Z" (662688015) 0x4fe-0x505.7 (8)
0x500|00 00 27 7f d1 0f                              |..'...          |
0x500|                  00 00 00 10                  |      ....      |        corr: 16 0x506-0x509.7 (4)
     |                                               |                |      [16]{}: leap_second_record 0x50a-0x515.7 (12)
0x500|                              00 00 00 00 2a 50|          ....*P|        occur: "1992-07-01T00:00:16Z" (709948816) 0x50a-0x511.7 (8)
0x510|f5 90                                          |..              |
0x510|      00 00 00 11                              |  ....          |        corr: 17 0x512-0x515.7 (4)
     |                                               |                |      [17]{}: leap_second_record 0x516-0x521.7 (12)
0x510|                  00 00 00 00 2c 32 29 11      |      ....,2).  |        occur: "1993-07-01T00:00:17Z" (741484817) 0x516-0x51d.7 (8)
0x510|                                          00 00|              ..|        corr: 18 0x51e-0x521.7 (4)
0x520|00 12                                          |..              |
     |                                               |                |      [18]{}: leap_second_record 0x522-0x52d.7 (12)
0x520|      00 00 00 00 2e 13 5c 92                  |  ......\.      |        occur: "1994-07-01T00:00:18Z" (773020818) 0x522-0x529.7 (8)
0x520|                              00 00 00 13      |          ....  |        corr: 19 0x52a-0x52d.7 (4)
     |                                               |                |      [19]{}: leap_second_record 0x52e-0x539.7 (12)
0x520|                                          00 00|              ..|        occur: "1996-01-01T00:00:19Z" (820454419) 0x52e-0x535.7 (8)
0x530|00 00 30 e7 24 13                              |..0.$.          |
0x530|                  00 00 00 14                  |      ....      |        corr: 20 0x536-0x539.7 (4)
     |                                               |                |      [20]{}: leap_second_record 0x53a-0x545.7 (12)
0x530|                              00 00 00 00 33 b8|          ....3.|        occur: "1997-07-01T00:00:20Z" (867715220) 0x53a-0x541.7 (8)
0x540|48 94                                          |H.              |
0x540|      00 00 00 15                              |  ....          |        corr: 21 0x542-0x545.7 (4)
     |                                               |                |      [21]{}: leap_second_record 0x546-0x551.7 (12)
0x540|                  00 00 00 00 36 8c 10 15      |      ....6...  |        occur: "1999-01-01T00:00:21Z" (915148821) 0x546-0x54d.7 (8)
0x540|                                          00 00|              ..|        corr: 22 0x54e-0x551.7 (4)
0x550|00 16                                          |..              |
     |                                               |                |      [22]{}: leap_second_record 0x552-0x55d.7 (12)
0x550|      00 00 00 00 43 b7 1b 96                  |  ....C...      |        occur: "2006-01-01T00:00:22Z" (1136073622) 0x552-0x559.7 (8)
0x550|                              00 00 00 17      |          ....  |        corr: 23 0x55a-0x55d.7 (4)
     |                                               |                |      [23]{}: leap_second_record 0x55e-0x569.7 (12)
0x550|                                          00 00|              ..|        occur: "2009-01-01T00:00:23Z" (1230768023) 0x55e-0x565.7 (8)
0x560|00 00 49 5c 07 97                              |..I\..          |
0x560|                  00 00 00 18                  |      ....      |        corr: 24 0x566-0x569.7 (4)
     |                                               |                |      [24]{}: leap_second_record 0x56a-0x575.7 (12)
0x560|                              00 00 00 00 4f ef|          ....O.|        occur: "2012-07-01T00:00:24Z" (1341100824) 0x56a-0x571.7 (8)
0x570|93 18                                          |..              |
0x570|      00 00 00 19                              |  ....          |        corr: 25 0x572-0x575.7 (4)
     |                                               |                |      [25]{}: leap_second_record 0x576-0x581.7 (12)
0x570|                  00 00 00 00 55 93 2d 99      |      ....U.-.  |        occur: "2015-07-01T00:00:25Z" (1435708825) 0x576-0x57d.7 (8)
0x570|                                          00 00|              ..|        corr: 26 0x57e-0x581.7 (4)
0x580|00 1a                                          |..              |
     |                                               |                |      [26]{}: leap_second_record 0x582-0x58d.7 (12)
0x580|      00 00 00 00 58 68 46 9a                  |  ....XhF.      |        occur: "2017-01-01T00:00:26Z" (1483228826) 0x582-0x589.7 (8)
0x580|                              00 00 00 1b      |          ....  |        corr: 27 0x58a-0x58d.7 (4)
     |                                               |                |    standard_wall_indicators[0:0]: 0x58e-NA (0)
     |                                               |                |    ut_local_indicators[0:0]: 0x58e-NA (0)
     |                                               |                |  footer{}: 0x58e-0x58f.7 (2)
0x580|                                          0a   |              . |    nl1: 10 (valid) 0x58e-0x58e.7 (1)
     |                                               |                |    tz_string: "" 0x58f-NA (0)
0x580|                                             0a|               .|    nl2: 10 (valid) 0x58f-0x58f.7 (1)
