$ fq -d tzif dv HST
    |00 01 02 03 04 05 06 07 08 09 0a 0b 0c 0d 0e 0f|0123456789abcdef|.{}: HST (tzif) 0x0-0x72.7 (115)
    |                                               |                |  v1header{}: 0x0-0x2b.7 (44)
0x00|54 5a 69 66                                    |TZif            |    magic: 0x545a6966 (valid) 0x0-0x3.7 (4)
0x00|            32                                 |    2           |    ver: "2" (0x32) (valid) 0x4-0x4.7 (1)
0x00|               00 00 00 00 00 00 00 00 00 00 00|     ...........|    reserved: raw bits 0x5-0x13.7 (15)
0x10|00 00 00 00                                    |....            |
0x10|            00 00 00 00                        |    ....        |    isutcnt: 0 0x14-0x17.7 (4)
0x10|                        00 00 00 00            |        ....    |    isstdcnt: 0 0x18-0x1b.7 (4)
0x10|                                    00 00 00 00|            ....|    leapcnt: 0 0x1c-0x1f.7 (4)
0x20|00 00 00 00                                    |....            |    timecnt: 0 0x20-0x23.7 (4)
0x20|            00 00 00 01                        |    ....        |    typecnt: 1 0x24-0x27.7 (4)
0x20|                        00 00 00 04            |        ....    |    charcnt: 4 0x28-0x2b.7 (4)
    |                                               |                |  v1datablock{}: 0x2c-0x35.7 (10)
    |                                               |                |    transition_times[0:0]: 0x2c-NA (0)
    |                                               |                |    transition_types[0:0]: 0x2c-NA (0)
    |                                               |                |    local_time_type_records[0:1]: 0x2c-0x31.7 (6)
    |                                               |                |      [0]{}: local_time_type 0x2c-0x31.7 (6)
0x20|                                    ff ff 73 60|            ..s`|        utoff: -36000 (valid) 0x2c-0x2f.7 (4)
0x30|00                                             |.               |        dst: 0 (valid) 0x30-0x30.7 (1)
0x30|   00                                          | .              |        idx: 0 (valid) 0x31-0x31.7 (1)
    |                                               |                |    time_zone_designations[0:1]: 0x32-0x35.7 (4)
0x30|      48 53 54 00                              |  HST.          |      [0]: "HST" time_zone_designation 0x32-0x35.7 (4)
    |                                               |                |    leap_second_records[0:0]: 0x36-NA (0)
    |                                               |                |    standard_wall_indicators[0:0]: 0x36-NA (0)
    |                                               |                |    ut_local_indicators[0:0]: 0x36-NA (0)
    |                                               |                |  v2plusheader{}: 0x36-0x61.7 (44)
0x30|                  54 5a 69 66                  |      TZif      |    magic: 0x545a6966 (valid) 0x36-0x39.7 (4)
0x30|                              32               |          2     |    ver: "2" (0x32) (valid) 0x3a-0x3a.7 (1)
0x30|                                 00 00 00 00 00|           .....|    reserved: raw bits 0x3b-0x49.7 (15)
0x40|00 00 00 00 00 00 00 00 00 00                  |..........      |
0x40|                              00 00 00 00      |          ....  |    isutcnt: 0 0x4a-0x4d.7 (4)
0x40|                                          00 00|              ..|    isstdcnt: 0 0x4e-0x51.7 (4)
0x50|00 00                                          |..              |
0x50|      00 00 00 00                              |  ....          |    leapcnt: 0 0x52-0x55.7 (4)
0x50|                  00 00 00 00                  |      ....      |    timecnt: 0 0x56-0x59.7 (4)
0x50|                              00 00 00 01      |          ....  |    typecnt: 1 0x5a-0x5d.7 (4)
0x50|                                          00 00|              ..|    charcnt: 4 0x5e-0x61.7 (4)
0x60|00 04                                          |..              |
    |                                               |                |  v2plusdatablock{}: 0x62-0x6b.7 (10)
    |                                               |                |    transition_times[0:0]: 0x62-NA (0)
    |                                               |                |    transition_types[0:0]: 0x62-NA (0)
    |                                               |                |    local_time_type_records[0:1]: 0x62-0x67.7 (6)
    |                                               |                |      [0]{}: local_time_type 0x62-0x67.7 (6)
0x60|      ff ff 73 60                              |  ..s`          |        utoff: -36000 (valid) 0x62-0x65.7 (4)
0x60|                  00                           |      .         |        dst: 0 (valid) 0x66-0x66.7 (1)
0x60|                     00                        |       .        |        idx: 0 (valid) 0x67-0x67.7 (1)
    |                                               |                |    time_zone_designations[0:1]: 0x68-0x6b.7 (4)
0x60|                        48 53 54 00            |        HST.    |      [0]: "HST" time_zone_designation 0x68-0x6b.7 (4)
    |                                               |                |    leap_second_records[0:0]: 0x6c-NA (0)
    |                                               |                |    standard_wall_indicators[0:0]: 0x6c-NA (0)
    |                                               |                |    ut_local_indicators[0:0]: 0x6c-NA (0)
    |                                               |                |  footer{}: 0x6c-0x72.7 (7)
0x60|                                    0a         |            .   |    nl1: 10 (valid) 0x6c-0x6c.7 (1)
0x60|                                       48 53 54|             HST|    tz_string: "HST10" 0x6d-0x71.7 (5)
0x70|31 30                                          |10              |
0x70|      0a|                                      |  .|            |    nl2: 10 (valid) 0x72-0x72.7 (1)
