$ fq -d tzif dv Indianapolis
     |00 01 02 03 04 05 06 07 08 09 0a 0b 0c 0d 0e 0f|0123456789abcdef|.{}: Indianapolis (tzif) 0x0-0x710 (1808)
     |                                               |                |  v1header{}: 0x0-0x2c (44)
0x000|54 5a 69 66                                    |TZif            |    magic: 0x545a6966 (valid) 0x0-0x4 (4)
0x000|            32                                 |    2           |    ver: "2" (0x32) (valid) 0x4-0x5 (1)
0x000|               00 00 00 00 00 00 00 00 00 00 00|     ...........|    reserved: raw bits 0x5-0x14 (15)
0x010|00 00 00 00                                    |....            |
0x010|            00 00 00 08                        |    ....        |    isutcnt: 8 0x14-0x18 (4)
0x010|                        00 00 00 08            |        ....    |    isstdcnt: 8 0x18-0x1c (4)
0x010|                                    00 00 00 1b|            ....|    leapcnt: 27 0x1c-0x20 (4)
0x020|00 00 00 47                                    |...G            |    timecnt: 71 0x20-0x24 (4)
0x020|            00 00 00 08                        |    ....        |    typecnt: 8 0x24-0x28 (4)
0x020|                        00 00 00 1c            |        ....    |    charcnt: 28 0x28-0x2c (4)
     |                                               |                |  v1datablock{}: 0x2c-0x2c3 (663)
     |                                               |                |    transition_times[0:71]: 0x2c-0x148 (284)
0x020|                                    80 00 00 00|            ....|      [0]: "1901-12-13T20:45:52Z" (-2147483648) transition_time 0x2c-0x30 (4)
0x030|9e a6 2c 80                                    |..,.            |      [1]: "1918-03-31T08:00:00Z" (-1633276800) transition_time 0x30-0x34 (4)
0x030|            9f ba f9 70                        |    ...p        |      [2]: "1918-10-27T07:00:00Z" (-1615136400) transition_time 0x34-0x38 (4)
0x030|                        a0 86 0e 80            |        ....    |      [3]: "1919-03-30T08:00:00Z" (-1601827200) transition_time 0x38-0x3c (4)
0x030|                                    a1 9a db 70|            ...p|      [4]: "1919-10-26T07:00:00Z" (-1583686800) transition_time 0x3c-0x40 (4)
0x040|ca 57 22 80                                    |.W".            |      [5]: "1941-06-22T08:00:00Z" (-900259200) transition_time 0x40-0x44 (4)
0x040|            ca d8 47 70                        |    ..Gp        |      [6]: "1941-09-28T07:00:00Z" (-891795600) transition_time 0x44-0x48 (4)
0x040|                        cb 88 fe 80            |        ....    |      [7]: "1942-02-09T08:00:00Z" (-880214400) transition_time 0x48-0x4c (4)
0x040|                                    d2 23 f4 70|            .#.p|      [8]: "1945-08-14T23:00:00Z" (-769395600) transition_time 0x4c-0x50 (4)
0x050|d2 61 09 f0                                    |.a..            |      [9]: "1945-09-30T07:00:00Z" (-765392400) transition_time 0x50-0x54 (4)
0x050|            d3 75 f3 00                        |    .u..        |      [10]: "1946-04-28T08:00:00Z" (-747244800) transition_time 0x54-0x58 (4)
0x050|                        d4 40 eb f0            |        .@..    |      [11]: "1946-09-29T07:00:00Z" (-733942800) transition_time 0x58-0x5c (4)
0x050|                                    d5 55 d5 00|            .U..|      [12]: "1947-04-27T08:00:00Z" (-715795200) transition_time 0x5c-0x60 (4)
0x060|d6 20 cd f0                                    |. ..            |      [13]: "1947-09-28T07:00:00Z" (-702493200) transition_time 0x60-0x64 (4)
0x060|            d7 35 b7 00                        |    .5..        |      [14]: "1948-04-25T08:00:00Z" (-684345600) transition_time 0x64-0x68 (4)
0x060|                        d8 00 af f0            |        ....    |      [15]: "1948-09-26T07:00:00Z" (-671043600) transition_time 0x68-0x6c (4)
0x060|                                    d9 15 99 00|            ....|      [16]: "1949-04-24T08:00:00Z" (-652896000) transition_time 0x6c-0x70 (4)
0x070|d9 e0 91 f0                                    |....            |      [17]: "1949-09-25T07:00:00Z" (-639594000) transition_time 0x70-0x74 (4)
0x070|            da fe b5 80                        |    ....        |      [18]: "1950-04-30T08:00:00Z" (-620841600) transition_time 0x74-0x78 (4)
0x070|                        db c0 73 f0            |        ..s.    |      [19]: "1950-09-24T07:00:00Z" (-608144400) transition_time 0x78-0x7c (4)
0x070|                                    dc de 97 80|            ....|      [20]: "1951-04-29T08:00:00Z" (-589392000) transition_time 0x7c-0x80 (4)
0x080|dd a9 90 70                                    |...p            |      [21]: "1951-09-30T07:00:00Z" (-576090000) transition_time 0x80-0x84 (4)
0x080|            de be 79 80                        |    ..y.        |      [22]: "1952-04-27T08:00:00Z" (-557942400) transition_time 0x84-0x88 (4)
0x080|                        df 89 72 70            |        ..rp    |      [23]: "1952-09-28T07:00:00Z" (-544640400) transition_time 0x88-0x8c (4)
0x080|                                    e0 9e 5b 80|            ..[.|      [24]: "1953-04-26T08:00:00Z" (-526492800) transition_time 0x8c-0x90 (4)
0x090|e1 69 54 70                                    |.iTp            |      [25]: "1953-09-27T07:00:00Z" (-513190800) transition_time 0x90-0x94 (4)
0x090|            e2 7e 3d 80                        |    .~=.        |      [26]: "1954-04-25T08:00:00Z" (-495043200) transition_time 0x94-0x98 (4)
0x090|                        e3 49 36 70            |        .I6p    |      [27]: "1954-09-26T07:00:00Z" (-481741200) transition_time 0x98-0x9c (4)
0x090|                                    e4 5e 1f 80|            .^..|      [28]: "1955-04-24T08:00:00Z" (-463593600) transition_time 0x9c-0xa0 (4)
0x0a0|e8 f2 16 f0                                    |....            |      [29]: "1957-09-29T07:00:00Z" (-386787600) transition_time 0xa0-0xa4 (4)
0x0a0|            ea 07 00 00                        |    ....        |      [30]: "1958-04-27T08:00:00Z" (-368640000) transition_time 0xa4-0xa8 (4)
0x0a0|                        fe b8 1c f0            |        ....    |      [31]: "1969-04-27T07:00:00Z" (-21488400) transition_time 0xa8-0xac (4)
0x0a0|                                    ff a7 ff e0|            ....|      [32]: "1969-10-26T06:00:00Z" (-5767200) transition_time 0xac-0xb0 (4)
0x0b0|00 97 fe f0                                    |....            |      [33]: "1970-04-26T07:00:00Z" (9961200) transition_time 0xb0-0xb4 (4)
0x0b0|            01 87 e1 e0                        |    ....        |      [34]: "1970-10-25T06:00:00Z" (25682400) transition_time 0xb4-0xb8 (4)
0x0b0|                        44 2f 76 87            |        D/v.    |      [35]: "2006-04-02T07:00:23Z" (1143961223) transition_time 0xb8-0xbc (4)
0x0b0|                                    45 44 43 77|            EDCw|      [36]: "2006-10-29T06:00:23Z" (1162101623) transition_time 0xbc-0xc0 (4)
0x0c0|45 f3 a9 07                                    |E...            |      [37]: "2007-03-11T07:00:23Z" (1173596423) transition_time 0xc0-0xc4 (4)
0x0c0|            47 2d 5f f7                        |    G-_.        |      [38]: "2007-11-04T06:00:23Z" (1194156023) transition_time 0xc4-0xc8 (4)
0x0c0|                        47 d3 8b 07            |        G...    |      [39]: "2008-03-09T07:00:23Z" (1205046023) transition_time 0xc8-0xcc (4)
0x0c0|                                    49 0d 41 f7|            I.A.|      [40]: "2008-11-02T06:00:23Z" (1225605623) transition_time 0xcc-0xd0 (4)
0x0d0|49 b3 6d 08                                    |I.m.            |      [41]: "2009-03-08T07:00:24Z" (1236495624) transition_time 0xd0-0xd4 (4)
0x0d0|            4a ed 23 f8                        |    J.#.        |      [42]: "2009-11-01T06:00:24Z" (1257055224) transition_time 0xd4-0xd8 (4)
0x0d0|                        4b 9c 89 88            |        K...    |      [43]: "2010-03-14T07:00:24Z" (1268550024) transition_time 0xd8-0xdc (4)
0x0d0|                                    4c d6 40 78|            L.@x|      [44]: "2010-11-07T06:00:24Z" (1289109624) transition_time 0xdc-0xe0 (4)
0x0e0|4d 7c 6b 88                                    |M|k.            |      [45]: "2011-03-13T07:00:24Z" (1299999624) transition_time 0xe0-0xe4 (4)
0x0e0|            4e b6 22 78                        |    N."x        |      [46]: "2011-11-06T06:00:24Z" (1320559224) transition_time 0xe4-0xe8 (4)
0x0e0|                        4f 5c 4d 88            |        O\M.    |      [47]: "2012-03-11T07:00:24Z" (1331449224) transition_time 0xe8-0xec (4)
0x0e0|                                    50 96 04 79|            P..y|      [48]: "2012-11-04T06:00:25Z" (1352008825) transition_time 0xec-0xf0 (4)
0x0f0|51 3c 2f 89                                    |Q</.            |      [49]: "2013-03-10T07:00:25Z" (1362898825) transition_time 0xf0-0xf4 (4)
0x0f0|            52 75 e6 79                        |    Ru.y        |      [50]: "2013-11-03T06:00:25Z" (1383458425) transition_time 0xf4-0xf8 (4)
0x0f0|                        53 1c 11 89            |        S...    |      [51]: "2014-03-09T07:00:25Z" (1394348425) transition_time 0xf8-0xfc (4)
0x0f0|                                    54 55 c8 79|            TU.y|      [52]: "2014-11-02T06:00:25Z" (1414908025) transition_time 0xfc-0x100 (4)
0x100|54 fb f3 89                                    |T...            |      [53]: "2015-03-08T07:00:25Z" (1425798025) transition_time 0x100-0x104 (4)
0x100|            56 35 aa 7a                        |    V5.z        |      [54]: "2015-11-01T06:00:26Z" (1446357626) transition_time 0x104-0x108 (4)
0x100|                        56 e5 10 0a            |        V...    |      [55]: "2016-03-13T07:00:26Z" (1457852426) transition_time 0x108-0x10c (4)
0x100|                                    58 1e c6 fa|            X...|      [56]: "2016-11-06T06:00:26Z" (1478412026) transition_time 0x10c-0x110 (4)
0x110|58 c4 f2 0b                                    |X...            |      [57]: "2017-03-12T07:00:27Z" (1489302027) transition_time 0x110-0x114 (4)
0x110|            59 fe a8 fb                        |    Y...        |      [58]: "2017-11-05T06:00:27Z" (1509861627) transition_time 0x114-0x118 (4)
0x110|                        5a a4 d4 0b            |        Z...    |      [59]: "2018-03-11T07:00:27Z" (1520751627) transition_time 0x118-0x11c (4)
0x110|                                    5b de 8a fb|            [...|      [60]: "2018-11-04T06:00:27Z" (1541311227) transition_time 0x11c-0x120 (4)
0x120|5c 84 b6 0b                                    |\...            |      [61]: "2019-03-10T07:00:27Z" (1552201227) transition_time 0x120-0x124 (4)
0x120|            5d be 6c fb                        |    ].l.        |      [62]: "2019-11-03T06:00:27Z" (1572760827) transition_time 0x124-0x128 (4)
0x120|                        5e 64 98 0b            |        ^d..    |      [63]: "2020-03-08T07:00:27Z" (1583650827) transition_time 0x128-0x12c (4)
0x120|                                    5f 9e 4e fb|            _.N.|      [64]: "2020-11-01T06:00:27Z" (1604210427) transition_time 0x12c-0x130 (4)
0x130|60 4d b4 8b                                    |`M..            |      [65]: "2021-03-14T07:00:27Z" (1615705227) transition_time 0x130-0x134 (4)
0x130|            61 87 6b 7b                        |    a.k{        |      [66]: "2021-11-07T06:00:27Z" (1636264827) transition_time 0x134-0x138 (4)
0x130|                        62 2d 96 8b            |        b-..    |      [67]: "2022-03-13T07:00:27Z" (1647154827) transition_time 0x138-0x13c (4)
0x130|                                    63 67 4d 7b|            cgM{|      [68]: "2022-11-06T06:00:27Z" (1667714427) transition_time 0x13c-0x140 (4)
0x140|64 0d 78 8b                                    |d.x.            |      [69]: "2023-03-12T07:00:27Z" (1678604427) transition_time 0x140-0x144 (4)
0x140|            64 9b 78 1b                        |    d.x.        |      [70]: "2023-06-28T00:00:27Z" (1687910427) transition_time 0x144-0x148 (4)
     |                                               |                |    transition_types[0:71]: 0x148-0x18f (71)
0x140|                        03                     |        .       |      [0]: 3 transition_type 0x148-0x149 (1)
0x140|                           01                  |         .      |      [1]: 1 transition_type 0x149-0x14a (1)
0x140|                              02               |          .     |      [2]: 2 transition_type 0x14a-0x14b (1)
0x140|                                 01            |           .    |      [3]: 1 transition_type 0x14b-0x14c (1)
0x140|                                    02         |            .   |      [4]: 2 transition_type 0x14c-0x14d (1)
0x140|                                       01      |             .  |      [5]: 1 transition_type 0x14d-0x14e (1)
0x140|                                          02   |              . |      [6]: 2 transition_type 0x14e-0x14f (1)
0x140|                                             04|               .|      [7]: 4 transition_type 0x14f-0x150 (1)
0x150|05                                             |.               |      [8]: 5 transition_type 0x150-0x151 (1)
0x150|   02                                          | .              |      [9]: 2 transition_type 0x151-0x152 (1)
0x150|      01                                       |  .             |      [10]: 1 transition_type 0x152-0x153 (1)
0x150|         02                                    |   .            |      [11]: 2 transition_type 0x153-0x154 (1)
0x150|            01                                 |    .           |      [12]: 1 transition_type 0x154-0x155 (1)
0x150|               02                              |     .          |      [13]: 2 transition_type 0x155-0x156 (1)
0x150|                  01                           |      .         |      [14]: 1 transition_type 0x156-0x157 (1)
0x150|                     02                        |       .        |      [15]: 2 transition_type 0x157-0x158 (1)
0x150|                        01                     |        .       |      [16]: 1 transition_type 0x158-0x159 (1)
0x150|                           02                  |         .      |      [17]: 2 transition_type 0x159-0x15a (1)
0x150|                              01               |          .     |      [18]: 1 transition_type 0x15a-0x15b (1)
0x150|                                 02            |           .    |      [19]: 2 transition_type 0x15b-0x15c (1)
0x150|                                    01         |            .   |      [20]: 1 transition_type 0x15c-0x15d (1)
0x150|                                       02      |             .  |      [21]: 2 transition_type 0x15d-0x15e (1)
0x150|                                          01   |              . |      [22]: 1 transition_type 0x15e-0x15f (1)
0x150|                                             02|               .|      [23]: 2 transition_type 0x15f-0x160 (1)
0x160|01                                             |.               |      [24]: 1 transition_type 0x160-0x161 (1)
0x160|   02                                          | .              |      [25]: 2 transition_type 0x161-0x162 (1)
0x160|      01                                       |  .             |      [26]: 1 transition_type 0x162-0x163 (1)
0x160|         02                                    |   .            |      [27]: 2 transition_type 0x163-0x164 (1)
0x160|            06                                 |    .           |      [28]: 6 transition_type 0x164-0x165 (1)
0x160|               02                              |     .          |      [29]: 2 transition_type 0x165-0x166 (1)
0x160|                  06                           |      .         |      [30]: 6 transition_type 0x166-0x167 (1)
0x160|                     07                        |       .        |      [31]: 7 transition_type 0x167-0x168 (1)
0x160|                        06                     |        .       |      [32]: 6 transition_type 0x168-0x169 (1)
0x160|                           07                  |         .      |      [33]: 7 transition_type 0x169-0x16a (1)
0x160|                              06               |          .     |      [34]: 6 transition_type 0x16a-0x16b (1)
0x160|                                 07            |           .    |      [35]: 7 transition_type 0x16b-0x16c (1)
0x160|                                    06         |            .   |      [36]: 6 transition_type 0x16c-0x16d (1)
0x160|                                       07      |             .  |      [37]: 7 transition_type 0x16d-0x16e (1)
0x160|                                          06   |              . |      [38]: 6 transition_type 0x16e-0x16f (1)
0x160|                                             07|               .|      [39]: 7 transition_type 0x16f-0x170 (1)
0x170|06                                             |.               |      [40]: 6 transition_type 0x170-0x171 (1)
0x170|   07                                          | .              |      [41]: 7 transition_type 0x171-0x172 (1)
0x170|      06                                       |  .             |      [42]: 6 transition_type 0x172-0x173 (1)
0x170|         07                                    |   .            |      [43]: 7 transition_type 0x173-0x174 (1)
0x170|            06                                 |    .           |      [44]: 6 transition_type 0x174-0x175 (1)
0x170|               07                              |     .          |      [45]: 7 transition_type 0x175-0x176 (1)
0x170|                  06                           |      .         |      [46]: 6 transition_type 0x176-0x177 (1)
0x170|                     07                        |       .        |      [47]: 7 transition_type 0x177-0x178 (1)
0x170|                        06                     |        .       |      [48]: 6 transition_type 0x178-0x179 (1)
0x170|                           07                  |         .      |      [49]: 7 transition_type 0x179-0x17a (1)
0x170|                              06               |          .     |      [50]: 6 transition_type 0x17a-0x17b (1)
0x170|                                 07            |           .    |      [51]: 7 transition_type 0x17b-0x17c (1)
0x170|                                    06         |            .   |      [52]: 6 transition_type 0x17c-0x17d (1)
0x170|                                       07      |             .  |      [53]: 7 transition_type 0x17d-0x17e (1)
0x170|                                          06   |              . |      [54]: 6 transition_type 0x17e-0x17f (1)
0x170|                                             07|               .|      [55]: 7 transition_type 0x17f-0x180 (1)
0x180|06                                             |.               |      [56]: 6 transition_type 0x180-0x181 (1)
0x180|   07                                          | .              |      [57]: 7 transition_type 0x181-0x182 (1)
0x180|      06                                       |  .             |      [58]: 6 transition_type 0x182-0x183 (1)
0x180|         07                                    |   .            |      [59]: 7 transition_type 0x183-0x184 (1)
0x180|            06                                 |    .           |      [60]: 6 transition_type 0x184-0x185 (1)
0x180|               07                              |     .          |      [61]: 7 transition_type 0x185-0x186 (1)
0x180|                  06                           |      .         |      [62]: 6 transition_type 0x186-0x187 (1)
0x180|                     07                        |       .        |      [63]: 7 transition_type 0x187-0x188 (1)
0x180|                        06                     |        .       |      [64]: 6 transition_type 0x188-0x189 (1)
0x180|                           07                  |         .      |      [65]: 7 transition_type 0x189-0x18a (1)
0x180|                              06               |          .     |      [66]: 6 transition_type 0x18a-0x18b (1)
0x180|                                 07            |           .    |      [67]: 7 transition_type 0x18b-0x18c (1)
0x180|                                    06         |            .   |      [68]: 6 transition_type 0x18c-0x18d (1)
0x180|                                       07      |             .  |      [69]: 7 transition_type 0x18d-0x18e (1)
0x180|                                          07   |              . |      [70]: 7 transition_type 0x18e-0x18f (1)
     |                                               |                |    local_time_type_records[0:8]: 0x18f-0x1bf (48)
     |                                               |                |      [0]{}: local_time_type 0x18f-0x195 (6)
0x180|                                             ff|               .|        utoff: -20678 (valid) 0x18f-0x193 (4)
0x190|ff af 3a                                       |..:             |
0x190|         00                                    |   .            |        dst: 0 (valid) 0x193-0x194 (1)
0x190|            00                                 |    .           |        idx: 0 (valid) 0x194-0x195 (1)
     |                                               |                |      [1]{}: local_time_type 0x195-0x19b (6)
0x190|               ff ff b9 b0                     |     ....       |        utoff: -18000 (valid) 0x195-0x199 (4)
0x190|                           01                  |         .      |        dst: 1 (valid) 0x199-0x19a (1)
0x190|                              04               |          .     |        idx: 4 (valid) 0x19a-0x19b (1)
     |                                               |                |      [2]{}: local_time_type 0x19b-0x1a1 (6)
0x190|                                 ff ff ab a0   |           .... |        utoff: -21600 (valid) 0x19b-0x19f (4)
0x190|                                             00|               .|        dst: 0 (valid) 0x19f-0x1a0 (1)
0x1a0|08                                             |.               |        idx: 8 (valid) 0x1a0-0x1a1 (1)
     |                                               |                |      [3]{}: local_time_type 0x1a1-0x1a7 (6)
0x1a0|   ff ff ab a0                                 | ....           |        utoff: -21600 (valid) 0x1a1-0x1a5 (4)
0x1a0|               00                              |     .          |        dst: 0 (valid) 0x1a5-0x1a6 (1)
0x1a0|                  08                           |      .         |        idx: 8 (valid) 0x1a6-0x1a7 (1)
     |                                               |                |      [4]{}: local_time_type 0x1a7-0x1ad (6)
0x1a0|                     ff ff b9 b0               |       ....     |        utoff: -18000 (valid) 0x1a7-0x1ab (4)
0x1a0|                                 01            |           .    |        dst: 1 (valid) 0x1ab-0x1ac (1)
0x1a0|                                    0c         |            .   |        idx: 12 (valid) 0x1ac-0x1ad (1)
     |                                               |                |      [5]{}: local_time_type 0x1ad-0x1b3 (6)
0x1a0|                                       ff ff b9|             ...|        utoff: -18000 (valid) 0x1ad-0x1b1 (4)
0x1b0|b0                                             |.               |
0x1b0|   01                                          | .              |        dst: 1 (valid) 0x1b1-0x1b2 (1)
0x1b0|      10                                       |  .             |        idx: 16 (valid) 0x1b2-0x1b3 (1)
     |                                               |                |      [6]{}: local_time_type 0x1b3-0x1b9 (6)
0x1b0|         ff ff b9 b0                           |   ....         |        utoff: -18000 (valid) 0x1b3-0x1b7 (4)
0x1b0|                     00                        |       .        |        dst: 0 (valid) 0x1b7-0x1b8 (1)
0x1b0|                        14                     |        .       |        idx: 20 (valid) 0x1b8-0x1b9 (1)
     |                                               |                |      [7]{}: local_time_type 0x1b9-0x1bf (6)
0x1b0|                           ff ff c7 c0         |         ....   |        utoff: -14400 (valid) 0x1b9-0x1bd (4)
0x1b0|                                       01      |             .  |        dst: 1 (valid) 0x1bd-0x1be (1)
0x1b0|                                          18   |              . |        idx: 24 (valid) 0x1be-0x1bf (1)
     |                                               |                |    time_zone_designations[0:7]: 0x1bf-0x1db (28)
0x1b0|                                             4c|               L|      [0]: "LMT" time_zone_designation 0x1bf-0x1c3 (4)
0x1c0|4d 54 00                                       |MT.             |
0x1c0|         43 44 54 00                           |   CDT.         |      [1]: "CDT" time_zone_designation 0x1c3-0x1c7 (4)
0x1c0|                     43 53 54 00               |       CST.     |      [2]: "CST" time_zone_designation 0x1c7-0x1cb (4)
0x1c0|                                 43 57 54 00   |           CWT. |      [3]: "CWT" time_zone_designation 0x1cb-0x1cf (4)
0x1c0|                                             43|               C|      [4]: "CPT" time_zone_designation 0x1cf-0x1d3 (4)
0x1d0|50 54 00                                       |PT.             |
0x1d0|         45 53 54 00                           |   EST.         |      [5]: "EST" time_zone_designation 0x1d3-0x1d7 (4)
0x1d0|                     45 44 54 00               |       EDT.     |      [6]: "EDT" time_zone_designation 0x1d7-0x1db (4)
     |                                               |                |    leap_second_records[0:27]: 0x1db-0x2b3 (216)
     |                                               |                |      [0]{}: leap_second_record 0x1db-0x1e3 (8)
0x1d0|                                 04 b2 58 00   |           ..X. |        occur: "1972-07-01T00:00:00Z" (78796800) 0x1db-0x1df (4)
0x1d0|                                             00|               .|        corr: 1 0x1df-0x1e3 (4)
0x1e0|00 00 01                                       |...             |
     |                                               |                |      [1]{}: leap_second_record 0x1e3-0x1eb (8)
0x1e0|         05 a4 ec 01                           |   ....         |        occur: "1973-01-01T00:00:01Z" (94694401) 0x1e3-0x1e7 (4)
0x1e0|                     00 00 00 02               |       ....     |        corr: 2 0x1e7-0x1eb (4)
     |                                               |                |      [2]{}: leap_second_record 0x1eb-0x1f3 (8)
0x1e0|                                 07 86 1f 82   |           .... |        occur: "1974-01-01T00:00:02Z" (126230402) 0x1eb-0x1ef (4)
0x1e0|                                             00|               .|        corr: 3 0x1ef-0x1f3 (4)
0x1f0|00 00 03                                       |...             |
     |                                               |                |      [3]{}: leap_second_record 0x1f3-0x1fb (8)
0x1f0|         09 67 53 03                           |   .gS.         |        occur: "1975-01-01T00:00:03Z" (157766403) 0x1f3-0x1f7 (4)
0x1f0|                     00 00 00 04               |       ....     |        corr: 4 0x1f7-0x1fb (4)
     |                                               |                |      [4]{}: leap_second_record 0x1fb-0x203 (8)
0x1f0|                                 0b 48 86 84   |           .H.. |        occur: "1976-01-01T00:00:04Z" (189302404) 0x1fb-0x1ff (4)
0x1f0|                                             00|               .|        corr: 5 0x1ff-0x203 (4)
0x200|00 00 05                                       |...             |
     |                                               |                |      [5]{}: leap_second_record 0x203-0x20b (8)
0x200|         0d 2b 0b 85                           |   .+..         |        occur: "1977-01-01T00:00:05Z" (220924805) 0x203-0x207 (4)
0x200|                     00 00 00 06               |       ....     |        corr: 6 0x207-0x20b (4)
     |                                               |                |      [6]{}: leap_second_record 0x20b-0x213 (8)
0x200|                                 0f 0c 3f 06   |           ..?. |        occur: "1978-01-01T00:00:06Z" (252460806) 0x20b-0x20f (4)
0x200|                                             00|               .|        corr: 7 0x20f-0x213 (4)
0x210|00 00 07                                       |...             |
     |                                               |                |      [7]{}: leap_second_record 0x213-0x21b (8)
0x210|         10 ed 72 87                           |   ..r.         |        occur: "1979-01-01T00:00:07Z" (283996807) 0x213-0x217 (4)
0x210|                     00 00 00 08               |       ....     |        corr: 8 0x217-0x21b (4)
     |                                               |                |      [8]{}: leap_second_record 0x21b-0x223 (8)
0x210|                                 12 ce a6 08   |           .... |        occur: "1980-01-01T00:00:08Z" (315532808) 0x21b-0x21f (4)
0x210|                                             00|               .|        corr: 9 0x21f-0x223 (4)
0x220|00 00 09                                       |...             |
     |                                               |                |      [9]{}: leap_second_record 0x223-0x22b (8)
0x220|         15 9f ca 89                           |   ....         |        occur: "1981-07-01T00:00:09Z" (362793609) 0x223-0x227 (4)
0x220|                     00 00 00 0a               |       ....     |        corr: 10 0x227-0x22b (4)
     |                                               |                |      [10]{}: leap_second_record 0x22b-0x233 (8)
0x220|                                 17 80 fe 0a   |           .... |        occur: "1982-07-01T00:00:10Z" (394329610) 0x22b-0x22f (4)
0x220|                                             00|               .|        corr: 11 0x22f-0x233 (4)
0x230|00 00 0b                                       |...             |
     |                                               |                |      [11]{}: leap_second_record 0x233-0x23b (8)
0x230|         19 62 31 8b                           |   .b1.         |        occur: "1983-07-01T00:00:11Z" (425865611) 0x233-0x237 (4)
0x230|                     00 00 00 0c               |       ....     |        corr: 12 0x237-0x23b (4)
     |                                               |                |      [12]{}: leap_second_record 0x23b-0x243 (8)
0x230|                                 1d 25 ea 0c   |           .%.. |        occur: "1985-07-01T00:00:12Z" (489024012) 0x23b-0x23f (4)
0x230|                                             00|               .|        corr: 13 0x23f-0x243 (4)
0x240|00 00 0d                                       |...             |
     |                                               |                |      [13]{}: leap_second_record 0x243-0x24b (8)
0x240|         21 da e5 0d                           |   !...         |        occur: "1988-01-01T00:00:13Z" (567993613) 0x243-0x247 (4)
0x240|                     00 00 00 0e               |       ....     |        corr: 14 0x247-0x24b (4)
     |                                               |                |      [14]{}: leap_second_record 0x24b-0x253 (8)
0x240|                                 25 9e 9d 8e   |           %... |        occur: "1990-01-01T00:00:14Z" (631152014) 0x24b-0x24f (4)
0x240|                                             00|               .|        corr: 15 0x24f-0x253 (4)
0x250|00 00 0f                                       |...             |
     |                                               |                |      [15]{}: leap_second_record 0x253-0x25b (8)
0x250|         27 7f d1 0f                           |   '...         |        occur: "1991-01-01T00:00:15Z" (662688015) 0x253-0x257 (4)
0x250|                     00 00 00 10               |       ....     |        corr: 16 0x257-0x25b (4)
     |                                               |                |      [16]{}: leap_second_record 0x25b-0x263 (8)
0x250|                                 2a 50 f5 90   |           *P.. |        occur: "1992-07-01T00:00:16Z" (709948816) 0x25b-0x25f (4)
0x250|                                             00|               .|        corr: 17 0x25f-0x263 (4)
0x260|00 00 11                                       |...             |
     |                                               |                |      [17]{}: leap_second_record 0x263-0x26b (8)
0x260|         2c 32 29 11                           |   ,2).         |        occur: "1993-07-01T00:00:17Z" (741484817) 0x263-0x267 (4)
0x260|                     00 00 00 12               |       ....     |        corr: 18 0x267-0x26b (4)
     |                                               |                |      [18]{}: leap_second_record 0x26b-0x273 (8)
0x260|                                 2e 13 5c 92   |           ..\. |        occur: "1994-07-01T00:00:18Z" (773020818) 0x26b-0x26f (4)
0x260|                                             00|               .|        corr: 19 0x26f-0x273 (4)
0x270|00 00 13                                       |...             |
     |                                               |                |      [19]{}: leap_second_record 0x273-0x27b (8)
0x270|         30 e7 24 13                           |   0.$.         |        occur: "1996-01-01T00:00:19Z" (820454419) 0x273-0x277 (4)
0x270|                     00 00 00 14               |       ....     |        corr: 20 0x277-0x27b (4)
     |                                               |                |      [20]{}: leap_second_record 0x27b-0x283 (8)
0x270|                                 33 b8 48 94   |           3.H. |        occur: "1997-07-01T00:00:20Z" (867715220) 0x27b-0x27f (4)
0x270|                                             00|               .|        corr: 21 0x27f-0x283 (4)
0x280|00 00 15                                       |...             |
     |                                               |                |      [21]{}: leap_second_record 0x283-0x28b (8)
0x280|         36 8c 10 15                           |   6...         |        occur: "1999-01-01T00:00:21Z" (915148821) 0x283-0x287 (4)
0x280|                     00 00 00 16               |       ....     |        corr: 22 0x287-0x28b (4)
     |                                               |                |      [22]{}: leap_second_record 0x28b-0x293 (8)
0x280|                                 43 b7 1b 96   |           C... |        occur: "2006-01-01T00:00:22Z" (1136073622) 0x28b-0x28f (4)
0x280|                                             00|               .|        corr: 23 0x28f-0x293 (4)
0x290|00 00 17                                       |...             |
     |                                               |                |      [23]{}: leap_second_record 0x293-0x29b (8)
0x290|         49 5c 07 97                           |   I\..         |        occur: "2009-01-01T00:00:23Z" (1230768023) 0x293-0x297 (4)
0x290|                     00 00 00 18               |       ....     |        corr: 24 0x297-0x29b (4)
     |                                               |                |      [24]{}: leap_second_record 0x29b-0x2a3 (8)
0x290|                                 4f ef 93 18   |           O... |        occur: "2012-07-01T00:00:24Z" (1341100824) 0x29b-0x29f (4)
0x290|                                             00|               .|        corr: 25 0x29f-0x2a3 (4)
0x2a0|00 00 19                                       |...             |
     |                                               |                |      [25]{}: leap_second_record 0x2a3-0x2ab (8)
0x2a0|         55 93 2d 99                           |   U.-.         |        occur: "2015-07-01T00:00:25Z" (1435708825) 0x2a3-0x2a7 (4)
0x2a0|                     00 00 00 1a               |       ....     |        corr: 26 0x2a7-0x2ab (4)
     |                                               |                |      [26]{}: leap_second_record 0x2ab-0x2b3 (8)
0x2a0|                                 58 68 46 9a   |           XhF. |        occur: "2017-01-01T00:00:26Z" (1483228826) 0x2ab-0x2af (4)
0x2a0|                                             00|               .|        corr: 27 0x2af-0x2b3 (4)
0x2b0|00 00 1b                                       |...             |
     |                                               |                |    standard_wall_indicators[0:8]: 0x2b3-0x2bb (8)
0x2b0|         00                                    |   .            |      [0]: 0 standard_wall_indicator (valid) 0x2b3-0x2b4 (1)
0x2b0|            00                                 |    .           |      [1]: 0 standard_wall_indicator (valid) 0x2b4-0x2b5 (1)
0x2b0|               00                              |     .          |      [2]: 0 standard_wall_indicator (valid) 0x2b5-0x2b6 (1)
0x2b0|                  01                           |      .         |      [3]: 1 standard_wall_indicator (valid) 0x2b6-0x2b7 (1)
0x2b0|                     00                        |       .        |      [4]: 0 standard_wall_indicator (valid) 0x2b7-0x2b8 (1)
0x2b0|                        01                     |        .       |      [5]: 1 standard_wall_indicator (valid) 0x2b8-0x2b9 (1)
0x2b0|                           00                  |         .      |      [6]: 0 standard_wall_indicator (valid) 0x2b9-0x2ba (1)
0x2b0|                              00               |          .     |      [7]: 0 standard_wall_indicator (valid) 0x2ba-0x2bb (1)
     |                                               |                |    ut_local_indicators[0:8]: 0x2bb-0x2c3 (8)
0x2b0|                                 00            |           .    |      [0]: 0 ut_local_indicator (valid) 0x2bb-0x2bc (1)
0x2b0|                                    00         |            .   |      [1]: 0 ut_local_indicator (valid) 0x2bc-0x2bd (1)
0x2b0|                                       00      |             .  |      [2]: 0 ut_local_indicator (valid) 0x2bd-0x2be (1)
0x2b0|                                          01   |              . |      [3]: 1 ut_local_indicator (valid) 0x2be-0x2bf (1)
0x2b0|                                             00|               .|      [4]: 0 ut_local_indicator (valid) 0x2bf-0x2c0 (1)
0x2c0|01                                             |.               |      [5]: 1 ut_local_indicator (valid) 0x2c0-0x2c1 (1)
0x2c0|   00                                          | .              |      [6]: 0 ut_local_indicator (valid) 0x2c1-0x2c2 (1)
0x2c0|      00                                       |  .             |      [7]: 0 ut_local_indicator (valid) 0x2c2-0x2c3 (1)
     |                                               |                |  v2plusheader{}: 0x2c3-0x2ef (44)
0x2c0|         54 5a 69 66                           |   TZif         |    magic: 0x545a6966 (valid) 0x2c3-0x2c7 (4)
0x2c0|                     32                        |       2        |    ver: "2" (0x32) (valid) 0x2c7-0x2c8 (1)
0x2c0|                        00 00 00 00 00 00 00 00|        ........|    reserved: raw bits 0x2c8-0x2d7 (15)
0x2d0|00 00 00 00 00 00 00                           |.......         |
0x2d0|                     00 00 00 08               |       ....     |    isutcnt: 8 0x2d7-0x2db (4)
0x2d0|                                 00 00 00 08   |           .... |    isstdcnt: 8 0x2db-0x2df (4)
0x2d0|                                             00|               .|    leapcnt: 27 0x2df-0x2e3 (4)
0x2e0|00 00 1b                                       |...             |
0x2e0|         00 00 00 47                           |   ...G         |    timecnt: 71 0x2e3-0x2e7 (4)
0x2e0|                     00 00 00 08               |       ....     |    typecnt: 8 0x2e7-0x2eb (4)
0x2e0|                                 00 00 00 1c   |           .... |    charcnt: 28 0x2eb-0x2ef (4)
     |                                               |                |  v2plusdatablock{}: 0x2ef-0x70e (1055)
     |                                               |                |    transition_times[0:71]: 0x2ef-0x527 (568)
0x2e0|                                             ff|               .|      [0]: "1883-11-18T18:00:00Z" (-2717647200) transition_time 0x2ef-0x2f7 (8)
0x2f0|ff ff ff 5e 03 fe a0                           |...^...         |
0x2f0|                     ff ff ff ff 9e a6 2c 80   |       ......,. |      [1]: "1918-03-31T08:00:00Z" (-1633276800) transition_time 0x2f7-0x2ff (8)
0x2f0|                                             ff|               .|      [2]: "1918-10-27T07:00:00Z" (-1615136400) transition_time 0x2ff-0x307 (8)
0x300|ff ff ff 9f ba f9 70                           |......p         |
0x300|                     ff ff ff ff a0 86 0e 80   |       ........ |      [3]: "1919-03-30T08:00:00Z" (-1601827200) transition_time 0x307-0x30f (8)
0x300|                                             ff|               .|      [4]: "1919-10-26T07:00:00Z" (-1583686800) transition_time 0x30f-0x317 (8)
0x310|ff ff ff a1 9a db 70                           |......p         |
0x310|                     ff ff ff ff ca 57 22 80   |       .....W". |      [5]: "1941-06-22T08:00:00Z" (-900259200) transition_time 0x317-0x31f (8)
0x310|                                             ff|               .|      [6]: "1941-09-28T07:00:00Z" (-891795600) transition_time 0x31f-0x327 (8)
0x320|ff ff ff ca d8 47 70                           |.....Gp         |
0x320|                     ff ff ff ff cb 88 fe 80   |       ........ |      [7]: "1942-02-09T08:00:00Z" (-880214400) transition_time 0x327-0x32f (8)
0x320|                                             ff|               .|      [8]: "1945-08-14T23:00:00Z" (-769395600) transition_time 0x32f-0x337 (8)
0x330|ff ff ff d2 23 f4 70                           |....#.p         |
0x330|                     ff ff ff ff d2 61 09 f0   |       .....a.. |      [9]: "1945-09-30T07:00:00Z" (-765392400) transition_time 0x337-0x33f (8)
0x330|                                             ff|               .|      [10]: "1946-04-28T08:00:00Z" (-747244800) transition_time 0x33f-0x347 (8)
0x340|ff ff ff d3 75 f3 00                           |....u..         |
0x340|                     ff ff ff ff d4 40 eb f0   |       .....@.. |      [11]: "1946-09-29T07:00:00Z" (-733942800) transition_time 0x347-0x34f (8)
0x340|                                             ff|               .|      [12]: "1947-04-27T08:00:00Z" (-715795200) transition_time 0x34f-0x357 (8)
0x350|ff ff ff d5 55 d5 00                           |....U..         |
0x350|                     ff ff ff ff d6 20 cd f0   |       ..... .. |      [13]: "1947-09-28T07:00:00Z" (-702493200) transition_time 0x357-0x35f (8)
0x350|                                             ff|               .|      [14]: "1948-04-25T08:00:00Z" (-684345600) transition_time 0x35f-0x367 (8)
0x360|ff ff ff d7 35 b7 00                           |....5..         |
0x360|                     ff ff ff ff d8 00 af f0   |       ........ |      [15]: "1948-09-26T07:00:00Z" (-671043600) transition_time 0x367-0x36f (8)
0x360|                                             ff|               .|      [16]: "1949-04-24T08:00:00Z" (-652896000) transition_time 0x36f-0x377 (8)
0x370|ff ff ff d9 15 99 00                           |.......         |
0x370|                     ff ff ff ff d9 e0 91 f0   |       ........ |      [17]: "1949-09-25T07:00:00Z" (-639594000) transition_time 0x377-0x37f (8)
0x370|                                             ff|               .|      [18]: "1950-04-30T08:00:00Z" (-620841600) transition_time 0x37f-0x387 (8)
0x380|ff ff ff da fe b5 80                           |.......         |
0x380|                     ff ff ff ff db c0 73 f0   |       ......s. |      [19]: "1950-09-24T07:00:00Z" (-608144400) transition_time 0x387-0x38f (8)
0x380|                                             ff|               .|      [20]: "1951-04-29T08:00:00Z" (-589392000) transition_time 0x38f-0x397 (8)
0x390|ff ff ff dc de 97 80                           |.......         |
0x390|                     ff ff ff ff dd a9 90 70   |       .......p |      [21]: "1951-09-30T07:00:00Z" (-576090000) transition_time 0x397-0x39f (8)
0x390|                                             ff|               .|      [22]: "1952-04-27T08:00:00Z" (-557942400) transition_time 0x39f-0x3a7 (8)
0x3a0|ff ff ff de be 79 80                           |.....y.         |
0x3a0|                     ff ff ff ff df 89 72 70   |       ......rp |      [23]: "1952-09-28T07:00:00Z" (-544640400) transition_time 0x3a7-0x3af (8)
0x3a0|                                             ff|               .|      [24]: "1953-04-26T08:00:00Z" (-526492800) transition_time 0x3af-0x3b7 (8)
0x3b0|ff ff ff e0 9e 5b 80                           |.....[.         |
0x3b0|                     ff ff ff ff e1 69 54 70   |       .....iTp |      [25]: "1953-09-27T07:00:00Z" (-513190800) transition_time 0x3b7-0x3bf (8)
0x3b0|                                             ff|               .|      [26]: "1954-04-25T08:00:00Z" (-495043200) transition_time 0x3bf-0x3c7 (8)
0x3c0|ff ff ff e2 7e 3d 80                           |....~=.         |
0x3c0|                     ff ff ff ff e3 49 36 70   |       .....I6p |      [27]: "1954-09-26T07:00:00Z" (-481741200) transition_time 0x3c7-0x3cf (8)
0x3c0|                                             ff|               .|      [28]: "1955-04-24T08:00:00Z" (-463593600) transition_time 0x3cf-0x3d7 (8)
0x3d0|ff ff ff e4 5e 1f 80                           |....^..         |
0x3d0|                     ff ff ff ff e8 f2 16 f0   |       ........ |      [29]: "1957-09-29T07:00:00Z" (-386787600) transition_time 0x3d7-0x3df (8)
0x3d0|                                             ff|               .|      [30]: "1958-04-27T08:00:00Z" (-368640000) transition_time 0x3df-0x3e7 (8)
0x3e0|ff ff ff ea 07 00 00                           |.......         |
0x3e0|                     ff ff ff ff fe b8 1c f0   |       ........ |      [31]: "1969-04-27T07:00:00Z" (-21488400) transition_time 0x3e7-0x3ef (8)
0x3e0|                                             ff|               .|      [32]: "1969-10-26T06:00:00Z" (-5767200) transition_time 0x3ef-0x3f7 (8)
0x3f0|ff ff ff ff a7 ff e0                           |.......         |
0x3f0|                     00 00 00 00 00 97 fe f0   |       ........ |      [33]: "1970-04-26T07:00:00Z" (9961200) transition_time 0x3f7-0x3ff (8)
0x3f0|                                             00|               .|      [34]: "1970-10-25T06:00:00Z" (25682400) transition_time 0x3ff-0x407 (8)
0x400|00 00 00 01 87 e1 e0                           |.......         |
0x400|                     00 00 00 00 44 2f 76 87   |       ....D/v. |      [35]: "2006-04-02T07:00:23Z" (1143961223) transition_time 0x407-0x40f (8)
0x400|                                             00|               .|      [36]: "2006-10-29T06:00:23Z" (1162101623) transition_time 0x40f-0x417 (8)
0x410|00 00 00 45 44 43 77                           |...EDCw         |
0x410|                     00 00 00 00 45 f3 a9 07   |       ....E... |      [37]: "2007-03-11T07:00:23Z" (1173596423) transition_time 0x417-0x41f (8)
0x410|                                             00|               .|      [38]: "2007-11-04T06:00:23Z" (1194156023) transition_time 0x41f-0x427 (8)
0x420|00 00 00 47 2d 5f f7                           |...G-_.         |
0x420|                     00 00 00 00 47 d3 8b 07   |       ....G... |      [39]: "2008-03-09T07:00:23Z" (1205046023) transition_time 0x427-0x42f (8)
0x420|                                             00|               .|      [40]: "2008-11-02T06:00:23Z" (1225605623) transition_time 0x42f-0x437 (8)
0x430|00 00 00 49 0d 41 f7                           |...I.A.         |
0x430|                     00 00 00 00 49 b3 6d 08   |       ....I.m. |      [41]: "2009-03-08T07:00:24Z" (1236495624) transition_time 0x437-0x43f (8)
0x430|                                             00|               .|      [42]: "2009-11-01T06:00:24Z" (1257055224) transition_time 0x43f-0x447 (8)
0x440|00 00 00 4a ed 23 f8                           |...J.#.         |
0x440|                     00 00 00 00 4b 9c 89 88   |       ....K... |      [43]: "2010-03-14T07:00:24Z" (1268550024) transition_time 0x447-0x44f (8)
0x440|                                             00|               .|      [44]: "2010-11-07T06:00:24Z" (1289109624) transition_time 0x44f-0x457 (8)
0x450|00 00 00 4c d6 40 78                           |...L.@x         |
0x450|                     00 00 00 00 4d 7c 6b 88   |       ....M|k. |      [45]: "2011-03-13T07:00:24Z" (1299999624) transition_time 0x457-0x45f (8)
0x450|                                             00|               .|      [46]: "2011-11-06T06:00:24Z" (1320559224) transition_time 0x45f-0x467 (8)
0x460|00 00 00 4e b6 22 78                           |...N."x         |
0x460|                     00 00 00 00 4f 5c 4d 88   |       ....O\M. |      [47]: "2012-03-11T07:00:24Z" (1331449224) transition_time 0x467-0x46f (8)
0x460|                                             00|               .|      [48]: "2012-11-04T06:00:25Z" (1352008825) transition_time 0x46f-0x477 (8)
0x470|00 00 00 50 96 04 79                           |...P..y         |
0x470|                     00 00 00 00 51 3c 2f 89   |       ....Q</. |      [49]: "2013-03-10T07:00:25Z" (1362898825) transition_time 0x477-0x47f (8)
0x470|                                             00|               .|      [50]: "2013-11-03T06:00:25Z" (1383458425) transition_time 0x47f-0x487 (8)
0x480|00 00 00 52 75 e6 79                           |...Ru.y         |
0x480|                     00 00 00 00 53 1c 11 89   |       ....S... |      [51]: "2014-03-09T07:00:25Z" (1394348425) transition_time 0x487-0x48f (8)
0x480|                                             00|               .|      [52]: "2014-11-02T06:00:25Z" (1414908025) transition_time 0x48f-0x497 (8)
0x490|00 00 00 54 55 c8 79                           |...TU.y         |
0x490|                     00 00 00 00 54 fb f3 89   |       ....T... |      [53]: "2015-03-08T07:00:25Z" (1425798025) transition_time 0x497-0x49f (8)
0x490|                                             00|               .|      [54]: "2015-11-01T06:00:26Z" (1446357626) transition_time 0x49f-0x4a7 (8)
0x4a0|00 00 00 56 35 aa 7a                           |...V5.z         |
0x4a0|                     00 00 00 00 56 e5 10 0a   |       ....V... |      [55]: "2016-03-13T07:00:26Z" (1457852426) transition_time 0x4a7-0x4af (8)
0x4a0|                                             00|               .|      [56]: "2016-11-06T06:00:26Z" (1478412026) transition_time 0x4af-0x4b7 (8)
0x4b0|00 00 00 58 1e c6 fa                           |...X...         |
0x4b0|                     00 00 00 00 58 c4 f2 0b   |       ....X... |      [57]: "2017-03-12T07:00:27Z" (1489302027) transition_time 0x4b7-0x4bf (8)
0x4b0|                                             00|               .|      [58]: "2017-11-05T06:00:27Z" (1509861627) transition_time 0x4bf-0x4c7 (8)
0x4c0|00 00 00 59 fe a8 fb                           |...Y...         |
0x4c0|                     00 00 00 00 5a a4 d4 0b   |       ....Z... |      [59]: "2018-03-11T07:00:27Z" (1520751627) transition_time 0x4c7-0x4cf (8)
0x4c0|                                             00|               .|      [60]: "2018-11-04T06:00:27Z" (1541311227) transition_time 0x4cf-0x4d7 (8)
0x4d0|00 00 00 5b de 8a fb                           |...[...         |
0x4d0|                     00 00 00 00 5c 84 b6 0b   |       ....\... |      [61]: "2019-03-10T07:00:27Z" (1552201227) transition_time 0x4d7-0x4df (8)
0x4d0|                                             00|               .|      [62]: "2019-11-03T06:00:27Z" (1572760827) transition_time 0x4df-0x4e7 (8)
0x4e0|00 00 00 5d be 6c fb                           |...].l.         |
0x4e0|                     00 00 00 00 5e 64 98 0b   |       ....^d.. |      [63]: "2020-03-08T07:00:27Z" (1583650827) transition_time 0x4e7-0x4ef (8)
0x4e0|                                             00|               .|      [64]: "2020-11-01T06:00:27Z" (1604210427) transition_time 0x4ef-0x4f7 (8)
0x4f0|00 00 00 5f 9e 4e fb                           |..._.N.         |
0x4f0|                     00 00 00 00 60 4d b4 8b   |       ....`M.. |      [65]: "2021-03-14T07:00:27Z" (1615705227) transition_time 0x4f7-0x4ff (8)
0x4f0|                                             00|               .|      [66]: "2021-11-07T06:00:27Z" (1636264827) transition_time 0x4ff-0x507 (8)
0x500|00 00 00 61 87 6b 7b                           |...a.k{         |
0x500|                     00 00 00 00 62 2d 96 8b   |       ....b-.. |      [67]: "2022-03-13T07:00:27Z" (1647154827) transition_time 0x507-0x50f (8)
0x500|                                             00|               .|      [68]: "2022-11-06T06:00:27Z" (1667714427) transition_time 0x50f-0x517 (8)
0x510|00 00 00 63 67 4d 7b                           |...cgM{         |
0x510|                     00 00 00 00 64 0d 78 8b   |       ....d.x. |      [69]: "2023-03-12T07:00:27Z" (1678604427) transition_time 0x517-0x51f (8)
0x510|                                             00|               .|      [70]: "2023-06-28T00:00:27Z" (1687910427) transition_time 0x51f-0x527 (8)
0x520|00 00 00 64 9b 78 1b                           |...d.x.         |
     |                                               |                |    transition_types[0:71]: 0x527-0x56e (71)
0x520|                     03                        |       .        |      [0]: 3 transition_type 0x527-0x528 (1)
0x520|                        01                     |        .       |      [1]: 1 transition_type 0x528-0x529 (1)
0x520|                           02                  |         .      |      [2]: 2 transition_type 0x529-0x52a (1)
0x520|                              01               |          .     |      [3]: 1 transition_type 0x52a-0x52b (1)
0x520|                                 02            |           .    |      [4]: 2 transition_type 0x52b-0x52c (1)
0x520|                                    01         |            .   |      [5]: 1 transition_type 0x52c-0x52d (1)
0x520|                                       02      |             .  |      [6]: 2 transition_type 0x52d-0x52e (1)
0x520|                                          04   |              . |      [7]: 4 transition_type 0x52e-0x52f (1)
0x520|                                             05|               .|      [8]: 5 transition_type 0x52f-0x530 (1)
0x530|02                                             |.               |      [9]: 2 transition_type 0x530-0x531 (1)
0x530|   01                                          | .              |      [10]: 1 transition_type 0x531-0x532 (1)
0x530|      02                                       |  .             |      [11]: 2 transition_type 0x532-0x533 (1)
0x530|         01                                    |   .            |      [12]: 1 transition_type 0x533-0x534 (1)
0x530|            02                                 |    .           |      [13]: 2 transition_type 0x534-0x535 (1)
0x530|               01                              |     .          |      [14]: 1 transition_type 0x535-0x536 (1)
0x530|                  02                           |      .         |      [15]: 2 transition_type 0x536-0x537 (1)
0x530|                     01                        |       .        |      [16]: 1 transition_type 0x537-0x538 (1)
0x530|                        02                     |        .       |      [17]: 2 transition_type 0x538-0x539 (1)
0x530|                           01                  |         .      |      [18]: 1 transition_type 0x539-0x53a (1)
0x530|                              02               |          .     |      [19]: 2 transition_type 0x53a-0x53b (1)
0x530|                                 01            |           .    |      [20]: 1 transition_type 0x53b-0x53c (1)
0x530|                                    02         |            .   |      [21]: 2 transition_type 0x53c-0x53d (1)
0x530|                                       01      |             .  |      [22]: 1 transition_type 0x53d-0x53e (1)
0x530|                                          02   |              . |      [23]: 2 transition_type 0x53e-0x53f (1)
0x530|                                             01|               .|      [24]: 1 transition_type 0x53f-0x540 (1)
0x540|02                                             |.               |      [25]: 2 transition_type 0x540-0x541 (1)
0x540|   01                                          | .              |      [26]: 1 transition_type 0x541-0x542 (1)
0x540|      02                                       |  .             |      [27]: 2 transition_type 0x542-0x543 (1)
0x540|         06                                    |   .            |      [28]: 6 transition_type 0x543-0x544 (1)
0x540|            02                                 |    .           |      [29]: 2 transition_type 0x544-0x545 (1)
0x540|               06                              |     .          |      [30]: 6 transition_type 0x545-0x546 (1)
0x540|                  07                           |      .         |      [31]: 7 transition_type 0x546-0x547 (1)
0x540|                     06                        |       .        |      [32]: 6 transition_type 0x547-0x548 (1)
0x540|                        07                     |        .       |      [33]: 7 transition_type 0x548-0x549 (1)
0x540|                           06                  |         .      |      [34]: 6 transition_type 0x549-0x54a (1)
0x540|                              07               |          .     |      [35]: 7 transition_type 0x54a-0x54b (1)
0x540|                                 06            |           .    |      [36]: 6 transition_type 0x54b-0x54c (1)
0x540|                                    07         |            .   |      [37]: 7 transition_type 0x54c-0x54d (1)
0x540|                                       06      |             .  |      [38]: 6 transition_type 0x54d-0x54e (1)
0x540|                                          07   |              . |      [39]: 7 transition_type 0x54e-0x54f (1)
0x540|                                             06|               .|      [40]: 6 transition_type 0x54f-0x550 (1)
0x550|07                                             |.               |      [41]: 7 transition_type 0x550-0x551 (1)
0x550|   06                                          | .              |      [42]: 6 transition_type 0x551-0x552 (1)
0x550|      07                                       |  .             |      [43]: 7 transition_type 0x552-0x553 (1)
0x550|         06                                    |   .            |      [44]: 6 transition_type 0x553-0x554 (1)
0x550|            07                                 |    .           |      [45]: 7 transition_type 0x554-0x555 (1)
0x550|               06                              |     .          |      [46]: 6 transition_type 0x555-0x556 (1)
0x550|                  07                           |      .         |      [47]: 7 transition_type 0x556-0x557 (1)
0x550|                     06                        |       .        |      [48]: 6 transition_type 0x557-0x558 (1)
0x550|                        07                     |        .       |      [49]: 7 transition_type 0x558-0x559 (1)
0x550|                           06                  |         .      |      [50]: 6 transition_type 0x559-0x55a (1)
0x550|                              07               |          .     |      [51]: 7 transition_type 0x55a-0x55b (1)
0x550|                                 06            |           .    |      [52]: 6 transition_type 0x55b-0x55c (1)
0x550|                                    07         |            .   |      [53]: 7 transition_type 0x55c-0x55d (1)
0x550|                                       06      |             .  |      [54]: 6 transition_type 0x55d-0x55e (1)
0x550|                                          07   |              . |      [55]: 7 transition_type 0x55e-0x55f (1)
0x550|                                             06|               .|      [56]: 6 transition_type 0x55f-0x560 (1)
0x560|07                                             |.               |      [57]: 7 transition_type 0x560-0x561 (1)
0x560|   06                                          | .              |      [58]: 6 transition_type 0x561-0x562 (1)
0x560|      07                                       |  .             |      [59]: 7 transition_type 0x562-0x563 (1)
0x560|         06                                    |   .            |      [60]: 6 transition_type 0x563-0x564 (1)
0x560|            07                                 |    .           |      [61]: 7 transition_type 0x564-0x565 (1)
0x560|               06                              |     .          |      [62]: 6 transition_type 0x565-0x566 (1)
0x560|                  07                           |      .         |      [63]: 7 transition_type 0x566-0x567 (1)
0x560|                     06                        |       .        |      [64]: 6 transition_type 0x567-0x568 (1)
0x560|                        07                     |        .       |      [65]: 7 transition_type 0x568-0x569 (1)
0x560|                           06                  |         .      |      [66]: 6 transition_type 0x569-0x56a (1)
0x560|                              07               |          .     |      [67]: 7 transition_type 0x56a-0x56b (1)
0x560|                                 06            |           .    |      [68]: 6 transition_type 0x56b-0x56c (1)
0x560|                                    07         |            .   |      [69]: 7 transition_type 0x56c-0x56d (1)
0x560|                                       07      |             .  |      [70]: 7 transition_type 0x56d-0x56e (1)
     |                                               |                |    local_time_type_records[0:8]: 0x56e-0x59e (48)
     |                                               |                |      [0]{}: local_time_type 0x56e-0x574 (6)
0x560|                                          ff ff|              ..|        utoff: -20678 (valid) 0x56e-0x572 (4)
0x570|af 3a                                          |.:              |
0x570|      00                                       |  .             |        dst: 0 (valid) 0x572-0x573 (1)
0x570|         00                                    |   .            |        idx: 0 (valid) 0x573-0x574 (1)
     |                                               |                |      [1]{}: local_time_type 0x574-0x57a (6)
0x570|            ff ff b9 b0                        |    ....        |        utoff: -18000 (valid) 0x574-0x578 (4)
0x570|                        01                     |        .       |        dst: 1 (valid) 0x578-0x579 (1)
0x570|                           04                  |         .      |        idx: 4 (valid) 0x579-0x57a (1)
     |                                               |                |      [2]{}: local_time_type 0x57a-0x580 (6)
0x570|                              ff ff ab a0      |          ....  |        utoff: -21600 (valid) 0x57a-0x57e (4)
0x570|                                          00   |              . |        dst: 0 (valid) 0x57e-0x57f (1)
0x570|                                             08|               .|        idx: 8 (valid) 0x57f-0x580 (1)
     |                                               |                |      [3]{}: local_time_type 0x580-0x586 (6)
0x580|ff ff ab a0                                    |....            |        utoff: -21600 (valid) 0x580-0x584 (4)
0x580|            00                                 |    .           |        dst: 0 (valid) 0x584-0x585 (1)
0x580|               08                              |     .          |        idx: 8 (valid) 0x585-0x586 (1)
     |                                               |                |      [4]{}: local_time_type 0x586-0x58c (6)
0x580|                  ff ff b9 b0                  |      ....      |        utoff: -18000 (valid) 0x586-0x58a (4)
0x580|                              01               |          .     |        dst: 1 (valid) 0x58a-0x58b (1)
0x580|                                 0c            |           .    |        idx: 12 (valid) 0x58b-0x58c (1)
     |                                               |                |      [5]{}: local_time_type 0x58c-0x592 (6)
0x580|                                    ff ff b9 b0|            ....|        utoff: -18000 (valid) 0x58c-0x590 (4)
0x590|01                                             |.               |        dst: 1 (valid) 0x590-0x591 (1)
0x590|   10                                          | .              |        idx: 16 (valid) 0x591-0x592 (1)
     |                                               |                |      [6]{}: local_time_type 0x592-0x598 (6)
0x590|      ff ff b9 b0                              |  ....          |        utoff: -18000 (valid) 0x592-0x596 (4)
0x590|                  00                           |      .         |        dst: 0 (valid) 0x596-0x597 (1)
0x590|                     14                        |       .        |        idx: 20 (valid) 0x597-0x598 (1)
     |                                               |                |      [7]{}: local_time_type 0x598-0x59e (6)
0x590|                        ff ff c7 c0            |        ....    |        utoff: -14400 (valid) 0x598-0x59c (4)
0x590|                                    01         |            .   |        dst: 1 (valid) 0x59c-0x59d (1)
0x590|                                       18      |             .  |        idx: 24 (valid) 0x59d-0x59e (1)
     |                                               |                |    time_zone_designations[0:7]: 0x59e-0x5ba (28)
0x590|                                          4c 4d|              LM|      [0]: "LMT" time_zone_designation 0x59e-0x5a2 (4)
0x5a0|54 00                                          |T.              |
0x5a0|      43 44 54 00                              |  CDT.          |      [1]: "CDT" time_zone_designation 0x5a2-0x5a6 (4)
0x5a0|                  43 53 54 00                  |      CST.      |      [2]: "CST" time_zone_designation 0x5a6-0x5aa (4)
0x5a0|                              43 57 54 00      |          CWT.  |      [3]: "CWT" time_zone_designation 0x5aa-0x5ae (4)
0x5a0|                                          43 50|              CP|      [4]: "CPT" time_zone_designation 0x5ae-0x5b2 (4)
0x5b0|54 00                                          |T.              |
0x5b0|      45 53 54 00                              |  EST.          |      [5]: "EST" time_zone_designation 0x5b2-0x5b6 (4)
0x5b0|                  45 44 54 00                  |      EDT.      |      [6]: "EDT" time_zone_designation 0x5b6-0x5ba (4)
     |                                               |                |    leap_second_records[0:27]: 0x5ba-0x6fe (324)
     |                                               |                |      [0]{}: leap_second_record 0x5ba-0x5c6 (12)
0x5b0|                              00 00 00 00 04 b2|          ......|        occur: "1972-07-01T00:00:00Z" (78796800) 0x5ba-0x5c2 (8)
0x5c0|58 00                                          |X.              |
0x5c0|      00 00 00 01                              |  ....          |        corr: 1 0x5c2-0x5c6 (4)
     |                                               |                |      [1]{}: leap_second_record 0x5c6-0x5d2 (12)
0x5c0|                  00 00 00 00 05 a4 ec 01      |      ........  |        occur: "1973-01-01T00:00:01Z" (94694401) 0x5c6-0x5ce (8)
0x5c0|                                          00 00|              ..|        corr: 2 0x5ce-0x5d2 (4)
0x5d0|00 02                                          |..              |
     |                                               |                |      [2]{}: leap_second_record 0x5d2-0x5de (12)
0x5d0|      00 00 00 00 07 86 1f 82                  |  ........      |        occur: "1974-01-01T00:00:02Z" (126230402) 0x5d2-0x5da (8)
0x5d0|                              00 00 00 03      |          ....  |        corr: 3 0x5da-0x5de (4)
     |                                               |                |      [3]{}: leap_second_record 0x5de-0x5ea (12)
0x5d0|                                          00 00|              ..|        occur: "1975-01-01T00:00:03Z" (157766403) 0x5de-0x5e6 (8)
0x5e0|00 00 09 67 53 03                              |...gS.          |
0x5e0|                  00 00 00 04                  |      ....      |        corr: 4 0x5e6-0x5ea (4)
     |                                               |                |      [4]{}: leap_second_record 0x5ea-0x5f6 (12)
0x5e0|                              00 00 00 00 0b 48|          .....H|        occur: "1976-01-01T00:00:04Z" (189302404) 0x5ea-0x5f2 (8)
0x5f0|86 84                                          |..              |
0x5f0|      00 00 00 05                              |  ....          |        corr: 5 0x5f2-0x5f6 (4)
     |                                               |                |      [5]{}: leap_second_record 0x5f6-0x602 (12)
0x5f0|                  00 00 00 00 0d 2b 0b 85      |      .....+..  |        occur: "1977-01-01T00:00:05Z" (220924805) 0x5f6-0x5fe (8)
0x5f0|                                          00 00|              ..|        corr: 6 0x5fe-0x602 (4)
0x600|00 06                                          |..              |
     |                                               |                |      [6]{}: leap_second_record 0x602-0x60e (12)
0x600|      00 00 00 00 0f 0c 3f 06                  |  ......?.      |        occur: "1978-01-01T00:00:06Z" (252460806) 0x602-0x60a (8)
0x600|                              00 00 00 07      |          ....  |        corr: 7 0x60a-0x60e (4)
     |                                               |                |      [7]{}: leap_second_record 0x60e-0x61a (12)
0x600|                                          00 00|              ..|        occur: "1979-01-01T00:00:07Z" (283996807) 0x60e-0x616 (8)
0x610|00 00 10 ed 72 87                              |....r.          |
0x610|                  00 00 00 08                  |      ....      |        corr: 8 0x616-0x61a (4)
     |                                               |                |      [8]{}: leap_second_record 0x61a-0x626 (12)
0x610|                              00 00 00 00 12 ce|          ......|        occur: "1980-01-01T00:00:08Z" (315532808) 0x61a-0x622 (8)
0x620|a6 08                                          |..              |
0x620|      00 00 00 09                              |  ....          |        corr: 9 0x622-0x626 (4)
     |                                               |                |      [9]{}: leap_second_record 0x626-0x632 (12)
0x620|                  00 00 00 00 15 9f ca 89      |      ........  |        occur: "1981-07-01T00:00:09Z" (362793609) 0x626-0x62e (8)
0x620|                                          00 00|              ..|        corr: 10 0x62e-0x632 (4)
0x630|00 0a                                          |..              |
     |                                               |                |      [10]{}: leap_second_record 0x632-0x63e (12)
0x630|      00 00 00 00 17 80 fe 0a                  |  ........      |        occur: "1982-07-01T00:00:10Z" (394329610) 0x632-0x63a (8)
0x630|                              00 00 00 0b      |          ....  |        corr: 11 0x63a-0x63e (4)
     |                                               |                |      [11]{}: leap_second_record 0x63e-0x64a (12)
0x630|                                          00 00|              ..|        occur: "1983-07-01T00:00:11Z" (425865611) 0x63e-0x646 (8)
0x640|00 00 19 62 31 8b                              |...b1.          |
0x640|                  00 00 00 0c                  |      ....      |        corr: 12 0x646-0x64a (4)
     |                                               |                |      [12]{}: leap_second_record 0x64a-0x656 (12)
0x640|                              00 00 00 00 1d 25|          .....%|        occur: "1985-07-01T00:00:12Z" (489024012) 0x64a-0x652 (8)
0x650|ea 0c                                          |..              |
0x650|      00 00 00 0d                              |  ....          |        corr: 13 0x652-0x656 (4)
     |                                               |                |      [13]{}: leap_second_record 0x656-0x662 (12)
0x650|                  00 00 00 00 21 da e5 0d      |      ....!...  |        occur: "1988-01-01T00:00:13Z" (567993613) 0x656-0x65e (8)
0x650|                                          00 00|              ..|        corr: 14 0x65e-0x662 (4)
0x660|00 0e                                          |..              |
     |                                               |                |      [14]{}: leap_second_record 0x662-0x66e (12)
0x660|      00 00 00 00 25 9e 9d 8e                  |  ....%...      |        occur: "1990-01-01T00:00:14Z" (631152014) 0x662-0x66a (8)
0x660|                              00 00 00 0f      |          ....  |        corr: 15 0x66a-0x66e (4)
     |                                               |                |      [15]{}: leap_second_record 0x66e-0x67a (12)
0x660|                                          00 00|              ..|        occur: "1991-01-01T00:00:15Z" (662688015) 0x66e-0x676 (8)
0x670|00 00 27 7f d1 0f                              |..'...          |
0x670|                  00 00 00 10                  |      ....      |        corr: 16 0x676-0x67a (4)
     |                                               |                |      [16]{}: leap_second_record 0x67a-0x686 (12)
0x670|                              00 00 00 00 2a 50|          ....*P|        occur: "1992-07-01T00:00:16Z" (709948816) 0x67a-0x682 (8)
0x680|f5 90                                          |..              |
0x680|      00 00 00 11                              |  ....          |        corr: 17 0x682-0x686 (4)
     |                                               |                |      [17]{}: leap_second_record 0x686-0x692 (12)
0x680|                  00 00 00 00 2c 32 29 11      |      ....,2).  |        occur: "1993-07-01T00:00:17Z" (741484817) 0x686-0x68e (8)
0x680|                                          00 00|              ..|        corr: 18 0x68e-0x692 (4)
0x690|00 12                                          |..              |
     |                                               |                |      [18]{}: leap_second_record 0x692-0x69e (12)
0x690|      00 00 00 00 2e 13 5c 92                  |  ......\.      |        occur: "1994-07-01T00:00:18Z" (773020818) 0x692-0x69a (8)
0x690|                              00 00 00 13      |          ....  |        corr: 19 0x69a-0x69e (4)
     |                                               |                |      [19]{}: leap_second_record 0x69e-0x6aa (12)
0x690|                                          00 00|              ..|        occur: "1996-01-01T00:00:19Z" (820454419) 0x69e-0x6a6 (8)
0x6a0|00 00 30 e7 24 13                              |..0.$.          |
0x6a0|                  00 00 00 14                  |      ....      |        corr: 20 0x6a6-0x6aa (4)
     |                                               |                |      [20]{}: leap_second_record 0x6aa-0x6b6 (12)
0x6a0|                              00 00 00 00 33 b8|          ....3.|        occur: "1997-07-01T00:00:20Z" (867715220) 0x6aa-0x6b2 (8)
0x6b0|48 94                                          |H.              |
0x6b0|      00 00 00 15                              |  ....          |        corr: 21 0x6b2-0x6b6 (4)
     |                                               |                |      [21]{}: leap_second_record 0x6b6-0x6c2 (12)
0x6b0|                  00 00 00 00 36 8c 10 15      |      ....6...  |        occur: "1999-01-01T00:00:21Z" (915148821) 0x6b6-0x6be (8)
0x6b0|                                          00 00|              ..|        corr: 22 0x6be-0x6c2 (4)
0x6c0|00 16                                          |..              |
     |                                               |                |      [22]{}: leap_second_record 0x6c2-0x6ce (12)
0x6c0|      00 00 00 00 43 b7 1b 96                  |  ....C...      |        occur: "2006-01-01T00:00:22Z" (1136073622) 0x6c2-0x6ca (8)
0x6c0|                              00 00 00 17      |          ....  |        corr: 23 0x6ca-0x6ce (4)
     |                                               |                |      [23]{}: leap_second_record 0x6ce-0x6da (12)
0x6c0|                                          00 00|              ..|        occur: "2009-01-01T00:00:23Z" (1230768023) 0x6ce-0x6d6 (8)
0x6d0|00 00 49 5c 07 97                              |..I\..          |
0x6d0|                  00 00 00 18                  |      ....      |        corr: 24 0x6d6-0x6da (4)
     |                                               |                |      [24]{}: leap_second_record 0x6da-0x6e6 (12)
0x6d0|                              00 00 00 00 4f ef|          ....O.|        occur: "2012-07-01T00:00:24Z" (1341100824) 0x6da-0x6e2 (8)
0x6e0|93 18                                          |..              |
0x6e0|      00 00 00 19                              |  ....          |        corr: 25 0x6e2-0x6e6 (4)
     |                                               |                |      [25]{}: leap_second_record 0x6e6-0x6f2 (12)
0x6e0|                  00 00 00 00 55 93 2d 99      |      ....U.-.  |        occur: "2015-07-01T00:00:25Z" (1435708825) 0x6e6-0x6ee (8)
0x6e0|                                          00 00|              ..|        corr: 26 0x6ee-0x6f2 (4)
0x6f0|00 1a                                          |..              |
     |                                               |                |      [26]{}: leap_second_record 0x6f2-0x6fe (12)
0x6f0|      00 00 00 00 58 68 46 9a                  |  ....XhF.      |        occur: "2017-01-01T00:00:26Z" (1483228826) 0x6f2-0x6fa (8)
0x6f0|                              00 00 00 1b      |          ....  |        corr: 27 0x6fa-0x6fe (4)
     |                                               |                |    standard_wall_indicators[0:8]: 0x6fe-0x706 (8)
0x6f0|                                          00   |              . |      [0]: 0 standard_wall_indicator (valid) 0x6fe-0x6ff (1)
0x6f0|                                             00|               .|      [1]: 0 standard_wall_indicator (valid) 0x6ff-0x700 (1)
0x700|00                                             |.               |      [2]: 0 standard_wall_indicator (valid) 0x700-0x701 (1)
0x700|   01                                          | .              |      [3]: 1 standard_wall_indicator (valid) 0x701-0x702 (1)
0x700|      00                                       |  .             |      [4]: 0 standard_wall_indicator (valid) 0x702-0x703 (1)
0x700|         01                                    |   .            |      [5]: 1 standard_wall_indicator (valid) 0x703-0x704 (1)
0x700|            00                                 |    .           |      [6]: 0 standard_wall_indicator (valid) 0x704-0x705 (1)
0x700|               00                              |     .          |      [7]: 0 standard_wall_indicator (valid) 0x705-0x706 (1)
     |                                               |                |    ut_local_indicators[0:8]: 0x706-0x70e (8)
0x700|                  00                           |      .         |      [0]: 0 ut_local_indicator (valid) 0x706-0x707 (1)
0x700|                     00                        |       .        |      [1]: 0 ut_local_indicator (valid) 0x707-0x708 (1)
0x700|                        00                     |        .       |      [2]: 0 ut_local_indicator (valid) 0x708-0x709 (1)
0x700|                           01                  |         .      |      [3]: 1 ut_local_indicator (valid) 0x709-0x70a (1)
0x700|                              00               |          .     |      [4]: 0 ut_local_indicator (valid) 0x70a-0x70b (1)
0x700|                                 01            |           .    |      [5]: 1 ut_local_indicator (valid) 0x70b-0x70c (1)
0x700|                                    00         |            .   |      [6]: 0 ut_local_indicator (valid) 0x70c-0x70d (1)
0x700|                                       00      |             .  |      [7]: 0 ut_local_indicator (valid) 0x70d-0x70e (1)
     |                                               |                |  footer{}: 0x70e-0x710 (2)
0x700|                                          0a   |              . |    nl1: 10 (valid) 0x70e-0x70f (1)
     |                                               |                |    tz_string: "" 0x70f-0x70f (0)
0x700|                                             0a|               .|    nl2: 10 (valid) 0x70f-0x710 (1)
