$ fq -d tzif dv Inuvik
     |00 01 02 03 04 05 06 07 08 09 0a 0b 0c 0d 0e 0f|0123456789abcdef|.{}: Inuvik (tzif) 0x0-0x7e3.7 (2020)
     |                                               |                |  v1header{}: 0x0-0x2b.7 (44)
0x000|54 5a 69 66                                    |TZif            |    magic: 0x545a6966 (valid) 0x0-0x3.7 (4)
0x000|            32                                 |    2           |    ver: "2" (0x32) (valid) 0x4-0x4.7 (1)
0x000|               00 00 00 00 00 00 00 00 00 00 00|     ...........|    reserved: raw bits 0x5-0x13.7 (15)
0x010|00 00 00 00                                    |....            |
0x010|            00 00 00 00                        |    ....        |    isutcnt: 0 0x14-0x17.7 (4)
0x010|                        00 00 00 00            |        ....    |    isstdcnt: 0 0x18-0x1b.7 (4)
0x010|                                    00 00 00 1b|            ....|    leapcnt: 27 0x1c-0x1f.7 (4)
0x020|00 00 00 5c                                    |...\            |    timecnt: 92 0x20-0x23.7 (4)
0x020|            00 00 00 05                        |    ....        |    typecnt: 5 0x24-0x27.7 (4)
0x020|                        00 00 00 15            |        ....    |    charcnt: 21 0x28-0x2b.7 (4)
     |                                               |                |  v1datablock{}: 0x2c-0x302.7 (727)
     |                                               |                |    transition_times[0:92]: 0x2c-0x19b.7 (368)
0x020|                                    e0 06 4e 80|            ..N.|      [0]: "1953-01-01T00:00:00Z" (-536457600) transition_time 0x2c-0x2f.7 (4)
0x030|f7 2f 68 80                                    |./h.            |      [1]: "1965-04-25T08:00:00Z" (-147888000) transition_time 0x30-0x33.7 (4)
0x030|            f8 28 94 00                        |    .(..        |      [2]: "1965-10-31T08:00:00Z" (-131558400) transition_time 0x34-0x37.7 (4)
0x030|                        11 89 90 28            |        ...(    |      [3]: "1979-04-29T10:00:08Z" (294228008) transition_time 0x38-0x3b.7 (4)
0x030|                                    13 69 64 19|            .id.|      [4]: "1980-04-27T09:00:09Z" (325674009) transition_time 0x3c-0x3f.7 (4)
0x040|14 59 47 09                                    |.YG.            |      [5]: "1980-10-26T08:00:09Z" (341395209) transition_time 0x40-0x43.7 (4)
0x040|            15 49 46 19                        |    .IF.        |      [6]: "1981-04-26T09:00:09Z" (357123609) transition_time 0x44-0x47.7 (4)
0x040|                        16 39 29 0a            |        .9).    |      [7]: "1981-10-25T08:00:10Z" (372844810) transition_time 0x48-0x4b.7 (4)
0x040|                                    17 29 28 1a|            .)(.|      [8]: "1982-04-25T09:00:10Z" (388573210) transition_time 0x4c-0x4f.7 (4)
0x050|18 22 45 8b                                    |."E.            |      [9]: "1982-10-31T08:00:11Z" (404899211) transition_time 0x50-0x53.7 (4)
0x050|            19 09 0a 1b                        |    ....        |      [10]: "1983-04-24T09:00:11Z" (420022811) transition_time 0x54-0x57.7 (4)
0x050|                        1a 02 27 8c            |        ..'.    |      [11]: "1983-10-30T08:00:12Z" (436348812) transition_time 0x58-0x5b.7 (4)
0x050|                                    1a f2 26 9c|            ..&.|      [12]: "1984-04-29T09:00:12Z" (452077212) transition_time 0x5c-0x5f.7 (4)
0x060|1b e2 09 8c                                    |....            |      [13]: "1984-10-28T08:00:12Z" (467798412) transition_time 0x60-0x63.7 (4)
0x060|            1c d2 08 9c                        |    ....        |      [14]: "1985-04-28T09:00:12Z" (483526812) transition_time 0x64-0x67.7 (4)
0x060|                        1d c1 eb 8d            |        ....    |      [15]: "1985-10-27T08:00:13Z" (499248013) transition_time 0x68-0x6b.7 (4)
0x060|                                    1e b1 ea 9d|            ....|      [16]: "1986-04-27T09:00:13Z" (514976413) transition_time 0x6c-0x6f.7 (4)
0x070|1f a1 cd 8d                                    |....            |      [17]: "1986-10-26T08:00:13Z" (530697613) transition_time 0x70-0x73.7 (4)
0x070|            20 76 1d 1d                        |     v..        |      [18]: "1987-04-05T09:00:13Z" (544611613) transition_time 0x74-0x77.7 (4)
0x070|                        21 81 af 8d            |        !...    |      [19]: "1987-10-25T08:00:13Z" (562147213) transition_time 0x78-0x7b.7 (4)
0x070|                                    22 55 ff 1e|            "U..|      [20]: "1988-04-03T09:00:14Z" (576061214) transition_time 0x7c-0x7f.7 (4)
0x080|23 6a cc 0e                                    |#j..            |      [21]: "1988-10-30T08:00:14Z" (594201614) transition_time 0x80-0x83.7 (4)
0x080|            24 35 e1 1e                        |    $5..        |      [22]: "1989-04-02T09:00:14Z" (607510814) transition_time 0x84-0x87.7 (4)
0x080|                        25 4a ae 0e            |        %J..    |      [23]: "1989-10-29T08:00:14Z" (625651214) transition_time 0x88-0x8b.7 (4)
0x080|                                    26 15 c3 1f|            &...|      [24]: "1990-04-01T09:00:15Z" (638960415) transition_time 0x8c-0x8f.7 (4)
0x090|27 2a 90 0f                                    |'*..            |      [25]: "1990-10-28T08:00:15Z" (657100815) transition_time 0x90-0x93.7 (4)
0x090|            27 fe df a0                        |    '...        |      [26]: "1991-04-07T09:00:16Z" (671014816) transition_time 0x94-0x97.7 (4)
0x090|                        29 0a 72 10            |        ).r.    |      [27]: "1991-10-27T08:00:16Z" (688550416) transition_time 0x98-0x9b.7 (4)
0x090|                                    29 de c1 a0|            )...|      [28]: "1992-04-05T09:00:16Z" (702464416) transition_time 0x9c-0x9f.7 (4)
0x0a0|2a ea 54 11                                    |*.T.            |      [29]: "1992-10-25T08:00:17Z" (720000017) transition_time 0xa0-0xa3.7 (4)
0x0a0|            2b be a3 a1                        |    +...        |      [30]: "1993-04-04T09:00:17Z" (733914017) transition_time 0xa4-0xa7.7 (4)
0x0a0|                        2c d3 70 92            |        ,.p.    |      [31]: "1993-10-31T08:00:18Z" (752054418) transition_time 0xa8-0xab.7 (4)
0x0a0|                                    2d 9e 85 a2|            -...|      [32]: "1994-04-03T09:00:18Z" (765363618) transition_time 0xac-0xaf.7 (4)
0x0b0|2e b3 52 93                                    |..R.            |      [33]: "1994-10-30T08:00:19Z" (783504019) transition_time 0xb0-0xb3.7 (4)
0x0b0|            2f 7e 67 a3                        |    /~g.        |      [34]: "1995-04-02T09:00:19Z" (796813219) transition_time 0xb4-0xb7.7 (4)
0x0b0|                        30 93 34 93            |        0.4.    |      [35]: "1995-10-29T08:00:19Z" (814953619) transition_time 0xb8-0xbb.7 (4)
0x0b0|                                    31 67 84 24|            1g.$|      [36]: "1996-04-07T09:00:20Z" (828867620) transition_time 0xbc-0xbf.7 (4)
0x0c0|32 73 16 94                                    |2s..            |      [37]: "1996-10-27T08:00:20Z" (846403220) transition_time 0xc0-0xc3.7 (4)
0x0c0|            33 47 66 24                        |    3Gf$        |      [38]: "1997-04-06T09:00:20Z" (860317220) transition_time 0xc4-0xc7.7 (4)
0x0c0|                        34 52 f8 95            |        4R..    |      [39]: "1997-10-26T08:00:21Z" (877852821) transition_time 0xc8-0xcb.7 (4)
0x0c0|                                    35 27 48 25|            5'H%|      [40]: "1998-04-05T09:00:21Z" (891766821) transition_time 0xcc-0xcf.7 (4)
0x0d0|36 32 da 95                                    |62..            |      [41]: "1998-10-25T08:00:21Z" (909302421) transition_time 0xd0-0xd3.7 (4)
0x0d0|            37 07 2a 26                        |    7.*&        |      [42]: "1999-04-04T09:00:22Z" (923216422) transition_time 0xd4-0xd7.7 (4)
0x0d0|                        38 1b f7 16            |        8...    |      [43]: "1999-10-31T08:00:22Z" (941356822) transition_time 0xd8-0xdb.7 (4)
0x0d0|                                    38 e7 0c 26|            8..&|      [44]: "2000-04-02T09:00:22Z" (954666022) transition_time 0xdc-0xdf.7 (4)
0x0e0|39 fb d9 16                                    |9...            |      [45]: "2000-10-29T08:00:22Z" (972806422) transition_time 0xe0-0xe3.7 (4)
0x0e0|            3a c6 ee 26                        |    :..&        |      [46]: "2001-04-01T09:00:22Z" (986115622) transition_time 0xe4-0xe7.7 (4)
0x0e0|                        3b db bb 16            |        ;...    |      [47]: "2001-10-28T08:00:22Z" (1004256022) transition_time 0xe8-0xeb.7 (4)
0x0e0|                                    3c b0 0a a6|            <...|      [48]: "2002-04-07T09:00:22Z" (1018170022) transition_time 0xec-0xef.7 (4)
0x0f0|3d bb 9d 16                                    |=...            |      [49]: "2002-10-27T08:00:22Z" (1035705622) transition_time 0xf0-0xf3.7 (4)
0x0f0|            3e 8f ec a6                        |    >...        |      [50]: "2003-04-06T09:00:22Z" (1049619622) transition_time 0xf4-0xf7.7 (4)
0x0f0|                        3f 9b 7f 16            |        ?...    |      [51]: "2003-10-26T08:00:22Z" (1067155222) transition_time 0xf8-0xfb.7 (4)
0x0f0|                                    40 6f ce a6|            @o..|      [52]: "2004-04-04T09:00:22Z" (1081069222) transition_time 0xfc-0xff.7 (4)
0x100|41 84 9b 96                                    |A...            |      [53]: "2004-10-31T08:00:22Z" (1099209622) transition_time 0x100-0x103.7 (4)
0x100|            42 4f b0 a6                        |    BO..        |      [54]: "2005-04-03T09:00:22Z" (1112518822) transition_time 0x104-0x107.7 (4)
0x100|                        43 64 7d 96            |        Cd}.    |      [55]: "2005-10-30T08:00:22Z" (1130659222) transition_time 0x108-0x10b.7 (4)
0x100|                                    44 2f 92 a7|            D/..|      [56]: "2006-04-02T09:00:23Z" (1143968423) transition_time 0x10c-0x10f.7 (4)
0x110|45 44 5f 97                                    |ED_.            |      [57]: "2006-10-29T08:00:23Z" (1162108823) transition_time 0x110-0x113.7 (4)
0x110|            45 f3 c5 27                        |    E..'        |      [58]: "2007-03-11T09:00:23Z" (1173603623) transition_time 0x114-0x117.7 (4)
0x110|                        47 2d 7c 17            |        G-|.    |      [59]: "2007-11-04T08:00:23Z" (1194163223) transition_time 0x118-0x11b.7 (4)
0x110|                                    47 d3 a7 27|            G..'|      [60]: "2008-03-09T09:00:23Z" (1205053223) transition_time 0x11c-0x11f.7 (4)
0x120|49 0d 5e 17                                    |I.^.            |      [61]: "2008-11-02T08:00:23Z" (1225612823) transition_time 0x120-0x123.7 (4)
0x120|            49 b3 89 28                        |    I..(        |      [62]: "2009-03-08T09:00:24Z" (1236502824) transition_time 0x124-0x127.7 (4)
0x120|                        4a ed 40 18            |        J.@.    |      [63]: "2009-11-01T08:00:24Z" (1257062424) transition_time 0x128-0x12b.7 (4)
0x120|                                    4b 9c a5 a8|            K...|      [64]: "2010-03-14T09:00:24Z" (1268557224) transition_time 0x12c-0x12f.7 (4)
0x130|4c d6 5c 98                                    |L.\.            |      [65]: "2010-11-07T08:00:24Z" (1289116824) transition_time 0x130-0x133.7 (4)
0x130|            4d 7c 87 a8                        |    M|..        |      [66]: "2011-03-13T09:00:24Z" (1300006824) transition_time 0x134-0x137.7 (4)
0x130|                        4e b6 3e 98            |        N.>.    |      [67]: "2011-11-06T08:00:24Z" (1320566424) transition_time 0x138-0x13b.7 (4)
0x130|                                    4f 5c 69 a8|            O\i.|      [68]: "2012-03-11T09:00:24Z" (1331456424) transition_time 0x13c-0x13f.7 (4)
0x140|50 96 20 99                                    |P. .            |      [69]: "2012-11-04T08:00:25Z" (1352016025) transition_time 0x140-0x143.7 (4)
0x140|            51 3c 4b a9                        |    Q<K.        |      [70]: "2013-03-10T09:00:25Z" (1362906025) transition_time 0x144-0x147.7 (4)
0x140|                        52 76 02 99            |        Rv..    |      [71]: "2013-11-03T08:00:25Z" (1383465625) transition_time 0x148-0x14b.7 (4)
0x140|                                    53 1c 2d a9|            S.-.|      [72]: "2014-03-09T09:00:25Z" (1394355625) transition_time 0x14c-0x14f.7 (4)
0x150|54 55 e4 99                                    |TU..            |      [73]: "2014-11-02T08:00:25Z" (1414915225) transition_time 0x150-0x153.7 (4)
0x150|            54 fc 0f a9                        |    T...        |      [74]: "2015-03-08T09:00:25Z" (1425805225) transition_time 0x154-0x157.7 (4)
0x150|                        56 35 c6 9a            |        V5..    |      [75]: "2015-11-01T08:00:26Z" (1446364826) transition_time 0x158-0x15b.7 (4)
0x150|                                    56 e5 2c 2a|            V.,*|      [76]: "2016-03-13T09:00:26Z" (1457859626) transition_time 0x15c-0x15f.7 (4)
0x160|58 1e e3 1a                                    |X...            |      [77]: "2016-11-06T08:00:26Z" (1478419226) transition_time 0x160-0x163.7 (4)
0x160|            58 c5 0e 2b                        |    X..+        |      [78]: "2017-03-12T09:00:27Z" (1489309227) transition_time 0x164-0x167.7 (4)
0x160|                        59 fe c5 1b            |        Y...    |      [79]: "2017-11-05T08:00:27Z" (1509868827) transition_time 0x168-0x16b.7 (4)
0x160|                                    5a a4 f0 2b|            Z..+|      [80]: "2018-03-11T09:00:27Z" (1520758827) transition_time 0x16c-0x16f.7 (4)
0x170|5b de a7 1b                                    |[...            |      [81]: "2018-11-04T08:00:27Z" (1541318427) transition_time 0x170-0x173.7 (4)
0x170|            5c 84 d2 2b                        |    \..+        |      [82]: "2019-03-10T09:00:27Z" (1552208427) transition_time 0x174-0x177.7 (4)
0x170|                        5d be 89 1b            |        ]...    |      [83]: "2019-11-03T08:00:27Z" (1572768027) transition_time 0x178-0x17b.7 (4)
0x170|                                    5e 64 b4 2b|            ^d.+|      [84]: "2020-03-08T09:00:27Z" (1583658027) transition_time 0x17c-0x17f.7 (4)
0x180|5f 9e 6b 1b                                    |_.k.            |      [85]: "2020-11-01T08:00:27Z" (1604217627) transition_time 0x180-0x183.7 (4)
0x180|            60 4d d0 ab                        |    `M..        |      [86]: "2021-03-14T09:00:27Z" (1615712427) transition_time 0x184-0x187.7 (4)
0x180|                        61 87 87 9b            |        a...    |      [87]: "2021-11-07T08:00:27Z" (1636272027) transition_time 0x188-0x18b.7 (4)
0x180|                                    62 2d b2 ab|            b-..|      [88]: "2022-03-13T09:00:27Z" (1647162027) transition_time 0x18c-0x18f.7 (4)
0x190|63 67 69 9b                                    |cgi.            |      [89]: "2022-11-06T08:00:27Z" (1667721627) transition_time 0x190-0x193.7 (4)
0x190|            64 0d 94 ab                        |    d...        |      [90]: "2023-03-12T09:00:27Z" (1678611627) transition_time 0x194-0x197.7 (4)
0x190|                        64 9b 78 1b            |        d.x.    |      [91]: "2023-06-28T00:00:27Z" (1687910427) transition_time 0x198-0x19b.7 (4)
     |                                               |                |    transition_types[0:92]: 0x19c-0x1f7.7 (92)
0x190|                                    02         |            .   |      [0]: 2 transition_type 0x19c-0x19c.7 (1)
0x190|                                       01      |             .  |      [1]: 1 transition_type 0x19d-0x19d.7 (1)
0x190|                                          02   |              . |      [2]: 2 transition_type 0x19e-0x19e.7 (1)
0x190|                                             03|               .|      [3]: 3 transition_type 0x19f-0x19f.7 (1)
0x1a0|04                                             |.               |      [4]: 4 transition_type 0x1a0-0x1a0.7 (1)
0x1a0|   03                                          | .              |      [5]: 3 transition_type 0x1a1-0x1a1.7 (1)
0x1a0|      04                                       |  .             |      [6]: 4 transition_type 0x1a2-0x1a2.7 (1)
0x1a0|         03                                    |   .            |      [7]: 3 transition_type 0x1a3-0x1a3.7 (1)
0x1a0|            04                                 |    .           |      [8]: 4 transition_type 0x1a4-0x1a4.7 (1)
0x1a0|               03                              |     .          |      [9]: 3 transition_type 0x1a5-0x1a5.7 (1)
0x1a0|                  04                           |      .         |      [10]: 4 transition_type 0x1a6-0x1a6.7 (1)
0x1a0|                     03                        |       .        |      [11]: 3 transition_type 0x1a7-0x1a7.7 (1)
0x1a0|                        04                     |        .       |      [12]: 4 transition_type 0x1a8-0x1a8.7 (1)
0x1a0|                           03                  |         .      |      [13]: 3 transition_type 0x1a9-0x1a9.7 (1)
0x1a0|                              04               |          .     |      [14]: 4 transition_type 0x1aa-0x1aa.7 (1)
0x1a0|                                 03            |           .    |      [15]: 3 transition_type 0x1ab-0x1ab.7 (1)
0x1a0|                                    04         |            .   |      [16]: 4 transition_type 0x1ac-0x1ac.7 (1)
0x1a0|                                       03      |             .  |      [17]: 3 transition_type 0x1ad-0x1ad.7 (1)
0x1a0|                                          04   |              . |      [18]: 4 transition_type 0x1ae-0x1ae.7 (1)
0x1a0|                                             03|               .|      [19]: 3 transition_type 0x1af-0x1af.7 (1)
0x1b0|04                                             |.               |      [20]: 4 transition_type 0x1b0-0x1b0.7 (1)
0x1b0|   03                                          | .              |      [21]: 3 transition_type 0x1b1-0x1b1.7 (1)
0x1b0|      04                                       |  .             |      [22]: 4 transition_type 0x1b2-0x1b2.7 (1)
0x1b0|         03                                    |   .            |      [23]: 3 transition_type 0x1b3-0x1b3.7 (1)
0x1b0|            04                                 |    .           |      [24]: 4 transition_type 0x1b4-0x1b4.7 (1)
0x1b0|               03                              |     .          |      [25]: 3 transition_type 0x1b5-0x1b5.7 (1)
0x1b0|                  04                           |      .         |      [26]: 4 transition_type 0x1b6-0x1b6.7 (1)
0x1b0|                     03                        |       .        |      [27]: 3 transition_type 0x1b7-0x1b7.7 (1)
0x1b0|                        04                     |        .       |      [28]: 4 transition_type 0x1b8-0x1b8.7 (1)
0x1b0|                           03                  |         .      |      [29]: 3 transition_type 0x1b9-0x1b9.7 (1)
0x1b0|                              04               |          .     |      [30]: 4 transition_type 0x1ba-0x1ba.7 (1)
0x1b0|                                 03            |           .    |      [31]: 3 transition_type 0x1bb-0x1bb.7 (1)
0x1b0|                                    04         |            .   |      [32]: 4 transition_type 0x1bc-0x1bc.7 (1)
0x1b0|                                       03      |             .  |      [33]: 3 transition_type 0x1bd-0x1bd.7 (1)
0x1b0|                                          04   |              . |      [34]: 4 transition_type 0x1be-0x1be.7 (1)
0x1b0|                                             03|               .|      [35]: 3 transition_type 0x1bf-0x1bf.7 (1)
0x1c0|04                                             |.               |      [36]: 4 transition_type 0x1c0-0x1c0.7 (1)
0x1c0|   03                                          | .              |      [37]: 3 transition_type 0x1c1-0x1c1.7 (1)
0x1c0|      04                                       |  .             |      [38]: 4 transition_type 0x1c2-0x1c2.7 (1)
0x1c0|         03                                    |   .            |      [39]: 3 transition_type 0x1c3-0x1c3.7 (1)
0x1c0|            04                                 |    .           |      [40]: 4 transition_type 0x1c4-0x1c4.7 (1)
0x1c0|               03                              |     .          |      [41]: 3 transition_type 0x1c5-0x1c5.7 (1)
0x1c0|                  04                           |      .         |      [42]: 4 transition_type 0x1c6-0x1c6.7 (1)
0x1c0|                     03                        |       .        |      [43]: 3 transition_type 0x1c7-0x1c7.7 (1)
0x1c0|                        04                     |        .       |      [44]: 4 transition_type 0x1c8-0x1c8.7 (1)
0x1c0|                           03                  |         .      |      [45]: 3 transition_type 0x1c9-0x1c9.7 (1)
0x1c0|                              04               |          .     |      [46]: 4 transition_type 0x1ca-0x1ca.7 (1)
0x1c0|                                 03            |           .    |      [47]: 3 transition_type 0x1cb-0x1cb.7 (1)
0x1c0|                                    04         |            .   |      [48]: 4 transition_type 0x1cc-0x1cc.7 (1)
0x1c0|                                       03      |             .  |      [49]: 3 transition_type 0x1cd-0x1cd.7 (1)
0x1c0|                                          04   |              . |      [50]: 4 transition_type 0x1ce-0x1ce.7 (1)
0x1c0|                                             03|               .|      [51]: 3 transition_type 0x1cf-0x1cf.7 (1)
0x1d0|04                                             |.               |      [52]: 4 transition_type 0x1d0-0x1d0.7 (1)
0x1d0|   03                                          | .              |      [53]: 3 transition_type 0x1d1-0x1d1.7 (1)
0x1d0|      04                                       |  .             |      [54]: 4 transition_type 0x1d2-0x1d2.7 (1)
0x1d0|         03                                    |   .            |      [55]: 3 transition_type 0x1d3-0x1d3.7 (1)
0x1d0|            04                                 |    .           |      [56]: 4 transition_type 0x1d4-0x1d4.7 (1)
0x1d0|               03                              |     .          |      [57]: 3 transition_type 0x1d5-0x1d5.7 (1)
0x1d0|                  04                           |      .         |      [58]: 4 transition_type 0x1d6-0x1d6.7 (1)
0x1d0|                     03                        |       .        |      [59]: 3 transition_type 0x1d7-0x1d7.7 (1)
0x1d0|                        04                     |        .       |      [60]: 4 transition_type 0x1d8-0x1d8.7 (1)
0x1d0|                           03                  |         .      |      [61]: 3 transition_type 0x1d9-0x1d9.7 (1)
0x1d0|                              04               |          .     |      [62]: 4 transition_type 0x1da-0x1da.7 (1)
0x1d0|                                 03            |           .    |      [63]: 3 transition_type 0x1db-0x1db.7 (1)
0x1d0|                                    04         |            .   |      [64]: 4 transition_type 0x1dc-0x1dc.7 (1)
0x1d0|                                       03      |             .  |      [65]: 3 transition_type 0x1dd-0x1dd.7 (1)
0x1d0|                                          04   |              . |      [66]: 4 transition_type 0x1de-0x1de.7 (1)
0x1d0|                                             03|               .|      [67]: 3 transition_type 0x1df-0x1df.7 (1)
0x1e0|04                                             |.               |      [68]: 4 transition_type 0x1e0-0x1e0.7 (1)
0x1e0|   03                                          | .              |      [69]: 3 transition_type 0x1e1-0x1e1.7 (1)
0x1e0|      04                                       |  .             |      [70]: 4 transition_type 0x1e2-0x1e2.7 (1)
0x1e0|         03                                    |   .            |      [71]: 3 transition_type 0x1e3-0x1e3.7 (1)
0x1e0|            04                                 |    .           |      [72]: 4 transition_type 0x1e4-0x1e4.7 (1)
0x1e0|               03                              |     .          |      [73]: 3 transition_type 0x1e5-0x1e5.7 (1)
0x1e0|                  04                           |      .         |      [74]: 4 transition_type 0x1e6-0x1e6.7 (1)
0x1e0|                     03                        |       .        |      [75]: 3 transition_type 0x1e7-0x1e7.7 (1)
0x1e0|                        04                     |        .       |      [76]: 4 transition_type 0x1e8-0x1e8.7 (1)
0x1e0|                           03                  |         .      |      [77]: 3 transition_type 0x1e9-0x1e9.7 (1)
0x1e0|                              04               |          .     |      [78]: 4 transition_type 0x1ea-0x1ea.7 (1)
0x1e0|                                 03            |           .    |      [79]: 3 transition_type 0x1eb-0x1eb.7 (1)
0x1e0|                                    04         |            .   |      [80]: 4 transition_type 0x1ec-0x1ec.7 (1)
0x1e0|                                       03      |             .  |      [81]: 3 transition_type 0x1ed-0x1ed.7 (1)
0x1e0|                                          04   |              . |      [82]: 4 transition_type 0x1ee-0x1ee.7 (1)
0x1e0|                                             03|               .|      [83]: 3 transition_type 0x1ef-0x1ef.7 (1)
0x1f0|04                                             |.               |      [84]: 4 transition_type 0x1f0-0x1f0.7 (1)
0x1f0|   03                                          | .              |      [85]: 3 transition_type 0x1f1-0x1f1.7 (1)
0x1f0|      04                                       |  .             |      [86]: 4 transition_type 0x1f2-0x1f2.7 (1)
0x1f0|         03                                    |   .            |      [87]: 3 transition_type 0x1f3-0x1f3.7 (1)
0x1f0|            04                                 |    .           |      [88]: 4 transition_type 0x1f4-0x1f4.7 (1)
0x1f0|               03                              |     .          |      [89]: 3 transition_type 0x1f5-0x1f5.7 (1)
0x1f0|                  04                           |      .         |      [90]: 4 transition_type 0x1f6-0x1f6.7 (1)
0x1f0|                     04                        |       .        |      [91]: 4 transition_type 0x1f7-0x1f7.7 (1)
     |                                               |                |    local_time_type_records[0:5]: 0x1f8-0x215.7 (30)
     |                                               |                |      [0]{}: local_time_type 0x1f8-0x1fd.7 (6)
0x1f0|                        00 00 00 00            |        ....    |        utoff: 0 (valid) 0x1f8-0x1fb.7 (4)
0x1f0|                                    00         |            .   |        dst: 0 (valid) 0x1fc-0x1fc.7 (1)
0x1f0|                                       00      |             .  |        idx: 0 (valid) 0x1fd-0x1fd.7 (1)
     |                                               |                |      [1]{}: local_time_type 0x1fe-0x203.7 (6)
0x1f0|                                          ff ff|              ..|        utoff: -21600 (valid) 0x1fe-0x201.7 (4)
0x200|ab a0                                          |..              |
0x200|      01                                       |  .             |        dst: 1 (valid) 0x202-0x202.7 (1)
0x200|         04                                    |   .            |        idx: 4 (valid) 0x203-0x203.7 (1)
     |                                               |                |      [2]{}: local_time_type 0x204-0x209.7 (6)
0x200|            ff ff 8f 80                        |    ....        |        utoff: -28800 (valid) 0x204-0x207.7 (4)
0x200|                        00                     |        .       |        dst: 0 (valid) 0x208-0x208.7 (1)
0x200|                           09                  |         .      |        idx: 9 (valid) 0x209-0x209.7 (1)
     |                                               |                |      [3]{}: local_time_type 0x20a-0x20f.7 (6)
0x200|                              ff ff 9d 90      |          ....  |        utoff: -25200 (valid) 0x20a-0x20d.7 (4)
0x200|                                          00   |              . |        dst: 0 (valid) 0x20e-0x20e.7 (1)
0x200|                                             0d|               .|        idx: 13 (valid) 0x20f-0x20f.7 (1)
     |                                               |                |      [4]{}: local_time_type 0x210-0x215.7 (6)
0x210|ff ff ab a0                                    |....            |        utoff: -21600 (valid) 0x210-0x213.7 (4)
0x210|            01                                 |    .           |        dst: 1 (valid) 0x214-0x214.7 (1)
0x210|               11                              |     .          |        idx: 17 (valid) 0x215-0x215.7 (1)
     |                                               |                |    time_zone_designations[0:5]: 0x216-0x22a.7 (21)
0x210|                  2d 30 30 00                  |      -00.      |      [0]: "-00" time_zone_designation 0x216-0x219.7 (4)
0x210|                              50 44 44 54 00   |          PDDT. |      [1]: "PDDT" time_zone_designation 0x21a-0x21e.7 (5)
0x210|                                             50|               P|      [2]: "PST" time_zone_designation 0x21f-0x222.7 (4)
0x220|53 54 00                                       |ST.             |
0x220|         4d 53 54 00                           |   MST.         |      [3]: "MST" time_zone_designation 0x223-0x226.7 (4)
0x220|                     4d 44 54 00               |       MDT.     |      [4]: "MDT" time_zone_designation 0x227-0x22a.7 (4)
     |                                               |                |    leap_second_records[0:27]: 0x22b-0x302.7 (216)
     |                                               |                |      [0]{}: leap_second_record 0x22b-0x232.7 (8)
0x220|                                 04 b2 58 00   |           ..X. |        occur: "1972-07-01T00:00:00Z" (78796800) 0x22b-0x22e.7 (4)
0x220|                                             00|               .|        corr: 1 0x22f-0x232.7 (4)
0x230|00 00 01                                       |...             |
     |                                               |                |      [1]{}: leap_second_record 0x233-0x23a.7 (8)
0x230|         05 a4 ec 01                           |   ....         |        occur: "1973-01-01T00:00:01Z" (94694401) 0x233-0x236.7 (4)
0x230|                     00 00 00 02               |       ....     |        corr: 2 0x237-0x23a.7 (4)
     |                                               |                |      [2]{}: leap_second_record 0x23b-0x242.7 (8)
0x230|                                 07 86 1f 82   |           .... |        occur: "1974-01-01T00:00:02Z" (126230402) 0x23b-0x23e.7 (4)
0x230|                                             00|               .|        corr: 3 0x23f-0x242.7 (4)
0x240|00 00 03                                       |...             |
     |                                               |                |      [3]{}: leap_second_record 0x243-0x24a.7 (8)
0x240|         09 67 53 03                           |   .gS.         |        occur: "1975-01-01T00:00:03Z" (157766403) 0x243-0x246.7 (4)
0x240|                     00 00 00 04               |       ....     |        corr: 4 0x247-0x24a.7 (4)
     |                                               |                |      [4]{}: leap_second_record 0x24b-0x252.7 (8)
0x240|                                 0b 48 86 84   |           .H.. |        occur: "1976-01-01T00:00:04Z" (189302404) 0x24b-0x24e.7 (4)
0x240|                                             00|               .|        corr: 5 0x24f-0x252.7 (4)
0x250|00 00 05                                       |...             |
     |                                               |                |      [5]{}: leap_second_record 0x253-0x25a.7 (8)
0x250|         0d 2b 0b 85                           |   .+..         |        occur: "1977-01-01T00:00:05Z" (220924805) 0x253-0x256.7 (4)
0x250|                     00 00 00 06               |       ....     |        corr: 6 0x257-0x25a.7 (4)
     |                                               |                |      [6]{}: leap_second_record 0x25b-0x262.7 (8)
0x250|                                 0f 0c 3f 06   |           ..?. |        occur: "1978-01-01T00:00:06Z" (252460806) 0x25b-0x25e.7 (4)
0x250|                                             00|               .|        corr: 7 0x25f-0x262.7 (4)
0x260|00 00 07                                       |...             |
     |                                               |                |      [7]{}: leap_second_record 0x263-0x26a.7 (8)
0x260|         10 ed 72 87                           |   ..r.         |        occur: "1979-01-01T00:00:07Z" (283996807) 0x263-0x266.7 (4)
0x260|                     00 00 00 08               |       ....     |        corr: 8 0x267-0x26a.7 (4)
     |                                               |                |      [8]{}: leap_second_record 0x26b-0x272.7 (8)
0x260|                                 12 ce a6 08   |           .... |        occur: "1980-01-01T00:00:08Z" (315532808) 0x26b-0x26e.7 (4)
0x260|                                             00|               .|        corr: 9 0x26f-0x272.7 (4)
0x270|00 00 09                                       |...             |
     |                                               |                |      [9]{}: leap_second_record 0x273-0x27a.7 (8)
0x270|         15 9f ca 89                           |   ....         |        occur: "1981-07-01T00:00:09Z" (362793609) 0x273-0x276.7 (4)
0x270|                     00 00 00 0a               |       ....     |        corr: 10 0x277-0x27a.7 (4)
     |                                               |                |      [10]{}: leap_second_record 0x27b-0x282.7 (8)
0x270|                                 17 80 fe 0a   |           .... |        occur: "1982-07-01T00:00:10Z" (394329610) 0x27b-0x27e.7 (4)
0x270|                                             00|               .|        corr: 11 0x27f-0x282.7 (4)
0x280|00 00 0b                                       |...             |
     |                                               |                |      [11]{}: leap_second_record 0x283-0x28a.7 (8)
0x280|         19 62 31 8b                           |   .b1.         |        occur: "1983-07-01T00:00:11Z" (425865611) 0x283-0x286.7 (4)
0x280|                     00 00 00 0c               |       ....     |        corr: 12 0x287-0x28a.7 (4)
     |                                               |                |      [12]{}: leap_second_record 0x28b-0x292.7 (8)
0x280|                                 1d 25 ea 0c   |           .%.. |        occur: "1985-07-01T00:00:12Z" (489024012) 0x28b-0x28e.7 (4)
0x280|                                             00|               .|        corr: 13 0x28f-0x292.7 (4)
0x290|00 00 0d                                       |...             |
     |                                               |                |      [13]{}: leap_second_record 0x293-0x29a.7 (8)
0x290|         21 da e5 0d                           |   !...         |        occur: "1988-01-01T00:00:13Z" (567993613) 0x293-0x296.7 (4)
0x290|                     00 00 00 0e               |       ....     |        corr: 14 0x297-0x29a.7 (4)
     |                                               |                |      [14]{}: leap_second_record 0x29b-0x2a2.7 (8)
0x290|                                 25 9e 9d 8e   |           %... |        occur: "1990-01-01T00:00:14Z" (631152014) 0x29b-0x29e.7 (4)
0x290|                                             00|               .|        corr: 15 0x29f-0x2a2.7 (4)
0x2a0|00 00 0f                                       |...             |
     |                                               |                |      [15]{}: leap_second_record 0x2a3-0x2aa.7 (8)
0x2a0|         27 7f d1 0f                           |   '...         |        occur: "1991-01-01T00:00:15Z" (662688015) 0x2a3-0x2a6.7 (4)
0x2a0|                     00 00 00 10               |       ....     |        corr: 16 0x2a7-0x2aa.7 (4)
     |                                               |                |      [16]{}: leap_second_record 0x2ab-0x2b2.7 (8)
0x2a0|                                 2a 50 f5 90   |           *P.. |        occur: "1992-07-01T00:00:16Z" (709948816) 0x2ab-0x2ae.7 (4)
0x2a0|                                             00|               .|        corr: 17 0x2af-0x2b2.7 (4)
0x2b0|00 00 11                                       |...             |
     |                                               |                |      [17]{}: leap_second_record 0x2b3-0x2ba.7 (8)
0x2b0|         2c 32 29 11                           |   ,2).         |        occur: "1993-07-01T00:00:17Z" (741484817) 0x2b3-0x2b6.7 (4)
0x2b0|                     00 00 00 12               |       ....     |        corr: 18 0x2b7-0x2ba.7 (4)
     |                                               |                |      [18]{}: leap_second_record 0x2bb-0x2c2.7 (8)
0x2b0|                                 2e 13 5c 92   |           ..\. |        occur: "1994-07-01T00:00:18Z" (773020818) 0x2bb-0x2be.7 (4)
0x2b0|                                             00|               .|        corr: 19 0x2bf-0x2c2.7 (4)
0x2c0|00 00 13                                       |...             |
     |                                               |                |      [19]{}: leap_second_record 0x2c3-0x2ca.7 (8)
0x2c0|         30 e7 24 13                           |   0.$.         |        occur: "1996-01-01T00:00:19Z" (820454419) 0x2c3-0x2c6.7 (4)
0x2c0|                     00 00 00 14               |       ....     |        corr: 20 0x2c7-0x2ca.7 (4)
     |                                               |                |      [20]{}: leap_second_record 0x2cb-0x2d2.7 (8)
0x2c0|                                 33 b8 48 94   |           3.H. |        occur: "1997-07-01T00:00:20Z" (867715220) 0x2cb-0x2ce.7 (4)
0x2c0|                                             00|               .|        corr: 21 0x2cf-0x2d2.7 (4)
0x2d0|00 00 15                                       |...             |
     |                                               |                |      [21]{}: leap_second_record 0x2d3-0x2da.7 (8)
0x2d0|         36 8c 10 15                           |   6...         |        occur: "1999-01-01T00:00:21Z" (915148821) 0x2d3-0x2d6.7 (4)
0x2d0|                     00 00 00 16               |       ....     |        corr: 22 0x2d7-0x2da.7 (4)
     |                                               |                |      [22]{}: leap_second_record 0x2db-0x2e2.7 (8)
0x2d0|                                 43 b7 1b 96   |           C... |        occur: "2006-01-01T00:00:22Z" (1136073622) 0x2db-0x2de.7 (4)
0x2d0|                                             00|               .|        corr: 23 0x2df-0x2e2.7 (4)
0x2e0|00 00 17                                       |...             |
     |                                               |                |      [23]{}: leap_second_record 0x2e3-0x2ea.7 (8)
0x2e0|         49 5c 07 97                           |   I\..         |        occur: "2009-01-01T00:00:23Z" (1230768023) 0x2e3-0x2e6.7 (4)
0x2e0|                     00 00 00 18               |       ....     |        corr: 24 0x2e7-0x2ea.7 (4)
     |                                               |                |      [24]{}: leap_second_record 0x2eb-0x2f2.7 (8)
0x2e0|                                 4f ef 93 18   |           O... |        occur: "2012-07-01T00:00:24Z" (1341100824) 0x2eb-0x2ee.7 (4)
0x2e0|                                             00|               .|        corr: 25 0x2ef-0x2f2.7 (4)
0x2f0|00 00 19                                       |...             |
     |                                               |                |      [25]{}: leap_second_record 0x2f3-0x2fa.7 (8)
0x2f0|         55 93 2d 99                           |   U.-.         |        occur: "2015-07-01T00:00:25Z" (1435708825) 0x2f3-0x2f6.7 (4)
0x2f0|                     00 00 00 1a               |       ....     |        corr: 26 0x2f7-0x2fa.7 (4)
     |                                               |                |      [26]{}: leap_second_record 0x2fb-0x302.7 (8)
0x2f0|                                 58 68 46 9a   |           XhF. |        occur: "2017-01-01T00:00:26Z" (1483228826) 0x2fb-0x2fe.7 (4)
0x2f0|                                             00|               .|        corr: 27 0x2ff-0x302.7 (4)
0x300|00 00 1b                                       |...             |
     |                                               |                |    standard_wall_indicators[0:0]: 0x303-NA (0)
     |                                               |                |    ut_local_indicators[0:0]: 0x303-NA (0)
     |                                               |                |  v2plusheader{}: 0x303-0x32e.7 (44)
0x300|         54 5a 69 66                           |   TZif         |    magic: 0x545a6966 (valid) 0x303-0x306.7 (4)
0x300|                     32                        |       2        |    ver: "2" (0x32) (valid) 0x307-0x307.7 (1)
0x300|                        00 00 00 00 00 00 00 00|        ........|    reserved: raw bits 0x308-0x316.7 (15)
0x310|00 00 00 00 00 00 00                           |.......         |
0x310|                     00 00 00 00               |       ....     |    isutcnt: 0 0x317-0x31a.7 (4)
0x310|                                 00 00 00 00   |           .... |    isstdcnt: 0 0x31b-0x31e.7 (4)
0x310|                                             00|               .|    leapcnt: 27 0x31f-0x322.7 (4)
0x320|00 00 1b                                       |...             |
0x320|         00 00 00 5c                           |   ...\         |    timecnt: 92 0x323-0x326.7 (4)
0x320|                     00 00 00 05               |       ....     |    typecnt: 5 0x327-0x32a.7 (4)
0x320|                                 00 00 00 15   |           .... |    charcnt: 21 0x32b-0x32e.7 (4)
     |                                               |                |  v2plusdatablock{}: 0x32f-0x7e1.7 (1203)
     |                                               |                |    transition_times[0:92]: 0x32f-0x60e.7 (736)
0x320|                                             ff|               .|      [0]: "1953-01-01T00:00:00Z" (-536457600) transition_time 0x32f-0x336.7 (8)
0x330|ff ff ff e0 06 4e 80                           |.....N.         |
0x330|                     ff ff ff ff f7 2f 68 80   |       ...../h. |      [1]: "1965-04-25T08:00:00Z" (-147888000) transition_time 0x337-0x33e.7 (8)
0x330|                                             ff|               .|      [2]: "1965-10-31T08:00:00Z" (-131558400) transition_time 0x33f-0x346.7 (8)
0x340|ff ff ff f8 28 94 00                           |....(..         |
0x340|                     00 00 00 00 11 89 90 28   |       .......( |      [3]: "1979-04-29T10:00:08Z" (294228008) transition_time 0x347-0x34e.7 (8)
0x340|                                             00|               .|      [4]: "1980-04-27T09:00:09Z" (325674009) transition_time 0x34f-0x356.7 (8)
0x350|00 00 00 13 69 64 19                           |....id.         |
0x350|                     00 00 00 00 14 59 47 09   |       .....YG. |      [5]: "1980-10-26T08:00:09Z" (341395209) transition_time 0x357-0x35e.7 (8)
0x350|                                             00|               .|      [6]: "1981-04-26T09:00:09Z" (357123609) transition_time 0x35f-0x366.7 (8)
0x360|00 00 00 15 49 46 19                           |....IF.         |
0x360|                     00 00 00 00 16 39 29 0a   |       .....9). |      [7]: "1981-10-25T08:00:10Z" (372844810) transition_time 0x367-0x36e.7 (8)
0x360|                                             00|               .|      [8]: "1982-04-25T09:00:10Z" (388573210) transition_time 0x36f-0x376.7 (8)
0x370|00 00 00 17 29 28 1a                           |....)(.         |
0x370|                     00 00 00 00 18 22 45 8b   |       ....."E. |      [9]: "1982-10-31T08:00:11Z" (404899211) transition_time 0x377-0x37e.7 (8)
0x370|                                             00|               .|      [10]: "1983-04-24T09:00:11Z" (420022811) transition_time 0x37f-0x386.7 (8)
0x380|00 00 00 19 09 0a 1b                           |.......         |
0x380|                     00 00 00 00 1a 02 27 8c   |       ......'. |      [11]: "1983-10-30T08:00:12Z" (436348812) transition_time 0x387-0x38e.7 (8)
0x380|                                             00|               .|      [12]: "1984-04-29T09:00:12Z" (452077212) transition_time 0x38f-0x396.7 (8)
0x390|00 00 00 1a f2 26 9c                           |.....&.         |
0x390|                     00 00 00 00 1b e2 09 8c   |       ........ |      [13]: "1984-10-28T08:00:12Z" (467798412) transition_time 0x397-0x39e.7 (8)
0x390|                                             00|               .|      [14]: "1985-04-28T09:00:12Z" (483526812) transition_time 0x39f-0x3a6.7 (8)
0x3a0|00 00 00 1c d2 08 9c                           |.......         |
0x3a0|                     00 00 00 00 1d c1 eb 8d   |       ........ |      [15]: "1985-10-27T08:00:13Z" (499248013) transition_time 0x3a7-0x3ae.7 (8)
0x3a0|                                             00|               .|      [16]: "1986-04-27T09:00:13Z" (514976413) transition_time 0x3af-0x3b6.7 (8)
0x3b0|00 00 00 1e b1 ea 9d                           |.......         |
0x3b0|                     00 00 00 00 1f a1 cd 8d   |       ........ |      [17]: "1986-10-26T08:00:13Z" (530697613) transition_time 0x3b7-0x3be.7 (8)
0x3b0|                                             00|               .|      [18]: "1987-04-05T09:00:13Z" (544611613) transition_time 0x3bf-0x3c6.7 (8)
0x3c0|00 00 00 20 76 1d 1d                           |... v..         |
0x3c0|                     00 00 00 00 21 81 af 8d   |       ....!... |      [19]: "1987-10-25T08:00:13Z" (562147213) transition_time 0x3c7-0x3ce.7 (8)
0x3c0|                                             00|               .|      [20]: "1988-04-03T09:00:14Z" (576061214) transition_time 0x3cf-0x3d6.7 (8)
0x3d0|00 00 00 22 55 ff 1e                           |..."U..         |
0x3d0|                     00 00 00 00 23 6a cc 0e   |       ....#j.. |      [21]: "1988-10-30T08:00:14Z" (594201614) transition_time 0x3d7-0x3de.7 (8)
0x3d0|                                             00|               .|      [22]: "1989-04-02T09:00:14Z" (607510814) transition_time 0x3df-0x3e6.7 (8)
0x3e0|00 00 00 24 35 e1 1e                           |...$5..         |
0x3e0|                     00 00 00 00 25 4a ae 0e   |       ....%J.. |      [23]: "1989-10-29T08:00:14Z" (625651214) transition_time 0x3e7-0x3ee.7 (8)
0x3e0|                                             00|               .|      [24]: "1990-04-01T09:00:15Z" (638960415) transition_time 0x3ef-0x3f6.7 (8)
0x3f0|00 00 00 26 15 c3 1f                           |...&...         |
0x3f0|                     00 00 00 00 27 2a 90 0f   |       ....'*.. |      [25]: "1990-10-28T08:00:15Z" (657100815) transition_time 0x3f7-0x3fe.7 (8)
0x3f0|                                             00|               .|      [26]: "1991-04-07T09:00:16Z" (671014816) transition_time 0x3ff-0x406.7 (8)
0x400|00 00 00 27 fe df a0                           |...'...         |
0x400|                     00 00 00 00 29 0a 72 10   |       ....).r. |      [27]: "1991-10-27T08:00:16Z" (688550416) transition_time 0x407-0x40e.7 (8)
0x400|                                             00|               .|      [28]: "1992-04-05T09:00:16Z" (702464416) transition_time 0x40f-0x416.7 (8)
0x410|00 00 00 29 de c1 a0                           |...)...         |
0x410|                     00 00 00 00 2a ea 54 11   |       ....*.T. |      [29]: "1992-10-25T08:00:17Z" (720000017) transition_time 0x417-0x41e.7 (8)
0x410|                                             00|               .|      [30]: "1993-04-04T09:00:17Z" (733914017) transition_time 0x41f-0x426.7 (8)
0x420|00 00 00 2b be a3 a1                           |...+...         |
0x420|                     00 00 00 00 2c d3 70 92   |       ....,.p. |      [31]: "1993-10-31T08:00:18Z" (752054418) transition_time 0x427-0x42e.7 (8)
0x420|                                             00|               .|      [32]: "1994-04-03T09:00:18Z" (765363618) transition_time 0x42f-0x436.7 (8)
0x430|00 00 00 2d 9e 85 a2                           |...-...         |
0x430|                     00 00 00 00 2e b3 52 93   |       ......R. |      [33]: "1994-10-30T08:00:19Z" (783504019) transition_time 0x437-0x43e.7 (8)
0x430|                                             00|               .|      [34]: "1995-04-02T09:00:19Z" (796813219) transition_time 0x43f-0x446.7 (8)
0x440|00 00 00 2f 7e 67 a3                           |.../~g.         |
0x440|                     00 00 00 00 30 93 34 93   |       ....0.4. |      [35]: "1995-10-29T08:00:19Z" (814953619) transition_time 0x447-0x44e.7 (8)
0x440|                                             00|               .|      [36]: "1996-04-07T09:00:20Z" (828867620) transition_time 0x44f-0x456.7 (8)
0x450|00 00 00 31 67 84 24                           |...1g.$         |
0x450|                     00 00 00 00 32 73 16 94   |       ....2s.. |      [37]: "1996-10-27T08:00:20Z" (846403220) transition_time 0x457-0x45e.7 (8)
0x450|                                             00|               .|      [38]: "1997-04-06T09:00:20Z" (860317220) transition_time 0x45f-0x466.7 (8)
0x460|00 00 00 33 47 66 24                           |...3Gf$         |
0x460|                     00 00 00 00 34 52 f8 95   |       ....4R.. |      [39]: "1997-10-26T08:00:21Z" (877852821) transition_time 0x467-0x46e.7 (8)
0x460|                                             00|               .|      [40]: "1998-04-05T09:00:21Z" (891766821) transition_time 0x46f-0x476.7 (8)
0x470|00 00 00 35 27 48 25                           |...5'H%         |
0x470|                     00 00 00 00 36 32 da 95   |       ....62.. |      [41]: "1998-10-25T08:00:21Z" (909302421) transition_time 0x477-0x47e.7 (8)
0x470|                                             00|               .|      [42]: "1999-04-04T09:00:22Z" (923216422) transition_time 0x47f-0x486.7 (8)
0x480|00 00 00 37 07 2a 26                           |...7.*&         |
0x480|                     00 00 00 00 38 1b f7 16   |       ....8... |      [43]: "1999-10-31T08:00:22Z" (941356822) transition_time 0x487-0x48e.7 (8)
0x480|                                             00|               .|      [44]: "2000-04-02T09:00:22Z" (954666022) transition_time 0x48f-0x496.7 (8)
0x490|00 00 00 38 e7 0c 26                           |...8..&         |
0x490|                     00 00 00 00 39 fb d9 16   |       ....9... |      [45]: "2000-10-29T08:00:22Z" (972806422) transition_time 0x497-0x49e.7 (8)
0x490|                                             00|               .|      [46]: "2001-04-01T09:00:22Z" (986115622) transition_time 0x49f-0x4a6.7 (8)
0x4a0|00 00 00 3a c6 ee 26                           |...:..&         |
0x4a0|                     00 00 00 00 3b db bb 16   |       ....;... |      [47]: "2001-10-28T08:00:22Z" (1004256022) transition_time 0x4a7-0x4ae.7 (8)
0x4a0|                                             00|               .|      [48]: "2002-04-07T09:00:22Z" (1018170022) transition_time 0x4af-0x4b6.7 (8)
0x4b0|00 00 00 3c b0 0a a6                           |...<...         |
0x4b0|                     00 00 00 00 3d bb 9d 16   |       ....=... |      [49]: "2002-10-27T08:00:22Z" (1035705622) transition_time 0x4b7-0x4be.7 (8)
0x4b0|                                             00|               .|      [50]: "2003-04-06T09:00:22Z" (1049619622) transition_time 0x4bf-0x4c6.7 (8)
0x4c0|00 00 00 3e 8f ec a6                           |...>...         |
0x4c0|                     00 00 00 00 3f 9b 7f 16   |       ....?... |      [51]: "2003-10-26T08:00:22Z" (1067155222) transition_time 0x4c7-0x4ce.7 (8)
0x4c0|                                             00|               .|      [52]: "2004-04-04T09:00:22Z" (1081069222) transition_time 0x4cf-0x4d6.7 (8)
0x4d0|00 00 00 40 6f ce a6                           |...@o..         |
0x4d0|                     00 00 00 00 41 84 9b 96   |       ....A... |      [53]: "2004-10-31T08:00:22Z" (1099209622) transition_time 0x4d7-0x4de.7 (8)
0x4d0|                                             00|               .|      [54]: "2005-04-03T09:00:22Z" (1112518822) transition_time 0x4df-0x4e6.7 (8)
0x4e0|00 00 00 42 4f b0 a6                           |...BO..         |
0x4e0|                     00 00 00 00 43 64 7d 96   |       ....Cd}. |      [55]: "2005-10-30T08:00:22Z" (1130659222) transition_time 0x4e7-0x4ee.7 (8)
0x4e0|                                             00|               .|      [56]: "2006-04-02T09:00:23Z" (1143968423) transition_time 0x4ef-0x4f6.7 (8)
0x4f0|00 00 00 44 2f 92 a7                           |...D/..         |
0x4f0|                     00 00 00 00 45 44 5f 97   |       ....ED_. |      [57]: "2006-10-29T08:00:23Z" (1162108823) transition_time 0x4f7-0x4fe.7 (8)
0x4f0|                                             00|               .|      [58]: "2007-03-11T09:00:23Z" (1173603623) transition_time 0x4ff-0x506.7 (8)
0x500|00 00 00 45 f3 c5 27                           |...E..'         |
0x500|                     00 00 00 00 47 2d 7c 17   |       ....G-|. |      [59]: "2007-11-04T08:00:23Z" (1194163223) transition_time 0x507-0x50e.7 (8)
0x500|                                             00|               .|      [60]: "2008-03-09T09:00:23Z" (1205053223) transition_time 0x50f-0x516.7 (8)
0x510|00 00 00 47 d3 a7 27                           |...G..'         |
0x510|                     00 00 00 00 49 0d 5e 17   |       ....I.^. |      [61]: "2008-11-02T08:00:23Z" (1225612823) transition_time 0x517-0x51e.7 (8)
0x510|                                             00|               .|      [62]: "2009-03-08T09:00:24Z" (1236502824) transition_time 0x51f-0x526.7 (8)
0x520|00 00 00 49 b3 89 28                           |...I..(         |
0x520|                     00 00 00 00 4a ed 40 18   |       ....J.@. |      [63]: "2009-11-01T08:00:24Z" (1257062424) transition_time 0x527-0x52e.7 (8)
0x520|                                             00|               .|      [64]: "2010-03-14T09:00:24Z" (1268557224) transition_time 0x52f-0x536.7 (8)
0x530|00 00 00 4b 9c a5 a8                           |...K...         |
0x530|                     00 00 00 00 4c d6 5c 98   |       ....L.\. |      [65]: "2010-11-07T08:00:24Z" (1289116824) transition_time 0x537-0x53e.7 (8)
0x530|                                             00|               .|      [66]: "2011-03-13T09:00:24Z" (1300006824) transition_time 0x53f-0x546.7 (8)
0x540|00 00 00 4d 7c 87 a8                           |...M|..         |
0x540|                     00 00 00 00 4e b6 3e 98   |       ....N.>. |      [67]: "2011-11-06T08:00:24Z" (1320566424) transition_time 0x547-0x54e.7 (8)
0x540|                                             00|               .|      [68]: "2012-03-11T09:00:24Z" (1331456424) transition_time 0x54f-0x556.7 (8)
0x550|00 00 00 4f 5c 69 a8                           |...O\i.         |
0x550|                     00 00 00 00 50 96 20 99   |       ....P. . |      [69]: "2012-11-04T08:00:25Z" (1352016025) transition_time 0x557-0x55e.7 (8)
0x550|                                             00|               .|      [70]: "2013-03-10T09:00:25Z" (1362906025) transition_time 0x55f-0x566.7 (8)
0x560|00 00 00 51 3c 4b a9                           |...Q<K.         |
0x560|                     00 00 00 00 52 76 02 99   |       ....Rv.. |      [71]: "2013-11-03T08:00:25Z" (1383465625) transition_time 0x567-0x56e.7 (8)
0x560|                                             00|               .|      [72]: "2014-03-09T09:00:25Z" (1394355625) transition_time 0x56f-0x576.7 (8)
0x570|00 00 00 53 1c 2d a9                           |...S.-.         |
0x570|                     00 00 00 00 54 55 e4 99   |       ....TU.. |      [73]: "2014-11-02T08:00:25Z" (1414915225) transition_time 0x577-0x57e.7 (8)
0x570|                                             00|               .|      [74]: "2015-03-08T09:00:25Z" (1425805225) transition_time 0x57f-0x586.7 (8)
0x580|00 00 00 54 fc 0f a9                           |...T...         |
0x580|                     00 00 00 00 56 35 c6 9a   |       ....V5.. |      [75]: "2015-11-01T08:00:26Z" (1446364826) transition_time 0x587-0x58e.7 (8)
0x580|                                             00|               .|      [76]: "2016-03-13T09:00:26Z" (1457859626) transition_time 0x58f-0x596.7 (8)
0x590|00 00 00 56 e5 2c 2a                           |...V.,*         |
0x590|                     00 00 00 00 58 1e e3 1a   |       ....X... |      [77]: "2016-11-06T08:00:26Z" (1478419226) transition_time 0x597-0x59e.7 (8)
0x590|                                             00|               .|      [78]: "2017-03-12T09:00:27Z" (1489309227) transition_time 0x59f-0x5a6.7 (8)
0x5a0|00 00 00 58 c5 0e 2b                           |...X..+         |
0x5a0|                     00 00 00 00 59 fe c5 1b   |       ....Y... |      [79]: "2017-11-05T08:00:27Z" (1509868827) transition_time 0x5a7-0x5ae.7 (8)
0x5a0|                                             00|               .|      [80]: "2018-03-11T09:00:27Z" (1520758827) transition_time 0x5af-0x5b6.7 (8)
0x5b0|00 00 00 5a a4 f0 2b                           |...Z..+         |
0x5b0|                     00 00 00 00 5b de a7 1b   |       ....[... |      [81]: "2018-11-04T08:00:27Z" (1541318427) transition_time 0x5b7-0x5be.7 (8)
0x5b0|                                             00|               .|      [82]: "2019-03-10T09:00:27Z" (1552208427) transition_time 0x5bf-0x5c6.7 (8)
0x5c0|00 00 00 5c 84 d2 2b                           |...\..+         |
0x5c0|                     00 00 00 00 5d be 89 1b   |       ....]... |      [83]: "2019-11-03T08:00:27Z" (1572768027) transition_time 0x5c7-0x5ce.7 (8)
0x5c0|                                             00|               .|      [84]: "2020-03-08T09:00:27Z" (1583658027) transition_time 0x5cf-0x5d6.7 (8)
0x5d0|00 00 00 5e 64 b4 2b                           |...^d.+         |
0x5d0|                     00 00 00 00 5f 9e 6b 1b   |       ...._.k. |      [85]: "2020-11-01T08:00:27Z" (1604217627) transition_time 0x5d7-0x5de.7 (8)
0x5d0|                                             00|               .|      [86]: "2021-03-14T09:00:27Z" (1615712427) transition_time 0x5df-0x5e6.7 (8)
0x5e0|00 00 00 60 4d d0 ab                           |...`M..         |
0x5e0|                     00 00 00 00 61 87 87 9b   |       ....a... |      [87]: "2021-11-07T08:00:27Z" (1636272027) transition_time 0x5e7-0x5ee.7 (8)
0x5e0|                                             00|               .|      [88]: "2022-03-13T09:00:27Z" (1647162027) transition_time 0x5ef-0x5f6.7 (8)
0x5f0|00 00 00 62 2d b2 ab                           |...b-..         |
0x5f0|                     00 00 00 00 63 67 69 9b   |       ....cgi. |      [89]: "2022-11-06T08:00:27Z" (1667721627) transition_time 0x5f7-0x5fe.7 (8)
0x5f0|                                             00|               .|      [90]: "2023-03-12T09:00:27Z" (1678611627) transition_time 0x5ff-0x606.7 (8)
0x600|00 00 00 64 0d 94 ab                           |...d...         |
0x600|                     00 00 00 00 64 9b 78 1b   |       ....d.x. |      [91]: "2023-06-28T00:00:27Z" (1687910427) transition_time 0x607-0x60e.7 (8)
     |                                               |                |    transition_types[0:92]: 0x60f-0x66a.7 (92)
0x600|                                             02|               .|      [0]: 2 transition_type 0x60f-0x60f.7 (1)
0x610|01                                             |.               |      [1]: 1 transition_type 0x610-0x610.7 (1)
0x610|   02                                          | .              |      [2]: 2 transition_type 0x611-0x611.7 (1)
0x610|      03                                       |  .             |      [3]: 3 transition_type 0x612-0x612.7 (1)
0x610|         04                                    |   .            |      [4]: 4 transition_type 0x613-0x613.7 (1)
0x610|            03                                 |    .           |      [5]: 3 transition_type 0x614-0x614.7 (1)
0x610|               04                              |     .          |      [6]: 4 transition_type 0x615-0x615.7 (1)
0x610|                  03                           |      .         |      [7]: 3 transition_type 0x616-0x616.7 (1)
0x610|                     04                        |       .        |      [8]: 4 transition_type 0x617-0x617.7 (1)
0x610|                        03                     |        .       |      [9]: 3 transition_type 0x618-0x618.7 (1)
0x610|                           04                  |         .      |      [10]: 4 transition_type 0x619-0x619.7 (1)
0x610|                              03               |          .     |      [11]: 3 transition_type 0x61a-0x61a.7 (1)
0x610|                                 04            |           .    |      [12]: 4 transition_type 0x61b-0x61b.7 (1)
0x610|                                    03         |            .   |      [13]: 3 transition_type 0x61c-0x61c.7 (1)
0x610|                                       04      |             .  |      [14]: 4 transition_type 0x61d-0x61d.7 (1)
0x610|                                          03   |              . |      [15]: 3 transition_type 0x61e-0x61e.7 (1)
0x610|                                             04|               .|      [16]: 4 transition_type 0x61f-0x61f.7 (1)
0x620|03                                             |.               |      [17]: 3 transition_type 0x620-0x620.7 (1)
0x620|   04                                          | .              |      [18]: 4 transition_type 0x621-0x621.7 (1)
0x620|      03                                       |  .             |      [19]: 3 transition_type 0x622-0x622.7 (1)
0x620|         04                                    |   .            |      [20]: 4 transition_type 0x623-0x623.7 (1)
0x620|            03                                 |    .           |      [21]: 3 transition_type 0x624-0x624.7 (1)
0x620|               04                              |     .          |      [22]: 4 transition_type 0x625-0x625.7 (1)
0x620|                  03                           |      .         |      [23]: 3 transition_type 0x626-0x626.7 (1)
0x620|                     04                        |       .        |      [24]: 4 transition_type 0x627-0x627.7 (1)
0x620|                        03                     |        .       |      [25]: 3 transition_type 0x628-0x628.7 (1)
0x620|                           04                  |         .      |      [26]: 4 transition_type 0x629-0x629.7 (1)
0x620|                              03               |          .     |      [27]: 3 transition_type 0x62a-0x62a.7 (1)
0x620|                                 04            |           .    |      [28]: 4 transition_type 0x62b-0x62b.7 (1)
0x620|                                    03         |            .   |      [29]: 3 transition_type 0x62c-0x62c.7 (1)
0x620|                                       04      |             .  |      [30]: 4 transition_type 0x62d-0x62d.7 (1)
0x620|                                          03   |              . |      [31]: 3 transition_type 0x62e-0x62e.7 (1)
0x620|                                             04|               .|      [32]: 4 transition_type 0x62f-0x62f.7 (1)
0x630|03                                             |.               |      [33]: 3 transition_type 0x630-0x630.7 (1)
0x630|   04                                          | .              |      [34]: 4 transition_type 0x631-0x631.7 (1)
0x630|      03                                       |  .             |      [35]: 3 transition_type 0x632-0x632.7 (1)
0x630|         04                                    |   .            |      [36]: 4 transition_type 0x633-0x633.7 (1)
0x630|            03                                 |    .           |      [37]: 3 transition_type 0x634-0x634.7 (1)
0x630|               04                              |     .          |      [38]: 4 transition_type 0x635-0x635.7 (1)
0x630|                  03                           |      .         |      [39]: 3 transition_type 0x636-0x636.7 (1)
0x630|                     04                        |       .        |      [40]: 4 transition_type 0x637-0x637.7 (1)
0x630|                        03                     |        .       |      [41]: 3 transition_type 0x638-0x638.7 (1)
0x630|                           04                  |         .      |      [42]: 4 transition_type 0x639-0x639.7 (1)
0x630|                              03               |          .     |      [43]: 3 transition_type 0x63a-0x63a.7 (1)
0x630|                                 04            |           .    |      [44]: 4 transition_type 0x63b-0x63b.7 (1)
0x630|                                    03         |            .   |      [45]: 3 transition_type 0x63c-0x63c.7 (1)
0x630|                                       04      |             .  |      [46]: 4 transition_type 0x63d-0x63d.7 (1)
0x630|                                          03   |              . |      [47]: 3 transition_type 0x63e-0x63e.7 (1)
0x630|                                             04|               .|      [48]: 4 transition_type 0x63f-0x63f.7 (1)
0x640|03                                             |.               |      [49]: 3 transition_type 0x640-0x640.7 (1)
0x640|   04                                          | .              |      [50]: 4 transition_type 0x641-0x641.7 (1)
0x640|      03                                       |  .             |      [51]: 3 transition_type 0x642-0x642.7 (1)
0x640|         04                                    |   .            |      [52]: 4 transition_type 0x643-0x643.7 (1)
0x640|            03                                 |    .           |      [53]: 3 transition_type 0x644-0x644.7 (1)
0x640|               04                              |     .          |      [54]: 4 transition_type 0x645-0x645.7 (1)
0x640|                  03                           |      .         |      [55]: 3 transition_type 0x646-0x646.7 (1)
0x640|                     04                        |       .        |      [56]: 4 transition_type 0x647-0x647.7 (1)
0x640|                        03                     |        .       |      [57]: 3 transition_type 0x648-0x648.7 (1)
0x640|                           04                  |         .      |      [58]: 4 transition_type 0x649-0x649.7 (1)
0x640|                              03               |          .     |      [59]: 3 transition_type 0x64a-0x64a.7 (1)
0x640|                                 04            |           .    |      [60]: 4 transition_type 0x64b-0x64b.7 (1)
0x640|                                    03         |            .   |      [61]: 3 transition_type 0x64c-0x64c.7 (1)
0x640|                                       04      |             .  |      [62]: 4 transition_type 0x64d-0x64d.7 (1)
0x640|                                          03   |              . |      [63]: 3 transition_type 0x64e-0x64e.7 (1)
0x640|                                             04|               .|      [64]: 4 transition_type 0x64f-0x64f.7 (1)
0x650|03                                             |.               |      [65]: 3 transition_type 0x650-0x650.7 (1)
0x650|   04                                          | .              |      [66]: 4 transition_type 0x651-0x651.7 (1)
0x650|      03                                       |  .             |      [67]: 3 transition_type 0x652-0x652.7 (1)
0x650|         04                                    |   .            |      [68]: 4 transition_type 0x653-0x653.7 (1)
0x650|            03                                 |    .           |      [69]: 3 transition_type 0x654-0x654.7 (1)
0x650|               04                              |     .          |      [70]: 4 transition_type 0x655-0x655.7 (1)
0x650|                  03                           |      .         |      [71]: 3 transition_type 0x656-0x656.7 (1)
0x650|                     04                        |       .        |      [72]: 4 transition_type 0x657-0x657.7 (1)
0x650|                        03                     |        .       |      [73]: 3 transition_type 0x658-0x658.7 (1)
0x650|                           04                  |         .      |      [74]: 4 transition_type 0x659-0x659.7 (1)
0x650|                              03               |          .     |      [75]: 3 transition_type 0x65a-0x65a.7 (1)
0x650|                                 04            |           .    |      [76]: 4 transition_type 0x65b-0x65b.7 (1)
0x650|                                    03         |            .   |      [77]: 3 transition_type 0x65c-0x65c.7 (1)
0x650|                                       04      |             .  |      [78]: 4 transition_type 0x65d-0x65d.7 (1)
0x650|                                          03   |              . |      [79]: 3 transition_type 0x65e-0x65e.7 (1)
0x650|                                             04|               .|      [80]: 4 transition_type 0x65f-0x65f.7 (1)
0x660|03                                             |.               |      [81]: 3 transition_type 0x660-0x660.7 (1)
0x660|   04                                          | .              |      [82]: 4 transition_type 0x661-0x661.7 (1)
0x660|      03                                       |  .             |      [83]: 3 transition_type 0x662-0x662.7 (1)
0x660|         04                                    |   .            |      [84]: 4 transition_type 0x663-0x663.7 (1)
0x660|            03                                 |    .           |      [85]: 3 transition_type 0x664-0x664.7 (1)
0x660|               04                              |     .          |      [86]: 4 transition_type 0x665-0x665.7 (1)
0x660|                  03                           |      .         |      [87]: 3 transition_type 0x666-0x666.7 (1)
0x660|                     04                        |       .        |      [88]: 4 transition_type 0x667-0x667.7 (1)
0x660|                        03                     |        .       |      [89]: 3 transition_type 0x668-0x668.7 (1)
0x660|                           04                  |         .      |      [90]: 4 transition_type 0x669-0x669.7 (1)
0x660|                              04               |          .     |      [91]: 4 transition_type 0x66a-0x66a.7 (1)
     |                                               |                |    local_time_type_records[0:5]: 0x66b-0x688.7 (30)
     |                                               |                |      [0]{}: local_time_type 0x66b-0x670.7 (6)
0x660|                                 00 00 00 00   |           .... |        utoff: 0 (valid) 0x66b-0x66e.7 (4)
0x660|                                             00|               .|        dst: 0 (valid) 0x66f-0x66f.7 (1)
0x670|00                                             |.               |        idx: 0 (valid) 0x670-0x670.7 (1)
     |                                               |                |      [1]{}: local_time_type 0x671-0x676.7 (6)
0x670|   ff ff ab a0                                 | ....           |        utoff: -21600 (valid) 0x671-0x674.7 (4)
0x670|               01                              |     .          |        dst: 1 (valid) 0x675-0x675.7 (1)
0x670|                  04                           |      .         |        idx: 4 (valid) 0x676-0x676.7 (1)
     |                                               |                |      [2]{}: local_time_type 0x677-0x67c.7 (6)
0x670|                     ff ff 8f 80               |       ....     |        utoff: -28800 (valid) 0x677-0x67a.7 (4)
0x670|                                 00            |           .    |        dst: 0 (valid) 0x67b-0x67b.7 (1)
0x670|                                    09         |            .   |        idx: 9 (valid) 0x67c-0x67c.7 (1)
     |                                               |                |      [3]{}: local_time_type 0x67d-0x682.7 (6)
0x670|                                       ff ff 9d|             ...|        utoff: -25200 (valid) 0x67d-0x680.7 (4)
0x680|90                                             |.               |
0x680|   00                                          | .              |        dst: 0 (valid) 0x681-0x681.7 (1)
0x680|      0d                                       |  .             |        idx: 13 (valid) 0x682-0x682.7 (1)
     |                                               |                |      [4]{}: local_time_type 0x683-0x688.7 (6)
0x680|         ff ff ab a0                           |   ....         |        utoff: -21600 (valid) 0x683-0x686.7 (4)
0x680|                     01                        |       .        |        dst: 1 (valid) 0x687-0x687.7 (1)
0x680|                        11                     |        .       |        idx: 17 (valid) 0x688-0x688.7 (1)
     |                                               |                |    time_zone_designations[0:5]: 0x689-0x69d.7 (21)
0x680|                           2d 30 30 00         |         -00.   |      [0]: "-00" time_zone_designation 0x689-0x68c.7 (4)
0x680|                                       50 44 44|             PDD|      [1]: "PDDT" time_zone_designation 0x68d-0x691.7 (5)
0x690|54 00                                          |T.              |
0x690|      50 53 54 00                              |  PST.          |      [2]: "PST" time_zone_designation 0x692-0x695.7 (4)
0x690|                  4d 53 54 00                  |      MST.      |      [3]: "MST" time_zone_designation 0x696-0x699.7 (4)
0x690|                              4d 44 54 00      |          MDT.  |      [4]: "MDT" time_zone_designation 0x69a-0x69d.7 (4)
     |                                               |                |    leap_second_records[0:27]: 0x69e-0x7e1.7 (324)
     |                                               |                |      [0]{}: leap_second_record 0x69e-0x6a9.7 (12)
0x690|                                          00 00|              ..|        occur: "1972-07-01T00:00:00Z" (78796800) 0x69e-0x6a5.7 (8)
0x6a0|00 00 04 b2 58 00                              |....X.          |
0x6a0|                  00 00 00 01                  |      ....      |        corr: 1 0x6a6-0x6a9.7 (4)
     |                                               |                |      [1]{}: leap_second_record 0x6aa-0x6b5.7 (12)
0x6a0|                              00 00 00 00 05 a4|          ......|        occur: "1973-01-01T00:00:01Z" (94694401) 0x6aa-0x6b1.7 (8)
0x6b0|ec 01                                          |..              |
0x6b0|      00 00 00 02                              |  ....          |        corr: 2 0x6b2-0x6b5.7 (4)
     |                                               |                |      [2]{}: leap_second_record 0x6b6-0x6c1.7 (12)
0x6b0|                  00 00 00 00 07 86 1f 82      |      ........  |        occur: "1974-01-01T00:00:02Z" (126230402) 0x6b6-0x6bd.7 (8)
0x6b0|                                          00 00|              ..|        corr: 3 0x6be-0x6c1.7 (4)
0x6c0|00 03                                          |..              |
     |                                               |                |      [3]{}: leap_second_record 0x6c2-0x6cd.7 (12)
0x6c0|      00 00 00 00 09 67 53 03                  |  .....gS.      |        occur: "1975-01-01T00:00:03Z" (157766403) 0x6c2-0x6c9.7 (8)
0x6c0|                              00 00 00 04      |          ....  |        corr: 4 0x6ca-0x6cd.7 (4)
     |                                               |                |      [4]{}: leap_second_record 0x6ce-0x6d9.7 (12)
0x6c0|                                          00 00|              ..|        occur: "1976-01-01T00:00:04Z" (189302404) 0x6ce-0x6d5.7 (8)
0x6d0|00 00 0b 48 86 84                              |...H..          |
0x6d0|                  00 00 00 05                  |      ....      |        corr: 5 0x6d6-0x6d9.7 (4)
     |                                               |                |      [5]{}: leap_second_record 0x6da-0x6e5.7 (12)
0x6d0|                              00 00 00 00 0d 2b|          .....+|        occur: "1977-01-01T00:00:05Z" (220924805) 0x6da-0x6e1.7 (8)
0x6e0|0b 85                                          |..              |
0x6e0|      00 00 00 06                              |  ....          |        corr: 6 0x6e2-0x6e5.7 (4)
     |                                               |                |      [6]{}: leap_second_record 0x6e6-0x6f1.7 (12)
0x6e0|                  00 00 00 00 0f 0c 3f 06      |      ......?.  |        occur: "1978-01-01T00:00:06Z" (252460806) 0x6e6-0x6ed.7 (8)
0x6e0|                                          00 00|              ..|        corr: 7 0x6ee-0x6f1.7 (4)
0x6f0|00 07                                          |..              |
     |                                               |                |      [7]{}: leap_second_record 0x6f2-0x6fd.7 (12)
0x6f0|      00 00 00 00 10 ed 72 87                  |  ......r.      |        occur: "1979-01-01T00:00:07Z" (283996807) 0x6f2-0x6f9.7 (8)
0x6f0|                              00 00 00 08      |          ....  |        corr: 8 0x6fa-0x6fd.7 (4)
     |                                               |                |      [8]{}: leap_second_record 0x6fe-0x709.7 (12)
0x6f0|                                          00 00|              ..|        occur: "1980-01-01T00:00:08Z" (315532808) 0x6fe-0x705.7 (8)
0x700|00 00 12 ce a6 08                              |......          |
0x700|                  00 00 00 09                  |      ....      |        corr: 9 0x706-0x709.7 (4)
     |                                               |                |      [9]{}: leap_second_record 0x70a-0x715.7 (12)
0x700|                              00 00 00 00 15 9f|          ......|        occur: "1981-07-01T00:00:09Z" (362793609) 0x70a-0x711.7 (8)
0x710|ca 89                                          |..              |
0x710|      00 00 00 0a                              |  ....          |        corr: 10 0x712-0x715.7 (4)
     |                                               |                |      [10]{}: leap_second_record 0x716-0x721.7 (12)
0x710|                  00 00 00 00 17 80 fe 0a      |      ........  |        occur: "1982-07-01T00:00:10Z" (394329610) 0x716-0x71d.7 (8)
0x710|                                          00 00|              ..|        corr: 11 0x71e-0x721.7 (4)
0x720|00 0b                                          |..              |
     |                                               |                |      [11]{}: leap_second_record 0x722-0x72d.7 (12)
0x720|      00 00 00 00 19 62 31 8b                  |  .....b1.      |        occur: "1983-07-01T00:00:11Z" (425865611) 0x722-0x729.7 (8)
0x720|                              00 00 00 0c      |          ....  |        corr: 12 0x72a-0x72d.7 (4)
     |                                               |                |      [12]{}: leap_second_record 0x72e-0x739.7 (12)
0x720|                                          00 00|              ..|        occur: "1985-07-01T00:00:12Z" (489024012) 0x72e-0x735.7 (8)
0x730|00 00 1d 25 ea 0c                              |...%..          |
0x730|                  00 00 00 0d                  |      ....      |        corr: 13 0x736-0x739.7 (4)
     |                                               |                |      [13]{}: leap_second_record 0x73a-0x745.7 (12)
0x730|                              00 00 00 00 21 da|          ....!.|        occur: "1988-01-01T00:00:13Z" (567993613) 0x73a-0x741.7 (8)
0x740|e5 0d                                          |..              |
0x740|      00 00 00 0e                              |  ....          |        corr: 14 0x742-0x745.7 (4)
     |                                               |                |      [14]{}: leap_second_record 0x746-0x751.7 (12)
0x740|                  00 00 00 00 25 9e 9d 8e      |      ....%...  |        occur: "1990-01-01T00:00:14Z" (631152014) 0x746-0x74d.7 (8)
0x740|                                          00 00|              ..|        corr: 15 0x74e-0x751.7 (4)
0x750|00 0f                                          |..              |
     |                                               |                |      [15]{}: leap_second_record 0x752-0x75d.7 (12)
0x750|      00 00 00 00 27 7f d1 0f                  |  ....'...      |        occur: "1991-01-01T00:00:15Z" (662688015) 0x752-0x759.7 (8)
0x750|                              00 00 00 10      |          ....  |        corr: 16 0x75a-0x75d.7 (4)
     |                                               |                |      [16]{}: leap_second_record 0x75e-0x769.7 (12)
0x750|                                          00 00|              ..|        occur: "1992-07-01T00:00:16Z" (709948816) 0x75e-0x765.7 (8)
0x760|00 00 2a 50 f5 90                              |..*P..          |
0x760|                  00 00 00 11                  |      ....      |        corr: 17 0x766-0x769.7 (4)
     |                                               |                |      [17]{}: leap_second_record 0x76a-0x775.7 (12)
0x760|                              00 00 00 00 2c 32|          ....,2|        occur: "1993-07-01T00:00:17Z" (741484817) 0x76a-0x771.7 (8)
0x770|29 11                                          |).              |
0x770|      00 00 00 12                              |  ....          |        corr: 18 0x772-0x775.7 (4)
     |                                               |                |      [18]{}: leap_second_record 0x776-0x781.7 (12)
0x770|                  00 00 00 00 2e 13 5c 92      |      ......\.  |        occur: "1994-07-01T00:00:18Z" (773020818) 0x776-0x77d.7 (8)
0x770|                                          00 00|              ..|        corr: 19 0x77e-0x781.7 (4)
0x780|00 13                                          |..              |
     |                                               |                |      [19]{}: leap_second_record 0x782-0x78d.7 (12)
0x780|      00 00 00 00 30 e7 24 13                  |  ....0.$.      |        occur: "1996-01-01T00:00:19Z" (820454419) 0x782-0x789.7 (8)
0x780|                              00 00 00 14      |          ....  |        corr: 20 0x78a-0x78d.7 (4)
     |                                               |                |      [20]{}: leap_second_record 0x78e-0x799.7 (12)
0x780|                                          00 00|              ..|        occur: "1997-07-01T00:00:20Z" (867715220) 0x78e-0x795.7 (8)
0x790|00 00 33 b8 48 94                              |..3.H.          |
0x790|                  00 00 00 15                  |      ....      |        corr: 21 0x796-0x799.7 (4)
     |                                               |                |      [21]{}: leap_second_record 0x79a-0x7a5.7 (12)
0x790|                              00 00 00 00 36 8c|          ....6.|        occur: "1999-01-01T00:00:21Z" (915148821) 0x79a-0x7a1.7 (8)
0x7a0|10 15                                          |..              |
0x7a0|      00 00 00 16                              |  ....          |        corr: 22 0x7a2-0x7a5.7 (4)
     |                                               |                |      [22]{}: leap_second_record 0x7a6-0x7b1.7 (12)
0x7a0|                  00 00 00 00 43 b7 1b 96      |      ....C...  |        occur: "2006-01-01T00:00:22Z" (1136073622) 0x7a6-0x7ad.7 (8)
0x7a0|                                          00 00|              ..|        corr: 23 0x7ae-0x7b1.7 (4)
0x7b0|00 17                                          |..              |
     |                                               |                |      [23]{}: leap_second_record 0x7b2-0x7bd.7 (12)
0x7b0|      00 00 00 00 49 5c 07 97                  |  ....I\..      |        occur: "2009-01-01T00:00:23Z" (1230768023) 0x7b2-0x7b9.7 (8)
0x7b0|                              00 00 00 18      |          ....  |        corr: 24 0x7ba-0x7bd.7 (4)
     |                                               |                |      [24]{}: leap_second_record 0x7be-0x7c9.7 (12)
0x7b0|                                          00 00|              ..|        occur: "2012-07-01T00:00:24Z" (1341100824) 0x7be-0x7c5.7 (8)
0x7c0|00 00 4f ef 93 18                              |..O...          |
0x7c0|                  00 00 00 19                  |      ....      |        corr: 25 0x7c6-0x7c9.7 (4)
     |                                               |                |      [25]{}: leap_second_record 0x7ca-0x7d5.7 (12)
0x7c0|                              00 00 00 00 55 93|          ....U.|        occur: "2015-07-01T00:00:25Z" (1435708825) 0x7ca-0x7d1.7 (8)
0x7d0|2d 99                                          |-.              |
0x7d0|      00 00 00 1a                              |  ....          |        corr: 26 0x7d2-0x7d5.7 (4)
     |                                               |                |      [26]{}: leap_second_record 0x7d6-0x7e1.7 (12)
0x7d0|                  00 00 00 00 58 68 46 9a      |      ....XhF.  |        occur: "2017-01-01T00:00:26Z" (1483228826) 0x7d6-0x7dd.7 (8)
0x7d0|                                          00 00|              ..|        corr: 27 0x7de-0x7e1.7 (4)
0x7e0|00 1b                                          |..              |
     |                                               |                |    standard_wall_indicators[0:0]: 0x7e2-NA (0)
     |                                               |                |    ut_local_indicators[0:0]: 0x7e2-NA (0)
     |                                               |                |  footer{}: 0x7e2-0x7e3.7 (2)
0x7e0|      0a                                       |  .             |    nl1: 10 (valid) 0x7e2-0x7e2.7 (1)
     |                                               |                |    tz_string: "" 0x7e3-NA (0)
0x7e0|         0a|                                   |   .|           |    nl2: 10 (valid) 0x7e3-0x7e3.7 (1)
