$ fq -d tzif dv Istanbul
     |00 01 02 03 04 05 06 07 08 09 0a 0b 0c 0d 0e 0f|0123456789abcdef|.{}: Istanbul (tzif) 0x0-0x79b (1947)
     |                                               |                |  v1header{}: 0x0-0x2c (44)
0x000|54 5a 69 66                                    |TZif            |    magic: 0x545a6966 (valid) 0x0-0x4 (4)
0x000|            32                                 |    2           |    ver: "2" (0x32) (valid) 0x4-0x5 (1)
0x000|               00 00 00 00 00 00 00 00 00 00 00|     ...........|    reserved: raw bits 0x5-0x14 (15)
0x010|00 00 00 00                                    |....            |
0x010|            00 00 00 0b                        |    ....        |    isutcnt: 11 0x14-0x18 (4)
0x010|                        00 00 00 0b            |        ....    |    isstdcnt: 11 0x18-0x1c (4)
0x010|                                    00 00 00 00|            ....|    leapcnt: 0 0x1c-0x20 (4)
0x020|00 00 00 74                                    |...t            |    timecnt: 116 0x20-0x24 (4)
0x020|            00 00 00 0b                        |    ....        |    typecnt: 11 0x24-0x28 (4)
0x020|                        00 00 00 19            |        ....    |    charcnt: 25 0x28-0x2c (4)
     |                                               |                |  v1datablock{}: 0x2c-0x2e1 (693)
     |                                               |                |    transition_times[0:116]: 0x2c-0x1fc (464)
0x020|                                    80 00 00 00|            ....|      [0]: "1901-12-13T20:45:52Z" (-2147483648) transition_time 0x2c-0x30 (4)
0x030|90 8b f5 98                                    |....            |      [1]: "1910-09-30T22:03:04Z" (-1869875816) transition_time 0x30-0x34 (4)
0x030|            9b 0c 17 60                        |    ...`        |      [2]: "1916-04-30T22:00:00Z" (-1693706400) transition_time 0x34-0x38 (4)
0x030|                        9b d5 be d0            |        ....    |      [3]: "1916-09-30T21:00:00Z" (-1680490800) transition_time 0x38-0x3c (4)
0x030|                                    a2 65 63 e0|            .ec.|      [4]: "1920-03-27T22:00:00Z" (-1570413600) transition_time 0x3c-0x40 (4)
0x040|a3 7b 82 50                                    |.{.P            |      [5]: "1920-10-24T21:00:00Z" (-1552186800) transition_time 0x40-0x44 (4)
0x040|            a4 4e 80 60                        |    .N.`        |      [6]: "1921-04-02T22:00:00Z" (-1538359200) transition_time 0x44-0x48 (4)
0x040|                        a5 3f b4 d0            |        .?..    |      [7]: "1921-10-02T21:00:00Z" (-1522551600) transition_time 0x48-0x4c (4)
0x040|                                    a6 25 27 e0|            .%'.|      [8]: "1922-03-25T22:00:00Z" (-1507514400) transition_time 0x4c-0x50 (4)
0x050|a7 27 7f d0                                    |.'..            |      [9]: "1922-10-07T21:00:00Z" (-1490583600) transition_time 0x50-0x54 (4)
0x050|            aa 28 28 60                        |    .((`        |      [10]: "1924-05-12T22:00:00Z" (-1440208800) transition_time 0x54-0x58 (4)
0x050|                        aa e1 fd d0            |        ....    |      [11]: "1924-09-30T21:00:00Z" (-1428030000) transition_time 0x58-0x5c (4)
0x050|                                    ab f9 89 e0|            ....|      [12]: "1925-04-30T22:00:00Z" (-1409709600) transition_time 0x5c-0x60 (4)
0x060|ac c3 31 50                                    |..1P            |      [13]: "1925-09-30T21:00:00Z" (-1396494000) transition_time 0x60-0x64 (4)
0x060|            c8 81 3f e0                        |    ..?.        |      [14]: "1940-06-30T22:00:00Z" (-931053600) transition_time 0x64-0x68 (4)
0x060|                        c9 01 13 50            |        ...P    |      [15]: "1940-10-05T21:00:00Z" (-922676400) transition_time 0x68-0x6c (4)
0x060|                                    c9 4a f5 60|            .J.`|      [16]: "1940-11-30T22:00:00Z" (-917834400) transition_time 0x6c-0x70 (4)
0x070|ca ce 80 50                                    |...P            |      [17]: "1941-09-20T21:00:00Z" (-892436400) transition_time 0x70-0x74 (4)
0x070|            cb cb ae 60                        |    ...`        |      [18]: "1942-03-31T22:00:00Z" (-875844000) transition_time 0x74-0x78 (4)
0x070|                        d2 6b 09 50            |        .k.P    |      [19]: "1945-10-07T21:00:00Z" (-764737200) transition_time 0x78-0x7c (4)
0x070|                                    d3 a2 39 60|            ..9`|      [20]: "1946-05-31T22:00:00Z" (-744343200) transition_time 0x7c-0x80 (4)
0x080|d4 43 02 50                                    |.C.P            |      [21]: "1946-09-30T21:00:00Z" (-733806000) transition_time 0x80-0x84 (4)
0x080|            d5 4c 0d e0                        |    .L..        |      [22]: "1947-04-19T22:00:00Z" (-716436000) transition_time 0x84-0x88 (4)
0x080|                        d6 29 7b d0            |        .){.    |      [23]: "1947-10-04T21:00:00Z" (-701924400) transition_time 0x88-0x8c (4)
0x080|                                    d7 2b ef e0|            .+..|      [24]: "1948-04-17T22:00:00Z" (-684986400) transition_time 0x8c-0x90 (4)
0x090|d8 09 5d d0                                    |..].            |      [25]: "1948-10-02T21:00:00Z" (-670474800) transition_time 0x90-0x94 (4)
0x090|            d9 02 97 60                        |    ...`        |      [26]: "1949-04-09T22:00:00Z" (-654141600) transition_time 0x94-0x98 (4)
0x090|                        d9 e9 3f d0            |        ..?.    |      [27]: "1949-10-01T21:00:00Z" (-639025200) transition_time 0x98-0x9c (4)
0x090|                                    da eb b3 e0|            ....|      [28]: "1950-04-15T22:00:00Z" (-622087200) transition_time 0x9c-0xa0 (4)
0x0a0|db d2 5c 50                                    |..\P            |      [29]: "1950-10-07T21:00:00Z" (-606970800) transition_time 0xa0-0xa4 (4)
0x0a0|            dc d4 d0 60                        |    ...`        |      [30]: "1951-04-21T22:00:00Z" (-590032800) transition_time 0xa4-0xa8 (4)
0x0a0|                        dd b2 3e 50            |        ..>P    |      [31]: "1951-10-06T21:00:00Z" (-575521200) transition_time 0xa8-0xac (4)
0x0a0|                                    f1 f4 b9 60|            ...`|      [32]: "1962-07-14T22:00:00Z" (-235620000) transition_time 0xac-0xb0 (4)
0x0b0|f4 62 ef 50                                    |.b.P            |      [33]: "1963-10-29T21:00:00Z" (-194842800) transition_time 0xb0-0xb4 (4)
0x0b0|            f5 68 06 60                        |    .h.`        |      [34]: "1964-05-14T22:00:00Z" (-177732000) transition_time 0xb4-0xb8 (4)
0x0b0|                        f6 1f 38 d0            |        ..8.    |      [35]: "1964-09-30T21:00:00Z" (-165726000) transition_time 0xb8-0xbc (4)
0x0b0|                                    06 6e 93 70|            .n.p|      [36]: "1973-06-02T23:00:00Z" (107910000) transition_time 0xbc-0xc0 (4)
0x0c0|07 39 9a 70                                    |.9.p            |      [37]: "1973-11-03T23:00:00Z" (121215600) transition_time 0xc0-0xc4 (4)
0x0c0|            07 fb 75 00                        |    ..u.        |      [38]: "1974-03-31T00:00:00Z" (133920000) transition_time 0xc4-0xc8 (4)
0x0c0|                        09 19 7c 70            |        ..|p    |      [39]: "1974-11-02T23:00:00Z" (152665200) transition_time 0xc8-0xcc (4)
0x0c0|                                    09 d0 cb 00|            ....|      [40]: "1975-03-22T00:00:00Z" (164678400) transition_time 0xcc-0xd0 (4)
0x0d0|0a f9 5e 70                                    |..^p            |      [41]: "1975-11-01T23:00:00Z" (184114800) transition_time 0xd0-0xd4 (4)
0x0d0|            0b b1 fe 80                        |    ....        |      [42]: "1976-03-21T00:00:00Z" (196214400) transition_time 0xd4-0xd8 (4)
0x0d0|                        0c d9 40 70            |        ..@p    |      [43]: "1976-10-30T23:00:00Z" (215564400) transition_time 0xd8-0xdc (4)
0x0d0|                                    0d a4 55 80|            ..U.|      [44]: "1977-04-03T00:00:00Z" (228873600) transition_time 0xdc-0xe0 (4)
0x0e0|0e a6 ad 70                                    |...p            |      [45]: "1977-10-15T23:00:00Z" (245804400) transition_time 0xe0-0xe4 (4)
0x0e0|            0f 84 37 80                        |    ..7.        |      [46]: "1978-04-02T00:00:00Z" (260323200) transition_time 0xe4-0xe8 (4)
0x0e0|                        0f f8 11 50            |        ...P    |      [47]: "1978-06-28T21:00:00Z" (267915600) transition_time 0xe8-0xec (4)
0x0e0|                                    19 89 b0 70|            ...p|      [48]: "1983-07-30T23:00:00Z" (428454000) transition_time 0xec-0xf0 (4)
0x0f0|19 dc b0 e0                                    |....            |      [49]: "1983-10-01T22:00:00Z" (433893600) transition_time 0xf0-0xf4 (4)
0x0f0|            1b e6 d0 f0                        |    ....        |      [50]: "1984-10-31T23:00:00Z" (468111600) transition_time 0xf4-0xf8 (4)
0x0f0|                        1c c6 ef f0            |        ....    |      [51]: "1985-04-19T23:00:00Z" (482799600) transition_time 0xf8-0xfc (4)
0x0f0|                                    1d 9b 31 70|            ..1p|      [52]: "1985-09-27T23:00:00Z" (496710000) transition_time 0xfc-0x100 (4)
0x100|1e 8c 73 f0                                    |..s.            |      [53]: "1986-03-29T23:00:00Z" (512521200) transition_time 0x100-0x104 (4)
0x100|            1f 7c 64 f0                        |    .|d.        |      [54]: "1986-09-27T23:00:00Z" (528246000) transition_time 0x104-0x108 (4)
0x100|                        20 6c 55 f0            |         lU.    |      [55]: "1987-03-28T23:00:00Z" (543970800) transition_time 0x108-0x10c (4)
0x100|                                    21 5c 46 f0|            !\F.|      [56]: "1987-09-26T23:00:00Z" (559695600) transition_time 0x10c-0x110 (4)
0x110|22 4c 37 f0                                    |"L7.            |      [57]: "1988-03-26T23:00:00Z" (575420400) transition_time 0x110-0x114 (4)
0x110|            23 3c 28 f0                        |    #<(.        |      [58]: "1988-09-24T23:00:00Z" (591145200) transition_time 0x114-0x118 (4)
0x110|                        24 2c 19 f0            |        $,..    |      [59]: "1989-03-25T23:00:00Z" (606870000) transition_time 0x118-0x11c (4)
0x110|                                    25 1c 0a f0|            %...|      [60]: "1989-09-23T23:00:00Z" (622594800) transition_time 0x11c-0x120 (4)
0x120|26 0b fb f0                                    |&...            |      [61]: "1990-03-24T23:00:00Z" (638319600) transition_time 0x120-0x124 (4)
0x120|            27 05 27 70                        |    '.'p        |      [62]: "1990-09-29T23:00:00Z" (654649200) transition_time 0x124-0x128 (4)
0x120|                        27 f5 18 70            |        '..p    |      [63]: "1991-03-30T23:00:00Z" (670374000) transition_time 0x128-0x12c (4)
0x120|                                    28 e5 09 70|            (..p|      [64]: "1991-09-28T23:00:00Z" (686098800) transition_time 0x12c-0x130 (4)
0x130|29 d4 fa 70                                    |)..p            |      [65]: "1992-03-28T23:00:00Z" (701823600) transition_time 0x130-0x134 (4)
0x130|            2a c4 eb 70                        |    *..p        |      [66]: "1992-09-26T23:00:00Z" (717548400) transition_time 0x134-0x138 (4)
0x130|                        2b b4 dc 70            |        +..p    |      [67]: "1993-03-27T23:00:00Z" (733273200) transition_time 0x138-0x13c (4)
0x130|                                    2c a4 cd 70|            ,..p|      [68]: "1993-09-25T23:00:00Z" (748998000) transition_time 0x13c-0x140 (4)
0x140|2d 8b 83 f0                                    |-...            |      [69]: "1994-03-19T23:00:00Z" (764118000) transition_time 0x140-0x144 (4)
0x140|            2e 84 af 70                        |    ...p        |      [70]: "1994-09-24T23:00:00Z" (780447600) transition_time 0x144-0x148 (4)
0x140|                        2f 74 a0 70            |        /t.p    |      [71]: "1995-03-25T23:00:00Z" (796172400) transition_time 0x148-0x14c (4)
0x140|                                    30 64 91 70|            0d.p|      [72]: "1995-09-23T23:00:00Z" (811897200) transition_time 0x14c-0x150 (4)
0x150|31 5d bc f0                                    |1]..            |      [73]: "1996-03-30T23:00:00Z" (828226800) transition_time 0x150-0x154 (4)
0x150|            32 72 97 f0                        |    2r..        |      [74]: "1996-10-26T23:00:00Z" (846370800) transition_time 0x154-0x158 (4)
0x150|                        33 3d 9e f0            |        3=..    |      [75]: "1997-03-29T23:00:00Z" (859676400) transition_time 0x158-0x15c (4)
0x150|                                    34 52 79 f0|            4Ry.|      [76]: "1997-10-25T23:00:00Z" (877820400) transition_time 0x15c-0x160 (4)
0x160|35 1d 80 f0                                    |5...            |      [77]: "1998-03-28T23:00:00Z" (891126000) transition_time 0x160-0x164 (4)
0x160|            36 32 5b f0                        |    62[.        |      [78]: "1998-10-24T23:00:00Z" (909270000) transition_time 0x164-0x168 (4)
0x160|                        36 fd 62 f0            |        6.b.    |      [79]: "1999-03-27T23:00:00Z" (922575600) transition_time 0x168-0x16c (4)
0x160|                                    38 1b 78 70|            8.xp|      [80]: "1999-10-30T23:00:00Z" (941324400) transition_time 0x16c-0x170 (4)
0x170|38 dd 44 f0                                    |8.D.            |      [81]: "2000-03-25T23:00:00Z" (954025200) transition_time 0x170-0x174 (4)
0x170|            39 fb 5a 70                        |    9.Zp        |      [82]: "2000-10-28T23:00:00Z" (972774000) transition_time 0x174-0x178 (4)
0x170|                        3a bd 26 f0            |        :.&.    |      [83]: "2001-03-24T23:00:00Z" (985474800) transition_time 0x178-0x17c (4)
0x170|                                    3b db 3c 70|            ;.<p|      [84]: "2001-10-27T23:00:00Z" (1004223600) transition_time 0x17c-0x180 (4)
0x180|3c a6 43 70                                    |<.Cp            |      [85]: "2002-03-30T23:00:00Z" (1017529200) transition_time 0x180-0x184 (4)
0x180|            3d bb 1e 70                        |    =..p        |      [86]: "2002-10-26T23:00:00Z" (1035673200) transition_time 0x184-0x188 (4)
0x180|                        3e 86 25 70            |        >.%p    |      [87]: "2003-03-29T23:00:00Z" (1048978800) transition_time 0x188-0x18c (4)
0x180|                                    3f 9b 00 70|            ?..p|      [88]: "2003-10-25T23:00:00Z" (1067122800) transition_time 0x18c-0x190 (4)
0x190|40 66 07 70                                    |@f.p            |      [89]: "2004-03-27T23:00:00Z" (1080428400) transition_time 0x190-0x194 (4)
0x190|            41 84 1c f0                        |    A...        |      [90]: "2004-10-30T23:00:00Z" (1099177200) transition_time 0x194-0x198 (4)
0x190|                        42 45 e9 70            |        BE.p    |      [91]: "2005-03-26T23:00:00Z" (1111878000) transition_time 0x198-0x19c (4)
0x190|                                    43 63 fe f0|            Cc..|      [92]: "2005-10-29T23:00:00Z" (1130626800) transition_time 0x19c-0x1a0 (4)
0x1a0|44 25 cb 70                                    |D%.p            |      [93]: "2006-03-25T23:00:00Z" (1143327600) transition_time 0x1a0-0x1a4 (4)
0x1a0|            45 43 e0 f0                        |    EC..        |      [94]: "2006-10-28T23:00:00Z" (1162076400) transition_time 0x1a4-0x1a8 (4)
0x1a0|                        46 05 c9 90            |        F...    |      [95]: "2007-03-25T01:00:00Z" (1174784400) transition_time 0x1a8-0x1ac (4)
0x1a0|                                    47 23 df 10|            G#..|      [96]: "2007-10-28T01:00:00Z" (1193533200) transition_time 0x1ac-0x1b0 (4)
0x1b0|47 ee e6 10                                    |G...            |      [97]: "2008-03-30T01:00:00Z" (1206838800) transition_time 0x1b0-0x1b4 (4)
0x1b0|            49 03 c1 10                        |    I...        |      [98]: "2008-10-26T01:00:00Z" (1224982800) transition_time 0x1b4-0x1b8 (4)
0x1b0|                        49 ce c8 10            |        I...    |      [99]: "2009-03-29T01:00:00Z" (1238288400) transition_time 0x1b8-0x1bc (4)
0x1b0|                                    4a e3 a3 10|            J...|      [100]: "2009-10-25T01:00:00Z" (1256432400) transition_time 0x1bc-0x1c0 (4)
0x1c0|4b ae aa 10                                    |K...            |      [101]: "2010-03-28T01:00:00Z" (1269738000) transition_time 0x1c0-0x1c4 (4)
0x1c0|            4c cc bf 90                        |    L...        |      [102]: "2010-10-31T01:00:00Z" (1288486800) transition_time 0x1c4-0x1c8 (4)
0x1c0|                        4d 8f dd 90            |        M...    |      [103]: "2011-03-28T01:00:00Z" (1301274000) transition_time 0x1c8-0x1cc (4)
0x1c0|                                    4e ac a1 90|            N...|      [104]: "2011-10-30T01:00:00Z" (1319936400) transition_time 0x1cc-0x1d0 (4)
0x1d0|4f 6e 6e 10                                    |Onn.            |      [105]: "2012-03-25T01:00:00Z" (1332637200) transition_time 0x1d0-0x1d4 (4)
0x1d0|            50 8c 83 90                        |    P...        |      [106]: "2012-10-28T01:00:00Z" (1351386000) transition_time 0x1d4-0x1d8 (4)
0x1d0|                        51 57 8a 90            |        QW..    |      [107]: "2013-03-31T01:00:00Z" (1364691600) transition_time 0x1d8-0x1dc (4)
0x1d0|                                    52 6c 65 90|            Rle.|      [108]: "2013-10-27T01:00:00Z" (1382835600) transition_time 0x1dc-0x1e0 (4)
0x1e0|53 38 be 10                                    |S8..            |      [109]: "2014-03-31T01:00:00Z" (1396227600) transition_time 0x1e0-0x1e4 (4)
0x1e0|            54 4c 47 90                        |    TLG.        |      [110]: "2014-10-26T01:00:00Z" (1414285200) transition_time 0x1e4-0x1e8 (4)
0x1e0|                        55 17 4e 90            |        U.N.    |      [111]: "2015-03-29T01:00:00Z" (1427590800) transition_time 0x1e8-0x1ec (4)
0x1e0|                                    56 3e 9e 90|            V>..|      [112]: "2015-11-08T01:00:00Z" (1446944400) transition_time 0x1ec-0x1f0 (4)
0x1f0|56 f7 30 90                                    |V.0.            |      [113]: "2016-03-27T01:00:00Z" (1459040400) transition_time 0x1f0-0x1f4 (4)
0x1f0|            57 cf 2e 50                        |    W..P        |      [114]: "2016-09-06T21:00:00Z" (1473195600) transition_time 0x1f4-0x1f8 (4)
0x1f0|                        7f ff ff ff            |        ....    |      [115]: "2038-01-19T03:14:07Z" (2147483647) transition_time 0x1f8-0x1fc (4)
     |                                               |                |    transition_types[0:116]: 0x1fc-0x270 (116)
0x1f0|                                    01         |            .   |      [0]: 1 transition_type 0x1fc-0x1fd (1)
0x1f0|                                       03      |             .  |      [1]: 3 transition_type 0x1fd-0x1fe (1)
0x1f0|                                          02   |              . |      [2]: 2 transition_type 0x1fe-0x1ff (1)
0x1f0|                                             03|               .|      [3]: 3 transition_type 0x1ff-0x200 (1)
0x200|02                                             |.               |      [4]: 2 transition_type 0x200-0x201 (1)
0x200|   03                                          | .              |      [5]: 3 transition_type 0x201-0x202 (1)
0x200|      02                                       |  .             |      [6]: 2 transition_type 0x202-0x203 (1)
0x200|         03                                    |   .            |      [7]: 3 transition_type 0x203-0x204 (1)
0x200|            02                                 |    .           |      [8]: 2 transition_type 0x204-0x205 (1)
0x200|               03                              |     .          |      [9]: 3 transition_type 0x205-0x206 (1)
0x200|                  02                           |      .         |      [10]: 2 transition_type 0x206-0x207 (1)
0x200|                     03                        |       .        |      [11]: 3 transition_type 0x207-0x208 (1)
0x200|                        02                     |        .       |      [12]: 2 transition_type 0x208-0x209 (1)
0x200|                           03                  |         .      |      [13]: 3 transition_type 0x209-0x20a (1)
0x200|                              02               |          .     |      [14]: 2 transition_type 0x20a-0x20b (1)
0x200|                                 03            |           .    |      [15]: 3 transition_type 0x20b-0x20c (1)
0x200|                                    02         |            .   |      [16]: 2 transition_type 0x20c-0x20d (1)
0x200|                                       03      |             .  |      [17]: 3 transition_type 0x20d-0x20e (1)
0x200|                                          02   |              . |      [18]: 2 transition_type 0x20e-0x20f (1)
0x200|                                             03|               .|      [19]: 3 transition_type 0x20f-0x210 (1)
0x210|02                                             |.               |      [20]: 2 transition_type 0x210-0x211 (1)
0x210|   03                                          | .              |      [21]: 3 transition_type 0x211-0x212 (1)
0x210|      02                                       |  .             |      [22]: 2 transition_type 0x212-0x213 (1)
0x210|         03                                    |   .            |      [23]: 3 transition_type 0x213-0x214 (1)
0x210|            02                                 |    .           |      [24]: 2 transition_type 0x214-0x215 (1)
0x210|               03                              |     .          |      [25]: 3 transition_type 0x215-0x216 (1)
0x210|                  02                           |      .         |      [26]: 2 transition_type 0x216-0x217 (1)
0x210|                     03                        |       .        |      [27]: 3 transition_type 0x217-0x218 (1)
0x210|                        02                     |        .       |      [28]: 2 transition_type 0x218-0x219 (1)
0x210|                           03                  |         .      |      [29]: 3 transition_type 0x219-0x21a (1)
0x210|                              02               |          .     |      [30]: 2 transition_type 0x21a-0x21b (1)
0x210|                                 03            |           .    |      [31]: 3 transition_type 0x21b-0x21c (1)
0x210|                                    02         |            .   |      [32]: 2 transition_type 0x21c-0x21d (1)
0x210|                                       03      |             .  |      [33]: 3 transition_type 0x21d-0x21e (1)
0x210|                                          02   |              . |      [34]: 2 transition_type 0x21e-0x21f (1)
0x210|                                             03|               .|      [35]: 3 transition_type 0x21f-0x220 (1)
0x220|02                                             |.               |      [36]: 2 transition_type 0x220-0x221 (1)
0x220|   03                                          | .              |      [37]: 3 transition_type 0x221-0x222 (1)
0x220|      02                                       |  .             |      [38]: 2 transition_type 0x222-0x223 (1)
0x220|         03                                    |   .            |      [39]: 3 transition_type 0x223-0x224 (1)
0x220|            02                                 |    .           |      [40]: 2 transition_type 0x224-0x225 (1)
0x220|               03                              |     .          |      [41]: 3 transition_type 0x225-0x226 (1)
0x220|                  02                           |      .         |      [42]: 2 transition_type 0x226-0x227 (1)
0x220|                     03                        |       .        |      [43]: 3 transition_type 0x227-0x228 (1)
0x220|                        02                     |        .       |      [44]: 2 transition_type 0x228-0x229 (1)
0x220|                           03                  |         .      |      [45]: 3 transition_type 0x229-0x22a (1)
0x220|                              02               |          .     |      [46]: 2 transition_type 0x22a-0x22b (1)
0x220|                                 04            |           .    |      [47]: 4 transition_type 0x22b-0x22c (1)
0x220|                                    05         |            .   |      [48]: 5 transition_type 0x22c-0x22d (1)
0x220|                                       04      |             .  |      [49]: 4 transition_type 0x22d-0x22e (1)
0x220|                                          03   |              . |      [50]: 3 transition_type 0x22e-0x22f (1)
0x220|                                             06|               .|      [51]: 6 transition_type 0x22f-0x230 (1)
0x230|07                                             |.               |      [52]: 7 transition_type 0x230-0x231 (1)
0x230|   06                                          | .              |      [53]: 6 transition_type 0x231-0x232 (1)
0x230|      07                                       |  .             |      [54]: 7 transition_type 0x232-0x233 (1)
0x230|         06                                    |   .            |      [55]: 6 transition_type 0x233-0x234 (1)
0x230|            07                                 |    .           |      [56]: 7 transition_type 0x234-0x235 (1)
0x230|               06                              |     .          |      [57]: 6 transition_type 0x235-0x236 (1)
0x230|                  07                           |      .         |      [58]: 7 transition_type 0x236-0x237 (1)
0x230|                     06                        |       .        |      [59]: 6 transition_type 0x237-0x238 (1)
0x230|                        07                     |        .       |      [60]: 7 transition_type 0x238-0x239 (1)
0x230|                           06                  |         .      |      [61]: 6 transition_type 0x239-0x23a (1)
0x230|                              07               |          .     |      [62]: 7 transition_type 0x23a-0x23b (1)
0x230|                                 06            |           .    |      [63]: 6 transition_type 0x23b-0x23c (1)
0x230|                                    07         |            .   |      [64]: 7 transition_type 0x23c-0x23d (1)
0x230|                                       06      |             .  |      [65]: 6 transition_type 0x23d-0x23e (1)
0x230|                                          07   |              . |      [66]: 7 transition_type 0x23e-0x23f (1)
0x230|                                             06|               .|      [67]: 6 transition_type 0x23f-0x240 (1)
0x240|07                                             |.               |      [68]: 7 transition_type 0x240-0x241 (1)
0x240|   06                                          | .              |      [69]: 6 transition_type 0x241-0x242 (1)
0x240|      07                                       |  .             |      [70]: 7 transition_type 0x242-0x243 (1)
0x240|         06                                    |   .            |      [71]: 6 transition_type 0x243-0x244 (1)
0x240|            07                                 |    .           |      [72]: 7 transition_type 0x244-0x245 (1)
0x240|               06                              |     .          |      [73]: 6 transition_type 0x245-0x246 (1)
0x240|                  07                           |      .         |      [74]: 7 transition_type 0x246-0x247 (1)
0x240|                     06                        |       .        |      [75]: 6 transition_type 0x247-0x248 (1)
0x240|                        07                     |        .       |      [76]: 7 transition_type 0x248-0x249 (1)
0x240|                           06                  |         .      |      [77]: 6 transition_type 0x249-0x24a (1)
0x240|                              07               |          .     |      [78]: 7 transition_type 0x24a-0x24b (1)
0x240|                                 06            |           .    |      [79]: 6 transition_type 0x24b-0x24c (1)
0x240|                                    07         |            .   |      [80]: 7 transition_type 0x24c-0x24d (1)
0x240|                                       06      |             .  |      [81]: 6 transition_type 0x24d-0x24e (1)
0x240|                                          07   |              . |      [82]: 7 transition_type 0x24e-0x24f (1)
0x240|                                             06|               .|      [83]: 6 transition_type 0x24f-0x250 (1)
0x250|07                                             |.               |      [84]: 7 transition_type 0x250-0x251 (1)
0x250|   06                                          | .              |      [85]: 6 transition_type 0x251-0x252 (1)
0x250|      07                                       |  .             |      [86]: 7 transition_type 0x252-0x253 (1)
0x250|         06                                    |   .            |      [87]: 6 transition_type 0x253-0x254 (1)
0x250|            07                                 |    .           |      [88]: 7 transition_type 0x254-0x255 (1)
0x250|               06                              |     .          |      [89]: 6 transition_type 0x255-0x256 (1)
0x250|                  07                           |      .         |      [90]: 7 transition_type 0x256-0x257 (1)
0x250|                     06                        |       .        |      [91]: 6 transition_type 0x257-0x258 (1)
0x250|                        07                     |        .       |      [92]: 7 transition_type 0x258-0x259 (1)
0x250|                           06                  |         .      |      [93]: 6 transition_type 0x259-0x25a (1)
0x250|                              07               |          .     |      [94]: 7 transition_type 0x25a-0x25b (1)
0x250|                                 08            |           .    |      [95]: 8 transition_type 0x25b-0x25c (1)
0x250|                                    09         |            .   |      [96]: 9 transition_type 0x25c-0x25d (1)
0x250|                                       08      |             .  |      [97]: 8 transition_type 0x25d-0x25e (1)
0x250|                                          09   |              . |      [98]: 9 transition_type 0x25e-0x25f (1)
0x250|                                             08|               .|      [99]: 8 transition_type 0x25f-0x260 (1)
0x260|09                                             |.               |      [100]: 9 transition_type 0x260-0x261 (1)
0x260|   08                                          | .              |      [101]: 8 transition_type 0x261-0x262 (1)
0x260|      09                                       |  .             |      [102]: 9 transition_type 0x262-0x263 (1)
0x260|         08                                    |   .            |      [103]: 8 transition_type 0x263-0x264 (1)
0x260|            09                                 |    .           |      [104]: 9 transition_type 0x264-0x265 (1)
0x260|               08                              |     .          |      [105]: 8 transition_type 0x265-0x266 (1)
0x260|                  09                           |      .         |      [106]: 9 transition_type 0x266-0x267 (1)
0x260|                     08                        |       .        |      [107]: 8 transition_type 0x267-0x268 (1)
0x260|                        09                     |        .       |      [108]: 9 transition_type 0x268-0x269 (1)
0x260|                           08                  |         .      |      [109]: 8 transition_type 0x269-0x26a (1)
0x260|                              09               |          .     |      [110]: 9 transition_type 0x26a-0x26b (1)
0x260|                                 08            |           .    |      [111]: 8 transition_type 0x26b-0x26c (1)
0x260|                                    09         |            .   |      [112]: 9 transition_type 0x26c-0x26d (1)
0x260|                                       08      |             .  |      [113]: 8 transition_type 0x26d-0x26e (1)
0x260|                                          04   |              . |      [114]: 4 transition_type 0x26e-0x26f (1)
0x260|                                             04|               .|      [115]: 4 transition_type 0x26f-0x270 (1)
     |                                               |                |    local_time_type_records[0:11]: 0x270-0x2b2 (66)
     |                                               |                |      [0]{}: local_time_type 0x270-0x276 (6)
0x270|00 00 1b 28                                    |...(            |        utoff: 6952 (valid) 0x270-0x274 (4)
0x270|            00                                 |    .           |        dst: 0 (valid) 0x274-0x275 (1)
0x270|               00                              |     .          |        idx: 0 (valid) 0x275-0x276 (1)
     |                                               |                |      [1]{}: local_time_type 0x276-0x27c (6)
0x270|                  00 00 1b 68                  |      ...h      |        utoff: 7016 (valid) 0x276-0x27a (4)
0x270|                              00               |          .     |        dst: 0 (valid) 0x27a-0x27b (1)
0x270|                                 04            |           .    |        idx: 4 (valid) 0x27b-0x27c (1)
     |                                               |                |      [2]{}: local_time_type 0x27c-0x282 (6)
0x270|                                    00 00 2a 30|            ..*0|        utoff: 10800 (valid) 0x27c-0x280 (4)
0x280|01                                             |.               |        dst: 1 (valid) 0x280-0x281 (1)
0x280|   08                                          | .              |        idx: 8 (valid) 0x281-0x282 (1)
     |                                               |                |      [3]{}: local_time_type 0x282-0x288 (6)
0x280|      00 00 1c 20                              |  ...           |        utoff: 7200 (valid) 0x282-0x286 (4)
0x280|                  00                           |      .         |        dst: 0 (valid) 0x286-0x287 (1)
0x280|                     0d                        |       .        |        idx: 13 (valid) 0x287-0x288 (1)
     |                                               |                |      [4]{}: local_time_type 0x288-0x28e (6)
0x280|                        00 00 2a 30            |        ..*0    |        utoff: 10800 (valid) 0x288-0x28c (4)
0x280|                                    00         |            .   |        dst: 0 (valid) 0x28c-0x28d (1)
0x280|                                       11      |             .  |        idx: 17 (valid) 0x28d-0x28e (1)
     |                                               |                |      [5]{}: local_time_type 0x28e-0x294 (6)
0x280|                                          00 00|              ..|        utoff: 14400 (valid) 0x28e-0x292 (4)
0x290|38 40                                          |8@              |
0x290|      01                                       |  .             |        dst: 1 (valid) 0x292-0x293 (1)
0x290|         15                                    |   .            |        idx: 21 (valid) 0x293-0x294 (1)
     |                                               |                |      [6]{}: local_time_type 0x294-0x29a (6)
0x290|            00 00 2a 30                        |    ..*0        |        utoff: 10800 (valid) 0x294-0x298 (4)
0x290|                        01                     |        .       |        dst: 1 (valid) 0x298-0x299 (1)
0x290|                           08                  |         .      |        idx: 8 (valid) 0x299-0x29a (1)
     |                                               |                |      [7]{}: local_time_type 0x29a-0x2a0 (6)
0x290|                              00 00 1c 20      |          ...   |        utoff: 7200 (valid) 0x29a-0x29e (4)
0x290|                                          00   |              . |        dst: 0 (valid) 0x29e-0x29f (1)
0x290|                                             0d|               .|        idx: 13 (valid) 0x29f-0x2a0 (1)
     |                                               |                |      [8]{}: local_time_type 0x2a0-0x2a6 (6)
0x2a0|00 00 2a 30                                    |..*0            |        utoff: 10800 (valid) 0x2a0-0x2a4 (4)
0x2a0|            01                                 |    .           |        dst: 1 (valid) 0x2a4-0x2a5 (1)
0x2a0|               08                              |     .          |        idx: 8 (valid) 0x2a5-0x2a6 (1)
     |                                               |                |      [9]{}: local_time_type 0x2a6-0x2ac (6)
0x2a0|                  00 00 1c 20                  |      ...       |        utoff: 7200 (valid) 0x2a6-0x2aa (4)
0x2a0|                              00               |          .     |        dst: 0 (valid) 0x2aa-0x2ab (1)
0x2a0|                                 0d            |           .    |        idx: 13 (valid) 0x2ab-0x2ac (1)
     |                                               |                |      [10]{}: local_time_type 0x2ac-0x2b2 (6)
0x2a0|                                    00 00 2a 30|            ..*0|        utoff: 10800 (valid) 0x2ac-0x2b0 (4)
0x2b0|00                                             |.               |        dst: 0 (valid) 0x2b0-0x2b1 (1)
0x2b0|   11                                          | .              |        idx: 17 (valid) 0x2b1-0x2b2 (1)
     |                                               |                |    time_zone_designations[0:6]: 0x2b2-0x2cb (25)
0x2b0|      4c 4d 54 00                              |  LMT.          |      [0]: "LMT" time_zone_designation 0x2b2-0x2b6 (4)
0x2b0|                  49 4d 54 00                  |      IMT.      |      [1]: "IMT" time_zone_designation 0x2b6-0x2ba (4)
0x2b0|                              45 45 53 54 00   |          EEST. |      [2]: "EEST" time_zone_designation 0x2ba-0x2bf (5)
0x2b0|                                             45|               E|      [3]: "EET" time_zone_designation 0x2bf-0x2c3 (4)
0x2c0|45 54 00                                       |ET.             |
0x2c0|         2b 30 33 00                           |   +03.         |      [4]: "+03" time_zone_designation 0x2c3-0x2c7 (4)
0x2c0|                     2b 30 34 00               |       +04.     |      [5]: "+04" time_zone_designation 0x2c7-0x2cb (4)
     |                                               |                |    leap_second_records[0:0]: 0x2cb-0x2cb (0)
     |                                               |                |    standard_wall_indicators[0:11]: 0x2cb-0x2d6 (11)
0x2c0|                                 00            |           .    |      [0]: 0 standard_wall_indicator (valid) 0x2cb-0x2cc (1)
0x2c0|                                    00         |            .   |      [1]: 0 standard_wall_indicator (valid) 0x2cc-0x2cd (1)
0x2c0|                                       00      |             .  |      [2]: 0 standard_wall_indicator (valid) 0x2cd-0x2ce (1)
0x2c0|                                          00   |              . |      [3]: 0 standard_wall_indicator (valid) 0x2ce-0x2cf (1)
0x2c0|                                             00|               .|      [4]: 0 standard_wall_indicator (valid) 0x2cf-0x2d0 (1)
0x2d0|00                                             |.               |      [5]: 0 standard_wall_indicator (valid) 0x2d0-0x2d1 (1)
0x2d0|   01                                          | .              |      [6]: 1 standard_wall_indicator (valid) 0x2d1-0x2d2 (1)
0x2d0|      01                                       |  .             |      [7]: 1 standard_wall_indicator (valid) 0x2d2-0x2d3 (1)
0x2d0|         01                                    |   .            |      [8]: 1 standard_wall_indicator (valid) 0x2d3-0x2d4 (1)
0x2d0|            01                                 |    .           |      [9]: 1 standard_wall_indicator (valid) 0x2d4-0x2d5 (1)
0x2d0|               00                              |     .          |      [10]: 0 standard_wall_indicator (valid) 0x2d5-0x2d6 (1)
     |                                               |                |    ut_local_indicators[0:11]: 0x2d6-0x2e1 (11)
0x2d0|                  00                           |      .         |      [0]: 0 ut_local_indicator (valid) 0x2d6-0x2d7 (1)
0x2d0|                     00                        |       .        |      [1]: 0 ut_local_indicator (valid) 0x2d7-0x2d8 (1)
0x2d0|                        00                     |        .       |      [2]: 0 ut_local_indicator (valid) 0x2d8-0x2d9 (1)
0x2d0|                           00                  |         .      |      [3]: 0 ut_local_indicator (valid) 0x2d9-0x2da (1)
0x2d0|                              00               |          .     |      [4]: 0 ut_local_indicator (valid) 0x2da-0x2db (1)
0x2d0|                                 00            |           .    |      [5]: 0 ut_local_indicator (valid) 0x2db-0x2dc (1)
0x2d0|                                    00         |            .   |      [6]: 0 ut_local_indicator (valid) 0x2dc-0x2dd (1)
0x2d0|                                       00      |             .  |      [7]: 0 ut_local_indicator (valid) 0x2dd-0x2de (1)
0x2d0|                                          01   |              . |      [8]: 1 ut_local_indicator (valid) 0x2de-0x2df (1)
0x2d0|                                             01|               .|      [9]: 1 ut_local_indicator (valid) 0x2df-0x2e0 (1)
0x2e0|00                                             |.               |      [10]: 0 ut_local_indicator (valid) 0x2e0-0x2e1 (1)
     |                                               |                |  v2plusheader{}: 0x2e1-0x30d (44)
0x2e0|   54 5a 69 66                                 | TZif           |    magic: 0x545a6966 (valid) 0x2e1-0x2e5 (4)
0x2e0|               32                              |     2          |    ver: "2" (0x32) (valid) 0x2e5-0x2e6 (1)
0x2e0|                  00 00 00 00 00 00 00 00 00 00|      ..........|    reserved: raw bits 0x2e6-0x2f5 (15)
0x2f0|00 00 00 00 00                                 |.....           |
0x2f0|               00 00 00 0b                     |     ....       |    isutcnt: 11 0x2f5-0x2f9 (4)
0x2f0|                           00 00 00 0b         |         ....   |    isstdcnt: 11 0x2f9-0x2fd (4)
0x2f0|                                       00 00 00|             ...|    leapcnt: 0 0x2fd-0x301 (4)
0x300|00                                             |.               |
0x300|   00 00 00 74                                 | ...t           |    timecnt: 116 0x301-0x305 (4)
0x300|               00 00 00 0b                     |     ....       |    typecnt: 11 0x305-0x309 (4)
0x300|                           00 00 00 19         |         ....   |    charcnt: 25 0x309-0x30d (4)
     |                                               |                |  v2plusdatablock{}: 0x30d-0x792 (1157)
     |                                               |                |    transition_times[0:116]: 0x30d-0x6ad (928)
0x300|                                       ff ff ff|             ...|      [0]: "1879-12-31T22:04:08Z" (-2840147752) transition_time 0x30d-0x315 (8)
0x310|ff 56 b6 c8 d8                                 |.V...           |
0x310|               ff ff ff ff 90 8b f5 98         |     ........   |      [1]: "1910-09-30T22:03:04Z" (-1869875816) transition_time 0x315-0x31d (8)
0x310|                                       ff ff ff|             ...|      [2]: "1916-04-30T22:00:00Z" (-1693706400) transition_time 0x31d-0x325 (8)
0x320|ff 9b 0c 17 60                                 |....`           |
0x320|               ff ff ff ff 9b d5 be d0         |     ........   |      [3]: "1916-09-30T21:00:00Z" (-1680490800) transition_time 0x325-0x32d (8)
0x320|                                       ff ff ff|             ...|      [4]: "1920-03-27T22:00:00Z" (-1570413600) transition_time 0x32d-0x335 (8)
0x330|ff a2 65 63 e0                                 |..ec.           |
0x330|               ff ff ff ff a3 7b 82 50         |     .....{.P   |      [5]: "1920-10-24T21:00:00Z" (-1552186800) transition_time 0x335-0x33d (8)
0x330|                                       ff ff ff|             ...|      [6]: "1921-04-02T22:00:00Z" (-1538359200) transition_time 0x33d-0x345 (8)
0x340|ff a4 4e 80 60                                 |..N.`           |
0x340|               ff ff ff ff a5 3f b4 d0         |     .....?..   |      [7]: "1921-10-02T21:00:00Z" (-1522551600) transition_time 0x345-0x34d (8)
0x340|                                       ff ff ff|             ...|      [8]: "1922-03-25T22:00:00Z" (-1507514400) transition_time 0x34d-0x355 (8)
0x350|ff a6 25 27 e0                                 |..%'.           |
0x350|               ff ff ff ff a7 27 7f d0         |     .....'..   |      [9]: "1922-10-07T21:00:00Z" (-1490583600) transition_time 0x355-0x35d (8)
0x350|                                       ff ff ff|             ...|      [10]: "1924-05-12T22:00:00Z" (-1440208800) transition_time 0x35d-0x365 (8)
0x360|ff aa 28 28 60                                 |..((`           |
0x360|               ff ff ff ff aa e1 fd d0         |     ........   |      [11]: "1924-09-30T21:00:00Z" (-1428030000) transition_time 0x365-0x36d (8)
0x360|                                       ff ff ff|             ...|      [12]: "1925-04-30T22:00:00Z" (-1409709600) transition_time 0x36d-0x375 (8)
0x370|ff ab f9 89 e0                                 |.....           |
0x370|               ff ff ff ff ac c3 31 50         |     ......1P   |      [13]: "1925-09-30T21:00:00Z" (-1396494000) transition_time 0x375-0x37d (8)
0x370|                                       ff ff ff|             ...|      [14]: "1940-06-30T22:00:00Z" (-931053600) transition_time 0x37d-0x385 (8)
0x380|ff c8 81 3f e0                                 |...?.           |
0x380|               ff ff ff ff c9 01 13 50         |     .......P   |      [15]: "1940-10-05T21:00:00Z" (-922676400) transition_time 0x385-0x38d (8)
0x380|                                       ff ff ff|             ...|      [16]: "1940-11-30T22:00:00Z" (-917834400) transition_time 0x38d-0x395 (8)
0x390|ff c9 4a f5 60                                 |..J.`           |
0x390|               ff ff ff ff ca ce 80 50         |     .......P   |      [17]: "1941-09-20T21:00:00Z" (-892436400) transition_time 0x395-0x39d (8)
0x390|                                       ff ff ff|             ...|      [18]: "1942-03-31T22:00:00Z" (-875844000) transition_time 0x39d-0x3a5 (8)
0x3a0|ff cb cb ae 60                                 |....`           |
0x3a0|               ff ff ff ff d2 6b 09 50         |     .....k.P   |      [19]: "1945-10-07T21:00:00Z" (-764737200) transition_time 0x3a5-0x3ad (8)
0x3a0|                                       ff ff ff|             ...|      [20]: "1946-05-31T22:00:00Z" (-744343200) transition_time 0x3ad-0x3b5 (8)
0x3b0|ff d3 a2 39 60                                 |...9`           |
0x3b0|               ff ff ff ff d4 43 02 50         |     .....C.P   |      [21]: "1946-09-30T21:00:00Z" (-733806000) transition_time 0x3b5-0x3bd (8)
0x3b0|                                       ff ff ff|             ...|      [22]: "1947-04-19T22:00:00Z" (-716436000) transition_time 0x3bd-0x3c5 (8)
0x3c0|ff d5 4c 0d e0                                 |..L..           |
0x3c0|               ff ff ff ff d6 29 7b d0         |     .....){.   |      [23]: "1947-10-04T21:00:00Z" (-701924400) transition_time 0x3c5-0x3cd (8)
0x3c0|                                       ff ff ff|             ...|      [24]: "1948-04-17T22:00:00Z" (-684986400) transition_time 0x3cd-0x3d5 (8)
0x3d0|ff d7 2b ef e0                                 |..+..           |
0x3d0|               ff ff ff ff d8 09 5d d0         |     ......].   |      [25]: "1948-10-02T21:00:00Z" (-670474800) transition_time 0x3d5-0x3dd (8)
0x3d0|                                       ff ff ff|             ...|      [26]: "1949-04-09T22:00:00Z" (-654141600) transition_time 0x3dd-0x3e5 (8)
0x3e0|ff d9 02 97 60                                 |....`           |
0x3e0|               ff ff ff ff d9 e9 3f d0         |     ......?.   |      [27]: "1949-10-01T21:00:00Z" (-639025200) transition_time 0x3e5-0x3ed (8)
0x3e0|                                       ff ff ff|             ...|      [28]: "1950-04-15T22:00:00Z" (-622087200) transition_time 0x3ed-0x3f5 (8)
0x3f0|ff da eb b3 e0                                 |.....           |
0x3f0|               ff ff ff ff db d2 5c 50         |     ......\P   |      [29]: "1950-10-07T21:00:00Z" (-606970800) transition_time 0x3f5-0x3fd (8)
0x3f0|                                       ff ff ff|             ...|      [30]: "1951-04-21T22:00:00Z" (-590032800) transition_time 0x3fd-0x405 (8)
0x400|ff dc d4 d0 60                                 |....`           |
0x400|               ff ff ff ff dd b2 3e 50         |     ......>P   |      [31]: "1951-10-06T21:00:00Z" (-575521200) transition_time 0x405-0x40d (8)
0x400|                                       ff ff ff|             ...|      [32]: "1962-07-14T22:00:00Z" (-235620000) transition_time 0x40d-0x415 (8)
0x410|ff f1 f4 b9 60                                 |....`           |
0x410|               ff ff ff ff f4 62 ef 50         |     .....b.P   |      [33]: "1963-10-29T21:00:00Z" (-194842800) transition_time 0x415-0x41d (8)
0x410|                                       ff ff ff|             ...|      [34]: "1964-05-14T22:00:00Z" (-177732000) transition_time 0x41d-0x425 (8)
0x420|ff f5 68 06 60                                 |..h.`           |
0x420|               ff ff ff ff f6 1f 38 d0         |     ......8.   |      [35]: "1964-09-30T21:00:00Z" (-165726000) transition_time 0x425-0x42d (8)
0x420|                                       00 00 00|             ...|      [36]: "1973-06-02T23:00:00Z" (107910000) transition_time 0x42d-0x435 (8)
0x430|00 06 6e 93 70                                 |..n.p           |
0x430|               00 00 00 00 07 39 9a 70         |     .....9.p   |      [37]: "1973-11-03T23:00:00Z" (121215600) transition_time 0x435-0x43d (8)
0x430|                                       00 00 00|             ...|      [38]: "1974-03-31T00:00:00Z" (133920000) transition_time 0x43d-0x445 (8)
0x440|00 07 fb 75 00                                 |...u.           |
0x440|               00 00 00 00 09 19 7c 70         |     ......|p   |      [39]: "1974-11-02T23:00:00Z" (152665200) transition_time 0x445-0x44d (8)
0x440|                                       00 00 00|             ...|      [40]: "1975-03-22T00:00:00Z" (164678400) transition_time 0x44d-0x455 (8)
0x450|00 09 d0 cb 00                                 |.....           |
0x450|               00 00 00 00 0a f9 5e 70         |     ......^p   |      [41]: "1975-11-01T23:00:00Z" (184114800) transition_time 0x455-0x45d (8)
0x450|                                       00 00 00|             ...|      [42]: "1976-03-21T00:00:00Z" (196214400) transition_time 0x45d-0x465 (8)
0x460|00 0b b1 fe 80                                 |.....           |
0x460|               00 00 00 00 0c d9 40 70         |     ......@p   |      [43]: "1976-10-30T23:00:00Z" (215564400) transition_time 0x465-0x46d (8)
0x460|                                       00 00 00|             ...|      [44]: "1977-04-03T00:00:00Z" (228873600) transition_time 0x46d-0x475 (8)
0x470|00 0d a4 55 80                                 |...U.           |
0x470|               00 00 00 00 0e a6 ad 70         |     .......p   |      [45]: "1977-10-15T23:00:00Z" (245804400) transition_time 0x475-0x47d (8)
0x470|                                       00 00 00|             ...|      [46]: "1978-04-02T00:00:00Z" (260323200) transition_time 0x47d-0x485 (8)
0x480|00 0f 84 37 80                                 |...7.           |
0x480|               00 00 00 00 0f f8 11 50         |     .......P   |      [47]: "1978-06-28T21:00:00Z" (267915600) transition_time 0x485-0x48d (8)
0x480|                                       00 00 00|             ...|      [48]: "1983-07-30T23:00:00Z" (428454000) transition_time 0x48d-0x495 (8)
0x490|00 19 89 b0 70                                 |....p           |
0x490|               00 00 00 00 19 dc b0 e0         |     ........   |      [49]: "1983-10-01T22:00:00Z" (433893600) transition_time 0x495-0x49d (8)
0x490|                                       00 00 00|             ...|      [50]: "1984-10-31T23:00:00Z" (468111600) transition_time 0x49d-0x4a5 (8)
0x4a0|00 1b e6 d0 f0                                 |.....           |
0x4a0|               00 00 00 00 1c c6 ef f0         |     ........   |      [51]: "1985-04-19T23:00:00Z" (482799600) transition_time 0x4a5-0x4ad (8)
0x4a0|                                       00 00 00|             ...|      [52]: "1985-09-27T23:00:00Z" (496710000) transition_time 0x4ad-0x4b5 (8)
0x4b0|00 1d 9b 31 70                                 |...1p           |
0x4b0|               00 00 00 00 1e 8c 73 f0         |     ......s.   |      [53]: "1986-03-29T23:00:00Z" (512521200) transition_time 0x4b5-0x4bd (8)
0x4b0|                                       00 00 00|             ...|      [54]: "1986-09-27T23:00:00Z" (528246000) transition_time 0x4bd-0x4c5 (8)
0x4c0|00 1f 7c 64 f0                                 |..|d.           |
0x4c0|               00 00 00 00 20 6c 55 f0         |     .... lU.   |      [55]: "1987-03-28T23:00:00Z" (543970800) transition_time 0x4c5-0x4cd (8)
0x4c0|                                       00 00 00|             ...|      [56]: "1987-09-26T23:00:00Z" (559695600) transition_time 0x4cd-0x4d5 (8)
0x4d0|00 21 5c 46 f0                                 |.!\F.           |
0x4d0|               00 00 00 00 22 4c 37 f0         |     ...."L7.   |      [57]: "1988-03-26T23:00:00Z" (575420400) transition_time 0x4d5-0x4dd (8)
0x4d0|                                       00 00 00|             ...|      [58]: "1988-09-24T23:00:00Z" (591145200) transition_time 0x4dd-0x4e5 (8)
0x4e0|00 23 3c 28 f0                                 |.#<(.           |
0x4e0|               00 00 00 00 24 2c 19 f0         |     ....$,..   |      [59]: "1989-03-25T23:00:00Z" (606870000) transition_time 0x4e5-0x4ed (8)
0x4e0|                                       00 00 00|             ...|      [60]: "1989-09-23T23:00:00Z" (622594800) transition_time 0x4ed-0x4f5 (8)
0x4f0|00 25 1c 0a f0                                 |.%...           |
0x4f0|               00 00 00 00 26 0b fb f0         |     ....&...   |      [61]: "1990-03-24T23:00:00Z" (638319600) transition_time 0x4f5-0x4fd (8)
0x4f0|                                       00 00 00|             ...|      [62]: "1990-09-29T23:00:00Z" (654649200) transition_time 0x4fd-0x505 (8)
0x500|00 27 05 27 70                                 |.'.'p           |
0x500|               00 00 00 00 27 f5 18 70         |     ....'..p   |      [63]: "1991-03-30T23:00:00Z" (670374000) transition_time 0x505-0x50d (8)
0x500|                                       00 00 00|             ...|      [64]: "1991-09-28T23:00:00Z" (686098800) transition_time 0x50d-0x515 (8)
0x510|00 28 e5 09 70                                 |.(..p           |
0x510|               00 00 00 00 29 d4 fa 70         |     ....)..p   |      [65]: "1992-03-28T23:00:00Z" (701823600) transition_time 0x515-0x51d (8)
0x510|                                       00 00 00|             ...|      [66]: "1992-09-26T23:00:00Z" (717548400) transition_time 0x51d-0x525 (8)
0x520|00 2a c4 eb 70                                 |.*..p           |
0x520|               00 00 00 00 2b b4 dc 70         |     ....+..p   |      [67]: "1993-03-27T23:00:00Z" (733273200) transition_time 0x525-0x52d (8)
0x520|                                       00 00 00|             ...|      [68]: "1993-09-25T23:00:00Z" (748998000) transition_time 0x52d-0x535 (8)
0x530|00 2c a4 cd 70                                 |.,..p           |
0x530|               00 00 00 00 2d 8b 83 f0         |     ....-...   |      [69]: "1994-03-19T23:00:00Z" (764118000) transition_time 0x535-0x53d (8)
0x530|                                       00 00 00|             ...|      [70]: "1994-09-24T23:00:00Z" (780447600) transition_time 0x53d-0x545 (8)
0x540|00 2e 84 af 70                                 |....p           |
0x540|               00 00 00 00 2f 74 a0 70         |     ..../t.p   |      [71]: "1995-03-25T23:00:00Z" (796172400) transition_time 0x545-0x54d (8)
0x540|                                       00 00 00|             ...|      [72]: "1995-09-23T23:00:00Z" (811897200) transition_time 0x54d-0x555 (8)
0x550|00 30 64 91 70                                 |.0d.p           |
0x550|               00 00 00 00 31 5d bc f0         |     ....1]..   |      [73]: "1996-03-30T23:00:00Z" (828226800) transition_time 0x555-0x55d (8)
0x550|                                       00 00 00|             ...|      [74]: "1996-10-26T23:00:00Z" (846370800) transition_time 0x55d-0x565 (8)
0x560|00 32 72 97 f0                                 |.2r..           |
0x560|               00 00 00 00 33 3d 9e f0         |     ....3=..   |      [75]: "1997-03-29T23:00:00Z" (859676400) transition_time 0x565-0x56d (8)
0x560|                                       00 00 00|             ...|      [76]: "1997-10-25T23:00:00Z" (877820400) transition_time 0x56d-0x575 (8)
0x570|00 34 52 79 f0                                 |.4Ry.           |
0x570|               00 00 00 00 35 1d 80 f0         |     ....5...   |      [77]: "1998-03-28T23:00:00Z" (891126000) transition_time 0x575-0x57d (8)
0x570|                                       00 00 00|             ...|      [78]: "1998-10-24T23:00:00Z" (909270000) transition_time 0x57d-0x585 (8)
0x580|00 36 32 5b f0                                 |.62[.           |
0x580|               00 00 00 00 36 fd 62 f0         |     ....6.b.   |      [79]: "1999-03-27T23:00:00Z" (922575600) transition_time 0x585-0x58d (8)
0x580|                                       00 00 00|             ...|      [80]: "1999-10-30T23:00:00Z" (941324400) transition_time 0x58d-0x595 (8)
0x590|00 38 1b 78 70                                 |.8.xp           |
0x590|               00 00 00 00 38 dd 44 f0         |     ....8.D.   |      [81]: "2000-03-25T23:00:00Z" (954025200) transition_time 0x595-0x59d (8)
0x590|                                       00 00 00|             ...|      [82]: "2000-10-28T23:00:00Z" (972774000) transition_time 0x59d-0x5a5 (8)
0x5a0|00 39 fb 5a 70                                 |.9.Zp           |
0x5a0|               00 00 00 00 3a bd 26 f0         |     ....:.&.   |      [83]: "2001-03-24T23:00:00Z" (985474800) transition_time 0x5a5-0x5ad (8)
0x5a0|                                       00 00 00|             ...|      [84]: "2001-10-27T23:00:00Z" (1004223600) transition_time 0x5ad-0x5b5 (8)
0x5b0|00 3b db 3c 70                                 |.;.<p           |
0x5b0|               00 00 00 00 3c a6 43 70         |     ....<.Cp   |      [85]: "2002-03-30T23:00:00Z" (1017529200) transition_time 0x5b5-0x5bd (8)
0x5b0|                                       00 00 00|             ...|      [86]: "2002-10-26T23:00:00Z" (1035673200) transition_time 0x5bd-0x5c5 (8)
0x5c0|00 3d bb 1e 70                                 |.=..p           |
0x5c0|               00 00 00 00 3e 86 25 70         |     ....>.%p   |      [87]: "2003-03-29T23:00:00Z" (1048978800) transition_time 0x5c5-0x5cd (8)
0x5c0|                                       00 00 00|             ...|      [88]: "2003-10-25T23:00:00Z" (1067122800) transition_time 0x5cd-0x5d5 (8)
0x5d0|00 3f 9b 00 70                                 |.?..p           |
0x5d0|               00 00 00 00 40 66 07 70         |     ....@f.p   |      [89]: "2004-03-27T23:00:00Z" (1080428400) transition_time 0x5d5-0x5dd (8)
0x5d0|                                       00 00 00|             ...|      [90]: "2004-10-30T23:00:00Z" (1099177200) transition_time 0x5dd-0x5e5 (8)
0x5e0|00 41 84 1c f0                                 |.A...           |
0x5e0|               00 00 00 00 42 45 e9 70         |     ....BE.p   |      [91]: "2005-03-26T23:00:00Z" (1111878000) transition_time 0x5e5-0x5ed (8)
0x5e0|                                       00 00 00|             ...|      [92]: "2005-10-29T23:00:00Z" (1130626800) transition_time 0x5ed-0x5f5 (8)
0x5f0|00 43 63 fe f0                                 |.Cc..           |
0x5f0|               00 00 00 00 44 25 cb 70         |     ....D%.p   |      [93]: "2006-03-25T23:00:00Z" (1143327600) transition_time 0x5f5-0x5fd (8)
0x5f0|                                       00 00 00|             ...|      [94]: "2006-10-28T23:00:00Z" (1162076400) transition_time 0x5fd-0x605 (8)
0x600|00 45 43 e0 f0                                 |.EC..           |
0x600|               00 00 00 00 46 05 c9 90         |     ....F...   |      [95]: "2007-03-25T01:00:00Z" (1174784400) transition_time 0x605-0x60d (8)
0x600|                                       00 00 00|             ...|      [96]: "2007-10-28T01:00:00Z" (1193533200) transition_time 0x60d-0x615 (8)
0x610|00 47 23 df 10                                 |.G#..           |
0x610|               00 00 00 00 47 ee e6 10         |     ....G...   |      [97]: "2008-03-30T01:00:00Z" (1206838800) transition_time 0x615-0x61d (8)
0x610|                                       00 00 00|             ...|      [98]: "2008-10-26T01:00:00Z" (1224982800) transition_time 0x61d-0x625 (8)
0x620|00 49 03 c1 10                                 |.I...           |
0x620|               00 00 00 00 49 ce c8 10         |     ....I...   |      [99]: "2009-03-29T01:00:00Z" (1238288400) transition_time 0x625-0x62d (8)
0x620|                                       00 00 00|             ...|      [100]: "2009-10-25T01:00:00Z" (1256432400) transition_time 0x62d-0x635 (8)
0x630|00 4a e3 a3 10                                 |.J...           |
0x630|               00 00 00 00 4b ae aa 10         |     ....K...   |      [101]: "2010-03-28T01:00:00Z" (1269738000) transition_time 0x635-0x63d (8)
0x630|                                       00 00 00|             ...|      [102]: "2010-10-31T01:00:00Z" (1288486800) transition_time 0x63d-0x645 (8)
0x640|00 4c cc bf 90                                 |.L...           |
0x640|               00 00 00 00 4d 8f dd 90         |     ....M...   |      [103]: "2011-03-28T01:00:00Z" (1301274000) transition_time 0x645-0x64d (8)
0x640|                                       00 00 00|             ...|      [104]: "2011-10-30T01:00:00Z" (1319936400) transition_time 0x64d-0x655 (8)
0x650|00 4e ac a1 90                                 |.N...           |
0x650|               00 00 00 00 4f 6e 6e 10         |     ....Onn.   |      [105]: "2012-03-25T01:00:00Z" (1332637200) transition_time 0x655-0x65d (8)
0x650|                                       00 00 00|             ...|      [106]: "2012-10-28T01:00:00Z" (1351386000) transition_time 0x65d-0x665 (8)
0x660|00 50 8c 83 90                                 |.P...           |
0x660|               00 00 00 00 51 57 8a 90         |     ....QW..   |      [107]: "2013-03-31T01:00:00Z" (1364691600) transition_time 0x665-0x66d (8)
0x660|                                       00 00 00|             ...|      [108]: "2013-10-27T01:00:00Z" (1382835600) transition_time 0x66d-0x675 (8)
0x670|00 52 6c 65 90                                 |.Rle.           |
0x670|               00 00 00 00 53 38 be 10         |     ....S8..   |      [109]: "2014-03-31T01:00:00Z" (1396227600) transition_time 0x675-0x67d (8)
0x670|                                       00 00 00|             ...|      [110]: "2014-10-26T01:00:00Z" (1414285200) transition_time 0x67d-0x685 (8)
0x680|00 54 4c 47 90                                 |.TLG.           |
0x680|               00 00 00 00 55 17 4e 90         |     ....U.N.   |      [111]: "2015-03-29T01:00:00Z" (1427590800) transition_time 0x685-0x68d (8)
0x680|                                       00 00 00|             ...|      [112]: "2015-11-08T01:00:00Z" (1446944400) transition_time 0x68d-0x695 (8)
0x690|00 56 3e 9e 90                                 |.V>..           |
0x690|               00 00 00 00 56 f7 30 90         |     ....V.0.   |      [113]: "2016-03-27T01:00:00Z" (1459040400) transition_time 0x695-0x69d (8)
0x690|                                       00 00 00|             ...|      [114]: "2016-09-06T21:00:00Z" (1473195600) transition_time 0x69d-0x6a5 (8)
0x6a0|00 57 cf 2e 50                                 |.W..P           |
0x6a0|               00 00 00 00 7f ff ff ff         |     ........   |      [115]: "2038-01-19T03:14:07Z" (2147483647) transition_time 0x6a5-0x6ad (8)
     |                                               |                |    transition_types[0:116]: 0x6ad-0x721 (116)
0x6a0|                                       01      |             .  |      [0]: 1 transition_type 0x6ad-0x6ae (1)
0x6a0|                                          03   |              . |      [1]: 3 transition_type 0x6ae-0x6af (1)
0x6a0|                                             02|               .|      [2]: 2 transition_type 0x6af-0x6b0 (1)
0x6b0|03                                             |.               |      [3]: 3 transition_type 0x6b0-0x6b1 (1)
0x6b0|   02                                          | .              |      [4]: 2 transition_type 0x6b1-0x6b2 (1)
0x6b0|      03                                       |  .             |      [5]: 3 transition_type 0x6b2-0x6b3 (1)
0x6b0|         02                                    |   .            |      [6]: 2 transition_type 0x6b3-0x6b4 (1)
0x6b0|            03                                 |    .           |      [7]: 3 transition_type 0x6b4-0x6b5 (1)
0x6b0|               02                              |     .          |      [8]: 2 transition_type 0x6b5-0x6b6 (1)
0x6b0|                  03                           |      .         |      [9]: 3 transition_type 0x6b6-0x6b7 (1)
0x6b0|                     02                        |       .        |      [10]: 2 transition_type 0x6b7-0x6b8 (1)
0x6b0|                        03                     |        .       |      [11]: 3 transition_type 0x6b8-0x6b9 (1)
0x6b0|                           02                  |         .      |      [12]: 2 transition_type 0x6b9-0x6ba (1)
0x6b0|                              03               |          .     |      [13]: 3 transition_type 0x6ba-0x6bb (1)
0x6b0|                                 02            |           .    |      [14]: 2 transition_type 0x6bb-0x6bc (1)
0x6b0|                                    03         |            .   |      [15]: 3 transition_type 0x6bc-0x6bd (1)
0x6b0|                                       02      |             .  |      [16]: 2 transition_type 0x6bd-0x6be (1)
0x6b0|                                          03   |              . |      [17]: 3 transition_type 0x6be-0x6bf (1)
0x6b0|                                             02|               .|      [18]: 2 transition_type 0x6bf-0x6c0 (1)
0x6c0|03                                             |.               |      [19]: 3 transition_type 0x6c0-0x6c1 (1)
0x6c0|   02                                          | .              |      [20]: 2 transition_type 0x6c1-0x6c2 (1)
0x6c0|      03                                       |  .             |      [21]: 3 transition_type 0x6c2-0x6c3 (1)
0x6c0|         02                                    |   .            |      [22]: 2 transition_type 0x6c3-0x6c4 (1)
0x6c0|            03                                 |    .           |      [23]: 3 transition_type 0x6c4-0x6c5 (1)
0x6c0|               02                              |     .          |      [24]: 2 transition_type 0x6c5-0x6c6 (1)
0x6c0|                  03                           |      .         |      [25]: 3 transition_type 0x6c6-0x6c7 (1)
0x6c0|                     02                        |       .        |      [26]: 2 transition_type 0x6c7-0x6c8 (1)
0x6c0|                        03                     |        .       |      [27]: 3 transition_type 0x6c8-0x6c9 (1)
0x6c0|                           02                  |         .      |      [28]: 2 transition_type 0x6c9-0x6ca (1)
0x6c0|                              03               |          .     |      [29]: 3 transition_type 0x6ca-0x6cb (1)
0x6c0|                                 02            |           .    |      [30]: 2 transition_type 0x6cb-0x6cc (1)
0x6c0|                                    03         |            .   |      [31]: 3 transition_type 0x6cc-0x6cd (1)
0x6c0|                                       02      |             .  |      [32]: 2 transition_type 0x6cd-0x6ce (1)
0x6c0|                                          03   |              . |      [33]: 3 transition_type 0x6ce-0x6cf (1)
0x6c0|                                             02|               .|      [34]: 2 transition_type 0x6cf-0x6d0 (1)
0x6d0|03                                             |.               |      [35]: 3 transition_type 0x6d0-0x6d1 (1)
0x6d0|   02                                          | .              |      [36]: 2 transition_type 0x6d1-0x6d2 (1)
0x6d0|      03                                       |  .             |      [37]: 3 transition_type 0x6d2-0x6d3 (1)
0x6d0|         02                                    |   .            |      [38]: 2 transition_type 0x6d3-0x6d4 (1)
0x6d0|            03                                 |    .           |      [39]: 3 transition_type 0x6d4-0x6d5 (1)
0x6d0|               02                              |     .          |      [40]: 2 transition_type 0x6d5-0x6d6 (1)
0x6d0|                  03                           |      .         |      [41]: 3 transition_type 0x6d6-0x6d7 (1)
0x6d0|                     02                        |       .        |      [42]: 2 transition_type 0x6d7-0x6d8 (1)
0x6d0|                        03                     |        .       |      [43]: 3 transition_type 0x6d8-0x6d9 (1)
0x6d0|                           02                  |         .      |      [44]: 2 transition_type 0x6d9-0x6da (1)
0x6d0|                              03               |          .     |      [45]: 3 transition_type 0x6da-0x6db (1)
0x6d0|                                 02            |           .    |      [46]: 2 transition_type 0x6db-0x6dc (1)
0x6d0|                                    04         |            .   |      [47]: 4 transition_type 0x6dc-0x6dd (1)
0x6d0|                                       05      |             .  |      [48]: 5 transition_type 0x6dd-0x6de (1)
0x6d0|                                          04   |              . |      [49]: 4 transition_type 0x6de-0x6df (1)
0x6d0|                                             03|               .|      [50]: 3 transition_type 0x6df-0x6e0 (1)
0x6e0|06                                             |.               |      [51]: 6 transition_type 0x6e0-0x6e1 (1)
0x6e0|   07                                          | .              |      [52]: 7 transition_type 0x6e1-0x6e2 (1)
0x6e0|      06                                       |  .             |      [53]: 6 transition_type 0x6e2-0x6e3 (1)
0x6e0|         07                                    |   .            |      [54]: 7 transition_type 0x6e3-0x6e4 (1)
0x6e0|            06                                 |    .           |      [55]: 6 transition_type 0x6e4-0x6e5 (1)
0x6e0|               07                              |     .          |      [56]: 7 transition_type 0x6e5-0x6e6 (1)
0x6e0|                  06                           |      .         |      [57]: 6 transition_type 0x6e6-0x6e7 (1)
0x6e0|                     07                        |       .        |      [58]: 7 transition_type 0x6e7-0x6e8 (1)
0x6e0|                        06                     |        .       |      [59]: 6 transition_type 0x6e8-0x6e9 (1)
0x6e0|                           07                  |         .      |      [60]: 7 transition_type 0x6e9-0x6ea (1)
0x6e0|                              06               |          .     |      [61]: 6 transition_type 0x6ea-0x6eb (1)
0x6e0|                                 07            |           .    |      [62]: 7 transition_type 0x6eb-0x6ec (1)
0x6e0|                                    06         |            .   |      [63]: 6 transition_type 0x6ec-0x6ed (1)
0x6e0|                                       07      |             .  |      [64]: 7 transition_type 0x6ed-0x6ee (1)
0x6e0|                                          06   |              . |      [65]: 6 transition_type 0x6ee-0x6ef (1)
0x6e0|                                             07|               .|      [66]: 7 transition_type 0x6ef-0x6f0 (1)
0x6f0|06                                             |.               |      [67]: 6 transition_type 0x6f0-0x6f1 (1)
0x6f0|   07                                          | .              |      [68]: 7 transition_type 0x6f1-0x6f2 (1)
0x6f0|      06                                       |  .             |      [69]: 6 transition_type 0x6f2-0x6f3 (1)
0x6f0|         07                                    |   .            |      [70]: 7 transition_type 0x6f3-0x6f4 (1)
0x6f0|            06                                 |    .           |      [71]: 6 transition_type 0x6f4-0x6f5 (1)
0x6f0|               07                              |     .          |      [72]: 7 transition_type 0x6f5-0x6f6 (1)
0x6f0|                  06                           |      .         |      [73]: 6 transition_type 0x6f6-0x6f7 (1)
0x6f0|                     07                        |       .        |      [74]: 7 transition_type 0x6f7-0x6f8 (1)
0x6f0|                        06                     |        .       |      [75]: 6 transition_type 0x6f8-0x6f9 (1)
0x6f0|                           07                  |         .      |      [76]: 7 transition_type 0x6f9-0x6fa (1)
0x6f0|                              06               |          .     |      [77]: 6 transition_type 0x6fa-0x6fb (1)
0x6f0|                                 07            |           .    |      [78]: 7 transition_type 0x6fb-0x6fc (1)
0x6f0|                                    06         |            .   |      [79]: 6 transition_type 0x6fc-0x6fd (1)
0x6f0|                                       07      |             .  |      [80]: 7 transition_type 0x6fd-0x6fe (1)
0x6f0|                                          06   |              . |      [81]: 6 transition_type 0x6fe-0x6ff (1)
0x6f0|                                             07|               .|      [82]: 7 transition_type 0x6ff-0x700 (1)
0x700|06                                             |.               |      [83]: 6 transition_type 0x700-0x701 (1)
0x700|   07                                          | .              |      [84]: 7 transition_type 0x701-0x702 (1)
0x700|      06                                       |  .             |      [85]: 6 transition_type 0x702-0x703 (1)
0x700|         07                                    |   .            |      [86]: 7 transition_type 0x703-0x704 (1)
0x700|            06                                 |    .           |      [87]: 6 transition_type 0x704-0x705 (1)
0x700|               07                              |     .          |      [88]: 7 transition_type 0x705-0x706 (1)
0x700|                  06                           |      .         |      [89]: 6 transition_type 0x706-0x707 (1)
0x700|                     07                        |       .        |      [90]: 7 transition_type 0x707-0x708 (1)
0x700|                        06                     |        .       |      [91]: 6 transition_type 0x708-0x709 (1)
0x700|                           07                  |         .      |      [92]: 7 transition_type 0x709-0x70a (1)
0x700|                              06               |          .     |      [93]: 6 transition_type 0x70a-0x70b (1)
0x700|                                 07            |           .    |      [94]: 7 transition_type 0x70b-0x70c (1)
0x700|                                    08         |            .   |      [95]: 8 transition_type 0x70c-0x70d (1)
0x700|                                       09      |             .  |      [96]: 9 transition_type 0x70d-0x70e (1)
0x700|                                          08   |              . |      [97]: 8 transition_type 0x70e-0x70f (1)
0x700|                                             09|               .|      [98]: 9 transition_type 0x70f-0x710 (1)
0x710|08                                             |.               |      [99]: 8 transition_type 0x710-0x711 (1)
0x710|   09                                          | .              |      [100]: 9 transition_type 0x711-0x712 (1)
0x710|      08                                       |  .             |      [101]: 8 transition_type 0x712-0x713 (1)
0x710|         09                                    |   .            |      [102]: 9 transition_type 0x713-0x714 (1)
0x710|            08                                 |    .           |      [103]: 8 transition_type 0x714-0x715 (1)
0x710|               09                              |     .          |      [104]: 9 transition_type 0x715-0x716 (1)
0x710|                  08                           |      .         |      [105]: 8 transition_type 0x716-0x717 (1)
0x710|                     09                        |       .        |      [106]: 9 transition_type 0x717-0x718 (1)
0x710|                        08                     |        .       |      [107]: 8 transition_type 0x718-0x719 (1)
0x710|                           09                  |         .      |      [108]: 9 transition_type 0x719-0x71a (1)
0x710|                              08               |          .     |      [109]: 8 transition_type 0x71a-0x71b (1)
0x710|                                 09            |           .    |      [110]: 9 transition_type 0x71b-0x71c (1)
0x710|                                    08         |            .   |      [111]: 8 transition_type 0x71c-0x71d (1)
0x710|                                       09      |             .  |      [112]: 9 transition_type 0x71d-0x71e (1)
0x710|                                          08   |              . |      [113]: 8 transition_type 0x71e-0x71f (1)
0x710|                                             04|               .|      [114]: 4 transition_type 0x71f-0x720 (1)
0x720|04                                             |.               |      [115]: 4 transition_type 0x720-0x721 (1)
     |                                               |                |    local_time_type_records[0:11]: 0x721-0x763 (66)
     |                                               |                |      [0]{}: local_time_type 0x721-0x727 (6)
0x720|   00 00 1b 28                                 | ...(           |        utoff: 6952 (valid) 0x721-0x725 (4)
0x720|               00                              |     .          |        dst: 0 (valid) 0x725-0x726 (1)
0x720|                  00                           |      .         |        idx: 0 (valid) 0x726-0x727 (1)
     |                                               |                |      [1]{}: local_time_type 0x727-0x72d (6)
0x720|                     00 00 1b 68               |       ...h     |        utoff: 7016 (valid) 0x727-0x72b (4)
0x720|                                 00            |           .    |        dst: 0 (valid) 0x72b-0x72c (1)
0x720|                                    04         |            .   |        idx: 4 (valid) 0x72c-0x72d (1)
     |                                               |                |      [2]{}: local_time_type 0x72d-0x733 (6)
0x720|                                       00 00 2a|             ..*|        utoff: 10800 (valid) 0x72d-0x731 (4)
0x730|30                                             |0               |
0x730|   01                                          | .              |        dst: 1 (valid) 0x731-0x732 (1)
0x730|      08                                       |  .             |        idx: 8 (valid) 0x732-0x733 (1)
     |                                               |                |      [3]{}: local_time_type 0x733-0x739 (6)
0x730|         00 00 1c 20                           |   ...          |        utoff: 7200 (valid) 0x733-0x737 (4)
0x730|                     00                        |       .        |        dst: 0 (valid) 0x737-0x738 (1)
0x730|                        0d                     |        .       |        idx: 13 (valid) 0x738-0x739 (1)
     |                                               |                |      [4]{}: local_time_type 0x739-0x73f (6)
0x730|                           00 00 2a 30         |         ..*0   |        utoff: 10800 (valid) 0x739-0x73d (4)
0x730|                                       00      |             .  |        dst: 0 (valid) 0x73d-0x73e (1)
0x730|                                          11   |              . |        idx: 17 (valid) 0x73e-0x73f (1)
     |                                               |                |      [5]{}: local_time_type 0x73f-0x745 (6)
0x730|                                             00|               .|        utoff: 14400 (valid) 0x73f-0x743 (4)
0x740|00 38 40                                       |.8@             |
0x740|         01                                    |   .            |        dst: 1 (valid) 0x743-0x744 (1)
0x740|            15                                 |    .           |        idx: 21 (valid) 0x744-0x745 (1)
     |                                               |                |      [6]{}: local_time_type 0x745-0x74b (6)
0x740|               00 00 2a 30                     |     ..*0       |        utoff: 10800 (valid) 0x745-0x749 (4)
0x740|                           01                  |         .      |        dst: 1 (valid) 0x749-0x74a (1)
0x740|                              08               |          .     |        idx: 8 (valid) 0x74a-0x74b (1)
     |                                               |                |      [7]{}: local_time_type 0x74b-0x751 (6)
0x740|                                 00 00 1c 20   |           ...  |        utoff: 7200 (valid) 0x74b-0x74f (4)
0x740|                                             00|               .|        dst: 0 (valid) 0x74f-0x750 (1)
0x750|0d                                             |.               |        idx: 13 (valid) 0x750-0x751 (1)
     |                                               |                |      [8]{}: local_time_type 0x751-0x757 (6)
0x750|   00 00 2a 30                                 | ..*0           |        utoff: 10800 (valid) 0x751-0x755 (4)
0x750|               01                              |     .          |        dst: 1 (valid) 0x755-0x756 (1)
0x750|                  08                           |      .         |        idx: 8 (valid) 0x756-0x757 (1)
     |                                               |                |      [9]{}: local_time_type 0x757-0x75d (6)
0x750|                     00 00 1c 20               |       ...      |        utoff: 7200 (valid) 0x757-0x75b (4)
0x750|                                 00            |           .    |        dst: 0 (valid) 0x75b-0x75c (1)
0x750|                                    0d         |            .   |        idx: 13 (valid) 0x75c-0x75d (1)
     |                                               |                |      [10]{}: local_time_type 0x75d-0x763 (6)
0x750|                                       00 00 2a|             ..*|        utoff: 10800 (valid) 0x75d-0x761 (4)
0x760|30                                             |0               |
0x760|   00                                          | .              |        dst: 0 (valid) 0x761-0x762 (1)
0x760|      11                                       |  .             |        idx: 17 (valid) 0x762-0x763 (1)
     |                                               |                |    time_zone_designations[0:6]: 0x763-0x77c (25)
0x760|         4c 4d 54 00                           |   LMT.         |      [0]: "LMT" time_zone_designation 0x763-0x767 (4)
0x760|                     49 4d 54 00               |       IMT.     |      [1]: "IMT" time_zone_designation 0x767-0x76b (4)
0x760|                                 45 45 53 54 00|           EEST.|      [2]: "EEST" time_zone_designation 0x76b-0x770 (5)
0x770|45 45 54 00                                    |EET.            |      [3]: "EET" time_zone_designation 0x770-0x774 (4)
0x770|            2b 30 33 00                        |    +03.        |      [4]: "+03" time_zone_designation 0x774-0x778 (4)
0x770|                        2b 30 34 00            |        +04.    |      [5]: "+04" time_zone_designation 0x778-0x77c (4)
     |                                               |                |    leap_second_records[0:0]: 0x77c-0x77c (0)
     |                                               |                |    standard_wall_indicators[0:11]: 0x77c-0x787 (11)
0x770|                                    00         |            .   |      [0]: 0 standard_wall_indicator (valid) 0x77c-0x77d (1)
0x770|                                       00      |             .  |      [1]: 0 standard_wall_indicator (valid) 0x77d-0x77e (1)
0x770|                                          00   |              . |      [2]: 0 standard_wall_indicator (valid) 0x77e-0x77f (1)
0x770|                                             00|               .|      [3]: 0 standard_wall_indicator (valid) 0x77f-0x780 (1)
0x780|00                                             |.               |      [4]: 0 standard_wall_indicator (valid) 0x780-0x781 (1)
0x780|   00                                          | .              |      [5]: 0 standard_wall_indicator (valid) 0x781-0x782 (1)
0x780|      01                                       |  .             |      [6]: 1 standard_wall_indicator (valid) 0x782-0x783 (1)
0x780|         01                                    |   .            |      [7]: 1 standard_wall_indicator (valid) 0x783-0x784 (1)
0x780|            01                                 |    .           |      [8]: 1 standard_wall_indicator (valid) 0x784-0x785 (1)
0x780|               01                              |     .          |      [9]: 1 standard_wall_indicator (valid) 0x785-0x786 (1)
0x780|                  00                           |      .         |      [10]: 0 standard_wall_indicator (valid) 0x786-0x787 (1)
     |                                               |                |    ut_local_indicators[0:11]: 0x787-0x792 (11)
0x780|                     00                        |       .        |      [0]: 0 ut_local_indicator (valid) 0x787-0x788 (1)
0x780|                        00                     |        .       |      [1]: 0 ut_local_indicator (valid) 0x788-0x789 (1)
0x780|                           00                  |         .      |      [2]: 0 ut_local_indicator (valid) 0x789-0x78a (1)
0x780|                              00               |          .     |      [3]: 0 ut_local_indicator (valid) 0x78a-0x78b (1)
0x780|                                 00            |           .    |      [4]: 0 ut_local_indicator (valid) 0x78b-0x78c (1)
0x780|                                    00         |            .   |      [5]: 0 ut_local_indicator (valid) 0x78c-0x78d (1)
0x780|                                       00      |             .  |      [6]: 0 ut_local_indicator (valid) 0x78d-0x78e (1)
0x780|                                          00   |              . |      [7]: 0 ut_local_indicator (valid) 0x78e-0x78f (1)
0x780|                                             01|               .|      [8]: 1 ut_local_indicator (valid) 0x78f-0x790 (1)
0x790|01                                             |.               |      [9]: 1 ut_local_indicator (valid) 0x790-0x791 (1)
0x790|   00                                          | .              |      [10]: 0 ut_local_indicator (valid) 0x791-0x792 (1)
     |                                               |                |  footer{}: 0x792-0x79b (9)
0x790|      0a                                       |  .             |    nl1: 10 (valid) 0x792-0x793 (1)
0x790|         3c 2b 30 33 3e 2d 33                  |   <+03>-3      |    tz_string: "<+03>-3" 0x793-0x79a (7)
0x790|                              0a|              |          .|    |    nl2: 10 (valid) 0x79a-0x79b (1)
