$ fq -d tzif dv Jakarta
     |00 01 02 03 04 05 06 07 08 09 0a 0b 0c 0d 0e 0f|0123456789abcdef|.{}: Jakarta (tzif) 0x0-0x3a3.7 (932)
     |                                               |                |  v1header{}: 0x0-0x2b.7 (44)
0x000|54 5a 69 66                                    |TZif            |    magic: 0x545a6966 (valid) 0x0-0x3.7 (4)
0x000|            32                                 |    2           |    ver: "2" (0x32) (valid) 0x4-0x4.7 (1)
0x000|               00 00 00 00 00 00 00 00 00 00 00|     ...........|    reserved: raw bits 0x5-0x13.7 (15)
0x010|00 00 00 00                                    |....            |
0x010|            00 00 00 07                        |    ....        |    isutcnt: 7 0x14-0x17.7 (4)
0x010|                        00 00 00 07            |        ....    |    isstdcnt: 7 0x18-0x1b.7 (4)
0x010|                                    00 00 00 1b|            ....|    leapcnt: 27 0x1c-0x1f.7 (4)
0x020|00 00 00 09                                    |....            |    timecnt: 9 0x20-0x23.7 (4)
0x020|            00 00 00 07                        |    ....        |    typecnt: 7 0x24-0x27.7 (4)
0x020|                        00 00 00 20            |        ...     |    charcnt: 32 0x28-0x2b.7 (4)
     |                                               |                |  v1datablock{}: 0x2c-0x188.7 (349)
     |                                               |                |    transition_times[0:9]: 0x2c-0x4f.7 (36)
0x020|                                    80 00 00 00|            ....|      [0]: "1901-12-13T20:45:52Z" (-2147483648) transition_time 0x2c-0x2f.7 (4)
0x030|a9 78 85 e0                                    |.x..            |      [1]: "1923-12-31T16:40:00Z" (-1451719200) transition_time 0x30-0x33.7 (4)
0x030|            ba 16 de 60                        |    ...`        |      [2]: "1932-10-31T16:40:00Z" (-1172906400) transition_time 0x34-0x37.7 (4)
0x030|                        cb bf 83 88            |        ....    |      [3]: "1942-03-22T16:30:00Z" (-876641400) transition_time 0x38-0x3b.7 (4)
0x030|                                    d2 56 ee 70|            .V.p|      [4]: "1945-09-22T15:00:00Z" (-766054800) transition_time 0x3c-0x3f.7 (4)
0x040|d7 3c c6 08                                    |.<..            |      [5]: "1948-04-30T16:30:00Z" (-683883000) transition_time 0x40-0x43.7 (4)
0x040|            da ff 26 00                        |    ..&.        |      [6]: "1950-04-30T16:00:00Z" (-620812800) transition_time 0x44-0x47.7 (4)
0x040|                        f4 b5 be 88            |        ....    |      [7]: "1963-12-31T16:30:00Z" (-189415800) transition_time 0x48-0x4b.7 (4)
0x040|                                    64 9b 78 1b|            d.x.|      [8]: "2023-06-28T00:00:27Z" (1687910427) transition_time 0x4c-0x4f.7 (4)
     |                                               |                |    transition_types[0:9]: 0x50-0x58.7 (9)
0x050|01                                             |.               |      [0]: 1 transition_type 0x50-0x50.7 (1)
0x050|   02                                          | .              |      [1]: 2 transition_type 0x51-0x51.7 (1)
0x050|      03                                       |  .             |      [2]: 3 transition_type 0x52-0x52.7 (1)
0x050|         04                                    |   .            |      [3]: 4 transition_type 0x53-0x53.7 (1)
0x050|            03                                 |    .           |      [4]: 3 transition_type 0x54-0x54.7 (1)
0x050|               05                              |     .          |      [5]: 5 transition_type 0x55-0x55.7 (1)
0x050|                  03                           |      .         |      [6]: 3 transition_type 0x56-0x56.7 (1)
0x050|                     06                        |       .        |      [7]: 6 transition_type 0x57-0x57.7 (1)
0x050|                        06                     |        .       |      [8]: 6 transition_type 0x58-0x58.7 (1)
     |                                               |                |    local_time_type_records[0:7]: 0x59-0x82.7 (42)
     |                                               |                |      [0]{}: local_time_type 0x59-0x5e.7 (6)
0x050|                           00 00 64 20         |         ..d    |        utoff: 25632 (valid) 0x59-0x5c.7 (4)
0x050|                                       00      |             .  |        dst: 0 (valid) 0x5d-0x5d.7 (1)
0x050|                                          00   |              . |        idx: 0 (valid) 0x5e-0x5e.7 (1)
     |                                               |                |      [1]{}: local_time_type 0x5f-0x64.7 (6)
0x050|                                             00|               .|        utoff: 25632 (valid) 0x5f-0x62.7 (4)
0x060|00 64 20                                       |.d              |
0x060|         00                                    |   .            |        dst: 0 (valid) 0x63-0x63.7 (1)
0x060|            04                                 |    .           |        idx: 4 (valid) 0x64-0x64.7 (1)
     |                                               |                |      [2]{}: local_time_type 0x65-0x6a.7 (6)
0x060|               00 00 67 20                     |     ..g        |        utoff: 26400 (valid) 0x65-0x68.7 (4)
0x060|                           00                  |         .      |        dst: 0 (valid) 0x69-0x69.7 (1)
0x060|                              08               |          .     |        idx: 8 (valid) 0x6a-0x6a.7 (1)
     |                                               |                |      [3]{}: local_time_type 0x6b-0x70.7 (6)
0x060|                                 00 00 69 78   |           ..ix |        utoff: 27000 (valid) 0x6b-0x6e.7 (4)
0x060|                                             00|               .|        dst: 0 (valid) 0x6f-0x6f.7 (1)
0x070|0e                                             |.               |        idx: 14 (valid) 0x70-0x70.7 (1)
     |                                               |                |      [4]{}: local_time_type 0x71-0x76.7 (6)
0x070|   00 00 7e 90                                 | ..~.           |        utoff: 32400 (valid) 0x71-0x74.7 (4)
0x070|               00                              |     .          |        dst: 0 (valid) 0x75-0x75.7 (1)
0x070|                  14                           |      .         |        idx: 20 (valid) 0x76-0x76.7 (1)
     |                                               |                |      [5]{}: local_time_type 0x77-0x7c.7 (6)
0x070|                     00 00 70 80               |       ..p.     |        utoff: 28800 (valid) 0x77-0x7a.7 (4)
0x070|                                 00            |           .    |        dst: 0 (valid) 0x7b-0x7b.7 (1)
0x070|                                    18         |            .   |        idx: 24 (valid) 0x7c-0x7c.7 (1)
     |                                               |                |      [6]{}: local_time_type 0x7d-0x82.7 (6)
0x070|                                       00 00 62|             ..b|        utoff: 25200 (valid) 0x7d-0x80.7 (4)
0x080|70                                             |p               |
0x080|   00                                          | .              |        dst: 0 (valid) 0x81-0x81.7 (1)
0x080|      1c                                       |  .             |        idx: 28 (valid) 0x82-0x82.7 (1)
     |                                               |                |    time_zone_designations[0:7]: 0x83-0xa2.7 (32)
0x080|         4c 4d 54 00                           |   LMT.         |      [0]: "LMT" time_zone_designation 0x83-0x86.7 (4)
0x080|                     42 4d 54 00               |       BMT.     |      [1]: "BMT" time_zone_designation 0x87-0x8a.7 (4)
0x080|                                 2b 30 37 32 30|           +0720|      [2]: "+0720" time_zone_designation 0x8b-0x90.7 (6)
0x090|00                                             |.               |
0x090|   2b 30 37 33 30 00                           | +0730.         |      [3]: "+0730" time_zone_designation 0x91-0x96.7 (6)
0x090|                     2b 30 39 00               |       +09.     |      [4]: "+09" time_zone_designation 0x97-0x9a.7 (4)
0x090|                                 2b 30 38 00   |           +08. |      [5]: "+08" time_zone_designation 0x9b-0x9e.7 (4)
0x090|                                             57|               W|      [6]: "WIB" time_zone_designation 0x9f-0xa2.7 (4)
0x0a0|49 42 00                                       |IB.             |
     |                                               |                |    leap_second_records[0:27]: 0xa3-0x17a.7 (216)
     |                                               |                |      [0]{}: leap_second_record 0xa3-0xaa.7 (8)
0x0a0|         04 b2 58 00                           |   ..X.         |        occur: "1972-07-01T00:00:00Z" (78796800) 0xa3-0xa6.7 (4)
0x0a0|                     00 00 00 01               |       ....     |        corr: 1 0xa7-0xaa.7 (4)
     |                                               |                |      [1]{}: leap_second_record 0xab-0xb2.7 (8)
0x0a0|                                 05 a4 ec 01   |           .... |        occur: "1973-01-01T00:00:01Z" (94694401) 0xab-0xae.7 (4)
0x0a0|                                             00|               .|        corr: 2 0xaf-0xb2.7 (4)
0x0b0|00 00 02                                       |...             |
     |                                               |                |      [2]{}: leap_second_record 0xb3-0xba.7 (8)
0x0b0|         07 86 1f 82                           |   ....         |        occur: "1974-01-01T00:00:02Z" (126230402) 0xb3-0xb6.7 (4)
0x0b0|                     00 00 00 03               |       ....     |        corr: 3 0xb7-0xba.7 (4)
     |                                               |                |      [3]{}: leap_second_record 0xbb-0xc2.7 (8)
0x0b0|                                 09 67 53 03   |           .gS. |        occur: "1975-01-01T00:00:03Z" (157766403) 0xbb-0xbe.7 (4)
0x0b0|                                             00|               .|        corr: 4 0xbf-0xc2.7 (4)
0x0c0|00 00 04                                       |...             |
     |                                               |                |      [4]{}: leap_second_record 0xc3-0xca.7 (8)
0x0c0|         0b 48 86 84                           |   .H..         |        occur: "1976-01-01T00:00:04Z" (189302404) 0xc3-0xc6.7 (4)
0x0c0|                     00 00 00 05               |       ....     |        corr: 5 0xc7-0xca.7 (4)
     |                                               |                |      [5]{}: leap_second_record 0xcb-0xd2.7 (8)
0x0c0|                                 0d 2b 0b 85   |           .+.. |        occur: "1977-01-01T00:00:05Z" (220924805) 0xcb-0xce.7 (4)
0x0c0|                                             00|               .|        corr: 6 0xcf-0xd2.7 (4)
0x0d0|00 00 06                                       |...             |
     |                                               |                |      [6]{}: leap_second_record 0xd3-0xda.7 (8)
0x0d0|         0f 0c 3f 06                           |   ..?.         |        occur: "1978-01-01T00:00:06Z" (252460806) 0xd3-0xd6.7 (4)
0x0d0|                     00 00 00 07               |       ....     |        corr: 7 0xd7-0xda.7 (4)
     |                                               |                |      [7]{}: leap_second_record 0xdb-0xe2.7 (8)
0x0d0|                                 10 ed 72 87   |           ..r. |        occur: "1979-01-01T00:00:07Z" (283996807) 0xdb-0xde.7 (4)
0x0d0|                                             00|               .|        corr: 8 0xdf-0xe2.7 (4)
0x0e0|00 00 08                                       |...             |
     |                                               |                |      [8]{}: leap_second_record 0xe3-0xea.7 (8)
0x0e0|         12 ce a6 08                           |   ....         |        occur: "1980-01-01T00:00:08Z" (315532808) 0xe3-0xe6.7 (4)
0x0e0|                     00 00 00 09               |       ....     |        corr: 9 0xe7-0xea.7 (4)
     |                                               |                |      [9]{}: leap_second_record 0xeb-0xf2.7 (8)
0x0e0|                                 15 9f ca 89   |           .... |        occur: "1981-07-01T00:00:09Z" (362793609) 0xeb-0xee.7 (4)
0x0e0|                                             00|               .|        corr: 10 0xef-0xf2.7 (4)
0x0f0|00 00 0a                                       |...             |
     |                                               |                |      [10]{}: leap_second_record 0xf3-0xfa.7 (8)
0x0f0|         17 80 fe 0a                           |   ....         |        occur: "1982-07-01T00:00:10Z" (394329610) 0xf3-0xf6.7 (4)
0x0f0|                     00 00 00 0b               |       ....     |        corr: 11 0xf7-0xfa.7 (4)
     |                                               |                |      [11]{}: leap_second_record 0xfb-0x102.7 (8)
0x0f0|                                 19 62 31 8b   |           .b1. |        occur: "1983-07-01T00:00:11Z" (425865611) 0xfb-0xfe.7 (4)
0x0f0|                                             00|               .|        corr: 12 0xff-0x102.7 (4)
0x100|00 00 0c                                       |...             |
     |                                               |                |      [12]{}: leap_second_record 0x103-0x10a.7 (8)
0x100|         1d 25 ea 0c                           |   .%..         |        occur: "1985-07-01T00:00:12Z" (489024012) 0x103-0x106.7 (4)
0x100|                     00 00 00 0d               |       ....     |        corr: 13 0x107-0x10a.7 (4)
     |                                               |                |      [13]{}: leap_second_record 0x10b-0x112.7 (8)
0x100|                                 21 da e5 0d   |           !... |        occur: "1988-01-01T00:00:13Z" (567993613) 0x10b-0x10e.7 (4)
0x100|                                             00|               .|        corr: 14 0x10f-0x112.7 (4)
0x110|00 00 0e                                       |...             |
     |                                               |                |      [14]{}: leap_second_record 0x113-0x11a.7 (8)
0x110|         25 9e 9d 8e                           |   %...         |        occur: "1990-01-01T00:00:14Z" (631152014) 0x113-0x116.7 (4)
0x110|                     00 00 00 0f               |       ....     |        corr: 15 0x117-0x11a.7 (4)
     |                                               |                |      [15]{}: leap_second_record 0x11b-0x122.7 (8)
0x110|                                 27 7f d1 0f   |           '... |        occur: "1991-01-01T00:00:15Z" (662688015) 0x11b-0x11e.7 (4)
0x110|                                             00|               .|        corr: 16 0x11f-0x122.7 (4)
0x120|00 00 10                                       |...             |
     |                                               |                |      [16]{}: leap_second_record 0x123-0x12a.7 (8)
0x120|         2a 50 f5 90                           |   *P..         |        occur: "1992-07-01T00:00:16Z" (709948816) 0x123-0x126.7 (4)
0x120|                     00 00 00 11               |       ....     |        corr: 17 0x127-0x12a.7 (4)
     |                                               |                |      [17]{}: leap_second_record 0x12b-0x132.7 (8)
0x120|                                 2c 32 29 11   |           ,2). |        occur: "1993-07-01T00:00:17Z" (741484817) 0x12b-0x12e.7 (4)
0x120|                                             00|               .|        corr: 18 0x12f-0x132.7 (4)
0x130|00 00 12                                       |...             |
     |                                               |                |      [18]{}: leap_second_record 0x133-0x13a.7 (8)
0x130|         2e 13 5c 92                           |   ..\.         |        occur: "1994-07-01T00:00:18Z" (773020818) 0x133-0x136.7 (4)
0x130|                     00 00 00 13               |       ....     |        corr: 19 0x137-0x13a.7 (4)
     |                                               |                |      [19]{}: leap_second_record 0x13b-0x142.7 (8)
0x130|                                 30 e7 24 13   |           0.$. |        occur: "1996-01-01T00:00:19Z" (820454419) 0x13b-0x13e.7 (4)
0x130|                                             00|               .|        corr: 20 0x13f-0x142.7 (4)
0x140|00 00 14                                       |...             |
     |                                               |                |      [20]{}: leap_second_record 0x143-0x14a.7 (8)
0x140|         33 b8 48 94                           |   3.H.         |        occur: "1997-07-01T00:00:20Z" (867715220) 0x143-0x146.7 (4)
0x140|                     00 00 00 15               |       ....     |        corr: 21 0x147-0x14a.7 (4)
     |                                               |                |      [21]{}: leap_second_record 0x14b-0x152.7 (8)
0x140|                                 36 8c 10 15   |           6... |        occur: "1999-01-01T00:00:21Z" (915148821) 0x14b-0x14e.7 (4)
0x140|                                             00|               .|        corr: 22 0x14f-0x152.7 (4)
0x150|00 00 16                                       |...             |
     |                                               |                |      [22]{}: leap_second_record 0x153-0x15a.7 (8)
0x150|         43 b7 1b 96                           |   C...         |        occur: "2006-01-01T00:00:22Z" (1136073622) 0x153-0x156.7 (4)
0x150|                     00 00 00 17               |       ....     |        corr: 23 0x157-0x15a.7 (4)
     |                                               |                |      [23]{}: leap_second_record 0x15b-0x162.7 (8)
0x150|                                 49 5c 07 97   |           I\.. |        occur: "2009-01-01T00:00:23Z" (1230768023) 0x15b-0x15e.7 (4)
0x150|                                             00|               .|        corr: 24 0x15f-0x162.7 (4)
0x160|00 00 18                                       |...             |
     |                                               |                |      [24]{}: leap_second_record 0x163-0x16a.7 (8)
0x160|         4f ef 93 18                           |   O...         |        occur: "2012-07-01T00:00:24Z" (1341100824) 0x163-0x166.7 (4)
0x160|                     00 00 00 19               |       ....     |        corr: 25 0x167-0x16a.7 (4)
     |                                               |                |      [25]{}: leap_second_record 0x16b-0x172.7 (8)
0x160|                                 55 93 2d 99   |           U.-. |        occur: "2015-07-01T00:00:25Z" (1435708825) 0x16b-0x16e.7 (4)
0x160|                                             00|               .|        corr: 26 0x16f-0x172.7 (4)
0x170|00 00 1a                                       |...             |
     |                                               |                |      [26]{}: leap_second_record 0x173-0x17a.7 (8)
0x170|         58 68 46 9a                           |   XhF.         |        occur: "2017-01-01T00:00:26Z" (1483228826) 0x173-0x176.7 (4)
0x170|                     00 00 00 1b               |       ....     |        corr: 27 0x177-0x17a.7 (4)
     |                                               |                |    standard_wall_indicators[0:7]: 0x17b-0x181.7 (7)
0x170|                                 00            |           .    |      [0]: 0 standard_wall_indicator (valid) 0x17b-0x17b.7 (1)
0x170|                                    00         |            .   |      [1]: 0 standard_wall_indicator (valid) 0x17c-0x17c.7 (1)
0x170|                                       01      |             .  |      [2]: 1 standard_wall_indicator (valid) 0x17d-0x17d.7 (1)
0x170|                                          00   |              . |      [3]: 0 standard_wall_indicator (valid) 0x17e-0x17e.7 (1)
0x170|                                             00|               .|      [4]: 0 standard_wall_indicator (valid) 0x17f-0x17f.7 (1)
0x180|00                                             |.               |      [5]: 0 standard_wall_indicator (valid) 0x180-0x180.7 (1)
0x180|   00                                          | .              |      [6]: 0 standard_wall_indicator (valid) 0x181-0x181.7 (1)
     |                                               |                |    ut_local_indicators[0:7]: 0x182-0x188.7 (7)
0x180|      00                                       |  .             |      [0]: 0 ut_local_indicator (valid) 0x182-0x182.7 (1)
0x180|         00                                    |   .            |      [1]: 0 ut_local_indicator (valid) 0x183-0x183.7 (1)
0x180|            01                                 |    .           |      [2]: 1 ut_local_indicator (valid) 0x184-0x184.7 (1)
0x180|               00                              |     .          |      [3]: 0 ut_local_indicator (valid) 0x185-0x185.7 (1)
0x180|                  00                           |      .         |      [4]: 0 ut_local_indicator (valid) 0x186-0x186.7 (1)
0x180|                     00                        |       .        |      [5]: 0 ut_local_indicator (valid) 0x187-0x187.7 (1)
0x180|                        00                     |        .       |      [6]: 0 ut_local_indicator (valid) 0x188-0x188.7 (1)
     |                                               |                |  v2plusheader{}: 0x189-0x1b4.7 (44)
0x180|                           54 5a 69 66         |         TZif   |    magic: 0x545a6966 (valid) 0x189-0x18c.7 (4)
0x180|                                       32      |             2  |    ver: "2" (0x32) (valid) 0x18d-0x18d.7 (1)
0x180|                                          00 00|              ..|    reserved: raw bits 0x18e-0x19c.7 (15)
0x190|00 00 00 00 00 00 00 00 00 00 00 00 00         |.............   |
0x190|                                       00 00 00|             ...|    isutcnt: 7 0x19d-0x1a0.7 (4)
0x1a0|07                                             |.               |
0x1a0|   00 00 00 07                                 | ....           |    isstdcnt: 7 0x1a1-0x1a4.7 (4)
0x1a0|               00 00 00 1b                     |     ....       |    leapcnt: 27 0x1a5-0x1a8.7 (4)
0x1a0|                           00 00 00 09         |         ....   |    timecnt: 9 0x1a9-0x1ac.7 (4)
0x1a0|                                       00 00 00|             ...|    typecnt: 7 0x1ad-0x1b0.7 (4)
0x1b0|07                                             |.               |
0x1b0|   00 00 00 20                                 | ...            |    charcnt: 32 0x1b1-0x1b4.7 (4)
     |                                               |                |  v2plusdatablock{}: 0x1b5-0x3a1.7 (493)
     |                                               |                |    transition_times[0:9]: 0x1b5-0x1fc.7 (72)
0x1b0|               ff ff ff ff 3f 66 49 60         |     ....?fI`   |      [0]: "1867-08-09T16:52:48Z" (-3231299232) transition_time 0x1b5-0x1bc.7 (8)
0x1b0|                                       ff ff ff|             ...|      [1]: "1923-12-31T16:40:00Z" (-1451719200) transition_time 0x1bd-0x1c4.7 (8)
0x1c0|ff a9 78 85 e0                                 |..x..           |
0x1c0|               ff ff ff ff ba 16 de 60         |     .......`   |      [2]: "1932-10-31T16:40:00Z" (-1172906400) transition_time 0x1c5-0x1cc.7 (8)
0x1c0|                                       ff ff ff|             ...|      [3]: "1942-03-22T16:30:00Z" (-876641400) transition_time 0x1cd-0x1d4.7 (8)
0x1d0|ff cb bf 83 88                                 |.....           |
0x1d0|               ff ff ff ff d2 56 ee 70         |     .....V.p   |      [4]: "1945-09-22T15:00:00Z" (-766054800) transition_time 0x1d5-0x1dc.7 (8)
0x1d0|                                       ff ff ff|             ...|      [5]: "1948-04-30T16:30:00Z" (-683883000) transition_time 0x1dd-0x1e4.7 (8)
0x1e0|ff d7 3c c6 08                                 |..<..           |
0x1e0|               ff ff ff ff da ff 26 00         |     ......&.   |      [6]: "1950-04-30T16:00:00Z" (-620812800) transition_time 0x1e5-0x1ec.7 (8)
0x1e0|                                       ff ff ff|             ...|      [7]: "1963-12-31T16:30:00Z" (-189415800) transition_time 0x1ed-0x1f4.7 (8)
0x1f0|ff f4 b5 be 88                                 |.....           |
0x1f0|               00 00 00 00 64 9b 78 1b         |     ....d.x.   |      [8]: "2023-06-28T00:00:27Z" (1687910427) transition_time 0x1f5-0x1fc.7 (8)
     |                                               |                |    transition_types[0:9]: 0x1fd-0x205.7 (9)
0x1f0|                                       01      |             .  |      [0]: 1 transition_type 0x1fd-0x1fd.7 (1)
0x1f0|                                          02   |              . |      [1]: 2 transition_type 0x1fe-0x1fe.7 (1)
0x1f0|                                             03|               .|      [2]: 3 transition_type 0x1ff-0x1ff.7 (1)
0x200|04                                             |.               |      [3]: 4 transition_type 0x200-0x200.7 (1)
0x200|   03                                          | .              |      [4]: 3 transition_type 0x201-0x201.7 (1)
0x200|      05                                       |  .             |      [5]: 5 transition_type 0x202-0x202.7 (1)
0x200|         03                                    |   .            |      [6]: 3 transition_type 0x203-0x203.7 (1)
0x200|            06                                 |    .           |      [7]: 6 transition_type 0x204-0x204.7 (1)
0x200|               06                              |     .          |      [8]: 6 transition_type 0x205-0x205.7 (1)
     |                                               |                |    local_time_type_records[0:7]: 0x206-0x22f.7 (42)
     |                                               |                |      [0]{}: local_time_type 0x206-0x20b.7 (6)
0x200|                  00 00 64 20                  |      ..d       |        utoff: 25632 (valid) 0x206-0x209.7 (4)
0x200|                              00               |          .     |        dst: 0 (valid) 0x20a-0x20a.7 (1)
0x200|                                 00            |           .    |        idx: 0 (valid) 0x20b-0x20b.7 (1)
     |                                               |                |      [1]{}: local_time_type 0x20c-0x211.7 (6)
0x200|                                    00 00 64 20|            ..d |        utoff: 25632 (valid) 0x20c-0x20f.7 (4)
0x210|00                                             |.               |        dst: 0 (valid) 0x210-0x210.7 (1)
0x210|   04                                          | .              |        idx: 4 (valid) 0x211-0x211.7 (1)
     |                                               |                |      [2]{}: local_time_type 0x212-0x217.7 (6)
0x210|      00 00 67 20                              |  ..g           |        utoff: 26400 (valid) 0x212-0x215.7 (4)
0x210|                  00                           |      .         |        dst: 0 (valid) 0x216-0x216.7 (1)
0x210|                     08                        |       .        |        idx: 8 (valid) 0x217-0x217.7 (1)
     |                                               |                |      [3]{}: local_time_type 0x218-0x21d.7 (6)
0x210|                        00 00 69 78            |        ..ix    |        utoff: 27000 (valid) 0x218-0x21b.7 (4)
0x210|                                    00         |            .   |        dst: 0 (valid) 0x21c-0x21c.7 (1)
0x210|                                       0e      |             .  |        idx: 14 (valid) 0x21d-0x21d.7 (1)
     |                                               |                |      [4]{}: local_time_type 0x21e-0x223.7 (6)
0x210|                                          00 00|              ..|        utoff: 32400 (valid) 0x21e-0x221.7 (4)
0x220|7e 90                                          |~.              |
0x220|      00                                       |  .             |        dst: 0 (valid) 0x222-0x222.7 (1)
0x220|         14                                    |   .            |        idx: 20 (valid) 0x223-0x223.7 (1)
     |                                               |                |      [5]{}: local_time_type 0x224-0x229.7 (6)
0x220|            00 00 70 80                        |    ..p.        |        utoff: 28800 (valid) 0x224-0x227.7 (4)
0x220|                        00                     |        .       |        dst: 0 (valid) 0x228-0x228.7 (1)
0x220|                           18                  |         .      |        idx: 24 (valid) 0x229-0x229.7 (1)
     |                                               |                |      [6]{}: local_time_type 0x22a-0x22f.7 (6)
0x220|                              00 00 62 70      |          ..bp  |        utoff: 25200 (valid) 0x22a-0x22d.7 (4)
0x220|                                          00   |              . |        dst: 0 (valid) 0x22e-0x22e.7 (1)
0x220|                                             1c|               .|        idx: 28 (valid) 0x22f-0x22f.7 (1)
     |                                               |                |    time_zone_designations[0:7]: 0x230-0x24f.7 (32)
0x230|4c 4d 54 00                                    |LMT.            |      [0]: "LMT" time_zone_designation 0x230-0x233.7 (4)
0x230|            42 4d 54 00                        |    BMT.        |      [1]: "BMT" time_zone_designation 0x234-0x237.7 (4)
0x230|                        2b 30 37 32 30 00      |        +0720.  |      [2]: "+0720" time_zone_designation 0x238-0x23d.7 (6)
0x230|                                          2b 30|              +0|      [3]: "+0730" time_zone_designation 0x23e-0x243.7 (6)
0x240|37 33 30 00                                    |730.            |
0x240|            2b 30 39 00                        |    +09.        |      [4]: "+09" time_zone_designation 0x244-0x247.7 (4)
0x240|                        2b 30 38 00            |        +08.    |      [5]: "+08" time_zone_designation 0x248-0x24b.7 (4)
0x240|                                    57 49 42 00|            WIB.|      [6]: "WIB" time_zone_designation 0x24c-0x24f.7 (4)
     |                                               |                |    leap_second_records[0:27]: 0x250-0x393.7 (324)
     |                                               |                |      [0]{}: leap_second_record 0x250-0x25b.7 (12)
0x250|00 00 00 00 04 b2 58 00                        |......X.        |        occur: "1972-07-01T00:00:00Z" (78796800) 0x250-0x257.7 (8)
0x250|                        00 00 00 01            |        ....    |        corr: 1 0x258-0x25b.7 (4)
     |                                               |                |      [1]{}: leap_second_record 0x25c-0x267.7 (12)
0x250|                                    00 00 00 00|            ....|        occur: "1973-01-01T00:00:01Z" (94694401) 0x25c-0x263.7 (8)
0x260|05 a4 ec 01                                    |....            |
0x260|            00 00 00 02                        |    ....        |        corr: 2 0x264-0x267.7 (4)
     |                                               |                |      [2]{}: leap_second_record 0x268-0x273.7 (12)
0x260|                        00 00 00 00 07 86 1f 82|        ........|        occur: "1974-01-01T00:00:02Z" (126230402) 0x268-0x26f.7 (8)
0x270|00 00 00 03                                    |....            |        corr: 3 0x270-0x273.7 (4)
     |                                               |                |      [3]{}: leap_second_record 0x274-0x27f.7 (12)
0x270|            00 00 00 00 09 67 53 03            |    .....gS.    |        occur: "1975-01-01T00:00:03Z" (157766403) 0x274-0x27b.7 (8)
0x270|                                    00 00 00 04|            ....|        corr: 4 0x27c-0x27f.7 (4)
     |                                               |                |      [4]{}: leap_second_record 0x280-0x28b.7 (12)
0x280|00 00 00 00 0b 48 86 84                        |.....H..        |        occur: "1976-01-01T00:00:04Z" (189302404) 0x280-0x287.7 (8)
0x280|                        00 00 00 05            |        ....    |        corr: 5 0x288-0x28b.7 (4)
     |                                               |                |      [5]{}: leap_second_record 0x28c-0x297.7 (12)
0x280|                                    00 00 00 00|            ....|        occur: "1977-01-01T00:00:05Z" (220924805) 0x28c-0x293.7 (8)
0x290|0d 2b 0b 85                                    |.+..            |
0x290|            00 00 00 06                        |    ....        |        corr: 6 0x294-0x297.7 (4)
     |                                               |                |      [6]{}: leap_second_record 0x298-0x2a3.7 (12)
0x290|                        00 00 00 00 0f 0c 3f 06|        ......?.|        occur: "1978-01-01T00:00:06Z" (252460806) 0x298-0x29f.7 (8)
0x2a0|00 00 00 07                                    |....            |        corr: 7 0x2a0-0x2a3.7 (4)
     |                                               |                |      [7]{}: leap_second_record 0x2a4-0x2af.7 (12)
0x2a0|            00 00 00 00 10 ed 72 87            |    ......r.    |        occur: "1979-01-01T00:00:07Z" (283996807) 0x2a4-0x2ab.7 (8)
0x2a0|                                    00 00 00 08|            ....|        corr: 8 0x2ac-0x2af.7 (4)
     |                                               |                |      [8]{}: leap_second_record 0x2b0-0x2bb.7 (12)
0x2b0|00 00 00 00 12 ce a6 08                        |........        |        occur: "1980-01-01T00:00:08Z" (315532808) 0x2b0-0x2b7.7 (8)
0x2b0|                        00 00 00 09            |        ....    |        corr: 9 0x2b8-0x2bb.7 (4)
     |                                               |                |      [9]{}: leap_second_record 0x2bc-0x2c7.7 (12)
0x2b0|                                    00 00 00 00|            ....|        occur: "1981-07-01T00:00:09Z" (362793609) 0x2bc-0x2c3.7 (8)
0x2c0|15 9f ca 89                                    |....            |
0x2c0|            00 00 00 0a                        |    ....        |        corr: 10 0x2c4-0x2c7.7 (4)
     |                                               |                |      [10]{}: leap_second_record 0x2c8-0x2d3.7 (12)
0x2c0|                        00 00 00 00 17 80 fe 0a|        ........|        occur: "1982-07-01T00:00:10Z" (394329610) 0x2c8-0x2cf.7 (8)
0x2d0|00 00 00 0b                                    |....            |        corr: 11 0x2d0-0x2d3.7 (4)
     |                                               |                |      [11]{}: leap_second_record 0x2d4-0x2df.7 (12)
0x2d0|            00 00 00 00 19 62 31 8b            |    .....b1.    |        occur: "1983-07-01T00:00:11Z" (425865611) 0x2d4-0x2db.7 (8)
0x2d0|                                    00 00 00 0c|            ....|        corr: 12 0x2dc-0x2df.7 (4)
     |                                               |                |      [12]{}: leap_second_record 0x2e0-0x2eb.7 (12)
0x2e0|00 00 00 00 1d 25 ea 0c                        |.....%..        |        occur: "1985-07-01T00:00:12Z" (489024012) 0x2e0-0x2e7.7 (8)
0x2e0|                        00 00 00 0d            |        ....    |        corr: 13 0x2e8-0x2eb.7 (4)
     |                                               |                |      [13]{}: leap_second_record 0x2ec-0x2f7.7 (12)
0x2e0|                                    00 00 00 00|            ....|        occur: "1988-01-01T00:00:13Z" (567993613) 0x2ec-0x2f3.7 (8)
0x2f0|21 da e5 0d                                    |!...            |
0x2f0|            00 00 00 0e                        |    ....        |        corr: 14 0x2f4-0x2f7.7 (4)
     |                                               |                |      [14]{}: leap_second_record 0x2f8-0x303.7 (12)
0x2f0|                        00 00 00 00 25 9e 9d 8e|        ....%...|        occur: "1990-01-01T00:00:14Z" (631152014) 0x2f8-0x2ff.7 (8)
0x300|00 00 00 0f                                    |....            |        corr: 15 0x300-0x303.7 (4)
     |                                               |                |      [15]{}: leap_second_record 0x304-0x30f.7 (12)
0x300|            00 00 00 00 27 7f d1 0f            |    ....'...    |        occur: "1991-01-01T00:00:15Z" (662688015) 0x304-0x30b.7 (8)
0x300|                                    00 00 00 10|            ....|        corr: 16 0x30c-0x30f.7 (4)
     |                                               |                |      [16]{}: leap_second_record 0x310-0x31b.7 (12)
0x310|00 00 00 00 2a 50 f5 90                        |....*P..        |        occur: "1992-07-01T00:00:16Z" (709948816) 0x310-0x317.7 (8)
0x310|                        00 00 00 11            |        ....    |        corr: 17 0x318-0x31b.7 (4)
     |                                               |                |      [17]{}: leap_second_record 0x31c-0x327.7 (12)
0x310|                                    00 00 00 00|            ....|        occur: "1993-07-01T00:00:17Z" (741484817) 0x31c-0x323.7 (8)
0x320|2c 32 29 11                                    |,2).            |
0x320|            00 00 00 12                        |    ....        |        corr: 18 0x324-0x327.7 (4)
     |                                               |                |      [18]{}: leap_second_record 0x328-0x333.7 (12)
0x320|                        00 00 00 00 2e 13 5c 92|        ......\.|        occur: "1994-07-01T00:00:18Z" (773020818) 0x328-0x32f.7 (8)
0x330|00 00 00 13                                    |....            |        corr: 19 0x330-0x333.7 (4)
     |                                               |                |      [19]{}: leap_second_record 0x334-0x33f.7 (12)
0x330|            00 00 00 00 30 e7 24 13            |    ....0.$.    |        occur: "1996-01-01T00:00:19Z" (820454419) 0x334-0x33b.7 (8)
0x330|                                    00 00 00 14|            ....|        corr: 20 0x33c-0x33f.7 (4)
     |                                               |                |      [20]{}: leap_second_record 0x340-0x34b.7 (12)
0x340|00 00 00 00 33 b8 48 94                        |....3.H.        |        occur: "1997-07-01T00:00:20Z" (867715220) 0x340-0x347.7 (8)
0x340|                        00 00 00 15            |        ....    |        corr: 21 0x348-0x34b.7 (4)
     |                                               |                |      [21]{}: leap_second_record 0x34c-0x357.7 (12)
0x340|                                    00 00 00 00|            ....|        occur: "1999-01-01T00:00:21Z" (915148821) 0x34c-0x353.7 (8)
0x350|36 8c 10 15                                    |6...            |
0x350|            00 00 00 16                        |    ....        |        corr: 22 0x354-0x357.7 (4)
     |                                               |                |      [22]{}: leap_second_record 0x358-0x363.7 (12)
0x350|                        00 00 00 00 43 b7 1b 96|        ....C...|        occur: "2006-01-01T00:00:22Z" (1136073622) 0x358-0x35f.7 (8)
0x360|00 00 00 17                                    |....            |        corr: 23 0x360-0x363.7 (4)
     |                                               |                |      [23]{}: leap_second_record 0x364-0x36f.7 (12)
0x360|            00 00 00 00 49 5c 07 97            |    ....I\..    |        occur: "2009-01-01T00:00:23Z" (1230768023) 0x364-0x36b.7 (8)
0x360|                                    00 00 00 18|            ....|        corr: 24 0x36c-0x36f.7 (4)
     |                                               |                |      [24]{}: leap_second_record 0x370-0x37b.7 (12)
0x370|00 00 00 00 4f ef 93 18                        |....O...        |        occur: "2012-07-01T00:00:24Z" (1341100824) 0x370-0x377.7 (8)
0x370|                        00 00 00 19            |        ....    |        corr: 25 0x378-0x37b.7 (4)
     |                                               |                |      [25]{}: leap_second_record 0x37c-0x387.7 (12)
0x370|                                    00 00 00 00|            ....|        occur: "2015-07-01T00:00:25Z" (1435708825) 0x37c-0x383.7 (8)
0x380|55 93 2d 99                                    |U.-.            |
0x380|            00 00 00 1a                        |    ....        |        corr: 26 0x384-0x387.7 (4)
     |                                               |                |      [26]{}: leap_second_record 0x388-0x393.7 (12)
0x380|                        00 00 00 00 58 68 46 9a|        ....XhF.|        occur: "2017-01-01T00:00:26Z" (1483228826) 0x388-0x38f.7 (8)
0x390|00 00 00 1b                                    |....            |        corr: 27 0x390-0x393.7 (4)
     |                                               |                |    standard_wall_indicators[0:7]: 0x394-0x39a.7 (7)
0x390|            00                                 |    .           |      [0]: 0 standard_wall_indicator (valid) 0x394-0x394.7 (1)
0x390|               00                              |     .          |      [1]: 0 standard_wall_indicator (valid) 0x395-0x395.7 (1)
0x390|                  01                           |      .         |      [2]: 1 standard_wall_indicator (valid) 0x396-0x396.7 (1)
0x390|                     00                        |       .        |      [3]: 0 standard_wall_indicator (valid) 0x397-0x397.7 (1)
0x390|                        00                     |        .       |      [4]: 0 standard_wall_indicator (valid) 0x398-0x398.7 (1)
0x390|                           00                  |         .      |      [5]: 0 standard_wall_indicator (valid) 0x399-0x399.7 (1)
0x390|                              00               |          .     |      [6]: 0 standard_wall_indicator (valid) 0x39a-0x39a.7 (1)
     |                                               |                |    ut_local_indicators[0:7]: 0x39b-0x3a1.7 (7)
0x390|                                 00            |           .    |      [0]: 0 ut_local_indicator (valid) 0x39b-0x39b.7 (1)
0x390|                                    00         |            .   |      [1]: 0 ut_local_indicator (valid) 0x39c-0x39c.7 (1)
0x390|                                       01      |             .  |      [2]: 1 ut_local_indicator (valid) 0x39d-0x39d.7 (1)
0x390|                                          00   |              . |      [3]: 0 ut_local_indicator (valid) 0x39e-0x39e.7 (1)
0x390|                                             00|               .|      [4]: 0 ut_local_indicator (valid) 0x39f-0x39f.7 (1)
0x3a0|00                                             |.               |      [5]: 0 ut_local_indicator (valid) 0x3a0-0x3a0.7 (1)
0x3a0|   00                                          | .              |      [6]: 0 ut_local_indicator (valid) 0x3a1-0x3a1.7 (1)
     |                                               |                |  footer{}: 0x3a2-0x3a3.7 (2)
0x3a0|      0a                                       |  .             |    nl1: 10 (valid) 0x3a2-0x3a2.7 (1)
     |                                               |                |    tz_string: "" 0x3a3-NA (0)
0x3a0|         0a|                                   |   .|           |    nl2: 10 (valid) 0x3a3-0x3a3.7 (1)
