$ fq -d tzif dv Jerusalem
     |00 01 02 03 04 05 06 07 08 09 0a 0b 0c 0d 0e 0f|0123456789abcdef|.{}: Jerusalem (tzif) 0x0-0x9ce (2510)
     |                                               |                |  v1header{}: 0x0-0x2c (44)
0x000|54 5a 69 66                                    |TZif            |    magic: 0x545a6966 (valid) 0x0-0x4 (4)
0x000|            32                                 |    2           |    ver: "2" (0x32) (valid) 0x4-0x5 (1)
0x000|               00 00 00 00 00 00 00 00 00 00 00|     ...........|    reserved: raw bits 0x5-0x14 (15)
0x010|00 00 00 00                                    |....            |
0x010|            00 00 00 09                        |    ....        |    isutcnt: 9 0x14-0x18 (4)
0x010|                        00 00 00 09            |        ....    |    isstdcnt: 9 0x18-0x1c (4)
0x010|                                    00 00 00 1b|            ....|    leapcnt: 27 0x1c-0x20 (4)
0x020|00 00 00 79                                    |...y            |    timecnt: 121 0x20-0x24 (4)
0x020|            00 00 00 09                        |    ....        |    typecnt: 9 0x24-0x28 (4)
0x020|                        00 00 00 15            |        ....    |    charcnt: 21 0x28-0x2c (4)
     |                                               |                |  v1datablock{}: 0x2c-0x3be (914)
     |                                               |                |    transition_times[0:121]: 0x2c-0x210 (484)
0x020|                                    80 00 00 00|            ....|      [0]: "1901-12-13T20:45:52Z" (-2147483648) transition_time 0x2c-0x30 (4)
0x030|9e 30 45 88                                    |.0E.            |      [1]: "1917-12-31T21:39:20Z" (-1641003640) transition_time 0x30-0x34 (4)
0x030|            c8 59 cf 00                        |    .Y..        |      [2]: "1940-06-01T00:00:00Z" (-933638400) transition_time 0x34-0x38 (4)
0x030|                        c8 fa a6 00            |        ....    |      [3]: "1940-10-01T00:00:00Z" (-923097600) transition_time 0x38-0x3c (4)
0x030|                                    c9 38 9c 80|            .8..|      [4]: "1940-11-17T00:00:00Z" (-919036800) transition_time 0x3c-0x40 (4)
0x040|cc e5 eb 80                                    |....            |      [5]: "1942-11-01T00:00:00Z" (-857347200) transition_time 0x40-0x44 (4)
0x040|            cd ac fe 00                        |    ....        |      [6]: "1943-04-01T00:00:00Z" (-844300800) transition_time 0x44-0x48 (4)
0x040|                        ce c7 1f 00            |        ....    |      [7]: "1943-11-01T00:00:00Z" (-825811200) transition_time 0x48-0x4c (4)
0x040|                                    cf 8f 83 00|            ....|      [8]: "1944-04-01T00:00:00Z" (-812678400) transition_time 0x4c-0x50 (4)
0x050|d0 a9 a4 00                                    |....            |      [9]: "1944-11-01T00:00:00Z" (-794188800) transition_time 0x50-0x54 (4)
0x050|            d1 84 7d 00                        |    ..}.        |      [10]: "1945-04-16T00:00:00Z" (-779846400) transition_time 0x54-0x58 (4)
0x050|                        d2 8a d7 80            |        ....    |      [11]: "1945-11-01T00:00:00Z" (-762652800) transition_time 0x58-0x5c (4)
0x050|                                    d3 65 b0 80|            .e..|      [12]: "1946-04-16T00:00:00Z" (-748310400) transition_time 0x5c-0x60 (4)
0x060|d4 6c 0b 00                                    |.l..            |      [13]: "1946-11-01T00:00:00Z" (-731116800) transition_time 0x60-0x64 (4)
0x060|            d7 5a 30 80                        |    .Z0.        |      [14]: "1948-05-23T00:00:00Z" (-681955200) transition_time 0x64-0x68 (4)
0x060|                        d7 df 58 00            |        ..X.    |      [15]: "1948-09-01T00:00:00Z" (-673228800) transition_time 0x68-0x6c (4)
0x060|                                    d8 2f c3 80|            ./..|      [16]: "1948-11-01T00:00:00Z" (-667958400) transition_time 0x6c-0x70 (4)
0x070|d9 1e 63 00                                    |..c.            |      [17]: "1949-05-01T00:00:00Z" (-652320000) transition_time 0x70-0x74 (4)
0x070|            da 10 f7 00                        |    ....        |      [18]: "1949-11-01T00:00:00Z" (-636422400) transition_time 0x74-0x78 (4)
0x070|                        da eb d0 00            |        ....    |      [19]: "1950-04-16T00:00:00Z" (-622080000) transition_time 0x78-0x7c (4)
0x070|                                    db b4 34 00|            ..4.|      [20]: "1950-09-15T00:00:00Z" (-608947200) transition_time 0x7c-0x80 (4)
0x080|dc b9 3d 00                                    |..=.            |      [21]: "1951-04-01T00:00:00Z" (-591840000) transition_time 0x80-0x84 (4)
0x080|            dd e0 8d 00                        |    ....        |      [22]: "1951-11-11T00:00:00Z" (-572486400) transition_time 0x84-0x88 (4)
0x080|                        de b4 ce 80            |        ....    |      [23]: "1952-04-20T00:00:00Z" (-558576000) transition_time 0x88-0x8c (4)
0x080|                                    df a4 bf 80|            ....|      [24]: "1952-10-19T00:00:00Z" (-542851200) transition_time 0x8c-0x90 (4)
0x090|e0 8b 76 00                                    |..v.            |      [25]: "1953-04-12T00:00:00Z" (-527731200) transition_time 0x90-0x94 (4)
0x090|            e1 56 7d 00                        |    .V}.        |      [26]: "1953-09-13T00:00:00Z" (-514425600) transition_time 0x94-0x98 (4)
0x090|                        e2 be 66 80            |        ..f.    |      [27]: "1954-06-13T00:00:00Z" (-490838400) transition_time 0x98-0x9c (4)
0x090|                                    e3 36 5f 00|            .6_.|      [28]: "1954-09-12T00:00:00Z" (-482976000) transition_time 0x9c-0xa0 (4)
0x0a0|e4 9e 48 80                                    |..H.            |      [29]: "1955-06-12T00:00:00Z" (-459388800) transition_time 0xa0-0xa4 (4)
0x0a0|            e5 16 41 00                        |    ..A.        |      [30]: "1955-09-11T00:00:00Z" (-451526400) transition_time 0xa4-0xa8 (4)
0x0a0|                        e6 74 f0 00            |        .t..    |      [31]: "1956-06-03T00:00:00Z" (-428544000) transition_time 0xa8-0xac (4)
0x0a0|                                    e7 11 d2 80|            ....|      [32]: "1956-09-30T00:00:00Z" (-418262400) transition_time 0xac-0xb0 (4)
0x0b0|e8 26 ad 80                                    |.&..            |      [33]: "1957-04-28T00:00:00Z" (-400118400) transition_time 0xb0-0xb4 (4)
0x0b0|            e8 e8 7a 00                        |    ..z.        |      [34]: "1957-09-22T00:00:00Z" (-387417600) transition_time 0xb4-0xb8 (4)
0x0b0|                        08 7c 8b e3            |        .|..    |      [35]: "1974-07-06T22:00:03Z" (142380003) transition_time 0xb8-0xbc (4)
0x0b0|                                    08 fd b0 d3|            ....|      [36]: "1974-10-12T21:00:03Z" (150843603) transition_time 0xbc-0xc0 (4)
0x0c0|09 f6 ea 64                                    |...d            |      [37]: "1975-04-19T22:00:04Z" (167176804) transition_time 0xc0-0xc4 (4)
0x0c0|            0a a6 33 d4                        |    ..3.        |      [38]: "1975-08-30T21:00:04Z" (178664404) transition_time 0xc4-0xc8 (4)
0x0c0|                        13 e9 fc 69            |        ...i    |      [39]: "1980-08-02T22:00:09Z" (334101609) transition_time 0xc8-0xcc (4)
0x0c0|                                    14 21 5b 69|            .![i|      [40]: "1980-09-13T22:00:09Z" (337730409) transition_time 0xcc-0xd0 (4)
0x0d0|1a fa c6 6c                                    |...l            |      [41]: "1984-05-05T22:00:12Z" (452642412) transition_time 0xd0-0xd4 (4)
0x0d0|            1b 8e 6e 6c                        |    ..nl        |      [42]: "1984-08-25T22:00:12Z" (462319212) transition_time 0xd4-0xd8 (4)
0x0d0|                        1c be f8 ec            |        ....    |      [43]: "1985-04-13T22:00:12Z" (482277612) transition_time 0xd8-0xdc (4)
0x0d0|                                    1d 77 7c dd|            .w|.|      [44]: "1985-08-31T21:00:13Z" (494370013) transition_time 0xdc-0xe0 (4)
0x0e0|1e cc ff 6d                                    |...m            |      [45]: "1986-05-17T22:00:13Z" (516751213) transition_time 0xe0-0xe4 (4)
0x0e0|            1f 60 99 5d                        |    .`.]        |      [46]: "1986-09-06T21:00:13Z" (526424413) transition_time 0xe4-0xe8 (4)
0x0e0|                        20 82 b1 6d            |         ..m    |      [47]: "1987-04-14T22:00:13Z" (545436013) transition_time 0xe8-0xec (4)
0x0e0|                                    21 49 b5 dd|            !I..|      [48]: "1987-09-12T21:00:13Z" (558478813) transition_time 0xec-0xf0 (4)
0x0f0|22 5e 9e ee                                    |"^..            |      [49]: "1988-04-09T22:00:14Z" (576626414) transition_time 0xf0-0xf4 (4)
0x0f0|            23 20 5d 5e                        |    # ]^        |      [50]: "1988-09-03T21:00:14Z" (589323614) transition_time 0xf4-0xf8 (4)
0x0f0|                        24 5a 30 6e            |        $Z0n    |      [51]: "1989-04-29T22:00:14Z" (609890414) transition_time 0xf8-0xfc (4)
0x0f0|                                    25 00 3f 5e|            %.?^|      [52]: "1989-09-02T21:00:14Z" (620773214) transition_time 0xfc-0x100 (4)
0x100|26 0b ed ef                                    |&...            |      [53]: "1990-03-24T22:00:15Z" (638316015) transition_time 0x100-0x104 (4)
0x100|            26 d6 e6 df                        |    &...        |      [54]: "1990-08-25T21:00:15Z" (651618015) transition_time 0x104-0x108 (4)
0x100|                        27 eb cf f0            |        '...    |      [55]: "1991-03-23T22:00:16Z" (669765616) transition_time 0x108-0x10c (4)
0x100|                                    28 c0 03 60|            (..`|      [56]: "1991-08-31T21:00:16Z" (683672416) transition_time 0x10c-0x110 (4)
0x110|29 d4 ec 70                                    |)..p            |      [57]: "1992-03-28T22:00:16Z" (701820016) transition_time 0x110-0x114 (4)
0x110|            2a a9 1f e1                        |    *...        |      [58]: "1992-09-05T21:00:17Z" (715726817) transition_time 0x114-0x118 (4)
0x110|                        2b bb 65 f1            |        +.e.    |      [59]: "1993-04-01T22:00:17Z" (733701617) transition_time 0x118-0x11c (4)
0x110|                                    2c 89 01 e2|            ,...|      [60]: "1993-09-04T21:00:18Z" (747176418) transition_time 0x11c-0x120 (4)
0x120|2d 9b 47 f2                                    |-.G.            |      [61]: "1994-03-31T22:00:18Z" (765151218) transition_time 0x120-0x124 (4)
0x120|            2e 5f a9 63                        |    ._.c        |      [62]: "1994-08-27T21:00:19Z" (778021219) transition_time 0x124-0x128 (4)
0x120|                        2f 7b 29 f3            |        /{).    |      [63]: "1995-03-30T22:00:19Z" (796600819) transition_time 0x128-0x12c (4)
0x120|                                    30 48 c5 e3|            0H..|      [64]: "1995-09-02T21:00:19Z" (810075619) transition_time 0x12c-0x130 (4)
0x130|31 48 96 f4                                    |1H..            |      [65]: "1996-03-14T22:00:20Z" (826840820) transition_time 0x130-0x134 (4)
0x130|            32 3c 6e 64                        |    2<nd        |      [66]: "1996-09-15T21:00:20Z" (842821220) transition_time 0x134-0x138 (4)
0x130|                        33 31 b3 74            |        31.t    |      [67]: "1997-03-20T22:00:20Z" (858895220) transition_time 0x138-0x13c (4)
0x130|                                    34 1a fe e5|            4...|      [68]: "1997-09-13T21:00:21Z" (874184421) transition_time 0x13c-0x140 (4)
0x140|35 11 95 75                                    |5..u            |      [69]: "1998-03-19T22:00:21Z" (890344821) transition_time 0x140-0x144 (4)
0x140|            35 f1 a6 65                        |    5..e        |      [70]: "1998-09-05T21:00:21Z" (905029221) transition_time 0x144-0x148 (4)
0x140|                        37 04 08 96            |        7...    |      [71]: "1999-04-02T00:00:22Z" (923011222) transition_time 0x148-0x14c (4)
0x140|                                    37 cf 01 86|            7...|      [72]: "1999-09-02T23:00:22Z" (936313222) transition_time 0x14c-0x150 (4)
0x150|38 f6 5f 96                                    |8._.            |      [73]: "2000-04-14T00:00:22Z" (955670422) transition_time 0x150-0x154 (4)
0x150|            39 dc f9 f6                        |    9...        |      [74]: "2000-10-05T22:00:22Z" (970783222) transition_time 0x154-0x158 (4)
0x150|                        3a d0 ed 86            |        :...    |      [75]: "2001-04-08T23:00:22Z" (986770822) transition_time 0x158-0x15c (4)
0x150|                                    3b ae 5b 76|            ;.[v|      [76]: "2001-09-23T22:00:22Z" (1001282422) transition_time 0x15c-0x160 (4)
0x160|3c a3 a0 86                                    |<...            |      [77]: "2002-03-28T23:00:22Z" (1017356422) transition_time 0x160-0x164 (4)
0x160|            3d a0 b2 76                        |    =..v        |      [78]: "2002-10-06T22:00:22Z" (1033941622) transition_time 0x164-0x168 (4)
0x160|                        3e 83 82 86            |        >...    |      [79]: "2003-03-27T23:00:22Z" (1048806022) transition_time 0x168-0x16c (4)
0x160|                                    3f 7c 9f f6|            ?|..|      [80]: "2003-10-02T22:00:22Z" (1065132022) transition_time 0x16c-0x170 (4)
0x170|40 73 36 86                                    |@s6.            |      [81]: "2004-04-06T23:00:22Z" (1081292422) transition_time 0x170-0x174 (4)
0x170|            41 50 a4 76                        |    AP.v        |      [82]: "2004-09-21T22:00:22Z" (1095804022) transition_time 0x174-0x178 (4)
0x170|                        42 4c 8f 16            |        BL..    |      [83]: "2005-04-01T00:00:22Z" (1112313622) transition_time 0x178-0x17c (4)
0x170|                                    43 48 4f 86|            CHO.|      [84]: "2005-10-08T23:00:22Z" (1128812422) transition_time 0x17c-0x180 (4)
0x180|44 2c 71 17                                    |D,q.            |      [85]: "2006-03-31T00:00:23Z" (1143763223) transition_time 0x180-0x184 (4)
0x180|            45 1e f7 07                        |    E...        |      [86]: "2006-09-30T23:00:23Z" (1159657223) transition_time 0x184-0x188 (4)
0x180|                        46 0c 53 17            |        F.S.    |      [87]: "2007-03-30T00:00:23Z" (1175212823) transition_time 0x188-0x18c (4)
0x180|                                    46 ec 64 07|            F.d.|      [88]: "2007-09-15T23:00:23Z" (1189897223) transition_time 0x18c-0x190 (4)
0x190|47 ec 35 17                                    |G.5.            |      [89]: "2008-03-28T00:00:23Z" (1206662423) transition_time 0x190-0x194 (4)
0x190|            48 e7 f5 87                        |    H...        |      [90]: "2008-10-04T23:00:23Z" (1223161223) transition_time 0x194-0x198 (4)
0x190|                        49 cc 17 18            |        I...    |      [91]: "2009-03-27T00:00:24Z" (1238112024) transition_time 0x198-0x19c (4)
0x190|                                    4a be 9d 08|            J...|      [92]: "2009-09-26T23:00:24Z" (1254006024) transition_time 0x19c-0x1a0 (4)
0x1a0|4b ab f9 18                                    |K...            |      [93]: "2010-03-26T00:00:24Z" (1269561624) transition_time 0x1a0-0x1a4 (4)
0x1a0|            4c 8c 0a 08                        |    L...        |      [94]: "2010-09-11T23:00:24Z" (1284246024) transition_time 0x1a4-0x1a8 (4)
0x1a0|                        4d 95 15 98            |        M...    |      [95]: "2011-04-01T00:00:24Z" (1301616024) transition_time 0x1a8-0x1ac (4)
0x1a0|                                    4e 87 9b 88|            N...|      [96]: "2011-10-01T23:00:24Z" (1317510024) transition_time 0x1ac-0x1b0 (4)
0x1b0|4f 74 f7 98                                    |Ot..            |      [97]: "2012-03-30T00:00:24Z" (1333065624) transition_time 0x1b0-0x1b4 (4)
0x1b0|            50 5e 43 09                        |    P^C.        |      [98]: "2012-09-22T23:00:25Z" (1348354825) transition_time 0x1b4-0x1b8 (4)
0x1b0|                        51 54 d9 99            |        QT..    |      [99]: "2013-03-29T00:00:25Z" (1364515225) transition_time 0x1b8-0x1bc (4)
0x1b0|                                    52 6c 49 89|            RlI.|      [100]: "2013-10-26T23:00:25Z" (1382828425) transition_time 0x1bc-0x1c0 (4)
0x1c0|53 34 bb 99                                    |S4..            |      [101]: "2014-03-28T00:00:25Z" (1395964825) transition_time 0x1c0-0x1c4 (4)
0x1c0|            54 4c 2b 89                        |    TL+.        |      [102]: "2014-10-25T23:00:25Z" (1414278025) transition_time 0x1c4-0x1c8 (4)
0x1c0|                        55 14 9d 99            |        U...    |      [103]: "2015-03-27T00:00:25Z" (1427414425) transition_time 0x1c8-0x1cc (4)
0x1c0|                                    56 2c 0d 8a|            V,..|      [104]: "2015-10-24T23:00:26Z" (1445727626) transition_time 0x1cc-0x1d0 (4)
0x1d0|56 f4 7f 9a                                    |V...            |      [105]: "2016-03-25T00:00:26Z" (1458864026) transition_time 0x1d0-0x1d4 (4)
0x1d0|            58 15 2a 0a                        |    X.*.        |      [106]: "2016-10-29T23:00:26Z" (1477782026) transition_time 0x1d4-0x1d8 (4)
0x1d0|                        58 d4 61 9b            |        X.a.    |      [107]: "2017-03-24T00:00:27Z" (1490313627) transition_time 0x1d8-0x1dc (4)
0x1d0|                                    59 f5 0c 0b|            Y...|      [108]: "2017-10-28T23:00:27Z" (1509231627) transition_time 0x1dc-0x1e0 (4)
0x1e0|5a b4 43 9b                                    |Z.C.            |      [109]: "2018-03-23T00:00:27Z" (1521763227) transition_time 0x1e0-0x1e4 (4)
0x1e0|            5b d4 ee 0b                        |    [...        |      [110]: "2018-10-27T23:00:27Z" (1540681227) transition_time 0x1e4-0x1e8 (4)
0x1e0|                        5c 9d 60 1b            |        \.`.    |      [111]: "2019-03-29T00:00:27Z" (1553817627) transition_time 0x1e8-0x1ec (4)
0x1e0|                                    5d b4 d0 0b|            ]...|      [112]: "2019-10-26T23:00:27Z" (1572130827) transition_time 0x1ec-0x1f0 (4)
0x1f0|5e 7d 42 1b                                    |^}B.            |      [113]: "2020-03-27T00:00:27Z" (1585267227) transition_time 0x1f0-0x1f4 (4)
0x1f0|            5f 94 b2 0b                        |    _...        |      [114]: "2020-10-24T23:00:27Z" (1603580427) transition_time 0x1f4-0x1f8 (4)
0x1f0|                        60 5d 24 1b            |        `]$.    |      [115]: "2021-03-26T00:00:27Z" (1616716827) transition_time 0x1f8-0x1fc (4)
0x1f0|                                    61 7d ce 8b|            a}..|      [116]: "2021-10-30T23:00:27Z" (1635634827) transition_time 0x1fc-0x200 (4)
0x200|62 3d 06 1b                                    |b=..            |      [117]: "2022-03-25T00:00:27Z" (1648166427) transition_time 0x200-0x204 (4)
0x200|            63 5d b0 8b                        |    c]..        |      [118]: "2022-10-29T23:00:27Z" (1667084427) transition_time 0x204-0x208 (4)
0x200|                        64 1c e8 1b            |        d...    |      [119]: "2023-03-24T00:00:27Z" (1679616027) transition_time 0x208-0x20c (4)
0x200|                                    64 9b 78 1b|            d.x.|      [120]: "2023-06-28T00:00:27Z" (1687910427) transition_time 0x20c-0x210 (4)
     |                                               |                |    transition_types[0:121]: 0x210-0x289 (121)
0x210|01                                             |.               |      [0]: 1 transition_type 0x210-0x211 (1)
0x210|   06                                          | .              |      [1]: 6 transition_type 0x211-0x212 (1)
0x210|      02                                       |  .             |      [2]: 2 transition_type 0x212-0x213 (1)
0x210|         03                                    |   .            |      [3]: 3 transition_type 0x213-0x214 (1)
0x210|            02                                 |    .           |      [4]: 2 transition_type 0x214-0x215 (1)
0x210|               03                              |     .          |      [5]: 3 transition_type 0x215-0x216 (1)
0x210|                  02                           |      .         |      [6]: 2 transition_type 0x216-0x217 (1)
0x210|                     03                        |       .        |      [7]: 3 transition_type 0x217-0x218 (1)
0x210|                        02                     |        .       |      [8]: 2 transition_type 0x218-0x219 (1)
0x210|                           03                  |         .      |      [9]: 3 transition_type 0x219-0x21a (1)
0x210|                              02               |          .     |      [10]: 2 transition_type 0x21a-0x21b (1)
0x210|                                 03            |           .    |      [11]: 3 transition_type 0x21b-0x21c (1)
0x210|                                    02         |            .   |      [12]: 2 transition_type 0x21c-0x21d (1)
0x210|                                       03      |             .  |      [13]: 3 transition_type 0x21d-0x21e (1)
0x210|                                          04   |              . |      [14]: 4 transition_type 0x21e-0x21f (1)
0x210|                                             02|               .|      [15]: 2 transition_type 0x21f-0x220 (1)
0x220|03                                             |.               |      [16]: 3 transition_type 0x220-0x221 (1)
0x220|   02                                          | .              |      [17]: 2 transition_type 0x221-0x222 (1)
0x220|      03                                       |  .             |      [18]: 3 transition_type 0x222-0x223 (1)
0x220|         02                                    |   .            |      [19]: 2 transition_type 0x223-0x224 (1)
0x220|            03                                 |    .           |      [20]: 3 transition_type 0x224-0x225 (1)
0x220|               02                              |     .          |      [21]: 2 transition_type 0x225-0x226 (1)
0x220|                  03                           |      .         |      [22]: 3 transition_type 0x226-0x227 (1)
0x220|                     02                        |       .        |      [23]: 2 transition_type 0x227-0x228 (1)
0x220|                        03                     |        .       |      [24]: 3 transition_type 0x228-0x229 (1)
0x220|                           02                  |         .      |      [25]: 2 transition_type 0x229-0x22a (1)
0x220|                              03               |          .     |      [26]: 3 transition_type 0x22a-0x22b (1)
0x220|                                 02            |           .    |      [27]: 2 transition_type 0x22b-0x22c (1)
0x220|                                    03         |            .   |      [28]: 3 transition_type 0x22c-0x22d (1)
0x220|                                       02      |             .  |      [29]: 2 transition_type 0x22d-0x22e (1)
0x220|                                          03   |              . |      [30]: 3 transition_type 0x22e-0x22f (1)
0x220|                                             02|               .|      [31]: 2 transition_type 0x22f-0x230 (1)
0x230|03                                             |.               |      [32]: 3 transition_type 0x230-0x231 (1)
0x230|   02                                          | .              |      [33]: 2 transition_type 0x231-0x232 (1)
0x230|      03                                       |  .             |      [34]: 3 transition_type 0x232-0x233 (1)
0x230|         05                                    |   .            |      [35]: 5 transition_type 0x233-0x234 (1)
0x230|            06                                 |    .           |      [36]: 6 transition_type 0x234-0x235 (1)
0x230|               05                              |     .          |      [37]: 5 transition_type 0x235-0x236 (1)
0x230|                  06                           |      .         |      [38]: 6 transition_type 0x236-0x237 (1)
0x230|                     07                        |       .        |      [39]: 7 transition_type 0x237-0x238 (1)
0x230|                        08                     |        .       |      [40]: 8 transition_type 0x238-0x239 (1)
0x230|                           07                  |         .      |      [41]: 7 transition_type 0x239-0x23a (1)
0x230|                              08               |          .     |      [42]: 8 transition_type 0x23a-0x23b (1)
0x230|                                 05            |           .    |      [43]: 5 transition_type 0x23b-0x23c (1)
0x230|                                    06         |            .   |      [44]: 6 transition_type 0x23c-0x23d (1)
0x230|                                       05      |             .  |      [45]: 5 transition_type 0x23d-0x23e (1)
0x230|                                          06   |              . |      [46]: 6 transition_type 0x23e-0x23f (1)
0x230|                                             05|               .|      [47]: 5 transition_type 0x23f-0x240 (1)
0x240|06                                             |.               |      [48]: 6 transition_type 0x240-0x241 (1)
0x240|   05                                          | .              |      [49]: 5 transition_type 0x241-0x242 (1)
0x240|      06                                       |  .             |      [50]: 6 transition_type 0x242-0x243 (1)
0x240|         05                                    |   .            |      [51]: 5 transition_type 0x243-0x244 (1)
0x240|            06                                 |    .           |      [52]: 6 transition_type 0x244-0x245 (1)
0x240|               05                              |     .          |      [53]: 5 transition_type 0x245-0x246 (1)
0x240|                  06                           |      .         |      [54]: 6 transition_type 0x246-0x247 (1)
0x240|                     05                        |       .        |      [55]: 5 transition_type 0x247-0x248 (1)
0x240|                        06                     |        .       |      [56]: 6 transition_type 0x248-0x249 (1)
0x240|                           05                  |         .      |      [57]: 5 transition_type 0x249-0x24a (1)
0x240|                              06               |          .     |      [58]: 6 transition_type 0x24a-0x24b (1)
0x240|                                 05            |           .    |      [59]: 5 transition_type 0x24b-0x24c (1)
0x240|                                    06         |            .   |      [60]: 6 transition_type 0x24c-0x24d (1)
0x240|                                       05      |             .  |      [61]: 5 transition_type 0x24d-0x24e (1)
0x240|                                          06   |              . |      [62]: 6 transition_type 0x24e-0x24f (1)
0x240|                                             05|               .|      [63]: 5 transition_type 0x24f-0x250 (1)
0x250|06                                             |.               |      [64]: 6 transition_type 0x250-0x251 (1)
0x250|   05                                          | .              |      [65]: 5 transition_type 0x251-0x252 (1)
0x250|      06                                       |  .             |      [66]: 6 transition_type 0x252-0x253 (1)
0x250|         05                                    |   .            |      [67]: 5 transition_type 0x253-0x254 (1)
0x250|            06                                 |    .           |      [68]: 6 transition_type 0x254-0x255 (1)
0x250|               05                              |     .          |      [69]: 5 transition_type 0x255-0x256 (1)
0x250|                  06                           |      .         |      [70]: 6 transition_type 0x256-0x257 (1)
0x250|                     05                        |       .        |      [71]: 5 transition_type 0x257-0x258 (1)
0x250|                        06                     |        .       |      [72]: 6 transition_type 0x258-0x259 (1)
0x250|                           05                  |         .      |      [73]: 5 transition_type 0x259-0x25a (1)
0x250|                              06               |          .     |      [74]: 6 transition_type 0x25a-0x25b (1)
0x250|                                 05            |           .    |      [75]: 5 transition_type 0x25b-0x25c (1)
0x250|                                    06         |            .   |      [76]: 6 transition_type 0x25c-0x25d (1)
0x250|                                       05      |             .  |      [77]: 5 transition_type 0x25d-0x25e (1)
0x250|                                          06   |              . |      [78]: 6 transition_type 0x25e-0x25f (1)
0x250|                                             05|               .|      [79]: 5 transition_type 0x25f-0x260 (1)
0x260|06                                             |.               |      [80]: 6 transition_type 0x260-0x261 (1)
0x260|   05                                          | .              |      [81]: 5 transition_type 0x261-0x262 (1)
0x260|      06                                       |  .             |      [82]: 6 transition_type 0x262-0x263 (1)
0x260|         05                                    |   .            |      [83]: 5 transition_type 0x263-0x264 (1)
0x260|            06                                 |    .           |      [84]: 6 transition_type 0x264-0x265 (1)
0x260|               05                              |     .          |      [85]: 5 transition_type 0x265-0x266 (1)
0x260|                  06                           |      .         |      [86]: 6 transition_type 0x266-0x267 (1)
0x260|                     05                        |       .        |      [87]: 5 transition_type 0x267-0x268 (1)
0x260|                        06                     |        .       |      [88]: 6 transition_type 0x268-0x269 (1)
0x260|                           05                  |         .      |      [89]: 5 transition_type 0x269-0x26a (1)
0x260|                              06               |          .     |      [90]: 6 transition_type 0x26a-0x26b (1)
0x260|                                 05            |           .    |      [91]: 5 transition_type 0x26b-0x26c (1)
0x260|                                    06         |            .   |      [92]: 6 transition_type 0x26c-0x26d (1)
0x260|                                       05      |             .  |      [93]: 5 transition_type 0x26d-0x26e (1)
0x260|                                          06   |              . |      [94]: 6 transition_type 0x26e-0x26f (1)
0x260|                                             05|               .|      [95]: 5 transition_type 0x26f-0x270 (1)
0x270|06                                             |.               |      [96]: 6 transition_type 0x270-0x271 (1)
0x270|   05                                          | .              |      [97]: 5 transition_type 0x271-0x272 (1)
0x270|      06                                       |  .             |      [98]: 6 transition_type 0x272-0x273 (1)
0x270|         05                                    |   .            |      [99]: 5 transition_type 0x273-0x274 (1)
0x270|            06                                 |    .           |      [100]: 6 transition_type 0x274-0x275 (1)
0x270|               05                              |     .          |      [101]: 5 transition_type 0x275-0x276 (1)
0x270|                  06                           |      .         |      [102]: 6 transition_type 0x276-0x277 (1)
0x270|                     05                        |       .        |      [103]: 5 transition_type 0x277-0x278 (1)
0x270|                        06                     |        .       |      [104]: 6 transition_type 0x278-0x279 (1)
0x270|                           05                  |         .      |      [105]: 5 transition_type 0x279-0x27a (1)
0x270|                              06               |          .     |      [106]: 6 transition_type 0x27a-0x27b (1)
0x270|                                 05            |           .    |      [107]: 5 transition_type 0x27b-0x27c (1)
0x270|                                    06         |            .   |      [108]: 6 transition_type 0x27c-0x27d (1)
0x270|                                       05      |             .  |      [109]: 5 transition_type 0x27d-0x27e (1)
0x270|                                          06   |              . |      [110]: 6 transition_type 0x27e-0x27f (1)
0x270|                                             05|               .|      [111]: 5 transition_type 0x27f-0x280 (1)
0x280|06                                             |.               |      [112]: 6 transition_type 0x280-0x281 (1)
0x280|   05                                          | .              |      [113]: 5 transition_type 0x281-0x282 (1)
0x280|      06                                       |  .             |      [114]: 6 transition_type 0x282-0x283 (1)
0x280|         05                                    |   .            |      [115]: 5 transition_type 0x283-0x284 (1)
0x280|            06                                 |    .           |      [116]: 6 transition_type 0x284-0x285 (1)
0x280|               05                              |     .          |      [117]: 5 transition_type 0x285-0x286 (1)
0x280|                  06                           |      .         |      [118]: 6 transition_type 0x286-0x287 (1)
0x280|                     05                        |       .        |      [119]: 5 transition_type 0x287-0x288 (1)
0x280|                        05                     |        .       |      [120]: 5 transition_type 0x288-0x289 (1)
     |                                               |                |    local_time_type_records[0:9]: 0x289-0x2bf (54)
     |                                               |                |      [0]{}: local_time_type 0x289-0x28f (6)
0x280|                           00 00 21 06         |         ..!.   |        utoff: 8454 (valid) 0x289-0x28d (4)
0x280|                                       00      |             .  |        dst: 0 (valid) 0x28d-0x28e (1)
0x280|                                          00   |              . |        idx: 0 (valid) 0x28e-0x28f (1)
     |                                               |                |      [1]{}: local_time_type 0x28f-0x295 (6)
0x280|                                             00|               .|        utoff: 8440 (valid) 0x28f-0x293 (4)
0x290|00 20 f8                                       |. .             |
0x290|         00                                    |   .            |        dst: 0 (valid) 0x293-0x294 (1)
0x290|            04                                 |    .           |        idx: 4 (valid) 0x294-0x295 (1)
     |                                               |                |      [2]{}: local_time_type 0x295-0x29b (6)
0x290|               00 00 2a 30                     |     ..*0       |        utoff: 10800 (valid) 0x295-0x299 (4)
0x290|                           01                  |         .      |        dst: 1 (valid) 0x299-0x29a (1)
0x290|                              08               |          .     |        idx: 8 (valid) 0x29a-0x29b (1)
     |                                               |                |      [3]{}: local_time_type 0x29b-0x2a1 (6)
0x290|                                 00 00 1c 20   |           ...  |        utoff: 7200 (valid) 0x29b-0x29f (4)
0x290|                                             00|               .|        dst: 0 (valid) 0x29f-0x2a0 (1)
0x2a0|0c                                             |.               |        idx: 12 (valid) 0x2a0-0x2a1 (1)
     |                                               |                |      [4]{}: local_time_type 0x2a1-0x2a7 (6)
0x2a0|   00 00 38 40                                 | ..8@           |        utoff: 14400 (valid) 0x2a1-0x2a5 (4)
0x2a0|               01                              |     .          |        dst: 1 (valid) 0x2a5-0x2a6 (1)
0x2a0|                  10                           |      .         |        idx: 16 (valid) 0x2a6-0x2a7 (1)
     |                                               |                |      [5]{}: local_time_type 0x2a7-0x2ad (6)
0x2a0|                     00 00 2a 30               |       ..*0     |        utoff: 10800 (valid) 0x2a7-0x2ab (4)
0x2a0|                                 01            |           .    |        dst: 1 (valid) 0x2ab-0x2ac (1)
0x2a0|                                    08         |            .   |        idx: 8 (valid) 0x2ac-0x2ad (1)
     |                                               |                |      [6]{}: local_time_type 0x2ad-0x2b3 (6)
0x2a0|                                       00 00 1c|             ...|        utoff: 7200 (valid) 0x2ad-0x2b1 (4)
0x2b0|20                                             |                |
0x2b0|   00                                          | .              |        dst: 0 (valid) 0x2b1-0x2b2 (1)
0x2b0|      0c                                       |  .             |        idx: 12 (valid) 0x2b2-0x2b3 (1)
     |                                               |                |      [7]{}: local_time_type 0x2b3-0x2b9 (6)
0x2b0|         00 00 2a 30                           |   ..*0         |        utoff: 10800 (valid) 0x2b3-0x2b7 (4)
0x2b0|                     01                        |       .        |        dst: 1 (valid) 0x2b7-0x2b8 (1)
0x2b0|                        08                     |        .       |        idx: 8 (valid) 0x2b8-0x2b9 (1)
     |                                               |                |      [8]{}: local_time_type 0x2b9-0x2bf (6)
0x2b0|                           00 00 1c 20         |         ...    |        utoff: 7200 (valid) 0x2b9-0x2bd (4)
0x2b0|                                       00      |             .  |        dst: 0 (valid) 0x2bd-0x2be (1)
0x2b0|                                          0c   |              . |        idx: 12 (valid) 0x2be-0x2bf (1)
     |                                               |                |    time_zone_designations[0:5]: 0x2bf-0x2d4 (21)
0x2b0|                                             4c|               L|      [0]: "LMT" time_zone_designation 0x2bf-0x2c3 (4)
0x2c0|4d 54 00                                       |MT.             |
0x2c0|         4a 4d 54 00                           |   JMT.         |      [1]: "JMT" time_zone_designation 0x2c3-0x2c7 (4)
0x2c0|                     49 44 54 00               |       IDT.     |      [2]: "IDT" time_zone_designation 0x2c7-0x2cb (4)
0x2c0|                                 49 53 54 00   |           IST. |      [3]: "IST" time_zone_designation 0x2cb-0x2cf (4)
0x2c0|                                             49|               I|      [4]: "IDDT" time_zone_designation 0x2cf-0x2d4 (5)
0x2d0|44 44 54 00                                    |DDT.            |
     |                                               |                |    leap_second_records[0:27]: 0x2d4-0x3ac (216)
     |                                               |                |      [0]{}: leap_second_record 0x2d4-0x2dc (8)
0x2d0|            04 b2 58 00                        |    ..X.        |        occur: "1972-07-01T00:00:00Z" (78796800) 0x2d4-0x2d8 (4)
0x2d0|                        00 00 00 01            |        ....    |        corr: 1 0x2d8-0x2dc (4)
     |                                               |                |      [1]{}: leap_second_record 0x2dc-0x2e4 (8)
0x2d0|                                    05 a4 ec 01|            ....|        occur: "1973-01-01T00:00:01Z" (94694401) 0x2dc-0x2e0 (4)
0x2e0|00 00 00 02                                    |....            |        corr: 2 0x2e0-0x2e4 (4)
     |                                               |                |      [2]{}: leap_second_record 0x2e4-0x2ec (8)
0x2e0|            07 86 1f 82                        |    ....        |        occur: "1974-01-01T00:00:02Z" (126230402) 0x2e4-0x2e8 (4)
0x2e0|                        00 00 00 03            |        ....    |        corr: 3 0x2e8-0x2ec (4)
     |                                               |                |      [3]{}: leap_second_record 0x2ec-0x2f4 (8)
0x2e0|                                    09 67 53 03|            .gS.|        occur: "1975-01-01T00:00:03Z" (157766403) 0x2ec-0x2f0 (4)
0x2f0|00 00 00 04                                    |....            |        corr: 4 0x2f0-0x2f4 (4)
     |                                               |                |      [4]{}: leap_second_record 0x2f4-0x2fc (8)
0x2f0|            0b 48 86 84                        |    .H..        |        occur: "1976-01-01T00:00:04Z" (189302404) 0x2f4-0x2f8 (4)
0x2f0|                        00 00 00 05            |        ....    |        corr: 5 0x2f8-0x2fc (4)
     |                                               |                |      [5]{}: leap_second_record 0x2fc-0x304 (8)
0x2f0|                                    0d 2b 0b 85|            .+..|        occur: "1977-01-01T00:00:05Z" (220924805) 0x2fc-0x300 (4)
0x300|00 00 00 06                                    |....            |        corr: 6 0x300-0x304 (4)
     |                                               |                |      [6]{}: leap_second_record 0x304-0x30c (8)
0x300|            0f 0c 3f 06                        |    ..?.        |        occur: "1978-01-01T00:00:06Z" (252460806) 0x304-0x308 (4)
0x300|                        00 00 00 07            |        ....    |        corr: 7 0x308-0x30c (4)
     |                                               |                |      [7]{}: leap_second_record 0x30c-0x314 (8)
0x300|                                    10 ed 72 87|            ..r.|        occur: "1979-01-01T00:00:07Z" (283996807) 0x30c-0x310 (4)
0x310|00 00 00 08                                    |....            |        corr: 8 0x310-0x314 (4)
     |                                               |                |      [8]{}: leap_second_record 0x314-0x31c (8)
0x310|            12 ce a6 08                        |    ....        |        occur: "1980-01-01T00:00:08Z" (315532808) 0x314-0x318 (4)
0x310|                        00 00 00 09            |        ....    |        corr: 9 0x318-0x31c (4)
     |                                               |                |      [9]{}: leap_second_record 0x31c-0x324 (8)
0x310|                                    15 9f ca 89|            ....|        occur: "1981-07-01T00:00:09Z" (362793609) 0x31c-0x320 (4)
0x320|00 00 00 0a                                    |....            |        corr: 10 0x320-0x324 (4)
     |                                               |                |      [10]{}: leap_second_record 0x324-0x32c (8)
0x320|            17 80 fe 0a                        |    ....        |        occur: "1982-07-01T00:00:10Z" (394329610) 0x324-0x328 (4)
0x320|                        00 00 00 0b            |        ....    |        corr: 11 0x328-0x32c (4)
     |                                               |                |      [11]{}: leap_second_record 0x32c-0x334 (8)
0x320|                                    19 62 31 8b|            .b1.|        occur: "1983-07-01T00:00:11Z" (425865611) 0x32c-0x330 (4)
0x330|00 00 00 0c                                    |....            |        corr: 12 0x330-0x334 (4)
     |                                               |                |      [12]{}: leap_second_record 0x334-0x33c (8)
0x330|            1d 25 ea 0c                        |    .%..        |        occur: "1985-07-01T00:00:12Z" (489024012) 0x334-0x338 (4)
0x330|                        00 00 00 0d            |        ....    |        corr: 13 0x338-0x33c (4)
     |                                               |                |      [13]{}: leap_second_record 0x33c-0x344 (8)
0x330|                                    21 da e5 0d|            !...|        occur: "1988-01-01T00:00:13Z" (567993613) 0x33c-0x340 (4)
0x340|00 00 00 0e                                    |....            |        corr: 14 0x340-0x344 (4)
     |                                               |                |      [14]{}: leap_second_record 0x344-0x34c (8)
0x340|            25 9e 9d 8e                        |    %...        |        occur: "1990-01-01T00:00:14Z" (631152014) 0x344-0x348 (4)
0x340|                        00 00 00 0f            |        ....    |        corr: 15 0x348-0x34c (4)
     |                                               |                |      [15]{}: leap_second_record 0x34c-0x354 (8)
0x340|                                    27 7f d1 0f|            '...|        occur: "1991-01-01T00:00:15Z" (662688015) 0x34c-0x350 (4)
0x350|00 00 00 10                                    |....            |        corr: 16 0x350-0x354 (4)
     |                                               |                |      [16]{}: leap_second_record 0x354-0x35c (8)
0x350|            2a 50 f5 90                        |    *P..        |        occur: "1992-07-01T00:00:16Z" (709948816) 0x354-0x358 (4)
0x350|                        00 00 00 11            |        ....    |        corr: 17 0x358-0x35c (4)
     |                                               |                |      [17]{}: leap_second_record 0x35c-0x364 (8)
0x350|                                    2c 32 29 11|            ,2).|        occur: "1993-07-01T00:00:17Z" (741484817) 0x35c-0x360 (4)
0x360|00 00 00 12                                    |....            |        corr: 18 0x360-0x364 (4)
     |                                               |                |      [18]{}: leap_second_record 0x364-0x36c (8)
0x360|            2e 13 5c 92                        |    ..\.        |        occur: "1994-07-01T00:00:18Z" (773020818) 0x364-0x368 (4)
0x360|                        00 00 00 13            |        ....    |        corr: 19 0x368-0x36c (4)
     |                                               |                |      [19]{}: leap_second_record 0x36c-0x374 (8)
0x360|                                    30 e7 24 13|            0.$.|        occur: "1996-01-01T00:00:19Z" (820454419) 0x36c-0x370 (4)
0x370|00 00 00 14                                    |....            |        corr: 20 0x370-0x374 (4)
     |                                               |                |      [20]{}: leap_second_record 0x374-0x37c (8)
0x370|            33 b8 48 94                        |    3.H.        |        occur: "1997-07-01T00:00:20Z" (867715220) 0x374-0x378 (4)
0x370|                        00 00 00 15            |        ....    |        corr: 21 0x378-0x37c (4)
     |                                               |                |      [21]{}: leap_second_record 0x37c-0x384 (8)
0x370|                                    36 8c 10 15|            6...|        occur: "1999-01-01T00:00:21Z" (915148821) 0x37c-0x380 (4)
0x380|00 00 00 16                                    |....            |        corr: 22 0x380-0x384 (4)
     |                                               |                |      [22]{}: leap_second_record 0x384-0x38c (8)
0x380|            43 b7 1b 96                        |    C...        |        occur: "2006-01-01T00:00:22Z" (1136073622) 0x384-0x388 (4)
0x380|                        00 00 00 17            |        ....    |        corr: 23 0x388-0x38c (4)
     |                                               |                |      [23]{}: leap_second_record 0x38c-0x394 (8)
0x380|                                    49 5c 07 97|            I\..|        occur: "2009-01-01T00:00:23Z" (1230768023) 0x38c-0x390 (4)
0x390|00 00 00 18                                    |....            |        corr: 24 0x390-0x394 (4)
     |                                               |                |      [24]{}: leap_second_record 0x394-0x39c (8)
0x390|            4f ef 93 18                        |    O...        |        occur: "2012-07-01T00:00:24Z" (1341100824) 0x394-0x398 (4)
0x390|                        00 00 00 19            |        ....    |        corr: 25 0x398-0x39c (4)
     |                                               |                |      [25]{}: leap_second_record 0x39c-0x3a4 (8)
0x390|                                    55 93 2d 99|            U.-.|        occur: "2015-07-01T00:00:25Z" (1435708825) 0x39c-0x3a0 (4)
0x3a0|00 00 00 1a                                    |....            |        corr: 26 0x3a0-0x3a4 (4)
     |                                               |                |      [26]{}: leap_second_record 0x3a4-0x3ac (8)
0x3a0|            58 68 46 9a                        |    XhF.        |        occur: "2017-01-01T00:00:26Z" (1483228826) 0x3a4-0x3a8 (4)
0x3a0|                        00 00 00 1b            |        ....    |        corr: 27 0x3a8-0x3ac (4)
     |                                               |                |    standard_wall_indicators[0:9]: 0x3ac-0x3b5 (9)
0x3a0|                                    00         |            .   |      [0]: 0 standard_wall_indicator (valid) 0x3ac-0x3ad (1)
0x3a0|                                       00      |             .  |      [1]: 0 standard_wall_indicator (valid) 0x3ad-0x3ae (1)
0x3a0|                                          01   |              . |      [2]: 1 standard_wall_indicator (valid) 0x3ae-0x3af (1)
0x3a0|                                             01|               .|      [3]: 1 standard_wall_indicator (valid) 0x3af-0x3b0 (1)
0x3b0|01                                             |.               |      [4]: 1 standard_wall_indicator (valid) 0x3b0-0x3b1 (1)
0x3b0|   00                                          | .              |      [5]: 0 standard_wall_indicator (valid) 0x3b1-0x3b2 (1)
0x3b0|      00                                       |  .             |      [6]: 0 standard_wall_indicator (valid) 0x3b2-0x3b3 (1)
0x3b0|         01                                    |   .            |      [7]: 1 standard_wall_indicator (valid) 0x3b3-0x3b4 (1)
0x3b0|            01                                 |    .           |      [8]: 1 standard_wall_indicator (valid) 0x3b4-0x3b5 (1)
     |                                               |                |    ut_local_indicators[0:9]: 0x3b5-0x3be (9)
0x3b0|               00                              |     .          |      [0]: 0 ut_local_indicator (valid) 0x3b5-0x3b6 (1)
0x3b0|                  00                           |      .         |      [1]: 0 ut_local_indicator (valid) 0x3b6-0x3b7 (1)
0x3b0|                     01                        |       .        |      [2]: 1 ut_local_indicator (valid) 0x3b7-0x3b8 (1)
0x3b0|                        01                     |        .       |      [3]: 1 ut_local_indicator (valid) 0x3b8-0x3b9 (1)
0x3b0|                           01                  |         .      |      [4]: 1 ut_local_indicator (valid) 0x3b9-0x3ba (1)
0x3b0|                              00               |          .     |      [5]: 0 ut_local_indicator (valid) 0x3ba-0x3bb (1)
0x3b0|                                 00            |           .    |      [6]: 0 ut_local_indicator (valid) 0x3bb-0x3bc (1)
0x3b0|                                    00         |            .   |      [7]: 0 ut_local_indicator (valid) 0x3bc-0x3bd (1)
0x3b0|                                       00      |             .  |      [8]: 0 ut_local_indicator (valid) 0x3bd-0x3be (1)
     |                                               |                |  v2plusheader{}: 0x3be-0x3ea (44)
0x3b0|                                          54 5a|              TZ|    magic: 0x545a6966 (valid) 0x3be-0x3c2 (4)
0x3c0|69 66                                          |if              |
0x3c0|      32                                       |  2             |    ver: "2" (0x32) (valid) 0x3c2-0x3c3 (1)
0x3c0|         00 00 00 00 00 00 00 00 00 00 00 00 00|   .............|    reserved: raw bits 0x3c3-0x3d2 (15)
0x3d0|00 00                                          |..              |
0x3d0|      00 00 00 09                              |  ....          |    isutcnt: 9 0x3d2-0x3d6 (4)
0x3d0|                  00 00 00 09                  |      ....      |    isstdcnt: 9 0x3d6-0x3da (4)
0x3d0|                              00 00 00 1b      |          ....  |    leapcnt: 27 0x3da-0x3de (4)
0x3d0|                                          00 00|              ..|    timecnt: 121 0x3de-0x3e2 (4)
0x3e0|00 79                                          |.y              |
0x3e0|      00 00 00 09                              |  ....          |    typecnt: 9 0x3e2-0x3e6 (4)
0x3e0|                  00 00 00 15                  |      ....      |    charcnt: 21 0x3e6-0x3ea (4)
     |                                               |                |  v2plusdatablock{}: 0x3ea-0x9cc (1506)
     |                                               |                |    transition_times[0:121]: 0x3ea-0x7b2 (968)
0x3e0|                              ff ff ff ff 56 b6|          ....V.|      [0]: "1879-12-31T21:39:06Z" (-2840149254) transition_time 0x3ea-0x3f2 (8)
0x3f0|c2 fa                                          |..              |
0x3f0|      ff ff ff ff 9e 30 45 88                  |  .....0E.      |      [1]: "1917-12-31T21:39:20Z" (-1641003640) transition_time 0x3f2-0x3fa (8)
0x3f0|                              ff ff ff ff c8 59|          .....Y|      [2]: "1940-06-01T00:00:00Z" (-933638400) transition_time 0x3fa-0x402 (8)
0x400|cf 00                                          |..              |
0x400|      ff ff ff ff c8 fa a6 00                  |  ........      |      [3]: "1940-10-01T00:00:00Z" (-923097600) transition_time 0x402-0x40a (8)
0x400|                              ff ff ff ff c9 38|          .....8|      [4]: "1940-11-17T00:00:00Z" (-919036800) transition_time 0x40a-0x412 (8)
0x410|9c 80                                          |..              |
0x410|      ff ff ff ff cc e5 eb 80                  |  ........      |      [5]: "1942-11-01T00:00:00Z" (-857347200) transition_time 0x412-0x41a (8)
0x410|                              ff ff ff ff cd ac|          ......|      [6]: "1943-04-01T00:00:00Z" (-844300800) transition_time 0x41a-0x422 (8)
0x420|fe 00                                          |..              |
0x420|      ff ff ff ff ce c7 1f 00                  |  ........      |      [7]: "1943-11-01T00:00:00Z" (-825811200) transition_time 0x422-0x42a (8)
0x420|                              ff ff ff ff cf 8f|          ......|      [8]: "1944-04-01T00:00:00Z" (-812678400) transition_time 0x42a-0x432 (8)
0x430|83 00                                          |..              |
0x430|      ff ff ff ff d0 a9 a4 00                  |  ........      |      [9]: "1944-11-01T00:00:00Z" (-794188800) transition_time 0x432-0x43a (8)
0x430|                              ff ff ff ff d1 84|          ......|      [10]: "1945-04-16T00:00:00Z" (-779846400) transition_time 0x43a-0x442 (8)
0x440|7d 00                                          |}.              |
0x440|      ff ff ff ff d2 8a d7 80                  |  ........      |      [11]: "1945-11-01T00:00:00Z" (-762652800) transition_time 0x442-0x44a (8)
0x440|                              ff ff ff ff d3 65|          .....e|      [12]: "1946-04-16T00:00:00Z" (-748310400) transition_time 0x44a-0x452 (8)
0x450|b0 80                                          |..              |
0x450|      ff ff ff ff d4 6c 0b 00                  |  .....l..      |      [13]: "1946-11-01T00:00:00Z" (-731116800) transition_time 0x452-0x45a (8)
0x450|                              ff ff ff ff d7 5a|          .....Z|      [14]: "1948-05-23T00:00:00Z" (-681955200) transition_time 0x45a-0x462 (8)
0x460|30 80                                          |0.              |
0x460|      ff ff ff ff d7 df 58 00                  |  ......X.      |      [15]: "1948-09-01T00:00:00Z" (-673228800) transition_time 0x462-0x46a (8)
0x460|                              ff ff ff ff d8 2f|          ...../|      [16]: "1948-11-01T00:00:00Z" (-667958400) transition_time 0x46a-0x472 (8)
0x470|c3 80                                          |..              |
0x470|      ff ff ff ff d9 1e 63 00                  |  ......c.      |      [17]: "1949-05-01T00:00:00Z" (-652320000) transition_time 0x472-0x47a (8)
0x470|                              ff ff ff ff da 10|          ......|      [18]: "1949-11-01T00:00:00Z" (-636422400) transition_time 0x47a-0x482 (8)
0x480|f7 00                                          |..              |
0x480|      ff ff ff ff da eb d0 00                  |  ........      |      [19]: "1950-04-16T00:00:00Z" (-622080000) transition_time 0x482-0x48a (8)
0x480|                              ff ff ff ff db b4|          ......|      [20]: "1950-09-15T00:00:00Z" (-608947200) transition_time 0x48a-0x492 (8)
0x490|34 00                                          |4.              |
0x490|      ff ff ff ff dc b9 3d 00                  |  ......=.      |      [21]: "1951-04-01T00:00:00Z" (-591840000) transition_time 0x492-0x49a (8)
0x490|                              ff ff ff ff dd e0|          ......|      [22]: "1951-11-11T00:00:00Z" (-572486400) transition_time 0x49a-0x4a2 (8)
0x4a0|8d 00                                          |..              |
0x4a0|      ff ff ff ff de b4 ce 80                  |  ........      |      [23]: "1952-04-20T00:00:00Z" (-558576000) transition_time 0x4a2-0x4aa (8)
0x4a0|                              ff ff ff ff df a4|          ......|      [24]: "1952-10-19T00:00:00Z" (-542851200) transition_time 0x4aa-0x4b2 (8)
0x4b0|bf 80                                          |..              |
0x4b0|      ff ff ff ff e0 8b 76 00                  |  ......v.      |      [25]: "1953-04-12T00:00:00Z" (-527731200) transition_time 0x4b2-0x4ba (8)
0x4b0|                              ff ff ff ff e1 56|          .....V|      [26]: "1953-09-13T00:00:00Z" (-514425600) transition_time 0x4ba-0x4c2 (8)
0x4c0|7d 00                                          |}.              |
0x4c0|      ff ff ff ff e2 be 66 80                  |  ......f.      |      [27]: "1954-06-13T00:00:00Z" (-490838400) transition_time 0x4c2-0x4ca (8)
0x4c0|                              ff ff ff ff e3 36|          .....6|      [28]: "1954-09-12T00:00:00Z" (-482976000) transition_time 0x4ca-0x4d2 (8)
0x4d0|5f 00                                          |_.              |
0x4d0|      ff ff ff ff e4 9e 48 80                  |  ......H.      |      [29]: "1955-06-12T00:00:00Z" (-459388800) transition_time 0x4d2-0x4da (8)
0x4d0|                              ff ff ff ff e5 16|          ......|      [30]: "1955-09-11T00:00:00Z" (-451526400) transition_time 0x4da-0x4e2 (8)
0x4e0|41 00                                          |A.              |
0x4e0|      ff ff ff ff e6 74 f0 00                  |  .....t..      |      [31]: "1956-06-03T00:00:00Z" (-428544000) transition_time 0x4e2-0x4ea (8)
0x4e0|                              ff ff ff ff e7 11|          ......|      [32]: "1956-09-30T00:00:00Z" (-418262400) transition_time 0x4ea-0x4f2 (8)
0x4f0|d2 80                                          |..              |
0x4f0|      ff ff ff ff e8 26 ad 80                  |  .....&..      |      [33]: "1957-04-28T00:00:00Z" (-400118400) transition_time 0x4f2-0x4fa (8)
0x4f0|                              ff ff ff ff e8 e8|          ......|      [34]: "1957-09-22T00:00:00Z" (-387417600) transition_time 0x4fa-0x502 (8)
0x500|7a 00                                          |z.              |
0x500|      00 00 00 00 08 7c 8b e3                  |  .....|..      |      [35]: "1974-07-06T22:00:03Z" (142380003) transition_time 0x502-0x50a (8)
0x500|                              00 00 00 00 08 fd|          ......|      [36]: "1974-10-12T21:00:03Z" (150843603) transition_time 0x50a-0x512 (8)
0x510|b0 d3                                          |..              |
0x510|      00 00 00 00 09 f6 ea 64                  |  .......d      |      [37]: "1975-04-19T22:00:04Z" (167176804) transition_time 0x512-0x51a (8)
0x510|                              00 00 00 00 0a a6|          ......|      [38]: "1975-08-30T21:00:04Z" (178664404) transition_time 0x51a-0x522 (8)
0x520|33 d4                                          |3.              |
0x520|      00 00 00 00 13 e9 fc 69                  |  .......i      |      [39]: "1980-08-02T22:00:09Z" (334101609) transition_time 0x522-0x52a (8)
0x520|                              00 00 00 00 14 21|          .....!|      [40]: "1980-09-13T22:00:09Z" (337730409) transition_time 0x52a-0x532 (8)
0x530|5b 69                                          |[i              |
0x530|      00 00 00 00 1a fa c6 6c                  |  .......l      |      [41]: "1984-05-05T22:00:12Z" (452642412) transition_time 0x532-0x53a (8)
0x530|                              00 00 00 00 1b 8e|          ......|      [42]: "1984-08-25T22:00:12Z" (462319212) transition_time 0x53a-0x542 (8)
0x540|6e 6c                                          |nl              |
0x540|      00 00 00 00 1c be f8 ec                  |  ........      |      [43]: "1985-04-13T22:00:12Z" (482277612) transition_time 0x542-0x54a (8)
0x540|                              00 00 00 00 1d 77|          .....w|      [44]: "1985-08-31T21:00:13Z" (494370013) transition_time 0x54a-0x552 (8)
0x550|7c dd                                          ||.              |
0x550|      00 00 00 00 1e cc ff 6d                  |  .......m      |      [45]: "1986-05-17T22:00:13Z" (516751213) transition_time 0x552-0x55a (8)
0x550|                              00 00 00 00 1f 60|          .....`|      [46]: "1986-09-06T21:00:13Z" (526424413) transition_time 0x55a-0x562 (8)
0x560|99 5d                                          |.]              |
0x560|      00 00 00 00 20 82 b1 6d                  |  .... ..m      |      [47]: "1987-04-14T22:00:13Z" (545436013) transition_time 0x562-0x56a (8)
0x560|                              00 00 00 00 21 49|          ....!I|      [48]: "1987-09-12T21:00:13Z" (558478813) transition_time 0x56a-0x572 (8)
0x570|b5 dd                                          |..              |
0x570|      00 00 00 00 22 5e 9e ee                  |  ...."^..      |      [49]: "1988-04-09T22:00:14Z" (576626414) transition_time 0x572-0x57a (8)
0x570|                              00 00 00 00 23 20|          ....# |      [50]: "1988-09-03T21:00:14Z" (589323614) transition_time 0x57a-0x582 (8)
0x580|5d 5e                                          |]^              |
0x580|      00 00 00 00 24 5a 30 6e                  |  ....$Z0n      |      [51]: "1989-04-29T22:00:14Z" (609890414) transition_time 0x582-0x58a (8)
0x580|                              00 00 00 00 25 00|          ....%.|      [52]: "1989-09-02T21:00:14Z" (620773214) transition_time 0x58a-0x592 (8)
0x590|3f 5e                                          |?^              |
0x590|      00 00 00 00 26 0b ed ef                  |  ....&...      |      [53]: "1990-03-24T22:00:15Z" (638316015) transition_time 0x592-0x59a (8)
0x590|                              00 00 00 00 26 d6|          ....&.|      [54]: "1990-08-25T21:00:15Z" (651618015) transition_time 0x59a-0x5a2 (8)
0x5a0|e6 df                                          |..              |
0x5a0|      00 00 00 00 27 eb cf f0                  |  ....'...      |      [55]: "1991-03-23T22:00:16Z" (669765616) transition_time 0x5a2-0x5aa (8)
0x5a0|                              00 00 00 00 28 c0|          ....(.|      [56]: "1991-08-31T21:00:16Z" (683672416) transition_time 0x5aa-0x5b2 (8)
0x5b0|03 60                                          |.`              |
0x5b0|      00 00 00 00 29 d4 ec 70                  |  ....)..p      |      [57]: "1992-03-28T22:00:16Z" (701820016) transition_time 0x5b2-0x5ba (8)
0x5b0|                              00 00 00 00 2a a9|          ....*.|      [58]: "1992-09-05T21:00:17Z" (715726817) transition_time 0x5ba-0x5c2 (8)
0x5c0|1f e1                                          |..              |
0x5c0|      00 00 00 00 2b bb 65 f1                  |  ....+.e.      |      [59]: "1993-04-01T22:00:17Z" (733701617) transition_time 0x5c2-0x5ca (8)
0x5c0|                              00 00 00 00 2c 89|          ....,.|      [60]: "1993-09-04T21:00:18Z" (747176418) transition_time 0x5ca-0x5d2 (8)
0x5d0|01 e2                                          |..              |
0x5d0|      00 00 00 00 2d 9b 47 f2                  |  ....-.G.      |      [61]: "1994-03-31T22:00:18Z" (765151218) transition_time 0x5d2-0x5da (8)
0x5d0|                              00 00 00 00 2e 5f|          ....._|      [62]: "1994-08-27T21:00:19Z" (778021219) transition_time 0x5da-0x5e2 (8)
0x5e0|a9 63                                          |.c              |
0x5e0|      00 00 00 00 2f 7b 29 f3                  |  ..../{).      |      [63]: "1995-03-30T22:00:19Z" (796600819) transition_time 0x5e2-0x5ea (8)
0x5e0|                              00 00 00 00 30 48|          ....0H|      [64]: "1995-09-02T21:00:19Z" (810075619) transition_time 0x5ea-0x5f2 (8)
0x5f0|c5 e3                                          |..              |
0x5f0|      00 00 00 00 31 48 96 f4                  |  ....1H..      |      [65]: "1996-03-14T22:00:20Z" (826840820) transition_time 0x5f2-0x5fa (8)
0x5f0|                              00 00 00 00 32 3c|          ....2<|      [66]: "1996-09-15T21:00:20Z" (842821220) transition_time 0x5fa-0x602 (8)
0x600|6e 64                                          |nd              |
0x600|      00 00 00 00 33 31 b3 74                  |  ....31.t      |      [67]: "1997-03-20T22:00:20Z" (858895220) transition_time 0x602-0x60a (8)
0x600|                              00 00 00 00 34 1a|          ....4.|      [68]: "1997-09-13T21:00:21Z" (874184421) transition_time 0x60a-0x612 (8)
0x610|fe e5                                          |..              |
0x610|      00 00 00 00 35 11 95 75                  |  ....5..u      |      [69]: "1998-03-19T22:00:21Z" (890344821) transition_time 0x612-0x61a (8)
0x610|                              00 00 00 00 35 f1|          ....5.|      [70]: "1998-09-05T21:00:21Z" (905029221) transition_time 0x61a-0x622 (8)
0x620|a6 65                                          |.e              |
0x620|      00 00 00 00 37 04 08 96                  |  ....7...      |      [71]: "1999-04-02T00:00:22Z" (923011222) transition_time 0x622-0x62a (8)
0x620|                              00 00 00 00 37 cf|          ....7.|      [72]: "1999-09-02T23:00:22Z" (936313222) transition_time 0x62a-0x632 (8)
0x630|01 86                                          |..              |
0x630|      00 00 00 00 38 f6 5f 96                  |  ....8._.      |      [73]: "2000-04-14T00:00:22Z" (955670422) transition_time 0x632-0x63a (8)
0x630|                              00 00 00 00 39 dc|          ....9.|      [74]: "2000-10-05T22:00:22Z" (970783222) transition_time 0x63a-0x642 (8)
0x640|f9 f6                                          |..              |
0x640|      00 00 00 00 3a d0 ed 86                  |  ....:...      |      [75]: "2001-04-08T23:00:22Z" (986770822) transition_time 0x642-0x64a (8)
0x640|                              00 00 00 00 3b ae|          ....;.|      [76]: "2001-09-23T22:00:22Z" (1001282422) transition_time 0x64a-0x652 (8)
0x650|5b 76                                          |[v              |
0x650|      00 00 00 00 3c a3 a0 86                  |  ....<...      |      [77]: "2002-03-28T23:00:22Z" (1017356422) transition_time 0x652-0x65a (8)
0x650|                              00 00 00 00 3d a0|          ....=.|      [78]: "2002-10-06T22:00:22Z" (1033941622) transition_time 0x65a-0x662 (8)
0x660|b2 76                                          |.v              |
0x660|      00 00 00 00 3e 83 82 86                  |  ....>...      |      [79]: "2003-03-27T23:00:22Z" (1048806022) transition_time 0x662-0x66a (8)
0x660|                              00 00 00 00 3f 7c|          ....?||      [80]: "2003-10-02T22:00:22Z" (1065132022) transition_time 0x66a-0x672 (8)
0x670|9f f6                                          |..              |
0x670|      00 00 00 00 40 73 36 86                  |  ....@s6.      |      [81]: "2004-04-06T23:00:22Z" (1081292422) transition_time 0x672-0x67a (8)
0x670|                              00 00 00 00 41 50|          ....AP|      [82]: "2004-09-21T22:00:22Z" (1095804022) transition_time 0x67a-0x682 (8)
0x680|a4 76                                          |.v              |
0x680|      00 00 00 00 42 4c 8f 16                  |  ....BL..      |      [83]: "2005-04-01T00:00:22Z" (1112313622) transition_time 0x682-0x68a (8)
0x680|                              00 00 00 00 43 48|          ....CH|      [84]: "2005-10-08T23:00:22Z" (1128812422) transition_time 0x68a-0x692 (8)
0x690|4f 86                                          |O.              |
0x690|      00 00 00 00 44 2c 71 17                  |  ....D,q.      |      [85]: "2006-03-31T00:00:23Z" (1143763223) transition_time 0x692-0x69a (8)
0x690|                              00 00 00 00 45 1e|          ....E.|      [86]: "2006-09-30T23:00:23Z" (1159657223) transition_time 0x69a-0x6a2 (8)
0x6a0|f7 07                                          |..              |
0x6a0|      00 00 00 00 46 0c 53 17                  |  ....F.S.      |      [87]: "2007-03-30T00:00:23Z" (1175212823) transition_time 0x6a2-0x6aa (8)
0x6a0|                              00 00 00 00 46 ec|          ....F.|      [88]: "2007-09-15T23:00:23Z" (1189897223) transition_time 0x6aa-0x6b2 (8)
0x6b0|64 07                                          |d.              |
0x6b0|      00 00 00 00 47 ec 35 17                  |  ....G.5.      |      [89]: "2008-03-28T00:00:23Z" (1206662423) transition_time 0x6b2-0x6ba (8)
0x6b0|                              00 00 00 00 48 e7|          ....H.|      [90]: "2008-10-04T23:00:23Z" (1223161223) transition_time 0x6ba-0x6c2 (8)
0x6c0|f5 87                                          |..              |
0x6c0|      00 00 00 00 49 cc 17 18                  |  ....I...      |      [91]: "2009-03-27T00:00:24Z" (1238112024) transition_time 0x6c2-0x6ca (8)
0x6c0|                              00 00 00 00 4a be|          ....J.|      [92]: "2009-09-26T23:00:24Z" (1254006024) transition_time 0x6ca-0x6d2 (8)
0x6d0|9d 08                                          |..              |
0x6d0|      00 00 00 00 4b ab f9 18                  |  ....K...      |      [93]: "2010-03-26T00:00:24Z" (1269561624) transition_time 0x6d2-0x6da (8)
0x6d0|                              00 00 00 00 4c 8c|          ....L.|      [94]: "2010-09-11T23:00:24Z" (1284246024) transition_time 0x6da-0x6e2 (8)
0x6e0|0a 08                                          |..              |
0x6e0|      00 00 00 00 4d 95 15 98                  |  ....M...      |      [95]: "2011-04-01T00:00:24Z" (1301616024) transition_time 0x6e2-0x6ea (8)
0x6e0|                              00 00 00 00 4e 87|          ....N.|      [96]: "2011-10-01T23:00:24Z" (1317510024) transition_time 0x6ea-0x6f2 (8)
0x6f0|9b 88                                          |..              |
0x6f0|      00 00 00 00 4f 74 f7 98                  |  ....Ot..      |      [97]: "2012-03-30T00:00:24Z" (1333065624) transition_time 0x6f2-0x6fa (8)
0x6f0|                              00 00 00 00 50 5e|          ....P^|      [98]: "2012-09-22T23:00:25Z" (1348354825) transition_time 0x6fa-0x702 (8)
0x700|43 09                                          |C.              |
0x700|      00 00 00 00 51 54 d9 99                  |  ....QT..      |      [99]: "2013-03-29T00:00:25Z" (1364515225) transition_time 0x702-0x70a (8)
0x700|                              00 00 00 00 52 6c|          ....Rl|      [100]: "2013-10-26T23:00:25Z" (1382828425) transition_time 0x70a-0x712 (8)
0x710|49 89                                          |I.              |
0x710|      00 00 00 00 53 34 bb 99                  |  ....S4..      |      [101]: "2014-03-28T00:00:25Z" (1395964825) transition_time 0x712-0x71a (8)
0x710|                              00 00 00 00 54 4c|          ....TL|      [102]: "2014-10-25T23:00:25Z" (1414278025) transition_time 0x71a-0x722 (8)
0x720|2b 89                                          |+.              |
0x720|      00 00 00 00 55 14 9d 99                  |  ....U...      |      [103]: "2015-03-27T00:00:25Z" (1427414425) transition_time 0x722-0x72a (8)
0x720|                              00 00 00 00 56 2c|          ....V,|      [104]: "2015-10-24T23:00:26Z" (1445727626) transition_time 0x72a-0x732 (8)
0x730|0d 8a                                          |..              |
0x730|      00 00 00 00 56 f4 7f 9a                  |  ....V...      |      [105]: "2016-03-25T00:00:26Z" (1458864026) transition_time 0x732-0x73a (8)
0x730|                              00 00 00 00 58 15|          ....X.|      [106]: "2016-10-29T23:00:26Z" (1477782026) transition_time 0x73a-0x742 (8)
0x740|2a 0a                                          |*.              |
0x740|      00 00 00 00 58 d4 61 9b                  |  ....X.a.      |      [107]: "2017-03-24T00:00:27Z" (1490313627) transition_time 0x742-0x74a (8)
0x740|                              00 00 00 00 59 f5|          ....Y.|      [108]: "2017-10-28T23:00:27Z" (1509231627) transition_time 0x74a-0x752 (8)
0x750|0c 0b                                          |..              |
0x750|      00 00 00 00 5a b4 43 9b                  |  ....Z.C.      |      [109]: "2018-03-23T00:00:27Z" (1521763227) transition_time 0x752-0x75a (8)
0x750|                              00 00 00 00 5b d4|          ....[.|      [110]: "2018-10-27T23:00:27Z" (1540681227) transition_time 0x75a-0x762 (8)
0x760|ee 0b                                          |..              |
0x760|      00 00 00 00 5c 9d 60 1b                  |  ....\.`.      |      [111]: "2019-03-29T00:00:27Z" (1553817627) transition_time 0x762-0x76a (8)
0x760|                              00 00 00 00 5d b4|          ....].|      [112]: "2019-10-26T23:00:27Z" (1572130827) transition_time 0x76a-0x772 (8)
0x770|d0 0b                                          |..              |
0x770|      00 00 00 00 5e 7d 42 1b                  |  ....^}B.      |      [113]: "2020-03-27T00:00:27Z" (1585267227) transition_time 0x772-0x77a (8)
0x770|                              00 00 00 00 5f 94|          ...._.|      [114]: "2020-10-24T23:00:27Z" (1603580427) transition_time 0x77a-0x782 (8)
0x780|b2 0b                                          |..              |
0x780|      00 00 00 00 60 5d 24 1b                  |  ....`]$.      |      [115]: "2021-03-26T00:00:27Z" (1616716827) transition_time 0x782-0x78a (8)
0x780|                              00 00 00 00 61 7d|          ....a}|      [116]: "2021-10-30T23:00:27Z" (1635634827) transition_time 0x78a-0x792 (8)
0x790|ce 8b                                          |..              |
0x790|      00 00 00 00 62 3d 06 1b                  |  ....b=..      |      [117]: "2022-03-25T00:00:27Z" (1648166427) transition_time 0x792-0x79a (8)
0x790|                              00 00 00 00 63 5d|          ....c]|      [118]: "2022-10-29T23:00:27Z" (1667084427) transition_time 0x79a-0x7a2 (8)
0x7a0|b0 8b                                          |..              |
0x7a0|      00 00 00 00 64 1c e8 1b                  |  ....d...      |      [119]: "2023-03-24T00:00:27Z" (1679616027) transition_time 0x7a2-0x7aa (8)
0x7a0|                              00 00 00 00 64 9b|          ....d.|      [120]: "2023-06-28T00:00:27Z" (1687910427) transition_time 0x7aa-0x7b2 (8)
0x7b0|78 1b                                          |x.              |
     |                                               |                |    transition_types[0:121]: 0x7b2-0x82b (121)
0x7b0|      01                                       |  .             |      [0]: 1 transition_type 0x7b2-0x7b3 (1)
0x7b0|         06                                    |   .            |      [1]: 6 transition_type 0x7b3-0x7b4 (1)
0x7b0|            02                                 |    .           |      [2]: 2 transition_type 0x7b4-0x7b5 (1)
0x7b0|               03                              |     .          |      [3]: 3 transition_type 0x7b5-0x7b6 (1)
0x7b0|                  02                           |      .         |      [4]: 2 transition_type 0x7b6-0x7b7 (1)
0x7b0|                     03                        |       .        |      [5]: 3 transition_type 0x7b7-0x7b8 (1)
0x7b0|                        02                     |        .       |      [6]: 2 transition_type 0x7b8-0x7b9 (1)
0x7b0|                           03                  |         .      |      [7]: 3 transition_type 0x7b9-0x7ba (1)
0x7b0|                              02               |          .     |      [8]: 2 transition_type 0x7ba-0x7bb (1)
0x7b0|                                 03            |           .    |      [9]: 3 transition_type 0x7bb-0x7bc (1)
0x7b0|                                    02         |            .   |      [10]: 2 transition_type 0x7bc-0x7bd (1)
0x7b0|                                       03      |             .  |      [11]: 3 transition_type 0x7bd-0x7be (1)
0x7b0|                                          02   |              . |      [12]: 2 transition_type 0x7be-0x7bf (1)
0x7b0|                                             03|               .|      [13]: 3 transition_type 0x7bf-0x7c0 (1)
0x7c0|04                                             |.               |      [14]: 4 transition_type 0x7c0-0x7c1 (1)
0x7c0|   02                                          | .              |      [15]: 2 transition_type 0x7c1-0x7c2 (1)
0x7c0|      03                                       |  .             |      [16]: 3 transition_type 0x7c2-0x7c3 (1)
0x7c0|         02                                    |   .            |      [17]: 2 transition_type 0x7c3-0x7c4 (1)
0x7c0|            03                                 |    .           |      [18]: 3 transition_type 0x7c4-0x7c5 (1)
0x7c0|               02                              |     .          |      [19]: 2 transition_type 0x7c5-0x7c6 (1)
0x7c0|                  03                           |      .         |      [20]: 3 transition_type 0x7c6-0x7c7 (1)
0x7c0|                     02                        |       .        |      [21]: 2 transition_type 0x7c7-0x7c8 (1)
0x7c0|                        03                     |        .       |      [22]: 3 transition_type 0x7c8-0x7c9 (1)
0x7c0|                           02                  |         .      |      [23]: 2 transition_type 0x7c9-0x7ca (1)
0x7c0|                              03               |          .     |      [24]: 3 transition_type 0x7ca-0x7cb (1)
0x7c0|                                 02            |           .    |      [25]: 2 transition_type 0x7cb-0x7cc (1)
0x7c0|                                    03         |            .   |      [26]: 3 transition_type 0x7cc-0x7cd (1)
0x7c0|                                       02      |             .  |      [27]: 2 transition_type 0x7cd-0x7ce (1)
0x7c0|                                          03   |              . |      [28]: 3 transition_type 0x7ce-0x7cf (1)
0x7c0|                                             02|               .|      [29]: 2 transition_type 0x7cf-0x7d0 (1)
0x7d0|03                                             |.               |      [30]: 3 transition_type 0x7d0-0x7d1 (1)
0x7d0|   02                                          | .              |      [31]: 2 transition_type 0x7d1-0x7d2 (1)
0x7d0|      03                                       |  .             |      [32]: 3 transition_type 0x7d2-0x7d3 (1)
0x7d0|         02                                    |   .            |      [33]: 2 transition_type 0x7d3-0x7d4 (1)
0x7d0|            03                                 |    .           |      [34]: 3 transition_type 0x7d4-0x7d5 (1)
0x7d0|               05                              |     .          |      [35]: 5 transition_type 0x7d5-0x7d6 (1)
0x7d0|                  06                           |      .         |      [36]: 6 transition_type 0x7d6-0x7d7 (1)
0x7d0|                     05                        |       .        |      [37]: 5 transition_type 0x7d7-0x7d8 (1)
0x7d0|                        06                     |        .       |      [38]: 6 transition_type 0x7d8-0x7d9 (1)
0x7d0|                           07                  |         .      |      [39]: 7 transition_type 0x7d9-0x7da (1)
0x7d0|                              08               |          .     |      [40]: 8 transition_type 0x7da-0x7db (1)
0x7d0|                                 07            |           .    |      [41]: 7 transition_type 0x7db-0x7dc (1)
0x7d0|                                    08         |            .   |      [42]: 8 transition_type 0x7dc-0x7dd (1)
0x7d0|                                       05      |             .  |      [43]: 5 transition_type 0x7dd-0x7de (1)
0x7d0|                                          06   |              . |      [44]: 6 transition_type 0x7de-0x7df (1)
0x7d0|                                             05|               .|      [45]: 5 transition_type 0x7df-0x7e0 (1)
0x7e0|06                                             |.               |      [46]: 6 transition_type 0x7e0-0x7e1 (1)
0x7e0|   05                                          | .              |      [47]: 5 transition_type 0x7e1-0x7e2 (1)
0x7e0|      06                                       |  .             |      [48]: 6 transition_type 0x7e2-0x7e3 (1)
0x7e0|         05                                    |   .            |      [49]: 5 transition_type 0x7e3-0x7e4 (1)
0x7e0|            06                                 |    .           |      [50]: 6 transition_type 0x7e4-0x7e5 (1)
0x7e0|               05                              |     .          |      [51]: 5 transition_type 0x7e5-0x7e6 (1)
0x7e0|                  06                           |      .         |      [52]: 6 transition_type 0x7e6-0x7e7 (1)
0x7e0|                     05                        |       .        |      [53]: 5 transition_type 0x7e7-0x7e8 (1)
0x7e0|                        06                     |        .       |      [54]: 6 transition_type 0x7e8-0x7e9 (1)
0x7e0|                           05                  |         .      |      [55]: 5 transition_type 0x7e9-0x7ea (1)
0x7e0|                              06               |          .     |      [56]: 6 transition_type 0x7ea-0x7eb (1)
0x7e0|                                 05            |           .    |      [57]: 5 transition_type 0x7eb-0x7ec (1)
0x7e0|                                    06         |            .   |      [58]: 6 transition_type 0x7ec-0x7ed (1)
0x7e0|                                       05      |             .  |      [59]: 5 transition_type 0x7ed-0x7ee (1)
0x7e0|                                          06   |              . |      [60]: 6 transition_type 0x7ee-0x7ef (1)
0x7e0|                                             05|               .|      [61]: 5 transition_type 0x7ef-0x7f0 (1)
0x7f0|06                                             |.               |      [62]: 6 transition_type 0x7f0-0x7f1 (1)
0x7f0|   05                                          | .              |      [63]: 5 transition_type 0x7f1-0x7f2 (1)
0x7f0|      06                                       |  .             |      [64]: 6 transition_type 0x7f2-0x7f3 (1)
0x7f0|         05                                    |   .            |      [65]: 5 transition_type 0x7f3-0x7f4 (1)
0x7f0|            06                                 |    .           |      [66]: 6 transition_type 0x7f4-0x7f5 (1)
0x7f0|               05                              |     .          |      [67]: 5 transition_type 0x7f5-0x7f6 (1)
0x7f0|                  06                           |      .         |      [68]: 6 transition_type 0x7f6-0x7f7 (1)
0x7f0|                     05                        |       .        |      [69]: 5 transition_type 0x7f7-0x7f8 (1)
0x7f0|                        06                     |        .       |      [70]: 6 transition_type 0x7f8-0x7f9 (1)
0x7f0|                           05                  |         .      |      [71]: 5 transition_type 0x7f9-0x7fa (1)
0x7f0|                              06               |          .     |      [72]: 6 transition_type 0x7fa-0x7fb (1)
0x7f0|                                 05            |           .    |      [73]: 5 transition_type 0x7fb-0x7fc (1)
0x7f0|                                    06         |            .   |      [74]: 6 transition_type 0x7fc-0x7fd (1)
0x7f0|                                       05      |             .  |      [75]: 5 transition_type 0x7fd-0x7fe (1)
0x7f0|                                          06   |              . |      [76]: 6 transition_type 0x7fe-0x7ff (1)
0x7f0|                                             05|               .|      [77]: 5 transition_type 0x7ff-0x800 (1)
0x800|06                                             |.               |      [78]: 6 transition_type 0x800-0x801 (1)
0x800|   05                                          | .              |      [79]: 5 transition_type 0x801-0x802 (1)
0x800|      06                                       |  .             |      [80]: 6 transition_type 0x802-0x803 (1)
0x800|         05                                    |   .            |      [81]: 5 transition_type 0x803-0x804 (1)
0x800|            06                                 |    .           |      [82]: 6 transition_type 0x804-0x805 (1)
0x800|               05                              |     .          |      [83]: 5 transition_type 0x805-0x806 (1)
0x800|                  06                           |      .         |      [84]: 6 transition_type 0x806-0x807 (1)
0x800|                     05                        |       .        |      [85]: 5 transition_type 0x807-0x808 (1)
0x800|                        06                     |        .       |      [86]: 6 transition_type 0x808-0x809 (1)
0x800|                           05                  |         .      |      [87]: 5 transition_type 0x809-0x80a (1)
0x800|                              06               |          .     |      [88]: 6 transition_type 0x80a-0x80b (1)
0x800|                                 05            |           .    |      [89]: 5 transition_type 0x80b-0x80c (1)
0x800|                                    06         |            .   |      [90]: 6 transition_type 0x80c-0x80d (1)
0x800|                                       05      |             .  |      [91]: 5 transition_type 0x80d-0x80e (1)
0x800|                                          06   |              . |      [92]: 6 transition_type 0x80e-0x80f (1)
0x800|                                             05|               .|      [93]: 5 transition_type 0x80f-0x810 (1)
0x810|06                                             |.               |      [94]: 6 transition_type 0x810-0x811 (1)
0x810|   05                                          | .              |      [95]: 5 transition_type 0x811-0x812 (1)
0x810|      06                                       |  .             |      [96]: 6 transition_type 0x812-0x813 (1)
0x810|         05                                    |   .            |      [97]: 5 transition_type 0x813-0x814 (1)
0x810|            06                                 |    .           |      [98]: 6 transition_type 0x814-0x815 (1)
0x810|               05                              |     .          |      [99]: 5 transition_type 0x815-0x816 (1)
0x810|                  06                           |      .         |      [100]: 6 transition_type 0x816-0x817 (1)
0x810|                     05                        |       .        |      [101]: 5 transition_type 0x817-0x818 (1)
0x810|                        06                     |        .       |      [102]: 6 transition_type 0x818-0x819 (1)
0x810|                           05                  |         .      |      [103]: 5 transition_type 0x819-0x81a (1)
0x810|                              06               |          .     |      [104]: 6 transition_type 0x81a-0x81b (1)
0x810|                                 05            |           .    |      [105]: 5 transition_type 0x81b-0x81c (1)
0x810|                                    06         |            .   |      [106]: 6 transition_type 0x81c-0x81d (1)
0x810|                                       05      |             .  |      [107]: 5 transition_type 0x81d-0x81e (1)
0x810|                                          06   |              . |      [108]: 6 transition_type 0x81e-0x81f (1)
0x810|                                             05|               .|      [109]: 5 transition_type 0x81f-0x820 (1)
0x820|06                                             |.               |      [110]: 6 transition_type 0x820-0x821 (1)
0x820|   05                                          | .              |      [111]: 5 transition_type 0x821-0x822 (1)
0x820|      06                                       |  .             |      [112]: 6 transition_type 0x822-0x823 (1)
0x820|         05                                    |   .            |      [113]: 5 transition_type 0x823-0x824 (1)
0x820|            06                                 |    .           |      [114]: 6 transition_type 0x824-0x825 (1)
0x820|               05                              |     .          |      [115]: 5 transition_type 0x825-0x826 (1)
0x820|                  06                           |      .         |      [116]: 6 transition_type 0x826-0x827 (1)
0x820|                     05                        |       .        |      [117]: 5 transition_type 0x827-0x828 (1)
0x820|                        06                     |        .       |      [118]: 6 transition_type 0x828-0x829 (1)
0x820|                           05                  |         .      |      [119]: 5 transition_type 0x829-0x82a (1)
0x820|                              05               |          .     |      [120]: 5 transition_type 0x82a-0x82b (1)
     |                                               |                |    local_time_type_records[0:9]: 0x82b-0x861 (54)
     |                                               |                |      [0]{}: local_time_type 0x82b-0x831 (6)
0x820|                                 00 00 21 06   |           ..!. |        utoff: 8454 (valid) 0x82b-0x82f (4)
0x820|                                             00|               .|        dst: 0 (valid) 0x82f-0x830 (1)
0x830|00                                             |.               |        idx: 0 (valid) 0x830-0x831 (1)
     |                                               |                |      [1]{}: local_time_type 0x831-0x837 (6)
0x830|   00 00 20 f8                                 | .. .           |        utoff: 8440 (valid) 0x831-0x835 (4)
0x830|               00                              |     .          |        dst: 0 (valid) 0x835-0x836 (1)
0x830|                  04                           |      .         |        idx: 4 (valid) 0x836-0x837 (1)
     |                                               |                |      [2]{}: local_time_type 0x837-0x83d (6)
0x830|                     00 00 2a 30               |       ..*0     |        utoff: 10800 (valid) 0x837-0x83b (4)
0x830|                                 01            |           .    |        dst: 1 (valid) 0x83b-0x83c (1)
0x830|                                    08         |            .   |        idx: 8 (valid) 0x83c-0x83d (1)
     |                                               |                |      [3]{}: local_time_type 0x83d-0x843 (6)
0x830|                                       00 00 1c|             ...|        utoff: 7200 (valid) 0x83d-0x841 (4)
0x840|20                                             |                |
0x840|   00                                          | .              |        dst: 0 (valid) 0x841-0x842 (1)
0x840|      0c                                       |  .             |        idx: 12 (valid) 0x842-0x843 (1)
     |                                               |                |      [4]{}: local_time_type 0x843-0x849 (6)
0x840|         00 00 38 40                           |   ..8@         |        utoff: 14400 (valid) 0x843-0x847 (4)
0x840|                     01                        |       .        |        dst: 1 (valid) 0x847-0x848 (1)
0x840|                        10                     |        .       |        idx: 16 (valid) 0x848-0x849 (1)
     |                                               |                |      [5]{}: local_time_type 0x849-0x84f (6)
0x840|                           00 00 2a 30         |         ..*0   |        utoff: 10800 (valid) 0x849-0x84d (4)
0x840|                                       01      |             .  |        dst: 1 (valid) 0x84d-0x84e (1)
0x840|                                          08   |              . |        idx: 8 (valid) 0x84e-0x84f (1)
     |                                               |                |      [6]{}: local_time_type 0x84f-0x855 (6)
0x840|                                             00|               .|        utoff: 7200 (valid) 0x84f-0x853 (4)
0x850|00 1c 20                                       |..              |
0x850|         00                                    |   .            |        dst: 0 (valid) 0x853-0x854 (1)
0x850|            0c                                 |    .           |        idx: 12 (valid) 0x854-0x855 (1)
     |                                               |                |      [7]{}: local_time_type 0x855-0x85b (6)
0x850|               00 00 2a 30                     |     ..*0       |        utoff: 10800 (valid) 0x855-0x859 (4)
0x850|                           01                  |         .      |        dst: 1 (valid) 0x859-0x85a (1)
0x850|                              08               |          .     |        idx: 8 (valid) 0x85a-0x85b (1)
     |                                               |                |      [8]{}: local_time_type 0x85b-0x861 (6)
0x850|                                 00 00 1c 20   |           ...  |        utoff: 7200 (valid) 0x85b-0x85f (4)
0x850|                                             00|               .|        dst: 0 (valid) 0x85f-0x860 (1)
0x860|0c                                             |.               |        idx: 12 (valid) 0x860-0x861 (1)
     |                                               |                |    time_zone_designations[0:5]: 0x861-0x876 (21)
0x860|   4c 4d 54 00                                 | LMT.           |      [0]: "LMT" time_zone_designation 0x861-0x865 (4)
0x860|               4a 4d 54 00                     |     JMT.       |      [1]: "JMT" time_zone_designation 0x865-0x869 (4)
0x860|                           49 44 54 00         |         IDT.   |      [2]: "IDT" time_zone_designation 0x869-0x86d (4)
0x860|                                       49 53 54|             IST|      [3]: "IST" time_zone_designation 0x86d-0x871 (4)
0x870|00                                             |.               |
0x870|   49 44 44 54 00                              | IDDT.          |      [4]: "IDDT" time_zone_designation 0x871-0x876 (5)
     |                                               |                |    leap_second_records[0:27]: 0x876-0x9ba (324)
     |                                               |                |      [0]{}: leap_second_record 0x876-0x882 (12)
0x870|                  00 00 00 00 04 b2 58 00      |      ......X.  |        occur: "1972-07-01T00:00:00Z" (78796800) 0x876-0x87e (8)
0x870|                                          00 00|              ..|        corr: 1 0x87e-0x882 (4)
0x880|00 01                                          |..              |
     |                                               |                |      [1]{}: leap_second_record 0x882-0x88e (12)
0x880|      00 00 00 00 05 a4 ec 01                  |  ........      |        occur: "1973-01-01T00:00:01Z" (94694401) 0x882-0x88a (8)
0x880|                              00 00 00 02      |          ....  |        corr: 2 0x88a-0x88e (4)
     |                                               |                |      [2]{}: leap_second_record 0x88e-0x89a (12)
0x880|                                          00 00|              ..|        occur: "1974-01-01T00:00:02Z" (126230402) 0x88e-0x896 (8)
0x890|00 00 07 86 1f 82                              |......          |
0x890|                  00 00 00 03                  |      ....      |        corr: 3 0x896-0x89a (4)
     |                                               |                |      [3]{}: leap_second_record 0x89a-0x8a6 (12)
0x890|                              00 00 00 00 09 67|          .....g|        occur: "1975-01-01T00:00:03Z" (157766403) 0x89a-0x8a2 (8)
0x8a0|53 03                                          |S.              |
0x8a0|      00 00 00 04                              |  ....          |        corr: 4 0x8a2-0x8a6 (4)
     |                                               |                |      [4]{}: leap_second_record 0x8a6-0x8b2 (12)
0x8a0|                  00 00 00 00 0b 48 86 84      |      .....H..  |        occur: "1976-01-01T00:00:04Z" (189302404) 0x8a6-0x8ae (8)
0x8a0|                                          00 00|              ..|        corr: 5 0x8ae-0x8b2 (4)
0x8b0|00 05                                          |..              |
     |                                               |                |      [5]{}: leap_second_record 0x8b2-0x8be (12)
0x8b0|      00 00 00 00 0d 2b 0b 85                  |  .....+..      |        occur: "1977-01-01T00:00:05Z" (220924805) 0x8b2-0x8ba (8)
0x8b0|                              00 00 00 06      |          ....  |        corr: 6 0x8ba-0x8be (4)
     |                                               |                |      [6]{}: leap_second_record 0x8be-0x8ca (12)
0x8b0|                                          00 00|              ..|        occur: "1978-01-01T00:00:06Z" (252460806) 0x8be-0x8c6 (8)
0x8c0|00 00 0f 0c 3f 06                              |....?.          |
0x8c0|                  00 00 00 07                  |      ....      |        corr: 7 0x8c6-0x8ca (4)
     |                                               |                |      [7]{}: leap_second_record 0x8ca-0x8d6 (12)
0x8c0|                              00 00 00 00 10 ed|          ......|        occur: "1979-01-01T00:00:07Z" (283996807) 0x8ca-0x8d2 (8)
0x8d0|72 87                                          |r.              |
0x8d0|      00 00 00 08                              |  ....          |        corr: 8 0x8d2-0x8d6 (4)
     |                                               |                |      [8]{}: leap_second_record 0x8d6-0x8e2 (12)
0x8d0|                  00 00 00 00 12 ce a6 08      |      ........  |        occur: "1980-01-01T00:00:08Z" (315532808) 0x8d6-0x8de (8)
0x8d0|                                          00 00|              ..|        corr: 9 0x8de-0x8e2 (4)
0x8e0|00 09                                          |..              |
     |                                               |                |      [9]{}: leap_second_record 0x8e2-0x8ee (12)
0x8e0|      00 00 00 00 15 9f ca 89                  |  ........      |        occur: "1981-07-01T00:00:09Z" (362793609) 0x8e2-0x8ea (8)
0x8e0|                              00 00 00 0a      |          ....  |        corr: 10 0x8ea-0x8ee (4)
     |                                               |                |      [10]{}: leap_second_record 0x8ee-0x8fa (12)
0x8e0|                                          00 00|              ..|        occur: "1982-07-01T00:00:10Z" (394329610) 0x8ee-0x8f6 (8)
0x8f0|00 00 17 80 fe 0a                              |......          |
0x8f0|                  00 00 00 0b                  |      ....      |        corr: 11 0x8f6-0x8fa (4)
     |                                               |                |      [11]{}: leap_second_record 0x8fa-0x906 (12)
0x8f0|                              00 00 00 00 19 62|          .....b|        occur: "1983-07-01T00:00:11Z" (425865611) 0x8fa-0x902 (8)
0x900|31 8b                                          |1.              |
0x900|      00 00 00 0c                              |  ....          |        corr: 12 0x902-0x906 (4)
     |                                               |                |      [12]{}: leap_second_record 0x906-0x912 (12)
0x900|                  00 00 00 00 1d 25 ea 0c      |      .....%..  |        occur: "1985-07-01T00:00:12Z" (489024012) 0x906-0x90e (8)
0x900|                                          00 00|              ..|        corr: 13 0x90e-0x912 (4)
0x910|00 0d                                          |..              |
     |                                               |                |      [13]{}: leap_second_record 0x912-0x91e (12)
0x910|      00 00 00 00 21 da e5 0d                  |  ....!...      |        occur: "1988-01-01T00:00:13Z" (567993613) 0x912-0x91a (8)
0x910|                              00 00 00 0e      |          ....  |        corr: 14 0x91a-0x91e (4)
     |                                               |                |      [14]{}: leap_second_record 0x91e-0x92a (12)
0x910|                                          00 00|              ..|        occur: "1990-01-01T00:00:14Z" (631152014) 0x91e-0x926 (8)
0x920|00 00 25 9e 9d 8e                              |..%...          |
0x920|                  00 00 00 0f                  |      ....      |        corr: 15 0x926-0x92a (4)
     |                                               |                |      [15]{}: leap_second_record 0x92a-0x936 (12)
0x920|                              00 00 00 00 27 7f|          ....'.|        occur: "1991-01-01T00:00:15Z" (662688015) 0x92a-0x932 (8)
0x930|d1 0f                                          |..              |
0x930|      00 00 00 10                              |  ....          |        corr: 16 0x932-0x936 (4)
     |                                               |                |      [16]{}: leap_second_record 0x936-0x942 (12)
0x930|                  00 00 00 00 2a 50 f5 90      |      ....*P..  |        occur: "1992-07-01T00:00:16Z" (709948816) 0x936-0x93e (8)
0x930|                                          00 00|              ..|        corr: 17 0x93e-0x942 (4)
0x940|00 11                                          |..              |
     |                                               |                |      [17]{}: leap_second_record 0x942-0x94e (12)
0x940|      00 00 00 00 2c 32 29 11                  |  ....,2).      |        occur: "1993-07-01T00:00:17Z" (741484817) 0x942-0x94a (8)
0x940|                              00 00 00 12      |          ....  |        corr: 18 0x94a-0x94e (4)
     |                                               |                |      [18]{}: leap_second_record 0x94e-0x95a (12)
0x940|                                          00 00|              ..|        occur: "1994-07-01T00:00:18Z" (773020818) 0x94e-0x956 (8)
0x950|00 00 2e 13 5c 92                              |....\.          |
0x950|                  00 00 00 13                  |      ....      |        corr: 19 0x956-0x95a (4)
     |                                               |                |      [19]{}: leap_second_record 0x95a-0x966 (12)
0x950|                              00 00 00 00 30 e7|          ....0.|        occur: "1996-01-01T00:00:19Z" (820454419) 0x95a-0x962 (8)
0x960|24 13                                          |$.              |
0x960|      00 00 00 14                              |  ....          |        corr: 20 0x962-0x966 (4)
     |                                               |                |      [20]{}: leap_second_record 0x966-0x972 (12)
0x960|                  00 00 00 00 33 b8 48 94      |      ....3.H.  |        occur: "1997-07-01T00:00:20Z" (867715220) 0x966-0x96e (8)
0x960|                                          00 00|              ..|        corr: 21 0x96e-0x972 (4)
0x970|00 15                                          |..              |
     |                                               |                |      [21]{}: leap_second_record 0x972-0x97e (12)
0x970|      00 00 00 00 36 8c 10 15                  |  ....6...      |        occur: "1999-01-01T00:00:21Z" (915148821) 0x972-0x97a (8)
0x970|                              00 00 00 16      |          ....  |        corr: 22 0x97a-0x97e (4)
     |                                               |                |      [22]{}: leap_second_record 0x97e-0x98a (12)
0x970|                                          00 00|              ..|        occur: "2006-01-01T00:00:22Z" (1136073622) 0x97e-0x986 (8)
0x980|00 00 43 b7 1b 96                              |..C...          |
0x980|                  00 00 00 17                  |      ....      |        corr: 23 0x986-0x98a (4)
     |                                               |                |      [23]{}: leap_second_record 0x98a-0x996 (12)
0x980|                              00 00 00 00 49 5c|          ....I\|        occur: "2009-01-01T00:00:23Z" (1230768023) 0x98a-0x992 (8)
0x990|07 97                                          |..              |
0x990|      00 00 00 18                              |  ....          |        corr: 24 0x992-0x996 (4)
     |                                               |                |      [24]{}: leap_second_record 0x996-0x9a2 (12)
0x990|                  00 00 00 00 4f ef 93 18      |      ....O...  |        occur: "2012-07-01T00:00:24Z" (1341100824) 0x996-0x99e (8)
0x990|                                          00 00|              ..|        corr: 25 0x99e-0x9a2 (4)
0x9a0|00 19                                          |..              |
     |                                               |                |      [25]{}: leap_second_record 0x9a2-0x9ae (12)
0x9a0|      00 00 00 00 55 93 2d 99                  |  ....U.-.      |        occur: "2015-07-01T00:00:25Z" (1435708825) 0x9a2-0x9aa (8)
0x9a0|                              00 00 00 1a      |          ....  |        corr: 26 0x9aa-0x9ae (4)
     |                                               |                |      [26]{}: leap_second_record 0x9ae-0x9ba (12)
0x9a0|                                          00 00|              ..|        occur: "2017-01-01T00:00:26Z" (1483228826) 0x9ae-0x9b6 (8)
0x9b0|00 00 58 68 46 9a                              |..XhF.          |
0x9b0|                  00 00 00 1b                  |      ....      |        corr: 27 0x9b6-0x9ba (4)
     |                                               |                |    standard_wall_indicators[0:9]: 0x9ba-0x9c3 (9)
0x9b0|                              00               |          .     |      [0]: 0 standard_wall_indicator (valid) 0x9ba-0x9bb (1)
0x9b0|                                 00            |           .    |      [1]: 0 standard_wall_indicator (valid) 0x9bb-0x9bc (1)
0x9b0|                                    01         |            .   |      [2]: 1 standard_wall_indicator (valid) 0x9bc-0x9bd (1)
0x9b0|                                       01      |             .  |      [3]: 1 standard_wall_indicator (valid) 0x9bd-0x9be (1)
0x9b0|                                          01   |              . |      [4]: 1 standard_wall_indicator (valid) 0x9be-0x9bf (1)
0x9b0|                                             00|               .|      [5]: 0 standard_wall_indicator (valid) 0x9bf-0x9c0 (1)
0x9c0|00                                             |.               |      [6]: 0 standard_wall_indicator (valid) 0x9c0-0x9c1 (1)
0x9c0|   01                                          | .              |      [7]: 1 standard_wall_indicator (valid) 0x9c1-0x9c2 (1)
0x9c0|      01                                       |  .             |      [8]: 1 standard_wall_indicator (valid) 0x9c2-0x9c3 (1)
     |                                               |                |    ut_local_indicators[0:9]: 0x9c3-0x9cc (9)
0x9c0|         00                                    |   .            |      [0]: 0 ut_local_indicator (valid) 0x9c3-0x9c4 (1)
0x9c0|            00                                 |    .           |      [1]: 0 ut_local_indicator (valid) 0x9c4-0x9c5 (1)
0x9c0|               01                              |     .          |      [2]: 1 ut_local_indicator (valid) 0x9c5-0x9c6 (1)
0x9c0|                  01                           |      .         |      [3]: 1 ut_local_indicator (valid) 0x9c6-0x9c7 (1)
0x9c0|                     01                        |       .        |      [4]: 1 ut_local_indicator (valid) 0x9c7-0x9c8 (1)
0x9c0|                        00                     |        .       |      [5]: 0 ut_local_indicator (valid) 0x9c8-0x9c9 (1)
0x9c0|                           00                  |         .      |      [6]: 0 ut_local_indicator (valid) 0x9c9-0x9ca (1)
0x9c0|                              00               |          .     |      [7]: 0 ut_local_indicator (valid) 0x9ca-0x9cb (1)
0x9c0|                                 00            |           .    |      [8]: 0 ut_local_indicator (valid) 0x9cb-0x9cc (1)
     |                                               |                |  footer{}: 0x9cc-0x9ce (2)
0x9c0|                                    0a         |            .   |    nl1: 10 (valid) 0x9cc-0x9cd (1)
     |                                               |                |    tz_string: "" 0x9cd-0x9cd (0)
0x9c0|                                       0a|     |             .| |    nl2: 10 (valid) 0x9cd-0x9ce (1)
