$ fq -d tzif dv Johannesburg
    |00 01 02 03 04 05 06 07 08 09 0a 0b 0c 0d 0e 0f|0123456789abcdef|.{}: Johannesburg (tzif) 0x0-0xf5.7 (246)
    |                                               |                |  v1header{}: 0x0-0x2b.7 (44)
0x00|54 5a 69 66                                    |TZif            |    magic: 0x545a6966 (valid) 0x0-0x3.7 (4)
0x00|            32                                 |    2           |    ver: "2" (0x32) (valid) 0x4-0x4.7 (1)
0x00|               00 00 00 00 00 00 00 00 00 00 00|     ...........|    reserved: raw bits 0x5-0x13.7 (15)
0x10|00 00 00 00                                    |....            |
0x10|            00 00 00 00                        |    ....        |    isutcnt: 0 0x14-0x17.7 (4)
0x10|                        00 00 00 00            |        ....    |    isstdcnt: 0 0x18-0x1b.7 (4)
0x10|                                    00 00 00 00|            ....|    leapcnt: 0 0x1c-0x1f.7 (4)
0x20|00 00 00 06                                    |....            |    timecnt: 6 0x20-0x23.7 (4)
0x20|            00 00 00 04                        |    ....        |    typecnt: 4 0x24-0x27.7 (4)
0x20|                        00 00 00 09            |        ....    |    charcnt: 9 0x28-0x2b.7 (4)
    |                                               |                |  v1datablock{}: 0x2c-0x6a.7 (63)
    |                                               |                |    transition_times[0:6]: 0x2c-0x43.7 (24)
0x20|                                    80 00 00 00|            ....|      [0]: "1901-12-13T20:45:52Z" (-2147483648) transition_time 0x2c-0x2f.7 (4)
0x30|82 46 cf 68                                    |.F.h            |      [1]: "1903-02-28T22:30:00Z" (-2109288600) transition_time 0x30-0x33.7 (4)
0x30|            cc ae 8c 80                        |    ....        |      [2]: "1942-09-20T00:00:00Z" (-860976000) transition_time 0x34-0x37.7 (4)
0x30|                        cd 9e 6f 70            |        ..op    |      [3]: "1943-03-20T23:00:00Z" (-845254800) transition_time 0x38-0x3b.7 (4)
0x30|                                    ce 8e 6e 80|            ..n.|      [4]: "1943-09-19T00:00:00Z" (-829526400) transition_time 0x3c-0x3f.7 (4)
0x40|cf 7e 51 70                                    |.~Qp            |      [5]: "1944-03-18T23:00:00Z" (-813805200) transition_time 0x40-0x43.7 (4)
    |                                               |                |    transition_types[0:6]: 0x44-0x49.7 (6)
0x40|            01                                 |    .           |      [0]: 1 transition_type 0x44-0x44.7 (1)
0x40|               03                              |     .          |      [1]: 3 transition_type 0x45-0x45.7 (1)
0x40|                  02                           |      .         |      [2]: 2 transition_type 0x46-0x46.7 (1)
0x40|                     03                        |       .        |      [3]: 3 transition_type 0x47-0x47.7 (1)
0x40|                        02                     |        .       |      [4]: 2 transition_type 0x48-0x48.7 (1)
0x40|                           03                  |         .      |      [5]: 3 transition_type 0x49-0x49.7 (1)
    |                                               |                |    local_time_type_records[0:4]: 0x4a-0x61.7 (24)
    |                                               |                |      [0]{}: local_time_type 0x4a-0x4f.7 (6)
0x40|                              00 00 1a 40      |          ...@  |        utoff: 6720 (valid) 0x4a-0x4d.7 (4)
0x40|                                          00   |              . |        dst: 0 (valid) 0x4e-0x4e.7 (1)
0x40|                                             00|               .|        idx: 0 (valid) 0x4f-0x4f.7 (1)
    |                                               |                |      [1]{}: local_time_type 0x50-0x55.7 (6)
0x50|00 00 15 18                                    |....            |        utoff: 5400 (valid) 0x50-0x53.7 (4)
0x50|            00                                 |    .           |        dst: 0 (valid) 0x54-0x54.7 (1)
0x50|               04                              |     .          |        idx: 4 (valid) 0x55-0x55.7 (1)
    |                                               |                |      [2]{}: local_time_type 0x56-0x5b.7 (6)
0x50|                  00 00 2a 30                  |      ..*0      |        utoff: 10800 (valid) 0x56-0x59.7 (4)
0x50|                              01               |          .     |        dst: 1 (valid) 0x5a-0x5a.7 (1)
0x50|                                 04            |           .    |        idx: 4 (valid) 0x5b-0x5b.7 (1)
    |                                               |                |      [3]{}: local_time_type 0x5c-0x61.7 (6)
0x50|                                    00 00 1c 20|            ... |        utoff: 7200 (valid) 0x5c-0x5f.7 (4)
0x60|00                                             |.               |        dst: 0 (valid) 0x60-0x60.7 (1)
0x60|   04                                          | .              |        idx: 4 (valid) 0x61-0x61.7 (1)
    |                                               |                |    time_zone_designations[0:2]: 0x62-0x6a.7 (9)
0x60|      4c 4d 54 00                              |  LMT.          |      [0]: "LMT" time_zone_designation 0x62-0x65.7 (4)
0x60|                  53 41 53 54 00               |      SAST.     |      [1]: "SAST" time_zone_designation 0x66-0x6a.7 (5)
    |                                               |                |    leap_second_records[0:0]: 0x6b-NA (0)
    |                                               |                |    standard_wall_indicators[0:0]: 0x6b-NA (0)
    |                                               |                |    ut_local_indicators[0:0]: 0x6b-NA (0)
    |                                               |                |  v2plusheader{}: 0x6b-0x96.7 (44)
0x60|                                 54 5a 69 66   |           TZif |    magic: 0x545a6966 (valid) 0x6b-0x6e.7 (4)
0x60|                                             32|               2|    ver: "2" (0x32) (valid) 0x6f-0x6f.7 (1)
0x70|00 00 00 00 00 00 00 00 00 00 00 00 00 00 00   |............... |    reserved: raw bits 0x70-0x7e.7 (15)
0x70|                                             00|               .|    isutcnt: 0 0x7f-0x82.7 (4)
0x80|00 00 00                                       |...             |
0x80|         00 00 00 00                           |   ....         |    isstdcnt: 0 0x83-0x86.7 (4)
0x80|                     00 00 00 00               |       ....     |    leapcnt: 0 0x87-0x8a.7 (4)
0x80|                                 00 00 00 06   |           .... |    timecnt: 6 0x8b-0x8e.7 (4)
0x80|                                             00|               .|    typecnt: 4 0x8f-0x92.7 (4)
0x90|00 00 04                                       |...             |
0x90|         00 00 00 09                           |   ....         |    charcnt: 9 0x93-0x96.7 (4)
    |                                               |                |  v2plusdatablock{}: 0x97-0xed.7 (87)
    |                                               |                |    transition_times[0:6]: 0x97-0xc6.7 (48)
0x90|                     ff ff ff ff 6d 7b 41 40   |       ....m{A@ |      [0]: "1892-02-07T22:08:00Z" (-2458173120) transition_time 0x97-0x9e.7 (8)
0x90|                                             ff|               .|      [1]: "1903-02-28T22:30:00Z" (-2109288600) transition_time 0x9f-0xa6.7 (8)
0xa0|ff ff ff 82 46 cf 68                           |....F.h         |
0xa0|                     ff ff ff ff cc ae 8c 80   |       ........ |      [2]: "1942-09-20T00:00:00Z" (-860976000) transition_time 0xa7-0xae.7 (8)
0xa0|                                             ff|               .|      [3]: "1943-03-20T23:00:00Z" (-845254800) transition_time 0xaf-0xb6.7 (8)
0xb0|ff ff ff cd 9e 6f 70                           |.....op         |
0xb0|                     ff ff ff ff ce 8e 6e 80   |       ......n. |      [4]: "1943-09-19T00:00:00Z" (-829526400) transition_time 0xb7-0xbe.7 (8)
0xb0|                                             ff|               .|      [5]: "1944-03-18T23:00:00Z" (-813805200) transition_time 0xbf-0xc6.7 (8)
0xc0|ff ff ff cf 7e 51 70                           |....~Qp         |
    |                                               |                |    transition_types[0:6]: 0xc7-0xcc.7 (6)
0xc0|                     01                        |       .        |      [0]: 1 transition_type 0xc7-0xc7.7 (1)
0xc0|                        03                     |        .       |      [1]: 3 transition_type 0xc8-0xc8.7 (1)
0xc0|                           02                  |         .      |      [2]: 2 transition_type 0xc9-0xc9.7 (1)
0xc0|                              03               |          .     |      [3]: 3 transition_type 0xca-0xca.7 (1)
0xc0|                                 02            |           .    |      [4]: 2 transition_type 0xcb-0xcb.7 (1)
0xc0|                                    03         |            .   |      [5]: 3 transition_type 0xcc-0xcc.7 (1)
    |                                               |                |    local_time_type_records[0:4]: 0xcd-0xe4.7 (24)
    |                                               |                |      [0]{}: local_time_type 0xcd-0xd2.7 (6)
0xc0|                                       00 00 1a|             ...|        utoff: 6720 (valid) 0xcd-0xd0.7 (4)
0xd0|40                                             |@               |
0xd0|   00                                          | .              |        dst: 0 (valid) 0xd1-0xd1.7 (1)
0xd0|      00                                       |  .             |        idx: 0 (valid) 0xd2-0xd2.7 (1)
    |                                               |                |      [1]{}: local_time_type 0xd3-0xd8.7 (6)
0xd0|         00 00 15 18                           |   ....         |        utoff: 5400 (valid) 0xd3-0xd6.7 (4)
0xd0|                     00                        |       .        |        dst: 0 (valid) 0xd7-0xd7.7 (1)
0xd0|                        04                     |        .       |        idx: 4 (valid) 0xd8-0xd8.7 (1)
    |                                               |                |      [2]{}: local_time_type 0xd9-0xde.7 (6)
0xd0|                           00 00 2a 30         |         ..*0   |        utoff: 10800 (valid) 0xd9-0xdc.7 (4)
0xd0|                                       01      |             .  |        dst: 1 (valid) 0xdd-0xdd.7 (1)
0xd0|                                          04   |              . |        idx: 4 (valid) 0xde-0xde.7 (1)
    |                                               |                |      [3]{}: local_time_type 0xdf-0xe4.7 (6)
0xd0|                                             00|               .|        utoff: 7200 (valid) 0xdf-0xe2.7 (4)
0xe0|00 1c 20                                       |..              |
0xe0|         00                                    |   .            |        dst: 0 (valid) 0xe3-0xe3.7 (1)
0xe0|            04                                 |    .           |        idx: 4 (valid) 0xe4-0xe4.7 (1)
    |                                               |                |    time_zone_designations[0:2]: 0xe5-0xed.7 (9)
0xe0|               4c 4d 54 00                     |     LMT.       |      [0]: "LMT" time_zone_designation 0xe5-0xe8.7 (4)
0xe0|                           53 41 53 54 00      |         SAST.  |      [1]: "SAST" time_zone_designation 0xe9-0xed.7 (5)
    |                                               |                |    leap_second_records[0:0]: 0xee-NA (0)
    |                                               |                |    standard_wall_indicators[0:0]: 0xee-NA (0)
    |                                               |                |    ut_local_indicators[0:0]: 0xee-NA (0)
    |                                               |                |  footer{}: 0xee-0xf5.7 (8)
0xe0|                                          0a   |              . |    nl1: 10 (valid) 0xee-0xee.7 (1)
0xe0|                                             53|               S|    tz_string: "SAST-2" 0xef-0xf4.7 (6)
0xf0|41 53 54 2d 32                                 |AST-2           |
0xf0|               0a|                             |     .|         |    nl2: 10 (valid) 0xf5-0xf5.7 (1)
