$ fq -d tzif dv Jujuy
     |00 01 02 03 04 05 06 07 08 09 0a 0b 0c 0d 0e 0f|0123456789abcdef|.{}: Jujuy (tzif) 0x0-0x62d.7 (1582)
     |                                               |                |  v1header{}: 0x0-0x2b.7 (44)
0x000|54 5a 69 66                                    |TZif            |    magic: 0x545a6966 (valid) 0x0-0x3.7 (4)
0x000|            32                                 |    2           |    ver: "2" (0x32) (valid) 0x4-0x4.7 (1)
0x000|               00 00 00 00 00 00 00 00 00 00 00|     ...........|    reserved: raw bits 0x5-0x13.7 (15)
0x010|00 00 00 00                                    |....            |
0x010|            00 00 00 00                        |    ....        |    isutcnt: 0 0x14-0x17.7 (4)
0x010|                        00 00 00 00            |        ....    |    isstdcnt: 0 0x18-0x1b.7 (4)
0x010|                                    00 00 00 1b|            ....|    leapcnt: 27 0x1c-0x1f.7 (4)
0x020|00 00 00 3c                                    |...<            |    timecnt: 60 0x20-0x23.7 (4)
0x020|            00 00 00 06                        |    ....        |    typecnt: 6 0x24-0x27.7 (4)
0x020|                        00 00 00 14            |        ....    |    charcnt: 20 0x28-0x2b.7 (4)
     |                                               |                |  v1datablock{}: 0x2c-0x267.7 (572)
     |                                               |                |    transition_times[0:60]: 0x2c-0x11b.7 (240)
0x020|                                    80 00 00 00|            ....|      [0]: "1901-12-13T20:45:52Z" (-2147483648) transition_time 0x2c-0x2f.7 (4)
0x030|a2 92 8f 30                                    |...0            |      [1]: "1920-05-01T04:16:48Z" (-1567453392) transition_time 0x30-0x33.7 (4)
0x030|            b6 7b 52 40                        |    .{R@        |      [2]: "1930-12-01T04:00:00Z" (-1233432000) transition_time 0x34-0x37.7 (4)
0x030|                        b7 1a c9 b0            |        ....    |      [3]: "1931-04-01T03:00:00Z" (-1222981200) transition_time 0x38-0x3b.7 (4)
0x030|                                    b8 1e 8f 40|            ...@|      [4]: "1931-10-15T04:00:00Z" (-1205956800) transition_time 0x3c-0x3f.7 (4)
0x040|b8 d4 70 30                                    |..p0            |      [5]: "1932-03-01T03:00:00Z" (-1194037200) transition_time 0x40-0x43.7 (4)
0x040|            ba 17 7d c0                        |    ..}.        |      [6]: "1932-11-01T04:00:00Z" (-1172865600) transition_time 0x44-0x47.7 (4)
0x040|                        ba b5 a3 b0            |        ....    |      [7]: "1933-03-01T03:00:00Z" (-1162501200) transition_time 0x48-0x4b.7 (4)
0x040|                                    bb f8 b1 40|            ...@|      [8]: "1933-11-01T04:00:00Z" (-1141329600) transition_time 0x4c-0x4f.7 (4)
0x050|bc 96 d7 30                                    |...0            |      [9]: "1934-03-01T03:00:00Z" (-1130965200) transition_time 0x50-0x53.7 (4)
0x050|            bd d9 e4 c0                        |    ....        |      [10]: "1934-11-01T04:00:00Z" (-1109793600) transition_time 0x54-0x57.7 (4)
0x050|                        be 78 0a b0            |        .x..    |      [11]: "1935-03-01T03:00:00Z" (-1099429200) transition_time 0x58-0x5b.7 (4)
0x050|                                    bf bb 18 40|            ...@|      [12]: "1935-11-01T04:00:00Z" (-1078257600) transition_time 0x5c-0x5f.7 (4)
0x060|c0 5a 8f b0                                    |.Z..            |      [13]: "1936-03-01T03:00:00Z" (-1067806800) transition_time 0x60-0x63.7 (4)
0x060|            c1 9d 9d 40                        |    ...@        |      [14]: "1936-11-01T04:00:00Z" (-1046635200) transition_time 0x64-0x67.7 (4)
0x060|                        c2 3b c3 30            |        .;.0    |      [15]: "1937-03-01T03:00:00Z" (-1036270800) transition_time 0x68-0x6b.7 (4)
0x060|                                    c3 7e d0 c0|            .~..|      [16]: "1937-11-01T04:00:00Z" (-1015099200) transition_time 0x6c-0x6f.7 (4)
0x070|c4 1c f6 b0                                    |....            |      [17]: "1938-03-01T03:00:00Z" (-1004734800) transition_time 0x70-0x73.7 (4)
0x070|            c5 60 04 40                        |    .`.@        |      [18]: "1938-11-01T04:00:00Z" (-983563200) transition_time 0x74-0x77.7 (4)
0x070|                        c5 fe 2a 30            |        ..*0    |      [19]: "1939-03-01T03:00:00Z" (-973198800) transition_time 0x78-0x7b.7 (4)
0x070|                                    c7 41 37 c0|            .A7.|      [20]: "1939-11-01T04:00:00Z" (-952027200) transition_time 0x7c-0x7f.7 (4)
0x080|c7 e0 af 30                                    |...0            |      [21]: "1940-03-01T03:00:00Z" (-941576400) transition_time 0x80-0x83.7 (4)
0x080|            c8 81 94 40                        |    ...@        |      [22]: "1940-07-01T04:00:00Z" (-931032000) transition_time 0x84-0x87.7 (4)
0x080|                        ca 4d a1 b0            |        .M..    |      [23]: "1941-06-15T03:00:00Z" (-900882000) transition_time 0x88-0x8b.7 (4)
0x080|                                    ca ee 86 c0|            ....|      [24]: "1941-10-15T04:00:00Z" (-890337600) transition_time 0x8c-0x8f.7 (4)
0x090|ce 4d ff 30                                    |.M.0            |      [25]: "1943-08-01T03:00:00Z" (-833749200) transition_time 0x90-0x93.7 (4)
0x090|            ce b0 ed c0                        |    ....        |      [26]: "1943-10-15T04:00:00Z" (-827265600) transition_time 0x94-0x97.7 (4)
0x090|                        d3 29 35 b0            |        .)5.    |      [27]: "1946-03-01T03:00:00Z" (-752274000) transition_time 0x98-0x9b.7 (4)
0x090|                                    d4 43 64 c0|            .Cd.|      [28]: "1946-10-01T04:00:00Z" (-733780800) transition_time 0x9c-0x9f.7 (4)
0x0a0|f4 3d 08 30                                    |.=.0            |      [29]: "1963-10-01T03:00:00Z" (-197326800) transition_time 0xa0-0xa3.7 (4)
0x0a0|            f4 9f f6 c0                        |    ....        |      [30]: "1963-12-15T04:00:00Z" (-190843200) transition_time 0xa4-0xa7.7 (4)
0x0a0|                        f5 05 6c 30            |        ..l0    |      [31]: "1964-03-01T03:00:00Z" (-184194000) transition_time 0xa8-0xab.7 (4)
0x0a0|                                    f6 32 10 40|            .2.@|      [32]: "1964-10-15T04:00:00Z" (-164491200) transition_time 0xac-0xaf.7 (4)
0x0b0|f6 e6 9f b0                                    |....            |      [33]: "1965-03-01T03:00:00Z" (-152658000) transition_time 0xb0-0xb3.7 (4)
0x0b0|            f8 13 43 c0                        |    ..C.        |      [34]: "1965-10-15T04:00:00Z" (-132955200) transition_time 0xb4-0xb7.7 (4)
0x0b0|                        f8 c7 d3 30            |        ...0    |      [35]: "1966-03-01T03:00:00Z" (-121122000) transition_time 0xb8-0xbb.7 (4)
0x0b0|                                    f9 f4 77 40|            ..w@|      [36]: "1966-10-15T04:00:00Z" (-101419200) transition_time 0xbc-0xbf.7 (4)
0x0c0|fa d3 36 b0                                    |..6.            |      [37]: "1967-04-02T03:00:00Z" (-86821200) transition_time 0xc0-0xc3.7 (4)
0x0c0|            fb c3 35 c0                        |    ..5.        |      [38]: "1967-10-01T04:00:00Z" (-71092800) transition_time 0xc4-0xc7.7 (4)
0x0c0|                        fc bc 53 30            |        ..S0    |      [39]: "1968-04-07T03:00:00Z" (-54766800) transition_time 0xc8-0xcb.7 (4)
0x0c0|                                    fd ac 52 40|            ..R@|      [40]: "1968-10-06T04:00:00Z" (-39038400) transition_time 0xcc-0xcf.7 (4)
0x0d0|fe 9c 35 30                                    |..50            |      [41]: "1969-04-06T03:00:00Z" (-23317200) transition_time 0xd0-0xd3.7 (4)
0x0d0|            ff 8c 34 40                        |    ..4@        |      [42]: "1969-10-05T04:00:00Z" (-7588800) transition_time 0xd4-0xd7.7 (4)
0x0d0|                        07 a3 4a b3            |        ..J.    |      [43]: "1974-01-23T03:00:03Z" (128142003) transition_time 0xd8-0xdb.7 (4)
0x0d0|                                    08 24 6f a3|            .$o.|      [44]: "1974-05-01T02:00:03Z" (136605603) transition_time 0xdc-0xdf.7 (4)
0x0e0|23 94 b5 be                                    |#...            |      [45]: "1988-12-01T03:00:14Z" (596948414) transition_time 0xe0-0xe3.7 (4)
0x0e0|            24 10 94 ae                        |    $...        |      [46]: "1989-03-05T02:00:14Z" (605066414) transition_time 0xe4-0xe7.7 (4)
0x0e0|                        25 37 f2 be            |        %7..    |      [47]: "1989-10-15T03:00:14Z" (624423614) transition_time 0xe8-0xeb.7 (4)
0x0e0|                                    25 f0 76 af|            %.v.|      [48]: "1990-03-04T02:00:15Z" (636516015) transition_time 0xec-0xef.7 (4)
0x0f0|27 2a 57 cf                                    |'*W.            |      [49]: "1990-10-28T04:00:15Z" (657086415) transition_time 0xf0-0xf3.7 (4)
0x0f0|            27 e2 db c0                        |    '...        |      [50]: "1991-03-17T03:00:16Z" (669178816) transition_time 0xf4-0xf7.7 (4)
0x0f0|                        28 ee 8a 50            |        (..P    |      [51]: "1991-10-06T04:00:16Z" (686721616) transition_time 0xf8-0xfb.7 (4)
0x0f0|                                    29 b0 3a b0|            ).:.|      [52]: "1992-03-01T02:00:16Z" (699415216) transition_time 0xfc-0xff.7 (4)
0x100|2a e0 d3 41                                    |*..A            |      [53]: "1992-10-18T03:00:17Z" (719377217) transition_time 0x100-0x103.7 (4)
0x100|            2b 99 57 31                        |    +.W1        |      [54]: "1993-03-07T02:00:17Z" (731469617) transition_time 0x104-0x107.7 (4)
0x100|                        37 f6 c6 c6            |        7...    |      [55]: "1999-10-03T03:00:22Z" (938919622) transition_time 0x108-0x10b.7 (4)
0x100|                                    38 bf 2a c6|            8.*.|      [56]: "2000-03-03T03:00:22Z" (952052422) transition_time 0x10c-0x10f.7 (4)
0x110|47 77 09 c7                                    |Gw..            |      [57]: "2007-12-30T03:00:23Z" (1198983623) transition_time 0x110-0x113.7 (4)
0x110|            47 dc 7f 37                        |    G..7        |      [58]: "2008-03-16T02:00:23Z" (1205632823) transition_time 0x114-0x117.7 (4)
0x110|                        64 9b 78 1b            |        d.x.    |      [59]: "2023-06-28T00:00:27Z" (1687910427) transition_time 0x118-0x11b.7 (4)
     |                                               |                |    transition_types[0:60]: 0x11c-0x157.7 (60)
0x110|                                    01         |            .   |      [0]: 1 transition_type 0x11c-0x11c.7 (1)
0x110|                                       02      |             .  |      [1]: 2 transition_type 0x11d-0x11d.7 (1)
0x110|                                          03   |              . |      [2]: 3 transition_type 0x11e-0x11e.7 (1)
0x110|                                             02|               .|      [3]: 2 transition_type 0x11f-0x11f.7 (1)
0x120|03                                             |.               |      [4]: 3 transition_type 0x120-0x120.7 (1)
0x120|   02                                          | .              |      [5]: 2 transition_type 0x121-0x121.7 (1)
0x120|      03                                       |  .             |      [6]: 3 transition_type 0x122-0x122.7 (1)
0x120|         02                                    |   .            |      [7]: 2 transition_type 0x123-0x123.7 (1)
0x120|            03                                 |    .           |      [8]: 3 transition_type 0x124-0x124.7 (1)
0x120|               02                              |     .          |      [9]: 2 transition_type 0x125-0x125.7 (1)
0x120|                  03                           |      .         |      [10]: 3 transition_type 0x126-0x126.7 (1)
0x120|                     02                        |       .        |      [11]: 2 transition_type 0x127-0x127.7 (1)
0x120|                        03                     |        .       |      [12]: 3 transition_type 0x128-0x128.7 (1)
0x120|                           02                  |         .      |      [13]: 2 transition_type 0x129-0x129.7 (1)
0x120|                              03               |          .     |      [14]: 3 transition_type 0x12a-0x12a.7 (1)
0x120|                                 02            |           .    |      [15]: 2 transition_type 0x12b-0x12b.7 (1)
0x120|                                    03         |            .   |      [16]: 3 transition_type 0x12c-0x12c.7 (1)
0x120|                                       02      |             .  |      [17]: 2 transition_type 0x12d-0x12d.7 (1)
0x120|                                          03   |              . |      [18]: 3 transition_type 0x12e-0x12e.7 (1)
0x120|                                             02|               .|      [19]: 2 transition_type 0x12f-0x12f.7 (1)
0x130|03                                             |.               |      [20]: 3 transition_type 0x130-0x130.7 (1)
0x130|   02                                          | .              |      [21]: 2 transition_type 0x131-0x131.7 (1)
0x130|      03                                       |  .             |      [22]: 3 transition_type 0x132-0x132.7 (1)
0x130|         02                                    |   .            |      [23]: 2 transition_type 0x133-0x133.7 (1)
0x130|            03                                 |    .           |      [24]: 3 transition_type 0x134-0x134.7 (1)
0x130|               02                              |     .          |      [25]: 2 transition_type 0x135-0x135.7 (1)
0x130|                  03                           |      .         |      [26]: 3 transition_type 0x136-0x136.7 (1)
0x130|                     02                        |       .        |      [27]: 2 transition_type 0x137-0x137.7 (1)
0x130|                        03                     |        .       |      [28]: 3 transition_type 0x138-0x138.7 (1)
0x130|                           02                  |         .      |      [29]: 2 transition_type 0x139-0x139.7 (1)
0x130|                              03               |          .     |      [30]: 3 transition_type 0x13a-0x13a.7 (1)
0x130|                                 02            |           .    |      [31]: 2 transition_type 0x13b-0x13b.7 (1)
0x130|                                    03         |            .   |      [32]: 3 transition_type 0x13c-0x13c.7 (1)
0x130|                                       02      |             .  |      [33]: 2 transition_type 0x13d-0x13d.7 (1)
0x130|                                          03   |              . |      [34]: 3 transition_type 0x13e-0x13e.7 (1)
0x130|                                             02|               .|      [35]: 2 transition_type 0x13f-0x13f.7 (1)
0x140|03                                             |.               |      [36]: 3 transition_type 0x140-0x140.7 (1)
0x140|   02                                          | .              |      [37]: 2 transition_type 0x141-0x141.7 (1)
0x140|      03                                       |  .             |      [38]: 3 transition_type 0x142-0x142.7 (1)
0x140|         02                                    |   .            |      [39]: 2 transition_type 0x143-0x143.7 (1)
0x140|            03                                 |    .           |      [40]: 3 transition_type 0x144-0x144.7 (1)
0x140|               02                              |     .          |      [41]: 2 transition_type 0x145-0x145.7 (1)
0x140|                  05                           |      .         |      [42]: 5 transition_type 0x146-0x146.7 (1)
0x140|                     04                        |       .        |      [43]: 4 transition_type 0x147-0x147.7 (1)
0x140|                        05                     |        .       |      [44]: 5 transition_type 0x148-0x148.7 (1)
0x140|                           04                  |         .      |      [45]: 4 transition_type 0x149-0x149.7 (1)
0x140|                              05               |          .     |      [46]: 5 transition_type 0x14a-0x14a.7 (1)
0x140|                                 04            |           .    |      [47]: 4 transition_type 0x14b-0x14b.7 (1)
0x140|                                    02         |            .   |      [48]: 2 transition_type 0x14c-0x14c.7 (1)
0x140|                                       03      |             .  |      [49]: 3 transition_type 0x14d-0x14d.7 (1)
0x140|                                          02   |              . |      [50]: 2 transition_type 0x14e-0x14e.7 (1)
0x140|                                             04|               .|      [51]: 4 transition_type 0x14f-0x14f.7 (1)
0x150|05                                             |.               |      [52]: 5 transition_type 0x150-0x150.7 (1)
0x150|   04                                          | .              |      [53]: 4 transition_type 0x151-0x151.7 (1)
0x150|      05                                       |  .             |      [54]: 5 transition_type 0x152-0x152.7 (1)
0x150|         03                                    |   .            |      [55]: 3 transition_type 0x153-0x153.7 (1)
0x150|            05                                 |    .           |      [56]: 5 transition_type 0x154-0x154.7 (1)
0x150|               04                              |     .          |      [57]: 4 transition_type 0x155-0x155.7 (1)
0x150|                  05                           |      .         |      [58]: 5 transition_type 0x156-0x156.7 (1)
0x150|                     05                        |       .        |      [59]: 5 transition_type 0x157-0x157.7 (1)
     |                                               |                |    local_time_type_records[0:6]: 0x158-0x17b.7 (36)
     |                                               |                |      [0]{}: local_time_type 0x158-0x15d.7 (6)
0x150|                        ff ff c2 c8            |        ....    |        utoff: -15672 (valid) 0x158-0x15b.7 (4)
0x150|                                    00         |            .   |        dst: 0 (valid) 0x15c-0x15c.7 (1)
0x150|                                       00      |             .  |        idx: 0 (valid) 0x15d-0x15d.7 (1)
     |                                               |                |      [1]{}: local_time_type 0x15e-0x163.7 (6)
0x150|                                          ff ff|              ..|        utoff: -15408 (valid) 0x15e-0x161.7 (4)
0x160|c3 d0                                          |..              |
0x160|      00                                       |  .             |        dst: 0 (valid) 0x162-0x162.7 (1)
0x160|         04                                    |   .            |        idx: 4 (valid) 0x163-0x163.7 (1)
     |                                               |                |      [2]{}: local_time_type 0x164-0x169.7 (6)
0x160|            ff ff c7 c0                        |    ....        |        utoff: -14400 (valid) 0x164-0x167.7 (4)
0x160|                        00                     |        .       |        dst: 0 (valid) 0x168-0x168.7 (1)
0x160|                           08                  |         .      |        idx: 8 (valid) 0x169-0x169.7 (1)
     |                                               |                |      [3]{}: local_time_type 0x16a-0x16f.7 (6)
0x160|                              ff ff d5 d0      |          ....  |        utoff: -10800 (valid) 0x16a-0x16d.7 (4)
0x160|                                          01   |              . |        dst: 1 (valid) 0x16e-0x16e.7 (1)
0x160|                                             0c|               .|        idx: 12 (valid) 0x16f-0x16f.7 (1)
     |                                               |                |      [4]{}: local_time_type 0x170-0x175.7 (6)
0x170|ff ff e3 e0                                    |....            |        utoff: -7200 (valid) 0x170-0x173.7 (4)
0x170|            01                                 |    .           |        dst: 1 (valid) 0x174-0x174.7 (1)
0x170|               10                              |     .          |        idx: 16 (valid) 0x175-0x175.7 (1)
     |                                               |                |      [5]{}: local_time_type 0x176-0x17b.7 (6)
0x170|                  ff ff d5 d0                  |      ....      |        utoff: -10800 (valid) 0x176-0x179.7 (4)
0x170|                              00               |          .     |        dst: 0 (valid) 0x17a-0x17a.7 (1)
0x170|                                 0c            |           .    |        idx: 12 (valid) 0x17b-0x17b.7 (1)
     |                                               |                |    time_zone_designations[0:5]: 0x17c-0x18f.7 (20)
0x170|                                    4c 4d 54 00|            LMT.|      [0]: "LMT" time_zone_designation 0x17c-0x17f.7 (4)
0x180|43 4d 54 00                                    |CMT.            |      [1]: "CMT" time_zone_designation 0x180-0x183.7 (4)
0x180|            2d 30 34 00                        |    -04.        |      [2]: "-04" time_zone_designation 0x184-0x187.7 (4)
0x180|                        2d 30 33 00            |        -03.    |      [3]: "-03" time_zone_designation 0x188-0x18b.7 (4)
0x180|                                    2d 30 32 00|            -02.|      [4]: "-02" time_zone_designation 0x18c-0x18f.7 (4)
     |                                               |                |    leap_second_records[0:27]: 0x190-0x267.7 (216)
     |                                               |                |      [0]{}: leap_second_record 0x190-0x197.7 (8)
0x190|04 b2 58 00                                    |..X.            |        occur: "1972-07-01T00:00:00Z" (78796800) 0x190-0x193.7 (4)
0x190|            00 00 00 01                        |    ....        |        corr: 1 0x194-0x197.7 (4)
     |                                               |                |      [1]{}: leap_second_record 0x198-0x19f.7 (8)
0x190|                        05 a4 ec 01            |        ....    |        occur: "1973-01-01T00:00:01Z" (94694401) 0x198-0x19b.7 (4)
0x190|                                    00 00 00 02|            ....|        corr: 2 0x19c-0x19f.7 (4)
     |                                               |                |      [2]{}: leap_second_record 0x1a0-0x1a7.7 (8)
0x1a0|07 86 1f 82                                    |....            |        occur: "1974-01-01T00:00:02Z" (126230402) 0x1a0-0x1a3.7 (4)
0x1a0|            00 00 00 03                        |    ....        |        corr: 3 0x1a4-0x1a7.7 (4)
     |                                               |                |      [3]{}: leap_second_record 0x1a8-0x1af.7 (8)
0x1a0|                        09 67 53 03            |        .gS.    |        occur: "1975-01-01T00:00:03Z" (157766403) 0x1a8-0x1ab.7 (4)
0x1a0|                                    00 00 00 04|            ....|        corr: 4 0x1ac-0x1af.7 (4)
     |                                               |                |      [4]{}: leap_second_record 0x1b0-0x1b7.7 (8)
0x1b0|0b 48 86 84                                    |.H..            |        occur: "1976-01-01T00:00:04Z" (189302404) 0x1b0-0x1b3.7 (4)
0x1b0|            00 00 00 05                        |    ....        |        corr: 5 0x1b4-0x1b7.7 (4)
     |                                               |                |      [5]{}: leap_second_record 0x1b8-0x1bf.7 (8)
0x1b0|                        0d 2b 0b 85            |        .+..    |        occur: "1977-01-01T00:00:05Z" (220924805) 0x1b8-0x1bb.7 (4)
0x1b0|                                    00 00 00 06|            ....|        corr: 6 0x1bc-0x1bf.7 (4)
     |                                               |                |      [6]{}: leap_second_record 0x1c0-0x1c7.7 (8)
0x1c0|0f 0c 3f 06                                    |..?.            |        occur: "1978-01-01T00:00:06Z" (252460806) 0x1c0-0x1c3.7 (4)
0x1c0|            00 00 00 07                        |    ....        |        corr: 7 0x1c4-0x1c7.7 (4)
     |                                               |                |      [7]{}: leap_second_record 0x1c8-0x1cf.7 (8)
0x1c0|                        10 ed 72 87            |        ..r.    |        occur: "1979-01-01T00:00:07Z" (283996807) 0x1c8-0x1cb.7 (4)
0x1c0|                                    00 00 00 08|            ....|        corr: 8 0x1cc-0x1cf.7 (4)
     |                                               |                |      [8]{}: leap_second_record 0x1d0-0x1d7.7 (8)
0x1d0|12 ce a6 08                                    |....            |        occur: "1980-01-01T00:00:08Z" (315532808) 0x1d0-0x1d3.7 (4)
0x1d0|            00 00 00 09                        |    ....        |        corr: 9 0x1d4-0x1d7.7 (4)
     |                                               |                |      [9]{}: leap_second_record 0x1d8-0x1df.7 (8)
0x1d0|                        15 9f ca 89            |        ....    |        occur: "1981-07-01T00:00:09Z" (362793609) 0x1d8-0x1db.7 (4)
0x1d0|                                    00 00 00 0a|            ....|        corr: 10 0x1dc-0x1df.7 (4)
     |                                               |                |      [10]{}: leap_second_record 0x1e0-0x1e7.7 (8)
0x1e0|17 80 fe 0a                                    |....            |        occur: "1982-07-01T00:00:10Z" (394329610) 0x1e0-0x1e3.7 (4)
0x1e0|            00 00 00 0b                        |    ....        |        corr: 11 0x1e4-0x1e7.7 (4)
     |                                               |                |      [11]{}: leap_second_record 0x1e8-0x1ef.7 (8)
0x1e0|                        19 62 31 8b            |        .b1.    |        occur: "1983-07-01T00:00:11Z" (425865611) 0x1e8-0x1eb.7 (4)
0x1e0|                                    00 00 00 0c|            ....|        corr: 12 0x1ec-0x1ef.7 (4)
     |                                               |                |      [12]{}: leap_second_record 0x1f0-0x1f7.7 (8)
0x1f0|1d 25 ea 0c                                    |.%..            |        occur: "1985-07-01T00:00:12Z" (489024012) 0x1f0-0x1f3.7 (4)
0x1f0|            00 00 00 0d                        |    ....        |        corr: 13 0x1f4-0x1f7.7 (4)
     |                                               |                |      [13]{}: leap_second_record 0x1f8-0x1ff.7 (8)
0x1f0|                        21 da e5 0d            |        !...    |        occur: "1988-01-01T00:00:13Z" (567993613) 0x1f8-0x1fb.7 (4)
0x1f0|                                    00 00 00 0e|            ....|        corr: 14 0x1fc-0x1ff.7 (4)
     |                                               |                |      [14]{}: leap_second_record 0x200-0x207.7 (8)
0x200|25 9e 9d 8e                                    |%...            |        occur: "1990-01-01T00:00:14Z" (631152014) 0x200-0x203.7 (4)
0x200|            00 00 00 0f                        |    ....        |        corr: 15 0x204-0x207.7 (4)
     |                                               |                |      [15]{}: leap_second_record 0x208-0x20f.7 (8)
0x200|                        27 7f d1 0f            |        '...    |        occur: "1991-01-01T00:00:15Z" (662688015) 0x208-0x20b.7 (4)
0x200|                                    00 00 00 10|            ....|        corr: 16 0x20c-0x20f.7 (4)
     |                                               |                |      [16]{}: leap_second_record 0x210-0x217.7 (8)
0x210|2a 50 f5 90                                    |*P..            |        occur: "1992-07-01T00:00:16Z" (709948816) 0x210-0x213.7 (4)
0x210|            00 00 00 11                        |    ....        |        corr: 17 0x214-0x217.7 (4)
     |                                               |                |      [17]{}: leap_second_record 0x218-0x21f.7 (8)
0x210|                        2c 32 29 11            |        ,2).    |        occur: "1993-07-01T00:00:17Z" (741484817) 0x218-0x21b.7 (4)
0x210|                                    00 00 00 12|            ....|        corr: 18 0x21c-0x21f.7 (4)
     |                                               |                |      [18]{}: leap_second_record 0x220-0x227.7 (8)
0x220|2e 13 5c 92                                    |..\.            |        occur: "1994-07-01T00:00:18Z" (773020818) 0x220-0x223.7 (4)
0x220|            00 00 00 13                        |    ....        |        corr: 19 0x224-0x227.7 (4)
     |                                               |                |      [19]{}: leap_second_record 0x228-0x22f.7 (8)
0x220|                        30 e7 24 13            |        0.$.    |        occur: "1996-01-01T00:00:19Z" (820454419) 0x228-0x22b.7 (4)
0x220|                                    00 00 00 14|            ....|        corr: 20 0x22c-0x22f.7 (4)
     |                                               |                |      [20]{}: leap_second_record 0x230-0x237.7 (8)
0x230|33 b8 48 94                                    |3.H.            |        occur: "1997-07-01T00:00:20Z" (867715220) 0x230-0x233.7 (4)
0x230|            00 00 00 15                        |    ....        |        corr: 21 0x234-0x237.7 (4)
     |                                               |                |      [21]{}: leap_second_record 0x238-0x23f.7 (8)
0x230|                        36 8c 10 15            |        6...    |        occur: "1999-01-01T00:00:21Z" (915148821) 0x238-0x23b.7 (4)
0x230|                                    00 00 00 16|            ....|        corr: 22 0x23c-0x23f.7 (4)
     |                                               |                |      [22]{}: leap_second_record 0x240-0x247.7 (8)
0x240|43 b7 1b 96                                    |C...            |        occur: "2006-01-01T00:00:22Z" (1136073622) 0x240-0x243.7 (4)
0x240|            00 00 00 17                        |    ....        |        corr: 23 0x244-0x247.7 (4)
     |                                               |                |      [23]{}: leap_second_record 0x248-0x24f.7 (8)
0x240|                        49 5c 07 97            |        I\..    |        occur: "2009-01-01T00:00:23Z" (1230768023) 0x248-0x24b.7 (4)
0x240|                                    00 00 00 18|            ....|        corr: 24 0x24c-0x24f.7 (4)
     |                                               |                |      [24]{}: leap_second_record 0x250-0x257.7 (8)
0x250|4f ef 93 18                                    |O...            |        occur: "2012-07-01T00:00:24Z" (1341100824) 0x250-0x253.7 (4)
0x250|            00 00 00 19                        |    ....        |        corr: 25 0x254-0x257.7 (4)
     |                                               |                |      [25]{}: leap_second_record 0x258-0x25f.7 (8)
0x250|                        55 93 2d 99            |        U.-.    |        occur: "2015-07-01T00:00:25Z" (1435708825) 0x258-0x25b.7 (4)
0x250|                                    00 00 00 1a|            ....|        corr: 26 0x25c-0x25f.7 (4)
     |                                               |                |      [26]{}: leap_second_record 0x260-0x267.7 (8)
0x260|58 68 46 9a                                    |XhF.            |        occur: "2017-01-01T00:00:26Z" (1483228826) 0x260-0x263.7 (4)
0x260|            00 00 00 1b                        |    ....        |        corr: 27 0x264-0x267.7 (4)
     |                                               |                |    standard_wall_indicators[0:0]: 0x268-NA (0)
     |                                               |                |    ut_local_indicators[0:0]: 0x268-NA (0)
     |                                               |                |  v2plusheader{}: 0x268-0x293.7 (44)
0x260|                        54 5a 69 66            |        TZif    |    magic: 0x545a6966 (valid) 0x268-0x26b.7 (4)
0x260|                                    32         |            2   |    ver: "2" (0x32) (valid) 0x26c-0x26c.7 (1)
0x260|                                       00 00 00|             ...|    reserved: raw bits 0x26d-0x27b.7 (15)
0x270|00 00 00 00 00 00 00 00 00 00 00 00            |............    |
0x270|                                    00 00 00 00|            ....|    isutcnt: 0 0x27c-0x27f.7 (4)
0x280|00 00 00 00                                    |....            |    isstdcnt: 0 0x280-0x283.7 (4)
0x280|            00 00 00 1b                        |    ....        |    leapcnt: 27 0x284-0x287.7 (4)
0x280|                        00 00 00 3c            |        ...<    |    timecnt: 60 0x288-0x28b.7 (4)
0x280|                                    00 00 00 06|            ....|    typecnt: 6 0x28c-0x28f.7 (4)
0x290|00 00 00 14                                    |....            |    charcnt: 20 0x290-0x293.7 (4)
     |                                               |                |  v2plusdatablock{}: 0x294-0x62b.7 (920)
     |                                               |                |    transition_times[0:60]: 0x294-0x473.7 (480)
0x290|            ff ff ff ff 72 9c ae b8            |    ....r...    |      [0]: "1894-10-31T04:21:12Z" (-2372096328) transition_time 0x294-0x29b.7 (8)
0x290|                                    ff ff ff ff|            ....|      [1]: "1920-05-01T04:16:48Z" (-1567453392) transition_time 0x29c-0x2a3.7 (8)
0x2a0|a2 92 8f 30                                    |...0            |
0x2a0|            ff ff ff ff b6 7b 52 40            |    .....{R@    |      [2]: "1930-12-01T04:00:00Z" (-1233432000) transition_time 0x2a4-0x2ab.7 (8)
0x2a0|                                    ff ff ff ff|            ....|      [3]: "1931-04-01T03:00:00Z" (-1222981200) transition_time 0x2ac-0x2b3.7 (8)
0x2b0|b7 1a c9 b0                                    |....            |
0x2b0|            ff ff ff ff b8 1e 8f 40            |    .......@    |      [4]: "1931-10-15T04:00:00Z" (-1205956800) transition_time 0x2b4-0x2bb.7 (8)
0x2b0|                                    ff ff ff ff|            ....|      [5]: "1932-03-01T03:00:00Z" (-1194037200) transition_time 0x2bc-0x2c3.7 (8)
0x2c0|b8 d4 70 30                                    |..p0            |
0x2c0|            ff ff ff ff ba 17 7d c0            |    ......}.    |      [6]: "1932-11-01T04:00:00Z" (-1172865600) transition_time 0x2c4-0x2cb.7 (8)
0x2c0|                                    ff ff ff ff|            ....|      [7]: "1933-03-01T03:00:00Z" (-1162501200) transition_time 0x2cc-0x2d3.7 (8)
0x2d0|ba b5 a3 b0                                    |....            |
0x2d0|            ff ff ff ff bb f8 b1 40            |    .......@    |      [8]: "1933-11-01T04:00:00Z" (-1141329600) transition_time 0x2d4-0x2db.7 (8)
0x2d0|                                    ff ff ff ff|            ....|      [9]: "1934-03-01T03:00:00Z" (-1130965200) transition_time 0x2dc-0x2e3.7 (8)
0x2e0|bc 96 d7 30                                    |...0            |
0x2e0|            ff ff ff ff bd d9 e4 c0            |    ........    |      [10]: "1934-11-01T04:00:00Z" (-1109793600) transition_time 0x2e4-0x2eb.7 (8)
0x2e0|                                    ff ff ff ff|            ....|      [11]: "1935-03-01T03:00:00Z" (-1099429200) transition_time 0x2ec-0x2f3.7 (8)
0x2f0|be 78 0a b0                                    |.x..            |
0x2f0|            ff ff ff ff bf bb 18 40            |    .......@    |      [12]: "1935-11-01T04:00:00Z" (-1078257600) transition_time 0x2f4-0x2fb.7 (8)
0x2f0|                                    ff ff ff ff|            ....|      [13]: "1936-03-01T03:00:00Z" (-1067806800) transition_time 0x2fc-0x303.7 (8)
0x300|c0 5a 8f b0                                    |.Z..            |
0x300|            ff ff ff ff c1 9d 9d 40            |    .......@    |      [14]: "1936-11-01T04:00:00Z" (-1046635200) transition_time 0x304-0x30b.7 (8)
0x300|                                    ff ff ff ff|            ....|      [15]: "1937-03-01T03:00:00Z" (-1036270800) transition_time 0x30c-0x313.7 (8)
0x310|c2 3b c3 30                                    |.;.0            |
0x310|            ff ff ff ff c3 7e d0 c0            |    .....~..    |      [16]: "1937-11-01T04:00:00Z" (-1015099200) transition_time 0x314-0x31b.7 (8)
0x310|                                    ff ff ff ff|            ....|      [17]: "1938-03-01T03:00:00Z" (-1004734800) transition_time 0x31c-0x323.7 (8)
0x320|c4 1c f6 b0                                    |....            |
0x320|            ff ff ff ff c5 60 04 40            |    .....`.@    |      [18]: "1938-11-01T04:00:00Z" (-983563200) transition_time 0x324-0x32b.7 (8)
0x320|                                    ff ff ff ff|            ....|      [19]: "1939-03-01T03:00:00Z" (-973198800) transition_time 0x32c-0x333.7 (8)
0x330|c5 fe 2a 30                                    |..*0            |
0x330|            ff ff ff ff c7 41 37 c0            |    .....A7.    |      [20]: "1939-11-01T04:00:00Z" (-952027200) transition_time 0x334-0x33b.7 (8)
0x330|                                    ff ff ff ff|            ....|      [21]: "1940-03-01T03:00:00Z" (-941576400) transition_time 0x33c-0x343.7 (8)
0x340|c7 e0 af 30                                    |...0            |
0x340|            ff ff ff ff c8 81 94 40            |    .......@    |      [22]: "1940-07-01T04:00:00Z" (-931032000) transition_time 0x344-0x34b.7 (8)
0x340|                                    ff ff ff ff|            ....|      [23]: "1941-06-15T03:00:00Z" (-900882000) transition_time 0x34c-0x353.7 (8)
0x350|ca 4d a1 b0                                    |.M..            |
0x350|            ff ff ff ff ca ee 86 c0            |    ........    |      [24]: "1941-10-15T04:00:00Z" (-890337600) transition_time 0x354-0x35b.7 (8)
0x350|                                    ff ff ff ff|            ....|      [25]: "1943-08-01T03:00:00Z" (-833749200) transition_time 0x35c-0x363.7 (8)
0x360|ce 4d ff 30                                    |.M.0            |
0x360|            ff ff ff ff ce b0 ed c0            |    ........    |      [26]: "1943-10-15T04:00:00Z" (-827265600) transition_time 0x364-0x36b.7 (8)
0x360|                                    ff ff ff ff|            ....|      [27]: "1946-03-01T03:00:00Z" (-752274000) transition_time 0x36c-0x373.7 (8)
0x370|d3 29 35 b0                                    |.)5.            |
0x370|            ff ff ff ff d4 43 64 c0            |    .....Cd.    |      [28]: "1946-10-01T04:00:00Z" (-733780800) transition_time 0x374-0x37b.7 (8)
0x370|                                    ff ff ff ff|            ....|      [29]: "1963-10-01T03:00:00Z" (-197326800) transition_time 0x37c-0x383.7 (8)
0x380|f4 3d 08 30                                    |.=.0            |
0x380|            ff ff ff ff f4 9f f6 c0            |    ........    |      [30]: "1963-12-15T04:00:00Z" (-190843200) transition_time 0x384-0x38b.7 (8)
0x380|                                    ff ff ff ff|            ....|      [31]: "1964-03-01T03:00:00Z" (-184194000) transition_time 0x38c-0x393.7 (8)
0x390|f5 05 6c 30                                    |..l0            |
0x390|            ff ff ff ff f6 32 10 40            |    .....2.@    |      [32]: "1964-10-15T04:00:00Z" (-164491200) transition_time 0x394-0x39b.7 (8)
0x390|                                    ff ff ff ff|            ....|      [33]: "1965-03-01T03:00:00Z" (-152658000) transition_time 0x39c-0x3a3.7 (8)
0x3a0|f6 e6 9f b0                                    |....            |
0x3a0|            ff ff ff ff f8 13 43 c0            |    ......C.    |      [34]: "1965-10-15T04:00:00Z" (-132955200) transition_time 0x3a4-0x3ab.7 (8)
0x3a0|                                    ff ff ff ff|            ....|      [35]: "1966-03-01T03:00:00Z" (-121122000) transition_time 0x3ac-0x3b3.7 (8)
0x3b0|f8 c7 d3 30                                    |...0            |
0x3b0|            ff ff ff ff f9 f4 77 40            |    ......w@    |      [36]: "1966-10-15T04:00:00Z" (-101419200) transition_time 0x3b4-0x3bb.7 (8)
0x3b0|                                    ff ff ff ff|            ....|      [37]: "1967-04-02T03:00:00Z" (-86821200) transition_time 0x3bc-0x3c3.7 (8)
0x3c0|fa d3 36 b0                                    |..6.            |
0x3c0|            ff ff ff ff fb c3 35 c0            |    ......5.    |      [38]: "1967-10-01T04:00:00Z" (-71092800) transition_time 0x3c4-0x3cb.7 (8)
0x3c0|                                    ff ff ff ff|            ....|      [39]: "1968-04-07T03:00:00Z" (-54766800) transition_time 0x3cc-0x3d3.7 (8)
0x3d0|fc bc 53 30                                    |..S0            |
0x3d0|            ff ff ff ff fd ac 52 40            |    ......R@    |      [40]: "1968-10-06T04:00:00Z" (-39038400) transition_time 0x3d4-0x3db.7 (8)
0x3d0|                                    ff ff ff ff|            ....|      [41]: "1969-04-06T03:00:00Z" (-23317200) transition_time 0x3dc-0x3e3.7 (8)
0x3e0|fe 9c 35 30                                    |..50            |
0x3e0|            ff ff ff ff ff 8c 34 40            |    ......4@    |      [42]: "1969-10-05T04:00:00Z" (-7588800) transition_time 0x3e4-0x3eb.7 (8)
0x3e0|                                    00 00 00 00|            ....|      [43]: "1974-01-23T03:00:03Z" (128142003) transition_time 0x3ec-0x3f3.7 (8)
0x3f0|07 a3 4a b3                                    |..J.            |
0x3f0|            00 00 00 00 08 24 6f a3            |    .....$o.    |      [44]: "1974-05-01T02:00:03Z" (136605603) transition_time 0x3f4-0x3fb.7 (8)
0x3f0|                                    00 00 00 00|            ....|      [45]: "1988-12-01T03:00:14Z" (596948414) transition_time 0x3fc-0x403.7 (8)
0x400|23 94 b5 be                                    |#...            |
0x400|            00 00 00 00 24 10 94 ae            |    ....$...    |      [46]: "1989-03-05T02:00:14Z" (605066414) transition_time 0x404-0x40b.7 (8)
0x400|                                    00 00 00 00|            ....|      [47]: "1989-10-15T03:00:14Z" (624423614) transition_time 0x40c-0x413.7 (8)
0x410|25 37 f2 be                                    |%7..            |
0x410|            00 00 00 00 25 f0 76 af            |    ....%.v.    |      [48]: "1990-03-04T02:00:15Z" (636516015) transition_time 0x414-0x41b.7 (8)
0x410|                                    00 00 00 00|            ....|      [49]: "1990-10-28T04:00:15Z" (657086415) transition_time 0x41c-0x423.7 (8)
0x420|27 2a 57 cf                                    |'*W.            |
0x420|            00 00 00 00 27 e2 db c0            |    ....'...    |      [50]: "1991-03-17T03:00:16Z" (669178816) transition_time 0x424-0x42b.7 (8)
0x420|                                    00 00 00 00|            ....|      [51]: "1991-10-06T04:00:16Z" (686721616) transition_time 0x42c-0x433.7 (8)
0x430|28 ee 8a 50                                    |(..P            |
0x430|            00 00 00 00 29 b0 3a b0            |    ....).:.    |      [52]: "1992-03-01T02:00:16Z" (699415216) transition_time 0x434-0x43b.7 (8)
0x430|                                    00 00 00 00|            ....|      [53]: "1992-10-18T03:00:17Z" (719377217) transition_time 0x43c-0x443.7 (8)
0x440|2a e0 d3 41                                    |*..A            |
0x440|            00 00 00 00 2b 99 57 31            |    ....+.W1    |      [54]: "1993-03-07T02:00:17Z" (731469617) transition_time 0x444-0x44b.7 (8)
0x440|                                    00 00 00 00|            ....|      [55]: "1999-10-03T03:00:22Z" (938919622) transition_time 0x44c-0x453.7 (8)
0x450|37 f6 c6 c6                                    |7...            |
0x450|            00 00 00 00 38 bf 2a c6            |    ....8.*.    |      [56]: "2000-03-03T03:00:22Z" (952052422) transition_time 0x454-0x45b.7 (8)
0x450|                                    00 00 00 00|            ....|      [57]: "2007-12-30T03:00:23Z" (1198983623) transition_time 0x45c-0x463.7 (8)
0x460|47 77 09 c7                                    |Gw..            |
0x460|            00 00 00 00 47 dc 7f 37            |    ....G..7    |      [58]: "2008-03-16T02:00:23Z" (1205632823) transition_time 0x464-0x46b.7 (8)
0x460|                                    00 00 00 00|            ....|      [59]: "2023-06-28T00:00:27Z" (1687910427) transition_time 0x46c-0x473.7 (8)
0x470|64 9b 78 1b                                    |d.x.            |
     |                                               |                |    transition_types[0:60]: 0x474-0x4af.7 (60)
0x470|            01                                 |    .           |      [0]: 1 transition_type 0x474-0x474.7 (1)
0x470|               02                              |     .          |      [1]: 2 transition_type 0x475-0x475.7 (1)
0x470|                  03                           |      .         |      [2]: 3 transition_type 0x476-0x476.7 (1)
0x470|                     02                        |       .        |      [3]: 2 transition_type 0x477-0x477.7 (1)
0x470|                        03                     |        .       |      [4]: 3 transition_type 0x478-0x478.7 (1)
0x470|                           02                  |         .      |      [5]: 2 transition_type 0x479-0x479.7 (1)
0x470|                              03               |          .     |      [6]: 3 transition_type 0x47a-0x47a.7 (1)
0x470|                                 02            |           .    |      [7]: 2 transition_type 0x47b-0x47b.7 (1)
0x470|                                    03         |            .   |      [8]: 3 transition_type 0x47c-0x47c.7 (1)
0x470|                                       02      |             .  |      [9]: 2 transition_type 0x47d-0x47d.7 (1)
0x470|                                          03   |              . |      [10]: 3 transition_type 0x47e-0x47e.7 (1)
0x470|                                             02|               .|      [11]: 2 transition_type 0x47f-0x47f.7 (1)
0x480|03                                             |.               |      [12]: 3 transition_type 0x480-0x480.7 (1)
0x480|   02                                          | .              |      [13]: 2 transition_type 0x481-0x481.7 (1)
0x480|      03                                       |  .             |      [14]: 3 transition_type 0x482-0x482.7 (1)
0x480|         02                                    |   .            |      [15]: 2 transition_type 0x483-0x483.7 (1)
0x480|            03                                 |    .           |      [16]: 3 transition_type 0x484-0x484.7 (1)
0x480|               02                              |     .          |      [17]: 2 transition_type 0x485-0x485.7 (1)
0x480|                  03                           |      .         |      [18]: 3 transition_type 0x486-0x486.7 (1)
0x480|                     02                        |       .        |      [19]: 2 transition_type 0x487-0x487.7 (1)
0x480|                        03                     |        .       |      [20]: 3 transition_type 0x488-0x488.7 (1)
0x480|                           02                  |         .      |      [21]: 2 transition_type 0x489-0x489.7 (1)
0x480|                              03               |          .     |      [22]: 3 transition_type 0x48a-0x48a.7 (1)
0x480|                                 02            |           .    |      [23]: 2 transition_type 0x48b-0x48b.7 (1)
0x480|                                    03         |            .   |      [24]: 3 transition_type 0x48c-0x48c.7 (1)
0x480|                                       02      |             .  |      [25]: 2 transition_type 0x48d-0x48d.7 (1)
0x480|                                          03   |              . |      [26]: 3 transition_type 0x48e-0x48e.7 (1)
0x480|                                             02|               .|      [27]: 2 transition_type 0x48f-0x48f.7 (1)
0x490|03                                             |.               |      [28]: 3 transition_type 0x490-0x490.7 (1)
0x490|   02                                          | .              |      [29]: 2 transition_type 0x491-0x491.7 (1)
0x490|      03                                       |  .             |      [30]: 3 transition_type 0x492-0x492.7 (1)
0x490|         02                                    |   .            |      [31]: 2 transition_type 0x493-0x493.7 (1)
0x490|            03                                 |    .           |      [32]: 3 transition_type 0x494-0x494.7 (1)
0x490|               02                              |     .          |      [33]: 2 transition_type 0x495-0x495.7 (1)
0x490|                  03                           |      .         |      [34]: 3 transition_type 0x496-0x496.7 (1)
0x490|                     02                        |       .        |      [35]: 2 transition_type 0x497-0x497.7 (1)
0x490|                        03                     |        .       |      [36]: 3 transition_type 0x498-0x498.7 (1)
0x490|                           02                  |         .      |      [37]: 2 transition_type 0x499-0x499.7 (1)
0x490|                              03               |          .     |      [38]: 3 transition_type 0x49a-0x49a.7 (1)
0x490|                                 02            |           .    |      [39]: 2 transition_type 0x49b-0x49b.7 (1)
0x490|                                    03         |            .   |      [40]: 3 transition_type 0x49c-0x49c.7 (1)
0x490|                                       02      |             .  |      [41]: 2 transition_type 0x49d-0x49d.7 (1)
0x490|                                          05   |              . |      [42]: 5 transition_type 0x49e-0x49e.7 (1)
0x490|                                             04|               .|      [43]: 4 transition_type 0x49f-0x49f.7 (1)
0x4a0|05                                             |.               |      [44]: 5 transition_type 0x4a0-0x4a0.7 (1)
0x4a0|   04                                          | .              |      [45]: 4 transition_type 0x4a1-0x4a1.7 (1)
0x4a0|      05                                       |  .             |      [46]: 5 transition_type 0x4a2-0x4a2.7 (1)
0x4a0|         04                                    |   .            |      [47]: 4 transition_type 0x4a3-0x4a3.7 (1)
0x4a0|            02                                 |    .           |      [48]: 2 transition_type 0x4a4-0x4a4.7 (1)
0x4a0|               03                              |     .          |      [49]: 3 transition_type 0x4a5-0x4a5.7 (1)
0x4a0|                  02                           |      .         |      [50]: 2 transition_type 0x4a6-0x4a6.7 (1)
0x4a0|                     04                        |       .        |      [51]: 4 transition_type 0x4a7-0x4a7.7 (1)
0x4a0|                        05                     |        .       |      [52]: 5 transition_type 0x4a8-0x4a8.7 (1)
0x4a0|                           04                  |         .      |      [53]: 4 transition_type 0x4a9-0x4a9.7 (1)
0x4a0|                              05               |          .     |      [54]: 5 transition_type 0x4aa-0x4aa.7 (1)
0x4a0|                                 03            |           .    |      [55]: 3 transition_type 0x4ab-0x4ab.7 (1)
0x4a0|                                    05         |            .   |      [56]: 5 transition_type 0x4ac-0x4ac.7 (1)
0x4a0|                                       04      |             .  |      [57]: 4 transition_type 0x4ad-0x4ad.7 (1)
0x4a0|                                          05   |              . |      [58]: 5 transition_type 0x4ae-0x4ae.7 (1)
0x4a0|                                             05|               .|      [59]: 5 transition_type 0x4af-0x4af.7 (1)
     |                                               |                |    local_time_type_records[0:6]: 0x4b0-0x4d3.7 (36)
     |                                               |                |      [0]{}: local_time_type 0x4b0-0x4b5.7 (6)
0x4b0|ff ff c2 c8                                    |....            |        utoff: -15672 (valid) 0x4b0-0x4b3.7 (4)
0x4b0|            00                                 |    .           |        dst: 0 (valid) 0x4b4-0x4b4.7 (1)
0x4b0|               00                              |     .          |        idx: 0 (valid) 0x4b5-0x4b5.7 (1)
     |                                               |                |      [1]{}: local_time_type 0x4b6-0x4bb.7 (6)
0x4b0|                  ff ff c3 d0                  |      ....      |        utoff: -15408 (valid) 0x4b6-0x4b9.7 (4)
0x4b0|                              00               |          .     |        dst: 0 (valid) 0x4ba-0x4ba.7 (1)
0x4b0|                                 04            |           .    |        idx: 4 (valid) 0x4bb-0x4bb.7 (1)
     |                                               |                |      [2]{}: local_time_type 0x4bc-0x4c1.7 (6)
0x4b0|                                    ff ff c7 c0|            ....|        utoff: -14400 (valid) 0x4bc-0x4bf.7 (4)
0x4c0|00                                             |.               |        dst: 0 (valid) 0x4c0-0x4c0.7 (1)
0x4c0|   08                                          | .              |        idx: 8 (valid) 0x4c1-0x4c1.7 (1)
     |                                               |                |      [3]{}: local_time_type 0x4c2-0x4c7.7 (6)
0x4c0|      ff ff d5 d0                              |  ....          |        utoff: -10800 (valid) 0x4c2-0x4c5.7 (4)
0x4c0|                  01                           |      .         |        dst: 1 (valid) 0x4c6-0x4c6.7 (1)
0x4c0|                     0c                        |       .        |        idx: 12 (valid) 0x4c7-0x4c7.7 (1)
     |                                               |                |      [4]{}: local_time_type 0x4c8-0x4cd.7 (6)
0x4c0|                        ff ff e3 e0            |        ....    |        utoff: -7200 (valid) 0x4c8-0x4cb.7 (4)
0x4c0|                                    01         |            .   |        dst: 1 (valid) 0x4cc-0x4cc.7 (1)
0x4c0|                                       10      |             .  |        idx: 16 (valid) 0x4cd-0x4cd.7 (1)
     |                                               |                |      [5]{}: local_time_type 0x4ce-0x4d3.7 (6)
0x4c0|                                          ff ff|              ..|        utoff: -10800 (valid) 0x4ce-0x4d1.7 (4)
0x4d0|d5 d0                                          |..              |
0x4d0|      00                                       |  .             |        dst: 0 (valid) 0x4d2-0x4d2.7 (1)
0x4d0|         0c                                    |   .            |        idx: 12 (valid) 0x4d3-0x4d3.7 (1)
     |                                               |                |    time_zone_designations[0:5]: 0x4d4-0x4e7.7 (20)
0x4d0|            4c 4d 54 00                        |    LMT.        |      [0]: "LMT" time_zone_designation 0x4d4-0x4d7.7 (4)
0x4d0|                        43 4d 54 00            |        CMT.    |      [1]: "CMT" time_zone_designation 0x4d8-0x4db.7 (4)
0x4d0|                                    2d 30 34 00|            -04.|      [2]: "-04" time_zone_designation 0x4dc-0x4df.7 (4)
0x4e0|2d 30 33 00                                    |-03.            |      [3]: "-03" time_zone_designation 0x4e0-0x4e3.7 (4)
0x4e0|            2d 30 32 00                        |    -02.        |      [4]: "-02" time_zone_designation 0x4e4-0x4e7.7 (4)
     |                                               |                |    leap_second_records[0:27]: 0x4e8-0x62b.7 (324)
     |                                               |                |      [0]{}: leap_second_record 0x4e8-0x4f3.7 (12)
0x4e0|                        00 00 00 00 04 b2 58 00|        ......X.|        occur: "1972-07-01T00:00:00Z" (78796800) 0x4e8-0x4ef.7 (8)
0x4f0|00 00 00 01                                    |....            |        corr: 1 0x4f0-0x4f3.7 (4)
     |                                               |                |      [1]{}: leap_second_record 0x4f4-0x4ff.7 (12)
0x4f0|            00 00 00 00 05 a4 ec 01            |    ........    |        occur: "1973-01-01T00:00:01Z" (94694401) 0x4f4-0x4fb.7 (8)
0x4f0|                                    00 00 00 02|            ....|        corr: 2 0x4fc-0x4ff.7 (4)
     |                                               |                |      [2]{}: leap_second_record 0x500-0x50b.7 (12)
0x500|00 00 00 00 07 86 1f 82                        |........        |        occur: "1974-01-01T00:00:02Z" (126230402) 0x500-0x507.7 (8)
0x500|                        00 00 00 03            |        ....    |        corr: 3 0x508-0x50b.7 (4)
     |                                               |                |      [3]{}: leap_second_record 0x50c-0x517.7 (12)
0x500|                                    00 00 00 00|            ....|        occur: "1975-01-01T00:00:03Z" (157766403) 0x50c-0x513.7 (8)
0x510|09 67 53 03                                    |.gS.            |
0x510|            00 00 00 04                        |    ....        |        corr: 4 0x514-0x517.7 (4)
     |                                               |                |      [4]{}: leap_second_record 0x518-0x523.7 (12)
0x510|                        00 00 00 00 0b 48 86 84|        .....H..|        occur: "1976-01-01T00:00:04Z" (189302404) 0x518-0x51f.7 (8)
0x520|00 00 00 05                                    |....            |        corr: 5 0x520-0x523.7 (4)
     |                                               |                |      [5]{}: leap_second_record 0x524-0x52f.7 (12)
0x520|            00 00 00 00 0d 2b 0b 85            |    .....+..    |        occur: "1977-01-01T00:00:05Z" (220924805) 0x524-0x52b.7 (8)
0x520|                                    00 00 00 06|            ....|        corr: 6 0x52c-0x52f.7 (4)
     |                                               |                |      [6]{}: leap_second_record 0x530-0x53b.7 (12)
0x530|00 00 00 00 0f 0c 3f 06                        |......?.        |        occur: "1978-01-01T00:00:06Z" (252460806) 0x530-0x537.7 (8)
0x530|                        00 00 00 07            |        ....    |        corr: 7 0x538-0x53b.7 (4)
     |                                               |                |      [7]{}: leap_second_record 0x53c-0x547.7 (12)
0x530|                                    00 00 00 00|            ....|        occur: "1979-01-01T00:00:07Z" (283996807) 0x53c-0x543.7 (8)
0x540|10 ed 72 87                                    |..r.            |
0x540|            00 00 00 08                        |    ....        |        corr: 8 0x544-0x547.7 (4)
     |                                               |                |      [8]{}: leap_second_record 0x548-0x553.7 (12)
0x540|                        00 00 00 00 12 ce a6 08|        ........|        occur: "1980-01-01T00:00:08Z" (315532808) 0x548-0x54f.7 (8)
0x550|00 00 00 09                                    |....            |        corr: 9 0x550-0x553.7 (4)
     |                                               |                |      [9]{}: leap_second_record 0x554-0x55f.7 (12)
0x550|            00 00 00 00 15 9f ca 89            |    ........    |        occur: "1981-07-01T00:00:09Z" (362793609) 0x554-0x55b.7 (8)
0x550|                                    00 00 00 0a|            ....|        corr: 10 0x55c-0x55f.7 (4)
     |                                               |                |      [10]{}: leap_second_record 0x560-0x56b.7 (12)
0x560|00 00 00 00 17 80 fe 0a                        |........        |        occur: "1982-07-01T00:00:10Z" (394329610) 0x560-0x567.7 (8)
0x560|                        00 00 00 0b            |        ....    |        corr: 11 0x568-0x56b.7 (4)
     |                                               |                |      [11]{}: leap_second_record 0x56c-0x577.7 (12)
0x560|                                    00 00 00 00|            ....|        occur: "1983-07-01T00:00:11Z" (425865611) 0x56c-0x573.7 (8)
0x570|19 62 31 8b                                    |.b1.            |
0x570|            00 00 00 0c                        |    ....        |        corr: 12 0x574-0x577.7 (4)
     |                                               |                |      [12]{}: leap_second_record 0x578-0x583.7 (12)
0x570|                        00 00 00 00 1d 25 ea 0c|        .....%..|        occur: "1985-07-01T00:00:12Z" (489024012) 0x578-0x57f.7 (8)
0x580|00 00 00 0d                                    |....            |        corr: 13 0x580-0x583.7 (4)
     |                                               |                |      [13]{}: leap_second_record 0x584-0x58f.7 (12)
0x580|            00 00 00 00 21 da e5 0d            |    ....!...    |        occur: "1988-01-01T00:00:13Z" (567993613) 0x584-0x58b.7 (8)
0x580|                                    00 00 00 0e|            ....|        corr: 14 0x58c-0x58f.7 (4)
     |                                               |                |      [14]{}: leap_second_record 0x590-0x59b.7 (12)
0x590|00 00 00 00 25 9e 9d 8e                        |....%...        |        occur: "1990-01-01T00:00:14Z" (631152014) 0x590-0x597.7 (8)
0x590|                        00 00 00 0f            |        ....    |        corr: 15 0x598-0x59b.7 (4)
     |                                               |                |      [15]{}: leap_second_record 0x59c-0x5a7.7 (12)
0x590|                                    00 00 00 00|            ....|        occur: "1991-01-01T00:00:15Z" (662688015) 0x59c-0x5a3.7 (8)
0x5a0|27 7f d1 0f                                    |'...            |
0x5a0|            00 00 00 10                        |    ....        |        corr: 16 0x5a4-0x5a7.7 (4)
     |                                               |                |      [16]{}: leap_second_record 0x5a8-0x5b3.7 (12)
0x5a0|                        00 00 00 00 2a 50 f5 90|        ....*P..|        occur: "1992-07-01T00:00:16Z" (709948816) 0x5a8-0x5af.7 (8)
0x5b0|00 00 00 11                                    |....            |        corr: 17 0x5b0-0x5b3.7 (4)
     |                                               |                |      [17]{}: leap_second_record 0x5b4-0x5bf.7 (12)
0x5b0|            00 00 00 00 2c 32 29 11            |    ....,2).    |        occur: "1993-07-01T00:00:17Z" (741484817) 0x5b4-0x5bb.7 (8)
0x5b0|                                    00 00 00 12|            ....|        corr: 18 0x5bc-0x5bf.7 (4)
     |                                               |                |      [18]{}: leap_second_record 0x5c0-0x5cb.7 (12)
0x5c0|00 00 00 00 2e 13 5c 92                        |......\.        |        occur: "1994-07-01T00:00:18Z" (773020818) 0x5c0-0x5c7.7 (8)
0x5c0|                        00 00 00 13            |        ....    |        corr: 19 0x5c8-0x5cb.7 (4)
     |                                               |                |      [19]{}: leap_second_record 0x5cc-0x5d7.7 (12)
0x5c0|                                    00 00 00 00|            ....|        occur: "1996-01-01T00:00:19Z" (820454419) 0x5cc-0x5d3.7 (8)
0x5d0|30 e7 24 13                                    |0.$.            |
0x5d0|            00 00 00 14                        |    ....        |        corr: 20 0x5d4-0x5d7.7 (4)
     |                                               |                |      [20]{}: leap_second_record 0x5d8-0x5e3.7 (12)
0x5d0|                        00 00 00 00 33 b8 48 94|        ....3.H.|        occur: "1997-07-01T00:00:20Z" (867715220) 0x5d8-0x5df.7 (8)
0x5e0|00 00 00 15                                    |....            |        corr: 21 0x5e0-0x5e3.7 (4)
     |                                               |                |      [21]{}: leap_second_record 0x5e4-0x5ef.7 (12)
0x5e0|            00 00 00 00 36 8c 10 15            |    ....6...    |        occur: "1999-01-01T00:00:21Z" (915148821) 0x5e4-0x5eb.7 (8)
0x5e0|                                    00 00 00 16|            ....|        corr: 22 0x5ec-0x5ef.7 (4)
     |                                               |                |      [22]{}: leap_second_record 0x5f0-0x5fb.7 (12)
0x5f0|00 00 00 00 43 b7 1b 96                        |....C...        |        occur: "2006-01-01T00:00:22Z" (1136073622) 0x5f0-0x5f7.7 (8)
0x5f0|                        00 00 00 17            |        ....    |        corr: 23 0x5f8-0x5fb.7 (4)
     |                                               |                |      [23]{}: leap_second_record 0x5fc-0x607.7 (12)
0x5f0|                                    00 00 00 00|            ....|        occur: "2009-01-01T00:00:23Z" (1230768023) 0x5fc-0x603.7 (8)
0x600|49 5c 07 97                                    |I\..            |
0x600|            00 00 00 18                        |    ....        |        corr: 24 0x604-0x607.7 (4)
     |                                               |                |      [24]{}: leap_second_record 0x608-0x613.7 (12)
0x600|                        00 00 00 00 4f ef 93 18|        ....O...|        occur: "2012-07-01T00:00:24Z" (1341100824) 0x608-0x60f.7 (8)
0x610|00 00 00 19                                    |....            |        corr: 25 0x610-0x613.7 (4)
     |                                               |                |      [25]{}: leap_second_record 0x614-0x61f.7 (12)
0x610|            00 00 00 00 55 93 2d 99            |    ....U.-.    |        occur: "2015-07-01T00:00:25Z" (1435708825) 0x614-0x61b.7 (8)
0x610|                                    00 00 00 1a|            ....|        corr: 26 0x61c-0x61f.7 (4)
     |                                               |                |      [26]{}: leap_second_record 0x620-0x62b.7 (12)
0x620|00 00 00 00 58 68 46 9a                        |....XhF.        |        occur: "2017-01-01T00:00:26Z" (1483228826) 0x620-0x627.7 (8)
0x620|                        00 00 00 1b            |        ....    |        corr: 27 0x628-0x62b.7 (4)
     |                                               |                |    standard_wall_indicators[0:0]: 0x62c-NA (0)
     |                                               |                |    ut_local_indicators[0:0]: 0x62c-NA (0)
     |                                               |                |  footer{}: 0x62c-0x62d.7 (2)
0x620|                                    0a         |            .   |    nl1: 10 (valid) 0x62c-0x62c.7 (1)
     |                                               |                |    tz_string: "" 0x62d-NA (0)
0x620|                                       0a|     |             .| |    nl2: 10 (valid) 0x62d-0x62d.7 (1)
