$ fq -d tzif dv Juneau
     |00 01 02 03 04 05 06 07 08 09 0a 0b 0c 0d 0e 0f|0123456789abcdef|.{}: Juneau (tzif) 0x0-0x9ad (2477)
     |                                               |                |  v1header{}: 0x0-0x2c (44)
0x000|54 5a 69 66                                    |TZif            |    magic: 0x545a6966 (valid) 0x0-0x4 (4)
0x000|            32                                 |    2           |    ver: "2" (0x32) (valid) 0x4-0x5 (1)
0x000|               00 00 00 00 00 00 00 00 00 00 00|     ...........|    reserved: raw bits 0x5-0x14 (15)
0x010|00 00 00 00                                    |....            |
0x010|            00 00 00 09                        |    ....        |    isutcnt: 9 0x14-0x18 (4)
0x010|                        00 00 00 09            |        ....    |    isstdcnt: 9 0x18-0x1c (4)
0x010|                                    00 00 00 1b|            ....|    leapcnt: 27 0x1c-0x20 (4)
0x020|00 00 00 73                                    |...s            |    timecnt: 115 0x20-0x24 (4)
0x020|            00 00 00 09                        |    ....        |    typecnt: 9 0x24-0x28 (4)
0x020|                        00 00 00 26            |        ...&    |    charcnt: 38 0x28-0x2c (4)
     |                                               |                |  v1datablock{}: 0x2c-0x3b1 (901)
     |                                               |                |    transition_times[0:115]: 0x2c-0x1f8 (460)
0x020|                                    80 00 00 00|            ....|      [0]: "1901-12-13T20:45:52Z" (-2147483648) transition_time 0x2c-0x30 (4)
0x030|cb 89 1a a0                                    |....            |      [1]: "1942-02-09T10:00:00Z" (-880207200) transition_time 0x30-0x34 (4)
0x030|            d2 23 f4 70                        |    .#.p        |      [2]: "1945-08-14T23:00:00Z" (-769395600) transition_time 0x34-0x38 (4)
0x030|                        d2 61 26 10            |        .a&.    |      [3]: "1945-09-30T09:00:00Z" (-765385200) transition_time 0x38-0x3c (4)
0x030|                                    fe b8 47 20|            ..G |      [4]: "1969-04-27T10:00:00Z" (-21477600) transition_time 0x3c-0x40 (4)
0x040|ff a8 2a 10                                    |..*.            |      [5]: "1969-10-26T09:00:00Z" (-5756400) transition_time 0x40-0x44 (4)
0x040|            00 98 29 20                        |    ..)         |      [6]: "1970-04-26T10:00:00Z" (9972000) transition_time 0x44-0x48 (4)
0x040|                        01 88 0c 10            |        ....    |      [7]: "1970-10-25T09:00:00Z" (25693200) transition_time 0x48-0x4c (4)
0x040|                                    02 78 0b 20|            .x. |      [8]: "1971-04-25T10:00:00Z" (41421600) transition_time 0x4c-0x50 (4)
0x050|03 71 28 90                                    |.q(.            |      [9]: "1971-10-31T09:00:00Z" (57747600) transition_time 0x50-0x54 (4)
0x050|            04 61 27 a0                        |    .a'.        |      [10]: "1972-04-30T10:00:00Z" (73476000) transition_time 0x54-0x58 (4)
0x050|                        05 51 0a 91            |        .Q..    |      [11]: "1972-10-29T09:00:01Z" (89197201) transition_time 0x58-0x5c (4)
0x050|                                    06 41 09 a2|            .A..|      [12]: "1973-04-29T10:00:02Z" (104925602) transition_time 0x5c-0x60 (4)
0x060|07 30 ec 92                                    |.0..            |      [13]: "1973-10-28T09:00:02Z" (120646802) transition_time 0x60-0x64 (4)
0x060|            07 8d 43 a3                        |    ..C.        |      [14]: "1974-01-06T10:00:03Z" (126698403) transition_time 0x64-0x68 (4)
0x060|                        09 10 ce 93            |        ....    |      [15]: "1974-10-27T09:00:03Z" (152096403) transition_time 0x68-0x6c (4)
0x060|                                    09 ad bf 24|            ...$|      [16]: "1975-02-23T10:00:04Z" (162381604) transition_time 0x6c-0x70 (4)
0x070|0a f0 b0 94                                    |....            |      [17]: "1975-10-26T09:00:04Z" (183546004) transition_time 0x70-0x74 (4)
0x070|            0b e0 af a5                        |    ....        |      [18]: "1976-04-25T10:00:05Z" (199274405) transition_time 0x74-0x78 (4)
0x070|                        0c d9 cd 15            |        ....    |      [19]: "1976-10-31T09:00:05Z" (215600405) transition_time 0x78-0x7c (4)
0x070|                                    0d c0 91 a6|            ....|      [20]: "1977-04-24T10:00:06Z" (230724006) transition_time 0x7c-0x80 (4)
0x080|0e b9 af 16                                    |....            |      [21]: "1977-10-30T09:00:06Z" (247050006) transition_time 0x80-0x84 (4)
0x080|            0f a9 ae 27                        |    ...'        |      [22]: "1978-04-30T10:00:07Z" (262778407) transition_time 0x84-0x88 (4)
0x080|                        10 99 91 17            |        ....    |      [23]: "1978-10-29T09:00:07Z" (278499607) transition_time 0x88-0x8c (4)
0x080|                                    11 89 90 28|            ...(|      [24]: "1979-04-29T10:00:08Z" (294228008) transition_time 0x8c-0x90 (4)
0x090|12 79 73 18                                    |.ys.            |      [25]: "1979-10-28T09:00:08Z" (309949208) transition_time 0x90-0x94 (4)
0x090|            13 69 72 29                        |    .ir)        |      [26]: "1980-04-27T10:00:09Z" (325677609) transition_time 0x94-0x98 (4)
0x090|                        14 59 63 29            |        .Yc)    |      [27]: "1980-10-26T10:00:09Z" (341402409) transition_time 0x98-0x9c (4)
0x090|                                    15 49 54 29|            .IT)|      [28]: "1981-04-26T10:00:09Z" (357127209) transition_time 0x9c-0xa0 (4)
0x0a0|16 39 37 1a                                    |.97.            |      [29]: "1981-10-25T09:00:10Z" (372848410) transition_time 0xa0-0xa4 (4)
0x0a0|            17 29 36 2a                        |    .)6*        |      [30]: "1982-04-25T10:00:10Z" (388576810) transition_time 0xa4-0xa8 (4)
0x0a0|                        18 22 53 9b            |        ."S.    |      [31]: "1982-10-31T09:00:11Z" (404902811) transition_time 0xa8-0xac (4)
0x0a0|                                    19 09 18 2b|            ...+|      [32]: "1983-04-24T10:00:11Z" (420026411) transition_time 0xac-0xb0 (4)
0x0b0|1a 02 35 9c                                    |..5.            |      [33]: "1983-10-30T09:00:12Z" (436352412) transition_time 0xb0-0xb4 (4)
0x0b0|            1a 2b 14 1c                        |    .+..        |      [34]: "1983-11-30T09:00:12Z" (439030812) transition_time 0xb4-0xb8 (4)
0x0b0|                        1a f2 42 bc            |        ..B.    |      [35]: "1984-04-29T11:00:12Z" (452084412) transition_time 0xb8-0xbc (4)
0x0b0|                                    1b e2 25 ac|            ..%.|      [36]: "1984-10-28T10:00:12Z" (467805612) transition_time 0xbc-0xc0 (4)
0x0c0|1c d2 24 bc                                    |..$.            |      [37]: "1985-04-28T11:00:12Z" (483534012) transition_time 0xc0-0xc4 (4)
0x0c0|            1d c2 07 ad                        |    ....        |      [38]: "1985-10-27T10:00:13Z" (499255213) transition_time 0xc4-0xc8 (4)
0x0c0|                        1e b2 06 bd            |        ....    |      [39]: "1986-04-27T11:00:13Z" (514983613) transition_time 0xc8-0xcc (4)
0x0c0|                                    1f a1 e9 ad|            ....|      [40]: "1986-10-26T10:00:13Z" (530704813) transition_time 0xcc-0xd0 (4)
0x0d0|20 76 39 3d                                    | v9=            |      [41]: "1987-04-05T11:00:13Z" (544618813) transition_time 0xd0-0xd4 (4)
0x0d0|            21 81 cb ad                        |    !...        |      [42]: "1987-10-25T10:00:13Z" (562154413) transition_time 0xd4-0xd8 (4)
0x0d0|                        22 56 1b 3e            |        "V.>    |      [43]: "1988-04-03T11:00:14Z" (576068414) transition_time 0xd8-0xdc (4)
0x0d0|                                    23 6a e8 2e|            #j..|      [44]: "1988-10-30T10:00:14Z" (594208814) transition_time 0xdc-0xe0 (4)
0x0e0|24 35 fd 3e                                    |$5.>            |      [45]: "1989-04-02T11:00:14Z" (607518014) transition_time 0xe0-0xe4 (4)
0x0e0|            25 4a ca 2e                        |    %J..        |      [46]: "1989-10-29T10:00:14Z" (625658414) transition_time 0xe4-0xe8 (4)
0x0e0|                        26 15 df 3f            |        &..?    |      [47]: "1990-04-01T11:00:15Z" (638967615) transition_time 0xe8-0xec (4)
0x0e0|                                    27 2a ac 2f|            '*./|      [48]: "1990-10-28T10:00:15Z" (657108015) transition_time 0xec-0xf0 (4)
0x0f0|27 fe fb c0                                    |'...            |      [49]: "1991-04-07T11:00:16Z" (671022016) transition_time 0xf0-0xf4 (4)
0x0f0|            29 0a 8e 30                        |    )..0        |      [50]: "1991-10-27T10:00:16Z" (688557616) transition_time 0xf4-0xf8 (4)
0x0f0|                        29 de dd c0            |        )...    |      [51]: "1992-04-05T11:00:16Z" (702471616) transition_time 0xf8-0xfc (4)
0x0f0|                                    2a ea 70 31|            *.p1|      [52]: "1992-10-25T10:00:17Z" (720007217) transition_time 0xfc-0x100 (4)
0x100|2b be bf c1                                    |+...            |      [53]: "1993-04-04T11:00:17Z" (733921217) transition_time 0x100-0x104 (4)
0x100|            2c d3 8c b2                        |    ,...        |      [54]: "1993-10-31T10:00:18Z" (752061618) transition_time 0x104-0x108 (4)
0x100|                        2d 9e a1 c2            |        -...    |      [55]: "1994-04-03T11:00:18Z" (765370818) transition_time 0x108-0x10c (4)
0x100|                                    2e b3 6e b3|            ..n.|      [56]: "1994-10-30T10:00:19Z" (783511219) transition_time 0x10c-0x110 (4)
0x110|2f 7e 83 c3                                    |/~..            |      [57]: "1995-04-02T11:00:19Z" (796820419) transition_time 0x110-0x114 (4)
0x110|            30 93 50 b3                        |    0.P.        |      [58]: "1995-10-29T10:00:19Z" (814960819) transition_time 0x114-0x118 (4)
0x110|                        31 67 a0 44            |        1g.D    |      [59]: "1996-04-07T11:00:20Z" (828874820) transition_time 0x118-0x11c (4)
0x110|                                    32 73 32 b4|            2s2.|      [60]: "1996-10-27T10:00:20Z" (846410420) transition_time 0x11c-0x120 (4)
0x120|33 47 82 44                                    |3G.D            |      [61]: "1997-04-06T11:00:20Z" (860324420) transition_time 0x120-0x124 (4)
0x120|            34 53 14 b5                        |    4S..        |      [62]: "1997-10-26T10:00:21Z" (877860021) transition_time 0x124-0x128 (4)
0x120|                        35 27 64 45            |        5'dE    |      [63]: "1998-04-05T11:00:21Z" (891774021) transition_time 0x128-0x12c (4)
0x120|                                    36 32 f6 b5|            62..|      [64]: "1998-10-25T10:00:21Z" (909309621) transition_time 0x12c-0x130 (4)
0x130|37 07 46 46                                    |7.FF            |      [65]: "1999-04-04T11:00:22Z" (923223622) transition_time 0x130-0x134 (4)
0x130|            38 1c 13 36                        |    8..6        |      [66]: "1999-10-31T10:00:22Z" (941364022) transition_time 0x134-0x138 (4)
0x130|                        38 e7 28 46            |        8.(F    |      [67]: "2000-04-02T11:00:22Z" (954673222) transition_time 0x138-0x13c (4)
0x130|                                    39 fb f5 36|            9..6|      [68]: "2000-10-29T10:00:22Z" (972813622) transition_time 0x13c-0x140 (4)
0x140|3a c7 0a 46                                    |:..F            |      [69]: "2001-04-01T11:00:22Z" (986122822) transition_time 0x140-0x144 (4)
0x140|            3b db d7 36                        |    ;..6        |      [70]: "2001-10-28T10:00:22Z" (1004263222) transition_time 0x144-0x148 (4)
0x140|                        3c b0 26 c6            |        <.&.    |      [71]: "2002-04-07T11:00:22Z" (1018177222) transition_time 0x148-0x14c (4)
0x140|                                    3d bb b9 36|            =..6|      [72]: "2002-10-27T10:00:22Z" (1035712822) transition_time 0x14c-0x150 (4)
0x150|3e 90 08 c6                                    |>...            |      [73]: "2003-04-06T11:00:22Z" (1049626822) transition_time 0x150-0x154 (4)
0x150|            3f 9b 9b 36                        |    ?..6        |      [74]: "2003-10-26T10:00:22Z" (1067162422) transition_time 0x154-0x158 (4)
0x150|                        40 6f ea c6            |        @o..    |      [75]: "2004-04-04T11:00:22Z" (1081076422) transition_time 0x158-0x15c (4)
0x150|                                    41 84 b7 b6|            A...|      [76]: "2004-10-31T10:00:22Z" (1099216822) transition_time 0x15c-0x160 (4)
0x160|42 4f cc c6                                    |BO..            |      [77]: "2005-04-03T11:00:22Z" (1112526022) transition_time 0x160-0x164 (4)
0x160|            43 64 99 b6                        |    Cd..        |      [78]: "2005-10-30T10:00:22Z" (1130666422) transition_time 0x164-0x168 (4)
0x160|                        44 2f ae c7            |        D/..    |      [79]: "2006-04-02T11:00:23Z" (1143975623) transition_time 0x168-0x16c (4)
0x160|                                    45 44 7b b7|            ED{.|      [80]: "2006-10-29T10:00:23Z" (1162116023) transition_time 0x16c-0x170 (4)
0x170|45 f3 e1 47                                    |E..G            |      [81]: "2007-03-11T11:00:23Z" (1173610823) transition_time 0x170-0x174 (4)
0x170|            47 2d 98 37                        |    G-.7        |      [82]: "2007-11-04T10:00:23Z" (1194170423) transition_time 0x174-0x178 (4)
0x170|                        47 d3 c3 47            |        G..G    |      [83]: "2008-03-09T11:00:23Z" (1205060423) transition_time 0x178-0x17c (4)
0x170|                                    49 0d 7a 37|            I.z7|      [84]: "2008-11-02T10:00:23Z" (1225620023) transition_time 0x17c-0x180 (4)
0x180|49 b3 a5 48                                    |I..H            |      [85]: "2009-03-08T11:00:24Z" (1236510024) transition_time 0x180-0x184 (4)
0x180|            4a ed 5c 38                        |    J.\8        |      [86]: "2009-11-01T10:00:24Z" (1257069624) transition_time 0x184-0x188 (4)
0x180|                        4b 9c c1 c8            |        K...    |      [87]: "2010-03-14T11:00:24Z" (1268564424) transition_time 0x188-0x18c (4)
0x180|                                    4c d6 78 b8|            L.x.|      [88]: "2010-11-07T10:00:24Z" (1289124024) transition_time 0x18c-0x190 (4)
0x190|4d 7c a3 c8                                    |M|..            |      [89]: "2011-03-13T11:00:24Z" (1300014024) transition_time 0x190-0x194 (4)
0x190|            4e b6 5a b8                        |    N.Z.        |      [90]: "2011-11-06T10:00:24Z" (1320573624) transition_time 0x194-0x198 (4)
0x190|                        4f 5c 85 c8            |        O\..    |      [91]: "2012-03-11T11:00:24Z" (1331463624) transition_time 0x198-0x19c (4)
0x190|                                    50 96 3c b9|            P.<.|      [92]: "2012-11-04T10:00:25Z" (1352023225) transition_time 0x19c-0x1a0 (4)
0x1a0|51 3c 67 c9                                    |Q<g.            |      [93]: "2013-03-10T11:00:25Z" (1362913225) transition_time 0x1a0-0x1a4 (4)
0x1a0|            52 76 1e b9                        |    Rv..        |      [94]: "2013-11-03T10:00:25Z" (1383472825) transition_time 0x1a4-0x1a8 (4)
0x1a0|                        53 1c 49 c9            |        S.I.    |      [95]: "2014-03-09T11:00:25Z" (1394362825) transition_time 0x1a8-0x1ac (4)
0x1a0|                                    54 56 00 b9|            TV..|      [96]: "2014-11-02T10:00:25Z" (1414922425) transition_time 0x1ac-0x1b0 (4)
0x1b0|54 fc 2b c9                                    |T.+.            |      [97]: "2015-03-08T11:00:25Z" (1425812425) transition_time 0x1b0-0x1b4 (4)
0x1b0|            56 35 e2 ba                        |    V5..        |      [98]: "2015-11-01T10:00:26Z" (1446372026) transition_time 0x1b4-0x1b8 (4)
0x1b0|                        56 e5 48 4a            |        V.HJ    |      [99]: "2016-03-13T11:00:26Z" (1457866826) transition_time 0x1b8-0x1bc (4)
0x1b0|                                    58 1e ff 3a|            X..:|      [100]: "2016-11-06T10:00:26Z" (1478426426) transition_time 0x1bc-0x1c0 (4)
0x1c0|58 c5 2a 4b                                    |X.*K            |      [101]: "2017-03-12T11:00:27Z" (1489316427) transition_time 0x1c0-0x1c4 (4)
0x1c0|            59 fe e1 3b                        |    Y..;        |      [102]: "2017-11-05T10:00:27Z" (1509876027) transition_time 0x1c4-0x1c8 (4)
0x1c0|                        5a a5 0c 4b            |        Z..K    |      [103]: "2018-03-11T11:00:27Z" (1520766027) transition_time 0x1c8-0x1cc (4)
0x1c0|                                    5b de c3 3b|            [..;|      [104]: "2018-11-04T10:00:27Z" (1541325627) transition_time 0x1cc-0x1d0 (4)
0x1d0|5c 84 ee 4b                                    |\..K            |      [105]: "2019-03-10T11:00:27Z" (1552215627) transition_time 0x1d0-0x1d4 (4)
0x1d0|            5d be a5 3b                        |    ]..;        |      [106]: "2019-11-03T10:00:27Z" (1572775227) transition_time 0x1d4-0x1d8 (4)
0x1d0|                        5e 64 d0 4b            |        ^d.K    |      [107]: "2020-03-08T11:00:27Z" (1583665227) transition_time 0x1d8-0x1dc (4)
0x1d0|                                    5f 9e 87 3b|            _..;|      [108]: "2020-11-01T10:00:27Z" (1604224827) transition_time 0x1dc-0x1e0 (4)
0x1e0|60 4d ec cb                                    |`M..            |      [109]: "2021-03-14T11:00:27Z" (1615719627) transition_time 0x1e0-0x1e4 (4)
0x1e0|            61 87 a3 bb                        |    a...        |      [110]: "2021-11-07T10:00:27Z" (1636279227) transition_time 0x1e4-0x1e8 (4)
0x1e0|                        62 2d ce cb            |        b-..    |      [111]: "2022-03-13T11:00:27Z" (1647169227) transition_time 0x1e8-0x1ec (4)
0x1e0|                                    63 67 85 bb|            cg..|      [112]: "2022-11-06T10:00:27Z" (1667728827) transition_time 0x1ec-0x1f0 (4)
0x1f0|64 0d b0 cb                                    |d...            |      [113]: "2023-03-12T11:00:27Z" (1678618827) transition_time 0x1f0-0x1f4 (4)
0x1f0|            64 9b 78 1b                        |    d.x.        |      [114]: "2023-06-28T00:00:27Z" (1687910427) transition_time 0x1f4-0x1f8 (4)
     |                                               |                |    transition_types[0:115]: 0x1f8-0x26b (115)
0x1f0|                        01                     |        .       |      [0]: 1 transition_type 0x1f8-0x1f9 (1)
0x1f0|                           02                  |         .      |      [1]: 2 transition_type 0x1f9-0x1fa (1)
0x1f0|                              03               |          .     |      [2]: 3 transition_type 0x1fa-0x1fb (1)
0x1f0|                                 01            |           .    |      [3]: 1 transition_type 0x1fb-0x1fc (1)
0x1f0|                                    04         |            .   |      [4]: 4 transition_type 0x1fc-0x1fd (1)
0x1f0|                                       01      |             .  |      [5]: 1 transition_type 0x1fd-0x1fe (1)
0x1f0|                                          04   |              . |      [6]: 4 transition_type 0x1fe-0x1ff (1)
0x1f0|                                             01|               .|      [7]: 1 transition_type 0x1ff-0x200 (1)
0x200|04                                             |.               |      [8]: 4 transition_type 0x200-0x201 (1)
0x200|   01                                          | .              |      [9]: 1 transition_type 0x201-0x202 (1)
0x200|      04                                       |  .             |      [10]: 4 transition_type 0x202-0x203 (1)
0x200|         01                                    |   .            |      [11]: 1 transition_type 0x203-0x204 (1)
0x200|            04                                 |    .           |      [12]: 4 transition_type 0x204-0x205 (1)
0x200|               01                              |     .          |      [13]: 1 transition_type 0x205-0x206 (1)
0x200|                  04                           |      .         |      [14]: 4 transition_type 0x206-0x207 (1)
0x200|                     01                        |       .        |      [15]: 1 transition_type 0x207-0x208 (1)
0x200|                        04                     |        .       |      [16]: 4 transition_type 0x208-0x209 (1)
0x200|                           01                  |         .      |      [17]: 1 transition_type 0x209-0x20a (1)
0x200|                              04               |          .     |      [18]: 4 transition_type 0x20a-0x20b (1)
0x200|                                 01            |           .    |      [19]: 1 transition_type 0x20b-0x20c (1)
0x200|                                    04         |            .   |      [20]: 4 transition_type 0x20c-0x20d (1)
0x200|                                       01      |             .  |      [21]: 1 transition_type 0x20d-0x20e (1)
0x200|                                          04   |              . |      [22]: 4 transition_type 0x20e-0x20f (1)
0x200|                                             01|               .|      [23]: 1 transition_type 0x20f-0x210 (1)
0x210|04                                             |.               |      [24]: 4 transition_type 0x210-0x211 (1)
0x210|   01                                          | .              |      [25]: 1 transition_type 0x211-0x212 (1)
0x210|      05                                       |  .             |      [26]: 5 transition_type 0x212-0x213 (1)
0x210|         01                                    |   .            |      [27]: 1 transition_type 0x213-0x214 (1)
0x210|            04                                 |    .           |      [28]: 4 transition_type 0x214-0x215 (1)
0x210|               01                              |     .          |      [29]: 1 transition_type 0x215-0x216 (1)
0x210|                  04                           |      .         |      [30]: 4 transition_type 0x216-0x217 (1)
0x210|                     01                        |       .        |      [31]: 1 transition_type 0x217-0x218 (1)
0x210|                        04                     |        .       |      [32]: 4 transition_type 0x218-0x219 (1)
0x210|                           06                  |         .      |      [33]: 6 transition_type 0x219-0x21a (1)
0x210|                              08               |          .     |      [34]: 8 transition_type 0x21a-0x21b (1)
0x210|                                 07            |           .    |      [35]: 7 transition_type 0x21b-0x21c (1)
0x210|                                    08         |            .   |      [36]: 8 transition_type 0x21c-0x21d (1)
0x210|                                       07      |             .  |      [37]: 7 transition_type 0x21d-0x21e (1)
0x210|                                          08   |              . |      [38]: 8 transition_type 0x21e-0x21f (1)
0x210|                                             07|               .|      [39]: 7 transition_type 0x21f-0x220 (1)
0x220|08                                             |.               |      [40]: 8 transition_type 0x220-0x221 (1)
0x220|   07                                          | .              |      [41]: 7 transition_type 0x221-0x222 (1)
0x220|      08                                       |  .             |      [42]: 8 transition_type 0x222-0x223 (1)
0x220|         07                                    |   .            |      [43]: 7 transition_type 0x223-0x224 (1)
0x220|            08                                 |    .           |      [44]: 8 transition_type 0x224-0x225 (1)
0x220|               07                              |     .          |      [45]: 7 transition_type 0x225-0x226 (1)
0x220|                  08                           |      .         |      [46]: 8 transition_type 0x226-0x227 (1)
0x220|                     07                        |       .        |      [47]: 7 transition_type 0x227-0x228 (1)
0x220|                        08                     |        .       |      [48]: 8 transition_type 0x228-0x229 (1)
0x220|                           07                  |         .      |      [49]: 7 transition_type 0x229-0x22a (1)
0x220|                              08               |          .     |      [50]: 8 transition_type 0x22a-0x22b (1)
0x220|                                 07            |           .    |      [51]: 7 transition_type 0x22b-0x22c (1)
0x220|                                    08         |            .   |      [52]: 8 transition_type 0x22c-0x22d (1)
0x220|                                       07      |             .  |      [53]: 7 transition_type 0x22d-0x22e (1)
0x220|                                          08   |              . |      [54]: 8 transition_type 0x22e-0x22f (1)
0x220|                                             07|               .|      [55]: 7 transition_type 0x22f-0x230 (1)
0x230|08                                             |.               |      [56]: 8 transition_type 0x230-0x231 (1)
0x230|   07                                          | .              |      [57]: 7 transition_type 0x231-0x232 (1)
0x230|      08                                       |  .             |      [58]: 8 transition_type 0x232-0x233 (1)
0x230|         07                                    |   .            |      [59]: 7 transition_type 0x233-0x234 (1)
0x230|            08                                 |    .           |      [60]: 8 transition_type 0x234-0x235 (1)
0x230|               07                              |     .          |      [61]: 7 transition_type 0x235-0x236 (1)
0x230|                  08                           |      .         |      [62]: 8 transition_type 0x236-0x237 (1)
0x230|                     07                        |       .        |      [63]: 7 transition_type 0x237-0x238 (1)
0x230|                        08                     |        .       |      [64]: 8 transition_type 0x238-0x239 (1)
0x230|                           07                  |         .      |      [65]: 7 transition_type 0x239-0x23a (1)
0x230|                              08               |          .     |      [66]: 8 transition_type 0x23a-0x23b (1)
0x230|                                 07            |           .    |      [67]: 7 transition_type 0x23b-0x23c (1)
0x230|                                    08         |            .   |      [68]: 8 transition_type 0x23c-0x23d (1)
0x230|                                       07      |             .  |      [69]: 7 transition_type 0x23d-0x23e (1)
0x230|                                          08   |              . |      [70]: 8 transition_type 0x23e-0x23f (1)
0x230|                                             07|               .|      [71]: 7 transition_type 0x23f-0x240 (1)
0x240|08                                             |.               |      [72]: 8 transition_type 0x240-0x241 (1)
0x240|   07                                          | .              |      [73]: 7 transition_type 0x241-0x242 (1)
0x240|      08                                       |  .             |      [74]: 8 transition_type 0x242-0x243 (1)
0x240|         07                                    |   .            |      [75]: 7 transition_type 0x243-0x244 (1)
0x240|            08                                 |    .           |      [76]: 8 transition_type 0x244-0x245 (1)
0x240|               07                              |     .          |      [77]: 7 transition_type 0x245-0x246 (1)
0x240|                  08                           |      .         |      [78]: 8 transition_type 0x246-0x247 (1)
0x240|                     07                        |       .        |      [79]: 7 transition_type 0x247-0x248 (1)
0x240|                        08                     |        .       |      [80]: 8 transition_type 0x248-0x249 (1)
0x240|                           07                  |         .      |      [81]: 7 transition_type 0x249-0x24a (1)
0x240|                              08               |          .     |      [82]: 8 transition_type 0x24a-0x24b (1)
0x240|                                 07            |           .    |      [83]: 7 transition_type 0x24b-0x24c (1)
0x240|                                    08         |            .   |      [84]: 8 transition_type 0x24c-0x24d (1)
0x240|                                       07      |             .  |      [85]: 7 transition_type 0x24d-0x24e (1)
0x240|                                          08   |              . |      [86]: 8 transition_type 0x24e-0x24f (1)
0x240|                                             07|               .|      [87]: 7 transition_type 0x24f-0x250 (1)
0x250|08                                             |.               |      [88]: 8 transition_type 0x250-0x251 (1)
0x250|   07                                          | .              |      [89]: 7 transition_type 0x251-0x252 (1)
0x250|      08                                       |  .             |      [90]: 8 transition_type 0x252-0x253 (1)
0x250|         07                                    |   .            |      [91]: 7 transition_type 0x253-0x254 (1)
0x250|            08                                 |    .           |      [92]: 8 transition_type 0x254-0x255 (1)
0x250|               07                              |     .          |      [93]: 7 transition_type 0x255-0x256 (1)
0x250|                  08                           |      .         |      [94]: 8 transition_type 0x256-0x257 (1)
0x250|                     07                        |       .        |      [95]: 7 transition_type 0x257-0x258 (1)
0x250|                        08                     |        .       |      [96]: 8 transition_type 0x258-0x259 (1)
0x250|                           07                  |         .      |      [97]: 7 transition_type 0x259-0x25a (1)
0x250|                              08               |          .     |      [98]: 8 transition_type 0x25a-0x25b (1)
0x250|                                 07            |           .    |      [99]: 7 transition_type 0x25b-0x25c (1)
0x250|                                    08         |            .   |      [100]: 8 transition_type 0x25c-0x25d (1)
0x250|                                       07      |             .  |      [101]: 7 transition_type 0x25d-0x25e (1)
0x250|                                          08   |              . |      [102]: 8 transition_type 0x25e-0x25f (1)
0x250|                                             07|               .|      [103]: 7 transition_type 0x25f-0x260 (1)
0x260|08                                             |.               |      [104]: 8 transition_type 0x260-0x261 (1)
0x260|   07                                          | .              |      [105]: 7 transition_type 0x261-0x262 (1)
0x260|      08                                       |  .             |      [106]: 8 transition_type 0x262-0x263 (1)
0x260|         07                                    |   .            |      [107]: 7 transition_type 0x263-0x264 (1)
0x260|            08                                 |    .           |      [108]: 8 transition_type 0x264-0x265 (1)
0x260|               07                              |     .          |      [109]: 7 transition_type 0x265-0x266 (1)
0x260|                  08                           |      .         |      [110]: 8 transition_type 0x266-0x267 (1)
0x260|                     07                        |       .        |      [111]: 7 transition_type 0x267-0x268 (1)
0x260|                        08                     |        .       |      [112]: 8 transition_type 0x268-0x269 (1)
0x260|                           07                  |         .      |      [113]: 7 transition_type 0x269-0x26a (1)
0x260|                              07               |          .     |      [114]: 7 transition_type 0x26a-0x26b (1)
     |                                               |                |    local_time_type_records[0:9]: 0x26b-0x2a1 (54)
     |                                               |                |      [0]{}: local_time_type 0x26b-0x271 (6)
0x260|                                 00 00 d3 7b   |           ...{ |        utoff: 54139 (valid) 0x26b-0x26f (4)
0x260|                                             00|               .|        dst: 0 (valid) 0x26f-0x270 (1)
0x270|00                                             |.               |        idx: 0 (valid) 0x270-0x271 (1)
     |                                               |                |      [1]{}: local_time_type 0x271-0x277 (6)
0x270|   ff ff 8f 80                                 | ....           |        utoff: -28800 (valid) 0x271-0x275 (4)
0x270|               00                              |     .          |        dst: 0 (valid) 0x275-0x276 (1)
0x270|                  04                           |      .         |        idx: 4 (valid) 0x276-0x277 (1)
     |                                               |                |      [2]{}: local_time_type 0x277-0x27d (6)
0x270|                     ff ff 9d 90               |       ....     |        utoff: -25200 (valid) 0x277-0x27b (4)
0x270|                                 01            |           .    |        dst: 1 (valid) 0x27b-0x27c (1)
0x270|                                    08         |            .   |        idx: 8 (valid) 0x27c-0x27d (1)
     |                                               |                |      [3]{}: local_time_type 0x27d-0x283 (6)
0x270|                                       ff ff 9d|             ...|        utoff: -25200 (valid) 0x27d-0x281 (4)
0x280|90                                             |.               |
0x280|   01                                          | .              |        dst: 1 (valid) 0x281-0x282 (1)
0x280|      0c                                       |  .             |        idx: 12 (valid) 0x282-0x283 (1)
     |                                               |                |      [4]{}: local_time_type 0x283-0x289 (6)
0x280|         ff ff 9d 90                           |   ....         |        utoff: -25200 (valid) 0x283-0x287 (4)
0x280|                     01                        |       .        |        dst: 1 (valid) 0x287-0x288 (1)
0x280|                        10                     |        .       |        idx: 16 (valid) 0x288-0x289 (1)
     |                                               |                |      [5]{}: local_time_type 0x289-0x28f (6)
0x280|                           ff ff 8f 80         |         ....   |        utoff: -28800 (valid) 0x289-0x28d (4)
0x280|                                       01      |             .  |        dst: 1 (valid) 0x28d-0x28e (1)
0x280|                                          14   |              . |        idx: 20 (valid) 0x28e-0x28f (1)
     |                                               |                |      [6]{}: local_time_type 0x28f-0x295 (6)
0x280|                                             ff|               .|        utoff: -32400 (valid) 0x28f-0x293 (4)
0x290|ff 81 70                                       |..p             |
0x290|         00                                    |   .            |        dst: 0 (valid) 0x293-0x294 (1)
0x290|            18                                 |    .           |        idx: 24 (valid) 0x294-0x295 (1)
     |                                               |                |      [7]{}: local_time_type 0x295-0x29b (6)
0x290|               ff ff 8f 80                     |     ....       |        utoff: -28800 (valid) 0x295-0x299 (4)
0x290|                           01                  |         .      |        dst: 1 (valid) 0x299-0x29a (1)
0x290|                              1c               |          .     |        idx: 28 (valid) 0x29a-0x29b (1)
     |                                               |                |      [8]{}: local_time_type 0x29b-0x2a1 (6)
0x290|                                 ff ff 81 70   |           ...p |        utoff: -32400 (valid) 0x29b-0x29f (4)
0x290|                                             00|               .|        dst: 0 (valid) 0x29f-0x2a0 (1)
0x2a0|21                                             |!               |        idx: 33 (valid) 0x2a0-0x2a1 (1)
     |                                               |                |    time_zone_designations[0:9]: 0x2a1-0x2c7 (38)
0x2a0|   4c 4d 54 00                                 | LMT.           |      [0]: "LMT" time_zone_designation 0x2a1-0x2a5 (4)
0x2a0|               50 53 54 00                     |     PST.       |      [1]: "PST" time_zone_designation 0x2a5-0x2a9 (4)
0x2a0|                           50 57 54 00         |         PWT.   |      [2]: "PWT" time_zone_designation 0x2a9-0x2ad (4)
0x2a0|                                       50 50 54|             PPT|      [3]: "PPT" time_zone_designation 0x2ad-0x2b1 (4)
0x2b0|00                                             |.               |
0x2b0|   50 44 54 00                                 | PDT.           |      [4]: "PDT" time_zone_designation 0x2b1-0x2b5 (4)
0x2b0|               59 44 54 00                     |     YDT.       |      [5]: "YDT" time_zone_designation 0x2b5-0x2b9 (4)
0x2b0|                           59 53 54 00         |         YST.   |      [6]: "YST" time_zone_designation 0x2b9-0x2bd (4)
0x2b0|                                       41 4b 44|             AKD|      [7]: "AKDT" time_zone_designation 0x2bd-0x2c2 (5)
0x2c0|54 00                                          |T.              |
0x2c0|      41 4b 53 54 00                           |  AKST.         |      [8]: "AKST" time_zone_designation 0x2c2-0x2c7 (5)
     |                                               |                |    leap_second_records[0:27]: 0x2c7-0x39f (216)
     |                                               |                |      [0]{}: leap_second_record 0x2c7-0x2cf (8)
0x2c0|                     04 b2 58 00               |       ..X.     |        occur: "1972-07-01T00:00:00Z" (78796800) 0x2c7-0x2cb (4)
0x2c0|                                 00 00 00 01   |           .... |        corr: 1 0x2cb-0x2cf (4)
     |                                               |                |      [1]{}: leap_second_record 0x2cf-0x2d7 (8)
0x2c0|                                             05|               .|        occur: "1973-01-01T00:00:01Z" (94694401) 0x2cf-0x2d3 (4)
0x2d0|a4 ec 01                                       |...             |
0x2d0|         00 00 00 02                           |   ....         |        corr: 2 0x2d3-0x2d7 (4)
     |                                               |                |      [2]{}: leap_second_record 0x2d7-0x2df (8)
0x2d0|                     07 86 1f 82               |       ....     |        occur: "1974-01-01T00:00:02Z" (126230402) 0x2d7-0x2db (4)
0x2d0|                                 00 00 00 03   |           .... |        corr: 3 0x2db-0x2df (4)
     |                                               |                |      [3]{}: leap_second_record 0x2df-0x2e7 (8)
0x2d0|                                             09|               .|        occur: "1975-01-01T00:00:03Z" (157766403) 0x2df-0x2e3 (4)
0x2e0|67 53 03                                       |gS.             |
0x2e0|         00 00 00 04                           |   ....         |        corr: 4 0x2e3-0x2e7 (4)
     |                                               |                |      [4]{}: leap_second_record 0x2e7-0x2ef (8)
0x2e0|                     0b 48 86 84               |       .H..     |        occur: "1976-01-01T00:00:04Z" (189302404) 0x2e7-0x2eb (4)
0x2e0|                                 00 00 00 05   |           .... |        corr: 5 0x2eb-0x2ef (4)
     |                                               |                |      [5]{}: leap_second_record 0x2ef-0x2f7 (8)
0x2e0|                                             0d|               .|        occur: "1977-01-01T00:00:05Z" (220924805) 0x2ef-0x2f3 (4)
0x2f0|2b 0b 85                                       |+..             |
0x2f0|         00 00 00 06                           |   ....         |        corr: 6 0x2f3-0x2f7 (4)
     |                                               |                |      [6]{}: leap_second_record 0x2f7-0x2ff (8)
0x2f0|                     0f 0c 3f 06               |       ..?.     |        occur: "1978-01-01T00:00:06Z" (252460806) 0x2f7-0x2fb (4)
0x2f0|                                 00 00 00 07   |           .... |        corr: 7 0x2fb-0x2ff (4)
     |                                               |                |      [7]{}: leap_second_record 0x2ff-0x307 (8)
0x2f0|                                             10|               .|        occur: "1979-01-01T00:00:07Z" (283996807) 0x2ff-0x303 (4)
0x300|ed 72 87                                       |.r.             |
0x300|         00 00 00 08                           |   ....         |        corr: 8 0x303-0x307 (4)
     |                                               |                |      [8]{}: leap_second_record 0x307-0x30f (8)
0x300|                     12 ce a6 08               |       ....     |        occur: "1980-01-01T00:00:08Z" (315532808) 0x307-0x30b (4)
0x300|                                 00 00 00 09   |           .... |        corr: 9 0x30b-0x30f (4)
     |                                               |                |      [9]{}: leap_second_record 0x30f-0x317 (8)
0x300|                                             15|               .|        occur: "1981-07-01T00:00:09Z" (362793609) 0x30f-0x313 (4)
0x310|9f ca 89                                       |...             |
0x310|         00 00 00 0a                           |   ....         |        corr: 10 0x313-0x317 (4)
     |                                               |                |      [10]{}: leap_second_record 0x317-0x31f (8)
0x310|                     17 80 fe 0a               |       ....     |        occur: "1982-07-01T00:00:10Z" (394329610) 0x317-0x31b (4)
0x310|                                 00 00 00 0b   |           .... |        corr: 11 0x31b-0x31f (4)
     |                                               |                |      [11]{}: leap_second_record 0x31f-0x327 (8)
0x310|                                             19|               .|        occur: "1983-07-01T00:00:11Z" (425865611) 0x31f-0x323 (4)
0x320|62 31 8b                                       |b1.             |
0x320|         00 00 00 0c                           |   ....         |        corr: 12 0x323-0x327 (4)
     |                                               |                |      [12]{}: leap_second_record 0x327-0x32f (8)
0x320|                     1d 25 ea 0c               |       .%..     |        occur: "1985-07-01T00:00:12Z" (489024012) 0x327-0x32b (4)
0x320|                                 00 00 00 0d   |           .... |        corr: 13 0x32b-0x32f (4)
     |                                               |                |      [13]{}: leap_second_record 0x32f-0x337 (8)
0x320|                                             21|               !|        occur: "1988-01-01T00:00:13Z" (567993613) 0x32f-0x333 (4)
0x330|da e5 0d                                       |...             |
0x330|         00 00 00 0e                           |   ....         |        corr: 14 0x333-0x337 (4)
     |                                               |                |      [14]{}: leap_second_record 0x337-0x33f (8)
0x330|                     25 9e 9d 8e               |       %...     |        occur: "1990-01-01T00:00:14Z" (631152014) 0x337-0x33b (4)
0x330|                                 00 00 00 0f   |           .... |        corr: 15 0x33b-0x33f (4)
     |                                               |                |      [15]{}: leap_second_record 0x33f-0x347 (8)
0x330|                                             27|               '|        occur: "1991-01-01T00:00:15Z" (662688015) 0x33f-0x343 (4)
0x340|7f d1 0f                                       |...             |
0x340|         00 00 00 10                           |   ....         |        corr: 16 0x343-0x347 (4)
     |                                               |                |      [16]{}: leap_second_record 0x347-0x34f (8)
0x340|                     2a 50 f5 90               |       *P..     |        occur: "1992-07-01T00:00:16Z" (709948816) 0x347-0x34b (4)
0x340|                                 00 00 00 11   |           .... |        corr: 17 0x34b-0x34f (4)
     |                                               |                |      [17]{}: leap_second_record 0x34f-0x357 (8)
0x340|                                             2c|               ,|        occur: "1993-07-01T00:00:17Z" (741484817) 0x34f-0x353 (4)
0x350|32 29 11                                       |2).             |
0x350|         00 00 00 12                           |   ....         |        corr: 18 0x353-0x357 (4)
     |                                               |                |      [18]{}: leap_second_record 0x357-0x35f (8)
0x350|                     2e 13 5c 92               |       ..\.     |        occur: "1994-07-01T00:00:18Z" (773020818) 0x357-0x35b (4)
0x350|                                 00 00 00 13   |           .... |        corr: 19 0x35b-0x35f (4)
     |                                               |                |      [19]{}: leap_second_record 0x35f-0x367 (8)
0x350|                                             30|               0|        occur: "1996-01-01T00:00:19Z" (820454419) 0x35f-0x363 (4)
0x360|e7 24 13                                       |.$.             |
0x360|         00 00 00 14                           |   ....         |        corr: 20 0x363-0x367 (4)
     |                                               |                |      [20]{}: leap_second_record 0x367-0x36f (8)
0x360|                     33 b8 48 94               |       3.H.     |        occur: "1997-07-01T00:00:20Z" (867715220) 0x367-0x36b (4)
0x360|                                 00 00 00 15   |           .... |        corr: 21 0x36b-0x36f (4)
     |                                               |                |      [21]{}: leap_second_record 0x36f-0x377 (8)
0x360|                                             36|               6|        occur: "1999-01-01T00:00:21Z" (915148821) 0x36f-0x373 (4)
0x370|8c 10 15                                       |...             |
0x370|         00 00 00 16                           |   ....         |        corr: 22 0x373-0x377 (4)
     |                                               |                |      [22]{}: leap_second_record 0x377-0x37f (8)
0x370|                     43 b7 1b 96               |       C...     |        occur: "2006-01-01T00:00:22Z" (1136073622) 0x377-0x37b (4)
0x370|                                 00 00 00 17   |           .... |        corr: 23 0x37b-0x37f (4)
     |                                               |                |      [23]{}: leap_second_record 0x37f-0x387 (8)
0x370|                                             49|               I|        occur: "2009-01-01T00:00:23Z" (1230768023) 0x37f-0x383 (4)
0x380|5c 07 97                                       |\..             |
0x380|         00 00 00 18                           |   ....         |        corr: 24 0x383-0x387 (4)
     |                                               |                |      [24]{}: leap_second_record 0x387-0x38f (8)
0x380|                     4f ef 93 18               |       O...     |        occur: "2012-07-01T00:00:24Z" (1341100824) 0x387-0x38b (4)
0x380|                                 00 00 00 19   |           .... |        corr: 25 0x38b-0x38f (4)
     |                                               |                |      [25]{}: leap_second_record 0x38f-0x397 (8)
0x380|                                             55|               U|        occur: "2015-07-01T00:00:25Z" (1435708825) 0x38f-0x393 (4)
0x390|93 2d 99                                       |.-.             |
0x390|         00 00 00 1a                           |   ....         |        corr: 26 0x393-0x397 (4)
     |                                               |                |      [26]{}: leap_second_record 0x397-0x39f (8)
0x390|                     58 68 46 9a               |       XhF.     |        occur: "2017-01-01T00:00:26Z" (1483228826) 0x397-0x39b (4)
0x390|                                 00 00 00 1b   |           .... |        corr: 27 0x39b-0x39f (4)
     |                                               |                |    standard_wall_indicators[0:9]: 0x39f-0x3a8 (9)
0x390|                                             00|               .|      [0]: 0 standard_wall_indicator (valid) 0x39f-0x3a0 (1)
0x3a0|00                                             |.               |      [1]: 0 standard_wall_indicator (valid) 0x3a0-0x3a1 (1)
0x3a0|   00                                          | .              |      [2]: 0 standard_wall_indicator (valid) 0x3a1-0x3a2 (1)
0x3a0|      01                                       |  .             |      [3]: 1 standard_wall_indicator (valid) 0x3a2-0x3a3 (1)
0x3a0|         00                                    |   .            |      [4]: 0 standard_wall_indicator (valid) 0x3a3-0x3a4 (1)
0x3a0|            00                                 |    .           |      [5]: 0 standard_wall_indicator (valid) 0x3a4-0x3a5 (1)
0x3a0|               00                              |     .          |      [6]: 0 standard_wall_indicator (valid) 0x3a5-0x3a6 (1)
0x3a0|                  00                           |      .         |      [7]: 0 standard_wall_indicator (valid) 0x3a6-0x3a7 (1)
0x3a0|                     00                        |       .        |      [8]: 0 standard_wall_indicator (valid) 0x3a7-0x3a8 (1)
     |                                               |                |    ut_local_indicators[0:9]: 0x3a8-0x3b1 (9)
0x3a0|                        00                     |        .       |      [0]: 0 ut_local_indicator (valid) 0x3a8-0x3a9 (1)
0x3a0|                           00                  |         .      |      [1]: 0 ut_local_indicator (valid) 0x3a9-0x3aa (1)
0x3a0|                              00               |          .     |      [2]: 0 ut_local_indicator (valid) 0x3aa-0x3ab (1)
0x3a0|                                 01            |           .    |      [3]: 1 ut_local_indicator (valid) 0x3ab-0x3ac (1)
0x3a0|                                    00         |            .   |      [4]: 0 ut_local_indicator (valid) 0x3ac-0x3ad (1)
0x3a0|                                       00      |             .  |      [5]: 0 ut_local_indicator (valid) 0x3ad-0x3ae (1)
0x3a0|                                          00   |              . |      [6]: 0 ut_local_indicator (valid) 0x3ae-0x3af (1)
0x3a0|                                             00|               .|      [7]: 0 ut_local_indicator (valid) 0x3af-0x3b0 (1)
0x3b0|00                                             |.               |      [8]: 0 ut_local_indicator (valid) 0x3b0-0x3b1 (1)
     |                                               |                |  v2plusheader{}: 0x3b1-0x3dd (44)
0x3b0|   54 5a 69 66                                 | TZif           |    magic: 0x545a6966 (valid) 0x3b1-0x3b5 (4)
0x3b0|               32                              |     2          |    ver: "2" (0x32) (valid) 0x3b5-0x3b6 (1)
0x3b0|                  00 00 00 00 00 00 00 00 00 00|      ..........|    reserved: raw bits 0x3b6-0x3c5 (15)
0x3c0|00 00 00 00 00                                 |.....           |
0x3c0|               00 00 00 0a                     |     ....       |    isutcnt: 10 0x3c5-0x3c9 (4)
0x3c0|                           00 00 00 0a         |         ....   |    isstdcnt: 10 0x3c9-0x3cd (4)
0x3c0|                                       00 00 00|             ...|    leapcnt: 27 0x3cd-0x3d1 (4)
0x3d0|1b                                             |.               |
0x3d0|   00 00 00 74                                 | ...t           |    timecnt: 116 0x3d1-0x3d5 (4)
0x3d0|               00 00 00 0a                     |     ....       |    typecnt: 10 0x3d5-0x3d9 (4)
0x3d0|                           00 00 00 26         |         ...&   |    charcnt: 38 0x3d9-0x3dd (4)
     |                                               |                |  v2plusdatablock{}: 0x3dd-0x9ab (1486)
     |                                               |                |    transition_times[0:116]: 0x3dd-0x77d (928)
0x3d0|                                       ff ff ff|             ...|      [0]: "1867-10-19T00:31:13Z" (-3225223727) transition_time 0x3dd-0x3e5 (8)
0x3e0|ff 3f c2 fd d1                                 |.?...           |
0x3e0|               ff ff ff ff 7d 87 32 c5         |     ....}.2.   |      [1]: "1900-08-20T20:57:41Z" (-2188954939) transition_time 0x3e5-0x3ed (8)
0x3e0|                                       ff ff ff|             ...|      [2]: "1942-02-09T10:00:00Z" (-880207200) transition_time 0x3ed-0x3f5 (8)
0x3f0|ff cb 89 1a a0                                 |.....           |
0x3f0|               ff ff ff ff d2 23 f4 70         |     .....#.p   |      [3]: "1945-08-14T23:00:00Z" (-769395600) transition_time 0x3f5-0x3fd (8)
0x3f0|                                       ff ff ff|             ...|      [4]: "1945-09-30T09:00:00Z" (-765385200) transition_time 0x3fd-0x405 (8)
0x400|ff d2 61 26 10                                 |..a&.           |
0x400|               ff ff ff ff fe b8 47 20         |     ......G    |      [5]: "1969-04-27T10:00:00Z" (-21477600) transition_time 0x405-0x40d (8)
0x400|                                       ff ff ff|             ...|      [6]: "1969-10-26T09:00:00Z" (-5756400) transition_time 0x40d-0x415 (8)
0x410|ff ff a8 2a 10                                 |...*.           |
0x410|               00 00 00 00 00 98 29 20         |     ......)    |      [7]: "1970-04-26T10:00:00Z" (9972000) transition_time 0x415-0x41d (8)
0x410|                                       00 00 00|             ...|      [8]: "1970-10-25T09:00:00Z" (25693200) transition_time 0x41d-0x425 (8)
0x420|00 01 88 0c 10                                 |.....           |
0x420|               00 00 00 00 02 78 0b 20         |     .....x.    |      [9]: "1971-04-25T10:00:00Z" (41421600) transition_time 0x425-0x42d (8)
0x420|                                       00 00 00|             ...|      [10]: "1971-10-31T09:00:00Z" (57747600) transition_time 0x42d-0x435 (8)
0x430|00 03 71 28 90                                 |..q(.           |
0x430|               00 00 00 00 04 61 27 a0         |     .....a'.   |      [11]: "1972-04-30T10:00:00Z" (73476000) transition_time 0x435-0x43d (8)
0x430|                                       00 00 00|             ...|      [12]: "1972-10-29T09:00:01Z" (89197201) transition_time 0x43d-0x445 (8)
0x440|00 05 51 0a 91                                 |..Q..           |
0x440|               00 00 00 00 06 41 09 a2         |     .....A..   |      [13]: "1973-04-29T10:00:02Z" (104925602) transition_time 0x445-0x44d (8)
0x440|                                       00 00 00|             ...|      [14]: "1973-10-28T09:00:02Z" (120646802) transition_time 0x44d-0x455 (8)
0x450|00 07 30 ec 92                                 |..0..           |
0x450|               00 00 00 00 07 8d 43 a3         |     ......C.   |      [15]: "1974-01-06T10:00:03Z" (126698403) transition_time 0x455-0x45d (8)
0x450|                                       00 00 00|             ...|      [16]: "1974-10-27T09:00:03Z" (152096403) transition_time 0x45d-0x465 (8)
0x460|00 09 10 ce 93                                 |.....           |
0x460|               00 00 00 00 09 ad bf 24         |     .......$   |      [17]: "1975-02-23T10:00:04Z" (162381604) transition_time 0x465-0x46d (8)
0x460|                                       00 00 00|             ...|      [18]: "1975-10-26T09:00:04Z" (183546004) transition_time 0x46d-0x475 (8)
0x470|00 0a f0 b0 94                                 |.....           |
0x470|               00 00 00 00 0b e0 af a5         |     ........   |      [19]: "1976-04-25T10:00:05Z" (199274405) transition_time 0x475-0x47d (8)
0x470|                                       00 00 00|             ...|      [20]: "1976-10-31T09:00:05Z" (215600405) transition_time 0x47d-0x485 (8)
0x480|00 0c d9 cd 15                                 |.....           |
0x480|               00 00 00 00 0d c0 91 a6         |     ........   |      [21]: "1977-04-24T10:00:06Z" (230724006) transition_time 0x485-0x48d (8)
0x480|                                       00 00 00|             ...|      [22]: "1977-10-30T09:00:06Z" (247050006) transition_time 0x48d-0x495 (8)
0x490|00 0e b9 af 16                                 |.....           |
0x490|               00 00 00 00 0f a9 ae 27         |     .......'   |      [23]: "1978-04-30T10:00:07Z" (262778407) transition_time 0x495-0x49d (8)
0x490|                                       00 00 00|             ...|      [24]: "1978-10-29T09:00:07Z" (278499607) transition_time 0x49d-0x4a5 (8)
0x4a0|00 10 99 91 17                                 |.....           |
0x4a0|               00 00 00 00 11 89 90 28         |     .......(   |      [25]: "1979-04-29T10:00:08Z" (294228008) transition_time 0x4a5-0x4ad (8)
0x4a0|                                       00 00 00|             ...|      [26]: "1979-10-28T09:00:08Z" (309949208) transition_time 0x4ad-0x4b5 (8)
0x4b0|00 12 79 73 18                                 |..ys.           |
0x4b0|               00 00 00 00 13 69 72 29         |     .....ir)   |      [27]: "1980-04-27T10:00:09Z" (325677609) transition_time 0x4b5-0x4bd (8)
0x4b0|                                       00 00 00|             ...|      [28]: "1980-10-26T10:00:09Z" (341402409) transition_time 0x4bd-0x4c5 (8)
0x4c0|00 14 59 63 29                                 |..Yc)           |
0x4c0|               00 00 00 00 15 49 54 29         |     .....IT)   |      [29]: "1981-04-26T10:00:09Z" (357127209) transition_time 0x4c5-0x4cd (8)
0x4c0|                                       00 00 00|             ...|      [30]: "1981-10-25T09:00:10Z" (372848410) transition_time 0x4cd-0x4d5 (8)
0x4d0|00 16 39 37 1a                                 |..97.           |
0x4d0|               00 00 00 00 17 29 36 2a         |     .....)6*   |      [31]: "1982-04-25T10:00:10Z" (388576810) transition_time 0x4d5-0x4dd (8)
0x4d0|                                       00 00 00|             ...|      [32]: "1982-10-31T09:00:11Z" (404902811) transition_time 0x4dd-0x4e5 (8)
0x4e0|00 18 22 53 9b                                 |.."S.           |
0x4e0|               00 00 00 00 19 09 18 2b         |     .......+   |      [33]: "1983-04-24T10:00:11Z" (420026411) transition_time 0x4e5-0x4ed (8)
0x4e0|                                       00 00 00|             ...|      [34]: "1983-10-30T09:00:12Z" (436352412) transition_time 0x4ed-0x4f5 (8)
0x4f0|00 1a 02 35 9c                                 |...5.           |
0x4f0|               00 00 00 00 1a 2b 14 1c         |     .....+..   |      [35]: "1983-11-30T09:00:12Z" (439030812) transition_time 0x4f5-0x4fd (8)
0x4f0|                                       00 00 00|             ...|      [36]: "1984-04-29T11:00:12Z" (452084412) transition_time 0x4fd-0x505 (8)
0x500|00 1a f2 42 bc                                 |...B.           |
0x500|               00 00 00 00 1b e2 25 ac         |     ......%.   |      [37]: "1984-10-28T10:00:12Z" (467805612) transition_time 0x505-0x50d (8)
0x500|                                       00 00 00|             ...|      [38]: "1985-04-28T11:00:12Z" (483534012) transition_time 0x50d-0x515 (8)
0x510|00 1c d2 24 bc                                 |...$.           |
0x510|               00 00 00 00 1d c2 07 ad         |     ........   |      [39]: "1985-10-27T10:00:13Z" (499255213) transition_time 0x515-0x51d (8)
0x510|                                       00 00 00|             ...|      [40]: "1986-04-27T11:00:13Z" (514983613) transition_time 0x51d-0x525 (8)
0x520|00 1e b2 06 bd                                 |.....           |
0x520|               00 00 00 00 1f a1 e9 ad         |     ........   |      [41]: "1986-10-26T10:00:13Z" (530704813) transition_time 0x525-0x52d (8)
0x520|                                       00 00 00|             ...|      [42]: "1987-04-05T11:00:13Z" (544618813) transition_time 0x52d-0x535 (8)
0x530|00 20 76 39 3d                                 |. v9=           |
0x530|               00 00 00 00 21 81 cb ad         |     ....!...   |      [43]: "1987-10-25T10:00:13Z" (562154413) transition_time 0x535-0x53d (8)
0x530|                                       00 00 00|             ...|      [44]: "1988-04-03T11:00:14Z" (576068414) transition_time 0x53d-0x545 (8)
0x540|00 22 56 1b 3e                                 |."V.>           |
0x540|               00 00 00 00 23 6a e8 2e         |     ....#j..   |      [45]: "1988-10-30T10:00:14Z" (594208814) transition_time 0x545-0x54d (8)
0x540|                                       00 00 00|             ...|      [46]: "1989-04-02T11:00:14Z" (607518014) transition_time 0x54d-0x555 (8)
0x550|00 24 35 fd 3e                                 |.$5.>           |
0x550|               00 00 00 00 25 4a ca 2e         |     ....%J..   |      [47]: "1989-10-29T10:00:14Z" (625658414) transition_time 0x555-0x55d (8)
0x550|                                       00 00 00|             ...|      [48]: "1990-04-01T11:00:15Z" (638967615) transition_time 0x55d-0x565 (8)
0x560|00 26 15 df 3f                                 |.&..?           |
0x560|               00 00 00 00 27 2a ac 2f         |     ....'*./   |      [49]: "1990-10-28T10:00:15Z" (657108015) transition_time 0x565-0x56d (8)
0x560|                                       00 00 00|             ...|      [50]: "1991-04-07T11:00:16Z" (671022016) transition_time 0x56d-0x575 (8)
0x570|00 27 fe fb c0                                 |.'...           |
0x570|               00 00 00 00 29 0a 8e 30         |     ....)..0   |      [51]: "1991-10-27T10:00:16Z" (688557616) transition_time 0x575-0x57d (8)
0x570|                                       00 00 00|             ...|      [52]: "1992-04-05T11:00:16Z" (702471616) transition_time 0x57d-0x585 (8)
0x580|00 29 de dd c0                                 |.)...           |
0x580|               00 00 00 00 2a ea 70 31         |     ....*.p1   |      [53]: "1992-10-25T10:00:17Z" (720007217) transition_time 0x585-0x58d (8)
0x580|                                       00 00 00|             ...|      [54]: "1993-04-04T11:00:17Z" (733921217) transition_time 0x58d-0x595 (8)
0x590|00 2b be bf c1                                 |.+...           |
0x590|               00 00 00 00 2c d3 8c b2         |     ....,...   |      [55]: "1993-10-31T10:00:18Z" (752061618) transition_time 0x595-0x59d (8)
0x590|                                       00 00 00|             ...|      [56]: "1994-04-03T11:00:18Z" (765370818) transition_time 0x59d-0x5a5 (8)
0x5a0|00 2d 9e a1 c2                                 |.-...           |
0x5a0|               00 00 00 00 2e b3 6e b3         |     ......n.   |      [57]: "1994-10-30T10:00:19Z" (783511219) transition_time 0x5a5-0x5ad (8)
0x5a0|                                       00 00 00|             ...|      [58]: "1995-04-02T11:00:19Z" (796820419) transition_time 0x5ad-0x5b5 (8)
0x5b0|00 2f 7e 83 c3                                 |./~..           |
0x5b0|               00 00 00 00 30 93 50 b3         |     ....0.P.   |      [59]: "1995-10-29T10:00:19Z" (814960819) transition_time 0x5b5-0x5bd (8)
0x5b0|                                       00 00 00|             ...|      [60]: "1996-04-07T11:00:20Z" (828874820) transition_time 0x5bd-0x5c5 (8)
0x5c0|00 31 67 a0 44                                 |.1g.D           |
0x5c0|               00 00 00 00 32 73 32 b4         |     ....2s2.   |      [61]: "1996-10-27T10:00:20Z" (846410420) transition_time 0x5c5-0x5cd (8)
0x5c0|                                       00 00 00|             ...|      [62]: "1997-04-06T11:00:20Z" (860324420) transition_time 0x5cd-0x5d5 (8)
0x5d0|00 33 47 82 44                                 |.3G.D           |
0x5d0|               00 00 00 00 34 53 14 b5         |     ....4S..   |      [63]: "1997-10-26T10:00:21Z" (877860021) transition_time 0x5d5-0x5dd (8)
0x5d0|                                       00 00 00|             ...|      [64]: "1998-04-05T11:00:21Z" (891774021) transition_time 0x5dd-0x5e5 (8)
0x5e0|00 35 27 64 45                                 |.5'dE           |
0x5e0|               00 00 00 00 36 32 f6 b5         |     ....62..   |      [65]: "1998-10-25T10:00:21Z" (909309621) transition_time 0x5e5-0x5ed (8)
0x5e0|                                       00 00 00|             ...|      [66]: "1999-04-04T11:00:22Z" (923223622) transition_time 0x5ed-0x5f5 (8)
0x5f0|00 37 07 46 46                                 |.7.FF           |
0x5f0|               00 00 00 00 38 1c 13 36         |     ....8..6   |      [67]: "1999-10-31T10:00:22Z" (941364022) transition_time 0x5f5-0x5fd (8)
0x5f0|                                       00 00 00|             ...|      [68]: "2000-04-02T11:00:22Z" (954673222) transition_time 0x5fd-0x605 (8)
0x600|00 38 e7 28 46                                 |.8.(F           |
0x600|               00 00 00 00 39 fb f5 36         |     ....9..6   |      [69]: "2000-10-29T10:00:22Z" (972813622) transition_time 0x605-0x60d (8)
0x600|                                       00 00 00|             ...|      [70]: "2001-04-01T11:00:22Z" (986122822) transition_time 0x60d-0x615 (8)
0x610|00 3a c7 0a 46                                 |.:..F           |
0x610|               00 00 00 00 3b db d7 36         |     ....;..6   |      [71]: "2001-10-28T10:00:22Z" (1004263222) transition_time 0x615-0x61d (8)
0x610|                                       00 00 00|             ...|      [72]: "2002-04-07T11:00:22Z" (1018177222) transition_time 0x61d-0x625 (8)
0x620|00 3c b0 26 c6                                 |.<.&.           |
0x620|               00 00 00 00 3d bb b9 36         |     ....=..6   |      [73]: "2002-10-27T10:00:22Z" (1035712822) transition_time 0x625-0x62d (8)
0x620|                                       00 00 00|             ...|      [74]: "2003-04-06T11:00:22Z" (1049626822) transition_time 0x62d-0x635 (8)
0x630|00 3e 90 08 c6                                 |.>...           |
0x630|               00 00 00 00 3f 9b 9b 36         |     ....?..6   |      [75]: "2003-10-26T10:00:22Z" (1067162422) transition_time 0x635-0x63d (8)
0x630|                                       00 00 00|             ...|      [76]: "2004-04-04T11:00:22Z" (1081076422) transition_time 0x63d-0x645 (8)
0x640|00 40 6f ea c6                                 |.@o..           |
0x640|               00 00 00 00 41 84 b7 b6         |     ....A...   |      [77]: "2004-10-31T10:00:22Z" (1099216822) transition_time 0x645-0x64d (8)
0x640|                                       00 00 00|             ...|      [78]: "2005-04-03T11:00:22Z" (1112526022) transition_time 0x64d-0x655 (8)
0x650|00 42 4f cc c6                                 |.BO..           |
0x650|               00 00 00 00 43 64 99 b6         |     ....Cd..   |      [79]: "2005-10-30T10:00:22Z" (1130666422) transition_time 0x655-0x65d (8)
0x650|                                       00 00 00|             ...|      [80]: "2006-04-02T11:00:23Z" (1143975623) transition_time 0x65d-0x665 (8)
0x660|00 44 2f ae c7                                 |.D/..           |
0x660|               00 00 00 00 45 44 7b b7         |     ....ED{.   |      [81]: "2006-10-29T10:00:23Z" (1162116023) transition_time 0x665-0x66d (8)
0x660|                                       00 00 00|             ...|      [82]: "2007-03-11T11:00:23Z" (1173610823) transition_time 0x66d-0x675 (8)
0x670|00 45 f3 e1 47                                 |.E..G           |
0x670|               00 00 00 00 47 2d 98 37         |     ....G-.7   |      [83]: "2007-11-04T10:00:23Z" (1194170423) transition_time 0x675-0x67d (8)
0x670|                                       00 00 00|             ...|      [84]: "2008-03-09T11:00:23Z" (1205060423) transition_time 0x67d-0x685 (8)
0x680|00 47 d3 c3 47                                 |.G..G           |
0x680|               00 00 00 00 49 0d 7a 37         |     ....I.z7   |      [85]: "2008-11-02T10:00:23Z" (1225620023) transition_time 0x685-0x68d (8)
0x680|                                       00 00 00|             ...|      [86]: "2009-03-08T11:00:24Z" (1236510024) transition_time 0x68d-0x695 (8)
0x690|00 49 b3 a5 48                                 |.I..H           |
0x690|               00 00 00 00 4a ed 5c 38         |     ....J.\8   |      [87]: "2009-11-01T10:00:24Z" (1257069624) transition_time 0x695-0x69d (8)
0x690|                                       00 00 00|             ...|      [88]: "2010-03-14T11:00:24Z" (1268564424) transition_time 0x69d-0x6a5 (8)
0x6a0|00 4b 9c c1 c8                                 |.K...           |
0x6a0|               00 00 00 00 4c d6 78 b8         |     ....L.x.   |      [89]: "2010-11-07T10:00:24Z" (1289124024) transition_time 0x6a5-0x6ad (8)
0x6a0|                                       00 00 00|             ...|      [90]: "2011-03-13T11:00:24Z" (1300014024) transition_time 0x6ad-0x6b5 (8)
0x6b0|00 4d 7c a3 c8                                 |.M|..           |
0x6b0|               00 00 00 00 4e b6 5a b8         |     ....N.Z.   |      [91]: "2011-11-06T10:00:24Z" (1320573624) transition_time 0x6b5-0x6bd (8)
0x6b0|                                       00 00 00|             ...|      [92]: "2012-03-11T11:00:24Z" (1331463624) transition_time 0x6bd-0x6c5 (8)
0x6c0|00 4f 5c 85 c8                                 |.O\..           |
0x6c0|               00 00 00 00 50 96 3c b9         |     ....P.<.   |      [93]: "2012-11-04T10:00:25Z" (1352023225) transition_time 0x6c5-0x6cd (8)
0x6c0|                                       00 00 00|             ...|      [94]: "2013-03-10T11:00:25Z" (1362913225) transition_time 0x6cd-0x6d5 (8)
0x6d0|00 51 3c 67 c9                                 |.Q<g.           |
0x6d0|               00 00 00 00 52 76 1e b9         |     ....Rv..   |      [95]: "2013-11-03T10:00:25Z" (1383472825) transition_time 0x6d5-0x6dd (8)
0x6d0|                                       00 00 00|             ...|      [96]: "2014-03-09T11:00:25Z" (1394362825) transition_time 0x6dd-0x6e5 (8)
0x6e0|00 53 1c 49 c9                                 |.S.I.           |
0x6e0|               00 00 00 00 54 56 00 b9         |     ....TV..   |      [97]: "2014-11-02T10:00:25Z" (1414922425) transition_time 0x6e5-0x6ed (8)
0x6e0|                                       00 00 00|             ...|      [98]: "2015-03-08T11:00:25Z" (1425812425) transition_time 0x6ed-0x6f5 (8)
0x6f0|00 54 fc 2b c9                                 |.T.+.           |
0x6f0|               00 00 00 00 56 35 e2 ba         |     ....V5..   |      [99]: "2015-11-01T10:00:26Z" (1446372026) transition_time 0x6f5-0x6fd (8)
0x6f0|                                       00 00 00|             ...|      [100]: "2016-03-13T11:00:26Z" (1457866826) transition_time 0x6fd-0x705 (8)
0x700|00 56 e5 48 4a                                 |.V.HJ           |
0x700|               00 00 00 00 58 1e ff 3a         |     ....X..:   |      [101]: "2016-11-06T10:00:26Z" (1478426426) transition_time 0x705-0x70d (8)
0x700|                                       00 00 00|             ...|      [102]: "2017-03-12T11:00:27Z" (1489316427) transition_time 0x70d-0x715 (8)
0x710|00 58 c5 2a 4b                                 |.X.*K           |
0x710|               00 00 00 00 59 fe e1 3b         |     ....Y..;   |      [103]: "2017-11-05T10:00:27Z" (1509876027) transition_time 0x715-0x71d (8)
0x710|                                       00 00 00|             ...|      [104]: "2018-03-11T11:00:27Z" (1520766027) transition_time 0x71d-0x725 (8)
0x720|00 5a a5 0c 4b                                 |.Z..K           |
0x720|               00 00 00 00 5b de c3 3b         |     ....[..;   |      [105]: "2018-11-04T10:00:27Z" (1541325627) transition_time 0x725-0x72d (8)
0x720|                                       00 00 00|             ...|      [106]: "2019-03-10T11:00:27Z" (1552215627) transition_time 0x72d-0x735 (8)
0x730|00 5c 84 ee 4b                                 |.\..K           |
0x730|               00 00 00 00 5d be a5 3b         |     ....]..;   |      [107]: "2019-11-03T10:00:27Z" (1572775227) transition_time 0x735-0x73d (8)
0x730|                                       00 00 00|             ...|      [108]: "2020-03-08T11:00:27Z" (1583665227) transition_time 0x73d-0x745 (8)
0x740|00 5e 64 d0 4b                                 |.^d.K           |
0x740|               00 00 00 00 5f 9e 87 3b         |     ...._..;   |      [109]: "2020-11-01T10:00:27Z" (1604224827) transition_time 0x745-0x74d (8)
0x740|                                       00 00 00|             ...|      [110]: "2021-03-14T11:00:27Z" (1615719627) transition_time 0x74d-0x755 (8)
0x750|00 60 4d ec cb                                 |.`M..           |
0x750|               00 00 00 00 61 87 a3 bb         |     ....a...   |      [111]: "2021-11-07T10:00:27Z" (1636279227) transition_time 0x755-0x75d (8)
0x750|                                       00 00 00|             ...|      [112]: "2022-03-13T11:00:27Z" (1647169227) transition_time 0x75d-0x765 (8)
0x760|00 62 2d ce cb                                 |.b-..           |
0x760|               00 00 00 00 63 67 85 bb         |     ....cg..   |      [113]: "2022-11-06T10:00:27Z" (1667728827) transition_time 0x765-0x76d (8)
0x760|                                       00 00 00|             ...|      [114]: "2023-03-12T11:00:27Z" (1678618827) transition_time 0x76d-0x775 (8)
0x770|00 64 0d b0 cb                                 |.d...           |
0x770|               00 00 00 00 64 9b 78 1b         |     ....d.x.   |      [115]: "2023-06-28T00:00:27Z" (1687910427) transition_time 0x775-0x77d (8)
     |                                               |                |    transition_types[0:116]: 0x77d-0x7f1 (116)
0x770|                                       01      |             .  |      [0]: 1 transition_type 0x77d-0x77e (1)
0x770|                                          02   |              . |      [1]: 2 transition_type 0x77e-0x77f (1)
0x770|                                             03|               .|      [2]: 3 transition_type 0x77f-0x780 (1)
0x780|04                                             |.               |      [3]: 4 transition_type 0x780-0x781 (1)
0x780|   02                                          | .              |      [4]: 2 transition_type 0x781-0x782 (1)
0x780|      05                                       |  .             |      [5]: 5 transition_type 0x782-0x783 (1)
0x780|         02                                    |   .            |      [6]: 2 transition_type 0x783-0x784 (1)
0x780|            05                                 |    .           |      [7]: 5 transition_type 0x784-0x785 (1)
0x780|               02                              |     .          |      [8]: 2 transition_type 0x785-0x786 (1)
0x780|                  05                           |      .         |      [9]: 5 transition_type 0x786-0x787 (1)
0x780|                     02                        |       .        |      [10]: 2 transition_type 0x787-0x788 (1)
0x780|                        05                     |        .       |      [11]: 5 transition_type 0x788-0x789 (1)
0x780|                           02                  |         .      |      [12]: 2 transition_type 0x789-0x78a (1)
0x780|                              05               |          .     |      [13]: 5 transition_type 0x78a-0x78b (1)
0x780|                                 02            |           .    |      [14]: 2 transition_type 0x78b-0x78c (1)
0x780|                                    05         |            .   |      [15]: 5 transition_type 0x78c-0x78d (1)
0x780|                                       02      |             .  |      [16]: 2 transition_type 0x78d-0x78e (1)
0x780|                                          05   |              . |      [17]: 5 transition_type 0x78e-0x78f (1)
0x780|                                             02|               .|      [18]: 2 transition_type 0x78f-0x790 (1)
0x790|05                                             |.               |      [19]: 5 transition_type 0x790-0x791 (1)
0x790|   02                                          | .              |      [20]: 2 transition_type 0x791-0x792 (1)
0x790|      05                                       |  .             |      [21]: 5 transition_type 0x792-0x793 (1)
0x790|         02                                    |   .            |      [22]: 2 transition_type 0x793-0x794 (1)
0x790|            05                                 |    .           |      [23]: 5 transition_type 0x794-0x795 (1)
0x790|               02                              |     .          |      [24]: 2 transition_type 0x795-0x796 (1)
0x790|                  05                           |      .         |      [25]: 5 transition_type 0x796-0x797 (1)
0x790|                     02                        |       .        |      [26]: 2 transition_type 0x797-0x798 (1)
0x790|                        06                     |        .       |      [27]: 6 transition_type 0x798-0x799 (1)
0x790|                           02                  |         .      |      [28]: 2 transition_type 0x799-0x79a (1)
0x790|                              05               |          .     |      [29]: 5 transition_type 0x79a-0x79b (1)
0x790|                                 02            |           .    |      [30]: 2 transition_type 0x79b-0x79c (1)
0x790|                                    05         |            .   |      [31]: 5 transition_type 0x79c-0x79d (1)
0x790|                                       02      |             .  |      [32]: 2 transition_type 0x79d-0x79e (1)
0x790|                                          05   |              . |      [33]: 5 transition_type 0x79e-0x79f (1)
0x790|                                             07|               .|      [34]: 7 transition_type 0x79f-0x7a0 (1)
0x7a0|09                                             |.               |      [35]: 9 transition_type 0x7a0-0x7a1 (1)
0x7a0|   08                                          | .              |      [36]: 8 transition_type 0x7a1-0x7a2 (1)
0x7a0|      09                                       |  .             |      [37]: 9 transition_type 0x7a2-0x7a3 (1)
0x7a0|         08                                    |   .            |      [38]: 8 transition_type 0x7a3-0x7a4 (1)
0x7a0|            09                                 |    .           |      [39]: 9 transition_type 0x7a4-0x7a5 (1)
0x7a0|               08                              |     .          |      [40]: 8 transition_type 0x7a5-0x7a6 (1)
0x7a0|                  09                           |      .         |      [41]: 9 transition_type 0x7a6-0x7a7 (1)
0x7a0|                     08                        |       .        |      [42]: 8 transition_type 0x7a7-0x7a8 (1)
0x7a0|                        09                     |        .       |      [43]: 9 transition_type 0x7a8-0x7a9 (1)
0x7a0|                           08                  |         .      |      [44]: 8 transition_type 0x7a9-0x7aa (1)
0x7a0|                              09               |          .     |      [45]: 9 transition_type 0x7aa-0x7ab (1)
0x7a0|                                 08            |           .    |      [46]: 8 transition_type 0x7ab-0x7ac (1)
0x7a0|                                    09         |            .   |      [47]: 9 transition_type 0x7ac-0x7ad (1)
0x7a0|                                       08      |             .  |      [48]: 8 transition_type 0x7ad-0x7ae (1)
0x7a0|                                          09   |              . |      [49]: 9 transition_type 0x7ae-0x7af (1)
0x7a0|                                             08|               .|      [50]: 8 transition_type 0x7af-0x7b0 (1)
0x7b0|09                                             |.               |      [51]: 9 transition_type 0x7b0-0x7b1 (1)
0x7b0|   08                                          | .              |      [52]: 8 transition_type 0x7b1-0x7b2 (1)
0x7b0|      09                                       |  .             |      [53]: 9 transition_type 0x7b2-0x7b3 (1)
0x7b0|         08                                    |   .            |      [54]: 8 transition_type 0x7b3-0x7b4 (1)
0x7b0|            09                                 |    .           |      [55]: 9 transition_type 0x7b4-0x7b5 (1)
0x7b0|               08                              |     .          |      [56]: 8 transition_type 0x7b5-0x7b6 (1)
0x7b0|                  09                           |      .         |      [57]: 9 transition_type 0x7b6-0x7b7 (1)
0x7b0|                     08                        |       .        |      [58]: 8 transition_type 0x7b7-0x7b8 (1)
0x7b0|                        09                     |        .       |      [59]: 9 transition_type 0x7b8-0x7b9 (1)
0x7b0|                           08                  |         .      |      [60]: 8 transition_type 0x7b9-0x7ba (1)
0x7b0|                              09               |          .     |      [61]: 9 transition_type 0x7ba-0x7bb (1)
0x7b0|                                 08            |           .    |      [62]: 8 transition_type 0x7bb-0x7bc (1)
0x7b0|                                    09         |            .   |      [63]: 9 transition_type 0x7bc-0x7bd (1)
0x7b0|                                       08      |             .  |      [64]: 8 transition_type 0x7bd-0x7be (1)
0x7b0|                                          09   |              . |      [65]: 9 transition_type 0x7be-0x7bf (1)
0x7b0|                                             08|               .|      [66]: 8 transition_type 0x7bf-0x7c0 (1)
0x7c0|09                                             |.               |      [67]: 9 transition_type 0x7c0-0x7c1 (1)
0x7c0|   08                                          | .              |      [68]: 8 transition_type 0x7c1-0x7c2 (1)
0x7c0|      09                                       |  .             |      [69]: 9 transition_type 0x7c2-0x7c3 (1)
0x7c0|         08                                    |   .            |      [70]: 8 transition_type 0x7c3-0x7c4 (1)
0x7c0|            09                                 |    .           |      [71]: 9 transition_type 0x7c4-0x7c5 (1)
0x7c0|               08                              |     .          |      [72]: 8 transition_type 0x7c5-0x7c6 (1)
0x7c0|                  09                           |      .         |      [73]: 9 transition_type 0x7c6-0x7c7 (1)
0x7c0|                     08                        |       .        |      [74]: 8 transition_type 0x7c7-0x7c8 (1)
0x7c0|                        09                     |        .       |      [75]: 9 transition_type 0x7c8-0x7c9 (1)
0x7c0|                           08                  |         .      |      [76]: 8 transition_type 0x7c9-0x7ca (1)
0x7c0|                              09               |          .     |      [77]: 9 transition_type 0x7ca-0x7cb (1)
0x7c0|                                 08            |           .    |      [78]: 8 transition_type 0x7cb-0x7cc (1)
0x7c0|                                    09         |            .   |      [79]: 9 transition_type 0x7cc-0x7cd (1)
0x7c0|                                       08      |             .  |      [80]: 8 transition_type 0x7cd-0x7ce (1)
0x7c0|                                          09   |              . |      [81]: 9 transition_type 0x7ce-0x7cf (1)
0x7c0|                                             08|               .|      [82]: 8 transition_type 0x7cf-0x7d0 (1)
0x7d0|09                                             |.               |      [83]: 9 transition_type 0x7d0-0x7d1 (1)
0x7d0|   08                                          | .              |      [84]: 8 transition_type 0x7d1-0x7d2 (1)
0x7d0|      09                                       |  .             |      [85]: 9 transition_type 0x7d2-0x7d3 (1)
0x7d0|         08                                    |   .            |      [86]: 8 transition_type 0x7d3-0x7d4 (1)
0x7d0|            09                                 |    .           |      [87]: 9 transition_type 0x7d4-0x7d5 (1)
0x7d0|               08                              |     .          |      [88]: 8 transition_type 0x7d5-0x7d6 (1)
0x7d0|                  09                           |      .         |      [89]: 9 transition_type 0x7d6-0x7d7 (1)
0x7d0|                     08                        |       .        |      [90]: 8 transition_type 0x7d7-0x7d8 (1)
0x7d0|                        09                     |        .       |      [91]: 9 transition_type 0x7d8-0x7d9 (1)
0x7d0|                           08                  |         .      |      [92]: 8 transition_type 0x7d9-0x7da (1)
0x7d0|                              09               |          .     |      [93]: 9 transition_type 0x7da-0x7db (1)
0x7d0|                                 08            |           .    |      [94]: 8 transition_type 0x7db-0x7dc (1)
0x7d0|                                    09         |            .   |      [95]: 9 transition_type 0x7dc-0x7dd (1)
0x7d0|                                       08      |             .  |      [96]: 8 transition_type 0x7dd-0x7de (1)
0x7d0|                                          09   |              . |      [97]: 9 transition_type 0x7de-0x7df (1)
0x7d0|                                             08|               .|      [98]: 8 transition_type 0x7df-0x7e0 (1)
0x7e0|09                                             |.               |      [99]: 9 transition_type 0x7e0-0x7e1 (1)
0x7e0|   08                                          | .              |      [100]: 8 transition_type 0x7e1-0x7e2 (1)
0x7e0|      09                                       |  .             |      [101]: 9 transition_type 0x7e2-0x7e3 (1)
0x7e0|         08                                    |   .            |      [102]: 8 transition_type 0x7e3-0x7e4 (1)
0x7e0|            09                                 |    .           |      [103]: 9 transition_type 0x7e4-0x7e5 (1)
0x7e0|               08                              |     .          |      [104]: 8 transition_type 0x7e5-0x7e6 (1)
0x7e0|                  09                           |      .         |      [105]: 9 transition_type 0x7e6-0x7e7 (1)
0x7e0|                     08                        |       .        |      [106]: 8 transition_type 0x7e7-0x7e8 (1)
0x7e0|                        09                     |        .       |      [107]: 9 transition_type 0x7e8-0x7e9 (1)
0x7e0|                           08                  |         .      |      [108]: 8 transition_type 0x7e9-0x7ea (1)
0x7e0|                              09               |          .     |      [109]: 9 transition_type 0x7ea-0x7eb (1)
0x7e0|                                 08            |           .    |      [110]: 8 transition_type 0x7eb-0x7ec (1)
0x7e0|                                    09         |            .   |      [111]: 9 transition_type 0x7ec-0x7ed (1)
0x7e0|                                       08      |             .  |      [112]: 8 transition_type 0x7ed-0x7ee (1)
0x7e0|                                          09   |              . |      [113]: 9 transition_type 0x7ee-0x7ef (1)
0x7e0|                                             08|               .|      [114]: 8 transition_type 0x7ef-0x7f0 (1)
0x7f0|08                                             |.               |      [115]: 8 transition_type 0x7f0-0x7f1 (1)
     |                                               |                |    local_time_type_records[0:10]: 0x7f1-0x82d (60)
     |                                               |                |      [0]{}: local_time_type 0x7f1-0x7f7 (6)
0x7f0|   00 00 d3 7b                                 | ...{           |        utoff: 54139 (valid) 0x7f1-0x7f5 (4)
0x7f0|               00                              |     .          |        dst: 0 (valid) 0x7f5-0x7f6 (1)
0x7f0|                  00                           |      .         |        idx: 0 (valid) 0x7f6-0x7f7 (1)
     |                                               |                |      [1]{}: local_time_type 0x7f7-0x7fd (6)
0x7f0|                     ff ff 81 fb               |       ....     |        utoff: -32261 (valid) 0x7f7-0x7fb (4)
0x7f0|                                 00            |           .    |        dst: 0 (valid) 0x7fb-0x7fc (1)
0x7f0|                                    00         |            .   |        idx: 0 (valid) 0x7fc-0x7fd (1)
     |                                               |                |      [2]{}: local_time_type 0x7fd-0x803 (6)
0x7f0|                                       ff ff 8f|             ...|        utoff: -28800 (valid) 0x7fd-0x801 (4)
0x800|80                                             |.               |
0x800|   00                                          | .              |        dst: 0 (valid) 0x801-0x802 (1)
0x800|      04                                       |  .             |        idx: 4 (valid) 0x802-0x803 (1)
     |                                               |                |      [3]{}: local_time_type 0x803-0x809 (6)
0x800|         ff ff 9d 90                           |   ....         |        utoff: -25200 (valid) 0x803-0x807 (4)
0x800|                     01                        |       .        |        dst: 1 (valid) 0x807-0x808 (1)
0x800|                        08                     |        .       |        idx: 8 (valid) 0x808-0x809 (1)
     |                                               |                |      [4]{}: local_time_type 0x809-0x80f (6)
0x800|                           ff ff 9d 90         |         ....   |        utoff: -25200 (valid) 0x809-0x80d (4)
0x800|                                       01      |             .  |        dst: 1 (valid) 0x80d-0x80e (1)
0x800|                                          0c   |              . |        idx: 12 (valid) 0x80e-0x80f (1)
     |                                               |                |      [5]{}: local_time_type 0x80f-0x815 (6)
0x800|                                             ff|               .|        utoff: -25200 (valid) 0x80f-0x813 (4)
0x810|ff 9d 90                                       |...             |
0x810|         01                                    |   .            |        dst: 1 (valid) 0x813-0x814 (1)
0x810|            10                                 |    .           |        idx: 16 (valid) 0x814-0x815 (1)
     |                                               |                |      [6]{}: local_time_type 0x815-0x81b (6)
0x810|               ff ff 8f 80                     |     ....       |        utoff: -28800 (valid) 0x815-0x819 (4)
0x810|                           01                  |         .      |        dst: 1 (valid) 0x819-0x81a (1)
0x810|                              14               |          .     |        idx: 20 (valid) 0x81a-0x81b (1)
     |                                               |                |      [7]{}: local_time_type 0x81b-0x821 (6)
0x810|                                 ff ff 81 70   |           ...p |        utoff: -32400 (valid) 0x81b-0x81f (4)
0x810|                                             00|               .|        dst: 0 (valid) 0x81f-0x820 (1)
0x820|18                                             |.               |        idx: 24 (valid) 0x820-0x821 (1)
     |                                               |                |      [8]{}: local_time_type 0x821-0x827 (6)
0x820|   ff ff 8f 80                                 | ....           |        utoff: -28800 (valid) 0x821-0x825 (4)
0x820|               01                              |     .          |        dst: 1 (valid) 0x825-0x826 (1)
0x820|                  1c                           |      .         |        idx: 28 (valid) 0x826-0x827 (1)
     |                                               |                |      [9]{}: local_time_type 0x827-0x82d (6)
0x820|                     ff ff 81 70               |       ...p     |        utoff: -32400 (valid) 0x827-0x82b (4)
0x820|                                 00            |           .    |        dst: 0 (valid) 0x82b-0x82c (1)
0x820|                                    21         |            !   |        idx: 33 (valid) 0x82c-0x82d (1)
     |                                               |                |    time_zone_designations[0:9]: 0x82d-0x853 (38)
0x820|                                       4c 4d 54|             LMT|      [0]: "LMT" time_zone_designation 0x82d-0x831 (4)
0x830|00                                             |.               |
0x830|   50 53 54 00                                 | PST.           |      [1]: "PST" time_zone_designation 0x831-0x835 (4)
0x830|               50 57 54 00                     |     PWT.       |      [2]: "PWT" time_zone_designation 0x835-0x839 (4)
0x830|                           50 50 54 00         |         PPT.   |      [3]: "PPT" time_zone_designation 0x839-0x83d (4)
0x830|                                       50 44 54|             PDT|      [4]: "PDT" time_zone_designation 0x83d-0x841 (4)
0x840|00                                             |.               |
0x840|   59 44 54 00                                 | YDT.           |      [5]: "YDT" time_zone_designation 0x841-0x845 (4)
0x840|               59 53 54 00                     |     YST.       |      [6]: "YST" time_zone_designation 0x845-0x849 (4)
0x840|                           41 4b 44 54 00      |         AKDT.  |      [7]: "AKDT" time_zone_designation 0x849-0x84e (5)
0x840|                                          41 4b|              AK|      [8]: "AKST" time_zone_designation 0x84e-0x853 (5)
0x850|53 54 00                                       |ST.             |
     |                                               |                |    leap_second_records[0:27]: 0x853-0x997 (324)
     |                                               |                |      [0]{}: leap_second_record 0x853-0x85f (12)
0x850|         00 00 00 00 04 b2 58 00               |   ......X.     |        occur: "1972-07-01T00:00:00Z" (78796800) 0x853-0x85b (8)
0x850|                                 00 00 00 01   |           .... |        corr: 1 0x85b-0x85f (4)
     |                                               |                |      [1]{}: leap_second_record 0x85f-0x86b (12)
0x850|                                             00|               .|        occur: "1973-01-01T00:00:01Z" (94694401) 0x85f-0x867 (8)
0x860|00 00 00 05 a4 ec 01                           |.......         |
0x860|                     00 00 00 02               |       ....     |        corr: 2 0x867-0x86b (4)
     |                                               |                |      [2]{}: leap_second_record 0x86b-0x877 (12)
0x860|                                 00 00 00 00 07|           .....|        occur: "1974-01-01T00:00:02Z" (126230402) 0x86b-0x873 (8)
0x870|86 1f 82                                       |...             |
0x870|         00 00 00 03                           |   ....         |        corr: 3 0x873-0x877 (4)
     |                                               |                |      [3]{}: leap_second_record 0x877-0x883 (12)
0x870|                     00 00 00 00 09 67 53 03   |       .....gS. |        occur: "1975-01-01T00:00:03Z" (157766403) 0x877-0x87f (8)
0x870|                                             00|               .|        corr: 4 0x87f-0x883 (4)
0x880|00 00 04                                       |...             |
     |                                               |                |      [4]{}: leap_second_record 0x883-0x88f (12)
0x880|         00 00 00 00 0b 48 86 84               |   .....H..     |        occur: "1976-01-01T00:00:04Z" (189302404) 0x883-0x88b (8)
0x880|                                 00 00 00 05   |           .... |        corr: 5 0x88b-0x88f (4)
     |                                               |                |      [5]{}: leap_second_record 0x88f-0x89b (12)
0x880|                                             00|               .|        occur: "1977-01-01T00:00:05Z" (220924805) 0x88f-0x897 (8)
0x890|00 00 00 0d 2b 0b 85                           |....+..         |
0x890|                     00 00 00 06               |       ....     |        corr: 6 0x897-0x89b (4)
     |                                               |                |      [6]{}: leap_second_record 0x89b-0x8a7 (12)
0x890|                                 00 00 00 00 0f|           .....|        occur: "1978-01-01T00:00:06Z" (252460806) 0x89b-0x8a3 (8)
0x8a0|0c 3f 06                                       |.?.             |
0x8a0|         00 00 00 07                           |   ....         |        corr: 7 0x8a3-0x8a7 (4)
     |                                               |                |      [7]{}: leap_second_record 0x8a7-0x8b3 (12)
0x8a0|                     00 00 00 00 10 ed 72 87   |       ......r. |        occur: "1979-01-01T00:00:07Z" (283996807) 0x8a7-0x8af (8)
0x8a0|                                             00|               .|        corr: 8 0x8af-0x8b3 (4)
0x8b0|00 00 08                                       |...             |
     |                                               |                |      [8]{}: leap_second_record 0x8b3-0x8bf (12)
0x8b0|         00 00 00 00 12 ce a6 08               |   ........     |        occur: "1980-01-01T00:00:08Z" (315532808) 0x8b3-0x8bb (8)
0x8b0|                                 00 00 00 09   |           .... |        corr: 9 0x8bb-0x8bf (4)
     |                                               |                |      [9]{}: leap_second_record 0x8bf-0x8cb (12)
0x8b0|                                             00|               .|        occur: "1981-07-01T00:00:09Z" (362793609) 0x8bf-0x8c7 (8)
0x8c0|00 00 00 15 9f ca 89                           |.......         |
0x8c0|                     00 00 00 0a               |       ....     |        corr: 10 0x8c7-0x8cb (4)
     |                                               |                |      [10]{}: leap_second_record 0x8cb-0x8d7 (12)
0x8c0|                                 00 00 00 00 17|           .....|        occur: "1982-07-01T00:00:10Z" (394329610) 0x8cb-0x8d3 (8)
0x8d0|80 fe 0a                                       |...             |
0x8d0|         00 00 00 0b                           |   ....         |        corr: 11 0x8d3-0x8d7 (4)
     |                                               |                |      [11]{}: leap_second_record 0x8d7-0x8e3 (12)
0x8d0|                     00 00 00 00 19 62 31 8b   |       .....b1. |        occur: "1983-07-01T00:00:11Z" (425865611) 0x8d7-0x8df (8)
0x8d0|                                             00|               .|        corr: 12 0x8df-0x8e3 (4)
0x8e0|00 00 0c                                       |...             |
     |                                               |                |      [12]{}: leap_second_record 0x8e3-0x8ef (12)
0x8e0|         00 00 00 00 1d 25 ea 0c               |   .....%..     |        occur: "1985-07-01T00:00:12Z" (489024012) 0x8e3-0x8eb (8)
0x8e0|                                 00 00 00 0d   |           .... |        corr: 13 0x8eb-0x8ef (4)
     |                                               |                |      [13]{}: leap_second_record 0x8ef-0x8fb (12)
0x8e0|                                             00|               .|        occur: "1988-01-01T00:00:13Z" (567993613) 0x8ef-0x8f7 (8)
0x8f0|00 00 00 21 da e5 0d                           |...!...         |
0x8f0|                     00 00 00 0e               |       ....     |        corr: 14 0x8f7-0x8fb (4)
     |                                               |                |      [14]{}: leap_second_record 0x8fb-0x907 (12)
0x8f0|                                 00 00 00 00 25|           ....%|        occur: "1990-01-01T00:00:14Z" (631152014) 0x8fb-0x903 (8)
0x900|9e 9d 8e                                       |...             |
0x900|         00 00 00 0f                           |   ....         |        corr: 15 0x903-0x907 (4)
     |                                               |                |      [15]{}: leap_second_record 0x907-0x913 (12)
0x900|                     00 00 00 00 27 7f d1 0f   |       ....'... |        occur: "1991-01-01T00:00:15Z" (662688015) 0x907-0x90f (8)
0x900|                                             00|               .|        corr: 16 0x90f-0x913 (4)
0x910|00 00 10                                       |...             |
     |                                               |                |      [16]{}: leap_second_record 0x913-0x91f (12)
0x910|         00 00 00 00 2a 50 f5 90               |   ....*P..     |        occur: "1992-07-01T00:00:16Z" (709948816) 0x913-0x91b (8)
0x910|                                 00 00 00 11   |           .... |        corr: 17 0x91b-0x91f (4)
     |                                               |                |      [17]{}: leap_second_record 0x91f-0x92b (12)
0x910|                                             00|               .|        occur: "1993-07-01T00:00:17Z" (741484817) 0x91f-0x927 (8)
0x920|00 00 00 2c 32 29 11                           |...,2).         |
0x920|                     00 00 00 12               |       ....     |        corr: 18 0x927-0x92b (4)
     |                                               |                |      [18]{}: leap_second_record 0x92b-0x937 (12)
0x920|                                 00 00 00 00 2e|           .....|        occur: "1994-07-01T00:00:18Z" (773020818) 0x92b-0x933 (8)
0x930|13 5c 92                                       |.\.             |
0x930|         00 00 00 13                           |   ....         |        corr: 19 0x933-0x937 (4)
     |                                               |                |      [19]{}: leap_second_record 0x937-0x943 (12)
0x930|                     00 00 00 00 30 e7 24 13   |       ....0.$. |        occur: "1996-01-01T00:00:19Z" (820454419) 0x937-0x93f (8)
0x930|                                             00|               .|        corr: 20 0x93f-0x943 (4)
0x940|00 00 14                                       |...             |
     |                                               |                |      [20]{}: leap_second_record 0x943-0x94f (12)
0x940|         00 00 00 00 33 b8 48 94               |   ....3.H.     |        occur: "1997-07-01T00:00:20Z" (867715220) 0x943-0x94b (8)
0x940|                                 00 00 00 15   |           .... |        corr: 21 0x94b-0x94f (4)
     |                                               |                |      [21]{}: leap_second_record 0x94f-0x95b (12)
0x940|                                             00|               .|        occur: "1999-01-01T00:00:21Z" (915148821) 0x94f-0x957 (8)
0x950|00 00 00 36 8c 10 15                           |...6...         |
0x950|                     00 00 00 16               |       ....     |        corr: 22 0x957-0x95b (4)
     |                                               |                |      [22]{}: leap_second_record 0x95b-0x967 (12)
0x950|                                 00 00 00 00 43|           ....C|        occur: "2006-01-01T00:00:22Z" (1136073622) 0x95b-0x963 (8)
0x960|b7 1b 96                                       |...             |
0x960|         00 00 00 17                           |   ....         |        corr: 23 0x963-0x967 (4)
     |                                               |                |      [23]{}: leap_second_record 0x967-0x973 (12)
0x960|                     00 00 00 00 49 5c 07 97   |       ....I\.. |        occur: "2009-01-01T00:00:23Z" (1230768023) 0x967-0x96f (8)
0x960|                                             00|               .|        corr: 24 0x96f-0x973 (4)
0x970|00 00 18                                       |...             |
     |                                               |                |      [24]{}: leap_second_record 0x973-0x97f (12)
0x970|         00 00 00 00 4f ef 93 18               |   ....O...     |        occur: "2012-07-01T00:00:24Z" (1341100824) 0x973-0x97b (8)
0x970|                                 00 00 00 19   |           .... |        corr: 25 0x97b-0x97f (4)
     |                                               |                |      [25]{}: leap_second_record 0x97f-0x98b (12)
0x970|                                             00|               .|        occur: "2015-07-01T00:00:25Z" (1435708825) 0x97f-0x987 (8)
0x980|00 00 00 55 93 2d 99                           |...U.-.         |
0x980|                     00 00 00 1a               |       ....     |        corr: 26 0x987-0x98b (4)
     |                                               |                |      [26]{}: leap_second_record 0x98b-0x997 (12)
0x980|                                 00 00 00 00 58|           ....X|        occur: "2017-01-01T00:00:26Z" (1483228826) 0x98b-0x993 (8)
0x990|68 46 9a                                       |hF.             |
0x990|         00 00 00 1b                           |   ....         |        corr: 27 0x993-0x997 (4)
     |                                               |                |    standard_wall_indicators[0:10]: 0x997-0x9a1 (10)
0x990|                     00                        |       .        |      [0]: 0 standard_wall_indicator (valid) 0x997-0x998 (1)
0x990|                        00                     |        .       |      [1]: 0 standard_wall_indicator (valid) 0x998-0x999 (1)
0x990|                           00                  |         .      |      [2]: 0 standard_wall_indicator (valid) 0x999-0x99a (1)
0x990|                              00               |          .     |      [3]: 0 standard_wall_indicator (valid) 0x99a-0x99b (1)
0x990|                                 01            |           .    |      [4]: 1 standard_wall_indicator (valid) 0x99b-0x99c (1)
0x990|                                    00         |            .   |      [5]: 0 standard_wall_indicator (valid) 0x99c-0x99d (1)
0x990|                                       00      |             .  |      [6]: 0 standard_wall_indicator (valid) 0x99d-0x99e (1)
0x990|                                          00   |              . |      [7]: 0 standard_wall_indicator (valid) 0x99e-0x99f (1)
0x990|                                             00|               .|      [8]: 0 standard_wall_indicator (valid) 0x99f-0x9a0 (1)
0x9a0|00                                             |.               |      [9]: 0 standard_wall_indicator (valid) 0x9a0-0x9a1 (1)
     |                                               |                |    ut_local_indicators[0:10]: 0x9a1-0x9ab (10)
0x9a0|   00                                          | .              |      [0]: 0 ut_local_indicator (valid) 0x9a1-0x9a2 (1)
0x9a0|      00                                       |  .             |      [1]: 0 ut_local_indicator (valid) 0x9a2-0x9a3 (1)
0x9a0|         00                                    |   .            |      [2]: 0 ut_local_indicator (valid) 0x9a3-0x9a4 (1)
0x9a0|            00                                 |    .           |      [3]: 0 ut_local_indicator (valid) 0x9a4-0x9a5 (1)
0x9a0|               01                              |     .          |      [4]: 1 ut_local_indicator (valid) 0x9a5-0x9a6 (1)
0x9a0|                  00                           |      .         |      [5]: 0 ut_local_indicator (valid) 0x9a6-0x9a7 (1)
0x9a0|                     00                        |       .        |      [6]: 0 ut_local_indicator (valid) 0x9a7-0x9a8 (1)
0x9a0|                        00                     |        .       |      [7]: 0 ut_local_indicator (valid) 0x9a8-0x9a9 (1)
0x9a0|                           00                  |         .      |      [8]: 0 ut_local_indicator (valid) 0x9a9-0x9aa (1)
0x9a0|                              00               |          .     |      [9]: 0 ut_local_indicator (valid) 0x9aa-0x9ab (1)
     |                                               |                |  footer{}: 0x9ab-0x9ad (2)
0x9a0|                                 0a            |           .    |    nl1: 10 (valid) 0x9ab-0x9ac (1)
     |                                               |                |    tz_string: "" 0x9ac-0x9ac (0)
0x9a0|                                    0a|        |            .|  |    nl2: 10 (valid) 0x9ac-0x9ad (1)
