$ fq -d tzif dv Kaliningrad
     |00 01 02 03 04 05 06 07 08 09 0a 0b 0c 0d 0e 0f|0123456789abcdef|.{}: Kaliningrad (tzif) 0x0-0x5d4.7 (1493)
     |                                               |                |  v1header{}: 0x0-0x2b.7 (44)
0x000|54 5a 69 66                                    |TZif            |    magic: 0x545a6966 (valid) 0x0-0x3.7 (4)
0x000|            32                                 |    2           |    ver: "2" (0x32) (valid) 0x4-0x4.7 (1)
0x000|               00 00 00 00 00 00 00 00 00 00 00|     ...........|    reserved: raw bits 0x5-0x13.7 (15)
0x010|00 00 00 00                                    |....            |
0x010|            00 00 00 00                        |    ....        |    isutcnt: 0 0x14-0x17.7 (4)
0x010|                        00 00 00 0f            |        ....    |    isstdcnt: 15 0x18-0x1b.7 (4)
0x010|                                    00 00 00 00|            ....|    leapcnt: 0 0x1c-0x1f.7 (4)
0x020|00 00 00 50                                    |...P            |    timecnt: 80 0x20-0x23.7 (4)
0x020|            00 00 00 0f                        |    ....        |    typecnt: 15 0x24-0x27.7 (4)
0x020|                        00 00 00 22            |        ..."    |    charcnt: 34 0x28-0x2b.7 (4)
     |                                               |                |  v1datablock{}: 0x2c-0x246.7 (539)
     |                                               |                |    transition_times[0:80]: 0x2c-0x16b.7 (320)
0x020|                                    80 00 00 00|            ....|      [0]: "1901-12-13T20:45:52Z" (-2147483648) transition_time 0x2c-0x2f.7 (4)
0x030|9b 0c 17 60                                    |...`            |      [1]: "1916-04-30T22:00:00Z" (-1693706400) transition_time 0x30-0x33.7 (4)
0x030|            9b d5 da f0                        |    ....        |      [2]: "1916-09-30T23:00:00Z" (-1680483600) transition_time 0x34-0x37.7 (4)
0x030|                        9c d9 ae 90            |        ....    |      [3]: "1917-04-16T01:00:00Z" (-1663455600) transition_time 0x38-0x3b.7 (4)
0x030|                                    9d a4 b5 90|            ....|      [4]: "1917-09-17T01:00:00Z" (-1650150000) transition_time 0x3c-0x3f.7 (4)
0x040|9e b9 90 90                                    |....            |      [5]: "1918-04-15T01:00:00Z" (-1632006000) transition_time 0x40-0x43.7 (4)
0x040|            9f 84 97 90                        |    ....        |      [6]: "1918-09-16T01:00:00Z" (-1618700400) transition_time 0x44-0x47.7 (4)
0x040|                        c8 09 71 90            |        ..q.    |      [7]: "1940-04-01T01:00:00Z" (-938905200) transition_time 0x48-0x4b.7 (4)
0x040|                                    cc e7 4b 10|            ..K.|      [8]: "1942-11-02T01:00:00Z" (-857257200) transition_time 0x4c-0x4f.7 (4)
0x050|cd a9 17 90                                    |....            |      [9]: "1943-03-29T01:00:00Z" (-844556400) transition_time 0x50-0x53.7 (4)
0x050|            ce a2 43 10                        |    ..C.        |      [10]: "1943-10-04T01:00:00Z" (-828226800) transition_time 0x54-0x57.7 (4)
0x050|                        cf 92 34 10            |        ..4.    |      [11]: "1944-04-03T01:00:00Z" (-812502000) transition_time 0x58-0x5b.7 (4)
0x050|                                    d0 82 25 10|            ..%.|      [12]: "1944-10-02T01:00:00Z" (-796777200) transition_time 0x5c-0x5f.7 (4)
0x060|d1 72 16 10                                    |.r..            |      [13]: "1945-04-02T01:00:00Z" (-781052400) transition_time 0x60-0x63.7 (4)
0x060|            d1 7c 77 e0                        |    .|w.        |      [14]: "1945-04-09T22:00:00Z" (-780372000) transition_time 0x64-0x67.7 (4)
0x060|                        d1 95 84 60            |        ...`    |      [15]: "1945-04-28T22:00:00Z" (-778730400) transition_time 0x68-0x6b.7 (4)
0x060|                                    d2 8a ad 50|            ...P|      [16]: "1945-10-31T21:00:00Z" (-762663600) transition_time 0x6c-0x6f.7 (4)
0x070|d3 59 b6 e0                                    |.Y..            |      [17]: "1946-04-06T22:00:00Z" (-749095200) transition_time 0x70-0x73.7 (4)
0x070|            15 27 a7 d0                        |    .'..        |      [18]: "1981-03-31T21:00:00Z" (354920400) transition_time 0x74-0x77.7 (4)
0x070|                        16 18 dc 40            |        ...@    |      [19]: "1981-09-30T20:00:00Z" (370728000) transition_time 0x78-0x7b.7 (4)
0x070|                                    17 08 db 50|            ...P|      [20]: "1982-03-31T21:00:00Z" (386456400) transition_time 0x7c-0x7f.7 (4)
0x080|17 fa 0f c0                                    |....            |      [21]: "1982-09-30T20:00:00Z" (402264000) transition_time 0x80-0x83.7 (4)
0x080|            18 ea 0e d0                        |    ....        |      [22]: "1983-03-31T21:00:00Z" (417992400) transition_time 0x84-0x87.7 (4)
0x080|                        19 db 43 40            |        ..C@    |      [23]: "1983-09-30T20:00:00Z" (433800000) transition_time 0x88-0x8b.7 (4)
0x080|                                    1a cc 93 d0|            ....|      [24]: "1984-03-31T21:00:00Z" (449614800) transition_time 0x8c-0x8f.7 (4)
0x090|1b bc a0 f0                                    |....            |      [25]: "1984-09-29T23:00:00Z" (465346800) transition_time 0x90-0x93.7 (4)
0x090|            1c ac 91 f0                        |    ....        |      [26]: "1985-03-30T23:00:00Z" (481071600) transition_time 0x94-0x97.7 (4)
0x090|                        1d 9c 82 f0            |        ....    |      [27]: "1985-09-28T23:00:00Z" (496796400) transition_time 0x98-0x9b.7 (4)
0x090|                                    1e 8c 73 f0|            ..s.|      [28]: "1986-03-29T23:00:00Z" (512521200) transition_time 0x9c-0x9f.7 (4)
0x0a0|1f 7c 64 f0                                    |.|d.            |      [29]: "1986-09-27T23:00:00Z" (528246000) transition_time 0xa0-0xa3.7 (4)
0x0a0|            20 6c 55 f0                        |     lU.        |      [30]: "1987-03-28T23:00:00Z" (543970800) transition_time 0xa4-0xa7.7 (4)
0x0a0|                        21 5c 46 f0            |        !\F.    |      [31]: "1987-09-26T23:00:00Z" (559695600) transition_time 0xa8-0xab.7 (4)
0x0a0|                                    22 4c 37 f0|            "L7.|      [32]: "1988-03-26T23:00:00Z" (575420400) transition_time 0xac-0xaf.7 (4)
0x0b0|23 3c 28 f0                                    |#<(.            |      [33]: "1988-09-24T23:00:00Z" (591145200) transition_time 0xb0-0xb3.7 (4)
0x0b0|            24 2c 19 f0                        |    $,..        |      [34]: "1989-03-25T23:00:00Z" (606870000) transition_time 0xb4-0xb7.7 (4)
0x0b0|                        25 1c 19 00            |        %...    |      [35]: "1989-09-24T00:00:00Z" (622598400) transition_time 0xb8-0xbb.7 (4)
0x0b0|                                    26 0c 0a 00|            &...|      [36]: "1990-03-25T00:00:00Z" (638323200) transition_time 0xbc-0xbf.7 (4)
0x0c0|27 05 35 80                                    |'.5.            |      [37]: "1990-09-30T00:00:00Z" (654652800) transition_time 0xc0-0xc3.7 (4)
0x0c0|            27 f5 26 80                        |    '.&.        |      [38]: "1991-03-31T00:00:00Z" (670377600) transition_time 0xc4-0xc7.7 (4)
0x0c0|                        28 e5 17 80            |        (...    |      [39]: "1991-09-29T00:00:00Z" (686102400) transition_time 0xc8-0xcb.7 (4)
0x0c0|                                    29 d5 08 80|            )...|      [40]: "1992-03-29T00:00:00Z" (701827200) transition_time 0xcc-0xcf.7 (4)
0x0d0|2a c4 f9 80                                    |*...            |      [41]: "1992-09-27T00:00:00Z" (717552000) transition_time 0xd0-0xd3.7 (4)
0x0d0|            2b b4 ea 80                        |    +...        |      [42]: "1993-03-28T00:00:00Z" (733276800) transition_time 0xd4-0xd7.7 (4)
0x0d0|                        2c a4 db 80            |        ,...    |      [43]: "1993-09-26T00:00:00Z" (749001600) transition_time 0xd8-0xdb.7 (4)
0x0d0|                                    2d 94 cc 80|            -...|      [44]: "1994-03-27T00:00:00Z" (764726400) transition_time 0xdc-0xdf.7 (4)
0x0e0|2e 84 bd 80                                    |....            |      [45]: "1994-09-25T00:00:00Z" (780451200) transition_time 0xe0-0xe3.7 (4)
0x0e0|            2f 74 ae 80                        |    /t..        |      [46]: "1995-03-26T00:00:00Z" (796176000) transition_time 0xe4-0xe7.7 (4)
0x0e0|                        30 64 9f 80            |        0d..    |      [47]: "1995-09-24T00:00:00Z" (811900800) transition_time 0xe8-0xeb.7 (4)
0x0e0|                                    31 5d cb 00|            1]..|      [48]: "1996-03-31T00:00:00Z" (828230400) transition_time 0xec-0xef.7 (4)
0x0f0|32 72 a6 00                                    |2r..            |      [49]: "1996-10-27T00:00:00Z" (846374400) transition_time 0xf0-0xf3.7 (4)
0x0f0|            33 3d ad 00                        |    3=..        |      [50]: "1997-03-30T00:00:00Z" (859680000) transition_time 0xf4-0xf7.7 (4)
0x0f0|                        34 52 88 00            |        4R..    |      [51]: "1997-10-26T00:00:00Z" (877824000) transition_time 0xf8-0xfb.7 (4)
0x0f0|                                    35 1d 8f 00|            5...|      [52]: "1998-03-29T00:00:00Z" (891129600) transition_time 0xfc-0xff.7 (4)
0x100|36 32 6a 00                                    |62j.            |      [53]: "1998-10-25T00:00:00Z" (909273600) transition_time 0x100-0x103.7 (4)
0x100|            36 fd 71 00                        |    6.q.        |      [54]: "1999-03-28T00:00:00Z" (922579200) transition_time 0x104-0x107.7 (4)
0x100|                        38 1b 86 80            |        8...    |      [55]: "1999-10-31T00:00:00Z" (941328000) transition_time 0x108-0x10b.7 (4)
0x100|                                    38 dd 53 00|            8.S.|      [56]: "2000-03-26T00:00:00Z" (954028800) transition_time 0x10c-0x10f.7 (4)
0x110|39 fb 68 80                                    |9.h.            |      [57]: "2000-10-29T00:00:00Z" (972777600) transition_time 0x110-0x113.7 (4)
0x110|            3a bd 35 00                        |    :.5.        |      [58]: "2001-03-25T00:00:00Z" (985478400) transition_time 0x114-0x117.7 (4)
0x110|                        3b db 4a 80            |        ;.J.    |      [59]: "2001-10-28T00:00:00Z" (1004227200) transition_time 0x118-0x11b.7 (4)
0x110|                                    3c a6 51 80|            <.Q.|      [60]: "2002-03-31T00:00:00Z" (1017532800) transition_time 0x11c-0x11f.7 (4)
0x120|3d bb 2c 80                                    |=.,.            |      [61]: "2002-10-27T00:00:00Z" (1035676800) transition_time 0x120-0x123.7 (4)
0x120|            3e 86 33 80                        |    >.3.        |      [62]: "2003-03-30T00:00:00Z" (1048982400) transition_time 0x124-0x127.7 (4)
0x120|                        3f 9b 0e 80            |        ?...    |      [63]: "2003-10-26T00:00:00Z" (1067126400) transition_time 0x128-0x12b.7 (4)
0x120|                                    40 66 15 80|            @f..|      [64]: "2004-03-28T00:00:00Z" (1080432000) transition_time 0x12c-0x12f.7 (4)
0x130|41 84 2b 00                                    |A.+.            |      [65]: "2004-10-31T00:00:00Z" (1099180800) transition_time 0x130-0x133.7 (4)
0x130|            42 45 f7 80                        |    BE..        |      [66]: "2005-03-27T00:00:00Z" (1111881600) transition_time 0x134-0x137.7 (4)
0x130|                        43 64 0d 00            |        Cd..    |      [67]: "2005-10-30T00:00:00Z" (1130630400) transition_time 0x138-0x13b.7 (4)
0x130|                                    44 25 d9 80|            D%..|      [68]: "2006-03-26T00:00:00Z" (1143331200) transition_time 0x13c-0x13f.7 (4)
0x140|45 43 ef 00                                    |EC..            |      [69]: "2006-10-29T00:00:00Z" (1162080000) transition_time 0x140-0x143.7 (4)
0x140|            46 05 bb 80                        |    F...        |      [70]: "2007-03-25T00:00:00Z" (1174780800) transition_time 0x144-0x147.7 (4)
0x140|                        47 23 d1 00            |        G#..    |      [71]: "2007-10-28T00:00:00Z" (1193529600) transition_time 0x148-0x14b.7 (4)
0x140|                                    47 ee d8 00|            G...|      [72]: "2008-03-30T00:00:00Z" (1206835200) transition_time 0x14c-0x14f.7 (4)
0x150|49 03 b3 00                                    |I...            |      [73]: "2008-10-26T00:00:00Z" (1224979200) transition_time 0x150-0x153.7 (4)
0x150|            49 ce ba 00                        |    I...        |      [74]: "2009-03-29T00:00:00Z" (1238284800) transition_time 0x154-0x157.7 (4)
0x150|                        4a e3 95 00            |        J...    |      [75]: "2009-10-25T00:00:00Z" (1256428800) transition_time 0x158-0x15b.7 (4)
0x150|                                    4b ae 9c 00|            K...|      [76]: "2010-03-28T00:00:00Z" (1269734400) transition_time 0x15c-0x15f.7 (4)
0x160|4c cc b1 80                                    |L...            |      [77]: "2010-10-31T00:00:00Z" (1288483200) transition_time 0x160-0x163.7 (4)
0x160|            4d 8e 7e 00                        |    M.~.        |      [78]: "2011-03-27T00:00:00Z" (1301184000) transition_time 0x164-0x167.7 (4)
0x160|                        54 4c 2b 70            |        TL+p    |      [79]: "2014-10-25T23:00:00Z" (1414278000) transition_time 0x168-0x16b.7 (4)
     |                                               |                |    transition_types[0:80]: 0x16c-0x1bb.7 (80)
0x160|                                    02         |            .   |      [0]: 2 transition_type 0x16c-0x16c.7 (1)
0x160|                                       01      |             .  |      [1]: 1 transition_type 0x16d-0x16d.7 (1)
0x160|                                          02   |              . |      [2]: 2 transition_type 0x16e-0x16e.7 (1)
0x160|                                             03|               .|      [3]: 3 transition_type 0x16f-0x16f.7 (1)
0x170|04                                             |.               |      [4]: 4 transition_type 0x170-0x170.7 (1)
0x170|   03                                          | .              |      [5]: 3 transition_type 0x171-0x171.7 (1)
0x170|      04                                       |  .             |      [6]: 4 transition_type 0x172-0x172.7 (1)
0x170|         03                                    |   .            |      [7]: 3 transition_type 0x173-0x173.7 (1)
0x170|            04                                 |    .           |      [8]: 4 transition_type 0x174-0x174.7 (1)
0x170|               03                              |     .          |      [9]: 3 transition_type 0x175-0x175.7 (1)
0x170|                  04                           |      .         |      [10]: 4 transition_type 0x176-0x176.7 (1)
0x170|                     03                        |       .        |      [11]: 3 transition_type 0x177-0x177.7 (1)
0x170|                        04                     |        .       |      [12]: 4 transition_type 0x178-0x178.7 (1)
0x170|                           03                  |         .      |      [13]: 3 transition_type 0x179-0x179.7 (1)
0x170|                              06               |          .     |      [14]: 6 transition_type 0x17a-0x17a.7 (1)
0x170|                                 05            |           .    |      [15]: 5 transition_type 0x17b-0x17b.7 (1)
0x170|                                    06         |            .   |      [16]: 6 transition_type 0x17c-0x17c.7 (1)
0x170|                                       08      |             .  |      [17]: 8 transition_type 0x17d-0x17d.7 (1)
0x170|                                          07   |              . |      [18]: 7 transition_type 0x17e-0x17e.7 (1)
0x170|                                             08|               .|      [19]: 8 transition_type 0x17f-0x17f.7 (1)
0x180|07                                             |.               |      [20]: 7 transition_type 0x180-0x180.7 (1)
0x180|   08                                          | .              |      [21]: 8 transition_type 0x181-0x181.7 (1)
0x180|      07                                       |  .             |      [22]: 7 transition_type 0x182-0x182.7 (1)
0x180|         08                                    |   .            |      [23]: 8 transition_type 0x183-0x183.7 (1)
0x180|            07                                 |    .           |      [24]: 7 transition_type 0x184-0x184.7 (1)
0x180|               09                              |     .          |      [25]: 9 transition_type 0x185-0x185.7 (1)
0x180|                  0a                           |      .         |      [26]: 10 transition_type 0x186-0x186.7 (1)
0x180|                     09                        |       .        |      [27]: 9 transition_type 0x187-0x187.7 (1)
0x180|                        0a                     |        .       |      [28]: 10 transition_type 0x188-0x188.7 (1)
0x180|                           09                  |         .      |      [29]: 9 transition_type 0x189-0x189.7 (1)
0x180|                              0a               |          .     |      [30]: 10 transition_type 0x18a-0x18a.7 (1)
0x180|                                 09            |           .    |      [31]: 9 transition_type 0x18b-0x18b.7 (1)
0x180|                                    0a         |            .   |      [32]: 10 transition_type 0x18c-0x18c.7 (1)
0x180|                                       09      |             .  |      [33]: 9 transition_type 0x18d-0x18d.7 (1)
0x180|                                          0b   |              . |      [34]: 11 transition_type 0x18e-0x18e.7 (1)
0x180|                                             0c|               .|      [35]: 12 transition_type 0x18f-0x18f.7 (1)
0x190|0b                                             |.               |      [36]: 11 transition_type 0x190-0x190.7 (1)
0x190|   0c                                          | .              |      [37]: 12 transition_type 0x191-0x191.7 (1)
0x190|      0b                                       |  .             |      [38]: 11 transition_type 0x192-0x192.7 (1)
0x190|         0c                                    |   .            |      [39]: 12 transition_type 0x193-0x193.7 (1)
0x190|            0b                                 |    .           |      [40]: 11 transition_type 0x194-0x194.7 (1)
0x190|               0c                              |     .          |      [41]: 12 transition_type 0x195-0x195.7 (1)
0x190|                  0b                           |      .         |      [42]: 11 transition_type 0x196-0x196.7 (1)
0x190|                     0c                        |       .        |      [43]: 12 transition_type 0x197-0x197.7 (1)
0x190|                        0b                     |        .       |      [44]: 11 transition_type 0x198-0x198.7 (1)
0x190|                           0c                  |         .      |      [45]: 12 transition_type 0x199-0x199.7 (1)
0x190|                              0b               |          .     |      [46]: 11 transition_type 0x19a-0x19a.7 (1)
0x190|                                 0c            |           .    |      [47]: 12 transition_type 0x19b-0x19b.7 (1)
0x190|                                    0b         |            .   |      [48]: 11 transition_type 0x19c-0x19c.7 (1)
0x190|                                       0c      |             .  |      [49]: 12 transition_type 0x19d-0x19d.7 (1)
0x190|                                          0b   |              . |      [50]: 11 transition_type 0x19e-0x19e.7 (1)
0x190|                                             0c|               .|      [51]: 12 transition_type 0x19f-0x19f.7 (1)
0x1a0|0b                                             |.               |      [52]: 11 transition_type 0x1a0-0x1a0.7 (1)
0x1a0|   0c                                          | .              |      [53]: 12 transition_type 0x1a1-0x1a1.7 (1)
0x1a0|      0b                                       |  .             |      [54]: 11 transition_type 0x1a2-0x1a2.7 (1)
0x1a0|         0c                                    |   .            |      [55]: 12 transition_type 0x1a3-0x1a3.7 (1)
0x1a0|            0b                                 |    .           |      [56]: 11 transition_type 0x1a4-0x1a4.7 (1)
0x1a0|               0c                              |     .          |      [57]: 12 transition_type 0x1a5-0x1a5.7 (1)
0x1a0|                  0b                           |      .         |      [58]: 11 transition_type 0x1a6-0x1a6.7 (1)
0x1a0|                     0c                        |       .        |      [59]: 12 transition_type 0x1a7-0x1a7.7 (1)
0x1a0|                        0b                     |        .       |      [60]: 11 transition_type 0x1a8-0x1a8.7 (1)
0x1a0|                           0c                  |         .      |      [61]: 12 transition_type 0x1a9-0x1a9.7 (1)
0x1a0|                              0b               |          .     |      [62]: 11 transition_type 0x1aa-0x1aa.7 (1)
0x1a0|                                 0c            |           .    |      [63]: 12 transition_type 0x1ab-0x1ab.7 (1)
0x1a0|                                    0b         |            .   |      [64]: 11 transition_type 0x1ac-0x1ac.7 (1)
0x1a0|                                       0c      |             .  |      [65]: 12 transition_type 0x1ad-0x1ad.7 (1)
0x1a0|                                          0b   |              . |      [66]: 11 transition_type 0x1ae-0x1ae.7 (1)
0x1a0|                                             0c|               .|      [67]: 12 transition_type 0x1af-0x1af.7 (1)
0x1b0|0b                                             |.               |      [68]: 11 transition_type 0x1b0-0x1b0.7 (1)
0x1b0|   0c                                          | .              |      [69]: 12 transition_type 0x1b1-0x1b1.7 (1)
0x1b0|      0b                                       |  .             |      [70]: 11 transition_type 0x1b2-0x1b2.7 (1)
0x1b0|         0c                                    |   .            |      [71]: 12 transition_type 0x1b3-0x1b3.7 (1)
0x1b0|            0b                                 |    .           |      [72]: 11 transition_type 0x1b4-0x1b4.7 (1)
0x1b0|               0c                              |     .          |      [73]: 12 transition_type 0x1b5-0x1b5.7 (1)
0x1b0|                  0b                           |      .         |      [74]: 11 transition_type 0x1b6-0x1b6.7 (1)
0x1b0|                     0c                        |       .        |      [75]: 12 transition_type 0x1b7-0x1b7.7 (1)
0x1b0|                        0b                     |        .       |      [76]: 11 transition_type 0x1b8-0x1b8.7 (1)
0x1b0|                           0c                  |         .      |      [77]: 12 transition_type 0x1b9-0x1b9.7 (1)
0x1b0|                              0d               |          .     |      [78]: 13 transition_type 0x1ba-0x1ba.7 (1)
0x1b0|                                 0c            |           .    |      [79]: 12 transition_type 0x1bb-0x1bb.7 (1)
     |                                               |                |    local_time_type_records[0:15]: 0x1bc-0x215.7 (90)
     |                                               |                |      [0]{}: local_time_type 0x1bc-0x1c1.7 (6)
0x1b0|                                    00 00 13 38|            ...8|        utoff: 4920 (valid) 0x1bc-0x1bf.7 (4)
0x1c0|00                                             |.               |        dst: 0 (valid) 0x1c0-0x1c0.7 (1)
0x1c0|   00                                          | .              |        idx: 0 (valid) 0x1c1-0x1c1.7 (1)
     |                                               |                |      [1]{}: local_time_type 0x1c2-0x1c7.7 (6)
0x1c0|      00 00 1c 20                              |  ...           |        utoff: 7200 (valid) 0x1c2-0x1c5.7 (4)
0x1c0|                  01                           |      .         |        dst: 1 (valid) 0x1c6-0x1c6.7 (1)
0x1c0|                     04                        |       .        |        idx: 4 (valid) 0x1c7-0x1c7.7 (1)
     |                                               |                |      [2]{}: local_time_type 0x1c8-0x1cd.7 (6)
0x1c0|                        00 00 0e 10            |        ....    |        utoff: 3600 (valid) 0x1c8-0x1cb.7 (4)
0x1c0|                                    00         |            .   |        dst: 0 (valid) 0x1cc-0x1cc.7 (1)
0x1c0|                                       09      |             .  |        idx: 9 (valid) 0x1cd-0x1cd.7 (1)
     |                                               |                |      [3]{}: local_time_type 0x1ce-0x1d3.7 (6)
0x1c0|                                          00 00|              ..|        utoff: 7200 (valid) 0x1ce-0x1d1.7 (4)
0x1d0|1c 20                                          |.               |
0x1d0|      01                                       |  .             |        dst: 1 (valid) 0x1d2-0x1d2.7 (1)
0x1d0|         04                                    |   .            |        idx: 4 (valid) 0x1d3-0x1d3.7 (1)
     |                                               |                |      [4]{}: local_time_type 0x1d4-0x1d9.7 (6)
0x1d0|            00 00 0e 10                        |    ....        |        utoff: 3600 (valid) 0x1d4-0x1d7.7 (4)
0x1d0|                        00                     |        .       |        dst: 0 (valid) 0x1d8-0x1d8.7 (1)
0x1d0|                           09                  |         .      |        idx: 9 (valid) 0x1d9-0x1d9.7 (1)
     |                                               |                |      [5]{}: local_time_type 0x1da-0x1df.7 (6)
0x1d0|                              00 00 2a 30      |          ..*0  |        utoff: 10800 (valid) 0x1da-0x1dd.7 (4)
0x1d0|                                          01   |              . |        dst: 1 (valid) 0x1de-0x1de.7 (1)
0x1d0|                                             0d|               .|        idx: 13 (valid) 0x1df-0x1df.7 (1)
     |                                               |                |      [6]{}: local_time_type 0x1e0-0x1e5.7 (6)
0x1e0|00 00 1c 20                                    |...             |        utoff: 7200 (valid) 0x1e0-0x1e3.7 (4)
0x1e0|            00                                 |    .           |        dst: 0 (valid) 0x1e4-0x1e4.7 (1)
0x1e0|               12                              |     .          |        idx: 18 (valid) 0x1e5-0x1e5.7 (1)
     |                                               |                |      [7]{}: local_time_type 0x1e6-0x1eb.7 (6)
0x1e0|                  00 00 38 40                  |      ..8@      |        utoff: 14400 (valid) 0x1e6-0x1e9.7 (4)
0x1e0|                              01               |          .     |        dst: 1 (valid) 0x1ea-0x1ea.7 (1)
0x1e0|                                 16            |           .    |        idx: 22 (valid) 0x1eb-0x1eb.7 (1)
     |                                               |                |      [8]{}: local_time_type 0x1ec-0x1f1.7 (6)
0x1e0|                                    00 00 2a 30|            ..*0|        utoff: 10800 (valid) 0x1ec-0x1ef.7 (4)
0x1f0|00                                             |.               |        dst: 0 (valid) 0x1f0-0x1f0.7 (1)
0x1f0|   1a                                          | .              |        idx: 26 (valid) 0x1f1-0x1f1.7 (1)
     |                                               |                |      [9]{}: local_time_type 0x1f2-0x1f7.7 (6)
0x1f0|      00 00 2a 30                              |  ..*0          |        utoff: 10800 (valid) 0x1f2-0x1f5.7 (4)
0x1f0|                  00                           |      .         |        dst: 0 (valid) 0x1f6-0x1f6.7 (1)
0x1f0|                     1a                        |       .        |        idx: 26 (valid) 0x1f7-0x1f7.7 (1)
     |                                               |                |      [10]{}: local_time_type 0x1f8-0x1fd.7 (6)
0x1f0|                        00 00 38 40            |        ..8@    |        utoff: 14400 (valid) 0x1f8-0x1fb.7 (4)
0x1f0|                                    01         |            .   |        dst: 1 (valid) 0x1fc-0x1fc.7 (1)
0x1f0|                                       16      |             .  |        idx: 22 (valid) 0x1fd-0x1fd.7 (1)
     |                                               |                |      [11]{}: local_time_type 0x1fe-0x203.7 (6)
0x1f0|                                          00 00|              ..|        utoff: 10800 (valid) 0x1fe-0x201.7 (4)
0x200|2a 30                                          |*0              |
0x200|      01                                       |  .             |        dst: 1 (valid) 0x202-0x202.7 (1)
0x200|         0d                                    |   .            |        idx: 13 (valid) 0x203-0x203.7 (1)
     |                                               |                |      [12]{}: local_time_type 0x204-0x209.7 (6)
0x200|            00 00 1c 20                        |    ...         |        utoff: 7200 (valid) 0x204-0x207.7 (4)
0x200|                        00                     |        .       |        dst: 0 (valid) 0x208-0x208.7 (1)
0x200|                           12                  |         .      |        idx: 18 (valid) 0x209-0x209.7 (1)
     |                                               |                |      [13]{}: local_time_type 0x20a-0x20f.7 (6)
0x200|                              00 00 2a 30      |          ..*0  |        utoff: 10800 (valid) 0x20a-0x20d.7 (4)
0x200|                                          00   |              . |        dst: 0 (valid) 0x20e-0x20e.7 (1)
0x200|                                             1e|               .|        idx: 30 (valid) 0x20f-0x20f.7 (1)
     |                                               |                |      [14]{}: local_time_type 0x210-0x215.7 (6)
0x210|00 00 1c 20                                    |...             |        utoff: 7200 (valid) 0x210-0x213.7 (4)
0x210|            00                                 |    .           |        dst: 0 (valid) 0x214-0x214.7 (1)
0x210|               12                              |     .          |        idx: 18 (valid) 0x215-0x215.7 (1)
     |                                               |                |    time_zone_designations[0:8]: 0x216-0x237.7 (34)
0x210|                  4c 4d 54 00                  |      LMT.      |      [0]: "LMT" time_zone_designation 0x216-0x219.7 (4)
0x210|                              43 45 53 54 00   |          CEST. |      [1]: "CEST" time_zone_designation 0x21a-0x21e.7 (5)
0x210|                                             43|               C|      [2]: "CET" time_zone_designation 0x21f-0x222.7 (4)
0x220|45 54 00                                       |ET.             |
0x220|         45 45 53 54 00                        |   EEST.        |      [3]: "EEST" time_zone_designation 0x223-0x227.7 (5)
0x220|                        45 45 54 00            |        EET.    |      [4]: "EET" time_zone_designation 0x228-0x22b.7 (4)
0x220|                                    4d 53 44 00|            MSD.|      [5]: "MSD" time_zone_designation 0x22c-0x22f.7 (4)
0x230|4d 53 4b 00                                    |MSK.            |      [6]: "MSK" time_zone_designation 0x230-0x233.7 (4)
0x230|            2b 30 33 00                        |    +03.        |      [7]: "+03" time_zone_designation 0x234-0x237.7 (4)
     |                                               |                |    leap_second_records[0:0]: 0x238-NA (0)
     |                                               |                |    standard_wall_indicators[0:15]: 0x238-0x246.7 (15)
0x230|                        00                     |        .       |      [0]: 0 standard_wall_indicator (valid) 0x238-0x238.7 (1)
0x230|                           00                  |         .      |      [1]: 0 standard_wall_indicator (valid) 0x239-0x239.7 (1)
0x230|                              00               |          .     |      [2]: 0 standard_wall_indicator (valid) 0x23a-0x23a.7 (1)
0x230|                                 01            |           .    |      [3]: 1 standard_wall_indicator (valid) 0x23b-0x23b.7 (1)
0x230|                                    01         |            .   |      [4]: 1 standard_wall_indicator (valid) 0x23c-0x23c.7 (1)
0x230|                                       00      |             .  |      [5]: 0 standard_wall_indicator (valid) 0x23d-0x23d.7 (1)
0x230|                                          00   |              . |      [6]: 0 standard_wall_indicator (valid) 0x23e-0x23e.7 (1)
0x230|                                             00|               .|      [7]: 0 standard_wall_indicator (valid) 0x23f-0x23f.7 (1)
0x240|00                                             |.               |      [8]: 0 standard_wall_indicator (valid) 0x240-0x240.7 (1)
0x240|   01                                          | .              |      [9]: 1 standard_wall_indicator (valid) 0x241-0x241.7 (1)
0x240|      01                                       |  .             |      [10]: 1 standard_wall_indicator (valid) 0x242-0x242.7 (1)
0x240|         01                                    |   .            |      [11]: 1 standard_wall_indicator (valid) 0x243-0x243.7 (1)
0x240|            01                                 |    .           |      [12]: 1 standard_wall_indicator (valid) 0x244-0x244.7 (1)
0x240|               01                              |     .          |      [13]: 1 standard_wall_indicator (valid) 0x245-0x245.7 (1)
0x240|                  01                           |      .         |      [14]: 1 standard_wall_indicator (valid) 0x246-0x246.7 (1)
     |                                               |                |    ut_local_indicators[0:0]: 0x247-NA (0)
     |                                               |                |  v2plusheader{}: 0x247-0x272.7 (44)
0x240|                     54 5a 69 66               |       TZif     |    magic: 0x545a6966 (valid) 0x247-0x24a.7 (4)
0x240|                                 32            |           2    |    ver: "2" (0x32) (valid) 0x24b-0x24b.7 (1)
0x240|                                    00 00 00 00|            ....|    reserved: raw bits 0x24c-0x25a.7 (15)
0x250|00 00 00 00 00 00 00 00 00 00 00               |...........     |
0x250|                                 00 00 00 00   |           .... |    isutcnt: 0 0x25b-0x25e.7 (4)
0x250|                                             00|               .|    isstdcnt: 15 0x25f-0x262.7 (4)
0x260|00 00 0f                                       |...             |
0x260|         00 00 00 00                           |   ....         |    leapcnt: 0 0x263-0x266.7 (4)
0x260|                     00 00 00 50               |       ...P     |    timecnt: 80 0x267-0x26a.7 (4)
0x260|                                 00 00 00 0f   |           .... |    typecnt: 15 0x26b-0x26e.7 (4)
0x260|                                             00|               .|    charcnt: 34 0x26f-0x272.7 (4)
0x270|00 00 22                                       |.."             |
     |                                               |                |  v2plusdatablock{}: 0x273-0x5cd.7 (859)
     |                                               |                |    transition_times[0:80]: 0x273-0x4f2.7 (640)
0x270|         ff ff ff ff 6f a2 5b 48               |   ....o.[H     |      [0]: "1893-03-31T22:38:00Z" (-2422056120) transition_time 0x273-0x27a.7 (8)
0x270|                                 ff ff ff ff 9b|           .....|      [1]: "1916-04-30T22:00:00Z" (-1693706400) transition_time 0x27b-0x282.7 (8)
0x280|0c 17 60                                       |..`             |
0x280|         ff ff ff ff 9b d5 da f0               |   ........     |      [2]: "1916-09-30T23:00:00Z" (-1680483600) transition_time 0x283-0x28a.7 (8)
0x280|                                 ff ff ff ff 9c|           .....|      [3]: "1917-04-16T01:00:00Z" (-1663455600) transition_time 0x28b-0x292.7 (8)
0x290|d9 ae 90                                       |...             |
0x290|         ff ff ff ff 9d a4 b5 90               |   ........     |      [4]: "1917-09-17T01:00:00Z" (-1650150000) transition_time 0x293-0x29a.7 (8)
0x290|                                 ff ff ff ff 9e|           .....|      [5]: "1918-04-15T01:00:00Z" (-1632006000) transition_time 0x29b-0x2a2.7 (8)
0x2a0|b9 90 90                                       |...             |
0x2a0|         ff ff ff ff 9f 84 97 90               |   ........     |      [6]: "1918-09-16T01:00:00Z" (-1618700400) transition_time 0x2a3-0x2aa.7 (8)
0x2a0|                                 ff ff ff ff c8|           .....|      [7]: "1940-04-01T01:00:00Z" (-938905200) transition_time 0x2ab-0x2b2.7 (8)
0x2b0|09 71 90                                       |.q.             |
0x2b0|         ff ff ff ff cc e7 4b 10               |   ......K.     |      [8]: "1942-11-02T01:00:00Z" (-857257200) transition_time 0x2b3-0x2ba.7 (8)
0x2b0|                                 ff ff ff ff cd|           .....|      [9]: "1943-03-29T01:00:00Z" (-844556400) transition_time 0x2bb-0x2c2.7 (8)
0x2c0|a9 17 90                                       |...             |
0x2c0|         ff ff ff ff ce a2 43 10               |   ......C.     |      [10]: "1943-10-04T01:00:00Z" (-828226800) transition_time 0x2c3-0x2ca.7 (8)
0x2c0|                                 ff ff ff ff cf|           .....|      [11]: "1944-04-03T01:00:00Z" (-812502000) transition_time 0x2cb-0x2d2.7 (8)
0x2d0|92 34 10                                       |.4.             |
0x2d0|         ff ff ff ff d0 82 25 10               |   ......%.     |      [12]: "1944-10-02T01:00:00Z" (-796777200) transition_time 0x2d3-0x2da.7 (8)
0x2d0|                                 ff ff ff ff d1|           .....|      [13]: "1945-04-02T01:00:00Z" (-781052400) transition_time 0x2db-0x2e2.7 (8)
0x2e0|72 16 10                                       |r..             |
0x2e0|         ff ff ff ff d1 7c 77 e0               |   .....|w.     |      [14]: "1945-04-09T22:00:00Z" (-780372000) transition_time 0x2e3-0x2ea.7 (8)
0x2e0|                                 ff ff ff ff d1|           .....|      [15]: "1945-04-28T22:00:00Z" (-778730400) transition_time 0x2eb-0x2f2.7 (8)
0x2f0|95 84 60                                       |..`             |
0x2f0|         ff ff ff ff d2 8a ad 50               |   .......P     |      [16]: "1945-10-31T21:00:00Z" (-762663600) transition_time 0x2f3-0x2fa.7 (8)
0x2f0|                                 ff ff ff ff d3|           .....|      [17]: "1946-04-06T22:00:00Z" (-749095200) transition_time 0x2fb-0x302.7 (8)
0x300|59 b6 e0                                       |Y..             |
0x300|         00 00 00 00 15 27 a7 d0               |   .....'..     |      [18]: "1981-03-31T21:00:00Z" (354920400) transition_time 0x303-0x30a.7 (8)
0x300|                                 00 00 00 00 16|           .....|      [19]: "1981-09-30T20:00:00Z" (370728000) transition_time 0x30b-0x312.7 (8)
0x310|18 dc 40                                       |..@             |
0x310|         00 00 00 00 17 08 db 50               |   .......P     |      [20]: "1982-03-31T21:00:00Z" (386456400) transition_time 0x313-0x31a.7 (8)
0x310|                                 00 00 00 00 17|           .....|      [21]: "1982-09-30T20:00:00Z" (402264000) transition_time 0x31b-0x322.7 (8)
0x320|fa 0f c0                                       |...             |
0x320|         00 00 00 00 18 ea 0e d0               |   ........     |      [22]: "1983-03-31T21:00:00Z" (417992400) transition_time 0x323-0x32a.7 (8)
0x320|                                 00 00 00 00 19|           .....|      [23]: "1983-09-30T20:00:00Z" (433800000) transition_time 0x32b-0x332.7 (8)
0x330|db 43 40                                       |.C@             |
0x330|         00 00 00 00 1a cc 93 d0               |   ........     |      [24]: "1984-03-31T21:00:00Z" (449614800) transition_time 0x333-0x33a.7 (8)
0x330|                                 00 00 00 00 1b|           .....|      [25]: "1984-09-29T23:00:00Z" (465346800) transition_time 0x33b-0x342.7 (8)
0x340|bc a0 f0                                       |...             |
0x340|         00 00 00 00 1c ac 91 f0               |   ........     |      [26]: "1985-03-30T23:00:00Z" (481071600) transition_time 0x343-0x34a.7 (8)
0x340|                                 00 00 00 00 1d|           .....|      [27]: "1985-09-28T23:00:00Z" (496796400) transition_time 0x34b-0x352.7 (8)
0x350|9c 82 f0                                       |...             |
0x350|         00 00 00 00 1e 8c 73 f0               |   ......s.     |      [28]: "1986-03-29T23:00:00Z" (512521200) transition_time 0x353-0x35a.7 (8)
0x350|                                 00 00 00 00 1f|           .....|      [29]: "1986-09-27T23:00:00Z" (528246000) transition_time 0x35b-0x362.7 (8)
0x360|7c 64 f0                                       ||d.             |
0x360|         00 00 00 00 20 6c 55 f0               |   .... lU.     |      [30]: "1987-03-28T23:00:00Z" (543970800) transition_time 0x363-0x36a.7 (8)
0x360|                                 00 00 00 00 21|           ....!|      [31]: "1987-09-26T23:00:00Z" (559695600) transition_time 0x36b-0x372.7 (8)
0x370|5c 46 f0                                       |\F.             |
0x370|         00 00 00 00 22 4c 37 f0               |   ...."L7.     |      [32]: "1988-03-26T23:00:00Z" (575420400) transition_time 0x373-0x37a.7 (8)
0x370|                                 00 00 00 00 23|           ....#|      [33]: "1988-09-24T23:00:00Z" (591145200) transition_time 0x37b-0x382.7 (8)
0x380|3c 28 f0                                       |<(.             |
0x380|         00 00 00 00 24 2c 19 f0               |   ....$,..     |      [34]: "1989-03-25T23:00:00Z" (606870000) transition_time 0x383-0x38a.7 (8)
0x380|                                 00 00 00 00 25|           ....%|      [35]: "1989-09-24T00:00:00Z" (622598400) transition_time 0x38b-0x392.7 (8)
0x390|1c 19 00                                       |...             |
0x390|         00 00 00 00 26 0c 0a 00               |   ....&...     |      [36]: "1990-03-25T00:00:00Z" (638323200) transition_time 0x393-0x39a.7 (8)
0x390|                                 00 00 00 00 27|           ....'|      [37]: "1990-09-30T00:00:00Z" (654652800) transition_time 0x39b-0x3a2.7 (8)
0x3a0|05 35 80                                       |.5.             |
0x3a0|         00 00 00 00 27 f5 26 80               |   ....'.&.     |      [38]: "1991-03-31T00:00:00Z" (670377600) transition_time 0x3a3-0x3aa.7 (8)
0x3a0|                                 00 00 00 00 28|           ....(|      [39]: "1991-09-29T00:00:00Z" (686102400) transition_time 0x3ab-0x3b2.7 (8)
0x3b0|e5 17 80                                       |...             |
0x3b0|         00 00 00 00 29 d5 08 80               |   ....)...     |      [40]: "1992-03-29T00:00:00Z" (701827200) transition_time 0x3b3-0x3ba.7 (8)
0x3b0|                                 00 00 00 00 2a|           ....*|      [41]: "1992-09-27T00:00:00Z" (717552000) transition_time 0x3bb-0x3c2.7 (8)
0x3c0|c4 f9 80                                       |...             |
0x3c0|         00 00 00 00 2b b4 ea 80               |   ....+...     |      [42]: "1993-03-28T00:00:00Z" (733276800) transition_time 0x3c3-0x3ca.7 (8)
0x3c0|                                 00 00 00 00 2c|           ....,|      [43]: "1993-09-26T00:00:00Z" (749001600) transition_time 0x3cb-0x3d2.7 (8)
0x3d0|a4 db 80                                       |...             |
0x3d0|         00 00 00 00 2d 94 cc 80               |   ....-...     |      [44]: "1994-03-27T00:00:00Z" (764726400) transition_time 0x3d3-0x3da.7 (8)
0x3d0|                                 00 00 00 00 2e|           .....|      [45]: "1994-09-25T00:00:00Z" (780451200) transition_time 0x3db-0x3e2.7 (8)
0x3e0|84 bd 80                                       |...             |
0x3e0|         00 00 00 00 2f 74 ae 80               |   ..../t..     |      [46]: "1995-03-26T00:00:00Z" (796176000) transition_time 0x3e3-0x3ea.7 (8)
0x3e0|                                 00 00 00 00 30|           ....0|      [47]: "1995-09-24T00:00:00Z" (811900800) transition_time 0x3eb-0x3f2.7 (8)
0x3f0|64 9f 80                                       |d..             |
0x3f0|         00 00 00 00 31 5d cb 00               |   ....1]..     |      [48]: "1996-03-31T00:00:00Z" (828230400) transition_time 0x3f3-0x3fa.7 (8)
0x3f0|                                 00 00 00 00 32|           ....2|      [49]: "1996-10-27T00:00:00Z" (846374400) transition_time 0x3fb-0x402.7 (8)
0x400|72 a6 00                                       |r..             |
0x400|         00 00 00 00 33 3d ad 00               |   ....3=..     |      [50]: "1997-03-30T00:00:00Z" (859680000) transition_time 0x403-0x40a.7 (8)
0x400|                                 00 00 00 00 34|           ....4|      [51]: "1997-10-26T00:00:00Z" (877824000) transition_time 0x40b-0x412.7 (8)
0x410|52 88 00                                       |R..             |
0x410|         00 00 00 00 35 1d 8f 00               |   ....5...     |      [52]: "1998-03-29T00:00:00Z" (891129600) transition_time 0x413-0x41a.7 (8)
0x410|                                 00 00 00 00 36|           ....6|      [53]: "1998-10-25T00:00:00Z" (909273600) transition_time 0x41b-0x422.7 (8)
0x420|32 6a 00                                       |2j.             |
0x420|         00 00 00 00 36 fd 71 00               |   ....6.q.     |      [54]: "1999-03-28T00:00:00Z" (922579200) transition_time 0x423-0x42a.7 (8)
0x420|                                 00 00 00 00 38|           ....8|      [55]: "1999-10-31T00:00:00Z" (941328000) transition_time 0x42b-0x432.7 (8)
0x430|1b 86 80                                       |...             |
0x430|         00 00 00 00 38 dd 53 00               |   ....8.S.     |      [56]: "2000-03-26T00:00:00Z" (954028800) transition_time 0x433-0x43a.7 (8)
0x430|                                 00 00 00 00 39|           ....9|      [57]: "2000-10-29T00:00:00Z" (972777600) transition_time 0x43b-0x442.7 (8)
0x440|fb 68 80                                       |.h.             |
0x440|         00 00 00 00 3a bd 35 00               |   ....:.5.     |      [58]: "2001-03-25T00:00:00Z" (985478400) transition_time 0x443-0x44a.7 (8)
0x440|                                 00 00 00 00 3b|           ....;|      [59]: "2001-10-28T00:00:00Z" (1004227200) transition_time 0x44b-0x452.7 (8)
0x450|db 4a 80                                       |.J.             |
0x450|         00 00 00 00 3c a6 51 80               |   ....<.Q.     |      [60]: "2002-03-31T00:00:00Z" (1017532800) transition_time 0x453-0x45a.7 (8)
0x450|                                 00 00 00 00 3d|           ....=|      [61]: "2002-10-27T00:00:00Z" (1035676800) transition_time 0x45b-0x462.7 (8)
0x460|bb 2c 80                                       |.,.             |
0x460|         00 00 00 00 3e 86 33 80               |   ....>.3.     |      [62]: "2003-03-30T00:00:00Z" (1048982400) transition_time 0x463-0x46a.7 (8)
0x460|                                 00 00 00 00 3f|           ....?|      [63]: "2003-10-26T00:00:00Z" (1067126400) transition_time 0x46b-0x472.7 (8)
0x470|9b 0e 80                                       |...             |
0x470|         00 00 00 00 40 66 15 80               |   ....@f..     |      [64]: "2004-03-28T00:00:00Z" (1080432000) transition_time 0x473-0x47a.7 (8)
0x470|                                 00 00 00 00 41|           ....A|      [65]: "2004-10-31T00:00:00Z" (1099180800) transition_time 0x47b-0x482.7 (8)
0x480|84 2b 00                                       |.+.             |
0x480|         00 00 00 00 42 45 f7 80               |   ....BE..     |      [66]: "2005-03-27T00:00:00Z" (1111881600) transition_time 0x483-0x48a.7 (8)
0x480|                                 00 00 00 00 43|           ....C|      [67]: "2005-10-30T00:00:00Z" (1130630400) transition_time 0x48b-0x492.7 (8)
0x490|64 0d 00                                       |d..             |
0x490|         00 00 00 00 44 25 d9 80               |   ....D%..     |      [68]: "2006-03-26T00:00:00Z" (1143331200) transition_time 0x493-0x49a.7 (8)
0x490|                                 00 00 00 00 45|           ....E|      [69]: "2006-10-29T00:00:00Z" (1162080000) transition_time 0x49b-0x4a2.7 (8)
0x4a0|43 ef 00                                       |C..             |
0x4a0|         00 00 00 00 46 05 bb 80               |   ....F...     |      [70]: "2007-03-25T00:00:00Z" (1174780800) transition_time 0x4a3-0x4aa.7 (8)
0x4a0|                                 00 00 00 00 47|           ....G|      [71]: "2007-10-28T00:00:00Z" (1193529600) transition_time 0x4ab-0x4b2.7 (8)
0x4b0|23 d1 00                                       |#..             |
0x4b0|         00 00 00 00 47 ee d8 00               |   ....G...     |      [72]: "2008-03-30T00:00:00Z" (1206835200) transition_time 0x4b3-0x4ba.7 (8)
0x4b0|                                 00 00 00 00 49|           ....I|      [73]: "2008-10-26T00:00:00Z" (1224979200) transition_time 0x4bb-0x4c2.7 (8)
0x4c0|03 b3 00                                       |...             |
0x4c0|         00 00 00 00 49 ce ba 00               |   ....I...     |      [74]: "2009-03-29T00:00:00Z" (1238284800) transition_time 0x4c3-0x4ca.7 (8)
0x4c0|                                 00 00 00 00 4a|           ....J|      [75]: "2009-10-25T00:00:00Z" (1256428800) transition_time 0x4cb-0x4d2.7 (8)
0x4d0|e3 95 00                                       |...             |
0x4d0|         00 00 00 00 4b ae 9c 00               |   ....K...     |      [76]: "2010-03-28T00:00:00Z" (1269734400) transition_time 0x4d3-0x4da.7 (8)
0x4d0|                                 00 00 00 00 4c|           ....L|      [77]: "2010-10-31T00:00:00Z" (1288483200) transition_time 0x4db-0x4e2.7 (8)
0x4e0|cc b1 80                                       |...             |
0x4e0|         00 00 00 00 4d 8e 7e 00               |   ....M.~.     |      [78]: "2011-03-27T00:00:00Z" (1301184000) transition_time 0x4e3-0x4ea.7 (8)
0x4e0|                                 00 00 00 00 54|           ....T|      [79]: "2014-10-25T23:00:00Z" (1414278000) transition_time 0x4eb-0x4f2.7 (8)
0x4f0|4c 2b 70                                       |L+p             |
     |                                               |                |    transition_types[0:80]: 0x4f3-0x542.7 (80)
0x4f0|         02                                    |   .            |      [0]: 2 transition_type 0x4f3-0x4f3.7 (1)
0x4f0|            01                                 |    .           |      [1]: 1 transition_type 0x4f4-0x4f4.7 (1)
0x4f0|               02                              |     .          |      [2]: 2 transition_type 0x4f5-0x4f5.7 (1)
0x4f0|                  03                           |      .         |      [3]: 3 transition_type 0x4f6-0x4f6.7 (1)
0x4f0|                     04                        |       .        |      [4]: 4 transition_type 0x4f7-0x4f7.7 (1)
0x4f0|                        03                     |        .       |      [5]: 3 transition_type 0x4f8-0x4f8.7 (1)
0x4f0|                           04                  |         .      |      [6]: 4 transition_type 0x4f9-0x4f9.7 (1)
0x4f0|                              03               |          .     |      [7]: 3 transition_type 0x4fa-0x4fa.7 (1)
0x4f0|                                 04            |           .    |      [8]: 4 transition_type 0x4fb-0x4fb.7 (1)
0x4f0|                                    03         |            .   |      [9]: 3 transition_type 0x4fc-0x4fc.7 (1)
0x4f0|                                       04      |             .  |      [10]: 4 transition_type 0x4fd-0x4fd.7 (1)
0x4f0|                                          03   |              . |      [11]: 3 transition_type 0x4fe-0x4fe.7 (1)
0x4f0|                                             04|               .|      [12]: 4 transition_type 0x4ff-0x4ff.7 (1)
0x500|03                                             |.               |      [13]: 3 transition_type 0x500-0x500.7 (1)
0x500|   06                                          | .              |      [14]: 6 transition_type 0x501-0x501.7 (1)
0x500|      05                                       |  .             |      [15]: 5 transition_type 0x502-0x502.7 (1)
0x500|         06                                    |   .            |      [16]: 6 transition_type 0x503-0x503.7 (1)
0x500|            08                                 |    .           |      [17]: 8 transition_type 0x504-0x504.7 (1)
0x500|               07                              |     .          |      [18]: 7 transition_type 0x505-0x505.7 (1)
0x500|                  08                           |      .         |      [19]: 8 transition_type 0x506-0x506.7 (1)
0x500|                     07                        |       .        |      [20]: 7 transition_type 0x507-0x507.7 (1)
0x500|                        08                     |        .       |      [21]: 8 transition_type 0x508-0x508.7 (1)
0x500|                           07                  |         .      |      [22]: 7 transition_type 0x509-0x509.7 (1)
0x500|                              08               |          .     |      [23]: 8 transition_type 0x50a-0x50a.7 (1)
0x500|                                 07            |           .    |      [24]: 7 transition_type 0x50b-0x50b.7 (1)
0x500|                                    09         |            .   |      [25]: 9 transition_type 0x50c-0x50c.7 (1)
0x500|                                       0a      |             .  |      [26]: 10 transition_type 0x50d-0x50d.7 (1)
0x500|                                          09   |              . |      [27]: 9 transition_type 0x50e-0x50e.7 (1)
0x500|                                             0a|               .|      [28]: 10 transition_type 0x50f-0x50f.7 (1)
0x510|09                                             |.               |      [29]: 9 transition_type 0x510-0x510.7 (1)
0x510|   0a                                          | .              |      [30]: 10 transition_type 0x511-0x511.7 (1)
0x510|      09                                       |  .             |      [31]: 9 transition_type 0x512-0x512.7 (1)
0x510|         0a                                    |   .            |      [32]: 10 transition_type 0x513-0x513.7 (1)
0x510|            09                                 |    .           |      [33]: 9 transition_type 0x514-0x514.7 (1)
0x510|               0b                              |     .          |      [34]: 11 transition_type 0x515-0x515.7 (1)
0x510|                  0c                           |      .         |      [35]: 12 transition_type 0x516-0x516.7 (1)
0x510|                     0b                        |       .        |      [36]: 11 transition_type 0x517-0x517.7 (1)
0x510|                        0c                     |        .       |      [37]: 12 transition_type 0x518-0x518.7 (1)
0x510|                           0b                  |         .      |      [38]: 11 transition_type 0x519-0x519.7 (1)
0x510|                              0c               |          .     |      [39]: 12 transition_type 0x51a-0x51a.7 (1)
0x510|                                 0b            |           .    |      [40]: 11 transition_type 0x51b-0x51b.7 (1)
0x510|                                    0c         |            .   |      [41]: 12 transition_type 0x51c-0x51c.7 (1)
0x510|                                       0b      |             .  |      [42]: 11 transition_type 0x51d-0x51d.7 (1)
0x510|                                          0c   |              . |      [43]: 12 transition_type 0x51e-0x51e.7 (1)
0x510|                                             0b|               .|      [44]: 11 transition_type 0x51f-0x51f.7 (1)
0x520|0c                                             |.               |      [45]: 12 transition_type 0x520-0x520.7 (1)
0x520|   0b                                          | .              |      [46]: 11 transition_type 0x521-0x521.7 (1)
0x520|      0c                                       |  .             |      [47]: 12 transition_type 0x522-0x522.7 (1)
0x520|         0b                                    |   .            |      [48]: 11 transition_type 0x523-0x523.7 (1)
0x520|            0c                                 |    .           |      [49]: 12 transition_type 0x524-0x524.7 (1)
0x520|               0b                              |     .          |      [50]: 11 transition_type 0x525-0x525.7 (1)
0x520|                  0c                           |      .         |      [51]: 12 transition_type 0x526-0x526.7 (1)
0x520|                     0b                        |       .        |      [52]: 11 transition_type 0x527-0x527.7 (1)
0x520|                        0c                     |        .       |      [53]: 12 transition_type 0x528-0x528.7 (1)
0x520|                           0b                  |         .      |      [54]: 11 transition_type 0x529-0x529.7 (1)
0x520|                              0c               |          .     |      [55]: 12 transition_type 0x52a-0x52a.7 (1)
0x520|                                 0b            |           .    |      [56]: 11 transition_type 0x52b-0x52b.7 (1)
0x520|                                    0c         |            .   |      [57]: 12 transition_type 0x52c-0x52c.7 (1)
0x520|                                       0b      |             .  |      [58]: 11 transition_type 0x52d-0x52d.7 (1)
0x520|                                          0c   |              . |      [59]: 12 transition_type 0x52e-0x52e.7 (1)
0x520|                                             0b|               .|      [60]: 11 transition_type 0x52f-0x52f.7 (1)
0x530|0c                                             |.               |      [61]: 12 transition_type 0x530-0x530.7 (1)
0x530|   0b                                          | .              |      [62]: 11 transition_type 0x531-0x531.7 (1)
0x530|      0c                                       |  .             |      [63]: 12 transition_type 0x532-0x532.7 (1)
0x530|         0b                                    |   .            |      [64]: 11 transition_type 0x533-0x533.7 (1)
0x530|            0c                                 |    .           |      [65]: 12 transition_type 0x534-0x534.7 (1)
0x530|               0b                              |     .          |      [66]: 11 transition_type 0x535-0x535.7 (1)
0x530|                  0c                           |      .         |      [67]: 12 transition_type 0x536-0x536.7 (1)
0x530|                     0b                        |       .        |      [68]: 11 transition_type 0x537-0x537.7 (1)
0x530|                        0c                     |        .       |      [69]: 12 transition_type 0x538-0x538.7 (1)
0x530|                           0b                  |         .      |      [70]: 11 transition_type 0x539-0x539.7 (1)
0x530|                              0c               |          .     |      [71]: 12 transition_type 0x53a-0x53a.7 (1)
0x530|                                 0b            |           .    |      [72]: 11 transition_type 0x53b-0x53b.7 (1)
0x530|                                    0c         |            .   |      [73]: 12 transition_type 0x53c-0x53c.7 (1)
0x530|                                       0b      |             .  |      [74]: 11 transition_type 0x53d-0x53d.7 (1)
0x530|                                          0c   |              . |      [75]: 12 transition_type 0x53e-0x53e.7 (1)
0x530|                                             0b|               .|      [76]: 11 transition_type 0x53f-0x53f.7 (1)
0x540|0c                                             |.               |      [77]: 12 transition_type 0x540-0x540.7 (1)
0x540|   0d                                          | .              |      [78]: 13 transition_type 0x541-0x541.7 (1)
0x540|      0c                                       |  .             |      [79]: 12 transition_type 0x542-0x542.7 (1)
     |                                               |                |    local_time_type_records[0:15]: 0x543-0x59c.7 (90)
     |                                               |                |      [0]{}: local_time_type 0x543-0x548.7 (6)
0x540|         00 00 13 38                           |   ...8         |        utoff: 4920 (valid) 0x543-0x546.7 (4)
0x540|                     00                        |       .        |        dst: 0 (valid) 0x547-0x547.7 (1)
0x540|                        00                     |        .       |        idx: 0 (valid) 0x548-0x548.7 (1)
     |                                               |                |      [1]{}: local_time_type 0x549-0x54e.7 (6)
0x540|                           00 00 1c 20         |         ...    |        utoff: 7200 (valid) 0x549-0x54c.7 (4)
0x540|                                       01      |             .  |        dst: 1 (valid) 0x54d-0x54d.7 (1)
0x540|                                          04   |              . |        idx: 4 (valid) 0x54e-0x54e.7 (1)
     |                                               |                |      [2]{}: local_time_type 0x54f-0x554.7 (6)
0x540|                                             00|               .|        utoff: 3600 (valid) 0x54f-0x552.7 (4)
0x550|00 0e 10                                       |...             |
0x550|         00                                    |   .            |        dst: 0 (valid) 0x553-0x553.7 (1)
0x550|            09                                 |    .           |        idx: 9 (valid) 0x554-0x554.7 (1)
     |                                               |                |      [3]{}: local_time_type 0x555-0x55a.7 (6)
0x550|               00 00 1c 20                     |     ...        |        utoff: 7200 (valid) 0x555-0x558.7 (4)
0x550|                           01                  |         .      |        dst: 1 (valid) 0x559-0x559.7 (1)
0x550|                              04               |          .     |        idx: 4 (valid) 0x55a-0x55a.7 (1)
     |                                               |                |      [4]{}: local_time_type 0x55b-0x560.7 (6)
0x550|                                 00 00 0e 10   |           .... |        utoff: 3600 (valid) 0x55b-0x55e.7 (4)
0x550|                                             00|               .|        dst: 0 (valid) 0x55f-0x55f.7 (1)
0x560|09                                             |.               |        idx: 9 (valid) 0x560-0x560.7 (1)
     |                                               |                |      [5]{}: local_time_type 0x561-0x566.7 (6)
0x560|   00 00 2a 30                                 | ..*0           |        utoff: 10800 (valid) 0x561-0x564.7 (4)
0x560|               01                              |     .          |        dst: 1 (valid) 0x565-0x565.7 (1)
0x560|                  0d                           |      .         |        idx: 13 (valid) 0x566-0x566.7 (1)
     |                                               |                |      [6]{}: local_time_type 0x567-0x56c.7 (6)
0x560|                     00 00 1c 20               |       ...      |        utoff: 7200 (valid) 0x567-0x56a.7 (4)
0x560|                                 00            |           .    |        dst: 0 (valid) 0x56b-0x56b.7 (1)
0x560|                                    12         |            .   |        idx: 18 (valid) 0x56c-0x56c.7 (1)
     |                                               |                |      [7]{}: local_time_type 0x56d-0x572.7 (6)
0x560|                                       00 00 38|             ..8|        utoff: 14400 (valid) 0x56d-0x570.7 (4)
0x570|40                                             |@               |
0x570|   01                                          | .              |        dst: 1 (valid) 0x571-0x571.7 (1)
0x570|      16                                       |  .             |        idx: 22 (valid) 0x572-0x572.7 (1)
     |                                               |                |      [8]{}: local_time_type 0x573-0x578.7 (6)
0x570|         00 00 2a 30                           |   ..*0         |        utoff: 10800 (valid) 0x573-0x576.7 (4)
0x570|                     00                        |       .        |        dst: 0 (valid) 0x577-0x577.7 (1)
0x570|                        1a                     |        .       |        idx: 26 (valid) 0x578-0x578.7 (1)
     |                                               |                |      [9]{}: local_time_type 0x579-0x57e.7 (6)
0x570|                           00 00 2a 30         |         ..*0   |        utoff: 10800 (valid) 0x579-0x57c.7 (4)
0x570|                                       00      |             .  |        dst: 0 (valid) 0x57d-0x57d.7 (1)
0x570|                                          1a   |              . |        idx: 26 (valid) 0x57e-0x57e.7 (1)
     |                                               |                |      [10]{}: local_time_type 0x57f-0x584.7 (6)
0x570|                                             00|               .|        utoff: 14400 (valid) 0x57f-0x582.7 (4)
0x580|00 38 40                                       |.8@             |
0x580|         01                                    |   .            |        dst: 1 (valid) 0x583-0x583.7 (1)
0x580|            16                                 |    .           |        idx: 22 (valid) 0x584-0x584.7 (1)
     |                                               |                |      [11]{}: local_time_type 0x585-0x58a.7 (6)
0x580|               00 00 2a 30                     |     ..*0       |        utoff: 10800 (valid) 0x585-0x588.7 (4)
0x580|                           01                  |         .      |        dst: 1 (valid) 0x589-0x589.7 (1)
0x580|                              0d               |          .     |        idx: 13 (valid) 0x58a-0x58a.7 (1)
     |                                               |                |      [12]{}: local_time_type 0x58b-0x590.7 (6)
0x580|                                 00 00 1c 20   |           ...  |        utoff: 7200 (valid) 0x58b-0x58e.7 (4)
0x580|                                             00|               .|        dst: 0 (valid) 0x58f-0x58f.7 (1)
0x590|12                                             |.               |        idx: 18 (valid) 0x590-0x590.7 (1)
     |                                               |                |      [13]{}: local_time_type 0x591-0x596.7 (6)
0x590|   00 00 2a 30                                 | ..*0           |        utoff: 10800 (valid) 0x591-0x594.7 (4)
0x590|               00                              |     .          |        dst: 0 (valid) 0x595-0x595.7 (1)
0x590|                  1e                           |      .         |        idx: 30 (valid) 0x596-0x596.7 (1)
     |                                               |                |      [14]{}: local_time_type 0x597-0x59c.7 (6)
0x590|                     00 00 1c 20               |       ...      |        utoff: 7200 (valid) 0x597-0x59a.7 (4)
0x590|                                 00            |           .    |        dst: 0 (valid) 0x59b-0x59b.7 (1)
0x590|                                    12         |            .   |        idx: 18 (valid) 0x59c-0x59c.7 (1)
     |                                               |                |    time_zone_designations[0:8]: 0x59d-0x5be.7 (34)
0x590|                                       4c 4d 54|             LMT|      [0]: "LMT" time_zone_designation 0x59d-0x5a0.7 (4)
0x5a0|00                                             |.               |
0x5a0|   43 45 53 54 00                              | CEST.          |      [1]: "CEST" time_zone_designation 0x5a1-0x5a5.7 (5)
0x5a0|                  43 45 54 00                  |      CET.      |      [2]: "CET" time_zone_designation 0x5a6-0x5a9.7 (4)
0x5a0|                              45 45 53 54 00   |          EEST. |      [3]: "EEST" time_zone_designation 0x5aa-0x5ae.7 (5)
0x5a0|                                             45|               E|      [4]: "EET" time_zone_designation 0x5af-0x5b2.7 (4)
0x5b0|45 54 00                                       |ET.             |
0x5b0|         4d 53 44 00                           |   MSD.         |      [5]: "MSD" time_zone_designation 0x5b3-0x5b6.7 (4)
0x5b0|                     4d 53 4b 00               |       MSK.     |      [6]: "MSK" time_zone_designation 0x5b7-0x5ba.7 (4)
0x5b0|                                 2b 30 33 00   |           +03. |      [7]: "+03" time_zone_designation 0x5bb-0x5be.7 (4)
     |                                               |                |    leap_second_records[0:0]: 0x5bf-NA (0)
     |                                               |                |    standard_wall_indicators[0:15]: 0x5bf-0x5cd.7 (15)
0x5b0|                                             00|               .|      [0]: 0 standard_wall_indicator (valid) 0x5bf-0x5bf.7 (1)
0x5c0|00                                             |.               |      [1]: 0 standard_wall_indicator (valid) 0x5c0-0x5c0.7 (1)
0x5c0|   00                                          | .              |      [2]: 0 standard_wall_indicator (valid) 0x5c1-0x5c1.7 (1)
0x5c0|      01                                       |  .             |      [3]: 1 standard_wall_indicator (valid) 0x5c2-0x5c2.7 (1)
0x5c0|         01                                    |   .            |      [4]: 1 standard_wall_indicator (valid) 0x5c3-0x5c3.7 (1)
0x5c0|            00                                 |    .           |      [5]: 0 standard_wall_indicator (valid) 0x5c4-0x5c4.7 (1)
0x5c0|               00                              |     .          |      [6]: 0 standard_wall_indicator (valid) 0x5c5-0x5c5.7 (1)
0x5c0|                  00                           |      .         |      [7]: 0 standard_wall_indicator (valid) 0x5c6-0x5c6.7 (1)
0x5c0|                     00                        |       .        |      [8]: 0 standard_wall_indicator (valid) 0x5c7-0x5c7.7 (1)
0x5c0|                        01                     |        .       |      [9]: 1 standard_wall_indicator (valid) 0x5c8-0x5c8.7 (1)
0x5c0|                           01                  |         .      |      [10]: 1 standard_wall_indicator (valid) 0x5c9-0x5c9.7 (1)
0x5c0|                              01               |          .     |      [11]: 1 standard_wall_indicator (valid) 0x5ca-0x5ca.7 (1)
0x5c0|                                 01            |           .    |      [12]: 1 standard_wall_indicator (valid) 0x5cb-0x5cb.7 (1)
0x5c0|                                    01         |            .   |      [13]: 1 standard_wall_indicator (valid) 0x5cc-0x5cc.7 (1)
0x5c0|                                       01      |             .  |      [14]: 1 standard_wall_indicator (valid) 0x5cd-0x5cd.7 (1)
     |                                               |                |    ut_local_indicators[0:0]: 0x5ce-NA (0)
     |                                               |                |  footer{}: 0x5ce-0x5d4.7 (7)
0x5c0|                                          0a   |              . |    nl1: 10 (valid) 0x5ce-0x5ce.7 (1)
0x5c0|                                             45|               E|    tz_string: "EET-2" 0x5cf-0x5d3.7 (5)
0x5d0|45 54 2d 32                                    |ET-2            |
0x5d0|            0a|                                |    .|          |    nl2: 10 (valid) 0x5d4-0x5d4.7 (1)
