$ fq -d tzif dv Kamchatka
     |00 01 02 03 04 05 06 07 08 09 0a 0b 0c 0d 0e 0f|0123456789abcdef|.{}: Kamchatka (tzif) 0x0-0x6a1.7 (1698)
     |                                               |                |  v1header{}: 0x0-0x2b.7 (44)
0x000|54 5a 69 66                                    |TZif            |    magic: 0x545a6966 (valid) 0x0-0x3.7 (4)
0x000|            32                                 |    2           |    ver: "2" (0x32) (valid) 0x4-0x4.7 (1)
0x000|               00 00 00 00 00 00 00 00 00 00 00|     ...........|    reserved: raw bits 0x5-0x13.7 (15)
0x010|00 00 00 00                                    |....            |
0x010|            00 00 00 00                        |    ....        |    isutcnt: 0 0x14-0x17.7 (4)
0x010|                        00 00 00 09            |        ....    |    isstdcnt: 9 0x18-0x1b.7 (4)
0x010|                                    00 00 00 1b|            ....|    leapcnt: 27 0x1c-0x1f.7 (4)
0x020|00 00 00 41                                    |...A            |    timecnt: 65 0x20-0x23.7 (4)
0x020|            00 00 00 09                        |    ....        |    typecnt: 9 0x24-0x27.7 (4)
0x020|                        00 00 00 10            |        ....    |    charcnt: 16 0x28-0x2b.7 (4)
     |                                               |                |  v1datablock{}: 0x2c-0x297.7 (620)
     |                                               |                |    transition_times[0:65]: 0x2c-0x12f.7 (260)
0x020|                                    a7 52 96 c4|            .R..|      [0]: "1922-11-09T13:25:24Z" (-1487759676) transition_time 0x2c-0x2f.7 (4)
0x030|b5 a3 9a d0                                    |....            |      [1]: "1930-06-20T13:00:00Z" (-1247569200) transition_time 0x30-0x33.7 (4)
0x030|            15 27 29 49                        |    .')I        |      [2]: "1981-03-31T12:00:09Z" (354888009) transition_time 0x34-0x37.7 (4)
0x030|                        16 18 5d ba            |        ..].    |      [3]: "1981-09-30T11:00:10Z" (370695610) transition_time 0x38-0x3b.7 (4)
0x030|                                    17 08 5c ca|            ..\.|      [4]: "1982-03-31T12:00:10Z" (386424010) transition_time 0x3c-0x3f.7 (4)
0x040|17 f9 91 3b                                    |...;            |      [5]: "1982-09-30T11:00:11Z" (402231611) transition_time 0x40-0x43.7 (4)
0x040|            18 e9 90 4b                        |    ...K        |      [6]: "1983-03-31T12:00:11Z" (417960011) transition_time 0x44-0x47.7 (4)
0x040|                        19 da c4 bc            |        ....    |      [7]: "1983-09-30T11:00:12Z" (433767612) transition_time 0x48-0x4b.7 (4)
0x040|                                    1a cc 15 4c|            ...L|      [8]: "1984-03-31T12:00:12Z" (449582412) transition_time 0x4c-0x4f.7 (4)
0x050|1b bc 22 6c                                    |.."l            |      [9]: "1984-09-29T14:00:12Z" (465314412) transition_time 0x50-0x53.7 (4)
0x050|            1c ac 13 6c                        |    ...l        |      [10]: "1985-03-30T14:00:12Z" (481039212) transition_time 0x54-0x57.7 (4)
0x050|                        1d 9c 04 6d            |        ...m    |      [11]: "1985-09-28T14:00:13Z" (496764013) transition_time 0x58-0x5b.7 (4)
0x050|                                    1e 8b f5 6d|            ...m|      [12]: "1986-03-29T14:00:13Z" (512488813) transition_time 0x5c-0x5f.7 (4)
0x060|1f 7b e6 6d                                    |.{.m            |      [13]: "1986-09-27T14:00:13Z" (528213613) transition_time 0x60-0x63.7 (4)
0x060|            20 6b d7 6d                        |     k.m        |      [14]: "1987-03-28T14:00:13Z" (543938413) transition_time 0x64-0x67.7 (4)
0x060|                        21 5b c8 6d            |        ![.m    |      [15]: "1987-09-26T14:00:13Z" (559663213) transition_time 0x68-0x6b.7 (4)
0x060|                                    22 4b b9 6e|            "K.n|      [16]: "1988-03-26T14:00:14Z" (575388014) transition_time 0x6c-0x6f.7 (4)
0x070|23 3b aa 6e                                    |#;.n            |      [17]: "1988-09-24T14:00:14Z" (591112814) transition_time 0x70-0x73.7 (4)
0x070|            24 2b 9b 6e                        |    $+.n        |      [18]: "1989-03-25T14:00:14Z" (606837614) transition_time 0x74-0x77.7 (4)
0x070|                        25 1b 8c 6e            |        %..n    |      [19]: "1989-09-23T14:00:14Z" (622562414) transition_time 0x78-0x7b.7 (4)
0x070|                                    26 0b 7d 6f|            &.}o|      [20]: "1990-03-24T14:00:15Z" (638287215) transition_time 0x7c-0x7f.7 (4)
0x080|27 04 a8 ef                                    |'...            |      [21]: "1990-09-29T14:00:15Z" (654616815) transition_time 0x80-0x83.7 (4)
0x080|            27 f4 99 f0                        |    '...        |      [22]: "1991-03-30T14:00:16Z" (670341616) transition_time 0x84-0x87.7 (4)
0x080|                        28 e4 99 00            |        (...    |      [23]: "1991-09-28T15:00:16Z" (686070016) transition_time 0x88-0x8b.7 (4)
0x080|                                    29 78 41 00|            )xA.|      [24]: "1992-01-18T15:00:16Z" (695746816) transition_time 0x8c-0x8f.7 (4)
0x090|29 d4 7b f0                                    |).{.            |      [25]: "1992-03-28T14:00:16Z" (701791216) transition_time 0x90-0x93.7 (4)
0x090|            2a c4 6c f1                        |    *.l.        |      [26]: "1992-09-26T14:00:17Z" (717516017) transition_time 0x94-0x97.7 (4)
0x090|                        2b b4 5d f1            |        +.].    |      [27]: "1993-03-27T14:00:17Z" (733240817) transition_time 0x98-0x9b.7 (4)
0x090|                                    2c a4 4e f2|            ,.N.|      [28]: "1993-09-25T14:00:18Z" (748965618) transition_time 0x9c-0x9f.7 (4)
0x0a0|2d 94 3f f2                                    |-.?.            |      [29]: "1994-03-26T14:00:18Z" (764690418) transition_time 0xa0-0xa3.7 (4)
0x0a0|            2e 84 30 f3                        |    ..0.        |      [30]: "1994-09-24T14:00:19Z" (780415219) transition_time 0xa4-0xa7.7 (4)
0x0a0|                        2f 74 21 f3            |        /t!.    |      [31]: "1995-03-25T14:00:19Z" (796140019) transition_time 0xa8-0xab.7 (4)
0x0a0|                                    30 64 12 f3|            0d..|      [32]: "1995-09-23T14:00:19Z" (811864819) transition_time 0xac-0xaf.7 (4)
0x0b0|31 5d 3e 74                                    |1]>t            |      [33]: "1996-03-30T14:00:20Z" (828194420) transition_time 0xb0-0xb3.7 (4)
0x0b0|            32 72 19 74                        |    2r.t        |      [34]: "1996-10-26T14:00:20Z" (846338420) transition_time 0xb4-0xb7.7 (4)
0x0b0|                        33 3d 20 74            |        3= t    |      [35]: "1997-03-29T14:00:20Z" (859644020) transition_time 0xb8-0xbb.7 (4)
0x0b0|                                    34 51 fb 75|            4Q.u|      [36]: "1997-10-25T14:00:21Z" (877788021) transition_time 0xbc-0xbf.7 (4)
0x0c0|35 1d 02 75                                    |5..u            |      [37]: "1998-03-28T14:00:21Z" (891093621) transition_time 0xc0-0xc3.7 (4)
0x0c0|            36 31 dd 75                        |    61.u        |      [38]: "1998-10-24T14:00:21Z" (909237621) transition_time 0xc4-0xc7.7 (4)
0x0c0|                        36 fc e4 76            |        6..v    |      [39]: "1999-03-27T14:00:22Z" (922543222) transition_time 0xc8-0xcb.7 (4)
0x0c0|                                    38 1a f9 f6|            8...|      [40]: "1999-10-30T14:00:22Z" (941292022) transition_time 0xcc-0xcf.7 (4)
0x0d0|38 dc c6 76                                    |8..v            |      [41]: "2000-03-25T14:00:22Z" (953992822) transition_time 0xd0-0xd3.7 (4)
0x0d0|            39 fa db f6                        |    9...        |      [42]: "2000-10-28T14:00:22Z" (972741622) transition_time 0xd4-0xd7.7 (4)
0x0d0|                        3a bc a8 76            |        :..v    |      [43]: "2001-03-24T14:00:22Z" (985442422) transition_time 0xd8-0xdb.7 (4)
0x0d0|                                    3b da bd f6|            ;...|      [44]: "2001-10-27T14:00:22Z" (1004191222) transition_time 0xdc-0xdf.7 (4)
0x0e0|3c a5 c4 f6                                    |<...            |      [45]: "2002-03-30T14:00:22Z" (1017496822) transition_time 0xe0-0xe3.7 (4)
0x0e0|            3d ba 9f f6                        |    =...        |      [46]: "2002-10-26T14:00:22Z" (1035640822) transition_time 0xe4-0xe7.7 (4)
0x0e0|                        3e 85 a6 f6            |        >...    |      [47]: "2003-03-29T14:00:22Z" (1048946422) transition_time 0xe8-0xeb.7 (4)
0x0e0|                                    3f 9a 81 f6|            ?...|      [48]: "2003-10-25T14:00:22Z" (1067090422) transition_time 0xec-0xef.7 (4)
0x0f0|40 65 88 f6                                    |@e..            |      [49]: "2004-03-27T14:00:22Z" (1080396022) transition_time 0xf0-0xf3.7 (4)
0x0f0|            41 83 9e 76                        |    A..v        |      [50]: "2004-10-30T14:00:22Z" (1099144822) transition_time 0xf4-0xf7.7 (4)
0x0f0|                        42 45 6a f6            |        BEj.    |      [51]: "2005-03-26T14:00:22Z" (1111845622) transition_time 0xf8-0xfb.7 (4)
0x0f0|                                    43 63 80 76|            Cc.v|      [52]: "2005-10-29T14:00:22Z" (1130594422) transition_time 0xfc-0xff.7 (4)
0x100|44 25 4c f7                                    |D%L.            |      [53]: "2006-03-25T14:00:23Z" (1143295223) transition_time 0x100-0x103.7 (4)
0x100|            45 43 62 77                        |    ECbw        |      [54]: "2006-10-28T14:00:23Z" (1162044023) transition_time 0x104-0x107.7 (4)
0x100|                        46 05 2e f7            |        F...    |      [55]: "2007-03-24T14:00:23Z" (1174744823) transition_time 0x108-0x10b.7 (4)
0x100|                                    47 23 44 77|            G#Dw|      [56]: "2007-10-27T14:00:23Z" (1193493623) transition_time 0x10c-0x10f.7 (4)
0x110|47 ee 4b 77                                    |G.Kw            |      [57]: "2008-03-29T14:00:23Z" (1206799223) transition_time 0x110-0x113.7 (4)
0x110|            49 03 26 77                        |    I.&w        |      [58]: "2008-10-25T14:00:23Z" (1224943223) transition_time 0x114-0x117.7 (4)
0x110|                        49 ce 2d 78            |        I.-x    |      [59]: "2009-03-28T14:00:24Z" (1238248824) transition_time 0x118-0x11b.7 (4)
0x110|                                    4a e3 08 78|            J..x|      [60]: "2009-10-24T14:00:24Z" (1256392824) transition_time 0x11c-0x11f.7 (4)
0x120|4b ae 0f 78                                    |K..x            |      [61]: "2010-03-27T14:00:24Z" (1269698424) transition_time 0x120-0x123.7 (4)
0x120|            4c cc 33 08                        |    L.3.        |      [62]: "2010-10-30T15:00:24Z" (1288450824) transition_time 0x124-0x127.7 (4)
0x120|                        4d 8d ff 88            |        M...    |      [63]: "2011-03-26T15:00:24Z" (1301151624) transition_time 0x128-0x12b.7 (4)
0x120|                                    64 9b 78 1b|            d.x.|      [64]: "2023-06-28T00:00:27Z" (1687910427) transition_time 0x12c-0x12f.7 (4)
     |                                               |                |    transition_types[0:65]: 0x130-0x170.7 (65)
0x130|01                                             |.               |      [0]: 1 transition_type 0x130-0x130.7 (1)
0x130|   03                                          | .              |      [1]: 3 transition_type 0x131-0x131.7 (1)
0x130|      02                                       |  .             |      [2]: 2 transition_type 0x132-0x132.7 (1)
0x130|         03                                    |   .            |      [3]: 3 transition_type 0x133-0x133.7 (1)
0x130|            02                                 |    .           |      [4]: 2 transition_type 0x134-0x134.7 (1)
0x130|               03                              |     .          |      [5]: 3 transition_type 0x135-0x135.7 (1)
0x130|                  02                           |      .         |      [6]: 2 transition_type 0x136-0x136.7 (1)
0x130|                     03                        |       .        |      [7]: 3 transition_type 0x137-0x137.7 (1)
0x130|                        02                     |        .       |      [8]: 2 transition_type 0x138-0x138.7 (1)
0x130|                           04                  |         .      |      [9]: 4 transition_type 0x139-0x139.7 (1)
0x130|                              05               |          .     |      [10]: 5 transition_type 0x13a-0x13a.7 (1)
0x130|                                 04            |           .    |      [11]: 4 transition_type 0x13b-0x13b.7 (1)
0x130|                                    05         |            .   |      [12]: 5 transition_type 0x13c-0x13c.7 (1)
0x130|                                       04      |             .  |      [13]: 4 transition_type 0x13d-0x13d.7 (1)
0x130|                                          05   |              . |      [14]: 5 transition_type 0x13e-0x13e.7 (1)
0x130|                                             04|               .|      [15]: 4 transition_type 0x13f-0x13f.7 (1)
0x140|05                                             |.               |      [16]: 5 transition_type 0x140-0x140.7 (1)
0x140|   04                                          | .              |      [17]: 4 transition_type 0x141-0x141.7 (1)
0x140|      05                                       |  .             |      [18]: 5 transition_type 0x142-0x142.7 (1)
0x140|         04                                    |   .            |      [19]: 4 transition_type 0x143-0x143.7 (1)
0x140|            05                                 |    .           |      [20]: 5 transition_type 0x144-0x144.7 (1)
0x140|               04                              |     .          |      [21]: 4 transition_type 0x145-0x145.7 (1)
0x140|                  06                           |      .         |      [22]: 6 transition_type 0x146-0x146.7 (1)
0x140|                     07                        |       .        |      [23]: 7 transition_type 0x147-0x147.7 (1)
0x140|                        04                     |        .       |      [24]: 4 transition_type 0x148-0x148.7 (1)
0x140|                           05                  |         .      |      [25]: 5 transition_type 0x149-0x149.7 (1)
0x140|                              04               |          .     |      [26]: 4 transition_type 0x14a-0x14a.7 (1)
0x140|                                 05            |           .    |      [27]: 5 transition_type 0x14b-0x14b.7 (1)
0x140|                                    04         |            .   |      [28]: 4 transition_type 0x14c-0x14c.7 (1)
0x140|                                       05      |             .  |      [29]: 5 transition_type 0x14d-0x14d.7 (1)
0x140|                                          04   |              . |      [30]: 4 transition_type 0x14e-0x14e.7 (1)
0x140|                                             05|               .|      [31]: 5 transition_type 0x14f-0x14f.7 (1)
0x150|04                                             |.               |      [32]: 4 transition_type 0x150-0x150.7 (1)
0x150|   05                                          | .              |      [33]: 5 transition_type 0x151-0x151.7 (1)
0x150|      04                                       |  .             |      [34]: 4 transition_type 0x152-0x152.7 (1)
0x150|         05                                    |   .            |      [35]: 5 transition_type 0x153-0x153.7 (1)
0x150|            04                                 |    .           |      [36]: 4 transition_type 0x154-0x154.7 (1)
0x150|               05                              |     .          |      [37]: 5 transition_type 0x155-0x155.7 (1)
0x150|                  04                           |      .         |      [38]: 4 transition_type 0x156-0x156.7 (1)
0x150|                     05                        |       .        |      [39]: 5 transition_type 0x157-0x157.7 (1)
0x150|                        04                     |        .       |      [40]: 4 transition_type 0x158-0x158.7 (1)
0x150|                           05                  |         .      |      [41]: 5 transition_type 0x159-0x159.7 (1)
0x150|                              04               |          .     |      [42]: 4 transition_type 0x15a-0x15a.7 (1)
0x150|                                 05            |           .    |      [43]: 5 transition_type 0x15b-0x15b.7 (1)
0x150|                                    04         |            .   |      [44]: 4 transition_type 0x15c-0x15c.7 (1)
0x150|                                       05      |             .  |      [45]: 5 transition_type 0x15d-0x15d.7 (1)
0x150|                                          04   |              . |      [46]: 4 transition_type 0x15e-0x15e.7 (1)
0x150|                                             05|               .|      [47]: 5 transition_type 0x15f-0x15f.7 (1)
0x160|04                                             |.               |      [48]: 4 transition_type 0x160-0x160.7 (1)
0x160|   05                                          | .              |      [49]: 5 transition_type 0x161-0x161.7 (1)
0x160|      04                                       |  .             |      [50]: 4 transition_type 0x162-0x162.7 (1)
0x160|         05                                    |   .            |      [51]: 5 transition_type 0x163-0x163.7 (1)
0x160|            04                                 |    .           |      [52]: 4 transition_type 0x164-0x164.7 (1)
0x160|               05                              |     .          |      [53]: 5 transition_type 0x165-0x165.7 (1)
0x160|                  04                           |      .         |      [54]: 4 transition_type 0x166-0x166.7 (1)
0x160|                     05                        |       .        |      [55]: 5 transition_type 0x167-0x167.7 (1)
0x160|                        04                     |        .       |      [56]: 4 transition_type 0x168-0x168.7 (1)
0x160|                           05                  |         .      |      [57]: 5 transition_type 0x169-0x169.7 (1)
0x160|                              04               |          .     |      [58]: 4 transition_type 0x16a-0x16a.7 (1)
0x160|                                 05            |           .    |      [59]: 5 transition_type 0x16b-0x16b.7 (1)
0x160|                                    04         |            .   |      [60]: 4 transition_type 0x16c-0x16c.7 (1)
0x160|                                       06      |             .  |      [61]: 6 transition_type 0x16d-0x16d.7 (1)
0x160|                                          07   |              . |      [62]: 7 transition_type 0x16e-0x16e.7 (1)
0x160|                                             04|               .|      [63]: 4 transition_type 0x16f-0x16f.7 (1)
0x170|04                                             |.               |      [64]: 4 transition_type 0x170-0x170.7 (1)
     |                                               |                |    local_time_type_records[0:9]: 0x171-0x1a6.7 (54)
     |                                               |                |      [0]{}: local_time_type 0x171-0x176.7 (6)
0x170|   00 00 94 bc                                 | ....           |        utoff: 38076 (valid) 0x171-0x174.7 (4)
0x170|               00                              |     .          |        dst: 0 (valid) 0x175-0x175.7 (1)
0x170|                  00                           |      .         |        idx: 0 (valid) 0x176-0x176.7 (1)
     |                                               |                |      [1]{}: local_time_type 0x177-0x17c.7 (6)
0x170|                     00 00 9a b0               |       ....     |        utoff: 39600 (valid) 0x177-0x17a.7 (4)
0x170|                                 00            |           .    |        dst: 0 (valid) 0x17b-0x17b.7 (1)
0x170|                                    04         |            .   |        idx: 4 (valid) 0x17c-0x17c.7 (1)
     |                                               |                |      [2]{}: local_time_type 0x17d-0x182.7 (6)
0x170|                                       00 00 b6|             ...|        utoff: 46800 (valid) 0x17d-0x180.7 (4)
0x180|d0                                             |.               |
0x180|   01                                          | .              |        dst: 1 (valid) 0x181-0x181.7 (1)
0x180|      08                                       |  .             |        idx: 8 (valid) 0x182-0x182.7 (1)
     |                                               |                |      [3]{}: local_time_type 0x183-0x188.7 (6)
0x180|         00 00 a8 c0                           |   ....         |        utoff: 43200 (valid) 0x183-0x186.7 (4)
0x180|                     00                        |       .        |        dst: 0 (valid) 0x187-0x187.7 (1)
0x180|                        0c                     |        .       |        idx: 12 (valid) 0x188-0x188.7 (1)
     |                                               |                |      [4]{}: local_time_type 0x189-0x18e.7 (6)
0x180|                           00 00 a8 c0         |         ....   |        utoff: 43200 (valid) 0x189-0x18c.7 (4)
0x180|                                       00      |             .  |        dst: 0 (valid) 0x18d-0x18d.7 (1)
0x180|                                          0c   |              . |        idx: 12 (valid) 0x18e-0x18e.7 (1)
     |                                               |                |      [5]{}: local_time_type 0x18f-0x194.7 (6)
0x180|                                             00|               .|        utoff: 46800 (valid) 0x18f-0x192.7 (4)
0x190|00 b6 d0                                       |...             |
0x190|         01                                    |   .            |        dst: 1 (valid) 0x193-0x193.7 (1)
0x190|            08                                 |    .           |        idx: 8 (valid) 0x194-0x194.7 (1)
     |                                               |                |      [6]{}: local_time_type 0x195-0x19a.7 (6)
0x190|               00 00 a8 c0                     |     ....       |        utoff: 43200 (valid) 0x195-0x198.7 (4)
0x190|                           01                  |         .      |        dst: 1 (valid) 0x199-0x199.7 (1)
0x190|                              0c               |          .     |        idx: 12 (valid) 0x19a-0x19a.7 (1)
     |                                               |                |      [7]{}: local_time_type 0x19b-0x1a0.7 (6)
0x190|                                 00 00 9a b0   |           .... |        utoff: 39600 (valid) 0x19b-0x19e.7 (4)
0x190|                                             00|               .|        dst: 0 (valid) 0x19f-0x19f.7 (1)
0x1a0|04                                             |.               |        idx: 4 (valid) 0x1a0-0x1a0.7 (1)
     |                                               |                |      [8]{}: local_time_type 0x1a1-0x1a6.7 (6)
0x1a0|   00 00 a8 c0                                 | ....           |        utoff: 43200 (valid) 0x1a1-0x1a4.7 (4)
0x1a0|               00                              |     .          |        dst: 0 (valid) 0x1a5-0x1a5.7 (1)
0x1a0|                  0c                           |      .         |        idx: 12 (valid) 0x1a6-0x1a6.7 (1)
     |                                               |                |    time_zone_designations[0:4]: 0x1a7-0x1b6.7 (16)
0x1a0|                     4c 4d 54 00               |       LMT.     |      [0]: "LMT" time_zone_designation 0x1a7-0x1aa.7 (4)
0x1a0|                                 2b 31 31 00   |           +11. |      [1]: "+11" time_zone_designation 0x1ab-0x1ae.7 (4)
0x1a0|                                             2b|               +|      [2]: "+13" time_zone_designation 0x1af-0x1b2.7 (4)
0x1b0|31 33 00                                       |13.             |
0x1b0|         2b 31 32 00                           |   +12.         |      [3]: "+12" time_zone_designation 0x1b3-0x1b6.7 (4)
     |                                               |                |    leap_second_records[0:27]: 0x1b7-0x28e.7 (216)
     |                                               |                |      [0]{}: leap_second_record 0x1b7-0x1be.7 (8)
0x1b0|                     04 b2 58 00               |       ..X.     |        occur: "1972-07-01T00:00:00Z" (78796800) 0x1b7-0x1ba.7 (4)
0x1b0|                                 00 00 00 01   |           .... |        corr: 1 0x1bb-0x1be.7 (4)
     |                                               |                |      [1]{}: leap_second_record 0x1bf-0x1c6.7 (8)
0x1b0|                                             05|               .|        occur: "1973-01-01T00:00:01Z" (94694401) 0x1bf-0x1c2.7 (4)
0x1c0|a4 ec 01                                       |...             |
0x1c0|         00 00 00 02                           |   ....         |        corr: 2 0x1c3-0x1c6.7 (4)
     |                                               |                |      [2]{}: leap_second_record 0x1c7-0x1ce.7 (8)
0x1c0|                     07 86 1f 82               |       ....     |        occur: "1974-01-01T00:00:02Z" (126230402) 0x1c7-0x1ca.7 (4)
0x1c0|                                 00 00 00 03   |           .... |        corr: 3 0x1cb-0x1ce.7 (4)
     |                                               |                |      [3]{}: leap_second_record 0x1cf-0x1d6.7 (8)
0x1c0|                                             09|               .|        occur: "1975-01-01T00:00:03Z" (157766403) 0x1cf-0x1d2.7 (4)
0x1d0|67 53 03                                       |gS.             |
0x1d0|         00 00 00 04                           |   ....         |        corr: 4 0x1d3-0x1d6.7 (4)
     |                                               |                |      [4]{}: leap_second_record 0x1d7-0x1de.7 (8)
0x1d0|                     0b 48 86 84               |       .H..     |        occur: "1976-01-01T00:00:04Z" (189302404) 0x1d7-0x1da.7 (4)
0x1d0|                                 00 00 00 05   |           .... |        corr: 5 0x1db-0x1de.7 (4)
     |                                               |                |      [5]{}: leap_second_record 0x1df-0x1e6.7 (8)
0x1d0|                                             0d|               .|        occur: "1977-01-01T00:00:05Z" (220924805) 0x1df-0x1e2.7 (4)
0x1e0|2b 0b 85                                       |+..             |
0x1e0|         00 00 00 06                           |   ....         |        corr: 6 0x1e3-0x1e6.7 (4)
     |                                               |                |      [6]{}: leap_second_record 0x1e7-0x1ee.7 (8)
0x1e0|                     0f 0c 3f 06               |       ..?.     |        occur: "1978-01-01T00:00:06Z" (252460806) 0x1e7-0x1ea.7 (4)
0x1e0|                                 00 00 00 07   |           .... |        corr: 7 0x1eb-0x1ee.7 (4)
     |                                               |                |      [7]{}: leap_second_record 0x1ef-0x1f6.7 (8)
0x1e0|                                             10|               .|        occur: "1979-01-01T00:00:07Z" (283996807) 0x1ef-0x1f2.7 (4)
0x1f0|ed 72 87                                       |.r.             |
0x1f0|         00 00 00 08                           |   ....         |        corr: 8 0x1f3-0x1f6.7 (4)
     |                                               |                |      [8]{}: leap_second_record 0x1f7-0x1fe.7 (8)
0x1f0|                     12 ce a6 08               |       ....     |        occur: "1980-01-01T00:00:08Z" (315532808) 0x1f7-0x1fa.7 (4)
0x1f0|                                 00 00 00 09   |           .... |        corr: 9 0x1fb-0x1fe.7 (4)
     |                                               |                |      [9]{}: leap_second_record 0x1ff-0x206.7 (8)
0x1f0|                                             15|               .|        occur: "1981-07-01T00:00:09Z" (362793609) 0x1ff-0x202.7 (4)
0x200|9f ca 89                                       |...             |
0x200|         00 00 00 0a                           |   ....         |        corr: 10 0x203-0x206.7 (4)
     |                                               |                |      [10]{}: leap_second_record 0x207-0x20e.7 (8)
0x200|                     17 80 fe 0a               |       ....     |        occur: "1982-07-01T00:00:10Z" (394329610) 0x207-0x20a.7 (4)
0x200|                                 00 00 00 0b   |           .... |        corr: 11 0x20b-0x20e.7 (4)
     |                                               |                |      [11]{}: leap_second_record 0x20f-0x216.7 (8)
0x200|                                             19|               .|        occur: "1983-07-01T00:00:11Z" (425865611) 0x20f-0x212.7 (4)
0x210|62 31 8b                                       |b1.             |
0x210|         00 00 00 0c                           |   ....         |        corr: 12 0x213-0x216.7 (4)
     |                                               |                |      [12]{}: leap_second_record 0x217-0x21e.7 (8)
0x210|                     1d 25 ea 0c               |       .%..     |        occur: "1985-07-01T00:00:12Z" (489024012) 0x217-0x21a.7 (4)
0x210|                                 00 00 00 0d   |           .... |        corr: 13 0x21b-0x21e.7 (4)
     |                                               |                |      [13]{}: leap_second_record 0x21f-0x226.7 (8)
0x210|                                             21|               !|        occur: "1988-01-01T00:00:13Z" (567993613) 0x21f-0x222.7 (4)
0x220|da e5 0d                                       |...             |
0x220|         00 00 00 0e                           |   ....         |        corr: 14 0x223-0x226.7 (4)
     |                                               |                |      [14]{}: leap_second_record 0x227-0x22e.7 (8)
0x220|                     25 9e 9d 8e               |       %...     |        occur: "1990-01-01T00:00:14Z" (631152014) 0x227-0x22a.7 (4)
0x220|                                 00 00 00 0f   |           .... |        corr: 15 0x22b-0x22e.7 (4)
     |                                               |                |      [15]{}: leap_second_record 0x22f-0x236.7 (8)
0x220|                                             27|               '|        occur: "1991-01-01T00:00:15Z" (662688015) 0x22f-0x232.7 (4)
0x230|7f d1 0f                                       |...             |
0x230|         00 00 00 10                           |   ....         |        corr: 16 0x233-0x236.7 (4)
     |                                               |                |      [16]{}: leap_second_record 0x237-0x23e.7 (8)
0x230|                     2a 50 f5 90               |       *P..     |        occur: "1992-07-01T00:00:16Z" (709948816) 0x237-0x23a.7 (4)
0x230|                                 00 00 00 11   |           .... |        corr: 17 0x23b-0x23e.7 (4)
     |                                               |                |      [17]{}: leap_second_record 0x23f-0x246.7 (8)
0x230|                                             2c|               ,|        occur: "1993-07-01T00:00:17Z" (741484817) 0x23f-0x242.7 (4)
0x240|32 29 11                                       |2).             |
0x240|         00 00 00 12                           |   ....         |        corr: 18 0x243-0x246.7 (4)
     |                                               |                |      [18]{}: leap_second_record 0x247-0x24e.7 (8)
0x240|                     2e 13 5c 92               |       ..\.     |        occur: "1994-07-01T00:00:18Z" (773020818) 0x247-0x24a.7 (4)
0x240|                                 00 00 00 13   |           .... |        corr: 19 0x24b-0x24e.7 (4)
     |                                               |                |      [19]{}: leap_second_record 0x24f-0x256.7 (8)
0x240|                                             30|               0|        occur: "1996-01-01T00:00:19Z" (820454419) 0x24f-0x252.7 (4)
0x250|e7 24 13                                       |.$.             |
0x250|         00 00 00 14                           |   ....         |        corr: 20 0x253-0x256.7 (4)
     |                                               |                |      [20]{}: leap_second_record 0x257-0x25e.7 (8)
0x250|                     33 b8 48 94               |       3.H.     |        occur: "1997-07-01T00:00:20Z" (867715220) 0x257-0x25a.7 (4)
0x250|                                 00 00 00 15   |           .... |        corr: 21 0x25b-0x25e.7 (4)
     |                                               |                |      [21]{}: leap_second_record 0x25f-0x266.7 (8)
0x250|                                             36|               6|        occur: "1999-01-01T00:00:21Z" (915148821) 0x25f-0x262.7 (4)
0x260|8c 10 15                                       |...             |
0x260|         00 00 00 16                           |   ....         |        corr: 22 0x263-0x266.7 (4)
     |                                               |                |      [22]{}: leap_second_record 0x267-0x26e.7 (8)
0x260|                     43 b7 1b 96               |       C...     |        occur: "2006-01-01T00:00:22Z" (1136073622) 0x267-0x26a.7 (4)
0x260|                                 00 00 00 17   |           .... |        corr: 23 0x26b-0x26e.7 (4)
     |                                               |                |      [23]{}: leap_second_record 0x26f-0x276.7 (8)
0x260|                                             49|               I|        occur: "2009-01-01T00:00:23Z" (1230768023) 0x26f-0x272.7 (4)
0x270|5c 07 97                                       |\..             |
0x270|         00 00 00 18                           |   ....         |        corr: 24 0x273-0x276.7 (4)
     |                                               |                |      [24]{}: leap_second_record 0x277-0x27e.7 (8)
0x270|                     4f ef 93 18               |       O...     |        occur: "2012-07-01T00:00:24Z" (1341100824) 0x277-0x27a.7 (4)
0x270|                                 00 00 00 19   |           .... |        corr: 25 0x27b-0x27e.7 (4)
     |                                               |                |      [25]{}: leap_second_record 0x27f-0x286.7 (8)
0x270|                                             55|               U|        occur: "2015-07-01T00:00:25Z" (1435708825) 0x27f-0x282.7 (4)
0x280|93 2d 99                                       |.-.             |
0x280|         00 00 00 1a                           |   ....         |        corr: 26 0x283-0x286.7 (4)
     |                                               |                |      [26]{}: leap_second_record 0x287-0x28e.7 (8)
0x280|                     58 68 46 9a               |       XhF.     |        occur: "2017-01-01T00:00:26Z" (1483228826) 0x287-0x28a.7 (4)
0x280|                                 00 00 00 1b   |           .... |        corr: 27 0x28b-0x28e.7 (4)
     |                                               |                |    standard_wall_indicators[0:9]: 0x28f-0x297.7 (9)
0x280|                                             00|               .|      [0]: 0 standard_wall_indicator (valid) 0x28f-0x28f.7 (1)
0x290|00                                             |.               |      [1]: 0 standard_wall_indicator (valid) 0x290-0x290.7 (1)
0x290|   00                                          | .              |      [2]: 0 standard_wall_indicator (valid) 0x291-0x291.7 (1)
0x290|      00                                       |  .             |      [3]: 0 standard_wall_indicator (valid) 0x292-0x292.7 (1)
0x290|         01                                    |   .            |      [4]: 1 standard_wall_indicator (valid) 0x293-0x293.7 (1)
0x290|            01                                 |    .           |      [5]: 1 standard_wall_indicator (valid) 0x294-0x294.7 (1)
0x290|               01                              |     .          |      [6]: 1 standard_wall_indicator (valid) 0x295-0x295.7 (1)
0x290|                  01                           |      .         |      [7]: 1 standard_wall_indicator (valid) 0x296-0x296.7 (1)
0x290|                     01                        |       .        |      [8]: 1 standard_wall_indicator (valid) 0x297-0x297.7 (1)
     |                                               |                |    ut_local_indicators[0:0]: 0x298-NA (0)
     |                                               |                |  v2plusheader{}: 0x298-0x2c3.7 (44)
0x290|                        54 5a 69 66            |        TZif    |    magic: 0x545a6966 (valid) 0x298-0x29b.7 (4)
0x290|                                    32         |            2   |    ver: "2" (0x32) (valid) 0x29c-0x29c.7 (1)
0x290|                                       00 00 00|             ...|    reserved: raw bits 0x29d-0x2ab.7 (15)
0x2a0|00 00 00 00 00 00 00 00 00 00 00 00            |............    |
0x2a0|                                    00 00 00 00|            ....|    isutcnt: 0 0x2ac-0x2af.7 (4)
0x2b0|00 00 00 09                                    |....            |    isstdcnt: 9 0x2b0-0x2b3.7 (4)
0x2b0|            00 00 00 1b                        |    ....        |    leapcnt: 27 0x2b4-0x2b7.7 (4)
0x2b0|                        00 00 00 41            |        ...A    |    timecnt: 65 0x2b8-0x2bb.7 (4)
0x2b0|                                    00 00 00 09|            ....|    typecnt: 9 0x2bc-0x2bf.7 (4)
0x2c0|00 00 00 10                                    |....            |    charcnt: 16 0x2c0-0x2c3.7 (4)
     |                                               |                |  v2plusdatablock{}: 0x2c4-0x69f.7 (988)
     |                                               |                |    transition_times[0:65]: 0x2c4-0x4cb.7 (520)
0x2c0|            ff ff ff ff a7 52 96 c4            |    .....R..    |      [0]: "1922-11-09T13:25:24Z" (-1487759676) transition_time 0x2c4-0x2cb.7 (8)
0x2c0|                                    ff ff ff ff|            ....|      [1]: "1930-06-20T13:00:00Z" (-1247569200) transition_time 0x2cc-0x2d3.7 (8)
0x2d0|b5 a3 9a d0                                    |....            |
0x2d0|            00 00 00 00 15 27 29 49            |    .....')I    |      [2]: "1981-03-31T12:00:09Z" (354888009) transition_time 0x2d4-0x2db.7 (8)
0x2d0|                                    00 00 00 00|            ....|      [3]: "1981-09-30T11:00:10Z" (370695610) transition_time 0x2dc-0x2e3.7 (8)
0x2e0|16 18 5d ba                                    |..].            |
0x2e0|            00 00 00 00 17 08 5c ca            |    ......\.    |      [4]: "1982-03-31T12:00:10Z" (386424010) transition_time 0x2e4-0x2eb.7 (8)
0x2e0|                                    00 00 00 00|            ....|      [5]: "1982-09-30T11:00:11Z" (402231611) transition_time 0x2ec-0x2f3.7 (8)
0x2f0|17 f9 91 3b                                    |...;            |
0x2f0|            00 00 00 00 18 e9 90 4b            |    .......K    |      [6]: "1983-03-31T12:00:11Z" (417960011) transition_time 0x2f4-0x2fb.7 (8)
0x2f0|                                    00 00 00 00|            ....|      [7]: "1983-09-30T11:00:12Z" (433767612) transition_time 0x2fc-0x303.7 (8)
0x300|19 da c4 bc                                    |....            |
0x300|            00 00 00 00 1a cc 15 4c            |    .......L    |      [8]: "1984-03-31T12:00:12Z" (449582412) transition_time 0x304-0x30b.7 (8)
0x300|                                    00 00 00 00|            ....|      [9]: "1984-09-29T14:00:12Z" (465314412) transition_time 0x30c-0x313.7 (8)
0x310|1b bc 22 6c                                    |.."l            |
0x310|            00 00 00 00 1c ac 13 6c            |    .......l    |      [10]: "1985-03-30T14:00:12Z" (481039212) transition_time 0x314-0x31b.7 (8)
0x310|                                    00 00 00 00|            ....|      [11]: "1985-09-28T14:00:13Z" (496764013) transition_time 0x31c-0x323.7 (8)
0x320|1d 9c 04 6d                                    |...m            |
0x320|            00 00 00 00 1e 8b f5 6d            |    .......m    |      [12]: "1986-03-29T14:00:13Z" (512488813) transition_time 0x324-0x32b.7 (8)
0x320|                                    00 00 00 00|            ....|      [13]: "1986-09-27T14:00:13Z" (528213613) transition_time 0x32c-0x333.7 (8)
0x330|1f 7b e6 6d                                    |.{.m            |
0x330|            00 00 00 00 20 6b d7 6d            |    .... k.m    |      [14]: "1987-03-28T14:00:13Z" (543938413) transition_time 0x334-0x33b.7 (8)
0x330|                                    00 00 00 00|            ....|      [15]: "1987-09-26T14:00:13Z" (559663213) transition_time 0x33c-0x343.7 (8)
0x340|21 5b c8 6d                                    |![.m            |
0x340|            00 00 00 00 22 4b b9 6e            |    ...."K.n    |      [16]: "1988-03-26T14:00:14Z" (575388014) transition_time 0x344-0x34b.7 (8)
0x340|                                    00 00 00 00|            ....|      [17]: "1988-09-24T14:00:14Z" (591112814) transition_time 0x34c-0x353.7 (8)
0x350|23 3b aa 6e                                    |#;.n            |
0x350|            00 00 00 00 24 2b 9b 6e            |    ....$+.n    |      [18]: "1989-03-25T14:00:14Z" (606837614) transition_time 0x354-0x35b.7 (8)
0x350|                                    00 00 00 00|            ....|      [19]: "1989-09-23T14:00:14Z" (622562414) transition_time 0x35c-0x363.7 (8)
0x360|25 1b 8c 6e                                    |%..n            |
0x360|            00 00 00 00 26 0b 7d 6f            |    ....&.}o    |      [20]: "1990-03-24T14:00:15Z" (638287215) transition_time 0x364-0x36b.7 (8)
0x360|                                    00 00 00 00|            ....|      [21]: "1990-09-29T14:00:15Z" (654616815) transition_time 0x36c-0x373.7 (8)
0x370|27 04 a8 ef                                    |'...            |
0x370|            00 00 00 00 27 f4 99 f0            |    ....'...    |      [22]: "1991-03-30T14:00:16Z" (670341616) transition_time 0x374-0x37b.7 (8)
0x370|                                    00 00 00 00|            ....|      [23]: "1991-09-28T15:00:16Z" (686070016) transition_time 0x37c-0x383.7 (8)
0x380|28 e4 99 00                                    |(...            |
0x380|            00 00 00 00 29 78 41 00            |    ....)xA.    |      [24]: "1992-01-18T15:00:16Z" (695746816) transition_time 0x384-0x38b.7 (8)
0x380|                                    00 00 00 00|            ....|      [25]: "1992-03-28T14:00:16Z" (701791216) transition_time 0x38c-0x393.7 (8)
0x390|29 d4 7b f0                                    |).{.            |
0x390|            00 00 00 00 2a c4 6c f1            |    ....*.l.    |      [26]: "1992-09-26T14:00:17Z" (717516017) transition_time 0x394-0x39b.7 (8)
0x390|                                    00 00 00 00|            ....|      [27]: "1993-03-27T14:00:17Z" (733240817) transition_time 0x39c-0x3a3.7 (8)
0x3a0|2b b4 5d f1                                    |+.].            |
0x3a0|            00 00 00 00 2c a4 4e f2            |    ....,.N.    |      [28]: "1993-09-25T14:00:18Z" (748965618) transition_time 0x3a4-0x3ab.7 (8)
0x3a0|                                    00 00 00 00|            ....|      [29]: "1994-03-26T14:00:18Z" (764690418) transition_time 0x3ac-0x3b3.7 (8)
0x3b0|2d 94 3f f2                                    |-.?.            |
0x3b0|            00 00 00 00 2e 84 30 f3            |    ......0.    |      [30]: "1994-09-24T14:00:19Z" (780415219) transition_time 0x3b4-0x3bb.7 (8)
0x3b0|                                    00 00 00 00|            ....|      [31]: "1995-03-25T14:00:19Z" (796140019) transition_time 0x3bc-0x3c3.7 (8)
0x3c0|2f 74 21 f3                                    |/t!.            |
0x3c0|            00 00 00 00 30 64 12 f3            |    ....0d..    |      [32]: "1995-09-23T14:00:19Z" (811864819) transition_time 0x3c4-0x3cb.7 (8)
0x3c0|                                    00 00 00 00|            ....|      [33]: "1996-03-30T14:00:20Z" (828194420) transition_time 0x3cc-0x3d3.7 (8)
0x3d0|31 5d 3e 74                                    |1]>t            |
0x3d0|            00 00 00 00 32 72 19 74            |    ....2r.t    |      [34]: "1996-10-26T14:00:20Z" (846338420) transition_time 0x3d4-0x3db.7 (8)
0x3d0|                                    00 00 00 00|            ....|      [35]: "1997-03-29T14:00:20Z" (859644020) transition_time 0x3dc-0x3e3.7 (8)
0x3e0|33 3d 20 74                                    |3= t            |
0x3e0|            00 00 00 00 34 51 fb 75            |    ....4Q.u    |      [36]: "1997-10-25T14:00:21Z" (877788021) transition_time 0x3e4-0x3eb.7 (8)
0x3e0|                                    00 00 00 00|            ....|      [37]: "1998-03-28T14:00:21Z" (891093621) transition_time 0x3ec-0x3f3.7 (8)
0x3f0|35 1d 02 75                                    |5..u            |
0x3f0|            00 00 00 00 36 31 dd 75            |    ....61.u    |      [38]: "1998-10-24T14:00:21Z" (909237621) transition_time 0x3f4-0x3fb.7 (8)
0x3f0|                                    00 00 00 00|            ....|      [39]: "1999-03-27T14:00:22Z" (922543222) transition_time 0x3fc-0x403.7 (8)
0x400|36 fc e4 76                                    |6..v            |
0x400|            00 00 00 00 38 1a f9 f6            |    ....8...    |      [40]: "1999-10-30T14:00:22Z" (941292022) transition_time 0x404-0x40b.7 (8)
0x400|                                    00 00 00 00|            ....|      [41]: "2000-03-25T14:00:22Z" (953992822) transition_time 0x40c-0x413.7 (8)
0x410|38 dc c6 76                                    |8..v            |
0x410|            00 00 00 00 39 fa db f6            |    ....9...    |      [42]: "2000-10-28T14:00:22Z" (972741622) transition_time 0x414-0x41b.7 (8)
0x410|                                    00 00 00 00|            ....|      [43]: "2001-03-24T14:00:22Z" (985442422) transition_time 0x41c-0x423.7 (8)
0x420|3a bc a8 76                                    |:..v            |
0x420|            00 00 00 00 3b da bd f6            |    ....;...    |      [44]: "2001-10-27T14:00:22Z" (1004191222) transition_time 0x424-0x42b.7 (8)
0x420|                                    00 00 00 00|            ....|      [45]: "2002-03-30T14:00:22Z" (1017496822) transition_time 0x42c-0x433.7 (8)
0x430|3c a5 c4 f6                                    |<...            |
0x430|            00 00 00 00 3d ba 9f f6            |    ....=...    |      [46]: "2002-10-26T14:00:22Z" (1035640822) transition_time 0x434-0x43b.7 (8)
0x430|                                    00 00 00 00|            ....|      [47]: "2003-03-29T14:00:22Z" (1048946422) transition_time 0x43c-0x443.7 (8)
0x440|3e 85 a6 f6                                    |>...            |
0x440|            00 00 00 00 3f 9a 81 f6            |    ....?...    |      [48]: "2003-10-25T14:00:22Z" (1067090422) transition_time 0x444-0x44b.7 (8)
0x440|                                    00 00 00 00|            ....|      [49]: "2004-03-27T14:00:22Z" (1080396022) transition_time 0x44c-0x453.7 (8)
0x450|40 65 88 f6                                    |@e..            |
0x450|            00 00 00 00 41 83 9e 76            |    ....A..v    |      [50]: "2004-10-30T14:00:22Z" (1099144822) transition_time 0x454-0x45b.7 (8)
0x450|                                    00 00 00 00|            ....|      [51]: "2005-03-26T14:00:22Z" (1111845622) transition_time 0x45c-0x463.7 (8)
0x460|42 45 6a f6                                    |BEj.            |
0x460|            00 00 00 00 43 63 80 76            |    ....Cc.v    |      [52]: "2005-10-29T14:00:22Z" (1130594422) transition_time 0x464-0x46b.7 (8)
0x460|                                    00 00 00 00|            ....|      [53]: "2006-03-25T14:00:23Z" (1143295223) transition_time 0x46c-0x473.7 (8)
0x470|44 25 4c f7                                    |D%L.            |
0x470|            00 00 00 00 45 43 62 77            |    ....ECbw    |      [54]: "2006-10-28T14:00:23Z" (1162044023) transition_time 0x474-0x47b.7 (8)
0x470|                                    00 00 00 00|            ....|      [55]: "2007-03-24T14:00:23Z" (1174744823) transition_time 0x47c-0x483.7 (8)
0x480|46 05 2e f7                                    |F...            |
0x480|            00 00 00 00 47 23 44 77            |    ....G#Dw    |      [56]: "2007-10-27T14:00:23Z" (1193493623) transition_time 0x484-0x48b.7 (8)
0x480|                                    00 00 00 00|            ....|      [57]: "2008-03-29T14:00:23Z" (1206799223) transition_time 0x48c-0x493.7 (8)
0x490|47 ee 4b 77                                    |G.Kw            |
0x490|            00 00 00 00 49 03 26 77            |    ....I.&w    |      [58]: "2008-10-25T14:00:23Z" (1224943223) transition_time 0x494-0x49b.7 (8)
0x490|                                    00 00 00 00|            ....|      [59]: "2009-03-28T14:00:24Z" (1238248824) transition_time 0x49c-0x4a3.7 (8)
0x4a0|49 ce 2d 78                                    |I.-x            |
0x4a0|            00 00 00 00 4a e3 08 78            |    ....J..x    |      [60]: "2009-10-24T14:00:24Z" (1256392824) transition_time 0x4a4-0x4ab.7 (8)
0x4a0|                                    00 00 00 00|            ....|      [61]: "2010-03-27T14:00:24Z" (1269698424) transition_time 0x4ac-0x4b3.7 (8)
0x4b0|4b ae 0f 78                                    |K..x            |
0x4b0|            00 00 00 00 4c cc 33 08            |    ....L.3.    |      [62]: "2010-10-30T15:00:24Z" (1288450824) transition_time 0x4b4-0x4bb.7 (8)
0x4b0|                                    00 00 00 00|            ....|      [63]: "2011-03-26T15:00:24Z" (1301151624) transition_time 0x4bc-0x4c3.7 (8)
0x4c0|4d 8d ff 88                                    |M...            |
0x4c0|            00 00 00 00 64 9b 78 1b            |    ....d.x.    |      [64]: "2023-06-28T00:00:27Z" (1687910427) transition_time 0x4c4-0x4cb.7 (8)
     |                                               |                |    transition_types[0:65]: 0x4cc-0x50c.7 (65)
0x4c0|                                    01         |            .   |      [0]: 1 transition_type 0x4cc-0x4cc.7 (1)
0x4c0|                                       03      |             .  |      [1]: 3 transition_type 0x4cd-0x4cd.7 (1)
0x4c0|                                          02   |              . |      [2]: 2 transition_type 0x4ce-0x4ce.7 (1)
0x4c0|                                             03|               .|      [3]: 3 transition_type 0x4cf-0x4cf.7 (1)
0x4d0|02                                             |.               |      [4]: 2 transition_type 0x4d0-0x4d0.7 (1)
0x4d0|   03                                          | .              |      [5]: 3 transition_type 0x4d1-0x4d1.7 (1)
0x4d0|      02                                       |  .             |      [6]: 2 transition_type 0x4d2-0x4d2.7 (1)
0x4d0|         03                                    |   .            |      [7]: 3 transition_type 0x4d3-0x4d3.7 (1)
0x4d0|            02                                 |    .           |      [8]: 2 transition_type 0x4d4-0x4d4.7 (1)
0x4d0|               04                              |     .          |      [9]: 4 transition_type 0x4d5-0x4d5.7 (1)
0x4d0|                  05                           |      .         |      [10]: 5 transition_type 0x4d6-0x4d6.7 (1)
0x4d0|                     04                        |       .        |      [11]: 4 transition_type 0x4d7-0x4d7.7 (1)
0x4d0|                        05                     |        .       |      [12]: 5 transition_type 0x4d8-0x4d8.7 (1)
0x4d0|                           04                  |         .      |      [13]: 4 transition_type 0x4d9-0x4d9.7 (1)
0x4d0|                              05               |          .     |      [14]: 5 transition_type 0x4da-0x4da.7 (1)
0x4d0|                                 04            |           .    |      [15]: 4 transition_type 0x4db-0x4db.7 (1)
0x4d0|                                    05         |            .   |      [16]: 5 transition_type 0x4dc-0x4dc.7 (1)
0x4d0|                                       04      |             .  |      [17]: 4 transition_type 0x4dd-0x4dd.7 (1)
0x4d0|                                          05   |              . |      [18]: 5 transition_type 0x4de-0x4de.7 (1)
0x4d0|                                             04|               .|      [19]: 4 transition_type 0x4df-0x4df.7 (1)
0x4e0|05                                             |.               |      [20]: 5 transition_type 0x4e0-0x4e0.7 (1)
0x4e0|   04                                          | .              |      [21]: 4 transition_type 0x4e1-0x4e1.7 (1)
0x4e0|      06                                       |  .             |      [22]: 6 transition_type 0x4e2-0x4e2.7 (1)
0x4e0|         07                                    |   .            |      [23]: 7 transition_type 0x4e3-0x4e3.7 (1)
0x4e0|            04                                 |    .           |      [24]: 4 transition_type 0x4e4-0x4e4.7 (1)
0x4e0|               05                              |     .          |      [25]: 5 transition_type 0x4e5-0x4e5.7 (1)
0x4e0|                  04                           |      .         |      [26]: 4 transition_type 0x4e6-0x4e6.7 (1)
0x4e0|                     05                        |       .        |      [27]: 5 transition_type 0x4e7-0x4e7.7 (1)
0x4e0|                        04                     |        .       |      [28]: 4 transition_type 0x4e8-0x4e8.7 (1)
0x4e0|                           05                  |         .      |      [29]: 5 transition_type 0x4e9-0x4e9.7 (1)
0x4e0|                              04               |          .     |      [30]: 4 transition_type 0x4ea-0x4ea.7 (1)
0x4e0|                                 05            |           .    |      [31]: 5 transition_type 0x4eb-0x4eb.7 (1)
0x4e0|                                    04         |            .   |      [32]: 4 transition_type 0x4ec-0x4ec.7 (1)
0x4e0|                                       05      |             .  |      [33]: 5 transition_type 0x4ed-0x4ed.7 (1)
0x4e0|                                          04   |              . |      [34]: 4 transition_type 0x4ee-0x4ee.7 (1)
0x4e0|                                             05|               .|      [35]: 5 transition_type 0x4ef-0x4ef.7 (1)
0x4f0|04                                             |.               |      [36]: 4 transition_type 0x4f0-0x4f0.7 (1)
0x4f0|   05                                          | .              |      [37]: 5 transition_type 0x4f1-0x4f1.7 (1)
0x4f0|      04                                       |  .             |      [38]: 4 transition_type 0x4f2-0x4f2.7 (1)
0x4f0|         05                                    |   .            |      [39]: 5 transition_type 0x4f3-0x4f3.7 (1)
0x4f0|            04                                 |    .           |      [40]: 4 transition_type 0x4f4-0x4f4.7 (1)
0x4f0|               05                              |     .          |      [41]: 5 transition_type 0x4f5-0x4f5.7 (1)
0x4f0|                  04                           |      .         |      [42]: 4 transition_type 0x4f6-0x4f6.7 (1)
0x4f0|                     05                        |       .        |      [43]: 5 transition_type 0x4f7-0x4f7.7 (1)
0x4f0|                        04                     |        .       |      [44]: 4 transition_type 0x4f8-0x4f8.7 (1)
0x4f0|                           05                  |         .      |      [45]: 5 transition_type 0x4f9-0x4f9.7 (1)
0x4f0|                              04               |          .     |      [46]: 4 transition_type 0x4fa-0x4fa.7 (1)
0x4f0|                                 05            |           .    |      [47]: 5 transition_type 0x4fb-0x4fb.7 (1)
0x4f0|                                    04         |            .   |      [48]: 4 transition_type 0x4fc-0x4fc.7 (1)
0x4f0|                                       05      |             .  |      [49]: 5 transition_type 0x4fd-0x4fd.7 (1)
0x4f0|                                          04   |              . |      [50]: 4 transition_type 0x4fe-0x4fe.7 (1)
0x4f0|                                             05|               .|      [51]: 5 transition_type 0x4ff-0x4ff.7 (1)
0x500|04                                             |.               |      [52]: 4 transition_type 0x500-0x500.7 (1)
0x500|   05                                          | .              |      [53]: 5 transition_type 0x501-0x501.7 (1)
0x500|      04                                       |  .             |      [54]: 4 transition_type 0x502-0x502.7 (1)
0x500|         05                                    |   .            |      [55]: 5 transition_type 0x503-0x503.7 (1)
0x500|            04                                 |    .           |      [56]: 4 transition_type 0x504-0x504.7 (1)
0x500|               05                              |     .          |      [57]: 5 transition_type 0x505-0x505.7 (1)
0x500|                  04                           |      .         |      [58]: 4 transition_type 0x506-0x506.7 (1)
0x500|                     05                        |       .        |      [59]: 5 transition_type 0x507-0x507.7 (1)
0x500|                        04                     |        .       |      [60]: 4 transition_type 0x508-0x508.7 (1)
0x500|                           06                  |         .      |      [61]: 6 transition_type 0x509-0x509.7 (1)
0x500|                              07               |          .     |      [62]: 7 transition_type 0x50a-0x50a.7 (1)
0x500|                                 04            |           .    |      [63]: 4 transition_type 0x50b-0x50b.7 (1)
0x500|                                    04         |            .   |      [64]: 4 transition_type 0x50c-0x50c.7 (1)
     |                                               |                |    local_time_type_records[0:9]: 0x50d-0x542.7 (54)
     |                                               |                |      [0]{}: local_time_type 0x50d-0x512.7 (6)
0x500|                                       00 00 94|             ...|        utoff: 38076 (valid) 0x50d-0x510.7 (4)
0x510|bc                                             |.               |
0x510|   00                                          | .              |        dst: 0 (valid) 0x511-0x511.7 (1)
0x510|      00                                       |  .             |        idx: 0 (valid) 0x512-0x512.7 (1)
     |                                               |                |      [1]{}: local_time_type 0x513-0x518.7 (6)
0x510|         00 00 9a b0                           |   ....         |        utoff: 39600 (valid) 0x513-0x516.7 (4)
0x510|                     00                        |       .        |        dst: 0 (valid) 0x517-0x517.7 (1)
0x510|                        04                     |        .       |        idx: 4 (valid) 0x518-0x518.7 (1)
     |                                               |                |      [2]{}: local_time_type 0x519-0x51e.7 (6)
0x510|                           00 00 b6 d0         |         ....   |        utoff: 46800 (valid) 0x519-0x51c.7 (4)
0x510|                                       01      |             .  |        dst: 1 (valid) 0x51d-0x51d.7 (1)
0x510|                                          08   |              . |        idx: 8 (valid) 0x51e-0x51e.7 (1)
     |                                               |                |      [3]{}: local_time_type 0x51f-0x524.7 (6)
0x510|                                             00|               .|        utoff: 43200 (valid) 0x51f-0x522.7 (4)
0x520|00 a8 c0                                       |...             |
0x520|         00                                    |   .            |        dst: 0 (valid) 0x523-0x523.7 (1)
0x520|            0c                                 |    .           |        idx: 12 (valid) 0x524-0x524.7 (1)
     |                                               |                |      [4]{}: local_time_type 0x525-0x52a.7 (6)
0x520|               00 00 a8 c0                     |     ....       |        utoff: 43200 (valid) 0x525-0x528.7 (4)
0x520|                           00                  |         .      |        dst: 0 (valid) 0x529-0x529.7 (1)
0x520|                              0c               |          .     |        idx: 12 (valid) 0x52a-0x52a.7 (1)
     |                                               |                |      [5]{}: local_time_type 0x52b-0x530.7 (6)
0x520|                                 00 00 b6 d0   |           .... |        utoff: 46800 (valid) 0x52b-0x52e.7 (4)
0x520|                                             01|               .|        dst: 1 (valid) 0x52f-0x52f.7 (1)
0x530|08                                             |.               |        idx: 8 (valid) 0x530-0x530.7 (1)
     |                                               |                |      [6]{}: local_time_type 0x531-0x536.7 (6)
0x530|   00 00 a8 c0                                 | ....           |        utoff: 43200 (valid) 0x531-0x534.7 (4)
0x530|               01                              |     .          |        dst: 1 (valid) 0x535-0x535.7 (1)
0x530|                  0c                           |      .         |        idx: 12 (valid) 0x536-0x536.7 (1)
     |                                               |                |      [7]{}: local_time_type 0x537-0x53c.7 (6)
0x530|                     00 00 9a b0               |       ....     |        utoff: 39600 (valid) 0x537-0x53a.7 (4)
0x530|                                 00            |           .    |        dst: 0 (valid) 0x53b-0x53b.7 (1)
0x530|                                    04         |            .   |        idx: 4 (valid) 0x53c-0x53c.7 (1)
     |                                               |                |      [8]{}: local_time_type 0x53d-0x542.7 (6)
0x530|                                       00 00 a8|             ...|        utoff: 43200 (valid) 0x53d-0x540.7 (4)
0x540|c0                                             |.               |
0x540|   00                                          | .              |        dst: 0 (valid) 0x541-0x541.7 (1)
0x540|      0c                                       |  .             |        idx: 12 (valid) 0x542-0x542.7 (1)
     |                                               |                |    time_zone_designations[0:4]: 0x543-0x552.7 (16)
0x540|         4c 4d 54 00                           |   LMT.         |      [0]: "LMT" time_zone_designation 0x543-0x546.7 (4)
0x540|                     2b 31 31 00               |       +11.     |      [1]: "+11" time_zone_designation 0x547-0x54a.7 (4)
0x540|                                 2b 31 33 00   |           +13. |      [2]: "+13" time_zone_designation 0x54b-0x54e.7 (4)
0x540|                                             2b|               +|      [3]: "+12" time_zone_designation 0x54f-0x552.7 (4)
0x550|31 32 00                                       |12.             |
     |                                               |                |    leap_second_records[0:27]: 0x553-0x696.7 (324)
     |                                               |                |      [0]{}: leap_second_record 0x553-0x55e.7 (12)
0x550|         00 00 00 00 04 b2 58 00               |   ......X.     |        occur: "1972-07-01T00:00:00Z" (78796800) 0x553-0x55a.7 (8)
0x550|                                 00 00 00 01   |           .... |        corr: 1 0x55b-0x55e.7 (4)
     |                                               |                |      [1]{}: leap_second_record 0x55f-0x56a.7 (12)
0x550|                                             00|               .|        occur: "1973-01-01T00:00:01Z" (94694401) 0x55f-0x566.7 (8)
0x560|00 00 00 05 a4 ec 01                           |.......         |
0x560|                     00 00 00 02               |       ....     |        corr: 2 0x567-0x56a.7 (4)
     |                                               |                |      [2]{}: leap_second_record 0x56b-0x576.7 (12)
0x560|                                 00 00 00 00 07|           .....|        occur: "1974-01-01T00:00:02Z" (126230402) 0x56b-0x572.7 (8)
0x570|86 1f 82                                       |...             |
0x570|         00 00 00 03                           |   ....         |        corr: 3 0x573-0x576.7 (4)
     |                                               |                |      [3]{}: leap_second_record 0x577-0x582.7 (12)
0x570|                     00 00 00 00 09 67 53 03   |       .....gS. |        occur: "1975-01-01T00:00:03Z" (157766403) 0x577-0x57e.7 (8)
0x570|                                             00|               .|        corr: 4 0x57f-0x582.7 (4)
0x580|00 00 04                                       |...             |
     |                                               |                |      [4]{}: leap_second_record 0x583-0x58e.7 (12)
0x580|         00 00 00 00 0b 48 86 84               |   .....H..     |        occur: "1976-01-01T00:00:04Z" (189302404) 0x583-0x58a.7 (8)
0x580|                                 00 00 00 05   |           .... |        corr: 5 0x58b-0x58e.7 (4)
     |                                               |                |      [5]{}: leap_second_record 0x58f-0x59a.7 (12)
0x580|                                             00|               .|        occur: "1977-01-01T00:00:05Z" (220924805) 0x58f-0x596.7 (8)
0x590|00 00 00 0d 2b 0b 85                           |....+..         |
0x590|                     00 00 00 06               |       ....     |        corr: 6 0x597-0x59a.7 (4)
     |                                               |                |      [6]{}: leap_second_record 0x59b-0x5a6.7 (12)
0x590|                                 00 00 00 00 0f|           .....|        occur: "1978-01-01T00:00:06Z" (252460806) 0x59b-0x5a2.7 (8)
0x5a0|0c 3f 06                                       |.?.             |
0x5a0|         00 00 00 07                           |   ....         |        corr: 7 0x5a3-0x5a6.7 (4)
     |                                               |                |      [7]{}: leap_second_record 0x5a7-0x5b2.7 (12)
0x5a0|                     00 00 00 00 10 ed 72 87   |       ......r. |        occur: "1979-01-01T00:00:07Z" (283996807) 0x5a7-0x5ae.7 (8)
0x5a0|                                             00|               .|        corr: 8 0x5af-0x5b2.7 (4)
0x5b0|00 00 08                                       |...             |
     |                                               |                |      [8]{}: leap_second_record 0x5b3-0x5be.7 (12)
0x5b0|         00 00 00 00 12 ce a6 08               |   ........     |        occur: "1980-01-01T00:00:08Z" (315532808) 0x5b3-0x5ba.7 (8)
0x5b0|                                 00 00 00 09   |           .... |        corr: 9 0x5bb-0x5be.7 (4)
     |                                               |                |      [9]{}: leap_second_record 0x5bf-0x5ca.7 (12)
0x5b0|                                             00|               .|        occur: "1981-07-01T00:00:09Z" (362793609) 0x5bf-0x5c6.7 (8)
0x5c0|00 00 00 15 9f ca 89                           |.......         |
0x5c0|                     00 00 00 0a               |       ....     |        corr: 10 0x5c7-0x5ca.7 (4)
     |                                               |                |      [10]{}: leap_second_record 0x5cb-0x5d6.7 (12)
0x5c0|                                 00 00 00 00 17|           .....|        occur: "1982-07-01T00:00:10Z" (394329610) 0x5cb-0x5d2.7 (8)
0x5d0|80 fe 0a                                       |...             |
0x5d0|         00 00 00 0b                           |   ....         |        corr: 11 0x5d3-0x5d6.7 (4)
     |                                               |                |      [11]{}: leap_second_record 0x5d7-0x5e2.7 (12)
0x5d0|                     00 00 00 00 19 62 31 8b   |       .....b1. |        occur: "1983-07-01T00:00:11Z" (425865611) 0x5d7-0x5de.7 (8)
0x5d0|                                             00|               .|        corr: 12 0x5df-0x5e2.7 (4)
0x5e0|00 00 0c                                       |...             |
     |                                               |                |      [12]{}: leap_second_record 0x5e3-0x5ee.7 (12)
0x5e0|         00 00 00 00 1d 25 ea 0c               |   .....%..     |        occur: "1985-07-01T00:00:12Z" (489024012) 0x5e3-0x5ea.7 (8)
0x5e0|                                 00 00 00 0d   |           .... |        corr: 13 0x5eb-0x5ee.7 (4)
     |                                               |                |      [13]{}: leap_second_record 0x5ef-0x5fa.7 (12)
0x5e0|                                             00|               .|        occur: "1988-01-01T00:00:13Z" (567993613) 0x5ef-0x5f6.7 (8)
0x5f0|00 00 00 21 da e5 0d                           |...!...         |
0x5f0|                     00 00 00 0e               |       ....     |        corr: 14 0x5f7-0x5fa.7 (4)
     |                                               |                |      [14]{}: leap_second_record 0x5fb-0x606.7 (12)
0x5f0|                                 00 00 00 00 25|           ....%|        occur: "1990-01-01T00:00:14Z" (631152014) 0x5fb-0x602.7 (8)
0x600|9e 9d 8e                                       |...             |
0x600|         00 00 00 0f                           |   ....         |        corr: 15 0x603-0x606.7 (4)
     |                                               |                |      [15]{}: leap_second_record 0x607-0x612.7 (12)
0x600|                     00 00 00 00 27 7f d1 0f   |       ....'... |        occur: "1991-01-01T00:00:15Z" (662688015) 0x607-0x60e.7 (8)
0x600|                                             00|               .|        corr: 16 0x60f-0x612.7 (4)
0x610|00 00 10                                       |...             |
     |                                               |                |      [16]{}: leap_second_record 0x613-0x61e.7 (12)
0x610|         00 00 00 00 2a 50 f5 90               |   ....*P..     |        occur: "1992-07-01T00:00:16Z" (709948816) 0x613-0x61a.7 (8)
0x610|                                 00 00 00 11   |           .... |        corr: 17 0x61b-0x61e.7 (4)
     |                                               |                |      [17]{}: leap_second_record 0x61f-0x62a.7 (12)
0x610|                                             00|               .|        occur: "1993-07-01T00:00:17Z" (741484817) 0x61f-0x626.7 (8)
0x620|00 00 00 2c 32 29 11                           |...,2).         |
0x620|                     00 00 00 12               |       ....     |        corr: 18 0x627-0x62a.7 (4)
     |                                               |                |      [18]{}: leap_second_record 0x62b-0x636.7 (12)
0x620|                                 00 00 00 00 2e|           .....|        occur: "1994-07-01T00:00:18Z" (773020818) 0x62b-0x632.7 (8)
0x630|13 5c 92                                       |.\.             |
0x630|         00 00 00 13                           |   ....         |        corr: 19 0x633-0x636.7 (4)
     |                                               |                |      [19]{}: leap_second_record 0x637-0x642.7 (12)
0x630|                     00 00 00 00 30 e7 24 13   |       ....0.$. |        occur: "1996-01-01T00:00:19Z" (820454419) 0x637-0x63e.7 (8)
0x630|                                             00|               .|        corr: 20 0x63f-0x642.7 (4)
0x640|00 00 14                                       |...             |
     |                                               |                |      [20]{}: leap_second_record 0x643-0x64e.7 (12)
0x640|         00 00 00 00 33 b8 48 94               |   ....3.H.     |        occur: "1997-07-01T00:00:20Z" (867715220) 0x643-0x64a.7 (8)
0x640|                                 00 00 00 15   |           .... |        corr: 21 0x64b-0x64e.7 (4)
     |                                               |                |      [21]{}: leap_second_record 0x64f-0x65a.7 (12)
0x640|                                             00|               .|        occur: "1999-01-01T00:00:21Z" (915148821) 0x64f-0x656.7 (8)
0x650|00 00 00 36 8c 10 15                           |...6...         |
0x650|                     00 00 00 16               |       ....     |        corr: 22 0x657-0x65a.7 (4)
     |                                               |                |      [22]{}: leap_second_record 0x65b-0x666.7 (12)
0x650|                                 00 00 00 00 43|           ....C|        occur: "2006-01-01T00:00:22Z" (1136073622) 0x65b-0x662.7 (8)
0x660|b7 1b 96                                       |...             |
0x660|         00 00 00 17                           |   ....         |        corr: 23 0x663-0x666.7 (4)
     |                                               |                |      [23]{}: leap_second_record 0x667-0x672.7 (12)
0x660|                     00 00 00 00 49 5c 07 97   |       ....I\.. |        occur: "2009-01-01T00:00:23Z" (1230768023) 0x667-0x66e.7 (8)
0x660|                                             00|               .|        corr: 24 0x66f-0x672.7 (4)
0x670|00 00 18                                       |...             |
     |                                               |                |      [24]{}: leap_second_record 0x673-0x67e.7 (12)
0x670|         00 00 00 00 4f ef 93 18               |   ....O...     |        occur: "2012-07-01T00:00:24Z" (1341100824) 0x673-0x67a.7 (8)
0x670|                                 00 00 00 19   |           .... |        corr: 25 0x67b-0x67e.7 (4)
     |                                               |                |      [25]{}: leap_second_record 0x67f-0x68a.7 (12)
0x670|                                             00|               .|        occur: "2015-07-01T00:00:25Z" (1435708825) 0x67f-0x686.7 (8)
0x680|00 00 00 55 93 2d 99                           |...U.-.         |
0x680|                     00 00 00 1a               |       ....     |        corr: 26 0x687-0x68a.7 (4)
     |                                               |                |      [26]{}: leap_second_record 0x68b-0x696.7 (12)
0x680|                                 00 00 00 00 58|           ....X|        occur: "2017-01-01T00:00:26Z" (1483228826) 0x68b-0x692.7 (8)
0x690|68 46 9a                                       |hF.             |
0x690|         00 00 00 1b                           |   ....         |        corr: 27 0x693-0x696.7 (4)
     |                                               |                |    standard_wall_indicators[0:9]: 0x697-0x69f.7 (9)
0x690|                     00                        |       .        |      [0]: 0 standard_wall_indicator (valid) 0x697-0x697.7 (1)
0x690|                        00                     |        .       |      [1]: 0 standard_wall_indicator (valid) 0x698-0x698.7 (1)
0x690|                           00                  |         .      |      [2]: 0 standard_wall_indicator (valid) 0x699-0x699.7 (1)
0x690|                              00               |          .     |      [3]: 0 standard_wall_indicator (valid) 0x69a-0x69a.7 (1)
0x690|                                 01            |           .    |      [4]: 1 standard_wall_indicator (valid) 0x69b-0x69b.7 (1)
0x690|                                    01         |            .   |      [5]: 1 standard_wall_indicator (valid) 0x69c-0x69c.7 (1)
0x690|                                       01      |             .  |      [6]: 1 standard_wall_indicator (valid) 0x69d-0x69d.7 (1)
0x690|                                          01   |              . |      [7]: 1 standard_wall_indicator (valid) 0x69e-0x69e.7 (1)
0x690|                                             01|               .|      [8]: 1 standard_wall_indicator (valid) 0x69f-0x69f.7 (1)
     |                                               |                |    ut_local_indicators[0:0]: 0x6a0-NA (0)
     |                                               |                |  footer{}: 0x6a0-0x6a1.7 (2)
0x6a0|0a                                             |.               |    nl1: 10 (valid) 0x6a0-0x6a0.7 (1)
     |                                               |                |    tz_string: "" 0x6a1-NA (0)
0x6a0|   0a|                                         | .|             |    nl2: 10 (valid) 0x6a1-0x6a1.7 (1)
