$ fq -d tzif dv Kanton
    |00 01 02 03 04 05 06 07 08 09 0a 0b 0c 0d 0e 0f|0123456789abcdef|.{}: Kanton (tzif) 0x0-0xe9.7 (234)
    |                                               |                |  v1header{}: 0x0-0x2b.7 (44)
0x00|54 5a 69 66                                    |TZif            |    magic: 0x545a6966 (valid) 0x0-0x3.7 (4)
0x00|            32                                 |    2           |    ver: "2" (0x32) (valid) 0x4-0x4.7 (1)
0x00|               00 00 00 00 00 00 00 00 00 00 00|     ...........|    reserved: raw bits 0x5-0x13.7 (15)
0x10|00 00 00 00                                    |....            |
0x10|            00 00 00 00                        |    ....        |    isutcnt: 0 0x14-0x17.7 (4)
0x10|                        00 00 00 00            |        ....    |    isstdcnt: 0 0x18-0x1b.7 (4)
0x10|                                    00 00 00 00|            ....|    leapcnt: 0 0x1c-0x1f.7 (4)
0x20|00 00 00 04                                    |....            |    timecnt: 4 0x20-0x23.7 (4)
0x20|            00 00 00 04                        |    ....        |    typecnt: 4 0x24-0x27.7 (4)
0x20|                        00 00 00 10            |        ....    |    charcnt: 16 0x28-0x2b.7 (4)
    |                                               |                |  v1datablock{}: 0x2c-0x67.7 (60)
    |                                               |                |    transition_times[0:4]: 0x2c-0x3b.7 (16)
0x20|                                    c3 2c db 80|            .,..|      [0]: "1937-08-31T00:00:00Z" (-1020470400) transition_time 0x2c-0x2f.7 (4)
0x30|12 56 04 c0                                    |.V..            |      [1]: "1979-10-01T12:00:00Z" (307627200) transition_time 0x30-0x33.7 (4)
0x30|            2f 05 39 b0                        |    /.9.        |      [2]: "1994-12-31T11:00:00Z" (788871600) transition_time 0x34-0x37.7 (4)
0x30|                        7f ff ff ff            |        ....    |      [3]: "2038-01-19T03:14:07Z" (2147483647) transition_time 0x38-0x3b.7 (4)
    |                                               |                |    transition_types[0:4]: 0x3c-0x3f.7 (4)
0x30|                                    01         |            .   |      [0]: 1 transition_type 0x3c-0x3c.7 (1)
0x30|                                       02      |             .  |      [1]: 2 transition_type 0x3d-0x3d.7 (1)
0x30|                                          03   |              . |      [2]: 3 transition_type 0x3e-0x3e.7 (1)
0x30|                                             03|               .|      [3]: 3 transition_type 0x3f-0x3f.7 (1)
    |                                               |                |    local_time_type_records[0:4]: 0x40-0x57.7 (24)
    |                                               |                |      [0]{}: local_time_type 0x40-0x45.7 (6)
0x40|00 00 00 00                                    |....            |        utoff: 0 (valid) 0x40-0x43.7 (4)
0x40|            00                                 |    .           |        dst: 0 (valid) 0x44-0x44.7 (1)
0x40|               00                              |     .          |        idx: 0 (valid) 0x45-0x45.7 (1)
    |                                               |                |      [1]{}: local_time_type 0x46-0x4b.7 (6)
0x40|                  ff ff 57 40                  |      ..W@      |        utoff: -43200 (valid) 0x46-0x49.7 (4)
0x40|                              00               |          .     |        dst: 0 (valid) 0x4a-0x4a.7 (1)
0x40|                                 04            |           .    |        idx: 4 (valid) 0x4b-0x4b.7 (1)
    |                                               |                |      [2]{}: local_time_type 0x4c-0x51.7 (6)
0x40|                                    ff ff 65 50|            ..eP|        utoff: -39600 (valid) 0x4c-0x4f.7 (4)
0x50|00                                             |.               |        dst: 0 (valid) 0x50-0x50.7 (1)
0x50|   08                                          | .              |        idx: 8 (valid) 0x51-0x51.7 (1)
    |                                               |                |      [3]{}: local_time_type 0x52-0x57.7 (6)
0x50|      00 00 b6 d0                              |  ....          |        utoff: 46800 (valid) 0x52-0x55.7 (4)
0x50|                  00                           |      .         |        dst: 0 (valid) 0x56-0x56.7 (1)
0x50|                     0c                        |       .        |        idx: 12 (valid) 0x57-0x57.7 (1)
    |                                               |                |    time_zone_designations[0:4]: 0x58-0x67.7 (16)
0x50|                        2d 30 30 00            |        -00.    |      [0]: "-00" time_zone_designation 0x58-0x5b.7 (4)
0x50|                                    2d 31 32 00|            -12.|      [1]: "-12" time_zone_designation 0x5c-0x5f.7 (4)
0x60|2d 31 31 00                                    |-11.            |      [2]: "-11" time_zone_designation 0x60-0x63.7 (4)
0x60|            2b 31 33 00                        |    +13.        |      [3]: "+13" time_zone_designation 0x64-0x67.7 (4)
    |                                               |                |    leap_second_records[0:0]: 0x68-NA (0)
    |                                               |                |    standard_wall_indicators[0:0]: 0x68-NA (0)
    |                                               |                |    ut_local_indicators[0:0]: 0x68-NA (0)
    |                                               |                |  v2plusheader{}: 0x68-0x93.7 (44)
0x60|                        54 5a 69 66            |        TZif    |    magic: 0x545a6966 (valid) 0x68-0x6b.7 (4)
0x60|                                    32         |            2   |    ver: "2" (0x32) (valid) 0x6c-0x6c.7 (1)
0x60|                                       00 00 00|             ...|    reserved: raw bits 0x6d-0x7b.7 (15)
0x70|00 00 00 00 00 00 00 00 00 00 00 00            |............    |
0x70|                                    00 00 00 00|            ....|    isutcnt: 0 0x7c-0x7f.7 (4)
0x80|00 00 00 00                                    |....            |    isstdcnt: 0 0x80-0x83.7 (4)
0x80|            00 00 00 00                        |    ....        |    leapcnt: 0 0x84-0x87.7 (4)
0x80|                        00 00 00 04            |        ....    |    timecnt: 4 0x88-0x8b.7 (4)
0x80|                                    00 00 00 04|            ....|    typecnt: 4 0x8c-0x8f.7 (4)
0x90|00 00 00 10                                    |....            |    charcnt: 16 0x90-0x93.7 (4)
    |                                               |                |  v2plusdatablock{}: 0x94-0xdf.7 (76)
    |                                               |                |    transition_times[0:4]: 0x94-0xb3.7 (32)
0x90|            ff ff ff ff c3 2c db 80            |    .....,..    |      [0]: "1937-08-31T00:00:00Z" (-1020470400) transition_time 0x94-0x9b.7 (8)
0x90|                                    00 00 00 00|            ....|      [1]: "1979-10-01T12:00:00Z" (307627200) transition_time 0x9c-0xa3.7 (8)
0xa0|12 56 04 c0                                    |.V..            |
0xa0|            00 00 00 00 2f 05 39 b0            |    ..../.9.    |      [2]: "1994-12-31T11:00:00Z" (788871600) transition_time 0xa4-0xab.7 (8)
0xa0|                                    00 00 00 00|            ....|      [3]: "2038-01-19T03:14:07Z" (2147483647) transition_time 0xac-0xb3.7 (8)
0xb0|7f ff ff ff                                    |....            |
    |                                               |                |    transition_types[0:4]: 0xb4-0xb7.7 (4)
0xb0|            01                                 |    .           |      [0]: 1 transition_type 0xb4-0xb4.7 (1)
0xb0|               02                              |     .          |      [1]: 2 transition_type 0xb5-0xb5.7 (1)
0xb0|                  03                           |      .         |      [2]: 3 transition_type 0xb6-0xb6.7 (1)
0xb0|                     03                        |       .        |      [3]: 3 transition_type 0xb7-0xb7.7 (1)
    |                                               |                |    local_time_type_records[0:4]: 0xb8-0xcf.7 (24)
    |                                               |                |      [0]{}: local_time_type 0xb8-0xbd.7 (6)
0xb0|                        00 00 00 00            |        ....    |        utoff: 0 (valid) 0xb8-0xbb.7 (4)
0xb0|                                    00         |            .   |        dst: 0 (valid) 0xbc-0xbc.7 (1)
0xb0|                                       00      |             .  |        idx: 0 (valid) 0xbd-0xbd.7 (1)
    |                                               |                |      [1]{}: local_time_type 0xbe-0xc3.7 (6)
0xb0|                                          ff ff|              ..|        utoff: -43200 (valid) 0xbe-0xc1.7 (4)
0xc0|57 40                                          |W@              |
0xc0|      00                                       |  .             |        dst: 0 (valid) 0xc2-0xc2.7 (1)
0xc0|         04                                    |   .            |        idx: 4 (valid) 0xc3-0xc3.7 (1)
    |                                               |                |      [2]{}: local_time_type 0xc4-0xc9.7 (6)
0xc0|            ff ff 65 50                        |    ..eP        |        utoff: -39600 (valid) 0xc4-0xc7.7 (4)
0xc0|                        00                     |        .       |        dst: 0 (valid) 0xc8-0xc8.7 (1)
0xc0|                           08                  |         .      |        idx: 8 (valid) 0xc9-0xc9.7 (1)
    |                                               |                |      [3]{}: local_time_type 0xca-0xcf.7 (6)
0xc0|                              00 00 b6 d0      |          ....  |        utoff: 46800 (valid) 0xca-0xcd.7 (4)
0xc0|                                          00   |              . |        dst: 0 (valid) 0xce-0xce.7 (1)
0xc0|                                             0c|               .|        idx: 12 (valid) 0xcf-0xcf.7 (1)
    |                                               |                |    time_zone_designations[0:4]: 0xd0-0xdf.7 (16)
0xd0|2d 30 30 00                                    |-00.            |      [0]: "-00" time_zone_designation 0xd0-0xd3.7 (4)
0xd0|            2d 31 32 00                        |    -12.        |      [1]: "-12" time_zone_designation 0xd4-0xd7.7 (4)
0xd0|                        2d 31 31 00            |        -11.    |      [2]: "-11" time_zone_designation 0xd8-0xdb.7 (4)
0xd0|                                    2b 31 33 00|            +13.|      [3]: "+13" time_zone_designation 0xdc-0xdf.7 (4)
    |                                               |                |    leap_second_records[0:0]: 0xe0-NA (0)
    |                                               |                |    standard_wall_indicators[0:0]: 0xe0-NA (0)
    |                                               |                |    ut_local_indicators[0:0]: 0xe0-NA (0)
    |                                               |                |  footer{}: 0xe0-0xe9.7 (10)
0xe0|0a                                             |.               |    nl1: 10 (valid) 0xe0-0xe0.7 (1)
0xe0|   3c 2b 31 33 3e 2d 31 33                     | <+13>-13       |    tz_string: "<+13>-13" 0xe1-0xe8.7 (8)
0xe0|                           0a|                 |         .|     |    nl2: 10 (valid) 0xe9-0xe9.7 (1)
