$ fq -d tzif dv Karachi
     |00 01 02 03 04 05 06 07 08 09 0a 0b 0c 0d 0e 0f|0123456789abcdef|.{}: Karachi (tzif) 0x0-0x39f.7 (928)
     |                                               |                |  v1header{}: 0x0-0x2b.7 (44)
0x000|54 5a 69 66                                    |TZif            |    magic: 0x545a6966 (valid) 0x0-0x3.7 (4)
0x000|            32                                 |    2           |    ver: "2" (0x32) (valid) 0x4-0x4.7 (1)
0x000|               00 00 00 00 00 00 00 00 00 00 00|     ...........|    reserved: raw bits 0x5-0x13.7 (15)
0x010|00 00 00 00                                    |....            |
0x010|            00 00 00 00                        |    ....        |    isutcnt: 0 0x14-0x17.7 (4)
0x010|                        00 00 00 00            |        ....    |    isstdcnt: 0 0x18-0x1b.7 (4)
0x010|                                    00 00 00 1b|            ....|    leapcnt: 27 0x1c-0x1f.7 (4)
0x020|00 00 00 0c                                    |....            |    timecnt: 12 0x20-0x23.7 (4)
0x020|            00 00 00 06                        |    ....        |    typecnt: 6 0x24-0x27.7 (4)
0x020|                        00 00 00 1d            |        ....    |    charcnt: 29 0x28-0x2b.7 (4)
     |                                               |                |  v1datablock{}: 0x2c-0x180.7 (341)
     |                                               |                |    transition_times[0:12]: 0x2c-0x5b.7 (48)
0x020|                                    89 7e fc a4|            .~..|      [0]: "1906-12-31T19:31:48Z" (-1988166492) transition_time 0x2c-0x2f.7 (4)
0x030|cc 95 32 a8                                    |..2.            |      [1]: "1942-08-31T18:30:00Z" (-862637400) transition_time 0x30-0x33.7 (4)
0x030|            d2 74 12 98                        |    .t..        |      [2]: "1945-10-14T17:30:00Z" (-764145000) transition_time 0x34-0x37.7 (4)
0x030|                        dd a8 e0 a8            |        ....    |      [3]: "1951-09-29T18:30:00Z" (-576135000) transition_time 0x38-0x3b.7 (4)
0x030|                                    02 4f ab 30|            .O.0|      [4]: "1971-03-25T19:00:00Z" (38775600) transition_time 0x3c-0x3f.7 (4)
0x040|3c af 45 c6                                    |<.E.            |      [5]: "2002-04-06T19:00:22Z" (1018119622) transition_time 0x40-0x43.7 (4)
0x040|            3d 9f 28 b6                        |    =.(.        |      [6]: "2002-10-05T18:00:22Z" (1033840822) transition_time 0x44-0x47.7 (4)
0x040|                        48 41 a0 47            |        HA.G    |      [7]: "2008-05-31T19:00:23Z" (1212260423) transition_time 0x48-0x4b.7 (4)
0x040|                                    49 0b 47 b7|            I.G.|      [8]: "2008-10-31T18:00:23Z" (1225476023) transition_time 0x4c-0x4f.7 (4)
0x050|49 e4 dd 48                                    |I..H            |      [9]: "2009-04-14T19:00:24Z" (1239735624) transition_time 0x50-0x53.7 (4)
0x050|            4a ec 7b 38                        |    J.{8        |      [10]: "2009-10-31T18:00:24Z" (1257012024) transition_time 0x54-0x57.7 (4)
0x050|                        64 9b 78 1b            |        d.x.    |      [11]: "2023-06-28T00:00:27Z" (1687910427) transition_time 0x58-0x5b.7 (4)
     |                                               |                |    transition_types[0:12]: 0x5c-0x67.7 (12)
0x050|                                    01         |            .   |      [0]: 1 transition_type 0x5c-0x5c.7 (1)
0x050|                                       02      |             .  |      [1]: 2 transition_type 0x5d-0x5d.7 (1)
0x050|                                          01   |              . |      [2]: 1 transition_type 0x5e-0x5e.7 (1)
0x050|                                             03|               .|      [3]: 3 transition_type 0x5f-0x5f.7 (1)
0x060|05                                             |.               |      [4]: 5 transition_type 0x60-0x60.7 (1)
0x060|   04                                          | .              |      [5]: 4 transition_type 0x61-0x61.7 (1)
0x060|      05                                       |  .             |      [6]: 5 transition_type 0x62-0x62.7 (1)
0x060|         04                                    |   .            |      [7]: 4 transition_type 0x63-0x63.7 (1)
0x060|            05                                 |    .           |      [8]: 5 transition_type 0x64-0x64.7 (1)
0x060|               04                              |     .          |      [9]: 4 transition_type 0x65-0x65.7 (1)
0x060|                  05                           |      .         |      [10]: 5 transition_type 0x66-0x66.7 (1)
0x060|                     05                        |       .        |      [11]: 5 transition_type 0x67-0x67.7 (1)
     |                                               |                |    local_time_type_records[0:6]: 0x68-0x8b.7 (36)
     |                                               |                |      [0]{}: local_time_type 0x68-0x6d.7 (6)
0x060|                        00 00 3e dc            |        ..>.    |        utoff: 16092 (valid) 0x68-0x6b.7 (4)
0x060|                                    00         |            .   |        dst: 0 (valid) 0x6c-0x6c.7 (1)
0x060|                                       00      |             .  |        idx: 0 (valid) 0x6d-0x6d.7 (1)
     |                                               |                |      [1]{}: local_time_type 0x6e-0x73.7 (6)
0x060|                                          00 00|              ..|        utoff: 19800 (valid) 0x6e-0x71.7 (4)
0x070|4d 58                                          |MX              |
0x070|      00                                       |  .             |        dst: 0 (valid) 0x72-0x72.7 (1)
0x070|         04                                    |   .            |        idx: 4 (valid) 0x73-0x73.7 (1)
     |                                               |                |      [2]{}: local_time_type 0x74-0x79.7 (6)
0x070|            00 00 5b 68                        |    ..[h        |        utoff: 23400 (valid) 0x74-0x77.7 (4)
0x070|                        01                     |        .       |        dst: 1 (valid) 0x78-0x78.7 (1)
0x070|                           0a                  |         .      |        idx: 10 (valid) 0x79-0x79.7 (1)
     |                                               |                |      [3]{}: local_time_type 0x7a-0x7f.7 (6)
0x070|                              00 00 46 50      |          ..FP  |        utoff: 18000 (valid) 0x7a-0x7d.7 (4)
0x070|                                          00   |              . |        dst: 0 (valid) 0x7e-0x7e.7 (1)
0x070|                                             10|               .|        idx: 16 (valid) 0x7f-0x7f.7 (1)
     |                                               |                |      [4]{}: local_time_type 0x80-0x85.7 (6)
0x080|00 00 54 60                                    |..T`            |        utoff: 21600 (valid) 0x80-0x83.7 (4)
0x080|            01                                 |    .           |        dst: 1 (valid) 0x84-0x84.7 (1)
0x080|               14                              |     .          |        idx: 20 (valid) 0x85-0x85.7 (1)
     |                                               |                |      [5]{}: local_time_type 0x86-0x8b.7 (6)
0x080|                  00 00 46 50                  |      ..FP      |        utoff: 18000 (valid) 0x86-0x89.7 (4)
0x080|                              00               |          .     |        dst: 0 (valid) 0x8a-0x8a.7 (1)
0x080|                                 19            |           .    |        idx: 25 (valid) 0x8b-0x8b.7 (1)
     |                                               |                |    time_zone_designations[0:6]: 0x8c-0xa8.7 (29)
0x080|                                    4c 4d 54 00|            LMT.|      [0]: "LMT" time_zone_designation 0x8c-0x8f.7 (4)
0x090|2b 30 35 33 30 00                              |+0530.          |      [1]: "+0530" time_zone_designation 0x90-0x95.7 (6)
0x090|                  2b 30 36 33 30 00            |      +0630.    |      [2]: "+0630" time_zone_designation 0x96-0x9b.7 (6)
0x090|                                    2b 30 35 00|            +05.|      [3]: "+05" time_zone_designation 0x9c-0x9f.7 (4)
0x0a0|50 4b 53 54 00                                 |PKST.           |      [4]: "PKST" time_zone_designation 0xa0-0xa4.7 (5)
0x0a0|               50 4b 54 00                     |     PKT.       |      [5]: "PKT" time_zone_designation 0xa5-0xa8.7 (4)
     |                                               |                |    leap_second_records[0:27]: 0xa9-0x180.7 (216)
     |                                               |                |      [0]{}: leap_second_record 0xa9-0xb0.7 (8)
0x0a0|                           04 b2 58 00         |         ..X.   |        occur: "1972-07-01T00:00:00Z" (78796800) 0xa9-0xac.7 (4)
0x0a0|                                       00 00 00|             ...|        corr: 1 0xad-0xb0.7 (4)
0x0b0|01                                             |.               |
     |                                               |                |      [1]{}: leap_second_record 0xb1-0xb8.7 (8)
0x0b0|   05 a4 ec 01                                 | ....           |        occur: "1973-01-01T00:00:01Z" (94694401) 0xb1-0xb4.7 (4)
0x0b0|               00 00 00 02                     |     ....       |        corr: 2 0xb5-0xb8.7 (4)
     |                                               |                |      [2]{}: leap_second_record 0xb9-0xc0.7 (8)
0x0b0|                           07 86 1f 82         |         ....   |        occur: "1974-01-01T00:00:02Z" (126230402) 0xb9-0xbc.7 (4)
0x0b0|                                       00 00 00|             ...|        corr: 3 0xbd-0xc0.7 (4)
0x0c0|03                                             |.               |
     |                                               |                |      [3]{}: leap_second_record 0xc1-0xc8.7 (8)
0x0c0|   09 67 53 03                                 | .gS.           |        occur: "1975-01-01T00:00:03Z" (157766403) 0xc1-0xc4.7 (4)
0x0c0|               00 00 00 04                     |     ....       |        corr: 4 0xc5-0xc8.7 (4)
     |                                               |                |      [4]{}: leap_second_record 0xc9-0xd0.7 (8)
0x0c0|                           0b 48 86 84         |         .H..   |        occur: "1976-01-01T00:00:04Z" (189302404) 0xc9-0xcc.7 (4)
0x0c0|                                       00 00 00|             ...|        corr: 5 0xcd-0xd0.7 (4)
0x0d0|05                                             |.               |
     |                                               |                |      [5]{}: leap_second_record 0xd1-0xd8.7 (8)
0x0d0|   0d 2b 0b 85                                 | .+..           |        occur: "1977-01-01T00:00:05Z" (220924805) 0xd1-0xd4.7 (4)
0x0d0|               00 00 00 06                     |     ....       |        corr: 6 0xd5-0xd8.7 (4)
     |                                               |                |      [6]{}: leap_second_record 0xd9-0xe0.7 (8)
0x0d0|                           0f 0c 3f 06         |         ..?.   |        occur: "1978-01-01T00:00:06Z" (252460806) 0xd9-0xdc.7 (4)
0x0d0|                                       00 00 00|             ...|        corr: 7 0xdd-0xe0.7 (4)
0x0e0|07                                             |.               |
     |                                               |                |      [7]{}: leap_second_record 0xe1-0xe8.7 (8)
0x0e0|   10 ed 72 87                                 | ..r.           |        occur: "1979-01-01T00:00:07Z" (283996807) 0xe1-0xe4.7 (4)
0x0e0|               00 00 00 08                     |     ....       |        corr: 8 0xe5-0xe8.7 (4)
     |                                               |                |      [8]{}: leap_second_record 0xe9-0xf0.7 (8)
0x0e0|                           12 ce a6 08         |         ....   |        occur: "1980-01-01T00:00:08Z" (315532808) 0xe9-0xec.7 (4)
0x0e0|                                       00 00 00|             ...|        corr: 9 0xed-0xf0.7 (4)
0x0f0|09                                             |.               |
     |                                               |                |      [9]{}: leap_second_record 0xf1-0xf8.7 (8)
0x0f0|   15 9f ca 89                                 | ....           |        occur: "1981-07-01T00:00:09Z" (362793609) 0xf1-0xf4.7 (4)
0x0f0|               00 00 00 0a                     |     ....       |        corr: 10 0xf5-0xf8.7 (4)
     |                                               |                |      [10]{}: leap_second_record 0xf9-0x100.7 (8)
0x0f0|                           17 80 fe 0a         |         ....   |        occur: "1982-07-01T00:00:10Z" (394329610) 0xf9-0xfc.7 (4)
0x0f0|                                       00 00 00|             ...|        corr: 11 0xfd-0x100.7 (4)
0x100|0b                                             |.               |
     |                                               |                |      [11]{}: leap_second_record 0x101-0x108.7 (8)
0x100|   19 62 31 8b                                 | .b1.           |        occur: "1983-07-01T00:00:11Z" (425865611) 0x101-0x104.7 (4)
0x100|               00 00 00 0c                     |     ....       |        corr: 12 0x105-0x108.7 (4)
     |                                               |                |      [12]{}: leap_second_record 0x109-0x110.7 (8)
0x100|                           1d 25 ea 0c         |         .%..   |        occur: "1985-07-01T00:00:12Z" (489024012) 0x109-0x10c.7 (4)
0x100|                                       00 00 00|             ...|        corr: 13 0x10d-0x110.7 (4)
0x110|0d                                             |.               |
     |                                               |                |      [13]{}: leap_second_record 0x111-0x118.7 (8)
0x110|   21 da e5 0d                                 | !...           |        occur: "1988-01-01T00:00:13Z" (567993613) 0x111-0x114.7 (4)
0x110|               00 00 00 0e                     |     ....       |        corr: 14 0x115-0x118.7 (4)
     |                                               |                |      [14]{}: leap_second_record 0x119-0x120.7 (8)
0x110|                           25 9e 9d 8e         |         %...   |        occur: "1990-01-01T00:00:14Z" (631152014) 0x119-0x11c.7 (4)
0x110|                                       00 00 00|             ...|        corr: 15 0x11d-0x120.7 (4)
0x120|0f                                             |.               |
     |                                               |                |      [15]{}: leap_second_record 0x121-0x128.7 (8)
0x120|   27 7f d1 0f                                 | '...           |        occur: "1991-01-01T00:00:15Z" (662688015) 0x121-0x124.7 (4)
0x120|               00 00 00 10                     |     ....       |        corr: 16 0x125-0x128.7 (4)
     |                                               |                |      [16]{}: leap_second_record 0x129-0x130.7 (8)
0x120|                           2a 50 f5 90         |         *P..   |        occur: "1992-07-01T00:00:16Z" (709948816) 0x129-0x12c.7 (4)
0x120|                                       00 00 00|             ...|        corr: 17 0x12d-0x130.7 (4)
0x130|11                                             |.               |
     |                                               |                |      [17]{}: leap_second_record 0x131-0x138.7 (8)
0x130|   2c 32 29 11                                 | ,2).           |        occur: "1993-07-01T00:00:17Z" (741484817) 0x131-0x134.7 (4)
0x130|               00 00 00 12                     |     ....       |        corr: 18 0x135-0x138.7 (4)
     |                                               |                |      [18]{}: leap_second_record 0x139-0x140.7 (8)
0x130|                           2e 13 5c 92         |         ..\.   |        occur: "1994-07-01T00:00:18Z" (773020818) 0x139-0x13c.7 (4)
0x130|                                       00 00 00|             ...|        corr: 19 0x13d-0x140.7 (4)
0x140|13                                             |.               |
     |                                               |                |      [19]{}: leap_second_record 0x141-0x148.7 (8)
0x140|   30 e7 24 13                                 | 0.$.           |        occur: "1996-01-01T00:00:19Z" (820454419) 0x141-0x144.7 (4)
0x140|               00 00 00 14                     |     ....       |        corr: 20 0x145-0x148.7 (4)
     |                                               |                |      [20]{}: leap_second_record 0x149-0x150.7 (8)
0x140|                           33 b8 48 94         |         3.H.   |        occur: "1997-07-01T00:00:20Z" (867715220) 0x149-0x14c.7 (4)
0x140|                                       00 00 00|             ...|        corr: 21 0x14d-0x150.7 (4)
0x150|15                                             |.               |
     |                                               |                |      [21]{}: leap_second_record 0x151-0x158.7 (8)
0x150|   36 8c 10 15                                 | 6...           |        occur: "1999-01-01T00:00:21Z" (915148821) 0x151-0x154.7 (4)
0x150|               00 00 00 16                     |     ....       |        corr: 22 0x155-0x158.7 (4)
     |                                               |                |      [22]{}: leap_second_record 0x159-0x160.7 (8)
0x150|                           43 b7 1b 96         |         C...   |        occur: "2006-01-01T00:00:22Z" (1136073622) 0x159-0x15c.7 (4)
0x150|                                       00 00 00|             ...|        corr: 23 0x15d-0x160.7 (4)
0x160|17                                             |.               |
     |                                               |                |      [23]{}: leap_second_record 0x161-0x168.7 (8)
0x160|   49 5c 07 97                                 | I\..           |        occur: "2009-01-01T00:00:23Z" (1230768023) 0x161-0x164.7 (4)
0x160|               00 00 00 18                     |     ....       |        corr: 24 0x165-0x168.7 (4)
     |                                               |                |      [24]{}: leap_second_record 0x169-0x170.7 (8)
0x160|                           4f ef 93 18         |         O...   |        occur: "2012-07-01T00:00:24Z" (1341100824) 0x169-0x16c.7 (4)
0x160|                                       00 00 00|             ...|        corr: 25 0x16d-0x170.7 (4)
0x170|19                                             |.               |
     |                                               |                |      [25]{}: leap_second_record 0x171-0x178.7 (8)
0x170|   55 93 2d 99                                 | U.-.           |        occur: "2015-07-01T00:00:25Z" (1435708825) 0x171-0x174.7 (4)
0x170|               00 00 00 1a                     |     ....       |        corr: 26 0x175-0x178.7 (4)
     |                                               |                |      [26]{}: leap_second_record 0x179-0x180.7 (8)
0x170|                           58 68 46 9a         |         XhF.   |        occur: "2017-01-01T00:00:26Z" (1483228826) 0x179-0x17c.7 (4)
0x170|                                       00 00 00|             ...|        corr: 27 0x17d-0x180.7 (4)
0x180|1b                                             |.               |
     |                                               |                |    standard_wall_indicators[0:0]: 0x181-NA (0)
     |                                               |                |    ut_local_indicators[0:0]: 0x181-NA (0)
     |                                               |                |  v2plusheader{}: 0x181-0x1ac.7 (44)
0x180|   54 5a 69 66                                 | TZif           |    magic: 0x545a6966 (valid) 0x181-0x184.7 (4)
0x180|               32                              |     2          |    ver: "2" (0x32) (valid) 0x185-0x185.7 (1)
0x180|                  00 00 00 00 00 00 00 00 00 00|      ..........|    reserved: raw bits 0x186-0x194.7 (15)
0x190|00 00 00 00 00                                 |.....           |
0x190|               00 00 00 00                     |     ....       |    isutcnt: 0 0x195-0x198.7 (4)
0x190|                           00 00 00 00         |         ....   |    isstdcnt: 0 0x199-0x19c.7 (4)
0x190|                                       00 00 00|             ...|    leapcnt: 27 0x19d-0x1a0.7 (4)
0x1a0|1b                                             |.               |
0x1a0|   00 00 00 0c                                 | ....           |    timecnt: 12 0x1a1-0x1a4.7 (4)
0x1a0|               00 00 00 06                     |     ....       |    typecnt: 6 0x1a5-0x1a8.7 (4)
0x1a0|                           00 00 00 1d         |         ....   |    charcnt: 29 0x1a9-0x1ac.7 (4)
     |                                               |                |  v2plusdatablock{}: 0x1ad-0x39d.7 (497)
     |                                               |                |    transition_times[0:12]: 0x1ad-0x20c.7 (96)
0x1a0|                                       ff ff ff|             ...|      [0]: "1906-12-31T19:31:48Z" (-1988166492) transition_time 0x1ad-0x1b4.7 (8)
0x1b0|ff 89 7e fc a4                                 |..~..           |
0x1b0|               ff ff ff ff cc 95 32 a8         |     ......2.   |      [1]: "1942-08-31T18:30:00Z" (-862637400) transition_time 0x1b5-0x1bc.7 (8)
0x1b0|                                       ff ff ff|             ...|      [2]: "1945-10-14T17:30:00Z" (-764145000) transition_time 0x1bd-0x1c4.7 (8)
0x1c0|ff d2 74 12 98                                 |..t..           |
0x1c0|               ff ff ff ff dd a8 e0 a8         |     ........   |      [3]: "1951-09-29T18:30:00Z" (-576135000) transition_time 0x1c5-0x1cc.7 (8)
0x1c0|                                       00 00 00|             ...|      [4]: "1971-03-25T19:00:00Z" (38775600) transition_time 0x1cd-0x1d4.7 (8)
0x1d0|00 02 4f ab 30                                 |..O.0           |
0x1d0|               00 00 00 00 3c af 45 c6         |     ....<.E.   |      [5]: "2002-04-06T19:00:22Z" (1018119622) transition_time 0x1d5-0x1dc.7 (8)
0x1d0|                                       00 00 00|             ...|      [6]: "2002-10-05T18:00:22Z" (1033840822) transition_time 0x1dd-0x1e4.7 (8)
0x1e0|00 3d 9f 28 b6                                 |.=.(.           |
0x1e0|               00 00 00 00 48 41 a0 47         |     ....HA.G   |      [7]: "2008-05-31T19:00:23Z" (1212260423) transition_time 0x1e5-0x1ec.7 (8)
0x1e0|                                       00 00 00|             ...|      [8]: "2008-10-31T18:00:23Z" (1225476023) transition_time 0x1ed-0x1f4.7 (8)
0x1f0|00 49 0b 47 b7                                 |.I.G.           |
0x1f0|               00 00 00 00 49 e4 dd 48         |     ....I..H   |      [9]: "2009-04-14T19:00:24Z" (1239735624) transition_time 0x1f5-0x1fc.7 (8)
0x1f0|                                       00 00 00|             ...|      [10]: "2009-10-31T18:00:24Z" (1257012024) transition_time 0x1fd-0x204.7 (8)
0x200|00 4a ec 7b 38                                 |.J.{8           |
0x200|               00 00 00 00 64 9b 78 1b         |     ....d.x.   |      [11]: "2023-06-28T00:00:27Z" (1687910427) transition_time 0x205-0x20c.7 (8)
     |                                               |                |    transition_types[0:12]: 0x20d-0x218.7 (12)
0x200|                                       01      |             .  |      [0]: 1 transition_type 0x20d-0x20d.7 (1)
0x200|                                          02   |              . |      [1]: 2 transition_type 0x20e-0x20e.7 (1)
0x200|                                             01|               .|      [2]: 1 transition_type 0x20f-0x20f.7 (1)
0x210|03                                             |.               |      [3]: 3 transition_type 0x210-0x210.7 (1)
0x210|   05                                          | .              |      [4]: 5 transition_type 0x211-0x211.7 (1)
0x210|      04                                       |  .             |      [5]: 4 transition_type 0x212-0x212.7 (1)
0x210|         05                                    |   .            |      [6]: 5 transition_type 0x213-0x213.7 (1)
0x210|            04                                 |    .           |      [7]: 4 transition_type 0x214-0x214.7 (1)
0x210|               05                              |     .          |      [8]: 5 transition_type 0x215-0x215.7 (1)
0x210|                  04                           |      .         |      [9]: 4 transition_type 0x216-0x216.7 (1)
0x210|                     05                        |       .        |      [10]: 5 transition_type 0x217-0x217.7 (1)
0x210|                        05                     |        .       |      [11]: 5 transition_type 0x218-0x218.7 (1)
     |                                               |                |    local_time_type_records[0:6]: 0x219-0x23c.7 (36)
     |                                               |                |      [0]{}: local_time_type 0x219-0x21e.7 (6)
0x210|                           00 00 3e dc         |         ..>.   |        utoff: 16092 (valid) 0x219-0x21c.7 (4)
0x210|                                       00      |             .  |        dst: 0 (valid) 0x21d-0x21d.7 (1)
0x210|                                          00   |              . |        idx: 0 (valid) 0x21e-0x21e.7 (1)
     |                                               |                |      [1]{}: local_time_type 0x21f-0x224.7 (6)
0x210|                                             00|               .|        utoff: 19800 (valid) 0x21f-0x222.7 (4)
0x220|00 4d 58                                       |.MX             |
0x220|         00                                    |   .            |        dst: 0 (valid) 0x223-0x223.7 (1)
0x220|            04                                 |    .           |        idx: 4 (valid) 0x224-0x224.7 (1)
     |                                               |                |      [2]{}: local_time_type 0x225-0x22a.7 (6)
0x220|               00 00 5b 68                     |     ..[h       |        utoff: 23400 (valid) 0x225-0x228.7 (4)
0x220|                           01                  |         .      |        dst: 1 (valid) 0x229-0x229.7 (1)
0x220|                              0a               |          .     |        idx: 10 (valid) 0x22a-0x22a.7 (1)
     |                                               |                |      [3]{}: local_time_type 0x22b-0x230.7 (6)
0x220|                                 00 00 46 50   |           ..FP |        utoff: 18000 (valid) 0x22b-0x22e.7 (4)
0x220|                                             00|               .|        dst: 0 (valid) 0x22f-0x22f.7 (1)
0x230|10                                             |.               |        idx: 16 (valid) 0x230-0x230.7 (1)
     |                                               |                |      [4]{}: local_time_type 0x231-0x236.7 (6)
0x230|   00 00 54 60                                 | ..T`           |        utoff: 21600 (valid) 0x231-0x234.7 (4)
0x230|               01                              |     .          |        dst: 1 (valid) 0x235-0x235.7 (1)
0x230|                  14                           |      .         |        idx: 20 (valid) 0x236-0x236.7 (1)
     |                                               |                |      [5]{}: local_time_type 0x237-0x23c.7 (6)
0x230|                     00 00 46 50               |       ..FP     |        utoff: 18000 (valid) 0x237-0x23a.7 (4)
0x230|                                 00            |           .    |        dst: 0 (valid) 0x23b-0x23b.7 (1)
0x230|                                    19         |            .   |        idx: 25 (valid) 0x23c-0x23c.7 (1)
     |                                               |                |    time_zone_designations[0:6]: 0x23d-0x259.7 (29)
0x230|                                       4c 4d 54|             LMT|      [0]: "LMT" time_zone_designation 0x23d-0x240.7 (4)
0x240|00                                             |.               |
0x240|   2b 30 35 33 30 00                           | +0530.         |      [1]: "+0530" time_zone_designation 0x241-0x246.7 (6)
0x240|                     2b 30 36 33 30 00         |       +0630.   |      [2]: "+0630" time_zone_designation 0x247-0x24c.7 (6)
0x240|                                       2b 30 35|             +05|      [3]: "+05" time_zone_designation 0x24d-0x250.7 (4)
0x250|00                                             |.               |
0x250|   50 4b 53 54 00                              | PKST.          |      [4]: "PKST" time_zone_designation 0x251-0x255.7 (5)
0x250|                  50 4b 54 00                  |      PKT.      |      [5]: "PKT" time_zone_designation 0x256-0x259.7 (4)
     |                                               |                |    leap_second_records[0:27]: 0x25a-0x39d.7 (324)
     |                                               |                |      [0]{}: leap_second_record 0x25a-0x265.7 (12)
0x250|                              00 00 00 00 04 b2|          ......|        occur: "1972-07-01T00:00:00Z" (78796800) 0x25a-0x261.7 (8)
0x260|58 00                                          |X.              |
0x260|      00 00 00 01                              |  ....          |        corr: 1 0x262-0x265.7 (4)
     |                                               |                |      [1]{}: leap_second_record 0x266-0x271.7 (12)
0x260|                  00 00 00 00 05 a4 ec 01      |      ........  |        occur: "1973-01-01T00:00:01Z" (94694401) 0x266-0x26d.7 (8)
0x260|                                          00 00|              ..|        corr: 2 0x26e-0x271.7 (4)
0x270|00 02                                          |..              |
     |                                               |                |      [2]{}: leap_second_record 0x272-0x27d.7 (12)
0x270|      00 00 00 00 07 86 1f 82                  |  ........      |        occur: "1974-01-01T00:00:02Z" (126230402) 0x272-0x279.7 (8)
0x270|                              00 00 00 03      |          ....  |        corr: 3 0x27a-0x27d.7 (4)
     |                                               |                |      [3]{}: leap_second_record 0x27e-0x289.7 (12)
0x270|                                          00 00|              ..|        occur: "1975-01-01T00:00:03Z" (157766403) 0x27e-0x285.7 (8)
0x280|00 00 09 67 53 03                              |...gS.          |
0x280|                  00 00 00 04                  |      ....      |        corr: 4 0x286-0x289.7 (4)
     |                                               |                |      [4]{}: leap_second_record 0x28a-0x295.7 (12)
0x280|                              00 00 00 00 0b 48|          .....H|        occur: "1976-01-01T00:00:04Z" (189302404) 0x28a-0x291.7 (8)
0x290|86 84                                          |..              |
0x290|      00 00 00 05                              |  ....          |        corr: 5 0x292-0x295.7 (4)
     |                                               |                |      [5]{}: leap_second_record 0x296-0x2a1.7 (12)
0x290|                  00 00 00 00 0d 2b 0b 85      |      .....+..  |        occur: "1977-01-01T00:00:05Z" (220924805) 0x296-0x29d.7 (8)
0x290|                                          00 00|              ..|        corr: 6 0x29e-0x2a1.7 (4)
0x2a0|00 06                                          |..              |
     |                                               |                |      [6]{}: leap_second_record 0x2a2-0x2ad.7 (12)
0x2a0|      00 00 00 00 0f 0c 3f 06                  |  ......?.      |        occur: "1978-01-01T00:00:06Z" (252460806) 0x2a2-0x2a9.7 (8)
0x2a0|                              00 00 00 07      |          ....  |        corr: 7 0x2aa-0x2ad.7 (4)
     |                                               |                |      [7]{}: leap_second_record 0x2ae-0x2b9.7 (12)
0x2a0|                                          00 00|              ..|        occur: "1979-01-01T00:00:07Z" (283996807) 0x2ae-0x2b5.7 (8)
0x2b0|00 00 10 ed 72 87                              |....r.          |
0x2b0|                  00 00 00 08                  |      ....      |        corr: 8 0x2b6-0x2b9.7 (4)
     |                                               |                |      [8]{}: leap_second_record 0x2ba-0x2c5.7 (12)
0x2b0|                              00 00 00 00 12 ce|          ......|        occur: "1980-01-01T00:00:08Z" (315532808) 0x2ba-0x2c1.7 (8)
0x2c0|a6 08                                          |..              |
0x2c0|      00 00 00 09                              |  ....          |        corr: 9 0x2c2-0x2c5.7 (4)
     |                                               |                |      [9]{}: leap_second_record 0x2c6-0x2d1.7 (12)
0x2c0|                  00 00 00 00 15 9f ca 89      |      ........  |        occur: "1981-07-01T00:00:09Z" (362793609) 0x2c6-0x2cd.7 (8)
0x2c0|                                          00 00|              ..|        corr: 10 0x2ce-0x2d1.7 (4)
0x2d0|00 0a                                          |..              |
     |                                               |                |      [10]{}: leap_second_record 0x2d2-0x2dd.7 (12)
0x2d0|      00 00 00 00 17 80 fe 0a                  |  ........      |        occur: "1982-07-01T00:00:10Z" (394329610) 0x2d2-0x2d9.7 (8)
0x2d0|                              00 00 00 0b      |          ....  |        corr: 11 0x2da-0x2dd.7 (4)
     |                                               |                |      [11]{}: leap_second_record 0x2de-0x2e9.7 (12)
0x2d0|                                          00 00|              ..|        occur: "1983-07-01T00:00:11Z" (425865611) 0x2de-0x2e5.7 (8)
0x2e0|00 00 19 62 31 8b                              |...b1.          |
0x2e0|                  00 00 00 0c                  |      ....      |        corr: 12 0x2e6-0x2e9.7 (4)
     |                                               |                |      [12]{}: leap_second_record 0x2ea-0x2f5.7 (12)
0x2e0|                              00 00 00 00 1d 25|          .....%|        occur: "1985-07-01T00:00:12Z" (489024012) 0x2ea-0x2f1.7 (8)
0x2f0|ea 0c                                          |..              |
0x2f0|      00 00 00 0d                              |  ....          |        corr: 13 0x2f2-0x2f5.7 (4)
     |                                               |                |      [13]{}: leap_second_record 0x2f6-0x301.7 (12)
0x2f0|                  00 00 00 00 21 da e5 0d      |      ....!...  |        occur: "1988-01-01T00:00:13Z" (567993613) 0x2f6-0x2fd.7 (8)
0x2f0|                                          00 00|              ..|        corr: 14 0x2fe-0x301.7 (4)
0x300|00 0e                                          |..              |
     |                                               |                |      [14]{}: leap_second_record 0x302-0x30d.7 (12)
0x300|      00 00 00 00 25 9e 9d 8e                  |  ....%...      |        occur: "1990-01-01T00:00:14Z" (631152014) 0x302-0x309.7 (8)
0x300|                              00 00 00 0f      |          ....  |        corr: 15 0x30a-0x30d.7 (4)
     |                                               |                |      [15]{}: leap_second_record 0x30e-0x319.7 (12)
0x300|                                          00 00|              ..|        occur: "1991-01-01T00:00:15Z" (662688015) 0x30e-0x315.7 (8)
0x310|00 00 27 7f d1 0f                              |..'...          |
0x310|                  00 00 00 10                  |      ....      |        corr: 16 0x316-0x319.7 (4)
     |                                               |                |      [16]{}: leap_second_record 0x31a-0x325.7 (12)
0x310|                              00 00 00 00 2a 50|          ....*P|        occur: "1992-07-01T00:00:16Z" (709948816) 0x31a-0x321.7 (8)
0x320|f5 90                                          |..              |
0x320|      00 00 00 11                              |  ....          |        corr: 17 0x322-0x325.7 (4)
     |                                               |                |      [17]{}: leap_second_record 0x326-0x331.7 (12)
0x320|                  00 00 00 00 2c 32 29 11      |      ....,2).  |        occur: "1993-07-01T00:00:17Z" (741484817) 0x326-0x32d.7 (8)
0x320|                                          00 00|              ..|        corr: 18 0x32e-0x331.7 (4)
0x330|00 12                                          |..              |
     |                                               |                |      [18]{}: leap_second_record 0x332-0x33d.7 (12)
0x330|      00 00 00 00 2e 13 5c 92                  |  ......\.      |        occur: "1994-07-01T00:00:18Z" (773020818) 0x332-0x339.7 (8)
0x330|                              00 00 00 13      |          ....  |        corr: 19 0x33a-0x33d.7 (4)
     |                                               |                |      [19]{}: leap_second_record 0x33e-0x349.7 (12)
0x330|                                          00 00|              ..|        occur: "1996-01-01T00:00:19Z" (820454419) 0x33e-0x345.7 (8)
0x340|00 00 30 e7 24 13                              |..0.$.          |
0x340|                  00 00 00 14                  |      ....      |        corr: 20 0x346-0x349.7 (4)
     |                                               |                |      [20]{}: leap_second_record 0x34a-0x355.7 (12)
0x340|                              00 00 00 00 33 b8|          ....3.|        occur: "1997-07-01T00:00:20Z" (867715220) 0x34a-0x351.7 (8)
0x350|48 94                                          |H.              |
0x350|      00 00 00 15                              |  ....          |        corr: 21 0x352-0x355.7 (4)
     |                                               |                |      [21]{}: leap_second_record 0x356-0x361.7 (12)
0x350|                  00 00 00 00 36 8c 10 15      |      ....6...  |        occur: "1999-01-01T00:00:21Z" (915148821) 0x356-0x35d.7 (8)
0x350|                                          00 00|              ..|        corr: 22 0x35e-0x361.7 (4)
0x360|00 16                                          |..              |
     |                                               |                |      [22]{}: leap_second_record 0x362-0x36d.7 (12)
0x360|      00 00 00 00 43 b7 1b 96                  |  ....C...      |        occur: "2006-01-01T00:00:22Z" (1136073622) 0x362-0x369.7 (8)
0x360|                              00 00 00 17      |          ....  |        corr: 23 0x36a-0x36d.7 (4)
     |                                               |                |      [23]{}: leap_second_record 0x36e-0x379.7 (12)
0x360|                                          00 00|              ..|        occur: "2009-01-01T00:00:23Z" (1230768023) 0x36e-0x375.7 (8)
0x370|00 00 49 5c 07 97                              |..I\..          |
0x370|                  00 00 00 18                  |      ....      |        corr: 24 0x376-0x379.7 (4)
     |                                               |                |      [24]{}: leap_second_record 0x37a-0x385.7 (12)
0x370|                              00 00 00 00 4f ef|          ....O.|        occur: "2012-07-01T00:00:24Z" (1341100824) 0x37a-0x381.7 (8)
0x380|93 18                                          |..              |
0x380|      00 00 00 19                              |  ....          |        corr: 25 0x382-0x385.7 (4)
     |                                               |                |      [25]{}: leap_second_record 0x386-0x391.7 (12)
0x380|                  00 00 00 00 55 93 2d 99      |      ....U.-.  |        occur: "2015-07-01T00:00:25Z" (1435708825) 0x386-0x38d.7 (8)
0x380|                                          00 00|              ..|        corr: 26 0x38e-0x391.7 (4)
0x390|00 1a                                          |..              |
     |                                               |                |      [26]{}: leap_second_record 0x392-0x39d.7 (12)
0x390|      00 00 00 00 58 68 46 9a                  |  ....XhF.      |        occur: "2017-01-01T00:00:26Z" (1483228826) 0x392-0x399.7 (8)
0x390|                              00 00 00 1b      |          ....  |        corr: 27 0x39a-0x39d.7 (4)
     |                                               |                |    standard_wall_indicators[0:0]: 0x39e-NA (0)
     |                                               |                |    ut_local_indicators[0:0]: 0x39e-NA (0)
     |                                               |                |  footer{}: 0x39e-0x39f.7 (2)
0x390|                                          0a   |              . |    nl1: 10 (valid) 0x39e-0x39e.7 (1)
     |                                               |                |    tz_string: "" 0x39f-NA (0)
0x390|                                             0a|               .|    nl2: 10 (valid) 0x39f-0x39f.7 (1)
