$ fq -d tzif dv Khandyga
     |00 01 02 03 04 05 06 07 08 09 0a 0b 0c 0d 0e 0f|0123456789abcdef|.{}: Khandyga (tzif) 0x0-0x70b.7 (1804)
     |                                               |                |  v1header{}: 0x0-0x2b.7 (44)
0x000|54 5a 69 66                                    |TZif            |    magic: 0x545a6966 (valid) 0x0-0x3.7 (4)
0x000|            32                                 |    2           |    ver: "2" (0x32) (valid) 0x4-0x4.7 (1)
0x000|               00 00 00 00 00 00 00 00 00 00 00|     ...........|    reserved: raw bits 0x5-0x13.7 (15)
0x010|00 00 00 00                                    |....            |
0x010|            00 00 00 00                        |    ....        |    isutcnt: 0 0x14-0x17.7 (4)
0x010|                        00 00 00 0d            |        ....    |    isstdcnt: 13 0x18-0x1b.7 (4)
0x010|                                    00 00 00 1b|            ....|    leapcnt: 27 0x1c-0x1f.7 (4)
0x020|00 00 00 44                                    |...D            |    timecnt: 68 0x20-0x23.7 (4)
0x020|            00 00 00 0d                        |    ....        |    typecnt: 13 0x24-0x27.7 (4)
0x020|                        00 00 00 14            |        ....    |    charcnt: 20 0x28-0x2b.7 (4)
     |                                               |                |  v1datablock{}: 0x2c-0x2c6.7 (667)
     |                                               |                |    transition_times[0:68]: 0x2c-0x13b.7 (272)
0x020|                                    a1 db e4 eb|            ....|      [0]: "1919-12-14T14:57:47Z" (-1579424533) transition_time 0x2c-0x2f.7 (4)
0x030|b5 a3 c5 00                                    |....            |      [1]: "1930-06-20T16:00:00Z" (-1247558400) transition_time 0x30-0x33.7 (4)
0x030|            15 27 53 79                        |    .'Sy        |      [2]: "1981-03-31T15:00:09Z" (354898809) transition_time 0x34-0x37.7 (4)
0x030|                        16 18 87 ea            |        ....    |      [3]: "1981-09-30T14:00:10Z" (370706410) transition_time 0x38-0x3b.7 (4)
0x030|                                    17 08 86 fa|            ....|      [4]: "1982-03-31T15:00:10Z" (386434810) transition_time 0x3c-0x3f.7 (4)
0x040|17 f9 bb 6b                                    |...k            |      [5]: "1982-09-30T14:00:11Z" (402242411) transition_time 0x40-0x43.7 (4)
0x040|            18 e9 ba 7b                        |    ...{        |      [6]: "1983-03-31T15:00:11Z" (417970811) transition_time 0x44-0x47.7 (4)
0x040|                        19 da ee ec            |        ....    |      [7]: "1983-09-30T14:00:12Z" (433778412) transition_time 0x48-0x4b.7 (4)
0x040|                                    1a cc 3f 7c|            ..?||      [8]: "1984-03-31T15:00:12Z" (449593212) transition_time 0x4c-0x4f.7 (4)
0x050|1b bc 4c 9c                                    |..L.            |      [9]: "1984-09-29T17:00:12Z" (465325212) transition_time 0x50-0x53.7 (4)
0x050|            1c ac 3d 9c                        |    ..=.        |      [10]: "1985-03-30T17:00:12Z" (481050012) transition_time 0x54-0x57.7 (4)
0x050|                        1d 9c 2e 9d            |        ....    |      [11]: "1985-09-28T17:00:13Z" (496774813) transition_time 0x58-0x5b.7 (4)
0x050|                                    1e 8c 1f 9d|            ....|      [12]: "1986-03-29T17:00:13Z" (512499613) transition_time 0x5c-0x5f.7 (4)
0x060|1f 7c 10 9d                                    |.|..            |      [13]: "1986-09-27T17:00:13Z" (528224413) transition_time 0x60-0x63.7 (4)
0x060|            20 6c 01 9d                        |     l..        |      [14]: "1987-03-28T17:00:13Z" (543949213) transition_time 0x64-0x67.7 (4)
0x060|                        21 5b f2 9d            |        ![..    |      [15]: "1987-09-26T17:00:13Z" (559674013) transition_time 0x68-0x6b.7 (4)
0x060|                                    22 4b e3 9e|            "K..|      [16]: "1988-03-26T17:00:14Z" (575398814) transition_time 0x6c-0x6f.7 (4)
0x070|23 3b d4 9e                                    |#;..            |      [17]: "1988-09-24T17:00:14Z" (591123614) transition_time 0x70-0x73.7 (4)
0x070|            24 2b c5 9e                        |    $+..        |      [18]: "1989-03-25T17:00:14Z" (606848414) transition_time 0x74-0x77.7 (4)
0x070|                        25 1b b6 9e            |        %...    |      [19]: "1989-09-23T17:00:14Z" (622573214) transition_time 0x78-0x7b.7 (4)
0x070|                                    26 0b a7 9f|            &...|      [20]: "1990-03-24T17:00:15Z" (638298015) transition_time 0x7c-0x7f.7 (4)
0x080|27 04 d3 1f                                    |'...            |      [21]: "1990-09-29T17:00:15Z" (654627615) transition_time 0x80-0x83.7 (4)
0x080|            27 f4 c4 20                        |    '..         |      [22]: "1991-03-30T17:00:16Z" (670352416) transition_time 0x84-0x87.7 (4)
0x080|                        28 e4 c3 30            |        (..0    |      [23]: "1991-09-28T18:00:16Z" (686080816) transition_time 0x88-0x8b.7 (4)
0x080|                                    29 78 6b 30|            )xk0|      [24]: "1992-01-18T18:00:16Z" (695757616) transition_time 0x8c-0x8f.7 (4)
0x090|29 d4 a6 20                                    |)..             |      [25]: "1992-03-28T17:00:16Z" (701802016) transition_time 0x90-0x93.7 (4)
0x090|            2a c4 97 21                        |    *..!        |      [26]: "1992-09-26T17:00:17Z" (717526817) transition_time 0x94-0x97.7 (4)
0x090|                        2b b4 88 21            |        +..!    |      [27]: "1993-03-27T17:00:17Z" (733251617) transition_time 0x98-0x9b.7 (4)
0x090|                                    2c a4 79 22|            ,.y"|      [28]: "1993-09-25T17:00:18Z" (748976418) transition_time 0x9c-0x9f.7 (4)
0x0a0|2d 94 6a 22                                    |-.j"            |      [29]: "1994-03-26T17:00:18Z" (764701218) transition_time 0xa0-0xa3.7 (4)
0x0a0|            2e 84 5b 23                        |    ..[#        |      [30]: "1994-09-24T17:00:19Z" (780426019) transition_time 0xa4-0xa7.7 (4)
0x0a0|                        2f 74 4c 23            |        /tL#    |      [31]: "1995-03-25T17:00:19Z" (796150819) transition_time 0xa8-0xab.7 (4)
0x0a0|                                    30 64 3d 23|            0d=#|      [32]: "1995-09-23T17:00:19Z" (811875619) transition_time 0xac-0xaf.7 (4)
0x0b0|31 5d 68 a4                                    |1]h.            |      [33]: "1996-03-30T17:00:20Z" (828205220) transition_time 0xb0-0xb3.7 (4)
0x0b0|            32 72 43 a4                        |    2rC.        |      [34]: "1996-10-26T17:00:20Z" (846349220) transition_time 0xb4-0xb7.7 (4)
0x0b0|                        33 3d 4a a4            |        3=J.    |      [35]: "1997-03-29T17:00:20Z" (859654820) transition_time 0xb8-0xbb.7 (4)
0x0b0|                                    34 52 25 a5|            4R%.|      [36]: "1997-10-25T17:00:21Z" (877798821) transition_time 0xbc-0xbf.7 (4)
0x0c0|35 1d 2c a5                                    |5.,.            |      [37]: "1998-03-28T17:00:21Z" (891104421) transition_time 0xc0-0xc3.7 (4)
0x0c0|            36 32 07 a5                        |    62..        |      [38]: "1998-10-24T17:00:21Z" (909248421) transition_time 0xc4-0xc7.7 (4)
0x0c0|                        36 fd 0e a6            |        6...    |      [39]: "1999-03-27T17:00:22Z" (922554022) transition_time 0xc8-0xcb.7 (4)
0x0c0|                                    38 1b 24 26|            8.$&|      [40]: "1999-10-30T17:00:22Z" (941302822) transition_time 0xcc-0xcf.7 (4)
0x0d0|38 dc f0 a6                                    |8...            |      [41]: "2000-03-25T17:00:22Z" (954003622) transition_time 0xd0-0xd3.7 (4)
0x0d0|            39 fb 06 26                        |    9..&        |      [42]: "2000-10-28T17:00:22Z" (972752422) transition_time 0xd4-0xd7.7 (4)
0x0d0|                        3a bc d2 a6            |        :...    |      [43]: "2001-03-24T17:00:22Z" (985453222) transition_time 0xd8-0xdb.7 (4)
0x0d0|                                    3b da e8 26|            ;..&|      [44]: "2001-10-27T17:00:22Z" (1004202022) transition_time 0xdc-0xdf.7 (4)
0x0e0|3c a5 ef 26                                    |<..&            |      [45]: "2002-03-30T17:00:22Z" (1017507622) transition_time 0xe0-0xe3.7 (4)
0x0e0|            3d ba ca 26                        |    =..&        |      [46]: "2002-10-26T17:00:22Z" (1035651622) transition_time 0xe4-0xe7.7 (4)
0x0e0|                        3e 85 d1 26            |        >..&    |      [47]: "2003-03-29T17:00:22Z" (1048957222) transition_time 0xe8-0xeb.7 (4)
0x0e0|                                    3f 9a ac 26|            ?..&|      [48]: "2003-10-25T17:00:22Z" (1067101222) transition_time 0xec-0xef.7 (4)
0x0f0|3f f2 e4 86                                    |?...            |      [49]: "2003-12-31T15:00:22Z" (1072882822) transition_time 0xf0-0xf3.7 (4)
0x0f0|            40 65 a5 16                        |    @e..        |      [50]: "2004-03-27T16:00:22Z" (1080403222) transition_time 0xf4-0xf7.7 (4)
0x0f0|                        41 83 ba 96            |        A...    |      [51]: "2004-10-30T16:00:22Z" (1099152022) transition_time 0xf8-0xfb.7 (4)
0x0f0|                                    42 45 87 16|            BE..|      [52]: "2005-03-26T16:00:22Z" (1111852822) transition_time 0xfc-0xff.7 (4)
0x100|43 63 9c 96                                    |Cc..            |      [53]: "2005-10-29T16:00:22Z" (1130601622) transition_time 0x100-0x103.7 (4)
0x100|            44 25 69 17                        |    D%i.        |      [54]: "2006-03-25T16:00:23Z" (1143302423) transition_time 0x104-0x107.7 (4)
0x100|                        45 43 7e 97            |        EC~.    |      [55]: "2006-10-28T16:00:23Z" (1162051223) transition_time 0x108-0x10b.7 (4)
0x100|                                    46 05 4b 17|            F.K.|      [56]: "2007-03-24T16:00:23Z" (1174752023) transition_time 0x10c-0x10f.7 (4)
0x110|47 23 60 97                                    |G#`.            |      [57]: "2007-10-27T16:00:23Z" (1193500823) transition_time 0x110-0x113.7 (4)
0x110|            47 ee 67 97                        |    G.g.        |      [58]: "2008-03-29T16:00:23Z" (1206806423) transition_time 0x114-0x117.7 (4)
0x110|                        49 03 42 97            |        I.B.    |      [59]: "2008-10-25T16:00:23Z" (1224950423) transition_time 0x118-0x11b.7 (4)
0x110|                                    49 ce 49 98|            I.I.|      [60]: "2009-03-28T16:00:24Z" (1238256024) transition_time 0x11c-0x11f.7 (4)
0x120|4a e3 24 98                                    |J.$.            |      [61]: "2009-10-24T16:00:24Z" (1256400024) transition_time 0x120-0x123.7 (4)
0x120|            4b ae 2b 98                        |    K.+.        |      [62]: "2010-03-27T16:00:24Z" (1269705624) transition_time 0x124-0x127.7 (4)
0x120|                        4c cc 41 18            |        L.A.    |      [63]: "2010-10-30T16:00:24Z" (1288454424) transition_time 0x128-0x12b.7 (4)
0x120|                                    4d 8e 0d 98|            M...|      [64]: "2011-03-26T16:00:24Z" (1301155224) transition_time 0x12c-0x12f.7 (4)
0x130|4e 6e 02 68                                    |Nn.h            |      [65]: "2011-09-12T13:00:24Z" (1315832424) transition_time 0x130-0x133.7 (4)
0x130|            54 4b c9 19                        |    TK..        |      [66]: "2014-10-25T16:00:25Z" (1414252825) transition_time 0x134-0x137.7 (4)
0x130|                        64 9b 78 1b            |        d.x.    |      [67]: "2023-06-28T00:00:27Z" (1687910427) transition_time 0x138-0x13b.7 (4)
     |                                               |                |    transition_types[0:68]: 0x13c-0x17f.7 (68)
0x130|                                    01         |            .   |      [0]: 1 transition_type 0x13c-0x13c.7 (1)
0x130|                                       03      |             .  |      [1]: 3 transition_type 0x13d-0x13d.7 (1)
0x130|                                          02   |              . |      [2]: 2 transition_type 0x13e-0x13e.7 (1)
0x130|                                             03|               .|      [3]: 3 transition_type 0x13f-0x13f.7 (1)
0x140|02                                             |.               |      [4]: 2 transition_type 0x140-0x140.7 (1)
0x140|   03                                          | .              |      [5]: 3 transition_type 0x141-0x141.7 (1)
0x140|      02                                       |  .             |      [6]: 2 transition_type 0x142-0x142.7 (1)
0x140|         03                                    |   .            |      [7]: 3 transition_type 0x143-0x143.7 (1)
0x140|            02                                 |    .           |      [8]: 2 transition_type 0x144-0x144.7 (1)
0x140|               04                              |     .          |      [9]: 4 transition_type 0x145-0x145.7 (1)
0x140|                  05                           |      .         |      [10]: 5 transition_type 0x146-0x146.7 (1)
0x140|                     04                        |       .        |      [11]: 4 transition_type 0x147-0x147.7 (1)
0x140|                        05                     |        .       |      [12]: 5 transition_type 0x148-0x148.7 (1)
0x140|                           04                  |         .      |      [13]: 4 transition_type 0x149-0x149.7 (1)
0x140|                              05               |          .     |      [14]: 5 transition_type 0x14a-0x14a.7 (1)
0x140|                                 04            |           .    |      [15]: 4 transition_type 0x14b-0x14b.7 (1)
0x140|                                    05         |            .   |      [16]: 5 transition_type 0x14c-0x14c.7 (1)
0x140|                                       04      |             .  |      [17]: 4 transition_type 0x14d-0x14d.7 (1)
0x140|                                          05   |              . |      [18]: 5 transition_type 0x14e-0x14e.7 (1)
0x140|                                             04|               .|      [19]: 4 transition_type 0x14f-0x14f.7 (1)
0x150|05                                             |.               |      [20]: 5 transition_type 0x150-0x150.7 (1)
0x150|   04                                          | .              |      [21]: 4 transition_type 0x151-0x151.7 (1)
0x150|      06                                       |  .             |      [22]: 6 transition_type 0x152-0x152.7 (1)
0x150|         07                                    |   .            |      [23]: 7 transition_type 0x153-0x153.7 (1)
0x150|            04                                 |    .           |      [24]: 4 transition_type 0x154-0x154.7 (1)
0x150|               05                              |     .          |      [25]: 5 transition_type 0x155-0x155.7 (1)
0x150|                  04                           |      .         |      [26]: 4 transition_type 0x156-0x156.7 (1)
0x150|                     05                        |       .        |      [27]: 5 transition_type 0x157-0x157.7 (1)
0x150|                        04                     |        .       |      [28]: 4 transition_type 0x158-0x158.7 (1)
0x150|                           05                  |         .      |      [29]: 5 transition_type 0x159-0x159.7 (1)
0x150|                              04               |          .     |      [30]: 4 transition_type 0x15a-0x15a.7 (1)
0x150|                                 05            |           .    |      [31]: 5 transition_type 0x15b-0x15b.7 (1)
0x150|                                    04         |            .   |      [32]: 4 transition_type 0x15c-0x15c.7 (1)
0x150|                                       05      |             .  |      [33]: 5 transition_type 0x15d-0x15d.7 (1)
0x150|                                          04   |              . |      [34]: 4 transition_type 0x15e-0x15e.7 (1)
0x150|                                             05|               .|      [35]: 5 transition_type 0x15f-0x15f.7 (1)
0x160|04                                             |.               |      [36]: 4 transition_type 0x160-0x160.7 (1)
0x160|   05                                          | .              |      [37]: 5 transition_type 0x161-0x161.7 (1)
0x160|      04                                       |  .             |      [38]: 4 transition_type 0x162-0x162.7 (1)
0x160|         05                                    |   .            |      [39]: 5 transition_type 0x163-0x163.7 (1)
0x160|            04                                 |    .           |      [40]: 4 transition_type 0x164-0x164.7 (1)
0x160|               05                              |     .          |      [41]: 5 transition_type 0x165-0x165.7 (1)
0x160|                  04                           |      .         |      [42]: 4 transition_type 0x166-0x166.7 (1)
0x160|                     05                        |       .        |      [43]: 5 transition_type 0x167-0x167.7 (1)
0x160|                        04                     |        .       |      [44]: 4 transition_type 0x168-0x168.7 (1)
0x160|                           05                  |         .      |      [45]: 5 transition_type 0x169-0x169.7 (1)
0x160|                              04               |          .     |      [46]: 4 transition_type 0x16a-0x16a.7 (1)
0x160|                                 05            |           .    |      [47]: 5 transition_type 0x16b-0x16b.7 (1)
0x160|                                    04         |            .   |      [48]: 4 transition_type 0x16c-0x16c.7 (1)
0x160|                                       0a      |             .  |      [49]: 10 transition_type 0x16d-0x16d.7 (1)
0x160|                                          08   |              . |      [50]: 8 transition_type 0x16e-0x16e.7 (1)
0x160|                                             09|               .|      [51]: 9 transition_type 0x16f-0x16f.7 (1)
0x170|08                                             |.               |      [52]: 8 transition_type 0x170-0x170.7 (1)
0x170|   09                                          | .              |      [53]: 9 transition_type 0x171-0x171.7 (1)
0x170|      08                                       |  .             |      [54]: 8 transition_type 0x172-0x172.7 (1)
0x170|         09                                    |   .            |      [55]: 9 transition_type 0x173-0x173.7 (1)
0x170|            08                                 |    .           |      [56]: 8 transition_type 0x174-0x174.7 (1)
0x170|               09                              |     .          |      [57]: 9 transition_type 0x175-0x175.7 (1)
0x170|                  08                           |      .         |      [58]: 8 transition_type 0x176-0x176.7 (1)
0x170|                     09                        |       .        |      [59]: 9 transition_type 0x177-0x177.7 (1)
0x170|                        08                     |        .       |      [60]: 8 transition_type 0x178-0x178.7 (1)
0x170|                           09                  |         .      |      [61]: 9 transition_type 0x179-0x179.7 (1)
0x170|                              08               |          .     |      [62]: 8 transition_type 0x17a-0x17a.7 (1)
0x170|                                 09            |           .    |      [63]: 9 transition_type 0x17b-0x17b.7 (1)
0x170|                                    0b         |            .   |      [64]: 11 transition_type 0x17c-0x17c.7 (1)
0x170|                                       09      |             .  |      [65]: 9 transition_type 0x17d-0x17d.7 (1)
0x170|                                          04   |              . |      [66]: 4 transition_type 0x17e-0x17e.7 (1)
0x170|                                             04|               .|      [67]: 4 transition_type 0x17f-0x17f.7 (1)
     |                                               |                |    local_time_type_records[0:13]: 0x180-0x1cd.7 (78)
     |                                               |                |      [0]{}: local_time_type 0x180-0x185.7 (6)
0x180|00 00 7f 15                                    |....            |        utoff: 32533 (valid) 0x180-0x183.7 (4)
0x180|            00                                 |    .           |        dst: 0 (valid) 0x184-0x184.7 (1)
0x180|               00                              |     .          |        idx: 0 (valid) 0x185-0x185.7 (1)
     |                                               |                |      [1]{}: local_time_type 0x186-0x18b.7 (6)
0x180|                  00 00 70 80                  |      ..p.      |        utoff: 28800 (valid) 0x186-0x189.7 (4)
0x180|                              00               |          .     |        dst: 0 (valid) 0x18a-0x18a.7 (1)
0x180|                                 04            |           .    |        idx: 4 (valid) 0x18b-0x18b.7 (1)
     |                                               |                |      [2]{}: local_time_type 0x18c-0x191.7 (6)
0x180|                                    00 00 8c a0|            ....|        utoff: 36000 (valid) 0x18c-0x18f.7 (4)
0x190|01                                             |.               |        dst: 1 (valid) 0x190-0x190.7 (1)
0x190|   08                                          | .              |        idx: 8 (valid) 0x191-0x191.7 (1)
     |                                               |                |      [3]{}: local_time_type 0x192-0x197.7 (6)
0x190|      00 00 7e 90                              |  ..~.          |        utoff: 32400 (valid) 0x192-0x195.7 (4)
0x190|                  00                           |      .         |        dst: 0 (valid) 0x196-0x196.7 (1)
0x190|                     0c                        |       .        |        idx: 12 (valid) 0x197-0x197.7 (1)
     |                                               |                |      [4]{}: local_time_type 0x198-0x19d.7 (6)
0x190|                        00 00 7e 90            |        ..~.    |        utoff: 32400 (valid) 0x198-0x19b.7 (4)
0x190|                                    00         |            .   |        dst: 0 (valid) 0x19c-0x19c.7 (1)
0x190|                                       0c      |             .  |        idx: 12 (valid) 0x19d-0x19d.7 (1)
     |                                               |                |      [5]{}: local_time_type 0x19e-0x1a3.7 (6)
0x190|                                          00 00|              ..|        utoff: 36000 (valid) 0x19e-0x1a1.7 (4)
0x1a0|8c a0                                          |..              |
0x1a0|      01                                       |  .             |        dst: 1 (valid) 0x1a2-0x1a2.7 (1)
0x1a0|         08                                    |   .            |        idx: 8 (valid) 0x1a3-0x1a3.7 (1)
     |                                               |                |      [6]{}: local_time_type 0x1a4-0x1a9.7 (6)
0x1a0|            00 00 7e 90                        |    ..~.        |        utoff: 32400 (valid) 0x1a4-0x1a7.7 (4)
0x1a0|                        01                     |        .       |        dst: 1 (valid) 0x1a8-0x1a8.7 (1)
0x1a0|                           0c                  |         .      |        idx: 12 (valid) 0x1a9-0x1a9.7 (1)
     |                                               |                |      [7]{}: local_time_type 0x1aa-0x1af.7 (6)
0x1a0|                              00 00 70 80      |          ..p.  |        utoff: 28800 (valid) 0x1aa-0x1ad.7 (4)
0x1a0|                                          00   |              . |        dst: 0 (valid) 0x1ae-0x1ae.7 (1)
0x1a0|                                             04|               .|        idx: 4 (valid) 0x1af-0x1af.7 (1)
     |                                               |                |      [8]{}: local_time_type 0x1b0-0x1b5.7 (6)
0x1b0|00 00 9a b0                                    |....            |        utoff: 39600 (valid) 0x1b0-0x1b3.7 (4)
0x1b0|            01                                 |    .           |        dst: 1 (valid) 0x1b4-0x1b4.7 (1)
0x1b0|               10                              |     .          |        idx: 16 (valid) 0x1b5-0x1b5.7 (1)
     |                                               |                |      [9]{}: local_time_type 0x1b6-0x1bb.7 (6)
0x1b0|                  00 00 8c a0                  |      ....      |        utoff: 36000 (valid) 0x1b6-0x1b9.7 (4)
0x1b0|                              00               |          .     |        dst: 0 (valid) 0x1ba-0x1ba.7 (1)
0x1b0|                                 08            |           .    |        idx: 8 (valid) 0x1bb-0x1bb.7 (1)
     |                                               |                |      [10]{}: local_time_type 0x1bc-0x1c1.7 (6)
0x1b0|                                    00 00 8c a0|            ....|        utoff: 36000 (valid) 0x1bc-0x1bf.7 (4)
0x1c0|00                                             |.               |        dst: 0 (valid) 0x1c0-0x1c0.7 (1)
0x1c0|   08                                          | .              |        idx: 8 (valid) 0x1c1-0x1c1.7 (1)
     |                                               |                |      [11]{}: local_time_type 0x1c2-0x1c7.7 (6)
0x1c0|      00 00 9a b0                              |  ....          |        utoff: 39600 (valid) 0x1c2-0x1c5.7 (4)
0x1c0|                  00                           |      .         |        dst: 0 (valid) 0x1c6-0x1c6.7 (1)
0x1c0|                     10                        |       .        |        idx: 16 (valid) 0x1c7-0x1c7.7 (1)
     |                                               |                |      [12]{}: local_time_type 0x1c8-0x1cd.7 (6)
0x1c0|                        00 00 7e 90            |        ..~.    |        utoff: 32400 (valid) 0x1c8-0x1cb.7 (4)
0x1c0|                                    00         |            .   |        dst: 0 (valid) 0x1cc-0x1cc.7 (1)
0x1c0|                                       0c      |             .  |        idx: 12 (valid) 0x1cd-0x1cd.7 (1)
     |                                               |                |    time_zone_designations[0:5]: 0x1ce-0x1e1.7 (20)
0x1c0|                                          4c 4d|              LM|      [0]: "LMT" time_zone_designation 0x1ce-0x1d1.7 (4)
0x1d0|54 00                                          |T.              |
0x1d0|      2b 30 38 00                              |  +08.          |      [1]: "+08" time_zone_designation 0x1d2-0x1d5.7 (4)
0x1d0|                  2b 31 30 00                  |      +10.      |      [2]: "+10" time_zone_designation 0x1d6-0x1d9.7 (4)
0x1d0|                              2b 30 39 00      |          +09.  |      [3]: "+09" time_zone_designation 0x1da-0x1dd.7 (4)
0x1d0|                                          2b 31|              +1|      [4]: "+11" time_zone_designation 0x1de-0x1e1.7 (4)
0x1e0|31 00                                          |1.              |
     |                                               |                |    leap_second_records[0:27]: 0x1e2-0x2b9.7 (216)
     |                                               |                |      [0]{}: leap_second_record 0x1e2-0x1e9.7 (8)
0x1e0|      04 b2 58 00                              |  ..X.          |        occur: "1972-07-01T00:00:00Z" (78796800) 0x1e2-0x1e5.7 (4)
0x1e0|                  00 00 00 01                  |      ....      |        corr: 1 0x1e6-0x1e9.7 (4)
     |                                               |                |      [1]{}: leap_second_record 0x1ea-0x1f1.7 (8)
0x1e0|                              05 a4 ec 01      |          ....  |        occur: "1973-01-01T00:00:01Z" (94694401) 0x1ea-0x1ed.7 (4)
0x1e0|                                          00 00|              ..|        corr: 2 0x1ee-0x1f1.7 (4)
0x1f0|00 02                                          |..              |
     |                                               |                |      [2]{}: leap_second_record 0x1f2-0x1f9.7 (8)
0x1f0|      07 86 1f 82                              |  ....          |        occur: "1974-01-01T00:00:02Z" (126230402) 0x1f2-0x1f5.7 (4)
0x1f0|                  00 00 00 03                  |      ....      |        corr: 3 0x1f6-0x1f9.7 (4)
     |                                               |                |      [3]{}: leap_second_record 0x1fa-0x201.7 (8)
0x1f0|                              09 67 53 03      |          .gS.  |        occur: "1975-01-01T00:00:03Z" (157766403) 0x1fa-0x1fd.7 (4)
0x1f0|                                          00 00|              ..|        corr: 4 0x1fe-0x201.7 (4)
0x200|00 04                                          |..              |
     |                                               |                |      [4]{}: leap_second_record 0x202-0x209.7 (8)
0x200|      0b 48 86 84                              |  .H..          |        occur: "1976-01-01T00:00:04Z" (189302404) 0x202-0x205.7 (4)
0x200|                  00 00 00 05                  |      ....      |        corr: 5 0x206-0x209.7 (4)
     |                                               |                |      [5]{}: leap_second_record 0x20a-0x211.7 (8)
0x200|                              0d 2b 0b 85      |          .+..  |        occur: "1977-01-01T00:00:05Z" (220924805) 0x20a-0x20d.7 (4)
0x200|                                          00 00|              ..|        corr: 6 0x20e-0x211.7 (4)
0x210|00 06                                          |..              |
     |                                               |                |      [6]{}: leap_second_record 0x212-0x219.7 (8)
0x210|      0f 0c 3f 06                              |  ..?.          |        occur: "1978-01-01T00:00:06Z" (252460806) 0x212-0x215.7 (4)
0x210|                  00 00 00 07                  |      ....      |        corr: 7 0x216-0x219.7 (4)
     |                                               |                |      [7]{}: leap_second_record 0x21a-0x221.7 (8)
0x210|                              10 ed 72 87      |          ..r.  |        occur: "1979-01-01T00:00:07Z" (283996807) 0x21a-0x21d.7 (4)
0x210|                                          00 00|              ..|        corr: 8 0x21e-0x221.7 (4)
0x220|00 08                                          |..              |
     |                                               |                |      [8]{}: leap_second_record 0x222-0x229.7 (8)
0x220|      12 ce a6 08                              |  ....          |        occur: "1980-01-01T00:00:08Z" (315532808) 0x222-0x225.7 (4)
0x220|                  00 00 00 09                  |      ....      |        corr: 9 0x226-0x229.7 (4)
     |                                               |                |      [9]{}: leap_second_record 0x22a-0x231.7 (8)
0x220|                              15 9f ca 89      |          ....  |        occur: "1981-07-01T00:00:09Z" (362793609) 0x22a-0x22d.7 (4)
0x220|                                          00 00|              ..|        corr: 10 0x22e-0x231.7 (4)
0x230|00 0a                                          |..              |
     |                                               |                |      [10]{}: leap_second_record 0x232-0x239.7 (8)
0x230|      17 80 fe 0a                              |  ....          |        occur: "1982-07-01T00:00:10Z" (394329610) 0x232-0x235.7 (4)
0x230|                  00 00 00 0b                  |      ....      |        corr: 11 0x236-0x239.7 (4)
     |                                               |                |      [11]{}: leap_second_record 0x23a-0x241.7 (8)
0x230|                              19 62 31 8b      |          .b1.  |        occur: "1983-07-01T00:00:11Z" (425865611) 0x23a-0x23d.7 (4)
0x230|                                          00 00|              ..|        corr: 12 0x23e-0x241.7 (4)
0x240|00 0c                                          |..              |
     |                                               |                |      [12]{}: leap_second_record 0x242-0x249.7 (8)
0x240|      1d 25 ea 0c                              |  .%..          |        occur: "1985-07-01T00:00:12Z" (489024012) 0x242-0x245.7 (4)
0x240|                  00 00 00 0d                  |      ....      |        corr: 13 0x246-0x249.7 (4)
     |                                               |                |      [13]{}: leap_second_record 0x24a-0x251.7 (8)
0x240|                              21 da e5 0d      |          !...  |        occur: "1988-01-01T00:00:13Z" (567993613) 0x24a-0x24d.7 (4)
0x240|                                          00 00|              ..|        corr: 14 0x24e-0x251.7 (4)
0x250|00 0e                                          |..              |
     |                                               |                |      [14]{}: leap_second_record 0x252-0x259.7 (8)
0x250|      25 9e 9d 8e                              |  %...          |        occur: "1990-01-01T00:00:14Z" (631152014) 0x252-0x255.7 (4)
0x250|                  00 00 00 0f                  |      ....      |        corr: 15 0x256-0x259.7 (4)
     |                                               |                |      [15]{}: leap_second_record 0x25a-0x261.7 (8)
0x250|                              27 7f d1 0f      |          '...  |        occur: "1991-01-01T00:00:15Z" (662688015) 0x25a-0x25d.7 (4)
0x250|                                          00 00|              ..|        corr: 16 0x25e-0x261.7 (4)
0x260|00 10                                          |..              |
     |                                               |                |      [16]{}: leap_second_record 0x262-0x269.7 (8)
0x260|      2a 50 f5 90                              |  *P..          |        occur: "1992-07-01T00:00:16Z" (709948816) 0x262-0x265.7 (4)
0x260|                  00 00 00 11                  |      ....      |        corr: 17 0x266-0x269.7 (4)
     |                                               |                |      [17]{}: leap_second_record 0x26a-0x271.7 (8)
0x260|                              2c 32 29 11      |          ,2).  |        occur: "1993-07-01T00:00:17Z" (741484817) 0x26a-0x26d.7 (4)
0x260|                                          00 00|              ..|        corr: 18 0x26e-0x271.7 (4)
0x270|00 12                                          |..              |
     |                                               |                |      [18]{}: leap_second_record 0x272-0x279.7 (8)
0x270|      2e 13 5c 92                              |  ..\.          |        occur: "1994-07-01T00:00:18Z" (773020818) 0x272-0x275.7 (4)
0x270|                  00 00 00 13                  |      ....      |        corr: 19 0x276-0x279.7 (4)
     |                                               |                |      [19]{}: leap_second_record 0x27a-0x281.7 (8)
0x270|                              30 e7 24 13      |          0.$.  |        occur: "1996-01-01T00:00:19Z" (820454419) 0x27a-0x27d.7 (4)
0x270|                                          00 00|              ..|        corr: 20 0x27e-0x281.7 (4)
0x280|00 14                                          |..              |
     |                                               |                |      [20]{}: leap_second_record 0x282-0x289.7 (8)
0x280|      33 b8 48 94                              |  3.H.          |        occur: "1997-07-01T00:00:20Z" (867715220) 0x282-0x285.7 (4)
0x280|                  00 00 00 15                  |      ....      |        corr: 21 0x286-0x289.7 (4)
     |                                               |                |      [21]{}: leap_second_record 0x28a-0x291.7 (8)
0x280|                              36 8c 10 15      |          6...  |        occur: "1999-01-01T00:00:21Z" (915148821) 0x28a-0x28d.7 (4)
0x280|                                          00 00|              ..|        corr: 22 0x28e-0x291.7 (4)
0x290|00 16                                          |..              |
     |                                               |                |      [22]{}: leap_second_record 0x292-0x299.7 (8)
0x290|      43 b7 1b 96                              |  C...          |        occur: "2006-01-01T00:00:22Z" (1136073622) 0x292-0x295.7 (4)
0x290|                  00 00 00 17                  |      ....      |        corr: 23 0x296-0x299.7 (4)
     |                                               |                |      [23]{}: leap_second_record 0x29a-0x2a1.7 (8)
0x290|                              49 5c 07 97      |          I\..  |        occur: "2009-01-01T00:00:23Z" (1230768023) 0x29a-0x29d.7 (4)
0x290|                                          00 00|              ..|        corr: 24 0x29e-0x2a1.7 (4)
0x2a0|00 18                                          |..              |
     |                                               |                |      [24]{}: leap_second_record 0x2a2-0x2a9.7 (8)
0x2a0|      4f ef 93 18                              |  O...          |        occur: "2012-07-01T00:00:24Z" (1341100824) 0x2a2-0x2a5.7 (4)
0x2a0|                  00 00 00 19                  |      ....      |        corr: 25 0x2a6-0x2a9.7 (4)
     |                                               |                |      [25]{}: leap_second_record 0x2aa-0x2b1.7 (8)
0x2a0|                              55 93 2d 99      |          U.-.  |        occur: "2015-07-01T00:00:25Z" (1435708825) 0x2aa-0x2ad.7 (4)
0x2a0|                                          00 00|              ..|        corr: 26 0x2ae-0x2b1.7 (4)
0x2b0|00 1a                                          |..              |
     |                                               |                |      [26]{}: leap_second_record 0x2b2-0x2b9.7 (8)
0x2b0|      58 68 46 9a                              |  XhF.          |        occur: "2017-01-01T00:00:26Z" (1483228826) 0x2b2-0x2b5.7 (4)
0x2b0|                  00 00 00 1b                  |      ....      |        corr: 27 0x2b6-0x2b9.7 (4)
     |                                               |                |    standard_wall_indicators[0:13]: 0x2ba-0x2c6.7 (13)
0x2b0|                              00               |          .     |      [0]: 0 standard_wall_indicator (valid) 0x2ba-0x2ba.7 (1)
0x2b0|                                 00            |           .    |      [1]: 0 standard_wall_indicator (valid) 0x2bb-0x2bb.7 (1)
0x2b0|                                    00         |            .   |      [2]: 0 standard_wall_indicator (valid) 0x2bc-0x2bc.7 (1)
0x2b0|                                       00      |             .  |      [3]: 0 standard_wall_indicator (valid) 0x2bd-0x2bd.7 (1)
0x2b0|                                          01   |              . |      [4]: 1 standard_wall_indicator (valid) 0x2be-0x2be.7 (1)
0x2b0|                                             01|               .|      [5]: 1 standard_wall_indicator (valid) 0x2bf-0x2bf.7 (1)
0x2c0|01                                             |.               |      [6]: 1 standard_wall_indicator (valid) 0x2c0-0x2c0.7 (1)
0x2c0|   01                                          | .              |      [7]: 1 standard_wall_indicator (valid) 0x2c1-0x2c1.7 (1)
0x2c0|      01                                       |  .             |      [8]: 1 standard_wall_indicator (valid) 0x2c2-0x2c2.7 (1)
0x2c0|         01                                    |   .            |      [9]: 1 standard_wall_indicator (valid) 0x2c3-0x2c3.7 (1)
0x2c0|            00                                 |    .           |      [10]: 0 standard_wall_indicator (valid) 0x2c4-0x2c4.7 (1)
0x2c0|               01                              |     .          |      [11]: 1 standard_wall_indicator (valid) 0x2c5-0x2c5.7 (1)
0x2c0|                  01                           |      .         |      [12]: 1 standard_wall_indicator (valid) 0x2c6-0x2c6.7 (1)
     |                                               |                |    ut_local_indicators[0:0]: 0x2c7-NA (0)
     |                                               |                |  v2plusheader{}: 0x2c7-0x2f2.7 (44)
0x2c0|                     54 5a 69 66               |       TZif     |    magic: 0x545a6966 (valid) 0x2c7-0x2ca.7 (4)
0x2c0|                                 32            |           2    |    ver: "2" (0x32) (valid) 0x2cb-0x2cb.7 (1)
0x2c0|                                    00 00 00 00|            ....|    reserved: raw bits 0x2cc-0x2da.7 (15)
0x2d0|00 00 00 00 00 00 00 00 00 00 00               |...........     |
0x2d0|                                 00 00 00 00   |           .... |    isutcnt: 0 0x2db-0x2de.7 (4)
0x2d0|                                             00|               .|    isstdcnt: 13 0x2df-0x2e2.7 (4)
0x2e0|00 00 0d                                       |...             |
0x2e0|         00 00 00 1b                           |   ....         |    leapcnt: 27 0x2e3-0x2e6.7 (4)
0x2e0|                     00 00 00 44               |       ...D     |    timecnt: 68 0x2e7-0x2ea.7 (4)
0x2e0|                                 00 00 00 0d   |           .... |    typecnt: 13 0x2eb-0x2ee.7 (4)
0x2e0|                                             00|               .|    charcnt: 20 0x2ef-0x2f2.7 (4)
0x2f0|00 00 14                                       |...             |
     |                                               |                |  v2plusdatablock{}: 0x2f3-0x709.7 (1047)
     |                                               |                |    transition_times[0:68]: 0x2f3-0x512.7 (544)
0x2f0|         ff ff ff ff a1 db e4 eb               |   ........     |      [0]: "1919-12-14T14:57:47Z" (-1579424533) transition_time 0x2f3-0x2fa.7 (8)
0x2f0|                                 ff ff ff ff b5|           .....|      [1]: "1930-06-20T16:00:00Z" (-1247558400) transition_time 0x2fb-0x302.7 (8)
0x300|a3 c5 00                                       |...             |
0x300|         00 00 00 00 15 27 53 79               |   .....'Sy     |      [2]: "1981-03-31T15:00:09Z" (354898809) transition_time 0x303-0x30a.7 (8)
0x300|                                 00 00 00 00 16|           .....|      [3]: "1981-09-30T14:00:10Z" (370706410) transition_time 0x30b-0x312.7 (8)
0x310|18 87 ea                                       |...             |
0x310|         00 00 00 00 17 08 86 fa               |   ........     |      [4]: "1982-03-31T15:00:10Z" (386434810) transition_time 0x313-0x31a.7 (8)
0x310|                                 00 00 00 00 17|           .....|      [5]: "1982-09-30T14:00:11Z" (402242411) transition_time 0x31b-0x322.7 (8)
0x320|f9 bb 6b                                       |..k             |
0x320|         00 00 00 00 18 e9 ba 7b               |   .......{     |      [6]: "1983-03-31T15:00:11Z" (417970811) transition_time 0x323-0x32a.7 (8)
0x320|                                 00 00 00 00 19|           .....|      [7]: "1983-09-30T14:00:12Z" (433778412) transition_time 0x32b-0x332.7 (8)
0x330|da ee ec                                       |...             |
0x330|         00 00 00 00 1a cc 3f 7c               |   ......?|     |      [8]: "1984-03-31T15:00:12Z" (449593212) transition_time 0x333-0x33a.7 (8)
0x330|                                 00 00 00 00 1b|           .....|      [9]: "1984-09-29T17:00:12Z" (465325212) transition_time 0x33b-0x342.7 (8)
0x340|bc 4c 9c                                       |.L.             |
0x340|         00 00 00 00 1c ac 3d 9c               |   ......=.     |      [10]: "1985-03-30T17:00:12Z" (481050012) transition_time 0x343-0x34a.7 (8)
0x340|                                 00 00 00 00 1d|           .....|      [11]: "1985-09-28T17:00:13Z" (496774813) transition_time 0x34b-0x352.7 (8)
0x350|9c 2e 9d                                       |...             |
0x350|         00 00 00 00 1e 8c 1f 9d               |   ........     |      [12]: "1986-03-29T17:00:13Z" (512499613) transition_time 0x353-0x35a.7 (8)
0x350|                                 00 00 00 00 1f|           .....|      [13]: "1986-09-27T17:00:13Z" (528224413) transition_time 0x35b-0x362.7 (8)
0x360|7c 10 9d                                       ||..             |
0x360|         00 00 00 00 20 6c 01 9d               |   .... l..     |      [14]: "1987-03-28T17:00:13Z" (543949213) transition_time 0x363-0x36a.7 (8)
0x360|                                 00 00 00 00 21|           ....!|      [15]: "1987-09-26T17:00:13Z" (559674013) transition_time 0x36b-0x372.7 (8)
0x370|5b f2 9d                                       |[..             |
0x370|         00 00 00 00 22 4b e3 9e               |   ...."K..     |      [16]: "1988-03-26T17:00:14Z" (575398814) transition_time 0x373-0x37a.7 (8)
0x370|                                 00 00 00 00 23|           ....#|      [17]: "1988-09-24T17:00:14Z" (591123614) transition_time 0x37b-0x382.7 (8)
0x380|3b d4 9e                                       |;..             |
0x380|         00 00 00 00 24 2b c5 9e               |   ....$+..     |      [18]: "1989-03-25T17:00:14Z" (606848414) transition_time 0x383-0x38a.7 (8)
0x380|                                 00 00 00 00 25|           ....%|      [19]: "1989-09-23T17:00:14Z" (622573214) transition_time 0x38b-0x392.7 (8)
0x390|1b b6 9e                                       |...             |
0x390|         00 00 00 00 26 0b a7 9f               |   ....&...     |      [20]: "1990-03-24T17:00:15Z" (638298015) transition_time 0x393-0x39a.7 (8)
0x390|                                 00 00 00 00 27|           ....'|      [21]: "1990-09-29T17:00:15Z" (654627615) transition_time 0x39b-0x3a2.7 (8)
0x3a0|04 d3 1f                                       |...             |
0x3a0|         00 00 00 00 27 f4 c4 20               |   ....'..      |      [22]: "1991-03-30T17:00:16Z" (670352416) transition_time 0x3a3-0x3aa.7 (8)
0x3a0|                                 00 00 00 00 28|           ....(|      [23]: "1991-09-28T18:00:16Z" (686080816) transition_time 0x3ab-0x3b2.7 (8)
0x3b0|e4 c3 30                                       |..0             |
0x3b0|         00 00 00 00 29 78 6b 30               |   ....)xk0     |      [24]: "1992-01-18T18:00:16Z" (695757616) transition_time 0x3b3-0x3ba.7 (8)
0x3b0|                                 00 00 00 00 29|           ....)|      [25]: "1992-03-28T17:00:16Z" (701802016) transition_time 0x3bb-0x3c2.7 (8)
0x3c0|d4 a6 20                                       |..              |
0x3c0|         00 00 00 00 2a c4 97 21               |   ....*..!     |      [26]: "1992-09-26T17:00:17Z" (717526817) transition_time 0x3c3-0x3ca.7 (8)
0x3c0|                                 00 00 00 00 2b|           ....+|      [27]: "1993-03-27T17:00:17Z" (733251617) transition_time 0x3cb-0x3d2.7 (8)
0x3d0|b4 88 21                                       |..!             |
0x3d0|         00 00 00 00 2c a4 79 22               |   ....,.y"     |      [28]: "1993-09-25T17:00:18Z" (748976418) transition_time 0x3d3-0x3da.7 (8)
0x3d0|                                 00 00 00 00 2d|           ....-|      [29]: "1994-03-26T17:00:18Z" (764701218) transition_time 0x3db-0x3e2.7 (8)
0x3e0|94 6a 22                                       |.j"             |
0x3e0|         00 00 00 00 2e 84 5b 23               |   ......[#     |      [30]: "1994-09-24T17:00:19Z" (780426019) transition_time 0x3e3-0x3ea.7 (8)
0x3e0|                                 00 00 00 00 2f|           ..../|      [31]: "1995-03-25T17:00:19Z" (796150819) transition_time 0x3eb-0x3f2.7 (8)
0x3f0|74 4c 23                                       |tL#             |
0x3f0|         00 00 00 00 30 64 3d 23               |   ....0d=#     |      [32]: "1995-09-23T17:00:19Z" (811875619) transition_time 0x3f3-0x3fa.7 (8)
0x3f0|                                 00 00 00 00 31|           ....1|      [33]: "1996-03-30T17:00:20Z" (828205220) transition_time 0x3fb-0x402.7 (8)
0x400|5d 68 a4                                       |]h.             |
0x400|         00 00 00 00 32 72 43 a4               |   ....2rC.     |      [34]: "1996-10-26T17:00:20Z" (846349220) transition_time 0x403-0x40a.7 (8)
0x400|                                 00 00 00 00 33|           ....3|      [35]: "1997-03-29T17:00:20Z" (859654820) transition_time 0x40b-0x412.7 (8)
0x410|3d 4a a4                                       |=J.             |
0x410|         00 00 00 00 34 52 25 a5               |   ....4R%.     |      [36]: "1997-10-25T17:00:21Z" (877798821) transition_time 0x413-0x41a.7 (8)
0x410|                                 00 00 00 00 35|           ....5|      [37]: "1998-03-28T17:00:21Z" (891104421) transition_time 0x41b-0x422.7 (8)
0x420|1d 2c a5                                       |.,.             |
0x420|         00 00 00 00 36 32 07 a5               |   ....62..     |      [38]: "1998-10-24T17:00:21Z" (909248421) transition_time 0x423-0x42a.7 (8)
0x420|                                 00 00 00 00 36|           ....6|      [39]: "1999-03-27T17:00:22Z" (922554022) transition_time 0x42b-0x432.7 (8)
0x430|fd 0e a6                                       |...             |
0x430|         00 00 00 00 38 1b 24 26               |   ....8.$&     |      [40]: "1999-10-30T17:00:22Z" (941302822) transition_time 0x433-0x43a.7 (8)
0x430|                                 00 00 00 00 38|           ....8|      [41]: "2000-03-25T17:00:22Z" (954003622) transition_time 0x43b-0x442.7 (8)
0x440|dc f0 a6                                       |...             |
0x440|         00 00 00 00 39 fb 06 26               |   ....9..&     |      [42]: "2000-10-28T17:00:22Z" (972752422) transition_time 0x443-0x44a.7 (8)
0x440|                                 00 00 00 00 3a|           ....:|      [43]: "2001-03-24T17:00:22Z" (985453222) transition_time 0x44b-0x452.7 (8)
0x450|bc d2 a6                                       |...             |
0x450|         00 00 00 00 3b da e8 26               |   ....;..&     |      [44]: "2001-10-27T17:00:22Z" (1004202022) transition_time 0x453-0x45a.7 (8)
0x450|                                 00 00 00 00 3c|           ....<|      [45]: "2002-03-30T17:00:22Z" (1017507622) transition_time 0x45b-0x462.7 (8)
0x460|a5 ef 26                                       |..&             |
0x460|         00 00 00 00 3d ba ca 26               |   ....=..&     |      [46]: "2002-10-26T17:00:22Z" (1035651622) transition_time 0x463-0x46a.7 (8)
0x460|                                 00 00 00 00 3e|           ....>|      [47]: "2003-03-29T17:00:22Z" (1048957222) transition_time 0x46b-0x472.7 (8)
0x470|85 d1 26                                       |..&             |
0x470|         00 00 00 00 3f 9a ac 26               |   ....?..&     |      [48]: "2003-10-25T17:00:22Z" (1067101222) transition_time 0x473-0x47a.7 (8)
0x470|                                 00 00 00 00 3f|           ....?|      [49]: "2003-12-31T15:00:22Z" (1072882822) transition_time 0x47b-0x482.7 (8)
0x480|f2 e4 86                                       |...             |
0x480|         00 00 00 00 40 65 a5 16               |   ....@e..     |      [50]: "2004-03-27T16:00:22Z" (1080403222) transition_time 0x483-0x48a.7 (8)
0x480|                                 00 00 00 00 41|           ....A|      [51]: "2004-10-30T16:00:22Z" (1099152022) transition_time 0x48b-0x492.7 (8)
0x490|83 ba 96                                       |...             |
0x490|         00 00 00 00 42 45 87 16               |   ....BE..     |      [52]: "2005-03-26T16:00:22Z" (1111852822) transition_time 0x493-0x49a.7 (8)
0x490|                                 00 00 00 00 43|           ....C|      [53]: "2005-10-29T16:00:22Z" (1130601622) transition_time 0x49b-0x4a2.7 (8)
0x4a0|63 9c 96                                       |c..             |
0x4a0|         00 00 00 00 44 25 69 17               |   ....D%i.     |      [54]: "2006-03-25T16:00:23Z" (1143302423) transition_time 0x4a3-0x4aa.7 (8)
0x4a0|                                 00 00 00 00 45|           ....E|      [55]: "2006-10-28T16:00:23Z" (1162051223) transition_time 0x4ab-0x4b2.7 (8)
0x4b0|43 7e 97                                       |C~.             |
0x4b0|         00 00 00 00 46 05 4b 17               |   ....F.K.     |      [56]: "2007-03-24T16:00:23Z" (1174752023) transition_time 0x4b3-0x4ba.7 (8)
0x4b0|                                 00 00 00 00 47|           ....G|      [57]: "2007-10-27T16:00:23Z" (1193500823) transition_time 0x4bb-0x4c2.7 (8)
0x4c0|23 60 97                                       |#`.             |
0x4c0|         00 00 00 00 47 ee 67 97               |   ....G.g.     |      [58]: "2008-03-29T16:00:23Z" (1206806423) transition_time 0x4c3-0x4ca.7 (8)
0x4c0|                                 00 00 00 00 49|           ....I|      [59]: "2008-10-25T16:00:23Z" (1224950423) transition_time 0x4cb-0x4d2.7 (8)
0x4d0|03 42 97                                       |.B.             |
0x4d0|         00 00 00 00 49 ce 49 98               |   ....I.I.     |      [60]: "2009-03-28T16:00:24Z" (1238256024) transition_time 0x4d3-0x4da.7 (8)
0x4d0|                                 00 00 00 00 4a|           ....J|      [61]: "2009-10-24T16:00:24Z" (1256400024) transition_time 0x4db-0x4e2.7 (8)
0x4e0|e3 24 98                                       |.$.             |
0x4e0|         00 00 00 00 4b ae 2b 98               |   ....K.+.     |      [62]: "2010-03-27T16:00:24Z" (1269705624) transition_time 0x4e3-0x4ea.7 (8)
0x4e0|                                 00 00 00 00 4c|           ....L|      [63]: "2010-10-30T16:00:24Z" (1288454424) transition_time 0x4eb-0x4f2.7 (8)
0x4f0|cc 41 18                                       |.A.             |
0x4f0|         00 00 00 00 4d 8e 0d 98               |   ....M...     |      [64]: "2011-03-26T16:00:24Z" (1301155224) transition_time 0x4f3-0x4fa.7 (8)
0x4f0|                                 00 00 00 00 4e|           ....N|      [65]: "2011-09-12T13:00:24Z" (1315832424) transition_time 0x4fb-0x502.7 (8)
0x500|6e 02 68                                       |n.h             |
0x500|         00 00 00 00 54 4b c9 19               |   ....TK..     |      [66]: "2014-10-25T16:00:25Z" (1414252825) transition_time 0x503-0x50a.7 (8)
0x500|                                 00 00 00 00 64|           ....d|      [67]: "2023-06-28T00:00:27Z" (1687910427) transition_time 0x50b-0x512.7 (8)
0x510|9b 78 1b                                       |.x.             |
     |                                               |                |    transition_types[0:68]: 0x513-0x556.7 (68)
0x510|         01                                    |   .            |      [0]: 1 transition_type 0x513-0x513.7 (1)
0x510|            03                                 |    .           |      [1]: 3 transition_type 0x514-0x514.7 (1)
0x510|               02                              |     .          |      [2]: 2 transition_type 0x515-0x515.7 (1)
0x510|                  03                           |      .         |      [3]: 3 transition_type 0x516-0x516.7 (1)
0x510|                     02                        |       .        |      [4]: 2 transition_type 0x517-0x517.7 (1)
0x510|                        03                     |        .       |      [5]: 3 transition_type 0x518-0x518.7 (1)
0x510|                           02                  |         .      |      [6]: 2 transition_type 0x519-0x519.7 (1)
0x510|                              03               |          .     |      [7]: 3 transition_type 0x51a-0x51a.7 (1)
0x510|                                 02            |           .    |      [8]: 2 transition_type 0x51b-0x51b.7 (1)
0x510|                                    04         |            .   |      [9]: 4 transition_type 0x51c-0x51c.7 (1)
0x510|                                       05      |             .  |      [10]: 5 transition_type 0x51d-0x51d.7 (1)
0x510|                                          04   |              . |      [11]: 4 transition_type 0x51e-0x51e.7 (1)
0x510|                                             05|               .|      [12]: 5 transition_type 0x51f-0x51f.7 (1)
0x520|04                                             |.               |      [13]: 4 transition_type 0x520-0x520.7 (1)
0x520|   05                                          | .              |      [14]: 5 transition_type 0x521-0x521.7 (1)
0x520|      04                                       |  .             |      [15]: 4 transition_type 0x522-0x522.7 (1)
0x520|         05                                    |   .            |      [16]: 5 transition_type 0x523-0x523.7 (1)
0x520|            04                                 |    .           |      [17]: 4 transition_type 0x524-0x524.7 (1)
0x520|               05                              |     .          |      [18]: 5 transition_type 0x525-0x525.7 (1)
0x520|                  04                           |      .         |      [19]: 4 transition_type 0x526-0x526.7 (1)
0x520|                     05                        |       .        |      [20]: 5 transition_type 0x527-0x527.7 (1)
0x520|                        04                     |        .       |      [21]: 4 transition_type 0x528-0x528.7 (1)
0x520|                           06                  |         .      |      [22]: 6 transition_type 0x529-0x529.7 (1)
0x520|                              07               |          .     |      [23]: 7 transition_type 0x52a-0x52a.7 (1)
0x520|                                 04            |           .    |      [24]: 4 transition_type 0x52b-0x52b.7 (1)
0x520|                                    05         |            .   |      [25]: 5 transition_type 0x52c-0x52c.7 (1)
0x520|                                       04      |             .  |      [26]: 4 transition_type 0x52d-0x52d.7 (1)
0x520|                                          05   |              . |      [27]: 5 transition_type 0x52e-0x52e.7 (1)
0x520|                                             04|               .|      [28]: 4 transition_type 0x52f-0x52f.7 (1)
0x530|05                                             |.               |      [29]: 5 transition_type 0x530-0x530.7 (1)
0x530|   04                                          | .              |      [30]: 4 transition_type 0x531-0x531.7 (1)
0x530|      05                                       |  .             |      [31]: 5 transition_type 0x532-0x532.7 (1)
0x530|         04                                    |   .            |      [32]: 4 transition_type 0x533-0x533.7 (1)
0x530|            05                                 |    .           |      [33]: 5 transition_type 0x534-0x534.7 (1)
0x530|               04                              |     .          |      [34]: 4 transition_type 0x535-0x535.7 (1)
0x530|                  05                           |      .         |      [35]: 5 transition_type 0x536-0x536.7 (1)
0x530|                     04                        |       .        |      [36]: 4 transition_type 0x537-0x537.7 (1)
0x530|                        05                     |        .       |      [37]: 5 transition_type 0x538-0x538.7 (1)
0x530|                           04                  |         .      |      [38]: 4 transition_type 0x539-0x539.7 (1)
0x530|                              05               |          .     |      [39]: 5 transition_type 0x53a-0x53a.7 (1)
0x530|                                 04            |           .    |      [40]: 4 transition_type 0x53b-0x53b.7 (1)
0x530|                                    05         |            .   |      [41]: 5 transition_type 0x53c-0x53c.7 (1)
0x530|                                       04      |             .  |      [42]: 4 transition_type 0x53d-0x53d.7 (1)
0x530|                                          05   |              . |      [43]: 5 transition_type 0x53e-0x53e.7 (1)
0x530|                                             04|               .|      [44]: 4 transition_type 0x53f-0x53f.7 (1)
0x540|05                                             |.               |      [45]: 5 transition_type 0x540-0x540.7 (1)
0x540|   04                                          | .              |      [46]: 4 transition_type 0x541-0x541.7 (1)
0x540|      05                                       |  .             |      [47]: 5 transition_type 0x542-0x542.7 (1)
0x540|         04                                    |   .            |      [48]: 4 transition_type 0x543-0x543.7 (1)
0x540|            0a                                 |    .           |      [49]: 10 transition_type 0x544-0x544.7 (1)
0x540|               08                              |     .          |      [50]: 8 transition_type 0x545-0x545.7 (1)
0x540|                  09                           |      .         |      [51]: 9 transition_type 0x546-0x546.7 (1)
0x540|                     08                        |       .        |      [52]: 8 transition_type 0x547-0x547.7 (1)
0x540|                        09                     |        .       |      [53]: 9 transition_type 0x548-0x548.7 (1)
0x540|                           08                  |         .      |      [54]: 8 transition_type 0x549-0x549.7 (1)
0x540|                              09               |          .     |      [55]: 9 transition_type 0x54a-0x54a.7 (1)
0x540|                                 08            |           .    |      [56]: 8 transition_type 0x54b-0x54b.7 (1)
0x540|                                    09         |            .   |      [57]: 9 transition_type 0x54c-0x54c.7 (1)
0x540|                                       08      |             .  |      [58]: 8 transition_type 0x54d-0x54d.7 (1)
0x540|                                          09   |              . |      [59]: 9 transition_type 0x54e-0x54e.7 (1)
0x540|                                             08|               .|      [60]: 8 transition_type 0x54f-0x54f.7 (1)
0x550|09                                             |.               |      [61]: 9 transition_type 0x550-0x550.7 (1)
0x550|   08                                          | .              |      [62]: 8 transition_type 0x551-0x551.7 (1)
0x550|      09                                       |  .             |      [63]: 9 transition_type 0x552-0x552.7 (1)
0x550|         0b                                    |   .            |      [64]: 11 transition_type 0x553-0x553.7 (1)
0x550|            09                                 |    .           |      [65]: 9 transition_type 0x554-0x554.7 (1)
0x550|               04                              |     .          |      [66]: 4 transition_type 0x555-0x555.7 (1)
0x550|                  04                           |      .         |      [67]: 4 transition_type 0x556-0x556.7 (1)
     |                                               |                |    local_time_type_records[0:13]: 0x557-0x5a4.7 (78)
     |                                               |                |      [0]{}: local_time_type 0x557-0x55c.7 (6)
0x550|                     00 00 7f 15               |       ....     |        utoff: 32533 (valid) 0x557-0x55a.7 (4)
0x550|                                 00            |           .    |        dst: 0 (valid) 0x55b-0x55b.7 (1)
0x550|                                    00         |            .   |        idx: 0 (valid) 0x55c-0x55c.7 (1)
     |                                               |                |      [1]{}: local_time_type 0x55d-0x562.7 (6)
0x550|                                       00 00 70|             ..p|        utoff: 28800 (valid) 0x55d-0x560.7 (4)
0x560|80                                             |.               |
0x560|   00                                          | .              |        dst: 0 (valid) 0x561-0x561.7 (1)
0x560|      04                                       |  .             |        idx: 4 (valid) 0x562-0x562.7 (1)
     |                                               |                |      [2]{}: local_time_type 0x563-0x568.7 (6)
0x560|         00 00 8c a0                           |   ....         |        utoff: 36000 (valid) 0x563-0x566.7 (4)
0x560|                     01                        |       .        |        dst: 1 (valid) 0x567-0x567.7 (1)
0x560|                        08                     |        .       |        idx: 8 (valid) 0x568-0x568.7 (1)
     |                                               |                |      [3]{}: local_time_type 0x569-0x56e.7 (6)
0x560|                           00 00 7e 90         |         ..~.   |        utoff: 32400 (valid) 0x569-0x56c.7 (4)
0x560|                                       00      |             .  |        dst: 0 (valid) 0x56d-0x56d.7 (1)
0x560|                                          0c   |              . |        idx: 12 (valid) 0x56e-0x56e.7 (1)
     |                                               |                |      [4]{}: local_time_type 0x56f-0x574.7 (6)
0x560|                                             00|               .|        utoff: 32400 (valid) 0x56f-0x572.7 (4)
0x570|00 7e 90                                       |.~.             |
0x570|         00                                    |   .            |        dst: 0 (valid) 0x573-0x573.7 (1)
0x570|            0c                                 |    .           |        idx: 12 (valid) 0x574-0x574.7 (1)
     |                                               |                |      [5]{}: local_time_type 0x575-0x57a.7 (6)
0x570|               00 00 8c a0                     |     ....       |        utoff: 36000 (valid) 0x575-0x578.7 (4)
0x570|                           01                  |         .      |        dst: 1 (valid) 0x579-0x579.7 (1)
0x570|                              08               |          .     |        idx: 8 (valid) 0x57a-0x57a.7 (1)
     |                                               |                |      [6]{}: local_time_type 0x57b-0x580.7 (6)
0x570|                                 00 00 7e 90   |           ..~. |        utoff: 32400 (valid) 0x57b-0x57e.7 (4)
0x570|                                             01|               .|        dst: 1 (valid) 0x57f-0x57f.7 (1)
0x580|0c                                             |.               |        idx: 12 (valid) 0x580-0x580.7 (1)
     |                                               |                |      [7]{}: local_time_type 0x581-0x586.7 (6)
0x580|   00 00 70 80                                 | ..p.           |        utoff: 28800 (valid) 0x581-0x584.7 (4)
0x580|               00                              |     .          |        dst: 0 (valid) 0x585-0x585.7 (1)
0x580|                  04                           |      .         |        idx: 4 (valid) 0x586-0x586.7 (1)
     |                                               |                |      [8]{}: local_time_type 0x587-0x58c.7 (6)
0x580|                     00 00 9a b0               |       ....     |        utoff: 39600 (valid) 0x587-0x58a.7 (4)
0x580|                                 01            |           .    |        dst: 1 (valid) 0x58b-0x58b.7 (1)
0x580|                                    10         |            .   |        idx: 16 (valid) 0x58c-0x58c.7 (1)
     |                                               |                |      [9]{}: local_time_type 0x58d-0x592.7 (6)
0x580|                                       00 00 8c|             ...|        utoff: 36000 (valid) 0x58d-0x590.7 (4)
0x590|a0                                             |.               |
0x590|   00                                          | .              |        dst: 0 (valid) 0x591-0x591.7 (1)
0x590|      08                                       |  .             |        idx: 8 (valid) 0x592-0x592.7 (1)
     |                                               |                |      [10]{}: local_time_type 0x593-0x598.7 (6)
0x590|         00 00 8c a0                           |   ....         |        utoff: 36000 (valid) 0x593-0x596.7 (4)
0x590|                     00                        |       .        |        dst: 0 (valid) 0x597-0x597.7 (1)
0x590|                        08                     |        .       |        idx: 8 (valid) 0x598-0x598.7 (1)
     |                                               |                |      [11]{}: local_time_type 0x599-0x59e.7 (6)
0x590|                           00 00 9a b0         |         ....   |        utoff: 39600 (valid) 0x599-0x59c.7 (4)
0x590|                                       00      |             .  |        dst: 0 (valid) 0x59d-0x59d.7 (1)
0x590|                                          10   |              . |        idx: 16 (valid) 0x59e-0x59e.7 (1)
     |                                               |                |      [12]{}: local_time_type 0x59f-0x5a4.7 (6)
0x590|                                             00|               .|        utoff: 32400 (valid) 0x59f-0x5a2.7 (4)
0x5a0|00 7e 90                                       |.~.             |
0x5a0|         00                                    |   .            |        dst: 0 (valid) 0x5a3-0x5a3.7 (1)
0x5a0|            0c                                 |    .           |        idx: 12 (valid) 0x5a4-0x5a4.7 (1)
     |                                               |                |    time_zone_designations[0:5]: 0x5a5-0x5b8.7 (20)
0x5a0|               4c 4d 54 00                     |     LMT.       |      [0]: "LMT" time_zone_designation 0x5a5-0x5a8.7 (4)
0x5a0|                           2b 30 38 00         |         +08.   |      [1]: "+08" time_zone_designation 0x5a9-0x5ac.7 (4)
0x5a0|                                       2b 31 30|             +10|      [2]: "+10" time_zone_designation 0x5ad-0x5b0.7 (4)
0x5b0|00                                             |.               |
0x5b0|   2b 30 39 00                                 | +09.           |      [3]: "+09" time_zone_designation 0x5b1-0x5b4.7 (4)
0x5b0|               2b 31 31 00                     |     +11.       |      [4]: "+11" time_zone_designation 0x5b5-0x5b8.7 (4)
     |                                               |                |    leap_second_records[0:27]: 0x5b9-0x6fc.7 (324)
     |                                               |                |      [0]{}: leap_second_record 0x5b9-0x5c4.7 (12)
0x5b0|                           00 00 00 00 04 b2 58|         ......X|        occur: "1972-07-01T00:00:00Z" (78796800) 0x5b9-0x5c0.7 (8)
0x5c0|00                                             |.               |
0x5c0|   00 00 00 01                                 | ....           |        corr: 1 0x5c1-0x5c4.7 (4)
     |                                               |                |      [1]{}: leap_second_record 0x5c5-0x5d0.7 (12)
0x5c0|               00 00 00 00 05 a4 ec 01         |     ........   |        occur: "1973-01-01T00:00:01Z" (94694401) 0x5c5-0x5cc.7 (8)
0x5c0|                                       00 00 00|             ...|        corr: 2 0x5cd-0x5d0.7 (4)
0x5d0|02                                             |.               |
     |                                               |                |      [2]{}: leap_second_record 0x5d1-0x5dc.7 (12)
0x5d0|   00 00 00 00 07 86 1f 82                     | ........       |        occur: "1974-01-01T00:00:02Z" (126230402) 0x5d1-0x5d8.7 (8)
0x5d0|                           00 00 00 03         |         ....   |        corr: 3 0x5d9-0x5dc.7 (4)
     |                                               |                |      [3]{}: leap_second_record 0x5dd-0x5e8.7 (12)
0x5d0|                                       00 00 00|             ...|        occur: "1975-01-01T00:00:03Z" (157766403) 0x5dd-0x5e4.7 (8)
0x5e0|00 09 67 53 03                                 |..gS.           |
0x5e0|               00 00 00 04                     |     ....       |        corr: 4 0x5e5-0x5e8.7 (4)
     |                                               |                |      [4]{}: leap_second_record 0x5e9-0x5f4.7 (12)
0x5e0|                           00 00 00 00 0b 48 86|         .....H.|        occur: "1976-01-01T00:00:04Z" (189302404) 0x5e9-0x5f0.7 (8)
0x5f0|84                                             |.               |
0x5f0|   00 00 00 05                                 | ....           |        corr: 5 0x5f1-0x5f4.7 (4)
     |                                               |                |      [5]{}: leap_second_record 0x5f5-0x600.7 (12)
0x5f0|               00 00 00 00 0d 2b 0b 85         |     .....+..   |        occur: "1977-01-01T00:00:05Z" (220924805) 0x5f5-0x5fc.7 (8)
0x5f0|                                       00 00 00|             ...|        corr: 6 0x5fd-0x600.7 (4)
0x600|06                                             |.               |
     |                                               |                |      [6]{}: leap_second_record 0x601-0x60c.7 (12)
0x600|   00 00 00 00 0f 0c 3f 06                     | ......?.       |        occur: "1978-01-01T00:00:06Z" (252460806) 0x601-0x608.7 (8)
0x600|                           00 00 00 07         |         ....   |        corr: 7 0x609-0x60c.7 (4)
     |                                               |                |      [7]{}: leap_second_record 0x60d-0x618.7 (12)
0x600|                                       00 00 00|             ...|        occur: "1979-01-01T00:00:07Z" (283996807) 0x60d-0x614.7 (8)
0x610|00 10 ed 72 87                                 |...r.           |
0x610|               00 00 00 08                     |     ....       |        corr: 8 0x615-0x618.7 (4)
     |                                               |                |      [8]{}: leap_second_record 0x619-0x624.7 (12)
0x610|                           00 00 00 00 12 ce a6|         .......|        occur: "1980-01-01T00:00:08Z" (315532808) 0x619-0x620.7 (8)
0x620|08                                             |.               |
0x620|   00 00 00 09                                 | ....           |        corr: 9 0x621-0x624.7 (4)
     |                                               |                |      [9]{}: leap_second_record 0x625-0x630.7 (12)
0x620|               00 00 00 00 15 9f ca 89         |     ........   |        occur: "1981-07-01T00:00:09Z" (362793609) 0x625-0x62c.7 (8)
0x620|                                       00 00 00|             ...|        corr: 10 0x62d-0x630.7 (4)
0x630|0a                                             |.               |
     |                                               |                |      [10]{}: leap_second_record 0x631-0x63c.7 (12)
0x630|   00 00 00 00 17 80 fe 0a                     | ........       |        occur: "1982-07-01T00:00:10Z" (394329610) 0x631-0x638.7 (8)
0x630|                           00 00 00 0b         |         ....   |        corr: 11 0x639-0x63c.7 (4)
     |                                               |                |      [11]{}: leap_second_record 0x63d-0x648.7 (12)
0x630|                                       00 00 00|             ...|        occur: "1983-07-01T00:00:11Z" (425865611) 0x63d-0x644.7 (8)
0x640|00 19 62 31 8b                                 |..b1.           |
0x640|               00 00 00 0c                     |     ....       |        corr: 12 0x645-0x648.7 (4)
     |                                               |                |      [12]{}: leap_second_record 0x649-0x654.7 (12)
0x640|                           00 00 00 00 1d 25 ea|         .....%.|        occur: "1985-07-01T00:00:12Z" (489024012) 0x649-0x650.7 (8)
0x650|0c                                             |.               |
0x650|   00 00 00 0d                                 | ....           |        corr: 13 0x651-0x654.7 (4)
     |                                               |                |      [13]{}: leap_second_record 0x655-0x660.7 (12)
0x650|               00 00 00 00 21 da e5 0d         |     ....!...   |        occur: "1988-01-01T00:00:13Z" (567993613) 0x655-0x65c.7 (8)
0x650|                                       00 00 00|             ...|        corr: 14 0x65d-0x660.7 (4)
0x660|0e                                             |.               |
     |                                               |                |      [14]{}: leap_second_record 0x661-0x66c.7 (12)
0x660|   00 00 00 00 25 9e 9d 8e                     | ....%...       |        occur: "1990-01-01T00:00:14Z" (631152014) 0x661-0x668.7 (8)
0x660|                           00 00 00 0f         |         ....   |        corr: 15 0x669-0x66c.7 (4)
     |                                               |                |      [15]{}: leap_second_record 0x66d-0x678.7 (12)
0x660|                                       00 00 00|             ...|        occur: "1991-01-01T00:00:15Z" (662688015) 0x66d-0x674.7 (8)
0x670|00 27 7f d1 0f                                 |.'...           |
0x670|               00 00 00 10                     |     ....       |        corr: 16 0x675-0x678.7 (4)
     |                                               |                |      [16]{}: leap_second_record 0x679-0x684.7 (12)
0x670|                           00 00 00 00 2a 50 f5|         ....*P.|        occur: "1992-07-01T00:00:16Z" (709948816) 0x679-0x680.7 (8)
0x680|90                                             |.               |
0x680|   00 00 00 11                                 | ....           |        corr: 17 0x681-0x684.7 (4)
     |                                               |                |      [17]{}: leap_second_record 0x685-0x690.7 (12)
0x680|               00 00 00 00 2c 32 29 11         |     ....,2).   |        occur: "1993-07-01T00:00:17Z" (741484817) 0x685-0x68c.7 (8)
0x680|                                       00 00 00|             ...|        corr: 18 0x68d-0x690.7 (4)
0x690|12                                             |.               |
     |                                               |                |      [18]{}: leap_second_record 0x691-0x69c.7 (12)
0x690|   00 00 00 00 2e 13 5c 92                     | ......\.       |        occur: "1994-07-01T00:00:18Z" (773020818) 0x691-0x698.7 (8)
0x690|                           00 00 00 13         |         ....   |        corr: 19 0x699-0x69c.7 (4)
     |                                               |                |      [19]{}: leap_second_record 0x69d-0x6a8.7 (12)
0x690|                                       00 00 00|             ...|        occur: "1996-01-01T00:00:19Z" (820454419) 0x69d-0x6a4.7 (8)
0x6a0|00 30 e7 24 13                                 |.0.$.           |
0x6a0|               00 00 00 14                     |     ....       |        corr: 20 0x6a5-0x6a8.7 (4)
     |                                               |                |      [20]{}: leap_second_record 0x6a9-0x6b4.7 (12)
0x6a0|                           00 00 00 00 33 b8 48|         ....3.H|        occur: "1997-07-01T00:00:20Z" (867715220) 0x6a9-0x6b0.7 (8)
0x6b0|94                                             |.               |
0x6b0|   00 00 00 15                                 | ....           |        corr: 21 0x6b1-0x6b4.7 (4)
     |                                               |                |      [21]{}: leap_second_record 0x6b5-0x6c0.7 (12)
0x6b0|               00 00 00 00 36 8c 10 15         |     ....6...   |        occur: "1999-01-01T00:00:21Z" (915148821) 0x6b5-0x6bc.7 (8)
0x6b0|                                       00 00 00|             ...|        corr: 22 0x6bd-0x6c0.7 (4)
0x6c0|16                                             |.               |
     |                                               |                |      [22]{}: leap_second_record 0x6c1-0x6cc.7 (12)
0x6c0|   00 00 00 00 43 b7 1b 96                     | ....C...       |        occur: "2006-01-01T00:00:22Z" (1136073622) 0x6c1-0x6c8.7 (8)
0x6c0|                           00 00 00 17         |         ....   |        corr: 23 0x6c9-0x6cc.7 (4)
     |                                               |                |      [23]{}: leap_second_record 0x6cd-0x6d8.7 (12)
0x6c0|                                       00 00 00|             ...|        occur: "2009-01-01T00:00:23Z" (1230768023) 0x6cd-0x6d4.7 (8)
0x6d0|00 49 5c 07 97                                 |.I\..           |
0x6d0|               00 00 00 18                     |     ....       |        corr: 24 0x6d5-0x6d8.7 (4)
     |                                               |                |      [24]{}: leap_second_record 0x6d9-0x6e4.7 (12)
0x6d0|                           00 00 00 00 4f ef 93|         ....O..|        occur: "2012-07-01T00:00:24Z" (1341100824) 0x6d9-0x6e0.7 (8)
0x6e0|18                                             |.               |
0x6e0|   00 00 00 19                                 | ....           |        corr: 25 0x6e1-0x6e4.7 (4)
     |                                               |                |      [25]{}: leap_second_record 0x6e5-0x6f0.7 (12)
0x6e0|               00 00 00 00 55 93 2d 99         |     ....U.-.   |        occur: "2015-07-01T00:00:25Z" (1435708825) 0x6e5-0x6ec.7 (8)
0x6e0|                                       00 00 00|             ...|        corr: 26 0x6ed-0x6f0.7 (4)
0x6f0|1a                                             |.               |
     |                                               |                |      [26]{}: leap_second_record 0x6f1-0x6fc.7 (12)
0x6f0|   00 00 00 00 58 68 46 9a                     | ....XhF.       |        occur: "2017-01-01T00:00:26Z" (1483228826) 0x6f1-0x6f8.7 (8)
0x6f0|                           00 00 00 1b         |         ....   |        corr: 27 0x6f9-0x6fc.7 (4)
     |                                               |                |    standard_wall_indicators[0:13]: 0x6fd-0x709.7 (13)
0x6f0|                                       00      |             .  |      [0]: 0 standard_wall_indicator (valid) 0x6fd-0x6fd.7 (1)
0x6f0|                                          00   |              . |      [1]: 0 standard_wall_indicator (valid) 0x6fe-0x6fe.7 (1)
0x6f0|                                             00|               .|      [2]: 0 standard_wall_indicator (valid) 0x6ff-0x6ff.7 (1)
0x700|00                                             |.               |      [3]: 0 standard_wall_indicator (valid) 0x700-0x700.7 (1)
0x700|   01                                          | .              |      [4]: 1 standard_wall_indicator (valid) 0x701-0x701.7 (1)
0x700|      01                                       |  .             |      [5]: 1 standard_wall_indicator (valid) 0x702-0x702.7 (1)
0x700|         01                                    |   .            |      [6]: 1 standard_wall_indicator (valid) 0x703-0x703.7 (1)
0x700|            01                                 |    .           |      [7]: 1 standard_wall_indicator (valid) 0x704-0x704.7 (1)
0x700|               01                              |     .          |      [8]: 1 standard_wall_indicator (valid) 0x705-0x705.7 (1)
0x700|                  01                           |      .         |      [9]: 1 standard_wall_indicator (valid) 0x706-0x706.7 (1)
0x700|                     00                        |       .        |      [10]: 0 standard_wall_indicator (valid) 0x707-0x707.7 (1)
0x700|                        01                     |        .       |      [11]: 1 standard_wall_indicator (valid) 0x708-0x708.7 (1)
0x700|                           01                  |         .      |      [12]: 1 standard_wall_indicator (valid) 0x709-0x709.7 (1)
     |                                               |                |    ut_local_indicators[0:0]: 0x70a-NA (0)
     |                                               |                |  footer{}: 0x70a-0x70b.7 (2)
0x700|                              0a               |          .     |    nl1: 10 (valid) 0x70a-0x70a.7 (1)
     |                                               |                |    tz_string: "" 0x70b-NA (0)
0x700|                                 0a|           |           .|   |    nl2: 10 (valid) 0x70b-0x70b.7 (1)
