$ fq -d tzif dv Khartoum
     |00 01 02 03 04 05 06 07 08 09 0a 0b 0c 0d 0e 0f|0123456789abcdef|.{}: Khartoum (tzif) 0x0-0x2a7 (679)
     |                                               |                |  v1header{}: 0x0-0x2c (44)
0x000|54 5a 69 66                                    |TZif            |    magic: 0x545a6966 (valid) 0x0-0x4 (4)
0x000|            32                                 |    2           |    ver: "2" (0x32) (valid) 0x4-0x5 (1)
0x000|               00 00 00 00 00 00 00 00 00 00 00|     ...........|    reserved: raw bits 0x5-0x14 (15)
0x010|00 00 00 00                                    |....            |
0x010|            00 00 00 00                        |    ....        |    isutcnt: 0 0x14-0x18 (4)
0x010|                        00 00 00 00            |        ....    |    isstdcnt: 0 0x18-0x1c (4)
0x010|                                    00 00 00 00|            ....|    leapcnt: 0 0x1c-0x20 (4)
0x020|00 00 00 23                                    |...#            |    timecnt: 35 0x20-0x24 (4)
0x020|            00 00 00 05                        |    ....        |    typecnt: 5 0x24-0x28 (4)
0x020|                        00 00 00 11            |        ....    |    charcnt: 17 0x28-0x2c (4)
     |                                               |                |  v1datablock{}: 0x2c-0x10a (222)
     |                                               |                |    transition_times[0:35]: 0x2c-0xb8 (140)
0x020|                                    b6 a3 da 00|            ....|      [0]: "1930-12-31T21:49:52Z" (-1230775808) transition_time 0x2c-0x30 (4)
0x030|00 9e 17 e0                                    |....            |      [1]: "1970-04-30T22:00:00Z" (10360800) transition_time 0x30-0x34 (4)
0x030|            01 7a 34 50                        |    .z4P        |      [2]: "1970-10-14T21:00:00Z" (24786000) transition_time 0x34-0x38 (4)
0x030|                        02 7d f9 e0            |        .}..    |      [3]: "1971-04-29T22:00:00Z" (41810400) transition_time 0x38-0x3c (4)
0x030|                                    03 5b 67 d0|            .[g.|      [4]: "1971-10-14T21:00:00Z" (56322000) transition_time 0x3c-0x40 (4)
0x040|04 60 7e e0                                    |.`~.            |      [5]: "1972-04-29T22:00:00Z" (73432800) transition_time 0x40-0x44 (4)
0x040|            05 3d ec d0                        |    .=..        |      [6]: "1972-10-14T21:00:00Z" (87944400) transition_time 0x44-0x48 (4)
0x040|                        06 40 60 e0            |        .@`.    |      [7]: "1973-04-28T22:00:00Z" (104882400) transition_time 0x48-0x4c (4)
0x040|                                    07 1f 20 50|            .. P|      [8]: "1973-10-14T21:00:00Z" (119480400) transition_time 0x4c-0x50 (4)
0x050|08 20 42 e0                                    |. B.            |      [9]: "1974-04-27T22:00:00Z" (136332000) transition_time 0x50-0x54 (4)
0x050|            09 00 53 d0                        |    ..S.        |      [10]: "1974-10-14T21:00:00Z" (151016400) transition_time 0x54-0x58 (4)
0x050|                        0a 00 24 e0            |        ..$.    |      [11]: "1975-04-26T22:00:00Z" (167781600) transition_time 0x58-0x5c (4)
0x050|                                    0a e1 87 50|            ...P|      [12]: "1975-10-14T21:00:00Z" (182552400) transition_time 0x5c-0x60 (4)
0x060|0b e0 06 e0                                    |....            |      [13]: "1976-04-24T22:00:00Z" (199231200) transition_time 0x60-0x64 (4)
0x060|            0c c4 0c 50                        |    ...P        |      [14]: "1976-10-14T21:00:00Z" (214174800) transition_time 0x64-0x68 (4)
0x060|                        0d bf e8 e0            |        ....    |      [15]: "1977-04-23T22:00:00Z" (230680800) transition_time 0x68-0x6c (4)
0x060|                                    0e a5 3f d0|            ..?.|      [16]: "1977-10-14T21:00:00Z" (245710800) transition_time 0x6c-0x70 (4)
0x070|0f a9 05 60                                    |...`            |      [17]: "1978-04-29T22:00:00Z" (262735200) transition_time 0x70-0x74 (4)
0x070|            10 86 73 50                        |    ..sP        |      [18]: "1978-10-14T21:00:00Z" (277246800) transition_time 0x74-0x78 (4)
0x070|                        11 88 e7 60            |        ...`    |      [19]: "1979-04-28T22:00:00Z" (294184800) transition_time 0x78-0x7c (4)
0x070|                                    12 67 a6 d0|            .g..|      [20]: "1979-10-14T21:00:00Z" (308782800) transition_time 0x7c-0x80 (4)
0x080|13 68 c9 60                                    |.h.`            |      [21]: "1980-04-26T22:00:00Z" (325634400) transition_time 0x80-0x84 (4)
0x080|            14 4a 2b d0                        |    .J+.        |      [22]: "1980-10-14T21:00:00Z" (340405200) transition_time 0x84-0x88 (4)
0x080|                        15 48 ab 60            |        .H.`    |      [23]: "1981-04-25T22:00:00Z" (357084000) transition_time 0x88-0x8c (4)
0x080|                                    16 2b 5f 50|            .+_P|      [24]: "1981-10-14T21:00:00Z" (371941200) transition_time 0x8c-0x90 (4)
0x090|17 28 8d 60                                    |.(.`            |      [25]: "1982-04-24T22:00:00Z" (388533600) transition_time 0x90-0x94 (4)
0x090|            18 0c 92 d0                        |    ....        |      [26]: "1982-10-14T21:00:00Z" (403477200) transition_time 0x94-0x98 (4)
0x090|                        19 08 6f 60            |        ..o`    |      [27]: "1983-04-23T22:00:00Z" (419983200) transition_time 0x98-0x9c (4)
0x090|                                    19 ed c6 50|            ...P|      [28]: "1983-10-14T21:00:00Z" (435013200) transition_time 0x9c-0xa0 (4)
0x0a0|1a f1 8b e0                                    |....            |      [29]: "1984-04-28T22:00:00Z" (452037600) transition_time 0xa0-0xa4 (4)
0x0a0|            1b d0 4b 50                        |    ..KP        |      [30]: "1984-10-14T21:00:00Z" (466635600) transition_time 0xa4-0xa8 (4)
0x0a0|                        1c d1 6d e0            |        ..m.    |      [31]: "1985-04-27T22:00:00Z" (483487200) transition_time 0xa8-0xac (4)
0x0a0|                                    1d b1 7e d0|            ..~.|      [32]: "1985-10-14T21:00:00Z" (498171600) transition_time 0xac-0xb0 (4)
0x0b0|38 80 45 20                                    |8.E             |      [33]: "2000-01-15T10:00:00Z" (947930400) transition_time 0xb0-0xb4 (4)
0x0b0|            59 f8 e4 50                        |    Y..P        |      [34]: "2017-10-31T21:00:00Z" (1509483600) transition_time 0xb4-0xb8 (4)
     |                                               |                |    transition_types[0:35]: 0xb8-0xdb (35)
0x0b0|                        02                     |        .       |      [0]: 2 transition_type 0xb8-0xb9 (1)
0x0b0|                           01                  |         .      |      [1]: 1 transition_type 0xb9-0xba (1)
0x0b0|                              02               |          .     |      [2]: 2 transition_type 0xba-0xbb (1)
0x0b0|                                 01            |           .    |      [3]: 1 transition_type 0xbb-0xbc (1)
0x0b0|                                    02         |            .   |      [4]: 2 transition_type 0xbc-0xbd (1)
0x0b0|                                       01      |             .  |      [5]: 1 transition_type 0xbd-0xbe (1)
0x0b0|                                          02   |              . |      [6]: 2 transition_type 0xbe-0xbf (1)
0x0b0|                                             01|               .|      [7]: 1 transition_type 0xbf-0xc0 (1)
0x0c0|02                                             |.               |      [8]: 2 transition_type 0xc0-0xc1 (1)
0x0c0|   01                                          | .              |      [9]: 1 transition_type 0xc1-0xc2 (1)
0x0c0|      02                                       |  .             |      [10]: 2 transition_type 0xc2-0xc3 (1)
0x0c0|         01                                    |   .            |      [11]: 1 transition_type 0xc3-0xc4 (1)
0x0c0|            02                                 |    .           |      [12]: 2 transition_type 0xc4-0xc5 (1)
0x0c0|               01                              |     .          |      [13]: 1 transition_type 0xc5-0xc6 (1)
0x0c0|                  02                           |      .         |      [14]: 2 transition_type 0xc6-0xc7 (1)
0x0c0|                     01                        |       .        |      [15]: 1 transition_type 0xc7-0xc8 (1)
0x0c0|                        02                     |        .       |      [16]: 2 transition_type 0xc8-0xc9 (1)
0x0c0|                           01                  |         .      |      [17]: 1 transition_type 0xc9-0xca (1)
0x0c0|                              02               |          .     |      [18]: 2 transition_type 0xca-0xcb (1)
0x0c0|                                 01            |           .    |      [19]: 1 transition_type 0xcb-0xcc (1)
0x0c0|                                    02         |            .   |      [20]: 2 transition_type 0xcc-0xcd (1)
0x0c0|                                       01      |             .  |      [21]: 1 transition_type 0xcd-0xce (1)
0x0c0|                                          02   |              . |      [22]: 2 transition_type 0xce-0xcf (1)
0x0c0|                                             01|               .|      [23]: 1 transition_type 0xcf-0xd0 (1)
0x0d0|02                                             |.               |      [24]: 2 transition_type 0xd0-0xd1 (1)
0x0d0|   01                                          | .              |      [25]: 1 transition_type 0xd1-0xd2 (1)
0x0d0|      02                                       |  .             |      [26]: 2 transition_type 0xd2-0xd3 (1)
0x0d0|         01                                    |   .            |      [27]: 1 transition_type 0xd3-0xd4 (1)
0x0d0|            02                                 |    .           |      [28]: 2 transition_type 0xd4-0xd5 (1)
0x0d0|               01                              |     .          |      [29]: 1 transition_type 0xd5-0xd6 (1)
0x0d0|                  02                           |      .         |      [30]: 2 transition_type 0xd6-0xd7 (1)
0x0d0|                     01                        |       .        |      [31]: 1 transition_type 0xd7-0xd8 (1)
0x0d0|                        02                     |        .       |      [32]: 2 transition_type 0xd8-0xd9 (1)
0x0d0|                           03                  |         .      |      [33]: 3 transition_type 0xd9-0xda (1)
0x0d0|                              02               |          .     |      [34]: 2 transition_type 0xda-0xdb (1)
     |                                               |                |    local_time_type_records[0:5]: 0xdb-0xf9 (30)
     |                                               |                |      [0]{}: local_time_type 0xdb-0xe1 (6)
0x0d0|                                 00 00 1e 80   |           .... |        utoff: 7808 (valid) 0xdb-0xdf (4)
0x0d0|                                             00|               .|        dst: 0 (valid) 0xdf-0xe0 (1)
0x0e0|00                                             |.               |        idx: 0 (valid) 0xe0-0xe1 (1)
     |                                               |                |      [1]{}: local_time_type 0xe1-0xe7 (6)
0x0e0|   00 00 2a 30                                 | ..*0           |        utoff: 10800 (valid) 0xe1-0xe5 (4)
0x0e0|               01                              |     .          |        dst: 1 (valid) 0xe5-0xe6 (1)
0x0e0|                  04                           |      .         |        idx: 4 (valid) 0xe6-0xe7 (1)
     |                                               |                |      [2]{}: local_time_type 0xe7-0xed (6)
0x0e0|                     00 00 1c 20               |       ...      |        utoff: 7200 (valid) 0xe7-0xeb (4)
0x0e0|                                 00            |           .    |        dst: 0 (valid) 0xeb-0xec (1)
0x0e0|                                    09         |            .   |        idx: 9 (valid) 0xec-0xed (1)
     |                                               |                |      [3]{}: local_time_type 0xed-0xf3 (6)
0x0e0|                                       00 00 2a|             ..*|        utoff: 10800 (valid) 0xed-0xf1 (4)
0x0f0|30                                             |0               |
0x0f0|   00                                          | .              |        dst: 0 (valid) 0xf1-0xf2 (1)
0x0f0|      0d                                       |  .             |        idx: 13 (valid) 0xf2-0xf3 (1)
     |                                               |                |      [4]{}: local_time_type 0xf3-0xf9 (6)
0x0f0|         00 00 1c 20                           |   ...          |        utoff: 7200 (valid) 0xf3-0xf7 (4)
0x0f0|                     00                        |       .        |        dst: 0 (valid) 0xf7-0xf8 (1)
0x0f0|                        09                     |        .       |        idx: 9 (valid) 0xf8-0xf9 (1)
     |                                               |                |    time_zone_designations[0:4]: 0xf9-0x10a (17)
0x0f0|                           4c 4d 54 00         |         LMT.   |      [0]: "LMT" time_zone_designation 0xf9-0xfd (4)
0x0f0|                                       43 41 53|             CAS|      [1]: "CAST" time_zone_designation 0xfd-0x102 (5)
0x100|54 00                                          |T.              |
0x100|      43 41 54 00                              |  CAT.          |      [2]: "CAT" time_zone_designation 0x102-0x106 (4)
0x100|                  45 41 54 00                  |      EAT.      |      [3]: "EAT" time_zone_designation 0x106-0x10a (4)
     |                                               |                |    leap_second_records[0:0]: 0x10a-0x10a (0)
     |                                               |                |    standard_wall_indicators[0:0]: 0x10a-0x10a (0)
     |                                               |                |    ut_local_indicators[0:0]: 0x10a-0x10a (0)
     |                                               |                |  v2plusheader{}: 0x10a-0x136 (44)
0x100|                              54 5a 69 66      |          TZif  |    magic: 0x545a6966 (valid) 0x10a-0x10e (4)
0x100|                                          32   |              2 |    ver: "2" (0x32) (valid) 0x10e-0x10f (1)
0x100|                                             00|               .|    reserved: raw bits 0x10f-0x11e (15)
0x110|00 00 00 00 00 00 00 00 00 00 00 00 00 00      |..............  |
0x110|                                          00 00|              ..|    isutcnt: 0 0x11e-0x122 (4)
0x120|00 00                                          |..              |
0x120|      00 00 00 00                              |  ....          |    isstdcnt: 0 0x122-0x126 (4)
0x120|                  00 00 00 00                  |      ....      |    leapcnt: 0 0x126-0x12a (4)
0x120|                              00 00 00 23      |          ...#  |    timecnt: 35 0x12a-0x12e (4)
0x120|                                          00 00|              ..|    typecnt: 5 0x12e-0x132 (4)
0x130|00 05                                          |..              |
0x130|      00 00 00 11                              |  ....          |    charcnt: 17 0x132-0x136 (4)
     |                                               |                |  v2plusdatablock{}: 0x136-0x2a0 (362)
     |                                               |                |    transition_times[0:35]: 0x136-0x24e (280)
0x130|                  ff ff ff ff b6 a3 da 00      |      ........  |      [0]: "1930-12-31T21:49:52Z" (-1230775808) transition_time 0x136-0x13e (8)
0x130|                                          00 00|              ..|      [1]: "1970-04-30T22:00:00Z" (10360800) transition_time 0x13e-0x146 (8)
0x140|00 00 00 9e 17 e0                              |......          |
0x140|                  00 00 00 00 01 7a 34 50      |      .....z4P  |      [2]: "1970-10-14T21:00:00Z" (24786000) transition_time 0x146-0x14e (8)
0x140|                                          00 00|              ..|      [3]: "1971-04-29T22:00:00Z" (41810400) transition_time 0x14e-0x156 (8)
0x150|00 00 02 7d f9 e0                              |...}..          |
0x150|                  00 00 00 00 03 5b 67 d0      |      .....[g.  |      [4]: "1971-10-14T21:00:00Z" (56322000) transition_time 0x156-0x15e (8)
0x150|                                          00 00|              ..|      [5]: "1972-04-29T22:00:00Z" (73432800) transition_time 0x15e-0x166 (8)
0x160|00 00 04 60 7e e0                              |...`~.          |
0x160|                  00 00 00 00 05 3d ec d0      |      .....=..  |      [6]: "1972-10-14T21:00:00Z" (87944400) transition_time 0x166-0x16e (8)
0x160|                                          00 00|              ..|      [7]: "1973-04-28T22:00:00Z" (104882400) transition_time 0x16e-0x176 (8)
0x170|00 00 06 40 60 e0                              |...@`.          |
0x170|                  00 00 00 00 07 1f 20 50      |      ...... P  |      [8]: "1973-10-14T21:00:00Z" (119480400) transition_time 0x176-0x17e (8)
0x170|                                          00 00|              ..|      [9]: "1974-04-27T22:00:00Z" (136332000) transition_time 0x17e-0x186 (8)
0x180|00 00 08 20 42 e0                              |... B.          |
0x180|                  00 00 00 00 09 00 53 d0      |      ......S.  |      [10]: "1974-10-14T21:00:00Z" (151016400) transition_time 0x186-0x18e (8)
0x180|                                          00 00|              ..|      [11]: "1975-04-26T22:00:00Z" (167781600) transition_time 0x18e-0x196 (8)
0x190|00 00 0a 00 24 e0                              |....$.          |
0x190|                  00 00 00 00 0a e1 87 50      |      .......P  |      [12]: "1975-10-14T21:00:00Z" (182552400) transition_time 0x196-0x19e (8)
0x190|                                          00 00|              ..|      [13]: "1976-04-24T22:00:00Z" (199231200) transition_time 0x19e-0x1a6 (8)
0x1a0|00 00 0b e0 06 e0                              |......          |
0x1a0|                  00 00 00 00 0c c4 0c 50      |      .......P  |      [14]: "1976-10-14T21:00:00Z" (214174800) transition_time 0x1a6-0x1ae (8)
0x1a0|                                          00 00|              ..|      [15]: "1977-04-23T22:00:00Z" (230680800) transition_time 0x1ae-0x1b6 (8)
0x1b0|00 00 0d bf e8 e0                              |......          |
0x1b0|                  00 00 00 00 0e a5 3f d0      |      ......?.  |      [16]: "1977-10-14T21:00:00Z" (245710800) transition_time 0x1b6-0x1be (8)
0x1b0|                                          00 00|              ..|      [17]: "1978-04-29T22:00:00Z" (262735200) transition_time 0x1be-0x1c6 (8)
0x1c0|00 00 0f a9 05 60                              |.....`          |
0x1c0|                  00 00 00 00 10 86 73 50      |      ......sP  |      [18]: "1978-10-14T21:00:00Z" (277246800) transition_time 0x1c6-0x1ce (8)
0x1c0|                                          00 00|              ..|      [19]: "1979-04-28T22:00:00Z" (294184800) transition_time 0x1ce-0x1d6 (8)
0x1d0|00 00 11 88 e7 60                              |.....`          |
0x1d0|                  00 00 00 00 12 67 a6 d0      |      .....g..  |      [20]: "1979-10-14T21:00:00Z" (308782800) transition_time 0x1d6-0x1de (8)
0x1d0|                                          00 00|              ..|      [21]: "1980-04-26T22:00:00Z" (325634400) transition_time 0x1de-0x1e6 (8)
0x1e0|00 00 13 68 c9 60                              |...h.`          |
0x1e0|                  00 00 00 00 14 4a 2b d0      |      .....J+.  |      [22]: "1980-10-14T21:00:00Z" (340405200) transition_time 0x1e6-0x1ee (8)
0x1e0|                                          00 00|              ..|      [23]: "1981-04-25T22:00:00Z" (357084000) transition_time 0x1ee-0x1f6 (8)
0x1f0|00 00 15 48 ab 60                              |...H.`          |
0x1f0|                  00 00 00 00 16 2b 5f 50      |      .....+_P  |      [24]: "1981-10-14T21:00:00Z" (371941200) transition_time 0x1f6-0x1fe (8)
0x1f0|                                          00 00|              ..|      [25]: "1982-04-24T22:00:00Z" (388533600) transition_time 0x1fe-0x206 (8)
0x200|00 00 17 28 8d 60                              |...(.`          |
0x200|                  00 00 00 00 18 0c 92 d0      |      ........  |      [26]: "1982-10-14T21:00:00Z" (403477200) transition_time 0x206-0x20e (8)
0x200|                                          00 00|              ..|      [27]: "1983-04-23T22:00:00Z" (419983200) transition_time 0x20e-0x216 (8)
0x210|00 00 19 08 6f 60                              |....o`          |
0x210|                  00 00 00 00 19 ed c6 50      |      .......P  |      [28]: "1983-10-14T21:00:00Z" (435013200) transition_time 0x216-0x21e (8)
0x210|                                          00 00|              ..|      [29]: "1984-04-28T22:00:00Z" (452037600) transition_time 0x21e-0x226 (8)
0x220|00 00 1a f1 8b e0                              |......          |
0x220|                  00 00 00 00 1b d0 4b 50      |      ......KP  |      [30]: "1984-10-14T21:00:00Z" (466635600) transition_time 0x226-0x22e (8)
0x220|                                          00 00|              ..|      [31]: "1985-04-27T22:00:00Z" (483487200) transition_time 0x22e-0x236 (8)
0x230|00 00 1c d1 6d e0                              |....m.          |
0x230|                  00 00 00 00 1d b1 7e d0      |      ......~.  |      [32]: "1985-10-14T21:00:00Z" (498171600) transition_time 0x236-0x23e (8)
0x230|                                          00 00|              ..|      [33]: "2000-01-15T10:00:00Z" (947930400) transition_time 0x23e-0x246 (8)
0x240|00 00 38 80 45 20                              |..8.E           |
0x240|                  00 00 00 00 59 f8 e4 50      |      ....Y..P  |      [34]: "2017-10-31T21:00:00Z" (1509483600) transition_time 0x246-0x24e (8)
     |                                               |                |    transition_types[0:35]: 0x24e-0x271 (35)
0x240|                                          02   |              . |      [0]: 2 transition_type 0x24e-0x24f (1)
0x240|                                             01|               .|      [1]: 1 transition_type 0x24f-0x250 (1)
0x250|02                                             |.               |      [2]: 2 transition_type 0x250-0x251 (1)
0x250|   01                                          | .              |      [3]: 1 transition_type 0x251-0x252 (1)
0x250|      02                                       |  .             |      [4]: 2 transition_type 0x252-0x253 (1)
0x250|         01                                    |   .            |      [5]: 1 transition_type 0x253-0x254 (1)
0x250|            02                                 |    .           |      [6]: 2 transition_type 0x254-0x255 (1)
0x250|               01                              |     .          |      [7]: 1 transition_type 0x255-0x256 (1)
0x250|                  02                           |      .         |      [8]: 2 transition_type 0x256-0x257 (1)
0x250|                     01                        |       .        |      [9]: 1 transition_type 0x257-0x258 (1)
0x250|                        02                     |        .       |      [10]: 2 transition_type 0x258-0x259 (1)
0x250|                           01                  |         .      |      [11]: 1 transition_type 0x259-0x25a (1)
0x250|                              02               |          .     |      [12]: 2 transition_type 0x25a-0x25b (1)
0x250|                                 01            |           .    |      [13]: 1 transition_type 0x25b-0x25c (1)
0x250|                                    02         |            .   |      [14]: 2 transition_type 0x25c-0x25d (1)
0x250|                                       01      |             .  |      [15]: 1 transition_type 0x25d-0x25e (1)
0x250|                                          02   |              . |      [16]: 2 transition_type 0x25e-0x25f (1)
0x250|                                             01|               .|      [17]: 1 transition_type 0x25f-0x260 (1)
0x260|02                                             |.               |      [18]: 2 transition_type 0x260-0x261 (1)
0x260|   01                                          | .              |      [19]: 1 transition_type 0x261-0x262 (1)
0x260|      02                                       |  .             |      [20]: 2 transition_type 0x262-0x263 (1)
0x260|         01                                    |   .            |      [21]: 1 transition_type 0x263-0x264 (1)
0x260|            02                                 |    .           |      [22]: 2 transition_type 0x264-0x265 (1)
0x260|               01                              |     .          |      [23]: 1 transition_type 0x265-0x266 (1)
0x260|                  02                           |      .         |      [24]: 2 transition_type 0x266-0x267 (1)
0x260|                     01                        |       .        |      [25]: 1 transition_type 0x267-0x268 (1)
0x260|                        02                     |        .       |      [26]: 2 transition_type 0x268-0x269 (1)
0x260|                           01                  |         .      |      [27]: 1 transition_type 0x269-0x26a (1)
0x260|                              02               |          .     |      [28]: 2 transition_type 0x26a-0x26b (1)
0x260|                                 01            |           .    |      [29]: 1 transition_type 0x26b-0x26c (1)
0x260|                                    02         |            .   |      [30]: 2 transition_type 0x26c-0x26d (1)
0x260|                                       01      |             .  |      [31]: 1 transition_type 0x26d-0x26e (1)
0x260|                                          02   |              . |      [32]: 2 transition_type 0x26e-0x26f (1)
0x260|                                             03|               .|      [33]: 3 transition_type 0x26f-0x270 (1)
0x270|02                                             |.               |      [34]: 2 transition_type 0x270-0x271 (1)
     |                                               |                |    local_time_type_records[0:5]: 0x271-0x28f (30)
     |                                               |                |      [0]{}: local_time_type 0x271-0x277 (6)
0x270|   00 00 1e 80                                 | ....           |        utoff: 7808 (valid) 0x271-0x275 (4)
0x270|               00                              |     .          |        dst: 0 (valid) 0x275-0x276 (1)
0x270|                  00                           |      .         |        idx: 0 (valid) 0x276-0x277 (1)
     |                                               |                |      [1]{}: local_time_type 0x277-0x27d (6)
0x270|                     00 00 2a 30               |       ..*0     |        utoff: 10800 (valid) 0x277-0x27b (4)
0x270|                                 01            |           .    |        dst: 1 (valid) 0x27b-0x27c (1)
0x270|                                    04         |            .   |        idx: 4 (valid) 0x27c-0x27d (1)
     |                                               |                |      [2]{}: local_time_type 0x27d-0x283 (6)
0x270|                                       00 00 1c|             ...|        utoff: 7200 (valid) 0x27d-0x281 (4)
0x280|20                                             |                |
0x280|   00                                          | .              |        dst: 0 (valid) 0x281-0x282 (1)
0x280|      09                                       |  .             |        idx: 9 (valid) 0x282-0x283 (1)
     |                                               |                |      [3]{}: local_time_type 0x283-0x289 (6)
0x280|         00 00 2a 30                           |   ..*0         |        utoff: 10800 (valid) 0x283-0x287 (4)
0x280|                     00                        |       .        |        dst: 0 (valid) 0x287-0x288 (1)
0x280|                        0d                     |        .       |        idx: 13 (valid) 0x288-0x289 (1)
     |                                               |                |      [4]{}: local_time_type 0x289-0x28f (6)
0x280|                           00 00 1c 20         |         ...    |        utoff: 7200 (valid) 0x289-0x28d (4)
0x280|                                       00      |             .  |        dst: 0 (valid) 0x28d-0x28e (1)
0x280|                                          09   |              . |        idx: 9 (valid) 0x28e-0x28f (1)
     |                                               |                |    time_zone_designations[0:4]: 0x28f-0x2a0 (17)
0x280|                                             4c|               L|      [0]: "LMT" time_zone_designation 0x28f-0x293 (4)
0x290|4d 54 00                                       |MT.             |
0x290|         43 41 53 54 00                        |   CAST.        |      [1]: "CAST" time_zone_designation 0x293-0x298 (5)
0x290|                        43 41 54 00            |        CAT.    |      [2]: "CAT" time_zone_designation 0x298-0x29c (4)
0x290|                                    45 41 54 00|            EAT.|      [3]: "EAT" time_zone_designation 0x29c-0x2a0 (4)
     |                                               |                |    leap_second_records[0:0]: 0x2a0-0x2a0 (0)
     |                                               |                |    standard_wall_indicators[0:0]: 0x2a0-0x2a0 (0)
     |                                               |                |    ut_local_indicators[0:0]: 0x2a0-0x2a0 (0)
     |                                               |                |  footer{}: 0x2a0-0x2a7 (7)
0x2a0|0a                                             |.               |    nl1: 10 (valid) 0x2a0-0x2a1 (1)
0x2a0|   43 41 54 2d 32                              | CAT-2          |    tz_string: "CAT-2" 0x2a1-0x2a6 (5)
0x2a0|                  0a|                          |      .|        |    nl2: 10 (valid) 0x2a6-0x2a7 (1)
