$ fq -d tzif dv Kiritimati
    |00 01 02 03 04 05 06 07 08 09 0a 0b 0c 0d 0e 0f|0123456789abcdef|.{}: Kiritimati (tzif) 0x0-0xee (238)
    |                                               |                |  v1header{}: 0x0-0x2c (44)
0x00|54 5a 69 66                                    |TZif            |    magic: 0x545a6966 (valid) 0x0-0x4 (4)
0x00|            32                                 |    2           |    ver: "2" (0x32) (valid) 0x4-0x5 (1)
0x00|               00 00 00 00 00 00 00 00 00 00 00|     ...........|    reserved: raw bits 0x5-0x14 (15)
0x10|00 00 00 00                                    |....            |
0x10|            00 00 00 00                        |    ....        |    isutcnt: 0 0x14-0x18 (4)
0x10|                        00 00 00 00            |        ....    |    isstdcnt: 0 0x18-0x1c (4)
0x10|                                    00 00 00 00|            ....|    leapcnt: 0 0x1c-0x20 (4)
0x20|00 00 00 04                                    |....            |    timecnt: 4 0x20-0x24 (4)
0x20|            00 00 00 04                        |    ....        |    typecnt: 4 0x24-0x28 (4)
0x20|                        00 00 00 12            |        ....    |    charcnt: 18 0x28-0x2c (4)
    |                                               |                |  v1datablock{}: 0x2c-0x6a (62)
    |                                               |                |    transition_times[0:4]: 0x2c-0x3c (16)
0x20|                                    80 00 00 00|            ....|      [0]: "1901-12-13T20:45:52Z" (-2147483648) transition_time 0x2c-0x30 (4)
0x30|12 55 f2 00                                    |.U..            |      [1]: "1979-10-01T10:40:00Z" (307622400) transition_time 0x30-0x34 (4)
0x30|            2f 05 2b a0                        |    /.+.        |      [2]: "1994-12-31T10:00:00Z" (788868000) transition_time 0x34-0x38 (4)
0x30|                        7f ff ff ff            |        ....    |      [3]: "2038-01-19T03:14:07Z" (2147483647) transition_time 0x38-0x3c (4)
    |                                               |                |    transition_types[0:4]: 0x3c-0x40 (4)
0x30|                                    01         |            .   |      [0]: 1 transition_type 0x3c-0x3d (1)
0x30|                                       02      |             .  |      [1]: 2 transition_type 0x3d-0x3e (1)
0x30|                                          03   |              . |      [2]: 3 transition_type 0x3e-0x3f (1)
0x30|                                             03|               .|      [3]: 3 transition_type 0x3f-0x40 (1)
    |                                               |                |    local_time_type_records[0:4]: 0x40-0x58 (24)
    |                                               |                |      [0]{}: local_time_type 0x40-0x46 (6)
0x40|ff ff 6c 80                                    |..l.            |        utoff: -37760 (valid) 0x40-0x44 (4)
0x40|            00                                 |    .           |        dst: 0 (valid) 0x44-0x45 (1)
0x40|               00                              |     .          |        idx: 0 (valid) 0x45-0x46 (1)
    |                                               |                |      [1]{}: local_time_type 0x46-0x4c (6)
0x40|                  ff ff 6a 00                  |      ..j.      |        utoff: -38400 (valid) 0x46-0x4a (4)
0x40|                              00               |          .     |        dst: 0 (valid) 0x4a-0x4b (1)
0x40|                                 04            |           .    |        idx: 4 (valid) 0x4b-0x4c (1)
    |                                               |                |      [2]{}: local_time_type 0x4c-0x52 (6)
0x40|                                    ff ff 73 60|            ..s`|        utoff: -36000 (valid) 0x4c-0x50 (4)
0x50|00                                             |.               |        dst: 0 (valid) 0x50-0x51 (1)
0x50|   0a                                          | .              |        idx: 10 (valid) 0x51-0x52 (1)
    |                                               |                |      [3]{}: local_time_type 0x52-0x58 (6)
0x50|      00 00 c4 e0                              |  ....          |        utoff: 50400 (valid) 0x52-0x56 (4)
0x50|                  00                           |      .         |        dst: 0 (valid) 0x56-0x57 (1)
0x50|                     0e                        |       .        |        idx: 14 (valid) 0x57-0x58 (1)
    |                                               |                |    time_zone_designations[0:4]: 0x58-0x6a (18)
0x50|                        4c 4d 54 00            |        LMT.    |      [0]: "LMT" time_zone_designation 0x58-0x5c (4)
0x50|                                    2d 31 30 34|            -104|      [1]: "-1040" time_zone_designation 0x5c-0x62 (6)
0x60|30 00                                          |0.              |
0x60|      2d 31 30 00                              |  -10.          |      [2]: "-10" time_zone_designation 0x62-0x66 (4)
0x60|                  2b 31 34 00                  |      +14.      |      [3]: "+14" time_zone_designation 0x66-0x6a (4)
    |                                               |                |    leap_second_records[0:0]: 0x6a-0x6a (0)
    |                                               |                |    standard_wall_indicators[0:0]: 0x6a-0x6a (0)
    |                                               |                |    ut_local_indicators[0:0]: 0x6a-0x6a (0)
    |                                               |                |  v2plusheader{}: 0x6a-0x96 (44)
0x60|                              54 5a 69 66      |          TZif  |    magic: 0x545a6966 (valid) 0x6a-0x6e (4)
0x60|                                          32   |              2 |    ver: "2" (0x32) (valid) 0x6e-0x6f (1)
0x60|                                             00|               .|    reserved: raw bits 0x6f-0x7e (15)
0x70|00 00 00 00 00 00 00 00 00 00 00 00 00 00      |..............  |
0x70|                                          00 00|              ..|    isutcnt: 0 0x7e-0x82 (4)
0x80|00 00                                          |..              |
0x80|      00 00 00 00                              |  ....          |    isstdcnt: 0 0x82-0x86 (4)
0x80|                  00 00 00 00                  |      ....      |    leapcnt: 0 0x86-0x8a (4)
0x80|                              00 00 00 04      |          ....  |    timecnt: 4 0x8a-0x8e (4)
0x80|                                          00 00|              ..|    typecnt: 4 0x8e-0x92 (4)
0x90|00 04                                          |..              |
0x90|      00 00 00 12                              |  ....          |    charcnt: 18 0x92-0x96 (4)
    |                                               |                |  v2plusdatablock{}: 0x96-0xe4 (78)
    |                                               |                |    transition_times[0:4]: 0x96-0xb6 (32)
0x90|                  ff ff ff ff 7e 37 48 80      |      ....~7H.  |      [0]: "1901-01-01T10:29:20Z" (-2177415040) transition_time 0x96-0x9e (8)
0x90|                                          00 00|              ..|      [1]: "1979-10-01T10:40:00Z" (307622400) transition_time 0x9e-0xa6 (8)
0xa0|00 00 12 55 f2 00                              |...U..          |
0xa0|                  00 00 00 00 2f 05 2b a0      |      ..../.+.  |      [2]: "1994-12-31T10:00:00Z" (788868000) transition_time 0xa6-0xae (8)
0xa0|                                          00 00|              ..|      [3]: "2038-01-19T03:14:07Z" (2147483647) transition_time 0xae-0xb6 (8)
0xb0|00 00 7f ff ff ff                              |......          |
    |                                               |                |    transition_types[0:4]: 0xb6-0xba (4)
0xb0|                  01                           |      .         |      [0]: 1 transition_type 0xb6-0xb7 (1)
0xb0|                     02                        |       .        |      [1]: 2 transition_type 0xb7-0xb8 (1)
0xb0|                        03                     |        .       |      [2]: 3 transition_type 0xb8-0xb9 (1)
0xb0|                           03                  |         .      |      [3]: 3 transition_type 0xb9-0xba (1)
    |                                               |                |    local_time_type_records[0:4]: 0xba-0xd2 (24)
    |                                               |                |      [0]{}: local_time_type 0xba-0xc0 (6)
0xb0|                              ff ff 6c 80      |          ..l.  |        utoff: -37760 (valid) 0xba-0xbe (4)
0xb0|                                          00   |              . |        dst: 0 (valid) 0xbe-0xbf (1)
0xb0|                                             00|               .|        idx: 0 (valid) 0xbf-0xc0 (1)
    |                                               |                |      [1]{}: local_time_type 0xc0-0xc6 (6)
0xc0|ff ff 6a 00                                    |..j.            |        utoff: -38400 (valid) 0xc0-0xc4 (4)
0xc0|            00                                 |    .           |        dst: 0 (valid) 0xc4-0xc5 (1)
0xc0|               04                              |     .          |        idx: 4 (valid) 0xc5-0xc6 (1)
    |                                               |                |      [2]{}: local_time_type 0xc6-0xcc (6)
0xc0|                  ff ff 73 60                  |      ..s`      |        utoff: -36000 (valid) 0xc6-0xca (4)
0xc0|                              00               |          .     |        dst: 0 (valid) 0xca-0xcb (1)
0xc0|                                 0a            |           .    |        idx: 10 (valid) 0xcb-0xcc (1)
    |                                               |                |      [3]{}: local_time_type 0xcc-0xd2 (6)
0xc0|                                    00 00 c4 e0|            ....|        utoff: 50400 (valid) 0xcc-0xd0 (4)
0xd0|00                                             |.               |        dst: 0 (valid) 0xd0-0xd1 (1)
0xd0|   0e                                          | .              |        idx: 14 (valid) 0xd1-0xd2 (1)
    |                                               |                |    time_zone_designations[0:4]: 0xd2-0xe4 (18)
0xd0|      4c 4d 54 00                              |  LMT.          |      [0]: "LMT" time_zone_designation 0xd2-0xd6 (4)
0xd0|                  2d 31 30 34 30 00            |      -1040.    |      [1]: "-1040" time_zone_designation 0xd6-0xdc (6)
0xd0|                                    2d 31 30 00|            -10.|      [2]: "-10" time_zone_designation 0xdc-0xe0 (4)
0xe0|2b 31 34 00                                    |+14.            |      [3]: "+14" time_zone_designation 0xe0-0xe4 (4)
    |                                               |                |    leap_second_records[0:0]: 0xe4-0xe4 (0)
    |                                               |                |    standard_wall_indicators[0:0]: 0xe4-0xe4 (0)
    |                                               |                |    ut_local_indicators[0:0]: 0xe4-0xe4 (0)
    |                                               |                |  footer{}: 0xe4-0xee (10)
0xe0|            0a                                 |    .           |    nl1: 10 (valid) 0xe4-0xe5 (1)
0xe0|               3c 2b 31 34 3e 2d 31 34         |     <+14>-14   |    tz_string: "<+14>-14" 0xe5-0xed (8)
0xe0|                                       0a|     |             .| |    nl2: 10 (valid) 0xed-0xee (1)
