$ fq -d tzif dv Knox
     |00 01 02 03 04 05 06 07 08 09 0a 0b 0c 0d 0e 0f|0123456789abcdef|.{}: Knox (tzif) 0x0-0xa09.7 (2570)
     |                                               |                |  v1header{}: 0x0-0x2b.7 (44)
0x000|54 5a 69 66                                    |TZif            |    magic: 0x545a6966 (valid) 0x0-0x3.7 (4)
0x000|            32                                 |    2           |    ver: "2" (0x32) (valid) 0x4-0x4.7 (1)
0x000|               00 00 00 00 00 00 00 00 00 00 00|     ...........|    reserved: raw bits 0x5-0x13.7 (15)
0x010|00 00 00 00                                    |....            |
0x010|            00 00 00 08                        |    ....        |    isutcnt: 8 0x14-0x17.7 (4)
0x010|                        00 00 00 08            |        ....    |    isstdcnt: 8 0x18-0x1b.7 (4)
0x010|                                    00 00 00 1b|            ....|    leapcnt: 27 0x1c-0x1f.7 (4)
0x020|00 00 00 7e                                    |...~            |    timecnt: 126 0x20-0x23.7 (4)
0x020|            00 00 00 08                        |    ....        |    typecnt: 8 0x24-0x27.7 (4)
0x020|                        00 00 00 18            |        ....    |    charcnt: 24 0x28-0x2b.7 (4)
     |                                               |                |  v1datablock{}: 0x2c-0x3d1.7 (934)
     |                                               |                |    transition_times[0:126]: 0x2c-0x223.7 (504)
0x020|                                    80 00 00 00|            ....|      [0]: "1901-12-13T20:45:52Z" (-2147483648) transition_time 0x2c-0x2f.7 (4)
0x030|9e a6 2c 80                                    |..,.            |      [1]: "1918-03-31T08:00:00Z" (-1633276800) transition_time 0x30-0x33.7 (4)
0x030|            9f ba f9 70                        |    ...p        |      [2]: "1918-10-27T07:00:00Z" (-1615136400) transition_time 0x34-0x37.7 (4)
0x030|                        a0 86 0e 80            |        ....    |      [3]: "1919-03-30T08:00:00Z" (-1601827200) transition_time 0x38-0x3b.7 (4)
0x030|                                    a1 9a db 70|            ...p|      [4]: "1919-10-26T07:00:00Z" (-1583686800) transition_time 0x3c-0x3f.7 (4)
0x040|cb 88 fe 80                                    |....            |      [5]: "1942-02-09T08:00:00Z" (-880214400) transition_time 0x40-0x43.7 (4)
0x040|            d2 23 f4 70                        |    .#.p        |      [6]: "1945-08-14T23:00:00Z" (-769395600) transition_time 0x44-0x47.7 (4)
0x040|                        d2 61 09 f0            |        .a..    |      [7]: "1945-09-30T07:00:00Z" (-765392400) transition_time 0x48-0x4b.7 (4)
0x040|                                    d5 55 d5 00|            .U..|      [8]: "1947-04-27T08:00:00Z" (-715795200) transition_time 0x4c-0x4f.7 (4)
0x050|d6 20 cd f0                                    |. ..            |      [9]: "1947-09-28T07:00:00Z" (-702493200) transition_time 0x50-0x53.7 (4)
0x050|            d7 35 b7 00                        |    .5..        |      [10]: "1948-04-25T08:00:00Z" (-684345600) transition_time 0x54-0x57.7 (4)
0x050|                        d8 00 af f0            |        ....    |      [11]: "1948-09-26T07:00:00Z" (-671043600) transition_time 0x58-0x5b.7 (4)
0x050|                                    d9 15 99 00|            ....|      [12]: "1949-04-24T08:00:00Z" (-652896000) transition_time 0x5c-0x5f.7 (4)
0x060|d9 e0 91 f0                                    |....            |      [13]: "1949-09-25T07:00:00Z" (-639594000) transition_time 0x60-0x63.7 (4)
0x060|            da fe b5 80                        |    ....        |      [14]: "1950-04-30T08:00:00Z" (-620841600) transition_time 0x64-0x67.7 (4)
0x060|                        db c0 73 f0            |        ..s.    |      [15]: "1950-09-24T07:00:00Z" (-608144400) transition_time 0x68-0x6b.7 (4)
0x060|                                    dc de 97 80|            ....|      [16]: "1951-04-29T08:00:00Z" (-589392000) transition_time 0x6c-0x6f.7 (4)
0x070|dd a9 90 70                                    |...p            |      [17]: "1951-09-30T07:00:00Z" (-576090000) transition_time 0x70-0x73.7 (4)
0x070|            de be 79 80                        |    ..y.        |      [18]: "1952-04-27T08:00:00Z" (-557942400) transition_time 0x74-0x77.7 (4)
0x070|                        df 89 72 70            |        ..rp    |      [19]: "1952-09-28T07:00:00Z" (-544640400) transition_time 0x78-0x7b.7 (4)
0x070|                                    e0 9e 5b 80|            ..[.|      [20]: "1953-04-26T08:00:00Z" (-526492800) transition_time 0x7c-0x7f.7 (4)
0x080|e1 69 54 70                                    |.iTp            |      [21]: "1953-09-27T07:00:00Z" (-513190800) transition_time 0x80-0x83.7 (4)
0x080|            e2 7e 3d 80                        |    .~=.        |      [22]: "1954-04-25T08:00:00Z" (-495043200) transition_time 0x84-0x87.7 (4)
0x080|                        e3 49 36 70            |        .I6p    |      [23]: "1954-09-26T07:00:00Z" (-481741200) transition_time 0x88-0x8b.7 (4)
0x080|                                    e4 5e 1f 80|            .^..|      [24]: "1955-04-24T08:00:00Z" (-463593600) transition_time 0x8c-0x8f.7 (4)
0x090|e5 57 3c f0                                    |.W<.            |      [25]: "1955-10-30T07:00:00Z" (-447267600) transition_time 0x90-0x93.7 (4)
0x090|            e6 47 3c 00                        |    .G<.        |      [26]: "1956-04-29T08:00:00Z" (-431539200) transition_time 0x94-0x97.7 (4)
0x090|                        e7 37 1e f0            |        .7..    |      [27]: "1956-10-28T07:00:00Z" (-415818000) transition_time 0x98-0x9b.7 (4)
0x090|                                    e8 27 1e 00|            .'..|      [28]: "1957-04-28T08:00:00Z" (-400089600) transition_time 0x9c-0x9f.7 (4)
0x0a0|e8 f2 16 f0                                    |....            |      [29]: "1957-09-29T07:00:00Z" (-386787600) transition_time 0xa0-0xa3.7 (4)
0x0a0|            ea 07 00 00                        |    ....        |      [30]: "1958-04-27T08:00:00Z" (-368640000) transition_time 0xa4-0xa7.7 (4)
0x0a0|                        ea d1 f8 f0            |        ....    |      [31]: "1958-09-28T07:00:00Z" (-355338000) transition_time 0xa8-0xab.7 (4)
0x0a0|                                    eb e6 e2 00|            ....|      [32]: "1959-04-26T08:00:00Z" (-337190400) transition_time 0xac-0xaf.7 (4)
0x0b0|ec d6 c4 f0                                    |....            |      [33]: "1959-10-25T07:00:00Z" (-321469200) transition_time 0xb0-0xb3.7 (4)
0x0b0|            ed c6 c4 00                        |    ....        |      [34]: "1960-04-24T08:00:00Z" (-305740800) transition_time 0xb4-0xb7.7 (4)
0x0b0|                        ee bf e1 70            |        ...p    |      [35]: "1960-10-30T07:00:00Z" (-289414800) transition_time 0xb8-0xbb.7 (4)
0x0b0|                                    ef af e0 80|            ....|      [36]: "1961-04-30T08:00:00Z" (-273686400) transition_time 0xbc-0xbf.7 (4)
0x0c0|f0 9f c3 70                                    |...p            |      [37]: "1961-10-29T07:00:00Z" (-257965200) transition_time 0xc0-0xc3.7 (4)
0x0c0|            f1 8f c2 80                        |    ....        |      [38]: "1962-04-29T08:00:00Z" (-242236800) transition_time 0xc4-0xc7.7 (4)
0x0c0|                        f4 5f 87 70            |        ._.p    |      [39]: "1963-10-27T07:00:00Z" (-195066000) transition_time 0xc8-0xcb.7 (4)
0x0c0|                                    fa f8 67 00|            ..g.|      [40]: "1967-04-30T08:00:00Z" (-84384000) transition_time 0xcc-0xcf.7 (4)
0x0d0|fb e8 49 f0                                    |..I.            |      [41]: "1967-10-29T07:00:00Z" (-68662800) transition_time 0xd0-0xd3.7 (4)
0x0d0|            fc d8 49 00                        |    ..I.        |      [42]: "1968-04-28T08:00:00Z" (-52934400) transition_time 0xd4-0xd7.7 (4)
0x0d0|                        fd c8 2b f0            |        ..+.    |      [43]: "1968-10-27T07:00:00Z" (-37213200) transition_time 0xd8-0xdb.7 (4)
0x0d0|                                    fe b8 2b 00|            ..+.|      [44]: "1969-04-27T08:00:00Z" (-21484800) transition_time 0xdc-0xdf.7 (4)
0x0e0|ff a8 0d f0                                    |....            |      [45]: "1969-10-26T07:00:00Z" (-5763600) transition_time 0xe0-0xe3.7 (4)
0x0e0|            00 98 0d 00                        |    ....        |      [46]: "1970-04-26T08:00:00Z" (9964800) transition_time 0xe4-0xe7.7 (4)
0x0e0|                        01 87 ef f0            |        ....    |      [47]: "1970-10-25T07:00:00Z" (25686000) transition_time 0xe8-0xeb.7 (4)
0x0e0|                                    02 77 ef 00|            .w..|      [48]: "1971-04-25T08:00:00Z" (41414400) transition_time 0xec-0xef.7 (4)
0x0f0|03 71 0c 70                                    |.q.p            |      [49]: "1971-10-31T07:00:00Z" (57740400) transition_time 0xf0-0xf3.7 (4)
0x0f0|            04 61 0b 80                        |    .a..        |      [50]: "1972-04-30T08:00:00Z" (73468800) transition_time 0xf4-0xf7.7 (4)
0x0f0|                        05 50 ee 71            |        .P.q    |      [51]: "1972-10-29T07:00:01Z" (89190001) transition_time 0xf8-0xfb.7 (4)
0x0f0|                                    06 40 ed 82|            .@..|      [52]: "1973-04-29T08:00:02Z" (104918402) transition_time 0xfc-0xff.7 (4)
0x100|07 30 d0 72                                    |.0.r            |      [53]: "1973-10-28T07:00:02Z" (120639602) transition_time 0x100-0x103.7 (4)
0x100|            07 8d 27 83                        |    ..'.        |      [54]: "1974-01-06T08:00:03Z" (126691203) transition_time 0x104-0x107.7 (4)
0x100|                        09 10 b2 73            |        ...s    |      [55]: "1974-10-27T07:00:03Z" (152089203) transition_time 0x108-0x10b.7 (4)
0x100|                                    09 ad a3 04|            ....|      [56]: "1975-02-23T08:00:04Z" (162374404) transition_time 0x10c-0x10f.7 (4)
0x110|0a f0 94 74                                    |...t            |      [57]: "1975-10-26T07:00:04Z" (183538804) transition_time 0x110-0x113.7 (4)
0x110|            0b e0 93 85                        |    ....        |      [58]: "1976-04-25T08:00:05Z" (199267205) transition_time 0x114-0x117.7 (4)
0x110|                        0c d9 b0 f5            |        ....    |      [59]: "1976-10-31T07:00:05Z" (215593205) transition_time 0x118-0x11b.7 (4)
0x110|                                    0d c0 75 86|            ..u.|      [60]: "1977-04-24T08:00:06Z" (230716806) transition_time 0x11c-0x11f.7 (4)
0x120|0e b9 92 f6                                    |....            |      [61]: "1977-10-30T07:00:06Z" (247042806) transition_time 0x120-0x123.7 (4)
0x120|            0f a9 92 07                        |    ....        |      [62]: "1978-04-30T08:00:07Z" (262771207) transition_time 0x124-0x127.7 (4)
0x120|                        10 99 74 f7            |        ..t.    |      [63]: "1978-10-29T07:00:07Z" (278492407) transition_time 0x128-0x12b.7 (4)
0x120|                                    11 89 74 08|            ..t.|      [64]: "1979-04-29T08:00:08Z" (294220808) transition_time 0x12c-0x12f.7 (4)
0x130|12 79 56 f8                                    |.yV.            |      [65]: "1979-10-28T07:00:08Z" (309942008) transition_time 0x130-0x133.7 (4)
0x130|            13 69 56 09                        |    .iV.        |      [66]: "1980-04-27T08:00:09Z" (325670409) transition_time 0x134-0x137.7 (4)
0x130|                        14 59 38 f9            |        .Y8.    |      [67]: "1980-10-26T07:00:09Z" (341391609) transition_time 0x138-0x13b.7 (4)
0x130|                                    15 49 38 09|            .I8.|      [68]: "1981-04-26T08:00:09Z" (357120009) transition_time 0x13c-0x13f.7 (4)
0x140|16 39 1a fa                                    |.9..            |      [69]: "1981-10-25T07:00:10Z" (372841210) transition_time 0x140-0x143.7 (4)
0x140|            17 29 1a 0a                        |    .)..        |      [70]: "1982-04-25T08:00:10Z" (388569610) transition_time 0x144-0x147.7 (4)
0x140|                        18 22 37 7b            |        ."7{    |      [71]: "1982-10-31T07:00:11Z" (404895611) transition_time 0x148-0x14b.7 (4)
0x140|                                    19 08 fc 0b|            ....|      [72]: "1983-04-24T08:00:11Z" (420019211) transition_time 0x14c-0x14f.7 (4)
0x150|1a 02 19 7c                                    |...|            |      [73]: "1983-10-30T07:00:12Z" (436345212) transition_time 0x150-0x153.7 (4)
0x150|            1a f2 18 8c                        |    ....        |      [74]: "1984-04-29T08:00:12Z" (452073612) transition_time 0x154-0x157.7 (4)
0x150|                        1b e1 fb 7c            |        ...|    |      [75]: "1984-10-28T07:00:12Z" (467794812) transition_time 0x158-0x15b.7 (4)
0x150|                                    1c d1 fa 8c|            ....|      [76]: "1985-04-28T08:00:12Z" (483523212) transition_time 0x15c-0x15f.7 (4)
0x160|1d c1 dd 7d                                    |...}            |      [77]: "1985-10-27T07:00:13Z" (499244413) transition_time 0x160-0x163.7 (4)
0x160|            1e b1 dc 8d                        |    ....        |      [78]: "1986-04-27T08:00:13Z" (514972813) transition_time 0x164-0x167.7 (4)
0x160|                        1f a1 bf 7d            |        ...}    |      [79]: "1986-10-26T07:00:13Z" (530694013) transition_time 0x168-0x16b.7 (4)
0x160|                                    20 76 0f 0d|             v..|      [80]: "1987-04-05T08:00:13Z" (544608013) transition_time 0x16c-0x16f.7 (4)
0x170|21 81 a1 7d                                    |!..}            |      [81]: "1987-10-25T07:00:13Z" (562143613) transition_time 0x170-0x173.7 (4)
0x170|            22 55 f1 0e                        |    "U..        |      [82]: "1988-04-03T08:00:14Z" (576057614) transition_time 0x174-0x177.7 (4)
0x170|                        23 6a bd fe            |        #j..    |      [83]: "1988-10-30T07:00:14Z" (594198014) transition_time 0x178-0x17b.7 (4)
0x170|                                    24 35 d3 0e|            $5..|      [84]: "1989-04-02T08:00:14Z" (607507214) transition_time 0x17c-0x17f.7 (4)
0x180|25 4a 9f fe                                    |%J..            |      [85]: "1989-10-29T07:00:14Z" (625647614) transition_time 0x180-0x183.7 (4)
0x180|            26 15 b5 0f                        |    &...        |      [86]: "1990-04-01T08:00:15Z" (638956815) transition_time 0x184-0x187.7 (4)
0x180|                        27 2a 81 ff            |        '*..    |      [87]: "1990-10-28T07:00:15Z" (657097215) transition_time 0x188-0x18b.7 (4)
0x180|                                    27 fe d1 90|            '...|      [88]: "1991-04-07T08:00:16Z" (671011216) transition_time 0x18c-0x18f.7 (4)
0x190|29 0a 64 00                                    |).d.            |      [89]: "1991-10-27T07:00:16Z" (688546816) transition_time 0x190-0x193.7 (4)
0x190|            44 2f 76 87                        |    D/v.        |      [90]: "2006-04-02T07:00:23Z" (1143961223) transition_time 0x194-0x197.7 (4)
0x190|                        45 44 51 87            |        EDQ.    |      [91]: "2006-10-29T07:00:23Z" (1162105223) transition_time 0x198-0x19b.7 (4)
0x190|                                    45 f3 b7 17|            E...|      [92]: "2007-03-11T08:00:23Z" (1173600023) transition_time 0x19c-0x19f.7 (4)
0x1a0|47 2d 6e 07                                    |G-n.            |      [93]: "2007-11-04T07:00:23Z" (1194159623) transition_time 0x1a0-0x1a3.7 (4)
0x1a0|            47 d3 99 17                        |    G...        |      [94]: "2008-03-09T08:00:23Z" (1205049623) transition_time 0x1a4-0x1a7.7 (4)
0x1a0|                        49 0d 50 07            |        I.P.    |      [95]: "2008-11-02T07:00:23Z" (1225609223) transition_time 0x1a8-0x1ab.7 (4)
0x1a0|                                    49 b3 7b 18|            I.{.|      [96]: "2009-03-08T08:00:24Z" (1236499224) transition_time 0x1ac-0x1af.7 (4)
0x1b0|4a ed 32 08                                    |J.2.            |      [97]: "2009-11-01T07:00:24Z" (1257058824) transition_time 0x1b0-0x1b3.7 (4)
0x1b0|            4b 9c 97 98                        |    K...        |      [98]: "2010-03-14T08:00:24Z" (1268553624) transition_time 0x1b4-0x1b7.7 (4)
0x1b0|                        4c d6 4e 88            |        L.N.    |      [99]: "2010-11-07T07:00:24Z" (1289113224) transition_time 0x1b8-0x1bb.7 (4)
0x1b0|                                    4d 7c 79 98|            M|y.|      [100]: "2011-03-13T08:00:24Z" (1300003224) transition_time 0x1bc-0x1bf.7 (4)
0x1c0|4e b6 30 88                                    |N.0.            |      [101]: "2011-11-06T07:00:24Z" (1320562824) transition_time 0x1c0-0x1c3.7 (4)
0x1c0|            4f 5c 5b 98                        |    O\[.        |      [102]: "2012-03-11T08:00:24Z" (1331452824) transition_time 0x1c4-0x1c7.7 (4)
0x1c0|                        50 96 12 89            |        P...    |      [103]: "2012-11-04T07:00:25Z" (1352012425) transition_time 0x1c8-0x1cb.7 (4)
0x1c0|                                    51 3c 3d 99|            Q<=.|      [104]: "2013-03-10T08:00:25Z" (1362902425) transition_time 0x1cc-0x1cf.7 (4)
0x1d0|52 75 f4 89                                    |Ru..            |      [105]: "2013-11-03T07:00:25Z" (1383462025) transition_time 0x1d0-0x1d3.7 (4)
0x1d0|            53 1c 1f 99                        |    S...        |      [106]: "2014-03-09T08:00:25Z" (1394352025) transition_time 0x1d4-0x1d7.7 (4)
0x1d0|                        54 55 d6 89            |        TU..    |      [107]: "2014-11-02T07:00:25Z" (1414911625) transition_time 0x1d8-0x1db.7 (4)
0x1d0|                                    54 fc 01 99|            T...|      [108]: "2015-03-08T08:00:25Z" (1425801625) transition_time 0x1dc-0x1df.7 (4)
0x1e0|56 35 b8 8a                                    |V5..            |      [109]: "2015-11-01T07:00:26Z" (1446361226) transition_time 0x1e0-0x1e3.7 (4)
0x1e0|            56 e5 1e 1a                        |    V...        |      [110]: "2016-03-13T08:00:26Z" (1457856026) transition_time 0x1e4-0x1e7.7 (4)
0x1e0|                        58 1e d5 0a            |        X...    |      [111]: "2016-11-06T07:00:26Z" (1478415626) transition_time 0x1e8-0x1eb.7 (4)
0x1e0|                                    58 c5 00 1b|            X...|      [112]: "2017-03-12T08:00:27Z" (1489305627) transition_time 0x1ec-0x1ef.7 (4)
0x1f0|59 fe b7 0b                                    |Y...            |      [113]: "2017-11-05T07:00:27Z" (1509865227) transition_time 0x1f0-0x1f3.7 (4)
0x1f0|            5a a4 e2 1b                        |    Z...        |      [114]: "2018-03-11T08:00:27Z" (1520755227) transition_time 0x1f4-0x1f7.7 (4)
0x1f0|                        5b de 99 0b            |        [...    |      [115]: "2018-11-04T07:00:27Z" (1541314827) transition_time 0x1f8-0x1fb.7 (4)
0x1f0|                                    5c 84 c4 1b|            \...|      [116]: "2019-03-10T08:00:27Z" (1552204827) transition_time 0x1fc-0x1ff.7 (4)
0x200|5d be 7b 0b                                    |].{.            |      [117]: "2019-11-03T07:00:27Z" (1572764427) transition_time 0x200-0x203.7 (4)
0x200|            5e 64 a6 1b                        |    ^d..        |      [118]: "2020-03-08T08:00:27Z" (1583654427) transition_time 0x204-0x207.7 (4)
0x200|                        5f 9e 5d 0b            |        _.].    |      [119]: "2020-11-01T07:00:27Z" (1604214027) transition_time 0x208-0x20b.7 (4)
0x200|                                    60 4d c2 9b|            `M..|      [120]: "2021-03-14T08:00:27Z" (1615708827) transition_time 0x20c-0x20f.7 (4)
0x210|61 87 79 8b                                    |a.y.            |      [121]: "2021-11-07T07:00:27Z" (1636268427) transition_time 0x210-0x213.7 (4)
0x210|            62 2d a4 9b                        |    b-..        |      [122]: "2022-03-13T08:00:27Z" (1647158427) transition_time 0x214-0x217.7 (4)
0x210|                        63 67 5b 8b            |        cg[.    |      [123]: "2022-11-06T07:00:27Z" (1667718027) transition_time 0x218-0x21b.7 (4)
0x210|                                    64 0d 86 9b|            d...|      [124]: "2023-03-12T08:00:27Z" (1678608027) transition_time 0x21c-0x21f.7 (4)
0x220|64 9b 78 1b                                    |d.x.            |      [125]: "2023-06-28T00:00:27Z" (1687910427) transition_time 0x220-0x223.7 (4)
     |                                               |                |    transition_types[0:126]: 0x224-0x2a1.7 (126)
0x220|            05                                 |    .           |      [0]: 5 transition_type 0x224-0x224.7 (1)
0x220|               01                              |     .          |      [1]: 1 transition_type 0x225-0x225.7 (1)
0x220|                  02                           |      .         |      [2]: 2 transition_type 0x226-0x226.7 (1)
0x220|                     01                        |       .        |      [3]: 1 transition_type 0x227-0x227.7 (1)
0x220|                        02                     |        .       |      [4]: 2 transition_type 0x228-0x228.7 (1)
0x220|                           03                  |         .      |      [5]: 3 transition_type 0x229-0x229.7 (1)
0x220|                              04               |          .     |      [6]: 4 transition_type 0x22a-0x22a.7 (1)
0x220|                                 02            |           .    |      [7]: 2 transition_type 0x22b-0x22b.7 (1)
0x220|                                    01         |            .   |      [8]: 1 transition_type 0x22c-0x22c.7 (1)
0x220|                                       02      |             .  |      [9]: 2 transition_type 0x22d-0x22d.7 (1)
0x220|                                          01   |              . |      [10]: 1 transition_type 0x22e-0x22e.7 (1)
0x220|                                             02|               .|      [11]: 2 transition_type 0x22f-0x22f.7 (1)
0x230|01                                             |.               |      [12]: 1 transition_type 0x230-0x230.7 (1)
0x230|   02                                          | .              |      [13]: 2 transition_type 0x231-0x231.7 (1)
0x230|      01                                       |  .             |      [14]: 1 transition_type 0x232-0x232.7 (1)
0x230|         02                                    |   .            |      [15]: 2 transition_type 0x233-0x233.7 (1)
0x230|            01                                 |    .           |      [16]: 1 transition_type 0x234-0x234.7 (1)
0x230|               02                              |     .          |      [17]: 2 transition_type 0x235-0x235.7 (1)
0x230|                  01                           |      .         |      [18]: 1 transition_type 0x236-0x236.7 (1)
0x230|                     02                        |       .        |      [19]: 2 transition_type 0x237-0x237.7 (1)
0x230|                        01                     |        .       |      [20]: 1 transition_type 0x238-0x238.7 (1)
0x230|                           02                  |         .      |      [21]: 2 transition_type 0x239-0x239.7 (1)
0x230|                              01               |          .     |      [22]: 1 transition_type 0x23a-0x23a.7 (1)
0x230|                                 02            |           .    |      [23]: 2 transition_type 0x23b-0x23b.7 (1)
0x230|                                    01         |            .   |      [24]: 1 transition_type 0x23c-0x23c.7 (1)
0x230|                                       02      |             .  |      [25]: 2 transition_type 0x23d-0x23d.7 (1)
0x230|                                          01   |              . |      [26]: 1 transition_type 0x23e-0x23e.7 (1)
0x230|                                             02|               .|      [27]: 2 transition_type 0x23f-0x23f.7 (1)
0x240|01                                             |.               |      [28]: 1 transition_type 0x240-0x240.7 (1)
0x240|   02                                          | .              |      [29]: 2 transition_type 0x241-0x241.7 (1)
0x240|      01                                       |  .             |      [30]: 1 transition_type 0x242-0x242.7 (1)
0x240|         02                                    |   .            |      [31]: 2 transition_type 0x243-0x243.7 (1)
0x240|            01                                 |    .           |      [32]: 1 transition_type 0x244-0x244.7 (1)
0x240|               02                              |     .          |      [33]: 2 transition_type 0x245-0x245.7 (1)
0x240|                  01                           |      .         |      [34]: 1 transition_type 0x246-0x246.7 (1)
0x240|                     02                        |       .        |      [35]: 2 transition_type 0x247-0x247.7 (1)
0x240|                        01                     |        .       |      [36]: 1 transition_type 0x248-0x248.7 (1)
0x240|                           02                  |         .      |      [37]: 2 transition_type 0x249-0x249.7 (1)
0x240|                              06               |          .     |      [38]: 6 transition_type 0x24a-0x24a.7 (1)
0x240|                                 02            |           .    |      [39]: 2 transition_type 0x24b-0x24b.7 (1)
0x240|                                    01         |            .   |      [40]: 1 transition_type 0x24c-0x24c.7 (1)
0x240|                                       02      |             .  |      [41]: 2 transition_type 0x24d-0x24d.7 (1)
0x240|                                          01   |              . |      [42]: 1 transition_type 0x24e-0x24e.7 (1)
0x240|                                             02|               .|      [43]: 2 transition_type 0x24f-0x24f.7 (1)
0x250|01                                             |.               |      [44]: 1 transition_type 0x250-0x250.7 (1)
0x250|   02                                          | .              |      [45]: 2 transition_type 0x251-0x251.7 (1)
0x250|      01                                       |  .             |      [46]: 1 transition_type 0x252-0x252.7 (1)
0x250|         02                                    |   .            |      [47]: 2 transition_type 0x253-0x253.7 (1)
0x250|            01                                 |    .           |      [48]: 1 transition_type 0x254-0x254.7 (1)
0x250|               02                              |     .          |      [49]: 2 transition_type 0x255-0x255.7 (1)
0x250|                  01                           |      .         |      [50]: 1 transition_type 0x256-0x256.7 (1)
0x250|                     02                        |       .        |      [51]: 2 transition_type 0x257-0x257.7 (1)
0x250|                        01                     |        .       |      [52]: 1 transition_type 0x258-0x258.7 (1)
0x250|                           02                  |         .      |      [53]: 2 transition_type 0x259-0x259.7 (1)
0x250|                              01               |          .     |      [54]: 1 transition_type 0x25a-0x25a.7 (1)
0x250|                                 02            |           .    |      [55]: 2 transition_type 0x25b-0x25b.7 (1)
0x250|                                    01         |            .   |      [56]: 1 transition_type 0x25c-0x25c.7 (1)
0x250|                                       02      |             .  |      [57]: 2 transition_type 0x25d-0x25d.7 (1)
0x250|                                          01   |              . |      [58]: 1 transition_type 0x25e-0x25e.7 (1)
0x250|                                             02|               .|      [59]: 2 transition_type 0x25f-0x25f.7 (1)
0x260|01                                             |.               |      [60]: 1 transition_type 0x260-0x260.7 (1)
0x260|   02                                          | .              |      [61]: 2 transition_type 0x261-0x261.7 (1)
0x260|      01                                       |  .             |      [62]: 1 transition_type 0x262-0x262.7 (1)
0x260|         02                                    |   .            |      [63]: 2 transition_type 0x263-0x263.7 (1)
0x260|            01                                 |    .           |      [64]: 1 transition_type 0x264-0x264.7 (1)
0x260|               02                              |     .          |      [65]: 2 transition_type 0x265-0x265.7 (1)
0x260|                  01                           |      .         |      [66]: 1 transition_type 0x266-0x266.7 (1)
0x260|                     02                        |       .        |      [67]: 2 transition_type 0x267-0x267.7 (1)
0x260|                        01                     |        .       |      [68]: 1 transition_type 0x268-0x268.7 (1)
0x260|                           02                  |         .      |      [69]: 2 transition_type 0x269-0x269.7 (1)
0x260|                              01               |          .     |      [70]: 1 transition_type 0x26a-0x26a.7 (1)
0x260|                                 02            |           .    |      [71]: 2 transition_type 0x26b-0x26b.7 (1)
0x260|                                    01         |            .   |      [72]: 1 transition_type 0x26c-0x26c.7 (1)
0x260|                                       02      |             .  |      [73]: 2 transition_type 0x26d-0x26d.7 (1)
0x260|                                          01   |              . |      [74]: 1 transition_type 0x26e-0x26e.7 (1)
0x260|                                             02|               .|      [75]: 2 transition_type 0x26f-0x26f.7 (1)
0x270|01                                             |.               |      [76]: 1 transition_type 0x270-0x270.7 (1)
0x270|   02                                          | .              |      [77]: 2 transition_type 0x271-0x271.7 (1)
0x270|      01                                       |  .             |      [78]: 1 transition_type 0x272-0x272.7 (1)
0x270|         02                                    |   .            |      [79]: 2 transition_type 0x273-0x273.7 (1)
0x270|            01                                 |    .           |      [80]: 1 transition_type 0x274-0x274.7 (1)
0x270|               02                              |     .          |      [81]: 2 transition_type 0x275-0x275.7 (1)
0x270|                  01                           |      .         |      [82]: 1 transition_type 0x276-0x276.7 (1)
0x270|                     02                        |       .        |      [83]: 2 transition_type 0x277-0x277.7 (1)
0x270|                        01                     |        .       |      [84]: 1 transition_type 0x278-0x278.7 (1)
0x270|                           02                  |         .      |      [85]: 2 transition_type 0x279-0x279.7 (1)
0x270|                              01               |          .     |      [86]: 1 transition_type 0x27a-0x27a.7 (1)
0x270|                                 02            |           .    |      [87]: 2 transition_type 0x27b-0x27b.7 (1)
0x270|                                    01         |            .   |      [88]: 1 transition_type 0x27c-0x27c.7 (1)
0x270|                                       06      |             .  |      [89]: 6 transition_type 0x27d-0x27d.7 (1)
0x270|                                          01   |              . |      [90]: 1 transition_type 0x27e-0x27e.7 (1)
0x270|                                             02|               .|      [91]: 2 transition_type 0x27f-0x27f.7 (1)
0x280|01                                             |.               |      [92]: 1 transition_type 0x280-0x280.7 (1)
0x280|   02                                          | .              |      [93]: 2 transition_type 0x281-0x281.7 (1)
0x280|      01                                       |  .             |      [94]: 1 transition_type 0x282-0x282.7 (1)
0x280|         02                                    |   .            |      [95]: 2 transition_type 0x283-0x283.7 (1)
0x280|            01                                 |    .           |      [96]: 1 transition_type 0x284-0x284.7 (1)
0x280|               02                              |     .          |      [97]: 2 transition_type 0x285-0x285.7 (1)
0x280|                  01                           |      .         |      [98]: 1 transition_type 0x286-0x286.7 (1)
0x280|                     02                        |       .        |      [99]: 2 transition_type 0x287-0x287.7 (1)
0x280|                        01                     |        .       |      [100]: 1 transition_type 0x288-0x288.7 (1)
0x280|                           02                  |         .      |      [101]: 2 transition_type 0x289-0x289.7 (1)
0x280|                              01               |          .     |      [102]: 1 transition_type 0x28a-0x28a.7 (1)
0x280|                                 02            |           .    |      [103]: 2 transition_type 0x28b-0x28b.7 (1)
0x280|                                    01         |            .   |      [104]: 1 transition_type 0x28c-0x28c.7 (1)
0x280|                                       02      |             .  |      [105]: 2 transition_type 0x28d-0x28d.7 (1)
0x280|                                          01   |              . |      [106]: 1 transition_type 0x28e-0x28e.7 (1)
0x280|                                             02|               .|      [107]: 2 transition_type 0x28f-0x28f.7 (1)
0x290|01                                             |.               |      [108]: 1 transition_type 0x290-0x290.7 (1)
0x290|   02                                          | .              |      [109]: 2 transition_type 0x291-0x291.7 (1)
0x290|      01                                       |  .             |      [110]: 1 transition_type 0x292-0x292.7 (1)
0x290|         02                                    |   .            |      [111]: 2 transition_type 0x293-0x293.7 (1)
0x290|            01                                 |    .           |      [112]: 1 transition_type 0x294-0x294.7 (1)
0x290|               02                              |     .          |      [113]: 2 transition_type 0x295-0x295.7 (1)
0x290|                  01                           |      .         |      [114]: 1 transition_type 0x296-0x296.7 (1)
0x290|                     02                        |       .        |      [115]: 2 transition_type 0x297-0x297.7 (1)
0x290|                        01                     |        .       |      [116]: 1 transition_type 0x298-0x298.7 (1)
0x290|                           02                  |         .      |      [117]: 2 transition_type 0x299-0x299.7 (1)
0x290|                              01               |          .     |      [118]: 1 transition_type 0x29a-0x29a.7 (1)
0x290|                                 02            |           .    |      [119]: 2 transition_type 0x29b-0x29b.7 (1)
0x290|                                    01         |            .   |      [120]: 1 transition_type 0x29c-0x29c.7 (1)
0x290|                                       02      |             .  |      [121]: 2 transition_type 0x29d-0x29d.7 (1)
0x290|                                          01   |              . |      [122]: 1 transition_type 0x29e-0x29e.7 (1)
0x290|                                             02|               .|      [123]: 2 transition_type 0x29f-0x29f.7 (1)
0x2a0|01                                             |.               |      [124]: 1 transition_type 0x2a0-0x2a0.7 (1)
0x2a0|   01                                          | .              |      [125]: 1 transition_type 0x2a1-0x2a1.7 (1)
     |                                               |                |    local_time_type_records[0:8]: 0x2a2-0x2d1.7 (48)
     |                                               |                |      [0]{}: local_time_type 0x2a2-0x2a7.7 (6)
0x2a0|      ff ff ae ca                              |  ....          |        utoff: -20790 (valid) 0x2a2-0x2a5.7 (4)
0x2a0|                  00                           |      .         |        dst: 0 (valid) 0x2a6-0x2a6.7 (1)
0x2a0|                     00                        |       .        |        idx: 0 (valid) 0x2a7-0x2a7.7 (1)
     |                                               |                |      [1]{}: local_time_type 0x2a8-0x2ad.7 (6)
0x2a0|                        ff ff b9 b0            |        ....    |        utoff: -18000 (valid) 0x2a8-0x2ab.7 (4)
0x2a0|                                    01         |            .   |        dst: 1 (valid) 0x2ac-0x2ac.7 (1)
0x2a0|                                       04      |             .  |        idx: 4 (valid) 0x2ad-0x2ad.7 (1)
     |                                               |                |      [2]{}: local_time_type 0x2ae-0x2b3.7 (6)
0x2a0|                                          ff ff|              ..|        utoff: -21600 (valid) 0x2ae-0x2b1.7 (4)
0x2b0|ab a0                                          |..              |
0x2b0|      00                                       |  .             |        dst: 0 (valid) 0x2b2-0x2b2.7 (1)
0x2b0|         08                                    |   .            |        idx: 8 (valid) 0x2b3-0x2b3.7 (1)
     |                                               |                |      [3]{}: local_time_type 0x2b4-0x2b9.7 (6)
0x2b0|            ff ff b9 b0                        |    ....        |        utoff: -18000 (valid) 0x2b4-0x2b7.7 (4)
0x2b0|                        01                     |        .       |        dst: 1 (valid) 0x2b8-0x2b8.7 (1)
0x2b0|                           0c                  |         .      |        idx: 12 (valid) 0x2b9-0x2b9.7 (1)
     |                                               |                |      [4]{}: local_time_type 0x2ba-0x2bf.7 (6)
0x2b0|                              ff ff b9 b0      |          ....  |        utoff: -18000 (valid) 0x2ba-0x2bd.7 (4)
0x2b0|                                          01   |              . |        dst: 1 (valid) 0x2be-0x2be.7 (1)
0x2b0|                                             10|               .|        idx: 16 (valid) 0x2bf-0x2bf.7 (1)
     |                                               |                |      [5]{}: local_time_type 0x2c0-0x2c5.7 (6)
0x2c0|ff ff ab a0                                    |....            |        utoff: -21600 (valid) 0x2c0-0x2c3.7 (4)
0x2c0|            00                                 |    .           |        dst: 0 (valid) 0x2c4-0x2c4.7 (1)
0x2c0|               08                              |     .          |        idx: 8 (valid) 0x2c5-0x2c5.7 (1)
     |                                               |                |      [6]{}: local_time_type 0x2c6-0x2cb.7 (6)
0x2c0|                  ff ff b9 b0                  |      ....      |        utoff: -18000 (valid) 0x2c6-0x2c9.7 (4)
0x2c0|                              00               |          .     |        dst: 0 (valid) 0x2ca-0x2ca.7 (1)
0x2c0|                                 14            |           .    |        idx: 20 (valid) 0x2cb-0x2cb.7 (1)
     |                                               |                |      [7]{}: local_time_type 0x2cc-0x2d1.7 (6)
0x2c0|                                    ff ff ab a0|            ....|        utoff: -21600 (valid) 0x2cc-0x2cf.7 (4)
0x2d0|00                                             |.               |        dst: 0 (valid) 0x2d0-0x2d0.7 (1)
0x2d0|   08                                          | .              |        idx: 8 (valid) 0x2d1-0x2d1.7 (1)
     |                                               |                |    time_zone_designations[0:6]: 0x2d2-0x2e9.7 (24)
0x2d0|      4c 4d 54 00                              |  LMT.          |      [0]: "LMT" time_zone_designation 0x2d2-0x2d5.7 (4)
0x2d0|                  43 44 54 00                  |      CDT.      |      [1]: "CDT" time_zone_designation 0x2d6-0x2d9.7 (4)
0x2d0|                              43 53 54 00      |          CST.  |      [2]: "CST" time_zone_designation 0x2da-0x2dd.7 (4)
0x2d0|                                          43 57|              CW|      [3]: "CWT" time_zone_designation 0x2de-0x2e1.7 (4)
0x2e0|54 00                                          |T.              |
0x2e0|      43 50 54 00                              |  CPT.          |      [4]: "CPT" time_zone_designation 0x2e2-0x2e5.7 (4)
0x2e0|                  45 53 54 00                  |      EST.      |      [5]: "EST" time_zone_designation 0x2e6-0x2e9.7 (4)
     |                                               |                |    leap_second_records[0:27]: 0x2ea-0x3c1.7 (216)
     |                                               |                |      [0]{}: leap_second_record 0x2ea-0x2f1.7 (8)
0x2e0|                              04 b2 58 00      |          ..X.  |        occur: "1972-07-01T00:00:00Z" (78796800) 0x2ea-0x2ed.7 (4)
0x2e0|                                          00 00|              ..|        corr: 1 0x2ee-0x2f1.7 (4)
0x2f0|00 01                                          |..              |
     |                                               |                |      [1]{}: leap_second_record 0x2f2-0x2f9.7 (8)
0x2f0|      05 a4 ec 01                              |  ....          |        occur: "1973-01-01T00:00:01Z" (94694401) 0x2f2-0x2f5.7 (4)
0x2f0|                  00 00 00 02                  |      ....      |        corr: 2 0x2f6-0x2f9.7 (4)
     |                                               |                |      [2]{}: leap_second_record 0x2fa-0x301.7 (8)
0x2f0|                              07 86 1f 82      |          ....  |        occur: "1974-01-01T00:00:02Z" (126230402) 0x2fa-0x2fd.7 (4)
0x2f0|                                          00 00|              ..|        corr: 3 0x2fe-0x301.7 (4)
0x300|00 03                                          |..              |
     |                                               |                |      [3]{}: leap_second_record 0x302-0x309.7 (8)
0x300|      09 67 53 03                              |  .gS.          |        occur: "1975-01-01T00:00:03Z" (157766403) 0x302-0x305.7 (4)
0x300|                  00 00 00 04                  |      ....      |        corr: 4 0x306-0x309.7 (4)
     |                                               |                |      [4]{}: leap_second_record 0x30a-0x311.7 (8)
0x300|                              0b 48 86 84      |          .H..  |        occur: "1976-01-01T00:00:04Z" (189302404) 0x30a-0x30d.7 (4)
0x300|                                          00 00|              ..|        corr: 5 0x30e-0x311.7 (4)
0x310|00 05                                          |..              |
     |                                               |                |      [5]{}: leap_second_record 0x312-0x319.7 (8)
0x310|      0d 2b 0b 85                              |  .+..          |        occur: "1977-01-01T00:00:05Z" (220924805) 0x312-0x315.7 (4)
0x310|                  00 00 00 06                  |      ....      |        corr: 6 0x316-0x319.7 (4)
     |                                               |                |      [6]{}: leap_second_record 0x31a-0x321.7 (8)
0x310|                              0f 0c 3f 06      |          ..?.  |        occur: "1978-01-01T00:00:06Z" (252460806) 0x31a-0x31d.7 (4)
0x310|                                          00 00|              ..|        corr: 7 0x31e-0x321.7 (4)
0x320|00 07                                          |..              |
     |                                               |                |      [7]{}: leap_second_record 0x322-0x329.7 (8)
0x320|      10 ed 72 87                              |  ..r.          |        occur: "1979-01-01T00:00:07Z" (283996807) 0x322-0x325.7 (4)
0x320|                  00 00 00 08                  |      ....      |        corr: 8 0x326-0x329.7 (4)
     |                                               |                |      [8]{}: leap_second_record 0x32a-0x331.7 (8)
0x320|                              12 ce a6 08      |          ....  |        occur: "1980-01-01T00:00:08Z" (315532808) 0x32a-0x32d.7 (4)
0x320|                                          00 00|              ..|        corr: 9 0x32e-0x331.7 (4)
0x330|00 09                                          |..              |
     |                                               |                |      [9]{}: leap_second_record 0x332-0x339.7 (8)
0x330|      15 9f ca 89                              |  ....          |        occur: "1981-07-01T00:00:09Z" (362793609) 0x332-0x335.7 (4)
0x330|                  00 00 00 0a                  |      ....      |        corr: 10 0x336-0x339.7 (4)
     |                                               |                |      [10]{}: leap_second_record 0x33a-0x341.7 (8)
0x330|                              17 80 fe 0a      |          ....  |        occur: "1982-07-01T00:00:10Z" (394329610) 0x33a-0x33d.7 (4)
0x330|                                          00 00|              ..|        corr: 11 0x33e-0x341.7 (4)
0x340|00 0b                                          |..              |
     |                                               |                |      [11]{}: leap_second_record 0x342-0x349.7 (8)
0x340|      19 62 31 8b                              |  .b1.          |        occur: "1983-07-01T00:00:11Z" (425865611) 0x342-0x345.7 (4)
0x340|                  00 00 00 0c                  |      ....      |        corr: 12 0x346-0x349.7 (4)
     |                                               |                |      [12]{}: leap_second_record 0x34a-0x351.7 (8)
0x340|                              1d 25 ea 0c      |          .%..  |        occur: "1985-07-01T00:00:12Z" (489024012) 0x34a-0x34d.7 (4)
0x340|                                          00 00|              ..|        corr: 13 0x34e-0x351.7 (4)
0x350|00 0d                                          |..              |
     |                                               |                |      [13]{}: leap_second_record 0x352-0x359.7 (8)
0x350|      21 da e5 0d                              |  !...          |        occur: "1988-01-01T00:00:13Z" (567993613) 0x352-0x355.7 (4)
0x350|                  00 00 00 0e                  |      ....      |        corr: 14 0x356-0x359.7 (4)
     |                                               |                |      [14]{}: leap_second_record 0x35a-0x361.7 (8)
0x350|                              25 9e 9d 8e      |          %...  |        occur: "1990-01-01T00:00:14Z" (631152014) 0x35a-0x35d.7 (4)
0x350|                                          00 00|              ..|        corr: 15 0x35e-0x361.7 (4)
0x360|00 0f                                          |..              |
     |                                               |                |      [15]{}: leap_second_record 0x362-0x369.7 (8)
0x360|      27 7f d1 0f                              |  '...          |        occur: "1991-01-01T00:00:15Z" (662688015) 0x362-0x365.7 (4)
0x360|                  00 00 00 10                  |      ....      |        corr: 16 0x366-0x369.7 (4)
     |                                               |                |      [16]{}: leap_second_record 0x36a-0x371.7 (8)
0x360|                              2a 50 f5 90      |          *P..  |        occur: "1992-07-01T00:00:16Z" (709948816) 0x36a-0x36d.7 (4)
0x360|                                          00 00|              ..|        corr: 17 0x36e-0x371.7 (4)
0x370|00 11                                          |..              |
     |                                               |                |      [17]{}: leap_second_record 0x372-0x379.7 (8)
0x370|      2c 32 29 11                              |  ,2).          |        occur: "1993-07-01T00:00:17Z" (741484817) 0x372-0x375.7 (4)
0x370|                  00 00 00 12                  |      ....      |        corr: 18 0x376-0x379.7 (4)
     |                                               |                |      [18]{}: leap_second_record 0x37a-0x381.7 (8)
0x370|                              2e 13 5c 92      |          ..\.  |        occur: "1994-07-01T00:00:18Z" (773020818) 0x37a-0x37d.7 (4)
0x370|                                          00 00|              ..|        corr: 19 0x37e-0x381.7 (4)
0x380|00 13                                          |..              |
     |                                               |                |      [19]{}: leap_second_record 0x382-0x389.7 (8)
0x380|      30 e7 24 13                              |  0.$.          |        occur: "1996-01-01T00:00:19Z" (820454419) 0x382-0x385.7 (4)
0x380|                  00 00 00 14                  |      ....      |        corr: 20 0x386-0x389.7 (4)
     |                                               |                |      [20]{}: leap_second_record 0x38a-0x391.7 (8)
0x380|                              33 b8 48 94      |          3.H.  |        occur: "1997-07-01T00:00:20Z" (867715220) 0x38a-0x38d.7 (4)
0x380|                                          00 00|              ..|        corr: 21 0x38e-0x391.7 (4)
0x390|00 15                                          |..              |
     |                                               |                |      [21]{}: leap_second_record 0x392-0x399.7 (8)
0x390|      36 8c 10 15                              |  6...          |        occur: "1999-01-01T00:00:21Z" (915148821) 0x392-0x395.7 (4)
0x390|                  00 00 00 16                  |      ....      |        corr: 22 0x396-0x399.7 (4)
     |                                               |                |      [22]{}: leap_second_record 0x39a-0x3a1.7 (8)
0x390|                              43 b7 1b 96      |          C...  |        occur: "2006-01-01T00:00:22Z" (1136073622) 0x39a-0x39d.7 (4)
0x390|                                          00 00|              ..|        corr: 23 0x39e-0x3a1.7 (4)
0x3a0|00 17                                          |..              |
     |                                               |                |      [23]{}: leap_second_record 0x3a2-0x3a9.7 (8)
0x3a0|      49 5c 07 97                              |  I\..          |        occur: "2009-01-01T00:00:23Z" (1230768023) 0x3a2-0x3a5.7 (4)
0x3a0|                  00 00 00 18                  |      ....      |        corr: 24 0x3a6-0x3a9.7 (4)
     |                                               |                |      [24]{}: leap_second_record 0x3aa-0x3b1.7 (8)
0x3a0|                              4f ef 93 18      |          O...  |        occur: "2012-07-01T00:00:24Z" (1341100824) 0x3aa-0x3ad.7 (4)
0x3a0|                                          00 00|              ..|        corr: 25 0x3ae-0x3b1.7 (4)
0x3b0|00 19                                          |..              |
     |                                               |                |      [25]{}: leap_second_record 0x3b2-0x3b9.7 (8)
0x3b0|      55 93 2d 99                              |  U.-.          |        occur: "2015-07-01T00:00:25Z" (1435708825) 0x3b2-0x3b5.7 (4)
0x3b0|                  00 00 00 1a                  |      ....      |        corr: 26 0x3b6-0x3b9.7 (4)
     |                                               |                |      [26]{}: leap_second_record 0x3ba-0x3c1.7 (8)
0x3b0|                              58 68 46 9a      |          XhF.  |        occur: "2017-01-01T00:00:26Z" (1483228826) 0x3ba-0x3bd.7 (4)
0x3b0|                                          00 00|              ..|        corr: 27 0x3be-0x3c1.7 (4)
0x3c0|00 1b                                          |..              |
     |                                               |                |    standard_wall_indicators[0:8]: 0x3c2-0x3c9.7 (8)
0x3c0|      00                                       |  .             |      [0]: 0 standard_wall_indicator (valid) 0x3c2-0x3c2.7 (1)
0x3c0|         00                                    |   .            |      [1]: 0 standard_wall_indicator (valid) 0x3c3-0x3c3.7 (1)
0x3c0|            00                                 |    .           |      [2]: 0 standard_wall_indicator (valid) 0x3c4-0x3c4.7 (1)
0x3c0|               00                              |     .          |      [3]: 0 standard_wall_indicator (valid) 0x3c5-0x3c5.7 (1)
0x3c0|                  01                           |      .         |      [4]: 1 standard_wall_indicator (valid) 0x3c6-0x3c6.7 (1)
0x3c0|                     01                        |       .        |      [5]: 1 standard_wall_indicator (valid) 0x3c7-0x3c7.7 (1)
0x3c0|                        00                     |        .       |      [6]: 0 standard_wall_indicator (valid) 0x3c8-0x3c8.7 (1)
0x3c0|                           00                  |         .      |      [7]: 0 standard_wall_indicator (valid) 0x3c9-0x3c9.7 (1)
     |                                               |                |    ut_local_indicators[0:8]: 0x3ca-0x3d1.7 (8)
0x3c0|                              00               |          .     |      [0]: 0 ut_local_indicator (valid) 0x3ca-0x3ca.7 (1)
0x3c0|                                 00            |           .    |      [1]: 0 ut_local_indicator (valid) 0x3cb-0x3cb.7 (1)
0x3c0|                                    00         |            .   |      [2]: 0 ut_local_indicator (valid) 0x3cc-0x3cc.7 (1)
0x3c0|                                       00      |             .  |      [3]: 0 ut_local_indicator (valid) 0x3cd-0x3cd.7 (1)
0x3c0|                                          01   |              . |      [4]: 1 ut_local_indicator (valid) 0x3ce-0x3ce.7 (1)
0x3c0|                                             01|               .|      [5]: 1 ut_local_indicator (valid) 0x3cf-0x3cf.7 (1)
0x3d0|00                                             |.               |      [6]: 0 ut_local_indicator (valid) 0x3d0-0x3d0.7 (1)
0x3d0|   00                                          | .              |      [7]: 0 ut_local_indicator (valid) 0x3d1-0x3d1.7 (1)
     |                                               |                |  v2plusheader{}: 0x3d2-0x3fd.7 (44)
0x3d0|      54 5a 69 66                              |  TZif          |    magic: 0x545a6966 (valid) 0x3d2-0x3d5.7 (4)
0x3d0|                  32                           |      2         |    ver: "2" (0x32) (valid) 0x3d6-0x3d6.7 (1)
0x3d0|                     00 00 00 00 00 00 00 00 00|       .........|    reserved: raw bits 0x3d7-0x3e5.7 (15)
0x3e0|00 00 00 00 00 00                              |......          |
0x3e0|                  00 00 00 08                  |      ....      |    isutcnt: 8 0x3e6-0x3e9.7 (4)
0x3e0|                              00 00 00 08      |          ....  |    isstdcnt: 8 0x3ea-0x3ed.7 (4)
0x3e0|                                          00 00|              ..|    leapcnt: 27 0x3ee-0x3f1.7 (4)
0x3f0|00 1b                                          |..              |
0x3f0|      00 00 00 7e                              |  ...~          |    timecnt: 126 0x3f2-0x3f5.7 (4)
0x3f0|                  00 00 00 08                  |      ....      |    typecnt: 8 0x3f6-0x3f9.7 (4)
0x3f0|                              00 00 00 18      |          ....  |    charcnt: 24 0x3fa-0x3fd.7 (4)
     |                                               |                |  v2plusdatablock{}: 0x3fe-0xa07.7 (1546)
     |                                               |                |    transition_times[0:126]: 0x3fe-0x7ed.7 (1008)
0x3f0|                                          ff ff|              ..|      [0]: "1883-11-18T18:00:00Z" (-2717647200) transition_time 0x3fe-0x405.7 (8)
0x400|ff ff 5e 03 fe a0                              |..^...          |
0x400|                  ff ff ff ff 9e a6 2c 80      |      ......,.  |      [1]: "1918-03-31T08:00:00Z" (-1633276800) transition_time 0x406-0x40d.7 (8)
0x400|                                          ff ff|              ..|      [2]: "1918-10-27T07:00:00Z" (-1615136400) transition_time 0x40e-0x415.7 (8)
0x410|ff ff 9f ba f9 70                              |.....p          |
0x410|                  ff ff ff ff a0 86 0e 80      |      ........  |      [3]: "1919-03-30T08:00:00Z" (-1601827200) transition_time 0x416-0x41d.7 (8)
0x410|                                          ff ff|              ..|      [4]: "1919-10-26T07:00:00Z" (-1583686800) transition_time 0x41e-0x425.7 (8)
0x420|ff ff a1 9a db 70                              |.....p          |
0x420|                  ff ff ff ff cb 88 fe 80      |      ........  |      [5]: "1942-02-09T08:00:00Z" (-880214400) transition_time 0x426-0x42d.7 (8)
0x420|                                          ff ff|              ..|      [6]: "1945-08-14T23:00:00Z" (-769395600) transition_time 0x42e-0x435.7 (8)
0x430|ff ff d2 23 f4 70                              |...#.p          |
0x430|                  ff ff ff ff d2 61 09 f0      |      .....a..  |      [7]: "1945-09-30T07:00:00Z" (-765392400) transition_time 0x436-0x43d.7 (8)
0x430|                                          ff ff|              ..|      [8]: "1947-04-27T08:00:00Z" (-715795200) transition_time 0x43e-0x445.7 (8)
0x440|ff ff d5 55 d5 00                              |...U..          |
0x440|                  ff ff ff ff d6 20 cd f0      |      ..... ..  |      [9]: "1947-09-28T07:00:00Z" (-702493200) transition_time 0x446-0x44d.7 (8)
0x440|                                          ff ff|              ..|      [10]: "1948-04-25T08:00:00Z" (-684345600) transition_time 0x44e-0x455.7 (8)
0x450|ff ff d7 35 b7 00                              |...5..          |
0x450|                  ff ff ff ff d8 00 af f0      |      ........  |      [11]: "1948-09-26T07:00:00Z" (-671043600) transition_time 0x456-0x45d.7 (8)
0x450|                                          ff ff|              ..|      [12]: "1949-04-24T08:00:00Z" (-652896000) transition_time 0x45e-0x465.7 (8)
0x460|ff ff d9 15 99 00                              |......          |
0x460|                  ff ff ff ff d9 e0 91 f0      |      ........  |      [13]: "1949-09-25T07:00:00Z" (-639594000) transition_time 0x466-0x46d.7 (8)
0x460|                                          ff ff|              ..|      [14]: "1950-04-30T08:00:00Z" (-620841600) transition_time 0x46e-0x475.7 (8)
0x470|ff ff da fe b5 80                              |......          |
0x470|                  ff ff ff ff db c0 73 f0      |      ......s.  |      [15]: "1950-09-24T07:00:00Z" (-608144400) transition_time 0x476-0x47d.7 (8)
0x470|                                          ff ff|              ..|      [16]: "1951-04-29T08:00:00Z" (-589392000) transition_time 0x47e-0x485.7 (8)
0x480|ff ff dc de 97 80                              |......          |
0x480|                  ff ff ff ff dd a9 90 70      |      .......p  |      [17]: "1951-09-30T07:00:00Z" (-576090000) transition_time 0x486-0x48d.7 (8)
0x480|                                          ff ff|              ..|      [18]: "1952-04-27T08:00:00Z" (-557942400) transition_time 0x48e-0x495.7 (8)
0x490|ff ff de be 79 80                              |....y.          |
0x490|                  ff ff ff ff df 89 72 70      |      ......rp  |      [19]: "1952-09-28T07:00:00Z" (-544640400) transition_time 0x496-0x49d.7 (8)
0x490|                                          ff ff|              ..|      [20]: "1953-04-26T08:00:00Z" (-526492800) transition_time 0x49e-0x4a5.7 (8)
0x4a0|ff ff e0 9e 5b 80                              |....[.          |
0x4a0|                  ff ff ff ff e1 69 54 70      |      .....iTp  |      [21]: "1953-09-27T07:00:00Z" (-513190800) transition_time 0x4a6-0x4ad.7 (8)
0x4a0|                                          ff ff|              ..|      [22]: "1954-04-25T08:00:00Z" (-495043200) transition_time 0x4ae-0x4b5.7 (8)
0x4b0|ff ff e2 7e 3d 80                              |...~=.          |
0x4b0|                  ff ff ff ff e3 49 36 70      |      .....I6p  |      [23]: "1954-09-26T07:00:00Z" (-481741200) transition_time 0x4b6-0x4bd.7 (8)
0x4b0|                                          ff ff|              ..|      [24]: "1955-04-24T08:00:00Z" (-463593600) transition_time 0x4be-0x4c5.7 (8)
0x4c0|ff ff e4 5e 1f 80                              |...^..          |
0x4c0|                  ff ff ff ff e5 57 3c f0      |      .....W<.  |      [25]: "1955-10-30T07:00:00Z" (-447267600) transition_time 0x4c6-0x4cd.7 (8)
0x4c0|                                          ff ff|              ..|      [26]: "1956-04-29T08:00:00Z" (-431539200) transition_time 0x4ce-0x4d5.7 (8)
0x4d0|ff ff e6 47 3c 00                              |...G<.          |
0x4d0|                  ff ff ff ff e7 37 1e f0      |      .....7..  |      [27]: "1956-10-28T07:00:00Z" (-415818000) transition_time 0x4d6-0x4dd.7 (8)
0x4d0|                                          ff ff|              ..|      [28]: "1957-04-28T08:00:00Z" (-400089600) transition_time 0x4de-0x4e5.7 (8)
0x4e0|ff ff e8 27 1e 00                              |...'..          |
0x4e0|                  ff ff ff ff e8 f2 16 f0      |      ........  |      [29]: "1957-09-29T07:00:00Z" (-386787600) transition_time 0x4e6-0x4ed.7 (8)
0x4e0|                                          ff ff|              ..|      [30]: "1958-04-27T08:00:00Z" (-368640000) transition_time 0x4ee-0x4f5.7 (8)
0x4f0|ff ff ea 07 00 00                              |......          |
0x4f0|                  ff ff ff ff ea d1 f8 f0      |      ........  |      [31]: "1958-09-28T07:00:00Z" (-355338000) transition_time 0x4f6-0x4fd.7 (8)
0x4f0|                                          ff ff|              ..|      [32]: "1959-04-26T08:00:00Z" (-337190400) transition_time 0x4fe-0x505.7 (8)
0x500|ff ff eb e6 e2 00                              |......          |
0x500|                  ff ff ff ff ec d6 c4 f0      |      ........  |      [33]: "1959-10-25T07:00:00Z" (-321469200) transition_time 0x506-0x50d.7 (8)
0x500|                                          ff ff|              ..|      [34]: "1960-04-24T08:00:00Z" (-305740800) transition_time 0x50e-0x515.7 (8)
0x510|ff ff ed c6 c4 00                              |......          |
0x510|                  ff ff ff ff ee bf e1 70      |      .......p  |      [35]: "1960-10-30T07:00:00Z" (-289414800) transition_time 0x516-0x51d.7 (8)
0x510|                                          ff ff|              ..|      [36]: "1961-04-30T08:00:00Z" (-273686400) transition_time 0x51e-0x525.7 (8)
0x520|ff ff ef af e0 80                              |......          |
0x520|                  ff ff ff ff f0 9f c3 70      |      .......p  |      [37]: "1961-10-29T07:00:00Z" (-257965200) transition_time 0x526-0x52d.7 (8)
0x520|                                          ff ff|              ..|      [38]: "1962-04-29T08:00:00Z" (-242236800) transition_time 0x52e-0x535.7 (8)
0x530|ff ff f1 8f c2 80                              |......          |
0x530|                  ff ff ff ff f4 5f 87 70      |      ....._.p  |      [39]: "1963-10-27T07:00:00Z" (-195066000) transition_time 0x536-0x53d.7 (8)
0x530|                                          ff ff|              ..|      [40]: "1967-04-30T08:00:00Z" (-84384000) transition_time 0x53e-0x545.7 (8)
0x540|ff ff fa f8 67 00                              |....g.          |
0x540|                  ff ff ff ff fb e8 49 f0      |      ......I.  |      [41]: "1967-10-29T07:00:00Z" (-68662800) transition_time 0x546-0x54d.7 (8)
0x540|                                          ff ff|              ..|      [42]: "1968-04-28T08:00:00Z" (-52934400) transition_time 0x54e-0x555.7 (8)
0x550|ff ff fc d8 49 00                              |....I.          |
0x550|                  ff ff ff ff fd c8 2b f0      |      ......+.  |      [43]: "1968-10-27T07:00:00Z" (-37213200) transition_time 0x556-0x55d.7 (8)
0x550|                                          ff ff|              ..|      [44]: "1969-04-27T08:00:00Z" (-21484800) transition_time 0x55e-0x565.7 (8)
0x560|ff ff fe b8 2b 00                              |....+.          |
0x560|                  ff ff ff ff ff a8 0d f0      |      ........  |      [45]: "1969-10-26T07:00:00Z" (-5763600) transition_time 0x566-0x56d.7 (8)
0x560|                                          00 00|              ..|      [46]: "1970-04-26T08:00:00Z" (9964800) transition_time 0x56e-0x575.7 (8)
0x570|00 00 00 98 0d 00                              |......          |
0x570|                  00 00 00 00 01 87 ef f0      |      ........  |      [47]: "1970-10-25T07:00:00Z" (25686000) transition_time 0x576-0x57d.7 (8)
0x570|                                          00 00|              ..|      [48]: "1971-04-25T08:00:00Z" (41414400) transition_time 0x57e-0x585.7 (8)
0x580|00 00 02 77 ef 00                              |...w..          |
0x580|                  00 00 00 00 03 71 0c 70      |      .....q.p  |      [49]: "1971-10-31T07:00:00Z" (57740400) transition_time 0x586-0x58d.7 (8)
0x580|                                          00 00|              ..|      [50]: "1972-04-30T08:00:00Z" (73468800) transition_time 0x58e-0x595.7 (8)
0x590|00 00 04 61 0b 80                              |...a..          |
0x590|                  00 00 00 00 05 50 ee 71      |      .....P.q  |      [51]: "1972-10-29T07:00:01Z" (89190001) transition_time 0x596-0x59d.7 (8)
0x590|                                          00 00|              ..|      [52]: "1973-04-29T08:00:02Z" (104918402) transition_time 0x59e-0x5a5.7 (8)
0x5a0|00 00 06 40 ed 82                              |...@..          |
0x5a0|                  00 00 00 00 07 30 d0 72      |      .....0.r  |      [53]: "1973-10-28T07:00:02Z" (120639602) transition_time 0x5a6-0x5ad.7 (8)
0x5a0|                                          00 00|              ..|      [54]: "1974-01-06T08:00:03Z" (126691203) transition_time 0x5ae-0x5b5.7 (8)
0x5b0|00 00 07 8d 27 83                              |....'.          |
0x5b0|                  00 00 00 00 09 10 b2 73      |      .......s  |      [55]: "1974-10-27T07:00:03Z" (152089203) transition_time 0x5b6-0x5bd.7 (8)
0x5b0|                                          00 00|              ..|      [56]: "1975-02-23T08:00:04Z" (162374404) transition_time 0x5be-0x5c5.7 (8)
0x5c0|00 00 09 ad a3 04                              |......          |
0x5c0|                  00 00 00 00 0a f0 94 74      |      .......t  |      [57]: "1975-10-26T07:00:04Z" (183538804) transition_time 0x5c6-0x5cd.7 (8)
0x5c0|                                          00 00|              ..|      [58]: "1976-04-25T08:00:05Z" (199267205) transition_time 0x5ce-0x5d5.7 (8)
0x5d0|00 00 0b e0 93 85                              |......          |
0x5d0|                  00 00 00 00 0c d9 b0 f5      |      ........  |      [59]: "1976-10-31T07:00:05Z" (215593205) transition_time 0x5d6-0x5dd.7 (8)
0x5d0|                                          00 00|              ..|      [60]: "1977-04-24T08:00:06Z" (230716806) transition_time 0x5de-0x5e5.7 (8)
0x5e0|00 00 0d c0 75 86                              |....u.          |
0x5e0|                  00 00 00 00 0e b9 92 f6      |      ........  |      [61]: "1977-10-30T07:00:06Z" (247042806) transition_time 0x5e6-0x5ed.7 (8)
0x5e0|                                          00 00|              ..|      [62]: "1978-04-30T08:00:07Z" (262771207) transition_time 0x5ee-0x5f5.7 (8)
0x5f0|00 00 0f a9 92 07                              |......          |
0x5f0|                  00 00 00 00 10 99 74 f7      |      ......t.  |      [63]: "1978-10-29T07:00:07Z" (278492407) transition_time 0x5f6-0x5fd.7 (8)
0x5f0|                                          00 00|              ..|      [64]: "1979-04-29T08:00:08Z" (294220808) transition_time 0x5fe-0x605.7 (8)
0x600|00 00 11 89 74 08                              |....t.          |
0x600|                  00 00 00 00 12 79 56 f8      |      .....yV.  |      [65]: "1979-10-28T07:00:08Z" (309942008) transition_time 0x606-0x60d.7 (8)
0x600|                                          00 00|              ..|      [66]: "1980-04-27T08:00:09Z" (325670409) transition_time 0x60e-0x615.7 (8)
0x610|00 00 13 69 56 09                              |...iV.          |
0x610|                  00 00 00 00 14 59 38 f9      |      .....Y8.  |      [67]: "1980-10-26T07:00:09Z" (341391609) transition_time 0x616-0x61d.7 (8)
0x610|                                          00 00|              ..|      [68]: "1981-04-26T08:00:09Z" (357120009) transition_time 0x61e-0x625.7 (8)
0x620|00 00 15 49 38 09                              |...I8.          |
0x620|                  00 00 00 00 16 39 1a fa      |      .....9..  |      [69]: "1981-10-25T07:00:10Z" (372841210) transition_time 0x626-0x62d.7 (8)
0x620|                                          00 00|              ..|      [70]: "1982-04-25T08:00:10Z" (388569610) transition_time 0x62e-0x635.7 (8)
0x630|00 00 17 29 1a 0a                              |...)..          |
0x630|                  00 00 00 00 18 22 37 7b      |      ....."7{  |      [71]: "1982-10-31T07:00:11Z" (404895611) transition_time 0x636-0x63d.7 (8)
0x630|                                          00 00|              ..|      [72]: "1983-04-24T08:00:11Z" (420019211) transition_time 0x63e-0x645.7 (8)
0x640|00 00 19 08 fc 0b                              |......          |
0x640|                  00 00 00 00 1a 02 19 7c      |      .......|  |      [73]: "1983-10-30T07:00:12Z" (436345212) transition_time 0x646-0x64d.7 (8)
0x640|                                          00 00|              ..|      [74]: "1984-04-29T08:00:12Z" (452073612) transition_time 0x64e-0x655.7 (8)
0x650|00 00 1a f2 18 8c                              |......          |
0x650|                  00 00 00 00 1b e1 fb 7c      |      .......|  |      [75]: "1984-10-28T07:00:12Z" (467794812) transition_time 0x656-0x65d.7 (8)
0x650|                                          00 00|              ..|      [76]: "1985-04-28T08:00:12Z" (483523212) transition_time 0x65e-0x665.7 (8)
0x660|00 00 1c d1 fa 8c                              |......          |
0x660|                  00 00 00 00 1d c1 dd 7d      |      .......}  |      [77]: "1985-10-27T07:00:13Z" (499244413) transition_time 0x666-0x66d.7 (8)
0x660|                                          00 00|              ..|      [78]: "1986-04-27T08:00:13Z" (514972813) transition_time 0x66e-0x675.7 (8)
0x670|00 00 1e b1 dc 8d                              |......          |
0x670|                  00 00 00 00 1f a1 bf 7d      |      .......}  |      [79]: "1986-10-26T07:00:13Z" (530694013) transition_time 0x676-0x67d.7 (8)
0x670|                                          00 00|              ..|      [80]: "1987-04-05T08:00:13Z" (544608013) transition_time 0x67e-0x685.7 (8)
0x680|00 00 20 76 0f 0d                              |.. v..          |
0x680|                  00 00 00 00 21 81 a1 7d      |      ....!..}  |      [81]: "1987-10-25T07:00:13Z" (562143613) transition_time 0x686-0x68d.7 (8)
0x680|                                          00 00|              ..|      [82]: "1988-04-03T08:00:14Z" (576057614) transition_time 0x68e-0x695.7 (8)
0x690|00 00 22 55 f1 0e                              |.."U..          |
0x690|                  00 00 00 00 23 6a bd fe      |      ....#j..  |      [83]: "1988-10-30T07:00:14Z" (594198014) transition_time 0x696-0x69d.7 (8)
0x690|                                          00 00|              ..|      [84]: "1989-04-02T08:00:14Z" (607507214) transition_time 0x69e-0x6a5.7 (8)
0x6a0|00 00 24 35 d3 0e                              |..$5..          |
0x6a0|                  00 00 00 00 25 4a 9f fe      |      ....%J..  |      [85]: "1989-10-29T07:00:14Z" (625647614) transition_time 0x6a6-0x6ad.7 (8)
0x6a0|                                          00 00|              ..|      [86]: "1990-04-01T08:00:15Z" (638956815) transition_time 0x6ae-0x6b5.7 (8)
0x6b0|00 00 26 15 b5 0f                              |..&...          |
0x6b0|                  00 00 00 00 27 2a 81 ff      |      ....'*..  |      [87]: "1990-10-28T07:00:15Z" (657097215) transition_time 0x6b6-0x6bd.7 (8)
0x6b0|                                          00 00|              ..|      [88]: "1991-04-07T08:00:16Z" (671011216) transition_time 0x6be-0x6c5.7 (8)
0x6c0|00 00 27 fe d1 90                              |..'...          |
0x6c0|                  00 00 00 00 29 0a 64 00      |      ....).d.  |      [89]: "1991-10-27T07:00:16Z" (688546816) transition_time 0x6c6-0x6cd.7 (8)
0x6c0|                                          00 00|              ..|      [90]: "2006-04-02T07:00:23Z" (1143961223) transition_time 0x6ce-0x6d5.7 (8)
0x6d0|00 00 44 2f 76 87                              |..D/v.          |
0x6d0|                  00 00 00 00 45 44 51 87      |      ....EDQ.  |      [91]: "2006-10-29T07:00:23Z" (1162105223) transition_time 0x6d6-0x6dd.7 (8)
0x6d0|                                          00 00|              ..|      [92]: "2007-03-11T08:00:23Z" (1173600023) transition_time 0x6de-0x6e5.7 (8)
0x6e0|00 00 45 f3 b7 17                              |..E...          |
0x6e0|                  00 00 00 00 47 2d 6e 07      |      ....G-n.  |      [93]: "2007-11-04T07:00:23Z" (1194159623) transition_time 0x6e6-0x6ed.7 (8)
0x6e0|                                          00 00|              ..|      [94]: "2008-03-09T08:00:23Z" (1205049623) transition_time 0x6ee-0x6f5.7 (8)
0x6f0|00 00 47 d3 99 17                              |..G...          |
0x6f0|                  00 00 00 00 49 0d 50 07      |      ....I.P.  |      [95]: "2008-11-02T07:00:23Z" (1225609223) transition_time 0x6f6-0x6fd.7 (8)
0x6f0|                                          00 00|              ..|      [96]: "2009-03-08T08:00:24Z" (1236499224) transition_time 0x6fe-0x705.7 (8)
0x700|00 00 49 b3 7b 18                              |..I.{.          |
0x700|                  00 00 00 00 4a ed 32 08      |      ....J.2.  |      [97]: "2009-11-01T07:00:24Z" (1257058824) transition_time 0x706-0x70d.7 (8)
0x700|                                          00 00|              ..|      [98]: "2010-03-14T08:00:24Z" (1268553624) transition_time 0x70e-0x715.7 (8)
0x710|00 00 4b 9c 97 98                              |..K...          |
0x710|                  00 00 00 00 4c d6 4e 88      |      ....L.N.  |      [99]: "2010-11-07T07:00:24Z" (1289113224) transition_time 0x716-0x71d.7 (8)
0x710|                                          00 00|              ..|      [100]: "2011-03-13T08:00:24Z" (1300003224) transition_time 0x71e-0x725.7 (8)
0x720|00 00 4d 7c 79 98                              |..M|y.          |
0x720|                  00 00 00 00 4e b6 30 88      |      ....N.0.  |      [101]: "2011-11-06T07:00:24Z" (1320562824) transition_time 0x726-0x72d.7 (8)
0x720|                                          00 00|              ..|      [102]: "2012-03-11T08:00:24Z" (1331452824) transition_time 0x72e-0x735.7 (8)
0x730|00 00 4f 5c 5b 98                              |..O\[.          |
0x730|                  00 00 00 00 50 96 12 89      |      ....P...  |      [103]: "2012-11-04T07:00:25Z" (1352012425) transition_time 0x736-0x73d.7 (8)
0x730|                                          00 00|              ..|      [104]: "2013-03-10T08:00:25Z" (1362902425) transition_time 0x73e-0x745.7 (8)
0x740|00 00 51 3c 3d 99                              |..Q<=.          |
0x740|                  00 00 00 00 52 75 f4 89      |      ....Ru..  |      [105]: "2013-11-03T07:00:25Z" (1383462025) transition_time 0x746-0x74d.7 (8)
0x740|                                          00 00|              ..|      [106]: "2014-03-09T08:00:25Z" (1394352025) transition_time 0x74e-0x755.7 (8)
0x750|00 00 53 1c 1f 99                              |..S...          |
0x750|                  00 00 00 00 54 55 d6 89      |      ....TU..  |      [107]: "2014-11-02T07:00:25Z" (1414911625) transition_time 0x756-0x75d.7 (8)
0x750|                                          00 00|              ..|      [108]: "2015-03-08T08:00:25Z" (1425801625) transition_time 0x75e-0x765.7 (8)
0x760|00 00 54 fc 01 99                              |..T...          |
0x760|                  00 00 00 00 56 35 b8 8a      |      ....V5..  |      [109]: "2015-11-01T07:00:26Z" (1446361226) transition_time 0x766-0x76d.7 (8)
0x760|                                          00 00|              ..|      [110]: "2016-03-13T08:00:26Z" (1457856026) transition_time 0x76e-0x775.7 (8)
0x770|00 00 56 e5 1e 1a                              |..V...          |
0x770|                  00 00 00 00 58 1e d5 0a      |      ....X...  |      [111]: "2016-11-06T07:00:26Z" (1478415626) transition_time 0x776-0x77d.7 (8)
0x770|                                          00 00|              ..|      [112]: "2017-03-12T08:00:27Z" (1489305627) transition_time 0x77e-0x785.7 (8)
0x780|00 00 58 c5 00 1b                              |..X...          |
0x780|                  00 00 00 00 59 fe b7 0b      |      ....Y...  |      [113]: "2017-11-05T07:00:27Z" (1509865227) transition_time 0x786-0x78d.7 (8)
0x780|                                          00 00|              ..|      [114]: "2018-03-11T08:00:27Z" (1520755227) transition_time 0x78e-0x795.7 (8)
0x790|00 00 5a a4 e2 1b                              |..Z...          |
0x790|                  00 00 00 00 5b de 99 0b      |      ....[...  |      [115]: "2018-11-04T07:00:27Z" (1541314827) transition_time 0x796-0x79d.7 (8)
0x790|                                          00 00|              ..|      [116]: "2019-03-10T08:00:27Z" (1552204827) transition_time 0x79e-0x7a5.7 (8)
0x7a0|00 00 5c 84 c4 1b                              |..\...          |
0x7a0|                  00 00 00 00 5d be 7b 0b      |      ....].{.  |      [117]: "2019-11-03T07:00:27Z" (1572764427) transition_time 0x7a6-0x7ad.7 (8)
0x7a0|                                          00 00|              ..|      [118]: "2020-03-08T08:00:27Z" (1583654427) transition_time 0x7ae-0x7b5.7 (8)
0x7b0|00 00 5e 64 a6 1b                              |..^d..          |
0x7b0|                  00 00 00 00 5f 9e 5d 0b      |      ...._.].  |      [119]: "2020-11-01T07:00:27Z" (1604214027) transition_time 0x7b6-0x7bd.7 (8)
0x7b0|                                          00 00|              ..|      [120]: "2021-03-14T08:00:27Z" (1615708827) transition_time 0x7be-0x7c5.7 (8)
0x7c0|00 00 60 4d c2 9b                              |..`M..          |
0x7c0|                  00 00 00 00 61 87 79 8b      |      ....a.y.  |      [121]: "2021-11-07T07:00:27Z" (1636268427) transition_time 0x7c6-0x7cd.7 (8)
0x7c0|                                          00 00|              ..|      [122]: "2022-03-13T08:00:27Z" (1647158427) transition_time 0x7ce-0x7d5.7 (8)
0x7d0|00 00 62 2d a4 9b                              |..b-..          |
0x7d0|                  00 00 00 00 63 67 5b 8b      |      ....cg[.  |      [123]: "2022-11-06T07:00:27Z" (1667718027) transition_time 0x7d6-0x7dd.7 (8)
0x7d0|                                          00 00|              ..|      [124]: "2023-03-12T08:00:27Z" (1678608027) transition_time 0x7de-0x7e5.7 (8)
0x7e0|00 00 64 0d 86 9b                              |..d...          |
0x7e0|                  00 00 00 00 64 9b 78 1b      |      ....d.x.  |      [125]: "2023-06-28T00:00:27Z" (1687910427) transition_time 0x7e6-0x7ed.7 (8)
     |                                               |                |    transition_types[0:126]: 0x7ee-0x86b.7 (126)
0x7e0|                                          05   |              . |      [0]: 5 transition_type 0x7ee-0x7ee.7 (1)
0x7e0|                                             01|               .|      [1]: 1 transition_type 0x7ef-0x7ef.7 (1)
0x7f0|02                                             |.               |      [2]: 2 transition_type 0x7f0-0x7f0.7 (1)
0x7f0|   01                                          | .              |      [3]: 1 transition_type 0x7f1-0x7f1.7 (1)
0x7f0|      02                                       |  .             |      [4]: 2 transition_type 0x7f2-0x7f2.7 (1)
0x7f0|         03                                    |   .            |      [5]: 3 transition_type 0x7f3-0x7f3.7 (1)
0x7f0|            04                                 |    .           |      [6]: 4 transition_type 0x7f4-0x7f4.7 (1)
0x7f0|               02                              |     .          |      [7]: 2 transition_type 0x7f5-0x7f5.7 (1)
0x7f0|                  01                           |      .         |      [8]: 1 transition_type 0x7f6-0x7f6.7 (1)
0x7f0|                     02                        |       .        |      [9]: 2 transition_type 0x7f7-0x7f7.7 (1)
0x7f0|                        01                     |        .       |      [10]: 1 transition_type 0x7f8-0x7f8.7 (1)
0x7f0|                           02                  |         .      |      [11]: 2 transition_type 0x7f9-0x7f9.7 (1)
0x7f0|                              01               |          .     |      [12]: 1 transition_type 0x7fa-0x7fa.7 (1)
0x7f0|                                 02            |           .    |      [13]: 2 transition_type 0x7fb-0x7fb.7 (1)
0x7f0|                                    01         |            .   |      [14]: 1 transition_type 0x7fc-0x7fc.7 (1)
0x7f0|                                       02      |             .  |      [15]: 2 transition_type 0x7fd-0x7fd.7 (1)
0x7f0|                                          01   |              . |      [16]: 1 transition_type 0x7fe-0x7fe.7 (1)
0x7f0|                                             02|               .|      [17]: 2 transition_type 0x7ff-0x7ff.7 (1)
0x800|01                                             |.               |      [18]: 1 transition_type 0x800-0x800.7 (1)
0x800|   02                                          | .              |      [19]: 2 transition_type 0x801-0x801.7 (1)
0x800|      01                                       |  .             |      [20]: 1 transition_type 0x802-0x802.7 (1)
0x800|         02                                    |   .            |      [21]: 2 transition_type 0x803-0x803.7 (1)
0x800|            01                                 |    .           |      [22]: 1 transition_type 0x804-0x804.7 (1)
0x800|               02                              |     .          |      [23]: 2 transition_type 0x805-0x805.7 (1)
0x800|                  01                           |      .         |      [24]: 1 transition_type 0x806-0x806.7 (1)
0x800|                     02                        |       .        |      [25]: 2 transition_type 0x807-0x807.7 (1)
0x800|                        01                     |        .       |      [26]: 1 transition_type 0x808-0x808.7 (1)
0x800|                           02                  |         .      |      [27]: 2 transition_type 0x809-0x809.7 (1)
0x800|                              01               |          .     |      [28]: 1 transition_type 0x80a-0x80a.7 (1)
0x800|                                 02            |           .    |      [29]: 2 transition_type 0x80b-0x80b.7 (1)
0x800|                                    01         |            .   |      [30]: 1 transition_type 0x80c-0x80c.7 (1)
0x800|                                       02      |             .  |      [31]: 2 transition_type 0x80d-0x80d.7 (1)
0x800|                                          01   |              . |      [32]: 1 transition_type 0x80e-0x80e.7 (1)
0x800|                                             02|               .|      [33]: 2 transition_type 0x80f-0x80f.7 (1)
0x810|01                                             |.               |      [34]: 1 transition_type 0x810-0x810.7 (1)
0x810|   02                                          | .              |      [35]: 2 transition_type 0x811-0x811.7 (1)
0x810|      01                                       |  .             |      [36]: 1 transition_type 0x812-0x812.7 (1)
0x810|         02                                    |   .            |      [37]: 2 transition_type 0x813-0x813.7 (1)
0x810|            06                                 |    .           |      [38]: 6 transition_type 0x814-0x814.7 (1)
0x810|               02                              |     .          |      [39]: 2 transition_type 0x815-0x815.7 (1)
0x810|                  01                           |      .         |      [40]: 1 transition_type 0x816-0x816.7 (1)
0x810|                     02                        |       .        |      [41]: 2 transition_type 0x817-0x817.7 (1)
0x810|                        01                     |        .       |      [42]: 1 transition_type 0x818-0x818.7 (1)
0x810|                           02                  |         .      |      [43]: 2 transition_type 0x819-0x819.7 (1)
0x810|                              01               |          .     |      [44]: 1 transition_type 0x81a-0x81a.7 (1)
0x810|                                 02            |           .    |      [45]: 2 transition_type 0x81b-0x81b.7 (1)
0x810|                                    01         |            .   |      [46]: 1 transition_type 0x81c-0x81c.7 (1)
0x810|                                       02      |             .  |      [47]: 2 transition_type 0x81d-0x81d.7 (1)
0x810|                                          01   |              . |      [48]: 1 transition_type 0x81e-0x81e.7 (1)
0x810|                                             02|               .|      [49]: 2 transition_type 0x81f-0x81f.7 (1)
0x820|01                                             |.               |      [50]: 1 transition_type 0x820-0x820.7 (1)
0x820|   02                                          | .              |      [51]: 2 transition_type 0x821-0x821.7 (1)
0x820|      01                                       |  .             |      [52]: 1 transition_type 0x822-0x822.7 (1)
0x820|         02                                    |   .            |      [53]: 2 transition_type 0x823-0x823.7 (1)
0x820|            01                                 |    .           |      [54]: 1 transition_type 0x824-0x824.7 (1)
0x820|               02                              |     .          |      [55]: 2 transition_type 0x825-0x825.7 (1)
0x820|                  01                           |      .         |      [56]: 1 transition_type 0x826-0x826.7 (1)
0x820|                     02                        |       .        |      [57]: 2 transition_type 0x827-0x827.7 (1)
0x820|                        01                     |        .       |      [58]: 1 transition_type 0x828-0x828.7 (1)
0x820|                           02                  |         .      |      [59]: 2 transition_type 0x829-0x829.7 (1)
0x820|                              01               |          .     |      [60]: 1 transition_type 0x82a-0x82a.7 (1)
0x820|                                 02            |           .    |      [61]: 2 transition_type 0x82b-0x82b.7 (1)
0x820|                                    01         |            .   |      [62]: 1 transition_type 0x82c-0x82c.7 (1)
0x820|                                       02      |             .  |      [63]: 2 transition_type 0x82d-0x82d.7 (1)
0x820|                                          01   |              . |      [64]: 1 transition_type 0x82e-0x82e.7 (1)
0x820|                                             02|               .|      [65]: 2 transition_type 0x82f-0x82f.7 (1)
0x830|01                                             |.               |      [66]: 1 transition_type 0x830-0x830.7 (1)
0x830|   02                                          | .              |      [67]: 2 transition_type 0x831-0x831.7 (1)
0x830|      01                                       |  .             |      [68]: 1 transition_type 0x832-0x832.7 (1)
0x830|         02                                    |   .            |      [69]: 2 transition_type 0x833-0x833.7 (1)
0x830|            01                                 |    .           |      [70]: 1 transition_type 0x834-0x834.7 (1)
0x830|               02                              |     .          |      [71]: 2 transition_type 0x835-0x835.7 (1)
0x830|                  01                           |      .         |      [72]: 1 transition_type 0x836-0x836.7 (1)
0x830|                     02                        |       .        |      [73]: 2 transition_type 0x837-0x837.7 (1)
0x830|                        01                     |        .       |      [74]: 1 transition_type 0x838-0x838.7 (1)
0x830|                           02                  |         .      |      [75]: 2 transition_type 0x839-0x839.7 (1)
0x830|                              01               |          .     |      [76]: 1 transition_type 0x83a-0x83a.7 (1)
0x830|                                 02            |           .    |      [77]: 2 transition_type 0x83b-0x83b.7 (1)
0x830|                                    01         |            .   |      [78]: 1 transition_type 0x83c-0x83c.7 (1)
0x830|                                       02      |             .  |      [79]: 2 transition_type 0x83d-0x83d.7 (1)
0x830|                                          01   |              . |      [80]: 1 transition_type 0x83e-0x83e.7 (1)
0x830|                                             02|               .|      [81]: 2 transition_type 0x83f-0x83f.7 (1)
0x840|01                                             |.               |      [82]: 1 transition_type 0x840-0x840.7 (1)
0x840|   02                                          | .              |      [83]: 2 transition_type 0x841-0x841.7 (1)
0x840|      01                                       |  .             |      [84]: 1 transition_type 0x842-0x842.7 (1)
0x840|         02                                    |   .            |      [85]: 2 transition_type 0x843-0x843.7 (1)
0x840|            01                                 |    .           |      [86]: 1 transition_type 0x844-0x844.7 (1)
0x840|               02                              |     .          |      [87]: 2 transition_type 0x845-0x845.7 (1)
0x840|                  01                           |      .         |      [88]: 1 transition_type 0x846-0x846.7 (1)
0x840|                     06                        |       .        |      [89]: 6 transition_type 0x847-0x847.7 (1)
0x840|                        01                     |        .       |      [90]: 1 transition_type 0x848-0x848.7 (1)
0x840|                           02                  |         .      |      [91]: 2 transition_type 0x849-0x849.7 (1)
0x840|                              01               |          .     |      [92]: 1 transition_type 0x84a-0x84a.7 (1)
0x840|                                 02            |           .    |      [93]: 2 transition_type 0x84b-0x84b.7 (1)
0x840|                                    01         |            .   |      [94]: 1 transition_type 0x84c-0x84c.7 (1)
0x840|                                       02      |             .  |      [95]: 2 transition_type 0x84d-0x84d.7 (1)
0x840|                                          01   |              . |      [96]: 1 transition_type 0x84e-0x84e.7 (1)
0x840|                                             02|               .|      [97]: 2 transition_type 0x84f-0x84f.7 (1)
0x850|01                                             |.               |      [98]: 1 transition_type 0x850-0x850.7 (1)
0x850|   02                                          | .              |      [99]: 2 transition_type 0x851-0x851.7 (1)
0x850|      01                                       |  .             |      [100]: 1 transition_type 0x852-0x852.7 (1)
0x850|         02                                    |   .            |      [101]: 2 transition_type 0x853-0x853.7 (1)
0x850|            01                                 |    .           |      [102]: 1 transition_type 0x854-0x854.7 (1)
0x850|               02                              |     .          |      [103]: 2 transition_type 0x855-0x855.7 (1)
0x850|                  01                           |      .         |      [104]: 1 transition_type 0x856-0x856.7 (1)
0x850|                     02                        |       .        |      [105]: 2 transition_type 0x857-0x857.7 (1)
0x850|                        01                     |        .       |      [106]: 1 transition_type 0x858-0x858.7 (1)
0x850|                           02                  |         .      |      [107]: 2 transition_type 0x859-0x859.7 (1)
0x850|                              01               |          .     |      [108]: 1 transition_type 0x85a-0x85a.7 (1)
0x850|                                 02            |           .    |      [109]: 2 transition_type 0x85b-0x85b.7 (1)
0x850|                                    01         |            .   |      [110]: 1 transition_type 0x85c-0x85c.7 (1)
0x850|                                       02      |             .  |      [111]: 2 transition_type 0x85d-0x85d.7 (1)
0x850|                                          01   |              . |      [112]: 1 transition_type 0x85e-0x85e.7 (1)
0x850|                                             02|               .|      [113]: 2 transition_type 0x85f-0x85f.7 (1)
0x860|01                                             |.               |      [114]: 1 transition_type 0x860-0x860.7 (1)
0x860|   02                                          | .              |      [115]: 2 transition_type 0x861-0x861.7 (1)
0x860|      01                                       |  .             |      [116]: 1 transition_type 0x862-0x862.7 (1)
0x860|         02                                    |   .            |      [117]: 2 transition_type 0x863-0x863.7 (1)
0x860|            01                                 |    .           |      [118]: 1 transition_type 0x864-0x864.7 (1)
0x860|               02                              |     .          |      [119]: 2 transition_type 0x865-0x865.7 (1)
0x860|                  01                           |      .         |      [120]: 1 transition_type 0x866-0x866.7 (1)
0x860|                     02                        |       .        |      [121]: 2 transition_type 0x867-0x867.7 (1)
0x860|                        01                     |        .       |      [122]: 1 transition_type 0x868-0x868.7 (1)
0x860|                           02                  |         .      |      [123]: 2 transition_type 0x869-0x869.7 (1)
0x860|                              01               |          .     |      [124]: 1 transition_type 0x86a-0x86a.7 (1)
0x860|                                 01            |           .    |      [125]: 1 transition_type 0x86b-0x86b.7 (1)
     |                                               |                |    local_time_type_records[0:8]: 0x86c-0x89b.7 (48)
     |                                               |                |      [0]{}: local_time_type 0x86c-0x871.7 (6)
0x860|                                    ff ff ae ca|            ....|        utoff: -20790 (valid) 0x86c-0x86f.7 (4)
0x870|00                                             |.               |        dst: 0 (valid) 0x870-0x870.7 (1)
0x870|   00                                          | .              |        idx: 0 (valid) 0x871-0x871.7 (1)
     |                                               |                |      [1]{}: local_time_type 0x872-0x877.7 (6)
0x870|      ff ff b9 b0                              |  ....          |        utoff: -18000 (valid) 0x872-0x875.7 (4)
0x870|                  01                           |      .         |        dst: 1 (valid) 0x876-0x876.7 (1)
0x870|                     04                        |       .        |        idx: 4 (valid) 0x877-0x877.7 (1)
     |                                               |                |      [2]{}: local_time_type 0x878-0x87d.7 (6)
0x870|                        ff ff ab a0            |        ....    |        utoff: -21600 (valid) 0x878-0x87b.7 (4)
0x870|                                    00         |            .   |        dst: 0 (valid) 0x87c-0x87c.7 (1)
0x870|                                       08      |             .  |        idx: 8 (valid) 0x87d-0x87d.7 (1)
     |                                               |                |      [3]{}: local_time_type 0x87e-0x883.7 (6)
0x870|                                          ff ff|              ..|        utoff: -18000 (valid) 0x87e-0x881.7 (4)
0x880|b9 b0                                          |..              |
0x880|      01                                       |  .             |        dst: 1 (valid) 0x882-0x882.7 (1)
0x880|         0c                                    |   .            |        idx: 12 (valid) 0x883-0x883.7 (1)
     |                                               |                |      [4]{}: local_time_type 0x884-0x889.7 (6)
0x880|            ff ff b9 b0                        |    ....        |        utoff: -18000 (valid) 0x884-0x887.7 (4)
0x880|                        01                     |        .       |        dst: 1 (valid) 0x888-0x888.7 (1)
0x880|                           10                  |         .      |        idx: 16 (valid) 0x889-0x889.7 (1)
     |                                               |                |      [5]{}: local_time_type 0x88a-0x88f.7 (6)
0x880|                              ff ff ab a0      |          ....  |        utoff: -21600 (valid) 0x88a-0x88d.7 (4)
0x880|                                          00   |              . |        dst: 0 (valid) 0x88e-0x88e.7 (1)
0x880|                                             08|               .|        idx: 8 (valid) 0x88f-0x88f.7 (1)
     |                                               |                |      [6]{}: local_time_type 0x890-0x895.7 (6)
0x890|ff ff b9 b0                                    |....            |        utoff: -18000 (valid) 0x890-0x893.7 (4)
0x890|            00                                 |    .           |        dst: 0 (valid) 0x894-0x894.7 (1)
0x890|               14                              |     .          |        idx: 20 (valid) 0x895-0x895.7 (1)
     |                                               |                |      [7]{}: local_time_type 0x896-0x89b.7 (6)
0x890|                  ff ff ab a0                  |      ....      |        utoff: -21600 (valid) 0x896-0x899.7 (4)
0x890|                              00               |          .     |        dst: 0 (valid) 0x89a-0x89a.7 (1)
0x890|                                 08            |           .    |        idx: 8 (valid) 0x89b-0x89b.7 (1)
     |                                               |                |    time_zone_designations[0:6]: 0x89c-0x8b3.7 (24)
0x890|                                    4c 4d 54 00|            LMT.|      [0]: "LMT" time_zone_designation 0x89c-0x89f.7 (4)
0x8a0|43 44 54 00                                    |CDT.            |      [1]: "CDT" time_zone_designation 0x8a0-0x8a3.7 (4)
0x8a0|            43 53 54 00                        |    CST.        |      [2]: "CST" time_zone_designation 0x8a4-0x8a7.7 (4)
0x8a0|                        43 57 54 00            |        CWT.    |      [3]: "CWT" time_zone_designation 0x8a8-0x8ab.7 (4)
0x8a0|                                    43 50 54 00|            CPT.|      [4]: "CPT" time_zone_designation 0x8ac-0x8af.7 (4)
0x8b0|45 53 54 00                                    |EST.            |      [5]: "EST" time_zone_designation 0x8b0-0x8b3.7 (4)
     |                                               |                |    leap_second_records[0:27]: 0x8b4-0x9f7.7 (324)
     |                                               |                |      [0]{}: leap_second_record 0x8b4-0x8bf.7 (12)
0x8b0|            00 00 00 00 04 b2 58 00            |    ......X.    |        occur: "1972-07-01T00:00:00Z" (78796800) 0x8b4-0x8bb.7 (8)
0x8b0|                                    00 00 00 01|            ....|        corr: 1 0x8bc-0x8bf.7 (4)
     |                                               |                |      [1]{}: leap_second_record 0x8c0-0x8cb.7 (12)
0x8c0|00 00 00 00 05 a4 ec 01                        |........        |        occur: "1973-01-01T00:00:01Z" (94694401) 0x8c0-0x8c7.7 (8)
0x8c0|                        00 00 00 02            |        ....    |        corr: 2 0x8c8-0x8cb.7 (4)
     |                                               |                |      [2]{}: leap_second_record 0x8cc-0x8d7.7 (12)
0x8c0|                                    00 00 00 00|            ....|        occur: "1974-01-01T00:00:02Z" (126230402) 0x8cc-0x8d3.7 (8)
0x8d0|07 86 1f 82                                    |....            |
0x8d0|            00 00 00 03                        |    ....        |        corr: 3 0x8d4-0x8d7.7 (4)
     |                                               |                |      [3]{}: leap_second_record 0x8d8-0x8e3.7 (12)
0x8d0|                        00 00 00 00 09 67 53 03|        .....gS.|        occur: "1975-01-01T00:00:03Z" (157766403) 0x8d8-0x8df.7 (8)
0x8e0|00 00 00 04                                    |....            |        corr: 4 0x8e0-0x8e3.7 (4)
     |                                               |                |      [4]{}: leap_second_record 0x8e4-0x8ef.7 (12)
0x8e0|            00 00 00 00 0b 48 86 84            |    .....H..    |        occur: "1976-01-01T00:00:04Z" (189302404) 0x8e4-0x8eb.7 (8)
0x8e0|                                    00 00 00 05|            ....|        corr: 5 0x8ec-0x8ef.7 (4)
     |                                               |                |      [5]{}: leap_second_record 0x8f0-0x8fb.7 (12)
0x8f0|00 00 00 00 0d 2b 0b 85                        |.....+..        |        occur: "1977-01-01T00:00:05Z" (220924805) 0x8f0-0x8f7.7 (8)
0x8f0|                        00 00 00 06            |        ....    |        corr: 6 0x8f8-0x8fb.7 (4)
     |                                               |                |      [6]{}: leap_second_record 0x8fc-0x907.7 (12)
0x8f0|                                    00 00 00 00|            ....|        occur: "1978-01-01T00:00:06Z" (252460806) 0x8fc-0x903.7 (8)
0x900|0f 0c 3f 06                                    |..?.            |
0x900|            00 00 00 07                        |    ....        |        corr: 7 0x904-0x907.7 (4)
     |                                               |                |      [7]{}: leap_second_record 0x908-0x913.7 (12)
0x900|                        00 00 00 00 10 ed 72 87|        ......r.|        occur: "1979-01-01T00:00:07Z" (283996807) 0x908-0x90f.7 (8)
0x910|00 00 00 08                                    |....            |        corr: 8 0x910-0x913.7 (4)
     |                                               |                |      [8]{}: leap_second_record 0x914-0x91f.7 (12)
0x910|            00 00 00 00 12 ce a6 08            |    ........    |        occur: "1980-01-01T00:00:08Z" (315532808) 0x914-0x91b.7 (8)
0x910|                                    00 00 00 09|            ....|        corr: 9 0x91c-0x91f.7 (4)
     |                                               |                |      [9]{}: leap_second_record 0x920-0x92b.7 (12)
0x920|00 00 00 00 15 9f ca 89                        |........        |        occur: "1981-07-01T00:00:09Z" (362793609) 0x920-0x927.7 (8)
0x920|                        00 00 00 0a            |        ....    |        corr: 10 0x928-0x92b.7 (4)
     |                                               |                |      [10]{}: leap_second_record 0x92c-0x937.7 (12)
0x920|                                    00 00 00 00|            ....|        occur: "1982-07-01T00:00:10Z" (394329610) 0x92c-0x933.7 (8)
0x930|17 80 fe 0a                                    |....            |
0x930|            00 00 00 0b                        |    ....        |        corr: 11 0x934-0x937.7 (4)
     |                                               |                |      [11]{}: leap_second_record 0x938-0x943.7 (12)
0x930|                        00 00 00 00 19 62 31 8b|        .....b1.|        occur: "1983-07-01T00:00:11Z" (425865611) 0x938-0x93f.7 (8)
0x940|00 00 00 0c                                    |....            |        corr: 12 0x940-0x943.7 (4)
     |                                               |                |      [12]{}: leap_second_record 0x944-0x94f.7 (12)
0x940|            00 00 00 00 1d 25 ea 0c            |    .....%..    |        occur: "1985-07-01T00:00:12Z" (489024012) 0x944-0x94b.7 (8)
0x940|                                    00 00 00 0d|            ....|        corr: 13 0x94c-0x94f.7 (4)
     |                                               |                |      [13]{}: leap_second_record 0x950-0x95b.7 (12)
0x950|00 00 00 00 21 da e5 0d                        |....!...        |        occur: "1988-01-01T00:00:13Z" (567993613) 0x950-0x957.7 (8)
0x950|                        00 00 00 0e            |        ....    |        corr: 14 0x958-0x95b.7 (4)
     |                                               |                |      [14]{}: leap_second_record 0x95c-0x967.7 (12)
0x950|                                    00 00 00 00|            ....|        occur: "1990-01-01T00:00:14Z" (631152014) 0x95c-0x963.7 (8)
0x960|25 9e 9d 8e                                    |%...            |
0x960|            00 00 00 0f                        |    ....        |        corr: 15 0x964-0x967.7 (4)
     |                                               |                |      [15]{}: leap_second_record 0x968-0x973.7 (12)
0x960|                        00 00 00 00 27 7f d1 0f|        ....'...|        occur: "1991-01-01T00:00:15Z" (662688015) 0x968-0x96f.7 (8)
0x970|00 00 00 10                                    |....            |        corr: 16 0x970-0x973.7 (4)
     |                                               |                |      [16]{}: leap_second_record 0x974-0x97f.7 (12)
0x970|            00 00 00 00 2a 50 f5 90            |    ....*P..    |        occur: "1992-07-01T00:00:16Z" (709948816) 0x974-0x97b.7 (8)
0x970|                                    00 00 00 11|            ....|        corr: 17 0x97c-0x97f.7 (4)
     |                                               |                |      [17]{}: leap_second_record 0x980-0x98b.7 (12)
0x980|00 00 00 00 2c 32 29 11                        |....,2).        |        occur: "1993-07-01T00:00:17Z" (741484817) 0x980-0x987.7 (8)
0x980|                        00 00 00 12            |        ....    |        corr: 18 0x988-0x98b.7 (4)
     |                                               |                |      [18]{}: leap_second_record 0x98c-0x997.7 (12)
0x980|                                    00 00 00 00|            ....|        occur: "1994-07-01T00:00:18Z" (773020818) 0x98c-0x993.7 (8)
0x990|2e 13 5c 92                                    |..\.            |
0x990|            00 00 00 13                        |    ....        |        corr: 19 0x994-0x997.7 (4)
     |                                               |                |      [19]{}: leap_second_record 0x998-0x9a3.7 (12)
0x990|                        00 00 00 00 30 e7 24 13|        ....0.$.|        occur: "1996-01-01T00:00:19Z" (820454419) 0x998-0x99f.7 (8)
0x9a0|00 00 00 14                                    |....            |        corr: 20 0x9a0-0x9a3.7 (4)
     |                                               |                |      [20]{}: leap_second_record 0x9a4-0x9af.7 (12)
0x9a0|            00 00 00 00 33 b8 48 94            |    ....3.H.    |        occur: "1997-07-01T00:00:20Z" (867715220) 0x9a4-0x9ab.7 (8)
0x9a0|                                    00 00 00 15|            ....|        corr: 21 0x9ac-0x9af.7 (4)
     |                                               |                |      [21]{}: leap_second_record 0x9b0-0x9bb.7 (12)
0x9b0|00 00 00 00 36 8c 10 15                        |....6...        |        occur: "1999-01-01T00:00:21Z" (915148821) 0x9b0-0x9b7.7 (8)
0x9b0|                        00 00 00 16            |        ....    |        corr: 22 0x9b8-0x9bb.7 (4)
     |                                               |                |      [22]{}: leap_second_record 0x9bc-0x9c7.7 (12)
0x9b0|                                    00 00 00 00|            ....|        occur: "2006-01-01T00:00:22Z" (1136073622) 0x9bc-0x9c3.7 (8)
0x9c0|43 b7 1b 96                                    |C...            |
0x9c0|            00 00 00 17                        |    ....        |        corr: 23 0x9c4-0x9c7.7 (4)
     |                                               |                |      [23]{}: leap_second_record 0x9c8-0x9d3.7 (12)
0x9c0|                        00 00 00 00 49 5c 07 97|        ....I\..|        occur: "2009-01-01T00:00:23Z" (1230768023) 0x9c8-0x9cf.7 (8)
0x9d0|00 00 00 18                                    |....            |        corr: 24 0x9d0-0x9d3.7 (4)
     |                                               |                |      [24]{}: leap_second_record 0x9d4-0x9df.7 (12)
0x9d0|            00 00 00 00 4f ef 93 18            |    ....O...    |        occur: "2012-07-01T00:00:24Z" (1341100824) 0x9d4-0x9db.7 (8)
0x9d0|                                    00 00 00 19|            ....|        corr: 25 0x9dc-0x9df.7 (4)
     |                                               |                |      [25]{}: leap_second_record 0x9e0-0x9eb.7 (12)
0x9e0|00 00 00 00 55 93 2d 99                        |....U.-.        |        occur: "2015-07-01T00:00:25Z" (1435708825) 0x9e0-0x9e7.7 (8)
0x9e0|                        00 00 00 1a            |        ....    |        corr: 26 0x9e8-0x9eb.7 (4)
     |                                               |                |      [26]{}: leap_second_record 0x9ec-0x9f7.7 (12)
0x9e0|                                    00 00 00 00|            ....|        occur: "2017-01-01T00:00:26Z" (1483228826) 0x9ec-0x9f3.7 (8)
0x9f0|58 68 46 9a                                    |XhF.            |
0x9f0|            00 00 00 1b                        |    ....        |        corr: 27 0x9f4-0x9f7.7 (4)
     |                                               |                |    standard_wall_indicators[0:8]: 0x9f8-0x9ff.7 (8)
0x9f0|                        00                     |        .       |      [0]: 0 standard_wall_indicator (valid) 0x9f8-0x9f8.7 (1)
0x9f0|                           00                  |         .      |      [1]: 0 standard_wall_indicator (valid) 0x9f9-0x9f9.7 (1)
0x9f0|                              00               |          .     |      [2]: 0 standard_wall_indicator (valid) 0x9fa-0x9fa.7 (1)
0x9f0|                                 00            |           .    |      [3]: 0 standard_wall_indicator (valid) 0x9fb-0x9fb.7 (1)
0x9f0|                                    01         |            .   |      [4]: 1 standard_wall_indicator (valid) 0x9fc-0x9fc.7 (1)
0x9f0|                                       01      |             .  |      [5]: 1 standard_wall_indicator (valid) 0x9fd-0x9fd.7 (1)
0x9f0|                                          00   |              . |      [6]: 0 standard_wall_indicator (valid) 0x9fe-0x9fe.7 (1)
0x9f0|                                             00|               .|      [7]: 0 standard_wall_indicator (valid) 0x9ff-0x9ff.7 (1)
     |                                               |                |    ut_local_indicators[0:8]: 0xa00-0xa07.7 (8)
0xa00|00                                             |.               |      [0]: 0 ut_local_indicator (valid) 0xa00-0xa00.7 (1)
0xa00|   00                                          | .              |      [1]: 0 ut_local_indicator (valid) 0xa01-0xa01.7 (1)
0xa00|      00                                       |  .             |      [2]: 0 ut_local_indicator (valid) 0xa02-0xa02.7 (1)
0xa00|         00                                    |   .            |      [3]: 0 ut_local_indicator (valid) 0xa03-0xa03.7 (1)
0xa00|            01                                 |    .           |      [4]: 1 ut_local_indicator (valid) 0xa04-0xa04.7 (1)
0xa00|               01                              |     .          |      [5]: 1 ut_local_indicator (valid) 0xa05-0xa05.7 (1)
0xa00|                  00                           |      .         |      [6]: 0 ut_local_indicator (valid) 0xa06-0xa06.7 (1)
0xa00|                     00                        |       .        |      [7]: 0 ut_local_indicator (valid) 0xa07-0xa07.7 (1)
     |                                               |                |  footer{}: 0xa08-0xa09.7 (2)
0xa00|                        0a                     |        .       |    nl1: 10 (valid) 0xa08-0xa08.7 (1)
     |                                               |                |    tz_string: "" 0xa09-NA (0)
0xa00|                           0a|                 |         .|     |    nl2: 10 (valid) 0xa09-0xa09.7 (1)
