$ fq -d tzif dv Kolkata
     |00 01 02 03 04 05 06 07 08 09 0a 0b 0c 0d 0e 0f|0123456789abcdef|.{}: Kolkata (tzif) 0x0-0x33e.7 (831)
     |                                               |                |  v1header{}: 0x0-0x2b.7 (44)
0x000|54 5a 69 66                                    |TZif            |    magic: 0x545a6966 (valid) 0x0-0x3.7 (4)
0x000|            32                                 |    2           |    ver: "2" (0x32) (valid) 0x4-0x4.7 (1)
0x000|               00 00 00 00 00 00 00 00 00 00 00|     ...........|    reserved: raw bits 0x5-0x13.7 (15)
0x010|00 00 00 00                                    |....            |
0x010|            00 00 00 00                        |    ....        |    isutcnt: 0 0x14-0x17.7 (4)
0x010|                        00 00 00 00            |        ....    |    isstdcnt: 0 0x18-0x1b.7 (4)
0x010|                                    00 00 00 1b|            ....|    leapcnt: 27 0x1c-0x1f.7 (4)
0x020|00 00 00 07                                    |....            |    timecnt: 7 0x20-0x23.7 (4)
0x020|            00 00 00 04                        |    ....        |    typecnt: 4 0x24-0x27.7 (4)
0x020|                        00 00 00 12            |        ....    |    charcnt: 18 0x28-0x2b.7 (4)
     |                                               |                |  v1datablock{}: 0x2c-0x150.7 (293)
     |                                               |                |    transition_times[0:7]: 0x2c-0x47.7 (28)
0x020|                                    80 00 00 00|            ....|      [0]: "1901-12-13T20:45:52Z" (-2147483648) transition_time 0x2c-0x2f.7 (4)
0x030|87 9d bc ba                                    |....            |      [1]: "1905-12-31T18:38:50Z" (-2019705670) transition_time 0x30-0x33.7 (4)
0x030|            ca db 8c 28                        |    ...(        |      [2]: "1941-09-30T18:30:00Z" (-891581400) transition_time 0x34-0x37.7 (4)
0x030|                        cc 05 71 18            |        ..q.    |      [3]: "1942-05-14T17:30:00Z" (-872058600) transition_time 0x38-0x3b.7 (4)
0x030|                                    cc 95 32 a8|            ..2.|      [4]: "1942-08-31T18:30:00Z" (-862637400) transition_time 0x3c-0x3f.7 (4)
0x040|d2 74 12 98                                    |.t..            |      [5]: "1945-10-14T17:30:00Z" (-764145000) transition_time 0x40-0x43.7 (4)
0x040|            64 9b 78 1b                        |    d.x.        |      [6]: "2023-06-28T00:00:27Z" (1687910427) transition_time 0x44-0x47.7 (4)
     |                                               |                |    transition_types[0:7]: 0x48-0x4e.7 (7)
0x040|                        01                     |        .       |      [0]: 1 transition_type 0x48-0x48.7 (1)
0x040|                           02                  |         .      |      [1]: 2 transition_type 0x49-0x49.7 (1)
0x040|                              03               |          .     |      [2]: 3 transition_type 0x4a-0x4a.7 (1)
0x040|                                 02            |           .    |      [3]: 2 transition_type 0x4b-0x4b.7 (1)
0x040|                                    03         |            .   |      [4]: 3 transition_type 0x4c-0x4c.7 (1)
0x040|                                       02      |             .  |      [5]: 2 transition_type 0x4d-0x4d.7 (1)
0x040|                                          02   |              . |      [6]: 2 transition_type 0x4e-0x4e.7 (1)
     |                                               |                |    local_time_type_records[0:4]: 0x4f-0x66.7 (24)
     |                                               |                |      [0]{}: local_time_type 0x4f-0x54.7 (6)
0x040|                                             00|               .|        utoff: 21208 (valid) 0x4f-0x52.7 (4)
0x050|00 52 d8                                       |.R.             |
0x050|         00                                    |   .            |        dst: 0 (valid) 0x53-0x53.7 (1)
0x050|            00                                 |    .           |        idx: 0 (valid) 0x54-0x54.7 (1)
     |                                               |                |      [1]{}: local_time_type 0x55-0x5a.7 (6)
0x050|               00 00 4b 46                     |     ..KF       |        utoff: 19270 (valid) 0x55-0x58.7 (4)
0x050|                           00                  |         .      |        dst: 0 (valid) 0x59-0x59.7 (1)
0x050|                              04               |          .     |        idx: 4 (valid) 0x5a-0x5a.7 (1)
     |                                               |                |      [2]{}: local_time_type 0x5b-0x60.7 (6)
0x050|                                 00 00 4d 58   |           ..MX |        utoff: 19800 (valid) 0x5b-0x5e.7 (4)
0x050|                                             00|               .|        dst: 0 (valid) 0x5f-0x5f.7 (1)
0x060|08                                             |.               |        idx: 8 (valid) 0x60-0x60.7 (1)
     |                                               |                |      [3]{}: local_time_type 0x61-0x66.7 (6)
0x060|   00 00 5b 68                                 | ..[h           |        utoff: 23400 (valid) 0x61-0x64.7 (4)
0x060|               01                              |     .          |        dst: 1 (valid) 0x65-0x65.7 (1)
0x060|                  0c                           |      .         |        idx: 12 (valid) 0x66-0x66.7 (1)
     |                                               |                |    time_zone_designations[0:4]: 0x67-0x78.7 (18)
0x060|                     4c 4d 54 00               |       LMT.     |      [0]: "LMT" time_zone_designation 0x67-0x6a.7 (4)
0x060|                                 4d 4d 54 00   |           MMT. |      [1]: "MMT" time_zone_designation 0x6b-0x6e.7 (4)
0x060|                                             49|               I|      [2]: "IST" time_zone_designation 0x6f-0x72.7 (4)
0x070|53 54 00                                       |ST.             |
0x070|         2b 30 36 33 30 00                     |   +0630.       |      [3]: "+0630" time_zone_designation 0x73-0x78.7 (6)
     |                                               |                |    leap_second_records[0:27]: 0x79-0x150.7 (216)
     |                                               |                |      [0]{}: leap_second_record 0x79-0x80.7 (8)
0x070|                           04 b2 58 00         |         ..X.   |        occur: "1972-07-01T00:00:00Z" (78796800) 0x79-0x7c.7 (4)
0x070|                                       00 00 00|             ...|        corr: 1 0x7d-0x80.7 (4)
0x080|01                                             |.               |
     |                                               |                |      [1]{}: leap_second_record 0x81-0x88.7 (8)
0x080|   05 a4 ec 01                                 | ....           |        occur: "1973-01-01T00:00:01Z" (94694401) 0x81-0x84.7 (4)
0x080|               00 00 00 02                     |     ....       |        corr: 2 0x85-0x88.7 (4)
     |                                               |                |      [2]{}: leap_second_record 0x89-0x90.7 (8)
0x080|                           07 86 1f 82         |         ....   |        occur: "1974-01-01T00:00:02Z" (126230402) 0x89-0x8c.7 (4)
0x080|                                       00 00 00|             ...|        corr: 3 0x8d-0x90.7 (4)
0x090|03                                             |.               |
     |                                               |                |      [3]{}: leap_second_record 0x91-0x98.7 (8)
0x090|   09 67 53 03                                 | .gS.           |        occur: "1975-01-01T00:00:03Z" (157766403) 0x91-0x94.7 (4)
0x090|               00 00 00 04                     |     ....       |        corr: 4 0x95-0x98.7 (4)
     |                                               |                |      [4]{}: leap_second_record 0x99-0xa0.7 (8)
0x090|                           0b 48 86 84         |         .H..   |        occur: "1976-01-01T00:00:04Z" (189302404) 0x99-0x9c.7 (4)
0x090|                                       00 00 00|             ...|        corr: 5 0x9d-0xa0.7 (4)
0x0a0|05                                             |.               |
     |                                               |                |      [5]{}: leap_second_record 0xa1-0xa8.7 (8)
0x0a0|   0d 2b 0b 85                                 | .+..           |        occur: "1977-01-01T00:00:05Z" (220924805) 0xa1-0xa4.7 (4)
0x0a0|               00 00 00 06                     |     ....       |        corr: 6 0xa5-0xa8.7 (4)
     |                                               |                |      [6]{}: leap_second_record 0xa9-0xb0.7 (8)
0x0a0|                           0f 0c 3f 06         |         ..?.   |        occur: "1978-01-01T00:00:06Z" (252460806) 0xa9-0xac.7 (4)
0x0a0|                                       00 00 00|             ...|        corr: 7 0xad-0xb0.7 (4)
0x0b0|07                                             |.               |
     |                                               |                |      [7]{}: leap_second_record 0xb1-0xb8.7 (8)
0x0b0|   10 ed 72 87                                 | ..r.           |        occur: "1979-01-01T00:00:07Z" (283996807) 0xb1-0xb4.7 (4)
0x0b0|               00 00 00 08                     |     ....       |        corr: 8 0xb5-0xb8.7 (4)
     |                                               |                |      [8]{}: leap_second_record 0xb9-0xc0.7 (8)
0x0b0|                           12 ce a6 08         |         ....   |        occur: "1980-01-01T00:00:08Z" (315532808) 0xb9-0xbc.7 (4)
0x0b0|                                       00 00 00|             ...|        corr: 9 0xbd-0xc0.7 (4)
0x0c0|09                                             |.               |
     |                                               |                |      [9]{}: leap_second_record 0xc1-0xc8.7 (8)
0x0c0|   15 9f ca 89                                 | ....           |        occur: "1981-07-01T00:00:09Z" (362793609) 0xc1-0xc4.7 (4)
0x0c0|               00 00 00 0a                     |     ....       |        corr: 10 0xc5-0xc8.7 (4)
     |                                               |                |      [10]{}: leap_second_record 0xc9-0xd0.7 (8)
0x0c0|                           17 80 fe 0a         |         ....   |        occur: "1982-07-01T00:00:10Z" (394329610) 0xc9-0xcc.7 (4)
0x0c0|                                       00 00 00|             ...|        corr: 11 0xcd-0xd0.7 (4)
0x0d0|0b                                             |.               |
     |                                               |                |      [11]{}: leap_second_record 0xd1-0xd8.7 (8)
0x0d0|   19 62 31 8b                                 | .b1.           |        occur: "1983-07-01T00:00:11Z" (425865611) 0xd1-0xd4.7 (4)
0x0d0|               00 00 00 0c                     |     ....       |        corr: 12 0xd5-0xd8.7 (4)
     |                                               |                |      [12]{}: leap_second_record 0xd9-0xe0.7 (8)
0x0d0|                           1d 25 ea 0c         |         .%..   |        occur: "1985-07-01T00:00:12Z" (489024012) 0xd9-0xdc.7 (4)
0x0d0|                                       00 00 00|             ...|        corr: 13 0xdd-0xe0.7 (4)
0x0e0|0d                                             |.               |
     |                                               |                |      [13]{}: leap_second_record 0xe1-0xe8.7 (8)
0x0e0|   21 da e5 0d                                 | !...           |        occur: "1988-01-01T00:00:13Z" (567993613) 0xe1-0xe4.7 (4)
0x0e0|               00 00 00 0e                     |     ....       |        corr: 14 0xe5-0xe8.7 (4)
     |                                               |                |      [14]{}: leap_second_record 0xe9-0xf0.7 (8)
0x0e0|                           25 9e 9d 8e         |         %...   |        occur: "1990-01-01T00:00:14Z" (631152014) 0xe9-0xec.7 (4)
0x0e0|                                       00 00 00|             ...|        corr: 15 0xed-0xf0.7 (4)
0x0f0|0f                                             |.               |
     |                                               |                |      [15]{}: leap_second_record 0xf1-0xf8.7 (8)
0x0f0|   27 7f d1 0f                                 | '...           |        occur: "1991-01-01T00:00:15Z" (662688015) 0xf1-0xf4.7 (4)
0x0f0|               00 00 00 10                     |     ....       |        corr: 16 0xf5-0xf8.7 (4)
     |                                               |                |      [16]{}: leap_second_record 0xf9-0x100.7 (8)
0x0f0|                           2a 50 f5 90         |         *P..   |        occur: "1992-07-01T00:00:16Z" (709948816) 0xf9-0xfc.7 (4)
0x0f0|                                       00 00 00|             ...|        corr: 17 0xfd-0x100.7 (4)
0x100|11                                             |.               |
     |                                               |                |      [17]{}: leap_second_record 0x101-0x108.7 (8)
0x100|   2c 32 29 11                                 | ,2).           |        occur: "1993-07-01T00:00:17Z" (741484817) 0x101-0x104.7 (4)
0x100|               00 00 00 12                     |     ....       |        corr: 18 0x105-0x108.7 (4)
     |                                               |                |      [18]{}: leap_second_record 0x109-0x110.7 (8)
0x100|                           2e 13 5c 92         |         ..\.   |        occur: "1994-07-01T00:00:18Z" (773020818) 0x109-0x10c.7 (4)
0x100|                                       00 00 00|             ...|        corr: 19 0x10d-0x110.7 (4)
0x110|13                                             |.               |
     |                                               |                |      [19]{}: leap_second_record 0x111-0x118.7 (8)
0x110|   30 e7 24 13                                 | 0.$.           |        occur: "1996-01-01T00:00:19Z" (820454419) 0x111-0x114.7 (4)
0x110|               00 00 00 14                     |     ....       |        corr: 20 0x115-0x118.7 (4)
     |                                               |                |      [20]{}: leap_second_record 0x119-0x120.7 (8)
0x110|                           33 b8 48 94         |         3.H.   |        occur: "1997-07-01T00:00:20Z" (867715220) 0x119-0x11c.7 (4)
0x110|                                       00 00 00|             ...|        corr: 21 0x11d-0x120.7 (4)
0x120|15                                             |.               |
     |                                               |                |      [21]{}: leap_second_record 0x121-0x128.7 (8)
0x120|   36 8c 10 15                                 | 6...           |        occur: "1999-01-01T00:00:21Z" (915148821) 0x121-0x124.7 (4)
0x120|               00 00 00 16                     |     ....       |        corr: 22 0x125-0x128.7 (4)
     |                                               |                |      [22]{}: leap_second_record 0x129-0x130.7 (8)
0x120|                           43 b7 1b 96         |         C...   |        occur: "2006-01-01T00:00:22Z" (1136073622) 0x129-0x12c.7 (4)
0x120|                                       00 00 00|             ...|        corr: 23 0x12d-0x130.7 (4)
0x130|17                                             |.               |
     |                                               |                |      [23]{}: leap_second_record 0x131-0x138.7 (8)
0x130|   49 5c 07 97                                 | I\..           |        occur: "2009-01-01T00:00:23Z" (1230768023) 0x131-0x134.7 (4)
0x130|               00 00 00 18                     |     ....       |        corr: 24 0x135-0x138.7 (4)
     |                                               |                |      [24]{}: leap_second_record 0x139-0x140.7 (8)
0x130|                           4f ef 93 18         |         O...   |        occur: "2012-07-01T00:00:24Z" (1341100824) 0x139-0x13c.7 (4)
0x130|                                       00 00 00|             ...|        corr: 25 0x13d-0x140.7 (4)
0x140|19                                             |.               |
     |                                               |                |      [25]{}: leap_second_record 0x141-0x148.7 (8)
0x140|   55 93 2d 99                                 | U.-.           |        occur: "2015-07-01T00:00:25Z" (1435708825) 0x141-0x144.7 (4)
0x140|               00 00 00 1a                     |     ....       |        corr: 26 0x145-0x148.7 (4)
     |                                               |                |      [26]{}: leap_second_record 0x149-0x150.7 (8)
0x140|                           58 68 46 9a         |         XhF.   |        occur: "2017-01-01T00:00:26Z" (1483228826) 0x149-0x14c.7 (4)
0x140|                                       00 00 00|             ...|        corr: 27 0x14d-0x150.7 (4)
0x150|1b                                             |.               |
     |                                               |                |    standard_wall_indicators[0:0]: 0x151-NA (0)
     |                                               |                |    ut_local_indicators[0:0]: 0x151-NA (0)
     |                                               |                |  v2plusheader{}: 0x151-0x17c.7 (44)
0x150|   54 5a 69 66                                 | TZif           |    magic: 0x545a6966 (valid) 0x151-0x154.7 (4)
0x150|               32                              |     2          |    ver: "2" (0x32) (valid) 0x155-0x155.7 (1)
0x150|                  00 00 00 00 00 00 00 00 00 00|      ..........|    reserved: raw bits 0x156-0x164.7 (15)
0x160|00 00 00 00 00                                 |.....           |
0x160|               00 00 00 00                     |     ....       |    isutcnt: 0 0x165-0x168.7 (4)
0x160|                           00 00 00 00         |         ....   |    isstdcnt: 0 0x169-0x16c.7 (4)
0x160|                                       00 00 00|             ...|    leapcnt: 27 0x16d-0x170.7 (4)
0x170|1b                                             |.               |
0x170|   00 00 00 08                                 | ....           |    timecnt: 8 0x171-0x174.7 (4)
0x170|               00 00 00 05                     |     ....       |    typecnt: 5 0x175-0x178.7 (4)
0x170|                           00 00 00 16         |         ....   |    charcnt: 22 0x179-0x17c.7 (4)
     |                                               |                |  v2plusdatablock{}: 0x17d-0x33c.7 (448)
     |                                               |                |    transition_times[0:8]: 0x17d-0x1bc.7 (64)
0x170|                                       ff ff ff|             ...|      [0]: "1854-06-27T18:06:32Z" (-3645237208) transition_time 0x17d-0x184.7 (8)
0x180|ff 26 ba 18 28                                 |.&..(           |
0x180|               ff ff ff ff 43 e7 eb 30         |     ....C..0   |      [1]: "1869-12-31T18:06:40Z" (-3155694800) transition_time 0x185-0x18c.7 (8)
0x180|                                       ff ff ff|             ...|      [2]: "1905-12-31T18:38:50Z" (-2019705670) transition_time 0x18d-0x194.7 (8)
0x190|ff 87 9d bc ba                                 |.....           |
0x190|               ff ff ff ff ca db 8c 28         |     .......(   |      [3]: "1941-09-30T18:30:00Z" (-891581400) transition_time 0x195-0x19c.7 (8)
0x190|                                       ff ff ff|             ...|      [4]: "1942-05-14T17:30:00Z" (-872058600) transition_time 0x19d-0x1a4.7 (8)
0x1a0|ff cc 05 71 18                                 |...q.           |
0x1a0|               ff ff ff ff cc 95 32 a8         |     ......2.   |      [5]: "1942-08-31T18:30:00Z" (-862637400) transition_time 0x1a5-0x1ac.7 (8)
0x1a0|                                       ff ff ff|             ...|      [6]: "1945-10-14T17:30:00Z" (-764145000) transition_time 0x1ad-0x1b4.7 (8)
0x1b0|ff d2 74 12 98                                 |..t..           |
0x1b0|               00 00 00 00 64 9b 78 1b         |     ....d.x.   |      [7]: "2023-06-28T00:00:27Z" (1687910427) transition_time 0x1b5-0x1bc.7 (8)
     |                                               |                |    transition_types[0:8]: 0x1bd-0x1c4.7 (8)
0x1b0|                                       01      |             .  |      [0]: 1 transition_type 0x1bd-0x1bd.7 (1)
0x1b0|                                          02   |              . |      [1]: 2 transition_type 0x1be-0x1be.7 (1)
0x1b0|                                             03|               .|      [2]: 3 transition_type 0x1bf-0x1bf.7 (1)
0x1c0|04                                             |.               |      [3]: 4 transition_type 0x1c0-0x1c0.7 (1)
0x1c0|   03                                          | .              |      [4]: 3 transition_type 0x1c1-0x1c1.7 (1)
0x1c0|      04                                       |  .             |      [5]: 4 transition_type 0x1c2-0x1c2.7 (1)
0x1c0|         03                                    |   .            |      [6]: 3 transition_type 0x1c3-0x1c3.7 (1)
0x1c0|            03                                 |    .           |      [7]: 3 transition_type 0x1c4-0x1c4.7 (1)
     |                                               |                |    local_time_type_records[0:5]: 0x1c5-0x1e2.7 (30)
     |                                               |                |      [0]{}: local_time_type 0x1c5-0x1ca.7 (6)
0x1c0|               00 00 52 d8                     |     ..R.       |        utoff: 21208 (valid) 0x1c5-0x1c8.7 (4)
0x1c0|                           00                  |         .      |        dst: 0 (valid) 0x1c9-0x1c9.7 (1)
0x1c0|                              00               |          .     |        idx: 0 (valid) 0x1ca-0x1ca.7 (1)
     |                                               |                |      [1]{}: local_time_type 0x1cb-0x1d0.7 (6)
0x1c0|                                 00 00 52 d0   |           ..R. |        utoff: 21200 (valid) 0x1cb-0x1ce.7 (4)
0x1c0|                                             00|               .|        dst: 0 (valid) 0x1cf-0x1cf.7 (1)
0x1d0|04                                             |.               |        idx: 4 (valid) 0x1d0-0x1d0.7 (1)
     |                                               |                |      [2]{}: local_time_type 0x1d1-0x1d6.7 (6)
0x1d0|   00 00 4b 46                                 | ..KF           |        utoff: 19270 (valid) 0x1d1-0x1d4.7 (4)
0x1d0|               00                              |     .          |        dst: 0 (valid) 0x1d5-0x1d5.7 (1)
0x1d0|                  08                           |      .         |        idx: 8 (valid) 0x1d6-0x1d6.7 (1)
     |                                               |                |      [3]{}: local_time_type 0x1d7-0x1dc.7 (6)
0x1d0|                     00 00 4d 58               |       ..MX     |        utoff: 19800 (valid) 0x1d7-0x1da.7 (4)
0x1d0|                                 00            |           .    |        dst: 0 (valid) 0x1db-0x1db.7 (1)
0x1d0|                                    0c         |            .   |        idx: 12 (valid) 0x1dc-0x1dc.7 (1)
     |                                               |                |      [4]{}: local_time_type 0x1dd-0x1e2.7 (6)
0x1d0|                                       00 00 5b|             ..[|        utoff: 23400 (valid) 0x1dd-0x1e0.7 (4)
0x1e0|68                                             |h               |
0x1e0|   01                                          | .              |        dst: 1 (valid) 0x1e1-0x1e1.7 (1)
0x1e0|      10                                       |  .             |        idx: 16 (valid) 0x1e2-0x1e2.7 (1)
     |                                               |                |    time_zone_designations[0:5]: 0x1e3-0x1f8.7 (22)
0x1e0|         4c 4d 54 00                           |   LMT.         |      [0]: "LMT" time_zone_designation 0x1e3-0x1e6.7 (4)
0x1e0|                     48 4d 54 00               |       HMT.     |      [1]: "HMT" time_zone_designation 0x1e7-0x1ea.7 (4)
0x1e0|                                 4d 4d 54 00   |           MMT. |      [2]: "MMT" time_zone_designation 0x1eb-0x1ee.7 (4)
0x1e0|                                             49|               I|      [3]: "IST" time_zone_designation 0x1ef-0x1f2.7 (4)
0x1f0|53 54 00                                       |ST.             |
0x1f0|         2b 30 36 33 30 00                     |   +0630.       |      [4]: "+0630" time_zone_designation 0x1f3-0x1f8.7 (6)
     |                                               |                |    leap_second_records[0:27]: 0x1f9-0x33c.7 (324)
     |                                               |                |      [0]{}: leap_second_record 0x1f9-0x204.7 (12)
0x1f0|                           00 00 00 00 04 b2 58|         ......X|        occur: "1972-07-01T00:00:00Z" (78796800) 0x1f9-0x200.7 (8)
0x200|00                                             |.               |
0x200|   00 00 00 01                                 | ....           |        corr: 1 0x201-0x204.7 (4)
     |                                               |                |      [1]{}: leap_second_record 0x205-0x210.7 (12)
0x200|               00 00 00 00 05 a4 ec 01         |     ........   |        occur: "1973-01-01T00:00:01Z" (94694401) 0x205-0x20c.7 (8)
0x200|                                       00 00 00|             ...|        corr: 2 0x20d-0x210.7 (4)
0x210|02                                             |.               |
     |                                               |                |      [2]{}: leap_second_record 0x211-0x21c.7 (12)
0x210|   00 00 00 00 07 86 1f 82                     | ........       |        occur: "1974-01-01T00:00:02Z" (126230402) 0x211-0x218.7 (8)
0x210|                           00 00 00 03         |         ....   |        corr: 3 0x219-0x21c.7 (4)
     |                                               |                |      [3]{}: leap_second_record 0x21d-0x228.7 (12)
0x210|                                       00 00 00|             ...|        occur: "1975-01-01T00:00:03Z" (157766403) 0x21d-0x224.7 (8)
0x220|00 09 67 53 03                                 |..gS.           |
0x220|               00 00 00 04                     |     ....       |        corr: 4 0x225-0x228.7 (4)
     |                                               |                |      [4]{}: leap_second_record 0x229-0x234.7 (12)
0x220|                           00 00 00 00 0b 48 86|         .....H.|        occur: "1976-01-01T00:00:04Z" (189302404) 0x229-0x230.7 (8)
0x230|84                                             |.               |
0x230|   00 00 00 05                                 | ....           |        corr: 5 0x231-0x234.7 (4)
     |                                               |                |      [5]{}: leap_second_record 0x235-0x240.7 (12)
0x230|               00 00 00 00 0d 2b 0b 85         |     .....+..   |        occur: "1977-01-01T00:00:05Z" (220924805) 0x235-0x23c.7 (8)
0x230|                                       00 00 00|             ...|        corr: 6 0x23d-0x240.7 (4)
0x240|06                                             |.               |
     |                                               |                |      [6]{}: leap_second_record 0x241-0x24c.7 (12)
0x240|   00 00 00 00 0f 0c 3f 06                     | ......?.       |        occur: "1978-01-01T00:00:06Z" (252460806) 0x241-0x248.7 (8)
0x240|                           00 00 00 07         |         ....   |        corr: 7 0x249-0x24c.7 (4)
     |                                               |                |      [7]{}: leap_second_record 0x24d-0x258.7 (12)
0x240|                                       00 00 00|             ...|        occur: "1979-01-01T00:00:07Z" (283996807) 0x24d-0x254.7 (8)
0x250|00 10 ed 72 87                                 |...r.           |
0x250|               00 00 00 08                     |     ....       |        corr: 8 0x255-0x258.7 (4)
     |                                               |                |      [8]{}: leap_second_record 0x259-0x264.7 (12)
0x250|                           00 00 00 00 12 ce a6|         .......|        occur: "1980-01-01T00:00:08Z" (315532808) 0x259-0x260.7 (8)
0x260|08                                             |.               |
0x260|   00 00 00 09                                 | ....           |        corr: 9 0x261-0x264.7 (4)
     |                                               |                |      [9]{}: leap_second_record 0x265-0x270.7 (12)
0x260|               00 00 00 00 15 9f ca 89         |     ........   |        occur: "1981-07-01T00:00:09Z" (362793609) 0x265-0x26c.7 (8)
0x260|                                       00 00 00|             ...|        corr: 10 0x26d-0x270.7 (4)
0x270|0a                                             |.               |
     |                                               |                |      [10]{}: leap_second_record 0x271-0x27c.7 (12)
0x270|   00 00 00 00 17 80 fe 0a                     | ........       |        occur: "1982-07-01T00:00:10Z" (394329610) 0x271-0x278.7 (8)
0x270|                           00 00 00 0b         |         ....   |        corr: 11 0x279-0x27c.7 (4)
     |                                               |                |      [11]{}: leap_second_record 0x27d-0x288.7 (12)
0x270|                                       00 00 00|             ...|        occur: "1983-07-01T00:00:11Z" (425865611) 0x27d-0x284.7 (8)
0x280|00 19 62 31 8b                                 |..b1.           |
0x280|               00 00 00 0c                     |     ....       |        corr: 12 0x285-0x288.7 (4)
     |                                               |                |      [12]{}: leap_second_record 0x289-0x294.7 (12)
0x280|                           00 00 00 00 1d 25 ea|         .....%.|        occur: "1985-07-01T00:00:12Z" (489024012) 0x289-0x290.7 (8)
0x290|0c                                             |.               |
0x290|   00 00 00 0d                                 | ....           |        corr: 13 0x291-0x294.7 (4)
     |                                               |                |      [13]{}: leap_second_record 0x295-0x2a0.7 (12)
0x290|               00 00 00 00 21 da e5 0d         |     ....!...   |        occur: "1988-01-01T00:00:13Z" (567993613) 0x295-0x29c.7 (8)
0x290|                                       00 00 00|             ...|        corr: 14 0x29d-0x2a0.7 (4)
0x2a0|0e                                             |.               |
     |                                               |                |      [14]{}: leap_second_record 0x2a1-0x2ac.7 (12)
0x2a0|   00 00 00 00 25 9e 9d 8e                     | ....%...       |        occur: "1990-01-01T00:00:14Z" (631152014) 0x2a1-0x2a8.7 (8)
0x2a0|                           00 00 00 0f         |         ....   |        corr: 15 0x2a9-0x2ac.7 (4)
     |                                               |                |      [15]{}: leap_second_record 0x2ad-0x2b8.7 (12)
0x2a0|                                       00 00 00|             ...|        occur: "1991-01-01T00:00:15Z" (662688015) 0x2ad-0x2b4.7 (8)
0x2b0|00 27 7f d1 0f                                 |.'...           |
0x2b0|               00 00 00 10                     |     ....       |        corr: 16 0x2b5-0x2b8.7 (4)
     |                                               |                |      [16]{}: leap_second_record 0x2b9-0x2c4.7 (12)
0x2b0|                           00 00 00 00 2a 50 f5|         ....*P.|        occur: "1992-07-01T00:00:16Z" (709948816) 0x2b9-0x2c0.7 (8)
0x2c0|90                                             |.               |
0x2c0|   00 00 00 11                                 | ....           |        corr: 17 0x2c1-0x2c4.7 (4)
     |                                               |                |      [17]{}: leap_second_record 0x2c5-0x2d0.7 (12)
0x2c0|               00 00 00 00 2c 32 29 11         |     ....,2).   |        occur: "1993-07-01T00:00:17Z" (741484817) 0x2c5-0x2cc.7 (8)
0x2c0|                                       00 00 00|             ...|        corr: 18 0x2cd-0x2d0.7 (4)
0x2d0|12                                             |.               |
     |                                               |                |      [18]{}: leap_second_record 0x2d1-0x2dc.7 (12)
0x2d0|   00 00 00 00 2e 13 5c 92                     | ......\.       |        occur: "1994-07-01T00:00:18Z" (773020818) 0x2d1-0x2d8.7 (8)
0x2d0|                           00 00 00 13         |         ....   |        corr: 19 0x2d9-0x2dc.7 (4)
     |                                               |                |      [19]{}: leap_second_record 0x2dd-0x2e8.7 (12)
0x2d0|                                       00 00 00|             ...|        occur: "1996-01-01T00:00:19Z" (820454419) 0x2dd-0x2e4.7 (8)
0x2e0|00 30 e7 24 13                                 |.0.$.           |
0x2e0|               00 00 00 14                     |     ....       |        corr: 20 0x2e5-0x2e8.7 (4)
     |                                               |                |      [20]{}: leap_second_record 0x2e9-0x2f4.7 (12)
0x2e0|                           00 00 00 00 33 b8 48|         ....3.H|        occur: "1997-07-01T00:00:20Z" (867715220) 0x2e9-0x2f0.7 (8)
0x2f0|94                                             |.               |
0x2f0|   00 00 00 15                                 | ....           |        corr: 21 0x2f1-0x2f4.7 (4)
     |                                               |                |      [21]{}: leap_second_record 0x2f5-0x300.7 (12)
0x2f0|               00 00 00 00 36 8c 10 15         |     ....6...   |        occur: "1999-01-01T00:00:21Z" (915148821) 0x2f5-0x2fc.7 (8)
0x2f0|                                       00 00 00|             ...|        corr: 22 0x2fd-0x300.7 (4)
0x300|16                                             |.               |
     |                                               |                |      [22]{}: leap_second_record 0x301-0x30c.7 (12)
0x300|   00 00 00 00 43 b7 1b 96                     | ....C...       |        occur: "2006-01-01T00:00:22Z" (1136073622) 0x301-0x308.7 (8)
0x300|                           00 00 00 17         |         ....   |        corr: 23 0x309-0x30c.7 (4)
     |                                               |                |      [23]{}: leap_second_record 0x30d-0x318.7 (12)
0x300|                                       00 00 00|             ...|        occur: "2009-01-01T00:00:23Z" (1230768023) 0x30d-0x314.7 (8)
0x310|00 49 5c 07 97                                 |.I\..           |
0x310|               00 00 00 18                     |     ....       |        corr: 24 0x315-0x318.7 (4)
     |                                               |                |      [24]{}: leap_second_record 0x319-0x324.7 (12)
0x310|                           00 00 00 00 4f ef 93|         ....O..|        occur: "2012-07-01T00:00:24Z" (1341100824) 0x319-0x320.7 (8)
0x320|18                                             |.               |
0x320|   00 00 00 19                                 | ....           |        corr: 25 0x321-0x324.7 (4)
     |                                               |                |      [25]{}: leap_second_record 0x325-0x330.7 (12)
0x320|               00 00 00 00 55 93 2d 99         |     ....U.-.   |        occur: "2015-07-01T00:00:25Z" (1435708825) 0x325-0x32c.7 (8)
0x320|                                       00 00 00|             ...|        corr: 26 0x32d-0x330.7 (4)
0x330|1a                                             |.               |
     |                                               |                |      [26]{}: leap_second_record 0x331-0x33c.7 (12)
0x330|   00 00 00 00 58 68 46 9a                     | ....XhF.       |        occur: "2017-01-01T00:00:26Z" (1483228826) 0x331-0x338.7 (8)
0x330|                           00 00 00 1b         |         ....   |        corr: 27 0x339-0x33c.7 (4)
     |                                               |                |    standard_wall_indicators[0:0]: 0x33d-NA (0)
     |                                               |                |    ut_local_indicators[0:0]: 0x33d-NA (0)
     |                                               |                |  footer{}: 0x33d-0x33e.7 (2)
0x330|                                       0a      |             .  |    nl1: 10 (valid) 0x33d-0x33d.7 (1)
     |                                               |                |    tz_string: "" 0x33e-NA (0)
0x330|                                          0a|  |              .||    nl2: 10 (valid) 0x33e-0x33e.7 (1)
