$ fq -d tzif dv Kosrae
     |00 01 02 03 04 05 06 07 08 09 0a 0b 0c 0d 0e 0f|0123456789abcdef|.{}: Kosrae (tzif) 0x0-0x15e.7 (351)
     |                                               |                |  v1header{}: 0x0-0x2b.7 (44)
0x000|54 5a 69 66                                    |TZif            |    magic: 0x545a6966 (valid) 0x0-0x3.7 (4)
0x000|            32                                 |    2           |    ver: "2" (0x32) (valid) 0x4-0x4.7 (1)
0x000|               00 00 00 00 00 00 00 00 00 00 00|     ...........|    reserved: raw bits 0x5-0x13.7 (15)
0x010|00 00 00 00                                    |....            |
0x010|            00 00 00 00                        |    ....        |    isutcnt: 0 0x14-0x17.7 (4)
0x010|                        00 00 00 00            |        ....    |    isstdcnt: 0 0x18-0x1b.7 (4)
0x010|                                    00 00 00 00|            ....|    leapcnt: 0 0x1c-0x1f.7 (4)
0x020|00 00 00 09                                    |....            |    timecnt: 9 0x20-0x23.7 (4)
0x020|            00 00 00 06                        |    ....        |    typecnt: 6 0x24-0x27.7 (4)
0x020|                        00 00 00 14            |        ....    |    charcnt: 20 0x28-0x2b.7 (4)
     |                                               |                |  v1datablock{}: 0x2c-0x90.7 (101)
     |                                               |                |    transition_times[0:9]: 0x2c-0x4f.7 (36)
0x020|                                    80 00 00 00|            ....|      [0]: "1901-12-13T20:45:52Z" (-2147483648) transition_time 0x2c-0x2f.7 (4)
0x030|98 11 95 d0                                    |....            |      [1]: "1914-09-30T13:00:00Z" (-1743678000) transition_time 0x30-0x33.7 (4)
0x030|            a0 39 f9 f0                        |    .9..        |      [2]: "1919-01-31T15:00:00Z" (-1606813200) transition_time 0x34-0x37.7 (4)
0x030|                        c1 ed 35 d0            |        ..5.    |      [3]: "1936-12-31T13:00:00Z" (-1041418800) transition_time 0x38-0x3b.7 (4)
0x030|                                    c9 ea 0a 60|            ...`|      [4]: "1941-03-31T14:00:00Z" (-907408800) transition_time 0x3c-0x3f.7 (4)
0x040|d2 11 0e f0                                    |....            |      [5]: "1945-07-31T15:00:00Z" (-770634000) transition_time 0x40-0x43.7 (4)
0x040|            ff 86 1b 50                        |    ...P        |      [6]: "1969-09-30T13:00:00Z" (-7988400) transition_time 0x44-0x47.7 (4)
0x040|                        36 8b 67 40            |        6.g@    |      [7]: "1998-12-31T12:00:00Z" (915105600) transition_time 0x48-0x4b.7 (4)
0x040|                                    7f ff ff ff|            ....|      [8]: "2038-01-19T03:14:07Z" (2147483647) transition_time 0x4c-0x4f.7 (4)
     |                                               |                |    transition_types[0:9]: 0x50-0x58.7 (9)
0x050|01                                             |.               |      [0]: 1 transition_type 0x50-0x50.7 (1)
0x050|   02                                          | .              |      [1]: 2 transition_type 0x51-0x51.7 (1)
0x050|      01                                       |  .             |      [2]: 1 transition_type 0x52-0x52.7 (1)
0x050|         03                                    |   .            |      [3]: 3 transition_type 0x53-0x53.7 (1)
0x050|            02                                 |    .           |      [4]: 2 transition_type 0x54-0x54.7 (1)
0x050|               01                              |     .          |      [5]: 1 transition_type 0x55-0x55.7 (1)
0x050|                  04                           |      .         |      [6]: 4 transition_type 0x56-0x56.7 (1)
0x050|                     01                        |       .        |      [7]: 1 transition_type 0x57-0x57.7 (1)
0x050|                        01                     |        .       |      [8]: 1 transition_type 0x58-0x58.7 (1)
     |                                               |                |    local_time_type_records[0:6]: 0x59-0x7c.7 (36)
     |                                               |                |      [0]{}: local_time_type 0x59-0x5e.7 (6)
0x050|                           ff ff 47 4c         |         ..GL   |        utoff: -47284 (valid) 0x59-0x5c.7 (4)
0x050|                                       00      |             .  |        dst: 0 (valid) 0x5d-0x5d.7 (1)
0x050|                                          00   |              . |        idx: 0 (valid) 0x5e-0x5e.7 (1)
     |                                               |                |      [1]{}: local_time_type 0x5f-0x64.7 (6)
0x050|                                             00|               .|        utoff: 39600 (valid) 0x5f-0x62.7 (4)
0x060|00 9a b0                                       |...             |
0x060|         00                                    |   .            |        dst: 0 (valid) 0x63-0x63.7 (1)
0x060|            04                                 |    .           |        idx: 4 (valid) 0x64-0x64.7 (1)
     |                                               |                |      [2]{}: local_time_type 0x65-0x6a.7 (6)
0x060|               00 00 7e 90                     |     ..~.       |        utoff: 32400 (valid) 0x65-0x68.7 (4)
0x060|                           00                  |         .      |        dst: 0 (valid) 0x69-0x69.7 (1)
0x060|                              08               |          .     |        idx: 8 (valid) 0x6a-0x6a.7 (1)
     |                                               |                |      [3]{}: local_time_type 0x6b-0x70.7 (6)
0x060|                                 00 00 8c a0   |           .... |        utoff: 36000 (valid) 0x6b-0x6e.7 (4)
0x060|                                             00|               .|        dst: 0 (valid) 0x6f-0x6f.7 (1)
0x070|0c                                             |.               |        idx: 12 (valid) 0x70-0x70.7 (1)
     |                                               |                |      [4]{}: local_time_type 0x71-0x76.7 (6)
0x070|   00 00 a8 c0                                 | ....           |        utoff: 43200 (valid) 0x71-0x74.7 (4)
0x070|               00                              |     .          |        dst: 0 (valid) 0x75-0x75.7 (1)
0x070|                  10                           |      .         |        idx: 16 (valid) 0x76-0x76.7 (1)
     |                                               |                |      [5]{}: local_time_type 0x77-0x7c.7 (6)
0x070|                     00 00 9a b0               |       ....     |        utoff: 39600 (valid) 0x77-0x7a.7 (4)
0x070|                                 00            |           .    |        dst: 0 (valid) 0x7b-0x7b.7 (1)
0x070|                                    04         |            .   |        idx: 4 (valid) 0x7c-0x7c.7 (1)
     |                                               |                |    time_zone_designations[0:5]: 0x7d-0x90.7 (20)
0x070|                                       4c 4d 54|             LMT|      [0]: "LMT" time_zone_designation 0x7d-0x80.7 (4)
0x080|00                                             |.               |
0x080|   2b 31 31 00                                 | +11.           |      [1]: "+11" time_zone_designation 0x81-0x84.7 (4)
0x080|               2b 30 39 00                     |     +09.       |      [2]: "+09" time_zone_designation 0x85-0x88.7 (4)
0x080|                           2b 31 30 00         |         +10.   |      [3]: "+10" time_zone_designation 0x89-0x8c.7 (4)
0x080|                                       2b 31 32|             +12|      [4]: "+12" time_zone_designation 0x8d-0x90.7 (4)
0x090|00                                             |.               |
     |                                               |                |    leap_second_records[0:0]: 0x91-NA (0)
     |                                               |                |    standard_wall_indicators[0:0]: 0x91-NA (0)
     |                                               |                |    ut_local_indicators[0:0]: 0x91-NA (0)
     |                                               |                |  v2plusheader{}: 0x91-0xbc.7 (44)
0x090|   54 5a 69 66                                 | TZif           |    magic: 0x545a6966 (valid) 0x91-0x94.7 (4)
0x090|               32                              |     2          |    ver: "2" (0x32) (valid) 0x95-0x95.7 (1)
0x090|                  00 00 00 00 00 00 00 00 00 00|      ..........|    reserved: raw bits 0x96-0xa4.7 (15)
0x0a0|00 00 00 00 00                                 |.....           |
0x0a0|               00 00 00 00                     |     ....       |    isutcnt: 0 0xa5-0xa8.7 (4)
0x0a0|                           00 00 00 00         |         ....   |    isstdcnt: 0 0xa9-0xac.7 (4)
0x0a0|                                       00 00 00|             ...|    leapcnt: 0 0xad-0xb0.7 (4)
0x0b0|00                                             |.               |
0x0b0|   00 00 00 0a                                 | ....           |    timecnt: 10 0xb1-0xb4.7 (4)
0x0b0|               00 00 00 07                     |     ....       |    typecnt: 7 0xb5-0xb8.7 (4)
0x0b0|                           00 00 00 14         |         ....   |    charcnt: 20 0xb9-0xbc.7 (4)
     |                                               |                |  v2plusdatablock{}: 0xbd-0x154.7 (152)
     |                                               |                |    transition_times[0:10]: 0xbd-0x10c.7 (80)
0x0b0|                                       ff ff ff|             ...|      [0]: "1844-12-31T13:08:04Z" (-3944631116) transition_time 0xbd-0xc4.7 (8)
0x0c0|ff 14 e1 b4 b4                                 |.....           |
0x0c0|               ff ff ff ff 7e 36 1c 34         |     ....~6.4   |      [1]: "1900-12-31T13:08:04Z" (-2177491916) transition_time 0xc5-0xcc.7 (8)
0x0c0|                                       ff ff ff|             ...|      [2]: "1914-09-30T13:00:00Z" (-1743678000) transition_time 0xcd-0xd4.7 (8)
0x0d0|ff 98 11 95 d0                                 |.....           |
0x0d0|               ff ff ff ff a0 39 f9 f0         |     .....9..   |      [3]: "1919-01-31T15:00:00Z" (-1606813200) transition_time 0xd5-0xdc.7 (8)
0x0d0|                                       ff ff ff|             ...|      [4]: "1936-12-31T13:00:00Z" (-1041418800) transition_time 0xdd-0xe4.7 (8)
0x0e0|ff c1 ed 35 d0                                 |...5.           |
0x0e0|               ff ff ff ff c9 ea 0a 60         |     .......`   |      [5]: "1941-03-31T14:00:00Z" (-907408800) transition_time 0xe5-0xec.7 (8)
0x0e0|                                       ff ff ff|             ...|      [6]: "1945-07-31T15:00:00Z" (-770634000) transition_time 0xed-0xf4.7 (8)
0x0f0|ff d2 11 0e f0                                 |.....           |
0x0f0|               ff ff ff ff ff 86 1b 50         |     .......P   |      [7]: "1969-09-30T13:00:00Z" (-7988400) transition_time 0xf5-0xfc.7 (8)
0x0f0|                                       00 00 00|             ...|      [8]: "1998-12-31T12:00:00Z" (915105600) transition_time 0xfd-0x104.7 (8)
0x100|00 36 8b 67 40                                 |.6.g@           |
0x100|               00 00 00 00 7f ff ff ff         |     ........   |      [9]: "2038-01-19T03:14:07Z" (2147483647) transition_time 0x105-0x10c.7 (8)
     |                                               |                |    transition_types[0:10]: 0x10d-0x116.7 (10)
0x100|                                       01      |             .  |      [0]: 1 transition_type 0x10d-0x10d.7 (1)
0x100|                                          02   |              . |      [1]: 2 transition_type 0x10e-0x10e.7 (1)
0x100|                                             03|               .|      [2]: 3 transition_type 0x10f-0x10f.7 (1)
0x110|02                                             |.               |      [3]: 2 transition_type 0x110-0x110.7 (1)
0x110|   04                                          | .              |      [4]: 4 transition_type 0x111-0x111.7 (1)
0x110|      03                                       |  .             |      [5]: 3 transition_type 0x112-0x112.7 (1)
0x110|         02                                    |   .            |      [6]: 2 transition_type 0x113-0x113.7 (1)
0x110|            05                                 |    .           |      [7]: 5 transition_type 0x114-0x114.7 (1)
0x110|               02                              |     .          |      [8]: 2 transition_type 0x115-0x115.7 (1)
0x110|                  02                           |      .         |      [9]: 2 transition_type 0x116-0x116.7 (1)
     |                                               |                |    local_time_type_records[0:7]: 0x117-0x140.7 (42)
     |                                               |                |      [0]{}: local_time_type 0x117-0x11c.7 (6)
0x110|                     ff ff 47 4c               |       ..GL     |        utoff: -47284 (valid) 0x117-0x11a.7 (4)
0x110|                                 00            |           .    |        dst: 0 (valid) 0x11b-0x11b.7 (1)
0x110|                                    00         |            .   |        idx: 0 (valid) 0x11c-0x11c.7 (1)
     |                                               |                |      [1]{}: local_time_type 0x11d-0x122.7 (6)
0x110|                                       00 00 98|             ...|        utoff: 39116 (valid) 0x11d-0x120.7 (4)
0x120|cc                                             |.               |
0x120|   00                                          | .              |        dst: 0 (valid) 0x121-0x121.7 (1)
0x120|      00                                       |  .             |        idx: 0 (valid) 0x122-0x122.7 (1)
     |                                               |                |      [2]{}: local_time_type 0x123-0x128.7 (6)
0x120|         00 00 9a b0                           |   ....         |        utoff: 39600 (valid) 0x123-0x126.7 (4)
0x120|                     00                        |       .        |        dst: 0 (valid) 0x127-0x127.7 (1)
0x120|                        04                     |        .       |        idx: 4 (valid) 0x128-0x128.7 (1)
     |                                               |                |      [3]{}: local_time_type 0x129-0x12e.7 (6)
0x120|                           00 00 7e 90         |         ..~.   |        utoff: 32400 (valid) 0x129-0x12c.7 (4)
0x120|                                       00      |             .  |        dst: 0 (valid) 0x12d-0x12d.7 (1)
0x120|                                          08   |              . |        idx: 8 (valid) 0x12e-0x12e.7 (1)
     |                                               |                |      [4]{}: local_time_type 0x12f-0x134.7 (6)
0x120|                                             00|               .|        utoff: 36000 (valid) 0x12f-0x132.7 (4)
0x130|00 8c a0                                       |...             |
0x130|         00                                    |   .            |        dst: 0 (valid) 0x133-0x133.7 (1)
0x130|            0c                                 |    .           |        idx: 12 (valid) 0x134-0x134.7 (1)
     |                                               |                |      [5]{}: local_time_type 0x135-0x13a.7 (6)
0x130|               00 00 a8 c0                     |     ....       |        utoff: 43200 (valid) 0x135-0x138.7 (4)
0x130|                           00                  |         .      |        dst: 0 (valid) 0x139-0x139.7 (1)
0x130|                              10               |          .     |        idx: 16 (valid) 0x13a-0x13a.7 (1)
     |                                               |                |      [6]{}: local_time_type 0x13b-0x140.7 (6)
0x130|                                 00 00 9a b0   |           .... |        utoff: 39600 (valid) 0x13b-0x13e.7 (4)
0x130|                                             00|               .|        dst: 0 (valid) 0x13f-0x13f.7 (1)
0x140|04                                             |.               |        idx: 4 (valid) 0x140-0x140.7 (1)
     |                                               |                |    time_zone_designations[0:5]: 0x141-0x154.7 (20)
0x140|   4c 4d 54 00                                 | LMT.           |      [0]: "LMT" time_zone_designation 0x141-0x144.7 (4)
0x140|               2b 31 31 00                     |     +11.       |      [1]: "+11" time_zone_designation 0x145-0x148.7 (4)
0x140|                           2b 30 39 00         |         +09.   |      [2]: "+09" time_zone_designation 0x149-0x14c.7 (4)
0x140|                                       2b 31 30|             +10|      [3]: "+10" time_zone_designation 0x14d-0x150.7 (4)
0x150|00                                             |.               |
0x150|   2b 31 32 00                                 | +12.           |      [4]: "+12" time_zone_designation 0x151-0x154.7 (4)
     |                                               |                |    leap_second_records[0:0]: 0x155-NA (0)
     |                                               |                |    standard_wall_indicators[0:0]: 0x155-NA (0)
     |                                               |                |    ut_local_indicators[0:0]: 0x155-NA (0)
     |                                               |                |  footer{}: 0x155-0x15e.7 (10)
0x150|               0a                              |     .          |    nl1: 10 (valid) 0x155-0x155.7 (1)
0x150|                  3c 2b 31 31 3e 2d 31 31      |      <+11>-11  |    tz_string: "<+11>-11" 0x156-0x15d.7 (8)
0x150|                                          0a|  |              .||    nl2: 10 (valid) 0x15e-0x15e.7 (1)
