$ fq -d tzif dv Krasnoyarsk
     |00 01 02 03 04 05 06 07 08 09 0a 0b 0c 0d 0e 0f|0123456789abcdef|.{}: Krasnoyarsk (tzif) 0x0-0x6cc (1740)
     |                                               |                |  v1header{}: 0x0-0x2c (44)
0x000|54 5a 69 66                                    |TZif            |    magic: 0x545a6966 (valid) 0x0-0x4 (4)
0x000|            32                                 |    2           |    ver: "2" (0x32) (valid) 0x4-0x5 (1)
0x000|               00 00 00 00 00 00 00 00 00 00 00|     ...........|    reserved: raw bits 0x5-0x14 (15)
0x010|00 00 00 00                                    |....            |
0x010|            00 00 00 00                        |    ....        |    isutcnt: 0 0x14-0x18 (4)
0x010|                        00 00 00 0b            |        ....    |    isstdcnt: 11 0x18-0x1c (4)
0x010|                                    00 00 00 1b|            ....|    leapcnt: 27 0x1c-0x20 (4)
0x020|00 00 00 42                                    |...B            |    timecnt: 66 0x20-0x24 (4)
0x020|            00 00 00 0b                        |    ....        |    typecnt: 11 0x24-0x28 (4)
0x020|                        00 00 00 10            |        ....    |    charcnt: 16 0x28-0x2c (4)
     |                                               |                |  v1datablock{}: 0x2c-0x2ab (639)
     |                                               |                |    transition_times[0:66]: 0x2c-0x134 (264)
0x020|                                    a1 f9 0d f2|            ....|      [0]: "1920-01-05T17:48:34Z" (-1577513486) transition_time 0x2c-0x30 (4)
0x030|b5 a3 e1 20                                    |...             |      [1]: "1930-06-20T18:00:00Z" (-1247551200) transition_time 0x30-0x34 (4)
0x030|            15 27 6f 99                        |    .'o.        |      [2]: "1981-03-31T17:00:09Z" (354906009) transition_time 0x34-0x38 (4)
0x030|                        16 18 a4 0a            |        ....    |      [3]: "1981-09-30T16:00:10Z" (370713610) transition_time 0x38-0x3c (4)
0x030|                                    17 08 a3 1a|            ....|      [4]: "1982-03-31T17:00:10Z" (386442010) transition_time 0x3c-0x40 (4)
0x040|17 f9 d7 8b                                    |....            |      [5]: "1982-09-30T16:00:11Z" (402249611) transition_time 0x40-0x44 (4)
0x040|            18 e9 d6 9b                        |    ....        |      [6]: "1983-03-31T17:00:11Z" (417978011) transition_time 0x44-0x48 (4)
0x040|                        19 db 0b 0c            |        ....    |      [7]: "1983-09-30T16:00:12Z" (433785612) transition_time 0x48-0x4c (4)
0x040|                                    1a cc 5b 9c|            ..[.|      [8]: "1984-03-31T17:00:12Z" (449600412) transition_time 0x4c-0x50 (4)
0x050|1b bc 68 bc                                    |..h.            |      [9]: "1984-09-29T19:00:12Z" (465332412) transition_time 0x50-0x54 (4)
0x050|            1c ac 59 bc                        |    ..Y.        |      [10]: "1985-03-30T19:00:12Z" (481057212) transition_time 0x54-0x58 (4)
0x050|                        1d 9c 4a bd            |        ..J.    |      [11]: "1985-09-28T19:00:13Z" (496782013) transition_time 0x58-0x5c (4)
0x050|                                    1e 8c 3b bd|            ..;.|      [12]: "1986-03-29T19:00:13Z" (512506813) transition_time 0x5c-0x60 (4)
0x060|1f 7c 2c bd                                    |.|,.            |      [13]: "1986-09-27T19:00:13Z" (528231613) transition_time 0x60-0x64 (4)
0x060|            20 6c 1d bd                        |     l..        |      [14]: "1987-03-28T19:00:13Z" (543956413) transition_time 0x64-0x68 (4)
0x060|                        21 5c 0e bd            |        !\..    |      [15]: "1987-09-26T19:00:13Z" (559681213) transition_time 0x68-0x6c (4)
0x060|                                    22 4b ff be|            "K..|      [16]: "1988-03-26T19:00:14Z" (575406014) transition_time 0x6c-0x70 (4)
0x070|23 3b f0 be                                    |#;..            |      [17]: "1988-09-24T19:00:14Z" (591130814) transition_time 0x70-0x74 (4)
0x070|            24 2b e1 be                        |    $+..        |      [18]: "1989-03-25T19:00:14Z" (606855614) transition_time 0x74-0x78 (4)
0x070|                        25 1b d2 be            |        %...    |      [19]: "1989-09-23T19:00:14Z" (622580414) transition_time 0x78-0x7c (4)
0x070|                                    26 0b c3 bf|            &...|      [20]: "1990-03-24T19:00:15Z" (638305215) transition_time 0x7c-0x80 (4)
0x080|27 04 ef 3f                                    |'..?            |      [21]: "1990-09-29T19:00:15Z" (654634815) transition_time 0x80-0x84 (4)
0x080|            27 f4 e0 40                        |    '..@        |      [22]: "1991-03-30T19:00:16Z" (670359616) transition_time 0x84-0x88 (4)
0x080|                        28 e4 df 50            |        (..P    |      [23]: "1991-09-28T20:00:16Z" (686088016) transition_time 0x88-0x8c (4)
0x080|                                    29 78 87 50|            )x.P|      [24]: "1992-01-18T20:00:16Z" (695764816) transition_time 0x8c-0x90 (4)
0x090|29 d4 c2 40                                    |)..@            |      [25]: "1992-03-28T19:00:16Z" (701809216) transition_time 0x90-0x94 (4)
0x090|            2a c4 b3 41                        |    *..A        |      [26]: "1992-09-26T19:00:17Z" (717534017) transition_time 0x94-0x98 (4)
0x090|                        2b b4 a4 41            |        +..A    |      [27]: "1993-03-27T19:00:17Z" (733258817) transition_time 0x98-0x9c (4)
0x090|                                    2c a4 95 42|            ,..B|      [28]: "1993-09-25T19:00:18Z" (748983618) transition_time 0x9c-0xa0 (4)
0x0a0|2d 94 86 42                                    |-..B            |      [29]: "1994-03-26T19:00:18Z" (764708418) transition_time 0xa0-0xa4 (4)
0x0a0|            2e 84 77 43                        |    ..wC        |      [30]: "1994-09-24T19:00:19Z" (780433219) transition_time 0xa4-0xa8 (4)
0x0a0|                        2f 74 68 43            |        /thC    |      [31]: "1995-03-25T19:00:19Z" (796158019) transition_time 0xa8-0xac (4)
0x0a0|                                    30 64 59 43|            0dYC|      [32]: "1995-09-23T19:00:19Z" (811882819) transition_time 0xac-0xb0 (4)
0x0b0|31 5d 84 c4                                    |1]..            |      [33]: "1996-03-30T19:00:20Z" (828212420) transition_time 0xb0-0xb4 (4)
0x0b0|            32 72 5f c4                        |    2r_.        |      [34]: "1996-10-26T19:00:20Z" (846356420) transition_time 0xb4-0xb8 (4)
0x0b0|                        33 3d 66 c4            |        3=f.    |      [35]: "1997-03-29T19:00:20Z" (859662020) transition_time 0xb8-0xbc (4)
0x0b0|                                    34 52 41 c5|            4RA.|      [36]: "1997-10-25T19:00:21Z" (877806021) transition_time 0xbc-0xc0 (4)
0x0c0|35 1d 48 c5                                    |5.H.            |      [37]: "1998-03-28T19:00:21Z" (891111621) transition_time 0xc0-0xc4 (4)
0x0c0|            36 32 23 c5                        |    62#.        |      [38]: "1998-10-24T19:00:21Z" (909255621) transition_time 0xc4-0xc8 (4)
0x0c0|                        36 fd 2a c6            |        6.*.    |      [39]: "1999-03-27T19:00:22Z" (922561222) transition_time 0xc8-0xcc (4)
0x0c0|                                    38 1b 40 46|            8.@F|      [40]: "1999-10-30T19:00:22Z" (941310022) transition_time 0xcc-0xd0 (4)
0x0d0|38 dd 0c c6                                    |8...            |      [41]: "2000-03-25T19:00:22Z" (954010822) transition_time 0xd0-0xd4 (4)
0x0d0|            39 fb 22 46                        |    9."F        |      [42]: "2000-10-28T19:00:22Z" (972759622) transition_time 0xd4-0xd8 (4)
0x0d0|                        3a bc ee c6            |        :...    |      [43]: "2001-03-24T19:00:22Z" (985460422) transition_time 0xd8-0xdc (4)
0x0d0|                                    3b db 04 46|            ;..F|      [44]: "2001-10-27T19:00:22Z" (1004209222) transition_time 0xdc-0xe0 (4)
0x0e0|3c a6 0b 46                                    |<..F            |      [45]: "2002-03-30T19:00:22Z" (1017514822) transition_time 0xe0-0xe4 (4)
0x0e0|            3d ba e6 46                        |    =..F        |      [46]: "2002-10-26T19:00:22Z" (1035658822) transition_time 0xe4-0xe8 (4)
0x0e0|                        3e 85 ed 46            |        >..F    |      [47]: "2003-03-29T19:00:22Z" (1048964422) transition_time 0xe8-0xec (4)
0x0e0|                                    3f 9a c8 46|            ?..F|      [48]: "2003-10-25T19:00:22Z" (1067108422) transition_time 0xec-0xf0 (4)
0x0f0|40 65 cf 46                                    |@e.F            |      [49]: "2004-03-27T19:00:22Z" (1080414022) transition_time 0xf0-0xf4 (4)
0x0f0|            41 83 e4 c6                        |    A...        |      [50]: "2004-10-30T19:00:22Z" (1099162822) transition_time 0xf4-0xf8 (4)
0x0f0|                        42 45 b1 46            |        BE.F    |      [51]: "2005-03-26T19:00:22Z" (1111863622) transition_time 0xf8-0xfc (4)
0x0f0|                                    43 63 c6 c6|            Cc..|      [52]: "2005-10-29T19:00:22Z" (1130612422) transition_time 0xfc-0x100 (4)
0x100|44 25 93 47                                    |D%.G            |      [53]: "2006-03-25T19:00:23Z" (1143313223) transition_time 0x100-0x104 (4)
0x100|            45 43 a8 c7                        |    EC..        |      [54]: "2006-10-28T19:00:23Z" (1162062023) transition_time 0x104-0x108 (4)
0x100|                        46 05 75 47            |        F.uG    |      [55]: "2007-03-24T19:00:23Z" (1174762823) transition_time 0x108-0x10c (4)
0x100|                                    47 23 8a c7|            G#..|      [56]: "2007-10-27T19:00:23Z" (1193511623) transition_time 0x10c-0x110 (4)
0x110|47 ee 91 c7                                    |G...            |      [57]: "2008-03-29T19:00:23Z" (1206817223) transition_time 0x110-0x114 (4)
0x110|            49 03 6c c7                        |    I.l.        |      [58]: "2008-10-25T19:00:23Z" (1224961223) transition_time 0x114-0x118 (4)
0x110|                        49 ce 73 c8            |        I.s.    |      [59]: "2009-03-28T19:00:24Z" (1238266824) transition_time 0x118-0x11c (4)
0x110|                                    4a e3 4e c8|            J.N.|      [60]: "2009-10-24T19:00:24Z" (1256410824) transition_time 0x11c-0x120 (4)
0x120|4b ae 55 c8                                    |K.U.            |      [61]: "2010-03-27T19:00:24Z" (1269716424) transition_time 0x120-0x124 (4)
0x120|            4c cc 6b 48                        |    L.kH        |      [62]: "2010-10-30T19:00:24Z" (1288465224) transition_time 0x124-0x128 (4)
0x120|                        4d 8e 37 c8            |        M.7.    |      [63]: "2011-03-26T19:00:24Z" (1301166024) transition_time 0x128-0x12c (4)
0x120|                                    54 4b e5 39|            TK.9|      [64]: "2014-10-25T18:00:25Z" (1414260025) transition_time 0x12c-0x130 (4)
0x130|64 9b 78 1b                                    |d.x.            |      [65]: "2023-06-28T00:00:27Z" (1687910427) transition_time 0x130-0x134 (4)
     |                                               |                |    transition_types[0:66]: 0x134-0x176 (66)
0x130|            01                                 |    .           |      [0]: 1 transition_type 0x134-0x135 (1)
0x130|               03                              |     .          |      [1]: 3 transition_type 0x135-0x136 (1)
0x130|                  02                           |      .         |      [2]: 2 transition_type 0x136-0x137 (1)
0x130|                     03                        |       .        |      [3]: 3 transition_type 0x137-0x138 (1)
0x130|                        02                     |        .       |      [4]: 2 transition_type 0x138-0x139 (1)
0x130|                           03                  |         .      |      [5]: 3 transition_type 0x139-0x13a (1)
0x130|                              02               |          .     |      [6]: 2 transition_type 0x13a-0x13b (1)
0x130|                                 03            |           .    |      [7]: 3 transition_type 0x13b-0x13c (1)
0x130|                                    02         |            .   |      [8]: 2 transition_type 0x13c-0x13d (1)
0x130|                                       04      |             .  |      [9]: 4 transition_type 0x13d-0x13e (1)
0x130|                                          05   |              . |      [10]: 5 transition_type 0x13e-0x13f (1)
0x130|                                             04|               .|      [11]: 4 transition_type 0x13f-0x140 (1)
0x140|05                                             |.               |      [12]: 5 transition_type 0x140-0x141 (1)
0x140|   04                                          | .              |      [13]: 4 transition_type 0x141-0x142 (1)
0x140|      05                                       |  .             |      [14]: 5 transition_type 0x142-0x143 (1)
0x140|         04                                    |   .            |      [15]: 4 transition_type 0x143-0x144 (1)
0x140|            05                                 |    .           |      [16]: 5 transition_type 0x144-0x145 (1)
0x140|               04                              |     .          |      [17]: 4 transition_type 0x145-0x146 (1)
0x140|                  05                           |      .         |      [18]: 5 transition_type 0x146-0x147 (1)
0x140|                     04                        |       .        |      [19]: 4 transition_type 0x147-0x148 (1)
0x140|                        05                     |        .       |      [20]: 5 transition_type 0x148-0x149 (1)
0x140|                           04                  |         .      |      [21]: 4 transition_type 0x149-0x14a (1)
0x140|                              06               |          .     |      [22]: 6 transition_type 0x14a-0x14b (1)
0x140|                                 07            |           .    |      [23]: 7 transition_type 0x14b-0x14c (1)
0x140|                                    04         |            .   |      [24]: 4 transition_type 0x14c-0x14d (1)
0x140|                                       05      |             .  |      [25]: 5 transition_type 0x14d-0x14e (1)
0x140|                                          04   |              . |      [26]: 4 transition_type 0x14e-0x14f (1)
0x140|                                             05|               .|      [27]: 5 transition_type 0x14f-0x150 (1)
0x150|04                                             |.               |      [28]: 4 transition_type 0x150-0x151 (1)
0x150|   05                                          | .              |      [29]: 5 transition_type 0x151-0x152 (1)
0x150|      04                                       |  .             |      [30]: 4 transition_type 0x152-0x153 (1)
0x150|         05                                    |   .            |      [31]: 5 transition_type 0x153-0x154 (1)
0x150|            04                                 |    .           |      [32]: 4 transition_type 0x154-0x155 (1)
0x150|               05                              |     .          |      [33]: 5 transition_type 0x155-0x156 (1)
0x150|                  04                           |      .         |      [34]: 4 transition_type 0x156-0x157 (1)
0x150|                     05                        |       .        |      [35]: 5 transition_type 0x157-0x158 (1)
0x150|                        04                     |        .       |      [36]: 4 transition_type 0x158-0x159 (1)
0x150|                           05                  |         .      |      [37]: 5 transition_type 0x159-0x15a (1)
0x150|                              04               |          .     |      [38]: 4 transition_type 0x15a-0x15b (1)
0x150|                                 05            |           .    |      [39]: 5 transition_type 0x15b-0x15c (1)
0x150|                                    04         |            .   |      [40]: 4 transition_type 0x15c-0x15d (1)
0x150|                                       05      |             .  |      [41]: 5 transition_type 0x15d-0x15e (1)
0x150|                                          04   |              . |      [42]: 4 transition_type 0x15e-0x15f (1)
0x150|                                             05|               .|      [43]: 5 transition_type 0x15f-0x160 (1)
0x160|04                                             |.               |      [44]: 4 transition_type 0x160-0x161 (1)
0x160|   05                                          | .              |      [45]: 5 transition_type 0x161-0x162 (1)
0x160|      04                                       |  .             |      [46]: 4 transition_type 0x162-0x163 (1)
0x160|         05                                    |   .            |      [47]: 5 transition_type 0x163-0x164 (1)
0x160|            04                                 |    .           |      [48]: 4 transition_type 0x164-0x165 (1)
0x160|               05                              |     .          |      [49]: 5 transition_type 0x165-0x166 (1)
0x160|                  04                           |      .         |      [50]: 4 transition_type 0x166-0x167 (1)
0x160|                     05                        |       .        |      [51]: 5 transition_type 0x167-0x168 (1)
0x160|                        04                     |        .       |      [52]: 4 transition_type 0x168-0x169 (1)
0x160|                           05                  |         .      |      [53]: 5 transition_type 0x169-0x16a (1)
0x160|                              04               |          .     |      [54]: 4 transition_type 0x16a-0x16b (1)
0x160|                                 05            |           .    |      [55]: 5 transition_type 0x16b-0x16c (1)
0x160|                                    04         |            .   |      [56]: 4 transition_type 0x16c-0x16d (1)
0x160|                                       05      |             .  |      [57]: 5 transition_type 0x16d-0x16e (1)
0x160|                                          04   |              . |      [58]: 4 transition_type 0x16e-0x16f (1)
0x160|                                             05|               .|      [59]: 5 transition_type 0x16f-0x170 (1)
0x170|04                                             |.               |      [60]: 4 transition_type 0x170-0x171 (1)
0x170|   05                                          | .              |      [61]: 5 transition_type 0x171-0x172 (1)
0x170|      04                                       |  .             |      [62]: 4 transition_type 0x172-0x173 (1)
0x170|         08                                    |   .            |      [63]: 8 transition_type 0x173-0x174 (1)
0x170|            04                                 |    .           |      [64]: 4 transition_type 0x174-0x175 (1)
0x170|               04                              |     .          |      [65]: 4 transition_type 0x175-0x176 (1)
     |                                               |                |    local_time_type_records[0:11]: 0x176-0x1b8 (66)
     |                                               |                |      [0]{}: local_time_type 0x176-0x17c (6)
0x170|                  00 00 57 0e                  |      ..W.      |        utoff: 22286 (valid) 0x176-0x17a (4)
0x170|                              00               |          .     |        dst: 0 (valid) 0x17a-0x17b (1)
0x170|                                 00            |           .    |        idx: 0 (valid) 0x17b-0x17c (1)
     |                                               |                |      [1]{}: local_time_type 0x17c-0x182 (6)
0x170|                                    00 00 54 60|            ..T`|        utoff: 21600 (valid) 0x17c-0x180 (4)
0x180|00                                             |.               |        dst: 0 (valid) 0x180-0x181 (1)
0x180|   04                                          | .              |        idx: 4 (valid) 0x181-0x182 (1)
     |                                               |                |      [2]{}: local_time_type 0x182-0x188 (6)
0x180|      00 00 70 80                              |  ..p.          |        utoff: 28800 (valid) 0x182-0x186 (4)
0x180|                  01                           |      .         |        dst: 1 (valid) 0x186-0x187 (1)
0x180|                     08                        |       .        |        idx: 8 (valid) 0x187-0x188 (1)
     |                                               |                |      [3]{}: local_time_type 0x188-0x18e (6)
0x180|                        00 00 62 70            |        ..bp    |        utoff: 25200 (valid) 0x188-0x18c (4)
0x180|                                    00         |            .   |        dst: 0 (valid) 0x18c-0x18d (1)
0x180|                                       0c      |             .  |        idx: 12 (valid) 0x18d-0x18e (1)
     |                                               |                |      [4]{}: local_time_type 0x18e-0x194 (6)
0x180|                                          00 00|              ..|        utoff: 25200 (valid) 0x18e-0x192 (4)
0x190|62 70                                          |bp              |
0x190|      00                                       |  .             |        dst: 0 (valid) 0x192-0x193 (1)
0x190|         0c                                    |   .            |        idx: 12 (valid) 0x193-0x194 (1)
     |                                               |                |      [5]{}: local_time_type 0x194-0x19a (6)
0x190|            00 00 70 80                        |    ..p.        |        utoff: 28800 (valid) 0x194-0x198 (4)
0x190|                        01                     |        .       |        dst: 1 (valid) 0x198-0x199 (1)
0x190|                           08                  |         .      |        idx: 8 (valid) 0x199-0x19a (1)
     |                                               |                |      [6]{}: local_time_type 0x19a-0x1a0 (6)
0x190|                              00 00 62 70      |          ..bp  |        utoff: 25200 (valid) 0x19a-0x19e (4)
0x190|                                          01   |              . |        dst: 1 (valid) 0x19e-0x19f (1)
0x190|                                             0c|               .|        idx: 12 (valid) 0x19f-0x1a0 (1)
     |                                               |                |      [7]{}: local_time_type 0x1a0-0x1a6 (6)
0x1a0|00 00 54 60                                    |..T`            |        utoff: 21600 (valid) 0x1a0-0x1a4 (4)
0x1a0|            00                                 |    .           |        dst: 0 (valid) 0x1a4-0x1a5 (1)
0x1a0|               04                              |     .          |        idx: 4 (valid) 0x1a5-0x1a6 (1)
     |                                               |                |      [8]{}: local_time_type 0x1a6-0x1ac (6)
0x1a0|                  00 00 70 80                  |      ..p.      |        utoff: 28800 (valid) 0x1a6-0x1aa (4)
0x1a0|                              00               |          .     |        dst: 0 (valid) 0x1aa-0x1ab (1)
0x1a0|                                 08            |           .    |        idx: 8 (valid) 0x1ab-0x1ac (1)
     |                                               |                |      [9]{}: local_time_type 0x1ac-0x1b2 (6)
0x1a0|                                    00 00 70 80|            ..p.|        utoff: 28800 (valid) 0x1ac-0x1b0 (4)
0x1b0|01                                             |.               |        dst: 1 (valid) 0x1b0-0x1b1 (1)
0x1b0|   08                                          | .              |        idx: 8 (valid) 0x1b1-0x1b2 (1)
     |                                               |                |      [10]{}: local_time_type 0x1b2-0x1b8 (6)
0x1b0|      00 00 62 70                              |  ..bp          |        utoff: 25200 (valid) 0x1b2-0x1b6 (4)
0x1b0|                  00                           |      .         |        dst: 0 (valid) 0x1b6-0x1b7 (1)
0x1b0|                     0c                        |       .        |        idx: 12 (valid) 0x1b7-0x1b8 (1)
     |                                               |                |    time_zone_designations[0:4]: 0x1b8-0x1c8 (16)
0x1b0|                        4c 4d 54 00            |        LMT.    |      [0]: "LMT" time_zone_designation 0x1b8-0x1bc (4)
0x1b0|                                    2b 30 36 00|            +06.|      [1]: "+06" time_zone_designation 0x1bc-0x1c0 (4)
0x1c0|2b 30 38 00                                    |+08.            |      [2]: "+08" time_zone_designation 0x1c0-0x1c4 (4)
0x1c0|            2b 30 37 00                        |    +07.        |      [3]: "+07" time_zone_designation 0x1c4-0x1c8 (4)
     |                                               |                |    leap_second_records[0:27]: 0x1c8-0x2a0 (216)
     |                                               |                |      [0]{}: leap_second_record 0x1c8-0x1d0 (8)
0x1c0|                        04 b2 58 00            |        ..X.    |        occur: "1972-07-01T00:00:00Z" (78796800) 0x1c8-0x1cc (4)
0x1c0|                                    00 00 00 01|            ....|        corr: 1 0x1cc-0x1d0 (4)
     |                                               |                |      [1]{}: leap_second_record 0x1d0-0x1d8 (8)
0x1d0|05 a4 ec 01                                    |....            |        occur: "1973-01-01T00:00:01Z" (94694401) 0x1d0-0x1d4 (4)
0x1d0|            00 00 00 02                        |    ....        |        corr: 2 0x1d4-0x1d8 (4)
     |                                               |                |      [2]{}: leap_second_record 0x1d8-0x1e0 (8)
0x1d0|                        07 86 1f 82            |        ....    |        occur: "1974-01-01T00:00:02Z" (126230402) 0x1d8-0x1dc (4)
0x1d0|                                    00 00 00 03|            ....|        corr: 3 0x1dc-0x1e0 (4)
     |                                               |                |      [3]{}: leap_second_record 0x1e0-0x1e8 (8)
0x1e0|09 67 53 03                                    |.gS.            |        occur: "1975-01-01T00:00:03Z" (157766403) 0x1e0-0x1e4 (4)
0x1e0|            00 00 00 04                        |    ....        |        corr: 4 0x1e4-0x1e8 (4)
     |                                               |                |      [4]{}: leap_second_record 0x1e8-0x1f0 (8)
0x1e0|                        0b 48 86 84            |        .H..    |        occur: "1976-01-01T00:00:04Z" (189302404) 0x1e8-0x1ec (4)
0x1e0|                                    00 00 00 05|            ....|        corr: 5 0x1ec-0x1f0 (4)
     |                                               |                |      [5]{}: leap_second_record 0x1f0-0x1f8 (8)
0x1f0|0d 2b 0b 85                                    |.+..            |        occur: "1977-01-01T00:00:05Z" (220924805) 0x1f0-0x1f4 (4)
0x1f0|            00 00 00 06                        |    ....        |        corr: 6 0x1f4-0x1f8 (4)
     |                                               |                |      [6]{}: leap_second_record 0x1f8-0x200 (8)
0x1f0|                        0f 0c 3f 06            |        ..?.    |        occur: "1978-01-01T00:00:06Z" (252460806) 0x1f8-0x1fc (4)
0x1f0|                                    00 00 00 07|            ....|        corr: 7 0x1fc-0x200 (4)
     |                                               |                |      [7]{}: leap_second_record 0x200-0x208 (8)
0x200|10 ed 72 87                                    |..r.            |        occur: "1979-01-01T00:00:07Z" (283996807) 0x200-0x204 (4)
0x200|            00 00 00 08                        |    ....        |        corr: 8 0x204-0x208 (4)
     |                                               |                |      [8]{}: leap_second_record 0x208-0x210 (8)
0x200|                        12 ce a6 08            |        ....    |        occur: "1980-01-01T00:00:08Z" (315532808) 0x208-0x20c (4)
0x200|                                    00 00 00 09|            ....|        corr: 9 0x20c-0x210 (4)
     |                                               |                |      [9]{}: leap_second_record 0x210-0x218 (8)
0x210|15 9f ca 89                                    |....            |        occur: "1981-07-01T00:00:09Z" (362793609) 0x210-0x214 (4)
0x210|            00 00 00 0a                        |    ....        |        corr: 10 0x214-0x218 (4)
     |                                               |                |      [10]{}: leap_second_record 0x218-0x220 (8)
0x210|                        17 80 fe 0a            |        ....    |        occur: "1982-07-01T00:00:10Z" (394329610) 0x218-0x21c (4)
0x210|                                    00 00 00 0b|            ....|        corr: 11 0x21c-0x220 (4)
     |                                               |                |      [11]{}: leap_second_record 0x220-0x228 (8)
0x220|19 62 31 8b                                    |.b1.            |        occur: "1983-07-01T00:00:11Z" (425865611) 0x220-0x224 (4)
0x220|            00 00 00 0c                        |    ....        |        corr: 12 0x224-0x228 (4)
     |                                               |                |      [12]{}: leap_second_record 0x228-0x230 (8)
0x220|                        1d 25 ea 0c            |        .%..    |        occur: "1985-07-01T00:00:12Z" (489024012) 0x228-0x22c (4)
0x220|                                    00 00 00 0d|            ....|        corr: 13 0x22c-0x230 (4)
     |                                               |                |      [13]{}: leap_second_record 0x230-0x238 (8)
0x230|21 da e5 0d                                    |!...            |        occur: "1988-01-01T00:00:13Z" (567993613) 0x230-0x234 (4)
0x230|            00 00 00 0e                        |    ....        |        corr: 14 0x234-0x238 (4)
     |                                               |                |      [14]{}: leap_second_record 0x238-0x240 (8)
0x230|                        25 9e 9d 8e            |        %...    |        occur: "1990-01-01T00:00:14Z" (631152014) 0x238-0x23c (4)
0x230|                                    00 00 00 0f|            ....|        corr: 15 0x23c-0x240 (4)
     |                                               |                |      [15]{}: leap_second_record 0x240-0x248 (8)
0x240|27 7f d1 0f                                    |'...            |        occur: "1991-01-01T00:00:15Z" (662688015) 0x240-0x244 (4)
0x240|            00 00 00 10                        |    ....        |        corr: 16 0x244-0x248 (4)
     |                                               |                |      [16]{}: leap_second_record 0x248-0x250 (8)
0x240|                        2a 50 f5 90            |        *P..    |        occur: "1992-07-01T00:00:16Z" (709948816) 0x248-0x24c (4)
0x240|                                    00 00 00 11|            ....|        corr: 17 0x24c-0x250 (4)
     |                                               |                |      [17]{}: leap_second_record 0x250-0x258 (8)
0x250|2c 32 29 11                                    |,2).            |        occur: "1993-07-01T00:00:17Z" (741484817) 0x250-0x254 (4)
0x250|            00 00 00 12                        |    ....        |        corr: 18 0x254-0x258 (4)
     |                                               |                |      [18]{}: leap_second_record 0x258-0x260 (8)
0x250|                        2e 13 5c 92            |        ..\.    |        occur: "1994-07-01T00:00:18Z" (773020818) 0x258-0x25c (4)
0x250|                                    00 00 00 13|            ....|        corr: 19 0x25c-0x260 (4)
     |                                               |                |      [19]{}: leap_second_record 0x260-0x268 (8)
0x260|30 e7 24 13                                    |0.$.            |        occur: "1996-01-01T00:00:19Z" (820454419) 0x260-0x264 (4)
0x260|            00 00 00 14                        |    ....        |        corr: 20 0x264-0x268 (4)
     |                                               |                |      [20]{}: leap_second_record 0x268-0x270 (8)
0x260|                        33 b8 48 94            |        3.H.    |        occur: "1997-07-01T00:00:20Z" (867715220) 0x268-0x26c (4)
0x260|                                    00 00 00 15|            ....|        corr: 21 0x26c-0x270 (4)
     |                                               |                |      [21]{}: leap_second_record 0x270-0x278 (8)
0x270|36 8c 10 15                                    |6...            |        occur: "1999-01-01T00:00:21Z" (915148821) 0x270-0x274 (4)
0x270|            00 00 00 16                        |    ....        |        corr: 22 0x274-0x278 (4)
     |                                               |                |      [22]{}: leap_second_record 0x278-0x280 (8)
0x270|                        43 b7 1b 96            |        C...    |        occur: "2006-01-01T00:00:22Z" (1136073622) 0x278-0x27c (4)
0x270|                                    00 00 00 17|            ....|        corr: 23 0x27c-0x280 (4)
     |                                               |                |      [23]{}: leap_second_record 0x280-0x288 (8)
0x280|49 5c 07 97                                    |I\..            |        occur: "2009-01-01T00:00:23Z" (1230768023) 0x280-0x284 (4)
0x280|            00 00 00 18                        |    ....        |        corr: 24 0x284-0x288 (4)
     |                                               |                |      [24]{}: leap_second_record 0x288-0x290 (8)
0x280|                        4f ef 93 18            |        O...    |        occur: "2012-07-01T00:00:24Z" (1341100824) 0x288-0x28c (4)
0x280|                                    00 00 00 19|            ....|        corr: 25 0x28c-0x290 (4)
     |                                               |                |      [25]{}: leap_second_record 0x290-0x298 (8)
0x290|55 93 2d 99                                    |U.-.            |        occur: "2015-07-01T00:00:25Z" (1435708825) 0x290-0x294 (4)
0x290|            00 00 00 1a                        |    ....        |        corr: 26 0x294-0x298 (4)
     |                                               |                |      [26]{}: leap_second_record 0x298-0x2a0 (8)
0x290|                        58 68 46 9a            |        XhF.    |        occur: "2017-01-01T00:00:26Z" (1483228826) 0x298-0x29c (4)
0x290|                                    00 00 00 1b|            ....|        corr: 27 0x29c-0x2a0 (4)
     |                                               |                |    standard_wall_indicators[0:11]: 0x2a0-0x2ab (11)
0x2a0|00                                             |.               |      [0]: 0 standard_wall_indicator (valid) 0x2a0-0x2a1 (1)
0x2a0|   00                                          | .              |      [1]: 0 standard_wall_indicator (valid) 0x2a1-0x2a2 (1)
0x2a0|      00                                       |  .             |      [2]: 0 standard_wall_indicator (valid) 0x2a2-0x2a3 (1)
0x2a0|         00                                    |   .            |      [3]: 0 standard_wall_indicator (valid) 0x2a3-0x2a4 (1)
0x2a0|            01                                 |    .           |      [4]: 1 standard_wall_indicator (valid) 0x2a4-0x2a5 (1)
0x2a0|               01                              |     .          |      [5]: 1 standard_wall_indicator (valid) 0x2a5-0x2a6 (1)
0x2a0|                  01                           |      .         |      [6]: 1 standard_wall_indicator (valid) 0x2a6-0x2a7 (1)
0x2a0|                     01                        |       .        |      [7]: 1 standard_wall_indicator (valid) 0x2a7-0x2a8 (1)
0x2a0|                        01                     |        .       |      [8]: 1 standard_wall_indicator (valid) 0x2a8-0x2a9 (1)
0x2a0|                           01                  |         .      |      [9]: 1 standard_wall_indicator (valid) 0x2a9-0x2aa (1)
0x2a0|                              01               |          .     |      [10]: 1 standard_wall_indicator (valid) 0x2aa-0x2ab (1)
     |                                               |                |    ut_local_indicators[0:0]: 0x2ab-0x2ab (0)
     |                                               |                |  v2plusheader{}: 0x2ab-0x2d7 (44)
0x2a0|                                 54 5a 69 66   |           TZif |    magic: 0x545a6966 (valid) 0x2ab-0x2af (4)
0x2a0|                                             32|               2|    ver: "2" (0x32) (valid) 0x2af-0x2b0 (1)
0x2b0|00 00 00 00 00 00 00 00 00 00 00 00 00 00 00   |............... |    reserved: raw bits 0x2b0-0x2bf (15)
0x2b0|                                             00|               .|    isutcnt: 0 0x2bf-0x2c3 (4)
0x2c0|00 00 00                                       |...             |
0x2c0|         00 00 00 0b                           |   ....         |    isstdcnt: 11 0x2c3-0x2c7 (4)
0x2c0|                     00 00 00 1b               |       ....     |    leapcnt: 27 0x2c7-0x2cb (4)
0x2c0|                                 00 00 00 42   |           ...B |    timecnt: 66 0x2cb-0x2cf (4)
0x2c0|                                             00|               .|    typecnt: 11 0x2cf-0x2d3 (4)
0x2d0|00 00 0b                                       |...             |
0x2d0|         00 00 00 10                           |   ....         |    charcnt: 16 0x2d3-0x2d7 (4)
     |                                               |                |  v2plusdatablock{}: 0x2d7-0x6ca (1011)
     |                                               |                |    transition_times[0:66]: 0x2d7-0x4e7 (528)
0x2d0|                     ff ff ff ff a1 f9 0d f2   |       ........ |      [0]: "1920-01-05T17:48:34Z" (-1577513486) transition_time 0x2d7-0x2df (8)
0x2d0|                                             ff|               .|      [1]: "1930-06-20T18:00:00Z" (-1247551200) transition_time 0x2df-0x2e7 (8)
0x2e0|ff ff ff b5 a3 e1 20                           |......          |
0x2e0|                     00 00 00 00 15 27 6f 99   |       .....'o. |      [2]: "1981-03-31T17:00:09Z" (354906009) transition_time 0x2e7-0x2ef (8)
0x2e0|                                             00|               .|      [3]: "1981-09-30T16:00:10Z" (370713610) transition_time 0x2ef-0x2f7 (8)
0x2f0|00 00 00 16 18 a4 0a                           |.......         |
0x2f0|                     00 00 00 00 17 08 a3 1a   |       ........ |      [4]: "1982-03-31T17:00:10Z" (386442010) transition_time 0x2f7-0x2ff (8)
0x2f0|                                             00|               .|      [5]: "1982-09-30T16:00:11Z" (402249611) transition_time 0x2ff-0x307 (8)
0x300|00 00 00 17 f9 d7 8b                           |.......         |
0x300|                     00 00 00 00 18 e9 d6 9b   |       ........ |      [6]: "1983-03-31T17:00:11Z" (417978011) transition_time 0x307-0x30f (8)
0x300|                                             00|               .|      [7]: "1983-09-30T16:00:12Z" (433785612) transition_time 0x30f-0x317 (8)
0x310|00 00 00 19 db 0b 0c                           |.......         |
0x310|                     00 00 00 00 1a cc 5b 9c   |       ......[. |      [8]: "1984-03-31T17:00:12Z" (449600412) transition_time 0x317-0x31f (8)
0x310|                                             00|               .|      [9]: "1984-09-29T19:00:12Z" (465332412) transition_time 0x31f-0x327 (8)
0x320|00 00 00 1b bc 68 bc                           |.....h.         |
0x320|                     00 00 00 00 1c ac 59 bc   |       ......Y. |      [10]: "1985-03-30T19:00:12Z" (481057212) transition_time 0x327-0x32f (8)
0x320|                                             00|               .|      [11]: "1985-09-28T19:00:13Z" (496782013) transition_time 0x32f-0x337 (8)
0x330|00 00 00 1d 9c 4a bd                           |.....J.         |
0x330|                     00 00 00 00 1e 8c 3b bd   |       ......;. |      [12]: "1986-03-29T19:00:13Z" (512506813) transition_time 0x337-0x33f (8)
0x330|                                             00|               .|      [13]: "1986-09-27T19:00:13Z" (528231613) transition_time 0x33f-0x347 (8)
0x340|00 00 00 1f 7c 2c bd                           |....|,.         |
0x340|                     00 00 00 00 20 6c 1d bd   |       .... l.. |      [14]: "1987-03-28T19:00:13Z" (543956413) transition_time 0x347-0x34f (8)
0x340|                                             00|               .|      [15]: "1987-09-26T19:00:13Z" (559681213) transition_time 0x34f-0x357 (8)
0x350|00 00 00 21 5c 0e bd                           |...!\..         |
0x350|                     00 00 00 00 22 4b ff be   |       ...."K.. |      [16]: "1988-03-26T19:00:14Z" (575406014) transition_time 0x357-0x35f (8)
0x350|                                             00|               .|      [17]: "1988-09-24T19:00:14Z" (591130814) transition_time 0x35f-0x367 (8)
0x360|00 00 00 23 3b f0 be                           |...#;..         |
0x360|                     00 00 00 00 24 2b e1 be   |       ....$+.. |      [18]: "1989-03-25T19:00:14Z" (606855614) transition_time 0x367-0x36f (8)
0x360|                                             00|               .|      [19]: "1989-09-23T19:00:14Z" (622580414) transition_time 0x36f-0x377 (8)
0x370|00 00 00 25 1b d2 be                           |...%...         |
0x370|                     00 00 00 00 26 0b c3 bf   |       ....&... |      [20]: "1990-03-24T19:00:15Z" (638305215) transition_time 0x377-0x37f (8)
0x370|                                             00|               .|      [21]: "1990-09-29T19:00:15Z" (654634815) transition_time 0x37f-0x387 (8)
0x380|00 00 00 27 04 ef 3f                           |...'..?         |
0x380|                     00 00 00 00 27 f4 e0 40   |       ....'..@ |      [22]: "1991-03-30T19:00:16Z" (670359616) transition_time 0x387-0x38f (8)
0x380|                                             00|               .|      [23]: "1991-09-28T20:00:16Z" (686088016) transition_time 0x38f-0x397 (8)
0x390|00 00 00 28 e4 df 50                           |...(..P         |
0x390|                     00 00 00 00 29 78 87 50   |       ....)x.P |      [24]: "1992-01-18T20:00:16Z" (695764816) transition_time 0x397-0x39f (8)
0x390|                                             00|               .|      [25]: "1992-03-28T19:00:16Z" (701809216) transition_time 0x39f-0x3a7 (8)
0x3a0|00 00 00 29 d4 c2 40                           |...)..@         |
0x3a0|                     00 00 00 00 2a c4 b3 41   |       ....*..A |      [26]: "1992-09-26T19:00:17Z" (717534017) transition_time 0x3a7-0x3af (8)
0x3a0|                                             00|               .|      [27]: "1993-03-27T19:00:17Z" (733258817) transition_time 0x3af-0x3b7 (8)
0x3b0|00 00 00 2b b4 a4 41                           |...+..A         |
0x3b0|                     00 00 00 00 2c a4 95 42   |       ....,..B |      [28]: "1993-09-25T19:00:18Z" (748983618) transition_time 0x3b7-0x3bf (8)
0x3b0|                                             00|               .|      [29]: "1994-03-26T19:00:18Z" (764708418) transition_time 0x3bf-0x3c7 (8)
0x3c0|00 00 00 2d 94 86 42                           |...-..B         |
0x3c0|                     00 00 00 00 2e 84 77 43   |       ......wC |      [30]: "1994-09-24T19:00:19Z" (780433219) transition_time 0x3c7-0x3cf (8)
0x3c0|                                             00|               .|      [31]: "1995-03-25T19:00:19Z" (796158019) transition_time 0x3cf-0x3d7 (8)
0x3d0|00 00 00 2f 74 68 43                           |.../thC         |
0x3d0|                     00 00 00 00 30 64 59 43   |       ....0dYC |      [32]: "1995-09-23T19:00:19Z" (811882819) transition_time 0x3d7-0x3df (8)
0x3d0|                                             00|               .|      [33]: "1996-03-30T19:00:20Z" (828212420) transition_time 0x3df-0x3e7 (8)
0x3e0|00 00 00 31 5d 84 c4                           |...1]..         |
0x3e0|                     00 00 00 00 32 72 5f c4   |       ....2r_. |      [34]: "1996-10-26T19:00:20Z" (846356420) transition_time 0x3e7-0x3ef (8)
0x3e0|                                             00|               .|      [35]: "1997-03-29T19:00:20Z" (859662020) transition_time 0x3ef-0x3f7 (8)
0x3f0|00 00 00 33 3d 66 c4                           |...3=f.         |
0x3f0|                     00 00 00 00 34 52 41 c5   |       ....4RA. |      [36]: "1997-10-25T19:00:21Z" (877806021) transition_time 0x3f7-0x3ff (8)
0x3f0|                                             00|               .|      [37]: "1998-03-28T19:00:21Z" (891111621) transition_time 0x3ff-0x407 (8)
0x400|00 00 00 35 1d 48 c5                           |...5.H.         |
0x400|                     00 00 00 00 36 32 23 c5   |       ....62#. |      [38]: "1998-10-24T19:00:21Z" (909255621) transition_time 0x407-0x40f (8)
0x400|                                             00|               .|      [39]: "1999-03-27T19:00:22Z" (922561222) transition_time 0x40f-0x417 (8)
0x410|00 00 00 36 fd 2a c6                           |...6.*.         |
0x410|                     00 00 00 00 38 1b 40 46   |       ....8.@F |      [40]: "1999-10-30T19:00:22Z" (941310022) transition_time 0x417-0x41f (8)
0x410|                                             00|               .|      [41]: "2000-03-25T19:00:22Z" (954010822) transition_time 0x41f-0x427 (8)
0x420|00 00 00 38 dd 0c c6                           |...8...         |
0x420|                     00 00 00 00 39 fb 22 46   |       ....9."F |      [42]: "2000-10-28T19:00:22Z" (972759622) transition_time 0x427-0x42f (8)
0x420|                                             00|               .|      [43]: "2001-03-24T19:00:22Z" (985460422) transition_time 0x42f-0x437 (8)
0x430|00 00 00 3a bc ee c6                           |...:...         |
0x430|                     00 00 00 00 3b db 04 46   |       ....;..F |      [44]: "2001-10-27T19:00:22Z" (1004209222) transition_time 0x437-0x43f (8)
0x430|                                             00|               .|      [45]: "2002-03-30T19:00:22Z" (1017514822) transition_time 0x43f-0x447 (8)
0x440|00 00 00 3c a6 0b 46                           |...<..F         |
0x440|                     00 00 00 00 3d ba e6 46   |       ....=..F |      [46]: "2002-10-26T19:00:22Z" (1035658822) transition_time 0x447-0x44f (8)
0x440|                                             00|               .|      [47]: "2003-03-29T19:00:22Z" (1048964422) transition_time 0x44f-0x457 (8)
0x450|00 00 00 3e 85 ed 46                           |...>..F         |
0x450|                     00 00 00 00 3f 9a c8 46   |       ....?..F |      [48]: "2003-10-25T19:00:22Z" (1067108422) transition_time 0x457-0x45f (8)
0x450|                                             00|               .|      [49]: "2004-03-27T19:00:22Z" (1080414022) transition_time 0x45f-0x467 (8)
0x460|00 00 00 40 65 cf 46                           |...@e.F         |
0x460|                     00 00 00 00 41 83 e4 c6   |       ....A... |      [50]: "2004-10-30T19:00:22Z" (1099162822) transition_time 0x467-0x46f (8)
0x460|                                             00|               .|      [51]: "2005-03-26T19:00:22Z" (1111863622) transition_time 0x46f-0x477 (8)
0x470|00 00 00 42 45 b1 46                           |...BE.F         |
0x470|                     00 00 00 00 43 63 c6 c6   |       ....Cc.. |      [52]: "2005-10-29T19:00:22Z" (1130612422) transition_time 0x477-0x47f (8)
0x470|                                             00|               .|      [53]: "2006-03-25T19:00:23Z" (1143313223) transition_time 0x47f-0x487 (8)
0x480|00 00 00 44 25 93 47                           |...D%.G         |
0x480|                     00 00 00 00 45 43 a8 c7   |       ....EC.. |      [54]: "2006-10-28T19:00:23Z" (1162062023) transition_time 0x487-0x48f (8)
0x480|                                             00|               .|      [55]: "2007-03-24T19:00:23Z" (1174762823) transition_time 0x48f-0x497 (8)
0x490|00 00 00 46 05 75 47                           |...F.uG         |
0x490|                     00 00 00 00 47 23 8a c7   |       ....G#.. |      [56]: "2007-10-27T19:00:23Z" (1193511623) transition_time 0x497-0x49f (8)
0x490|                                             00|               .|      [57]: "2008-03-29T19:00:23Z" (1206817223) transition_time 0x49f-0x4a7 (8)
0x4a0|00 00 00 47 ee 91 c7                           |...G...         |
0x4a0|                     00 00 00 00 49 03 6c c7   |       ....I.l. |      [58]: "2008-10-25T19:00:23Z" (1224961223) transition_time 0x4a7-0x4af (8)
0x4a0|                                             00|               .|      [59]: "2009-03-28T19:00:24Z" (1238266824) transition_time 0x4af-0x4b7 (8)
0x4b0|00 00 00 49 ce 73 c8                           |...I.s.         |
0x4b0|                     00 00 00 00 4a e3 4e c8   |       ....J.N. |      [60]: "2009-10-24T19:00:24Z" (1256410824) transition_time 0x4b7-0x4bf (8)
0x4b0|                                             00|               .|      [61]: "2010-03-27T19:00:24Z" (1269716424) transition_time 0x4bf-0x4c7 (8)
0x4c0|00 00 00 4b ae 55 c8                           |...K.U.         |
0x4c0|                     00 00 00 00 4c cc 6b 48   |       ....L.kH |      [62]: "2010-10-30T19:00:24Z" (1288465224) transition_time 0x4c7-0x4cf (8)
0x4c0|                                             00|               .|      [63]: "2011-03-26T19:00:24Z" (1301166024) transition_time 0x4cf-0x4d7 (8)
0x4d0|00 00 00 4d 8e 37 c8                           |...M.7.         |
0x4d0|                     00 00 00 00 54 4b e5 39   |       ....TK.9 |      [64]: "2014-10-25T18:00:25Z" (1414260025) transition_time 0x4d7-0x4df (8)
0x4d0|                                             00|               .|      [65]: "2023-06-28T00:00:27Z" (1687910427) transition_time 0x4df-0x4e7 (8)
0x4e0|00 00 00 64 9b 78 1b                           |...d.x.         |
     |                                               |                |    transition_types[0:66]: 0x4e7-0x529 (66)
0x4e0|                     01                        |       .        |      [0]: 1 transition_type 0x4e7-0x4e8 (1)
0x4e0|                        03                     |        .       |      [1]: 3 transition_type 0x4e8-0x4e9 (1)
0x4e0|                           02                  |         .      |      [2]: 2 transition_type 0x4e9-0x4ea (1)
0x4e0|                              03               |          .     |      [3]: 3 transition_type 0x4ea-0x4eb (1)
0x4e0|                                 02            |           .    |      [4]: 2 transition_type 0x4eb-0x4ec (1)
0x4e0|                                    03         |            .   |      [5]: 3 transition_type 0x4ec-0x4ed (1)
0x4e0|                                       02      |             .  |      [6]: 2 transition_type 0x4ed-0x4ee (1)
0x4e0|                                          03   |              . |      [7]: 3 transition_type 0x4ee-0x4ef (1)
0x4e0|                                             02|               .|      [8]: 2 transition_type 0x4ef-0x4f0 (1)
0x4f0|04                                             |.               |      [9]: 4 transition_type 0x4f0-0x4f1 (1)
0x4f0|   05                                          | .              |      [10]: 5 transition_type 0x4f1-0x4f2 (1)
0x4f0|      04                                       |  .             |      [11]: 4 transition_type 0x4f2-0x4f3 (1)
0x4f0|         05                                    |   .            |      [12]: 5 transition_type 0x4f3-0x4f4 (1)
0x4f0|            04                                 |    .           |      [13]: 4 transition_type 0x4f4-0x4f5 (1)
0x4f0|               05                              |     .          |      [14]: 5 transition_type 0x4f5-0x4f6 (1)
0x4f0|                  04                           |      .         |      [15]: 4 transition_type 0x4f6-0x4f7 (1)
0x4f0|                     05                        |       .        |      [16]: 5 transition_type 0x4f7-0x4f8 (1)
0x4f0|                        04                     |        .       |      [17]: 4 transition_type 0x4f8-0x4f9 (1)
0x4f0|                           05                  |         .      |      [18]: 5 transition_type 0x4f9-0x4fa (1)
0x4f0|                              04               |          .     |      [19]: 4 transition_type 0x4fa-0x4fb (1)
0x4f0|                                 05            |           .    |      [20]: 5 transition_type 0x4fb-0x4fc (1)
0x4f0|                                    04         |            .   |      [21]: 4 transition_type 0x4fc-0x4fd (1)
0x4f0|                                       06      |             .  |      [22]: 6 transition_type 0x4fd-0x4fe (1)
0x4f0|                                          07   |              . |      [23]: 7 transition_type 0x4fe-0x4ff (1)
0x4f0|                                             04|               .|      [24]: 4 transition_type 0x4ff-0x500 (1)
0x500|05                                             |.               |      [25]: 5 transition_type 0x500-0x501 (1)
0x500|   04                                          | .              |      [26]: 4 transition_type 0x501-0x502 (1)
0x500|      05                                       |  .             |      [27]: 5 transition_type 0x502-0x503 (1)
0x500|         04                                    |   .            |      [28]: 4 transition_type 0x503-0x504 (1)
0x500|            05                                 |    .           |      [29]: 5 transition_type 0x504-0x505 (1)
0x500|               04                              |     .          |      [30]: 4 transition_type 0x505-0x506 (1)
0x500|                  05                           |      .         |      [31]: 5 transition_type 0x506-0x507 (1)
0x500|                     04                        |       .        |      [32]: 4 transition_type 0x507-0x508 (1)
0x500|                        05                     |        .       |      [33]: 5 transition_type 0x508-0x509 (1)
0x500|                           04                  |         .      |      [34]: 4 transition_type 0x509-0x50a (1)
0x500|                              05               |          .     |      [35]: 5 transition_type 0x50a-0x50b (1)
0x500|                                 04            |           .    |      [36]: 4 transition_type 0x50b-0x50c (1)
0x500|                                    05         |            .   |      [37]: 5 transition_type 0x50c-0x50d (1)
0x500|                                       04      |             .  |      [38]: 4 transition_type 0x50d-0x50e (1)
0x500|                                          05   |              . |      [39]: 5 transition_type 0x50e-0x50f (1)
0x500|                                             04|               .|      [40]: 4 transition_type 0x50f-0x510 (1)
0x510|05                                             |.               |      [41]: 5 transition_type 0x510-0x511 (1)
0x510|   04                                          | .              |      [42]: 4 transition_type 0x511-0x512 (1)
0x510|      05                                       |  .             |      [43]: 5 transition_type 0x512-0x513 (1)
0x510|         04                                    |   .            |      [44]: 4 transition_type 0x513-0x514 (1)
0x510|            05                                 |    .           |      [45]: 5 transition_type 0x514-0x515 (1)
0x510|               04                              |     .          |      [46]: 4 transition_type 0x515-0x516 (1)
0x510|                  05                           |      .         |      [47]: 5 transition_type 0x516-0x517 (1)
0x510|                     04                        |       .        |      [48]: 4 transition_type 0x517-0x518 (1)
0x510|                        05                     |        .       |      [49]: 5 transition_type 0x518-0x519 (1)
0x510|                           04                  |         .      |      [50]: 4 transition_type 0x519-0x51a (1)
0x510|                              05               |          .     |      [51]: 5 transition_type 0x51a-0x51b (1)
0x510|                                 04            |           .    |      [52]: 4 transition_type 0x51b-0x51c (1)
0x510|                                    05         |            .   |      [53]: 5 transition_type 0x51c-0x51d (1)
0x510|                                       04      |             .  |      [54]: 4 transition_type 0x51d-0x51e (1)
0x510|                                          05   |              . |      [55]: 5 transition_type 0x51e-0x51f (1)
0x510|                                             04|               .|      [56]: 4 transition_type 0x51f-0x520 (1)
0x520|05                                             |.               |      [57]: 5 transition_type 0x520-0x521 (1)
0x520|   04                                          | .              |      [58]: 4 transition_type 0x521-0x522 (1)
0x520|      05                                       |  .             |      [59]: 5 transition_type 0x522-0x523 (1)
0x520|         04                                    |   .            |      [60]: 4 transition_type 0x523-0x524 (1)
0x520|            05                                 |    .           |      [61]: 5 transition_type 0x524-0x525 (1)
0x520|               04                              |     .          |      [62]: 4 transition_type 0x525-0x526 (1)
0x520|                  08                           |      .         |      [63]: 8 transition_type 0x526-0x527 (1)
0x520|                     04                        |       .        |      [64]: 4 transition_type 0x527-0x528 (1)
0x520|                        04                     |        .       |      [65]: 4 transition_type 0x528-0x529 (1)
     |                                               |                |    local_time_type_records[0:11]: 0x529-0x56b (66)
     |                                               |                |      [0]{}: local_time_type 0x529-0x52f (6)
0x520|                           00 00 57 0e         |         ..W.   |        utoff: 22286 (valid) 0x529-0x52d (4)
0x520|                                       00      |             .  |        dst: 0 (valid) 0x52d-0x52e (1)
0x520|                                          00   |              . |        idx: 0 (valid) 0x52e-0x52f (1)
     |                                               |                |      [1]{}: local_time_type 0x52f-0x535 (6)
0x520|                                             00|               .|        utoff: 21600 (valid) 0x52f-0x533 (4)
0x530|00 54 60                                       |.T`             |
0x530|         00                                    |   .            |        dst: 0 (valid) 0x533-0x534 (1)
0x530|            04                                 |    .           |        idx: 4 (valid) 0x534-0x535 (1)
     |                                               |                |      [2]{}: local_time_type 0x535-0x53b (6)
0x530|               00 00 70 80                     |     ..p.       |        utoff: 28800 (valid) 0x535-0x539 (4)
0x530|                           01                  |         .      |        dst: 1 (valid) 0x539-0x53a (1)
0x530|                              08               |          .     |        idx: 8 (valid) 0x53a-0x53b (1)
     |                                               |                |      [3]{}: local_time_type 0x53b-0x541 (6)
0x530|                                 00 00 62 70   |           ..bp |        utoff: 25200 (valid) 0x53b-0x53f (4)
0x530|                                             00|               .|        dst: 0 (valid) 0x53f-0x540 (1)
0x540|0c                                             |.               |        idx: 12 (valid) 0x540-0x541 (1)
     |                                               |                |      [4]{}: local_time_type 0x541-0x547 (6)
0x540|   00 00 62 70                                 | ..bp           |        utoff: 25200 (valid) 0x541-0x545 (4)
0x540|               00                              |     .          |        dst: 0 (valid) 0x545-0x546 (1)
0x540|                  0c                           |      .         |        idx: 12 (valid) 0x546-0x547 (1)
     |                                               |                |      [5]{}: local_time_type 0x547-0x54d (6)
0x540|                     00 00 70 80               |       ..p.     |        utoff: 28800 (valid) 0x547-0x54b (4)
0x540|                                 01            |           .    |        dst: 1 (valid) 0x54b-0x54c (1)
0x540|                                    08         |            .   |        idx: 8 (valid) 0x54c-0x54d (1)
     |                                               |                |      [6]{}: local_time_type 0x54d-0x553 (6)
0x540|                                       00 00 62|             ..b|        utoff: 25200 (valid) 0x54d-0x551 (4)
0x550|70                                             |p               |
0x550|   01                                          | .              |        dst: 1 (valid) 0x551-0x552 (1)
0x550|      0c                                       |  .             |        idx: 12 (valid) 0x552-0x553 (1)
     |                                               |                |      [7]{}: local_time_type 0x553-0x559 (6)
0x550|         00 00 54 60                           |   ..T`         |        utoff: 21600 (valid) 0x553-0x557 (4)
0x550|                     00                        |       .        |        dst: 0 (valid) 0x557-0x558 (1)
0x550|                        04                     |        .       |        idx: 4 (valid) 0x558-0x559 (1)
     |                                               |                |      [8]{}: local_time_type 0x559-0x55f (6)
0x550|                           00 00 70 80         |         ..p.   |        utoff: 28800 (valid) 0x559-0x55d (4)
0x550|                                       00      |             .  |        dst: 0 (valid) 0x55d-0x55e (1)
0x550|                                          08   |              . |        idx: 8 (valid) 0x55e-0x55f (1)
     |                                               |                |      [9]{}: local_time_type 0x55f-0x565 (6)
0x550|                                             00|               .|        utoff: 28800 (valid) 0x55f-0x563 (4)
0x560|00 70 80                                       |.p.             |
0x560|         01                                    |   .            |        dst: 1 (valid) 0x563-0x564 (1)
0x560|            08                                 |    .           |        idx: 8 (valid) 0x564-0x565 (1)
     |                                               |                |      [10]{}: local_time_type 0x565-0x56b (6)
0x560|               00 00 62 70                     |     ..bp       |        utoff: 25200 (valid) 0x565-0x569 (4)
0x560|                           00                  |         .      |        dst: 0 (valid) 0x569-0x56a (1)
0x560|                              0c               |          .     |        idx: 12 (valid) 0x56a-0x56b (1)
     |                                               |                |    time_zone_designations[0:4]: 0x56b-0x57b (16)
0x560|                                 4c 4d 54 00   |           LMT. |      [0]: "LMT" time_zone_designation 0x56b-0x56f (4)
0x560|                                             2b|               +|      [1]: "+06" time_zone_designation 0x56f-0x573 (4)
0x570|30 36 00                                       |06.             |
0x570|         2b 30 38 00                           |   +08.         |      [2]: "+08" time_zone_designation 0x573-0x577 (4)
0x570|                     2b 30 37 00               |       +07.     |      [3]: "+07" time_zone_designation 0x577-0x57b (4)
     |                                               |                |    leap_second_records[0:27]: 0x57b-0x6bf (324)
     |                                               |                |      [0]{}: leap_second_record 0x57b-0x587 (12)
0x570|                                 00 00 00 00 04|           .....|        occur: "1972-07-01T00:00:00Z" (78796800) 0x57b-0x583 (8)
0x580|b2 58 00                                       |.X.             |
0x580|         00 00 00 01                           |   ....         |        corr: 1 0x583-0x587 (4)
     |                                               |                |      [1]{}: leap_second_record 0x587-0x593 (12)
0x580|                     00 00 00 00 05 a4 ec 01   |       ........ |        occur: "1973-01-01T00:00:01Z" (94694401) 0x587-0x58f (8)
0x580|                                             00|               .|        corr: 2 0x58f-0x593 (4)
0x590|00 00 02                                       |...             |
     |                                               |                |      [2]{}: leap_second_record 0x593-0x59f (12)
0x590|         00 00 00 00 07 86 1f 82               |   ........     |        occur: "1974-01-01T00:00:02Z" (126230402) 0x593-0x59b (8)
0x590|                                 00 00 00 03   |           .... |        corr: 3 0x59b-0x59f (4)
     |                                               |                |      [3]{}: leap_second_record 0x59f-0x5ab (12)
0x590|                                             00|               .|        occur: "1975-01-01T00:00:03Z" (157766403) 0x59f-0x5a7 (8)
0x5a0|00 00 00 09 67 53 03                           |....gS.         |
0x5a0|                     00 00 00 04               |       ....     |        corr: 4 0x5a7-0x5ab (4)
     |                                               |                |      [4]{}: leap_second_record 0x5ab-0x5b7 (12)
0x5a0|                                 00 00 00 00 0b|           .....|        occur: "1976-01-01T00:00:04Z" (189302404) 0x5ab-0x5b3 (8)
0x5b0|48 86 84                                       |H..             |
0x5b0|         00 00 00 05                           |   ....         |        corr: 5 0x5b3-0x5b7 (4)
     |                                               |                |      [5]{}: leap_second_record 0x5b7-0x5c3 (12)
0x5b0|                     00 00 00 00 0d 2b 0b 85   |       .....+.. |        occur: "1977-01-01T00:00:05Z" (220924805) 0x5b7-0x5bf (8)
0x5b0|                                             00|               .|        corr: 6 0x5bf-0x5c3 (4)
0x5c0|00 00 06                                       |...             |
     |                                               |                |      [6]{}: leap_second_record 0x5c3-0x5cf (12)
0x5c0|         00 00 00 00 0f 0c 3f 06               |   ......?.     |        occur: "1978-01-01T00:00:06Z" (252460806) 0x5c3-0x5cb (8)
0x5c0|                                 00 00 00 07   |           .... |        corr: 7 0x5cb-0x5cf (4)
     |                                               |                |      [7]{}: leap_second_record 0x5cf-0x5db (12)
0x5c0|                                             00|               .|        occur: "1979-01-01T00:00:07Z" (283996807) 0x5cf-0x5d7 (8)
0x5d0|00 00 00 10 ed 72 87                           |.....r.         |
0x5d0|                     00 00 00 08               |       ....     |        corr: 8 0x5d7-0x5db (4)
     |                                               |                |      [8]{}: leap_second_record 0x5db-0x5e7 (12)
0x5d0|                                 00 00 00 00 12|           .....|        occur: "1980-01-01T00:00:08Z" (315532808) 0x5db-0x5e3 (8)
0x5e0|ce a6 08                                       |...             |
0x5e0|         00 00 00 09                           |   ....         |        corr: 9 0x5e3-0x5e7 (4)
     |                                               |                |      [9]{}: leap_second_record 0x5e7-0x5f3 (12)
0x5e0|                     00 00 00 00 15 9f ca 89   |       ........ |        occur: "1981-07-01T00:00:09Z" (362793609) 0x5e7-0x5ef (8)
0x5e0|                                             00|               .|        corr: 10 0x5ef-0x5f3 (4)
0x5f0|00 00 0a                                       |...             |
     |                                               |                |      [10]{}: leap_second_record 0x5f3-0x5ff (12)
0x5f0|         00 00 00 00 17 80 fe 0a               |   ........     |        occur: "1982-07-01T00:00:10Z" (394329610) 0x5f3-0x5fb (8)
0x5f0|                                 00 00 00 0b   |           .... |        corr: 11 0x5fb-0x5ff (4)
     |                                               |                |      [11]{}: leap_second_record 0x5ff-0x60b (12)
0x5f0|                                             00|               .|        occur: "1983-07-01T00:00:11Z" (425865611) 0x5ff-0x607 (8)
0x600|00 00 00 19 62 31 8b                           |....b1.         |
0x600|                     00 00 00 0c               |       ....     |        corr: 12 0x607-0x60b (4)
     |                                               |                |      [12]{}: leap_second_record 0x60b-0x617 (12)
0x600|                                 00 00 00 00 1d|           .....|        occur: "1985-07-01T00:00:12Z" (489024012) 0x60b-0x613 (8)
0x610|25 ea 0c                                       |%..             |
0x610|         00 00 00 0d                           |   ....         |        corr: 13 0x613-0x617 (4)
     |                                               |                |      [13]{}: leap_second_record 0x617-0x623 (12)
0x610|                     00 00 00 00 21 da e5 0d   |       ....!... |        occur: "1988-01-01T00:00:13Z" (567993613) 0x617-0x61f (8)
0x610|                                             00|               .|        corr: 14 0x61f-0x623 (4)
0x620|00 00 0e                                       |...             |
     |                                               |                |      [14]{}: leap_second_record 0x623-0x62f (12)
0x620|         00 00 00 00 25 9e 9d 8e               |   ....%...     |        occur: "1990-01-01T00:00:14Z" (631152014) 0x623-0x62b (8)
0x620|                                 00 00 00 0f   |           .... |        corr: 15 0x62b-0x62f (4)
     |                                               |                |      [15]{}: leap_second_record 0x62f-0x63b (12)
0x620|                                             00|               .|        occur: "1991-01-01T00:00:15Z" (662688015) 0x62f-0x637 (8)
0x630|00 00 00 27 7f d1 0f                           |...'...         |
0x630|                     00 00 00 10               |       ....     |        corr: 16 0x637-0x63b (4)
     |                                               |                |      [16]{}: leap_second_record 0x63b-0x647 (12)
0x630|                                 00 00 00 00 2a|           ....*|        occur: "1992-07-01T00:00:16Z" (709948816) 0x63b-0x643 (8)
0x640|50 f5 90                                       |P..             |
0x640|         00 00 00 11                           |   ....         |        corr: 17 0x643-0x647 (4)
     |                                               |                |      [17]{}: leap_second_record 0x647-0x653 (12)
0x640|                     00 00 00 00 2c 32 29 11   |       ....,2). |        occur: "1993-07-01T00:00:17Z" (741484817) 0x647-0x64f (8)
0x640|                                             00|               .|        corr: 18 0x64f-0x653 (4)
0x650|00 00 12                                       |...             |
     |                                               |                |      [18]{}: leap_second_record 0x653-0x65f (12)
0x650|         00 00 00 00 2e 13 5c 92               |   ......\.     |        occur: "1994-07-01T00:00:18Z" (773020818) 0x653-0x65b (8)
0x650|                                 00 00 00 13   |           .... |        corr: 19 0x65b-0x65f (4)
     |                                               |                |      [19]{}: leap_second_record 0x65f-0x66b (12)
0x650|                                             00|               .|        occur: "1996-01-01T00:00:19Z" (820454419) 0x65f-0x667 (8)
0x660|00 00 00 30 e7 24 13                           |...0.$.         |
0x660|                     00 00 00 14               |       ....     |        corr: 20 0x667-0x66b (4)
     |                                               |                |      [20]{}: leap_second_record 0x66b-0x677 (12)
0x660|                                 00 00 00 00 33|           ....3|        occur: "1997-07-01T00:00:20Z" (867715220) 0x66b-0x673 (8)
0x670|b8 48 94                                       |.H.             |
0x670|         00 00 00 15                           |   ....         |        corr: 21 0x673-0x677 (4)
     |                                               |                |      [21]{}: leap_second_record 0x677-0x683 (12)
0x670|                     00 00 00 00 36 8c 10 15   |       ....6... |        occur: "1999-01-01T00:00:21Z" (915148821) 0x677-0x67f (8)
0x670|                                             00|               .|        corr: 22 0x67f-0x683 (4)
0x680|00 00 16                                       |...             |
     |                                               |                |      [22]{}: leap_second_record 0x683-0x68f (12)
0x680|         00 00 00 00 43 b7 1b 96               |   ....C...     |        occur: "2006-01-01T00:00:22Z" (1136073622) 0x683-0x68b (8)
0x680|                                 00 00 00 17   |           .... |        corr: 23 0x68b-0x68f (4)
     |                                               |                |      [23]{}: leap_second_record 0x68f-0x69b (12)
0x680|                                             00|               .|        occur: "2009-01-01T00:00:23Z" (1230768023) 0x68f-0x697 (8)
0x690|00 00 00 49 5c 07 97                           |...I\..         |
0x690|                     00 00 00 18               |       ....     |        corr: 24 0x697-0x69b (4)
     |                                               |                |      [24]{}: leap_second_record 0x69b-0x6a7 (12)
0x690|                                 00 00 00 00 4f|           ....O|        occur: "2012-07-01T00:00:24Z" (1341100824) 0x69b-0x6a3 (8)
0x6a0|ef 93 18                                       |...             |
0x6a0|         00 00 00 19                           |   ....         |        corr: 25 0x6a3-0x6a7 (4)
     |                                               |                |      [25]{}: leap_second_record 0x6a7-0x6b3 (12)
0x6a0|                     00 00 00 00 55 93 2d 99   |       ....U.-. |        occur: "2015-07-01T00:00:25Z" (1435708825) 0x6a7-0x6af (8)
0x6a0|                                             00|               .|        corr: 26 0x6af-0x6b3 (4)
0x6b0|00 00 1a                                       |...             |
     |                                               |                |      [26]{}: leap_second_record 0x6b3-0x6bf (12)
0x6b0|         00 00 00 00 58 68 46 9a               |   ....XhF.     |        occur: "2017-01-01T00:00:26Z" (1483228826) 0x6b3-0x6bb (8)
0x6b0|                                 00 00 00 1b   |           .... |        corr: 27 0x6bb-0x6bf (4)
     |                                               |                |    standard_wall_indicators[0:11]: 0x6bf-0x6ca (11)
0x6b0|                                             00|               .|      [0]: 0 standard_wall_indicator (valid) 0x6bf-0x6c0 (1)
0x6c0|00                                             |.               |      [1]: 0 standard_wall_indicator (valid) 0x6c0-0x6c1 (1)
0x6c0|   00                                          | .              |      [2]: 0 standard_wall_indicator (valid) 0x6c1-0x6c2 (1)
0x6c0|      00                                       |  .             |      [3]: 0 standard_wall_indicator (valid) 0x6c2-0x6c3 (1)
0x6c0|         01                                    |   .            |      [4]: 1 standard_wall_indicator (valid) 0x6c3-0x6c4 (1)
0x6c0|            01                                 |    .           |      [5]: 1 standard_wall_indicator (valid) 0x6c4-0x6c5 (1)
0x6c0|               01                              |     .          |      [6]: 1 standard_wall_indicator (valid) 0x6c5-0x6c6 (1)
0x6c0|                  01                           |      .         |      [7]: 1 standard_wall_indicator (valid) 0x6c6-0x6c7 (1)
0x6c0|                     01                        |       .        |      [8]: 1 standard_wall_indicator (valid) 0x6c7-0x6c8 (1)
0x6c0|                        01                     |        .       |      [9]: 1 standard_wall_indicator (valid) 0x6c8-0x6c9 (1)
0x6c0|                           01                  |         .      |      [10]: 1 standard_wall_indicator (valid) 0x6c9-0x6ca (1)
     |                                               |                |    ut_local_indicators[0:0]: 0x6ca-0x6ca (0)
     |                                               |                |  footer{}: 0x6ca-0x6cc (2)
0x6c0|                              0a               |          .     |    nl1: 10 (valid) 0x6ca-0x6cb (1)
     |                                               |                |    tz_string: "" 0x6cb-0x6cb (0)
0x6c0|                                 0a|           |           .|   |    nl2: 10 (valid) 0x6cb-0x6cc (1)
