$ fq -d tzif dv Kuching
     |00 01 02 03 04 05 06 07 08 09 0a 0b 0c 0d 0e 0f|0123456789abcdef|.{}: Kuching (tzif) 0x0-0x3f8 (1016)
     |                                               |                |  v1header{}: 0x0-0x2c (44)
0x000|54 5a 69 66                                    |TZif            |    magic: 0x545a6966 (valid) 0x0-0x4 (4)
0x000|            32                                 |    2           |    ver: "2" (0x32) (valid) 0x4-0x5 (1)
0x000|               00 00 00 00 00 00 00 00 00 00 00|     ...........|    reserved: raw bits 0x5-0x14 (15)
0x010|00 00 00 00                                    |....            |
0x010|            00 00 00 00                        |    ....        |    isutcnt: 0 0x14-0x18 (4)
0x010|                        00 00 00 00            |        ....    |    isstdcnt: 0 0x18-0x1c (4)
0x010|                                    00 00 00 1b|            ....|    leapcnt: 27 0x1c-0x20 (4)
0x020|00 00 00 13                                    |....            |    timecnt: 19 0x20-0x24 (4)
0x020|            00 00 00 06                        |    ....        |    typecnt: 6 0x24-0x28 (4)
0x020|                        00 00 00 18            |        ....    |    charcnt: 24 0x28-0x2c (4)
     |                                               |                |  v1datablock{}: 0x2c-0x19f (371)
     |                                               |                |    transition_times[0:19]: 0x2c-0x78 (76)
0x020|                                    ad 8a 06 90|            ....|      [0]: "1926-02-28T16:38:40Z" (-1383463280) transition_time 0x2c-0x30 (4)
0x030|ba 67 47 88                                    |.gG.            |      [1]: "1932-12-31T16:30:00Z" (-1167636600) transition_time 0x30-0x34 (4)
0x030|            bf 7b 27 80                        |    .{'.        |      [2]: "1935-09-13T16:00:00Z" (-1082448000) transition_time 0x34-0x38 (4)
0x030|                        bf f3 1b 50            |        ...P    |      [3]: "1935-12-13T15:40:00Z" (-1074586800) transition_time 0x38-0x3c (4)
0x030|                                    c1 5d ac 80|            .]..|      [4]: "1936-09-13T16:00:00Z" (-1050825600) transition_time 0x3c-0x40 (4)
0x040|c1 d5 a0 50                                    |...P            |      [5]: "1936-12-13T15:40:00Z" (-1042964400) transition_time 0x40-0x44 (4)
0x040|            c3 3e e0 00                        |    .>..        |      [6]: "1937-09-13T16:00:00Z" (-1019289600) transition_time 0x44-0x48 (4)
0x040|                        c3 b6 d3 d0            |        ....    |      [7]: "1937-12-13T15:40:00Z" (-1011428400) transition_time 0x48-0x4c (4)
0x040|                                    c5 20 13 80|            . ..|      [8]: "1938-09-13T16:00:00Z" (-987753600) transition_time 0x4c-0x50 (4)
0x050|c5 98 07 50                                    |...P            |      [9]: "1938-12-13T15:40:00Z" (-979892400) transition_time 0x50-0x54 (4)
0x050|            c7 01 47 00                        |    ..G.        |      [10]: "1939-09-13T16:00:00Z" (-956217600) transition_time 0x54-0x58 (4)
0x050|                        c7 79 3a d0            |        .y:.    |      [11]: "1939-12-13T15:40:00Z" (-948356400) transition_time 0x58-0x5c (4)
0x050|                                    c8 e3 cc 00|            ....|      [12]: "1940-09-13T16:00:00Z" (-924595200) transition_time 0x5c-0x60 (4)
0x060|c9 5b bf d0                                    |.[..            |      [13]: "1940-12-13T15:40:00Z" (-916734000) transition_time 0x60-0x64 (4)
0x060|            ca c4 ff 80                        |    ....        |      [14]: "1941-09-13T16:00:00Z" (-893059200) transition_time 0x64-0x68 (4)
0x060|                        cb 3c f3 50            |        .<.P    |      [15]: "1941-12-13T15:40:00Z" (-885198000) transition_time 0x68-0x6c (4)
0x060|                                    cb 91 58 00|            ..X.|      [16]: "1942-02-15T16:00:00Z" (-879667200) transition_time 0x6c-0x70 (4)
0x070|d2 48 6d f0                                    |.Hm.            |      [17]: "1945-09-11T15:00:00Z" (-767005200) transition_time 0x70-0x74 (4)
0x070|            64 9b 78 1b                        |    d.x.        |      [18]: "2023-06-28T00:00:27Z" (1687910427) transition_time 0x74-0x78 (4)
     |                                               |                |    transition_types[0:19]: 0x78-0x8b (19)
0x070|                        01                     |        .       |      [0]: 1 transition_type 0x78-0x79 (1)
0x070|                           03                  |         .      |      [1]: 3 transition_type 0x79-0x7a (1)
0x070|                              02               |          .     |      [2]: 2 transition_type 0x7a-0x7b (1)
0x070|                                 03            |           .    |      [3]: 3 transition_type 0x7b-0x7c (1)
0x070|                                    02         |            .   |      [4]: 2 transition_type 0x7c-0x7d (1)
0x070|                                       03      |             .  |      [5]: 3 transition_type 0x7d-0x7e (1)
0x070|                                          02   |              . |      [6]: 2 transition_type 0x7e-0x7f (1)
0x070|                                             03|               .|      [7]: 3 transition_type 0x7f-0x80 (1)
0x080|02                                             |.               |      [8]: 2 transition_type 0x80-0x81 (1)
0x080|   03                                          | .              |      [9]: 3 transition_type 0x81-0x82 (1)
0x080|      02                                       |  .             |      [10]: 2 transition_type 0x82-0x83 (1)
0x080|         03                                    |   .            |      [11]: 3 transition_type 0x83-0x84 (1)
0x080|            02                                 |    .           |      [12]: 2 transition_type 0x84-0x85 (1)
0x080|               03                              |     .          |      [13]: 3 transition_type 0x85-0x86 (1)
0x080|                  02                           |      .         |      [14]: 2 transition_type 0x86-0x87 (1)
0x080|                     03                        |       .        |      [15]: 3 transition_type 0x87-0x88 (1)
0x080|                        04                     |        .       |      [16]: 4 transition_type 0x88-0x89 (1)
0x080|                           03                  |         .      |      [17]: 3 transition_type 0x89-0x8a (1)
0x080|                              03               |          .     |      [18]: 3 transition_type 0x8a-0x8b (1)
     |                                               |                |    local_time_type_records[0:6]: 0x8b-0xaf (36)
     |                                               |                |      [0]{}: local_time_type 0x8b-0x91 (6)
0x080|                                 00 00 67 70   |           ..gp |        utoff: 26480 (valid) 0x8b-0x8f (4)
0x080|                                             00|               .|        dst: 0 (valid) 0x8f-0x90 (1)
0x090|00                                             |.               |        idx: 0 (valid) 0x90-0x91 (1)
     |                                               |                |      [1]{}: local_time_type 0x91-0x97 (6)
0x090|   00 00 69 78                                 | ..ix           |        utoff: 27000 (valid) 0x91-0x95 (4)
0x090|               00                              |     .          |        dst: 0 (valid) 0x95-0x96 (1)
0x090|                  04                           |      .         |        idx: 4 (valid) 0x96-0x97 (1)
     |                                               |                |      [2]{}: local_time_type 0x97-0x9d (6)
0x090|                     00 00 75 30               |       ..u0     |        utoff: 30000 (valid) 0x97-0x9b (4)
0x090|                                 01            |           .    |        dst: 1 (valid) 0x9b-0x9c (1)
0x090|                                    0a         |            .   |        idx: 10 (valid) 0x9c-0x9d (1)
     |                                               |                |      [3]{}: local_time_type 0x9d-0xa3 (6)
0x090|                                       00 00 70|             ..p|        utoff: 28800 (valid) 0x9d-0xa1 (4)
0x0a0|80                                             |.               |
0x0a0|   00                                          | .              |        dst: 0 (valid) 0xa1-0xa2 (1)
0x0a0|      10                                       |  .             |        idx: 16 (valid) 0xa2-0xa3 (1)
     |                                               |                |      [4]{}: local_time_type 0xa3-0xa9 (6)
0x0a0|         00 00 7e 90                           |   ..~.         |        utoff: 32400 (valid) 0xa3-0xa7 (4)
0x0a0|                     00                        |       .        |        dst: 0 (valid) 0xa7-0xa8 (1)
0x0a0|                        14                     |        .       |        idx: 20 (valid) 0xa8-0xa9 (1)
     |                                               |                |      [5]{}: local_time_type 0xa9-0xaf (6)
0x0a0|                           00 00 70 80         |         ..p.   |        utoff: 28800 (valid) 0xa9-0xad (4)
0x0a0|                                       00      |             .  |        dst: 0 (valid) 0xad-0xae (1)
0x0a0|                                          10   |              . |        idx: 16 (valid) 0xae-0xaf (1)
     |                                               |                |    time_zone_designations[0:5]: 0xaf-0xc7 (24)
0x0a0|                                             4c|               L|      [0]: "LMT" time_zone_designation 0xaf-0xb3 (4)
0x0b0|4d 54 00                                       |MT.             |
0x0b0|         2b 30 37 33 30 00                     |   +0730.       |      [1]: "+0730" time_zone_designation 0xb3-0xb9 (6)
0x0b0|                           2b 30 38 32 30 00   |         +0820. |      [2]: "+0820" time_zone_designation 0xb9-0xbf (6)
0x0b0|                                             2b|               +|      [3]: "+08" time_zone_designation 0xbf-0xc3 (4)
0x0c0|30 38 00                                       |08.             |
0x0c0|         2b 30 39 00                           |   +09.         |      [4]: "+09" time_zone_designation 0xc3-0xc7 (4)
     |                                               |                |    leap_second_records[0:27]: 0xc7-0x19f (216)
     |                                               |                |      [0]{}: leap_second_record 0xc7-0xcf (8)
0x0c0|                     04 b2 58 00               |       ..X.     |        occur: "1972-07-01T00:00:00Z" (78796800) 0xc7-0xcb (4)
0x0c0|                                 00 00 00 01   |           .... |        corr: 1 0xcb-0xcf (4)
     |                                               |                |      [1]{}: leap_second_record 0xcf-0xd7 (8)
0x0c0|                                             05|               .|        occur: "1973-01-01T00:00:01Z" (94694401) 0xcf-0xd3 (4)
0x0d0|a4 ec 01                                       |...             |
0x0d0|         00 00 00 02                           |   ....         |        corr: 2 0xd3-0xd7 (4)
     |                                               |                |      [2]{}: leap_second_record 0xd7-0xdf (8)
0x0d0|                     07 86 1f 82               |       ....     |        occur: "1974-01-01T00:00:02Z" (126230402) 0xd7-0xdb (4)
0x0d0|                                 00 00 00 03   |           .... |        corr: 3 0xdb-0xdf (4)
     |                                               |                |      [3]{}: leap_second_record 0xdf-0xe7 (8)
0x0d0|                                             09|               .|        occur: "1975-01-01T00:00:03Z" (157766403) 0xdf-0xe3 (4)
0x0e0|67 53 03                                       |gS.             |
0x0e0|         00 00 00 04                           |   ....         |        corr: 4 0xe3-0xe7 (4)
     |                                               |                |      [4]{}: leap_second_record 0xe7-0xef (8)
0x0e0|                     0b 48 86 84               |       .H..     |        occur: "1976-01-01T00:00:04Z" (189302404) 0xe7-0xeb (4)
0x0e0|                                 00 00 00 05   |           .... |        corr: 5 0xeb-0xef (4)
     |                                               |                |      [5]{}: leap_second_record 0xef-0xf7 (8)
0x0e0|                                             0d|               .|        occur: "1977-01-01T00:00:05Z" (220924805) 0xef-0xf3 (4)
0x0f0|2b 0b 85                                       |+..             |
0x0f0|         00 00 00 06                           |   ....         |        corr: 6 0xf3-0xf7 (4)
     |                                               |                |      [6]{}: leap_second_record 0xf7-0xff (8)
0x0f0|                     0f 0c 3f 06               |       ..?.     |        occur: "1978-01-01T00:00:06Z" (252460806) 0xf7-0xfb (4)
0x0f0|                                 00 00 00 07   |           .... |        corr: 7 0xfb-0xff (4)
     |                                               |                |      [7]{}: leap_second_record 0xff-0x107 (8)
0x0f0|                                             10|               .|        occur: "1979-01-01T00:00:07Z" (283996807) 0xff-0x103 (4)
0x100|ed 72 87                                       |.r.             |
0x100|         00 00 00 08                           |   ....         |        corr: 8 0x103-0x107 (4)
     |                                               |                |      [8]{}: leap_second_record 0x107-0x10f (8)
0x100|                     12 ce a6 08               |       ....     |        occur: "1980-01-01T00:00:08Z" (315532808) 0x107-0x10b (4)
0x100|                                 00 00 00 09   |           .... |        corr: 9 0x10b-0x10f (4)
     |                                               |                |      [9]{}: leap_second_record 0x10f-0x117 (8)
0x100|                                             15|               .|        occur: "1981-07-01T00:00:09Z" (362793609) 0x10f-0x113 (4)
0x110|9f ca 89                                       |...             |
0x110|         00 00 00 0a                           |   ....         |        corr: 10 0x113-0x117 (4)
     |                                               |                |      [10]{}: leap_second_record 0x117-0x11f (8)
0x110|                     17 80 fe 0a               |       ....     |        occur: "1982-07-01T00:00:10Z" (394329610) 0x117-0x11b (4)
0x110|                                 00 00 00 0b   |           .... |        corr: 11 0x11b-0x11f (4)
     |                                               |                |      [11]{}: leap_second_record 0x11f-0x127 (8)
0x110|                                             19|               .|        occur: "1983-07-01T00:00:11Z" (425865611) 0x11f-0x123 (4)
0x120|62 31 8b                                       |b1.             |
0x120|         00 00 00 0c                           |   ....         |        corr: 12 0x123-0x127 (4)
     |                                               |                |      [12]{}: leap_second_record 0x127-0x12f (8)
0x120|                     1d 25 ea 0c               |       .%..     |        occur: "1985-07-01T00:00:12Z" (489024012) 0x127-0x12b (4)
0x120|                                 00 00 00 0d   |           .... |        corr: 13 0x12b-0x12f (4)
     |                                               |                |      [13]{}: leap_second_record 0x12f-0x137 (8)
0x120|                                             21|               !|        occur: "1988-01-01T00:00:13Z" (567993613) 0x12f-0x133 (4)
0x130|da e5 0d                                       |...             |
0x130|         00 00 00 0e                           |   ....         |        corr: 14 0x133-0x137 (4)
     |                                               |                |      [14]{}: leap_second_record 0x137-0x13f (8)
0x130|                     25 9e 9d 8e               |       %...     |        occur: "1990-01-01T00:00:14Z" (631152014) 0x137-0x13b (4)
0x130|                                 00 00 00 0f   |           .... |        corr: 15 0x13b-0x13f (4)
     |                                               |                |      [15]{}: leap_second_record 0x13f-0x147 (8)
0x130|                                             27|               '|        occur: "1991-01-01T00:00:15Z" (662688015) 0x13f-0x143 (4)
0x140|7f d1 0f                                       |...             |
0x140|         00 00 00 10                           |   ....         |        corr: 16 0x143-0x147 (4)
     |                                               |                |      [16]{}: leap_second_record 0x147-0x14f (8)
0x140|                     2a 50 f5 90               |       *P..     |        occur: "1992-07-01T00:00:16Z" (709948816) 0x147-0x14b (4)
0x140|                                 00 00 00 11   |           .... |        corr: 17 0x14b-0x14f (4)
     |                                               |                |      [17]{}: leap_second_record 0x14f-0x157 (8)
0x140|                                             2c|               ,|        occur: "1993-07-01T00:00:17Z" (741484817) 0x14f-0x153 (4)
0x150|32 29 11                                       |2).             |
0x150|         00 00 00 12                           |   ....         |        corr: 18 0x153-0x157 (4)
     |                                               |                |      [18]{}: leap_second_record 0x157-0x15f (8)
0x150|                     2e 13 5c 92               |       ..\.     |        occur: "1994-07-01T00:00:18Z" (773020818) 0x157-0x15b (4)
0x150|                                 00 00 00 13   |           .... |        corr: 19 0x15b-0x15f (4)
     |                                               |                |      [19]{}: leap_second_record 0x15f-0x167 (8)
0x150|                                             30|               0|        occur: "1996-01-01T00:00:19Z" (820454419) 0x15f-0x163 (4)
0x160|e7 24 13                                       |.$.             |
0x160|         00 00 00 14                           |   ....         |        corr: 20 0x163-0x167 (4)
     |                                               |                |      [20]{}: leap_second_record 0x167-0x16f (8)
0x160|                     33 b8 48 94               |       3.H.     |        occur: "1997-07-01T00:00:20Z" (867715220) 0x167-0x16b (4)
0x160|                                 00 00 00 15   |           .... |        corr: 21 0x16b-0x16f (4)
     |                                               |                |      [21]{}: leap_second_record 0x16f-0x177 (8)
0x160|                                             36|               6|        occur: "1999-01-01T00:00:21Z" (915148821) 0x16f-0x173 (4)
0x170|8c 10 15                                       |...             |
0x170|         00 00 00 16                           |   ....         |        corr: 22 0x173-0x177 (4)
     |                                               |                |      [22]{}: leap_second_record 0x177-0x17f (8)
0x170|                     43 b7 1b 96               |       C...     |        occur: "2006-01-01T00:00:22Z" (1136073622) 0x177-0x17b (4)
0x170|                                 00 00 00 17   |           .... |        corr: 23 0x17b-0x17f (4)
     |                                               |                |      [23]{}: leap_second_record 0x17f-0x187 (8)
0x170|                                             49|               I|        occur: "2009-01-01T00:00:23Z" (1230768023) 0x17f-0x183 (4)
0x180|5c 07 97                                       |\..             |
0x180|         00 00 00 18                           |   ....         |        corr: 24 0x183-0x187 (4)
     |                                               |                |      [24]{}: leap_second_record 0x187-0x18f (8)
0x180|                     4f ef 93 18               |       O...     |        occur: "2012-07-01T00:00:24Z" (1341100824) 0x187-0x18b (4)
0x180|                                 00 00 00 19   |           .... |        corr: 25 0x18b-0x18f (4)
     |                                               |                |      [25]{}: leap_second_record 0x18f-0x197 (8)
0x180|                                             55|               U|        occur: "2015-07-01T00:00:25Z" (1435708825) 0x18f-0x193 (4)
0x190|93 2d 99                                       |.-.             |
0x190|         00 00 00 1a                           |   ....         |        corr: 26 0x193-0x197 (4)
     |                                               |                |      [26]{}: leap_second_record 0x197-0x19f (8)
0x190|                     58 68 46 9a               |       XhF.     |        occur: "2017-01-01T00:00:26Z" (1483228826) 0x197-0x19b (4)
0x190|                                 00 00 00 1b   |           .... |        corr: 27 0x19b-0x19f (4)
     |                                               |                |    standard_wall_indicators[0:0]: 0x19f-0x19f (0)
     |                                               |                |    ut_local_indicators[0:0]: 0x19f-0x19f (0)
     |                                               |                |  v2plusheader{}: 0x19f-0x1cb (44)
0x190|                                             54|               T|    magic: 0x545a6966 (valid) 0x19f-0x1a3 (4)
0x1a0|5a 69 66                                       |Zif             |
0x1a0|         32                                    |   2            |    ver: "2" (0x32) (valid) 0x1a3-0x1a4 (1)
0x1a0|            00 00 00 00 00 00 00 00 00 00 00 00|    ............|    reserved: raw bits 0x1a4-0x1b3 (15)
0x1b0|00 00 00                                       |...             |
0x1b0|         00 00 00 00                           |   ....         |    isutcnt: 0 0x1b3-0x1b7 (4)
0x1b0|                     00 00 00 00               |       ....     |    isstdcnt: 0 0x1b7-0x1bb (4)
0x1b0|                                 00 00 00 1b   |           .... |    leapcnt: 27 0x1bb-0x1bf (4)
0x1b0|                                             00|               .|    timecnt: 19 0x1bf-0x1c3 (4)
0x1c0|00 00 13                                       |...             |
0x1c0|         00 00 00 06                           |   ....         |    typecnt: 6 0x1c3-0x1c7 (4)
0x1c0|                     00 00 00 18               |       ....     |    charcnt: 24 0x1c7-0x1cb (4)
     |                                               |                |  v2plusdatablock{}: 0x1cb-0x3f6 (555)
     |                                               |                |    transition_times[0:19]: 0x1cb-0x263 (152)
0x1c0|                                 ff ff ff ff ad|           .....|      [0]: "1926-02-28T16:38:40Z" (-1383463280) transition_time 0x1cb-0x1d3 (8)
0x1d0|8a 06 90                                       |...             |
0x1d0|         ff ff ff ff ba 67 47 88               |   .....gG.     |      [1]: "1932-12-31T16:30:00Z" (-1167636600) transition_time 0x1d3-0x1db (8)
0x1d0|                                 ff ff ff ff bf|           .....|      [2]: "1935-09-13T16:00:00Z" (-1082448000) transition_time 0x1db-0x1e3 (8)
0x1e0|7b 27 80                                       |{'.             |
0x1e0|         ff ff ff ff bf f3 1b 50               |   .......P     |      [3]: "1935-12-13T15:40:00Z" (-1074586800) transition_time 0x1e3-0x1eb (8)
0x1e0|                                 ff ff ff ff c1|           .....|      [4]: "1936-09-13T16:00:00Z" (-1050825600) transition_time 0x1eb-0x1f3 (8)
0x1f0|5d ac 80                                       |]..             |
0x1f0|         ff ff ff ff c1 d5 a0 50               |   .......P     |      [5]: "1936-12-13T15:40:00Z" (-1042964400) transition_time 0x1f3-0x1fb (8)
0x1f0|                                 ff ff ff ff c3|           .....|      [6]: "1937-09-13T16:00:00Z" (-1019289600) transition_time 0x1fb-0x203 (8)
0x200|3e e0 00                                       |>..             |
0x200|         ff ff ff ff c3 b6 d3 d0               |   ........     |      [7]: "1937-12-13T15:40:00Z" (-1011428400) transition_time 0x203-0x20b (8)
0x200|                                 ff ff ff ff c5|           .....|      [8]: "1938-09-13T16:00:00Z" (-987753600) transition_time 0x20b-0x213 (8)
0x210|20 13 80                                       | ..             |
0x210|         ff ff ff ff c5 98 07 50               |   .......P     |      [9]: "1938-12-13T15:40:00Z" (-979892400) transition_time 0x213-0x21b (8)
0x210|                                 ff ff ff ff c7|           .....|      [10]: "1939-09-13T16:00:00Z" (-956217600) transition_time 0x21b-0x223 (8)
0x220|01 47 00                                       |.G.             |
0x220|         ff ff ff ff c7 79 3a d0               |   .....y:.     |      [11]: "1939-12-13T15:40:00Z" (-948356400) transition_time 0x223-0x22b (8)
0x220|                                 ff ff ff ff c8|           .....|      [12]: "1940-09-13T16:00:00Z" (-924595200) transition_time 0x22b-0x233 (8)
0x230|e3 cc 00                                       |...             |
0x230|         ff ff ff ff c9 5b bf d0               |   .....[..     |      [13]: "1940-12-13T15:40:00Z" (-916734000) transition_time 0x233-0x23b (8)
0x230|                                 ff ff ff ff ca|           .....|      [14]: "1941-09-13T16:00:00Z" (-893059200) transition_time 0x23b-0x243 (8)
0x240|c4 ff 80                                       |...             |
0x240|         ff ff ff ff cb 3c f3 50               |   .....<.P     |      [15]: "1941-12-13T15:40:00Z" (-885198000) transition_time 0x243-0x24b (8)
0x240|                                 ff ff ff ff cb|           .....|      [16]: "1942-02-15T16:00:00Z" (-879667200) transition_time 0x24b-0x253 (8)
0x250|91 58 00                                       |.X.             |
0x250|         ff ff ff ff d2 48 6d f0               |   .....Hm.     |      [17]: "1945-09-11T15:00:00Z" (-767005200) transition_time 0x253-0x25b (8)
0x250|                                 00 00 00 00 64|           ....d|      [18]: "2023-06-28T00:00:27Z" (1687910427) transition_time 0x25b-0x263 (8)
0x260|9b 78 1b                                       |.x.             |
     |                                               |                |    transition_types[0:19]: 0x263-0x276 (19)
0x260|         01                                    |   .            |      [0]: 1 transition_type 0x263-0x264 (1)
0x260|            03                                 |    .           |      [1]: 3 transition_type 0x264-0x265 (1)
0x260|               02                              |     .          |      [2]: 2 transition_type 0x265-0x266 (1)
0x260|                  03                           |      .         |      [3]: 3 transition_type 0x266-0x267 (1)
0x260|                     02                        |       .        |      [4]: 2 transition_type 0x267-0x268 (1)
0x260|                        03                     |        .       |      [5]: 3 transition_type 0x268-0x269 (1)
0x260|                           02                  |         .      |      [6]: 2 transition_type 0x269-0x26a (1)
0x260|                              03               |          .     |      [7]: 3 transition_type 0x26a-0x26b (1)
0x260|                                 02            |           .    |      [8]: 2 transition_type 0x26b-0x26c (1)
0x260|                                    03         |            .   |      [9]: 3 transition_type 0x26c-0x26d (1)
0x260|                                       02      |             .  |      [10]: 2 transition_type 0x26d-0x26e (1)
0x260|                                          03   |              . |      [11]: 3 transition_type 0x26e-0x26f (1)
0x260|                                             02|               .|      [12]: 2 transition_type 0x26f-0x270 (1)
0x270|03                                             |.               |      [13]: 3 transition_type 0x270-0x271 (1)
0x270|   02                                          | .              |      [14]: 2 transition_type 0x271-0x272 (1)
0x270|      03                                       |  .             |      [15]: 3 transition_type 0x272-0x273 (1)
0x270|         04                                    |   .            |      [16]: 4 transition_type 0x273-0x274 (1)
0x270|            03                                 |    .           |      [17]: 3 transition_type 0x274-0x275 (1)
0x270|               03                              |     .          |      [18]: 3 transition_type 0x275-0x276 (1)
     |                                               |                |    local_time_type_records[0:6]: 0x276-0x29a (36)
     |                                               |                |      [0]{}: local_time_type 0x276-0x27c (6)
0x270|                  00 00 67 70                  |      ..gp      |        utoff: 26480 (valid) 0x276-0x27a (4)
0x270|                              00               |          .     |        dst: 0 (valid) 0x27a-0x27b (1)
0x270|                                 00            |           .    |        idx: 0 (valid) 0x27b-0x27c (1)
     |                                               |                |      [1]{}: local_time_type 0x27c-0x282 (6)
0x270|                                    00 00 69 78|            ..ix|        utoff: 27000 (valid) 0x27c-0x280 (4)
0x280|00                                             |.               |        dst: 0 (valid) 0x280-0x281 (1)
0x280|   04                                          | .              |        idx: 4 (valid) 0x281-0x282 (1)
     |                                               |                |      [2]{}: local_time_type 0x282-0x288 (6)
0x280|      00 00 75 30                              |  ..u0          |        utoff: 30000 (valid) 0x282-0x286 (4)
0x280|                  01                           |      .         |        dst: 1 (valid) 0x286-0x287 (1)
0x280|                     0a                        |       .        |        idx: 10 (valid) 0x287-0x288 (1)
     |                                               |                |      [3]{}: local_time_type 0x288-0x28e (6)
0x280|                        00 00 70 80            |        ..p.    |        utoff: 28800 (valid) 0x288-0x28c (4)
0x280|                                    00         |            .   |        dst: 0 (valid) 0x28c-0x28d (1)
0x280|                                       10      |             .  |        idx: 16 (valid) 0x28d-0x28e (1)
     |                                               |                |      [4]{}: local_time_type 0x28e-0x294 (6)
0x280|                                          00 00|              ..|        utoff: 32400 (valid) 0x28e-0x292 (4)
0x290|7e 90                                          |~.              |
0x290|      00                                       |  .             |        dst: 0 (valid) 0x292-0x293 (1)
0x290|         14                                    |   .            |        idx: 20 (valid) 0x293-0x294 (1)
     |                                               |                |      [5]{}: local_time_type 0x294-0x29a (6)
0x290|            00 00 70 80                        |    ..p.        |        utoff: 28800 (valid) 0x294-0x298 (4)
0x290|                        00                     |        .       |        dst: 0 (valid) 0x298-0x299 (1)
0x290|                           10                  |         .      |        idx: 16 (valid) 0x299-0x29a (1)
     |                                               |                |    time_zone_designations[0:5]: 0x29a-0x2b2 (24)
0x290|                              4c 4d 54 00      |          LMT.  |      [0]: "LMT" time_zone_designation 0x29a-0x29e (4)
0x290|                                          2b 30|              +0|      [1]: "+0730" time_zone_designation 0x29e-0x2a4 (6)
0x2a0|37 33 30 00                                    |730.            |
0x2a0|            2b 30 38 32 30 00                  |    +0820.      |      [2]: "+0820" time_zone_designation 0x2a4-0x2aa (6)
0x2a0|                              2b 30 38 00      |          +08.  |      [3]: "+08" time_zone_designation 0x2aa-0x2ae (4)
0x2a0|                                          2b 30|              +0|      [4]: "+09" time_zone_designation 0x2ae-0x2b2 (4)
0x2b0|39 00                                          |9.              |
     |                                               |                |    leap_second_records[0:27]: 0x2b2-0x3f6 (324)
     |                                               |                |      [0]{}: leap_second_record 0x2b2-0x2be (12)
0x2b0|      00 00 00 00 04 b2 58 00                  |  ......X.      |        occur: "1972-07-01T00:00:00Z" (78796800) 0x2b2-0x2ba (8)
0x2b0|                              00 00 00 01      |          ....  |        corr: 1 0x2ba-0x2be (4)
     |                                               |                |      [1]{}: leap_second_record 0x2be-0x2ca (12)
0x2b0|                                          00 00|              ..|        occur: "1973-01-01T00:00:01Z" (94694401) 0x2be-0x2c6 (8)
0x2c0|00 00 05 a4 ec 01                              |......          |
0x2c0|                  00 00 00 02                  |      ....      |        corr: 2 0x2c6-0x2ca (4)
     |                                               |                |      [2]{}: leap_second_record 0x2ca-0x2d6 (12)
0x2c0|                              00 00 00 00 07 86|          ......|        occur: "1974-01-01T00:00:02Z" (126230402) 0x2ca-0x2d2 (8)
0x2d0|1f 82                                          |..              |
0x2d0|      00 00 00 03                              |  ....          |        corr: 3 0x2d2-0x2d6 (4)
     |                                               |                |      [3]{}: leap_second_record 0x2d6-0x2e2 (12)
0x2d0|                  00 00 00 00 09 67 53 03      |      .....gS.  |        occur: "1975-01-01T00:00:03Z" (157766403) 0x2d6-0x2de (8)
0x2d0|                                          00 00|              ..|        corr: 4 0x2de-0x2e2 (4)
0x2e0|00 04                                          |..              |
     |                                               |                |      [4]{}: leap_second_record 0x2e2-0x2ee (12)
0x2e0|      00 00 00 00 0b 48 86 84                  |  .....H..      |        occur: "1976-01-01T00:00:04Z" (189302404) 0x2e2-0x2ea (8)
0x2e0|                              00 00 00 05      |          ....  |        corr: 5 0x2ea-0x2ee (4)
     |                                               |                |      [5]{}: leap_second_record 0x2ee-0x2fa (12)
0x2e0|                                          00 00|              ..|        occur: "1977-01-01T00:00:05Z" (220924805) 0x2ee-0x2f6 (8)
0x2f0|00 00 0d 2b 0b 85                              |...+..          |
0x2f0|                  00 00 00 06                  |      ....      |        corr: 6 0x2f6-0x2fa (4)
     |                                               |                |      [6]{}: leap_second_record 0x2fa-0x306 (12)
0x2f0|                              00 00 00 00 0f 0c|          ......|        occur: "1978-01-01T00:00:06Z" (252460806) 0x2fa-0x302 (8)
0x300|3f 06                                          |?.              |
0x300|      00 00 00 07                              |  ....          |        corr: 7 0x302-0x306 (4)
     |                                               |                |      [7]{}: leap_second_record 0x306-0x312 (12)
0x300|                  00 00 00 00 10 ed 72 87      |      ......r.  |        occur: "1979-01-01T00:00:07Z" (283996807) 0x306-0x30e (8)
0x300|                                          00 00|              ..|        corr: 8 0x30e-0x312 (4)
0x310|00 08                                          |..              |
     |                                               |                |      [8]{}: leap_second_record 0x312-0x31e (12)
0x310|      00 00 00 00 12 ce a6 08                  |  ........      |        occur: "1980-01-01T00:00:08Z" (315532808) 0x312-0x31a (8)
0x310|                              00 00 00 09      |          ....  |        corr: 9 0x31a-0x31e (4)
     |                                               |                |      [9]{}: leap_second_record 0x31e-0x32a (12)
0x310|                                          00 00|              ..|        occur: "1981-07-01T00:00:09Z" (362793609) 0x31e-0x326 (8)
0x320|00 00 15 9f ca 89                              |......          |
0x320|                  00 00 00 0a                  |      ....      |        corr: 10 0x326-0x32a (4)
     |                                               |                |      [10]{}: leap_second_record 0x32a-0x336 (12)
0x320|                              00 00 00 00 17 80|          ......|        occur: "1982-07-01T00:00:10Z" (394329610) 0x32a-0x332 (8)
0x330|fe 0a                                          |..              |
0x330|      00 00 00 0b                              |  ....          |        corr: 11 0x332-0x336 (4)
     |                                               |                |      [11]{}: leap_second_record 0x336-0x342 (12)
0x330|                  00 00 00 00 19 62 31 8b      |      .....b1.  |        occur: "1983-07-01T00:00:11Z" (425865611) 0x336-0x33e (8)
0x330|                                          00 00|              ..|        corr: 12 0x33e-0x342 (4)
0x340|00 0c                                          |..              |
     |                                               |                |      [12]{}: leap_second_record 0x342-0x34e (12)
0x340|      00 00 00 00 1d 25 ea 0c                  |  .....%..      |        occur: "1985-07-01T00:00:12Z" (489024012) 0x342-0x34a (8)
0x340|                              00 00 00 0d      |          ....  |        corr: 13 0x34a-0x34e (4)
     |                                               |                |      [13]{}: leap_second_record 0x34e-0x35a (12)
0x340|                                          00 00|              ..|        occur: "1988-01-01T00:00:13Z" (567993613) 0x34e-0x356 (8)
0x350|00 00 21 da e5 0d                              |..!...          |
0x350|                  00 00 00 0e                  |      ....      |        corr: 14 0x356-0x35a (4)
     |                                               |                |      [14]{}: leap_second_record 0x35a-0x366 (12)
0x350|                              00 00 00 00 25 9e|          ....%.|        occur: "1990-01-01T00:00:14Z" (631152014) 0x35a-0x362 (8)
0x360|9d 8e                                          |..              |
0x360|      00 00 00 0f                              |  ....          |        corr: 15 0x362-0x366 (4)
     |                                               |                |      [15]{}: leap_second_record 0x366-0x372 (12)
0x360|                  00 00 00 00 27 7f d1 0f      |      ....'...  |        occur: "1991-01-01T00:00:15Z" (662688015) 0x366-0x36e (8)
0x360|                                          00 00|              ..|        corr: 16 0x36e-0x372 (4)
0x370|00 10                                          |..              |
     |                                               |                |      [16]{}: leap_second_record 0x372-0x37e (12)
0x370|      00 00 00 00 2a 50 f5 90                  |  ....*P..      |        occur: "1992-07-01T00:00:16Z" (709948816) 0x372-0x37a (8)
0x370|                              00 00 00 11      |          ....  |        corr: 17 0x37a-0x37e (4)
     |                                               |                |      [17]{}: leap_second_record 0x37e-0x38a (12)
0x370|                                          00 00|              ..|        occur: "1993-07-01T00:00:17Z" (741484817) 0x37e-0x386 (8)
0x380|00 00 2c 32 29 11                              |..,2).          |
0x380|                  00 00 00 12                  |      ....      |        corr: 18 0x386-0x38a (4)
     |                                               |                |      [18]{}: leap_second_record 0x38a-0x396 (12)
0x380|                              00 00 00 00 2e 13|          ......|        occur: "1994-07-01T00:00:18Z" (773020818) 0x38a-0x392 (8)
0x390|5c 92                                          |\.              |
0x390|      00 00 00 13                              |  ....          |        corr: 19 0x392-0x396 (4)
     |                                               |                |      [19]{}: leap_second_record 0x396-0x3a2 (12)
0x390|                  00 00 00 00 30 e7 24 13      |      ....0.$.  |        occur: "1996-01-01T00:00:19Z" (820454419) 0x396-0x39e (8)
0x390|                                          00 00|              ..|        corr: 20 0x39e-0x3a2 (4)
0x3a0|00 14                                          |..              |
     |                                               |                |      [20]{}: leap_second_record 0x3a2-0x3ae (12)
0x3a0|      00 00 00 00 33 b8 48 94                  |  ....3.H.      |        occur: "1997-07-01T00:00:20Z" (867715220) 0x3a2-0x3aa (8)
0x3a0|                              00 00 00 15      |          ....  |        corr: 21 0x3aa-0x3ae (4)
     |                                               |                |      [21]{}: leap_second_record 0x3ae-0x3ba (12)
0x3a0|                                          00 00|              ..|        occur: "1999-01-01T00:00:21Z" (915148821) 0x3ae-0x3b6 (8)
0x3b0|00 00 36 8c 10 15                              |..6...          |
0x3b0|                  00 00 00 16                  |      ....      |        corr: 22 0x3b6-0x3ba (4)
     |                                               |                |      [22]{}: leap_second_record 0x3ba-0x3c6 (12)
0x3b0|                              00 00 00 00 43 b7|          ....C.|        occur: "2006-01-01T00:00:22Z" (1136073622) 0x3ba-0x3c2 (8)
0x3c0|1b 96                                          |..              |
0x3c0|      00 00 00 17                              |  ....          |        corr: 23 0x3c2-0x3c6 (4)
     |                                               |                |      [23]{}: leap_second_record 0x3c6-0x3d2 (12)
0x3c0|                  00 00 00 00 49 5c 07 97      |      ....I\..  |        occur: "2009-01-01T00:00:23Z" (1230768023) 0x3c6-0x3ce (8)
0x3c0|                                          00 00|              ..|        corr: 24 0x3ce-0x3d2 (4)
0x3d0|00 18                                          |..              |
     |                                               |                |      [24]{}: leap_second_record 0x3d2-0x3de (12)
0x3d0|      00 00 00 00 4f ef 93 18                  |  ....O...      |        occur: "2012-07-01T00:00:24Z" (1341100824) 0x3d2-0x3da (8)
0x3d0|                              00 00 00 19      |          ....  |        corr: 25 0x3da-0x3de (4)
     |                                               |                |      [25]{}: leap_second_record 0x3de-0x3ea (12)
0x3d0|                                          00 00|              ..|        occur: "2015-07-01T00:00:25Z" (1435708825) 0x3de-0x3e6 (8)
0x3e0|00 00 55 93 2d 99                              |..U.-.          |
0x3e0|                  00 00 00 1a                  |      ....      |        corr: 26 0x3e6-0x3ea (4)
     |                                               |                |      [26]{}: leap_second_record 0x3ea-0x3f6 (12)
0x3e0|                              00 00 00 00 58 68|          ....Xh|        occur: "2017-01-01T00:00:26Z" (1483228826) 0x3ea-0x3f2 (8)
0x3f0|46 9a                                          |F.              |
0x3f0|      00 00 00 1b                              |  ....          |        corr: 27 0x3f2-0x3f6 (4)
     |                                               |                |    standard_wall_indicators[0:0]: 0x3f6-0x3f6 (0)
     |                                               |                |    ut_local_indicators[0:0]: 0x3f6-0x3f6 (0)
     |                                               |                |  footer{}: 0x3f6-0x3f8 (2)
0x3f0|                  0a                           |      .         |    nl1: 10 (valid) 0x3f6-0x3f7 (1)
     |                                               |                |    tz_string: "" 0x3f7-0x3f7 (0)
0x3f0|                     0a|                       |       .|       |    nl2: 10 (valid) 0x3f7-0x3f8 (1)
