$ fq -d tzif dv Kuching
     |00 01 02 03 04 05 06 07 08 09 0a 0b 0c 0d 0e 0f|0123456789abcdef|.{}: Kuching (tzif) 0x0-0x3f7.7 (1016)
     |                                               |                |  v1header{}: 0x0-0x2b.7 (44)
0x000|54 5a 69 66                                    |TZif            |    magic: 0x545a6966 (valid) 0x0-0x3.7 (4)
0x000|            32                                 |    2           |    ver: "2" (0x32) (valid) 0x4-0x4.7 (1)
0x000|               00 00 00 00 00 00 00 00 00 00 00|     ...........|    reserved: raw bits 0x5-0x13.7 (15)
0x010|00 00 00 00                                    |....            |
0x010|            00 00 00 00                        |    ....        |    isutcnt: 0 0x14-0x17.7 (4)
0x010|                        00 00 00 00            |        ....    |    isstdcnt: 0 0x18-0x1b.7 (4)
0x010|                                    00 00 00 1b|            ....|    leapcnt: 27 0x1c-0x1f.7 (4)
0x020|00 00 00 13                                    |....            |    timecnt: 19 0x20-0x23.7 (4)
0x020|            00 00 00 06                        |    ....        |    typecnt: 6 0x24-0x27.7 (4)
0x020|                        00 00 00 18            |        ....    |    charcnt: 24 0x28-0x2b.7 (4)
     |                                               |                |  v1datablock{}: 0x2c-0x19e.7 (371)
     |                                               |                |    transition_times[0:19]: 0x2c-0x77.7 (76)
0x020|                                    ad 8a 06 90|            ....|      [0]: "1926-02-28T16:38:40Z" (-1383463280) transition_time 0x2c-0x2f.7 (4)
0x030|ba 67 47 88                                    |.gG.            |      [1]: "1932-12-31T16:30:00Z" (-1167636600) transition_time 0x30-0x33.7 (4)
0x030|            bf 7b 27 80                        |    .{'.        |      [2]: "1935-09-13T16:00:00Z" (-1082448000) transition_time 0x34-0x37.7 (4)
0x030|                        bf f3 1b 50            |        ...P    |      [3]: "1935-12-13T15:40:00Z" (-1074586800) transition_time 0x38-0x3b.7 (4)
0x030|                                    c1 5d ac 80|            .]..|      [4]: "1936-09-13T16:00:00Z" (-1050825600) transition_time 0x3c-0x3f.7 (4)
0x040|c1 d5 a0 50                                    |...P            |      [5]: "1936-12-13T15:40:00Z" (-1042964400) transition_time 0x40-0x43.7 (4)
0x040|            c3 3e e0 00                        |    .>..        |      [6]: "1937-09-13T16:00:00Z" (-1019289600) transition_time 0x44-0x47.7 (4)
0x040|                        c3 b6 d3 d0            |        ....    |      [7]: "1937-12-13T15:40:00Z" (-1011428400) transition_time 0x48-0x4b.7 (4)
0x040|                                    c5 20 13 80|            . ..|      [8]: "1938-09-13T16:00:00Z" (-987753600) transition_time 0x4c-0x4f.7 (4)
0x050|c5 98 07 50                                    |...P            |      [9]: "1938-12-13T15:40:00Z" (-979892400) transition_time 0x50-0x53.7 (4)
0x050|            c7 01 47 00                        |    ..G.        |      [10]: "1939-09-13T16:00:00Z" (-956217600) transition_time 0x54-0x57.7 (4)
0x050|                        c7 79 3a d0            |        .y:.    |      [11]: "1939-12-13T15:40:00Z" (-948356400) transition_time 0x58-0x5b.7 (4)
0x050|                                    c8 e3 cc 00|            ....|      [12]: "1940-09-13T16:00:00Z" (-924595200) transition_time 0x5c-0x5f.7 (4)
0x060|c9 5b bf d0                                    |.[..            |      [13]: "1940-12-13T15:40:00Z" (-916734000) transition_time 0x60-0x63.7 (4)
0x060|            ca c4 ff 80                        |    ....        |      [14]: "1941-09-13T16:00:00Z" (-893059200) transition_time 0x64-0x67.7 (4)
0x060|                        cb 3c f3 50            |        .<.P    |      [15]: "1941-12-13T15:40:00Z" (-885198000) transition_time 0x68-0x6b.7 (4)
0x060|                                    cb 91 58 00|            ..X.|      [16]: "1942-02-15T16:00:00Z" (-879667200) transition_time 0x6c-0x6f.7 (4)
0x070|d2 48 6d f0                                    |.Hm.            |      [17]: "1945-09-11T15:00:00Z" (-767005200) transition_time 0x70-0x73.7 (4)
0x070|            64 9b 78 1b                        |    d.x.        |      [18]: "2023-06-28T00:00:27Z" (1687910427) transition_time 0x74-0x77.7 (4)
     |                                               |                |    transition_types[0:19]: 0x78-0x8a.7 (19)
0x070|                        01                     |        .       |      [0]: 1 transition_type 0x78-0x78.7 (1)
0x070|                           03                  |         .      |      [1]: 3 transition_type 0x79-0x79.7 (1)
0x070|                              02               |          .     |      [2]: 2 transition_type 0x7a-0x7a.7 (1)
0x070|                                 03            |           .    |      [3]: 3 transition_type 0x7b-0x7b.7 (1)
0x070|                                    02         |            .   |      [4]: 2 transition_type 0x7c-0x7c.7 (1)
0x070|                                       03      |             .  |      [5]: 3 transition_type 0x7d-0x7d.7 (1)
0x070|                                          02   |              . |      [6]: 2 transition_type 0x7e-0x7e.7 (1)
0x070|                                             03|               .|      [7]: 3 transition_type 0x7f-0x7f.7 (1)
0x080|02                                             |.               |      [8]: 2 transition_type 0x80-0x80.7 (1)
0x080|   03                                          | .              |      [9]: 3 transition_type 0x81-0x81.7 (1)
0x080|      02                                       |  .             |      [10]: 2 transition_type 0x82-0x82.7 (1)
0x080|         03                                    |   .            |      [11]: 3 transition_type 0x83-0x83.7 (1)
0x080|            02                                 |    .           |      [12]: 2 transition_type 0x84-0x84.7 (1)
0x080|               03                              |     .          |      [13]: 3 transition_type 0x85-0x85.7 (1)
0x080|                  02                           |      .         |      [14]: 2 transition_type 0x86-0x86.7 (1)
0x080|                     03                        |       .        |      [15]: 3 transition_type 0x87-0x87.7 (1)
0x080|                        04                     |        .       |      [16]: 4 transition_type 0x88-0x88.7 (1)
0x080|                           03                  |         .      |      [17]: 3 transition_type 0x89-0x89.7 (1)
0x080|                              03               |          .     |      [18]: 3 transition_type 0x8a-0x8a.7 (1)
     |                                               |                |    local_time_type_records[0:6]: 0x8b-0xae.7 (36)
     |                                               |                |      [0]{}: local_time_type 0x8b-0x90.7 (6)
0x080|                                 00 00 67 70   |           ..gp |        utoff: 26480 (valid) 0x8b-0x8e.7 (4)
0x080|                                             00|               .|        dst: 0 (valid) 0x8f-0x8f.7 (1)
0x090|00                                             |.               |        idx: 0 (valid) 0x90-0x90.7 (1)
     |                                               |                |      [1]{}: local_time_type 0x91-0x96.7 (6)
0x090|   00 00 69 78                                 | ..ix           |        utoff: 27000 (valid) 0x91-0x94.7 (4)
0x090|               00                              |     .          |        dst: 0 (valid) 0x95-0x95.7 (1)
0x090|                  04                           |      .         |        idx: 4 (valid) 0x96-0x96.7 (1)
     |                                               |                |      [2]{}: local_time_type 0x97-0x9c.7 (6)
0x090|                     00 00 75 30               |       ..u0     |        utoff: 30000 (valid) 0x97-0x9a.7 (4)
0x090|                                 01            |           .    |        dst: 1 (valid) 0x9b-0x9b.7 (1)
0x090|                                    0a         |            .   |        idx: 10 (valid) 0x9c-0x9c.7 (1)
     |                                               |                |      [3]{}: local_time_type 0x9d-0xa2.7 (6)
0x090|                                       00 00 70|             ..p|        utoff: 28800 (valid) 0x9d-0xa0.7 (4)
0x0a0|80                                             |.               |
0x0a0|   00                                          | .              |        dst: 0 (valid) 0xa1-0xa1.7 (1)
0x0a0|      10                                       |  .             |        idx: 16 (valid) 0xa2-0xa2.7 (1)
     |                                               |                |      [4]{}: local_time_type 0xa3-0xa8.7 (6)
0x0a0|         00 00 7e 90                           |   ..~.         |        utoff: 32400 (valid) 0xa3-0xa6.7 (4)
0x0a0|                     00                        |       .        |        dst: 0 (valid) 0xa7-0xa7.7 (1)
0x0a0|                        14                     |        .       |        idx: 20 (valid) 0xa8-0xa8.7 (1)
     |                                               |                |      [5]{}: local_time_type 0xa9-0xae.7 (6)
0x0a0|                           00 00 70 80         |         ..p.   |        utoff: 28800 (valid) 0xa9-0xac.7 (4)
0x0a0|                                       00      |             .  |        dst: 0 (valid) 0xad-0xad.7 (1)
0x0a0|                                          10   |              . |        idx: 16 (valid) 0xae-0xae.7 (1)
     |                                               |                |    time_zone_designations[0:5]: 0xaf-0xc6.7 (24)
0x0a0|                                             4c|               L|      [0]: "LMT" time_zone_designation 0xaf-0xb2.7 (4)
0x0b0|4d 54 00                                       |MT.             |
0x0b0|         2b 30 37 33 30 00                     |   +0730.       |      [1]: "+0730" time_zone_designation 0xb3-0xb8.7 (6)
0x0b0|                           2b 30 38 32 30 00   |         +0820. |      [2]: "+0820" time_zone_designation 0xb9-0xbe.7 (6)
0x0b0|                                             2b|               +|      [3]: "+08" time_zone_designation 0xbf-0xc2.7 (4)
0x0c0|30 38 00                                       |08.             |
0x0c0|         2b 30 39 00                           |   +09.         |      [4]: "+09" time_zone_designation 0xc3-0xc6.7 (4)
     |                                               |                |    leap_second_records[0:27]: 0xc7-0x19e.7 (216)
     |                                               |                |      [0]{}: leap_second_record 0xc7-0xce.7 (8)
0x0c0|                     04 b2 58 00               |       ..X.     |        occur: "1972-07-01T00:00:00Z" (78796800) 0xc7-0xca.7 (4)
0x0c0|                                 00 00 00 01   |           .... |        corr: 1 0xcb-0xce.7 (4)
     |                                               |                |      [1]{}: leap_second_record 0xcf-0xd6.7 (8)
0x0c0|                                             05|               .|        occur: "1973-01-01T00:00:01Z" (94694401) 0xcf-0xd2.7 (4)
0x0d0|a4 ec 01                                       |...             |
0x0d0|         00 00 00 02                           |   ....         |        corr: 2 0xd3-0xd6.7 (4)
     |                                               |                |      [2]{}: leap_second_record 0xd7-0xde.7 (8)
0x0d0|                     07 86 1f 82               |       ....     |        occur: "1974-01-01T00:00:02Z" (126230402) 0xd7-0xda.7 (4)
0x0d0|                                 00 00 00 03   |           .... |        corr: 3 0xdb-0xde.7 (4)
     |                                               |                |      [3]{}: leap_second_record 0xdf-0xe6.7 (8)
0x0d0|                                             09|               .|        occur: "1975-01-01T00:00:03Z" (157766403) 0xdf-0xe2.7 (4)
0x0e0|67 53 03                                       |gS.             |
0x0e0|         00 00 00 04                           |   ....         |        corr: 4 0xe3-0xe6.7 (4)
     |                                               |                |      [4]{}: leap_second_record 0xe7-0xee.7 (8)
0x0e0|                     0b 48 86 84               |       .H..     |        occur: "1976-01-01T00:00:04Z" (189302404) 0xe7-0xea.7 (4)
0x0e0|                                 00 00 00 05   |           .... |        corr: 5 0xeb-0xee.7 (4)
     |                                               |                |      [5]{}: leap_second_record 0xef-0xf6.7 (8)
0x0e0|                                             0d|               .|        occur: "1977-01-01T00:00:05Z" (220924805) 0xef-0xf2.7 (4)
0x0f0|2b 0b 85                                       |+..             |
0x0f0|         00 00 00 06                           |   ....         |        corr: 6 0xf3-0xf6.7 (4)
     |                                               |                |      [6]{}: leap_second_record 0xf7-0xfe.7 (8)
0x0f0|                     0f 0c 3f 06               |       ..?.     |        occur: "1978-01-01T00:00:06Z" (252460806) 0xf7-0xfa.7 (4)
0x0f0|                                 00 00 00 07   |           .... |        corr: 7 0xfb-0xfe.7 (4)
     |                                               |                |      [7]{}: leap_second_record 0xff-0x106.7 (8)
0x0f0|                                             10|               .|        occur: "1979-01-01T00:00:07Z" (283996807) 0xff-0x102.7 (4)
0x100|ed 72 87                                       |.r.             |
0x100|         00 00 00 08                           |   ....         |        corr: 8 0x103-0x106.7 (4)
     |                                               |                |      [8]{}: leap_second_record 0x107-0x10e.7 (8)
0x100|                     12 ce a6 08               |       ....     |        occur: "1980-01-01T00:00:08Z" (315532808) 0x107-0x10a.7 (4)
0x100|                                 00 00 00 09   |           .... |        corr: 9 0x10b-0x10e.7 (4)
     |                                               |                |      [9]{}: leap_second_record 0x10f-0x116.7 (8)
0x100|                                             15|               .|        occur: "1981-07-01T00:00:09Z" (362793609) 0x10f-0x112.7 (4)
0x110|9f ca 89                                       |...             |
0x110|         00 00 00 0a                           |   ....         |        corr: 10 0x113-0x116.7 (4)
     |                                               |                |      [10]{}: leap_second_record 0x117-0x11e.7 (8)
0x110|                     17 80 fe 0a               |       ....     |        occur: "1982-07-01T00:00:10Z" (394329610) 0x117-0x11a.7 (4)
0x110|                                 00 00 00 0b   |           .... |        corr: 11 0x11b-0x11e.7 (4)
     |                                               |                |      [11]{}: leap_second_record 0x11f-0x126.7 (8)
0x110|                                             19|               .|        occur: "1983-07-01T00:00:11Z" (425865611) 0x11f-0x122.7 (4)
0x120|62 31 8b                                       |b1.             |
0x120|         00 00 00 0c                           |   ....         |        corr: 12 0x123-0x126.7 (4)
     |                                               |                |      [12]{}: leap_second_record 0x127-0x12e.7 (8)
0x120|                     1d 25 ea 0c               |       .%..     |        occur: "1985-07-01T00:00:12Z" (489024012) 0x127-0x12a.7 (4)
0x120|                                 00 00 00 0d   |           .... |        corr: 13 0x12b-0x12e.7 (4)
     |                                               |                |      [13]{}: leap_second_record 0x12f-0x136.7 (8)
0x120|                                             21|               !|        occur: "1988-01-01T00:00:13Z" (567993613) 0x12f-0x132.7 (4)
0x130|da e5 0d                                       |...             |
0x130|         00 00 00 0e                           |   ....         |        corr: 14 0x133-0x136.7 (4)
     |                                               |                |      [14]{}: leap_second_record 0x137-0x13e.7 (8)
0x130|                     25 9e 9d 8e               |       %...     |        occur: "1990-01-01T00:00:14Z" (631152014) 0x137-0x13a.7 (4)
0x130|                                 00 00 00 0f   |           .... |        corr: 15 0x13b-0x13e.7 (4)
     |                                               |                |      [15]{}: leap_second_record 0x13f-0x146.7 (8)
0x130|                                             27|               '|        occur: "1991-01-01T00:00:15Z" (662688015) 0x13f-0x142.7 (4)
0x140|7f d1 0f                                       |...             |
0x140|         00 00 00 10                           |   ....         |        corr: 16 0x143-0x146.7 (4)
     |                                               |                |      [16]{}: leap_second_record 0x147-0x14e.7 (8)
0x140|                     2a 50 f5 90               |       *P..     |        occur: "1992-07-01T00:00:16Z" (709948816) 0x147-0x14a.7 (4)
0x140|                                 00 00 00 11   |           .... |        corr: 17 0x14b-0x14e.7 (4)
     |                                               |                |      [17]{}: leap_second_record 0x14f-0x156.7 (8)
0x140|                                             2c|               ,|        occur: "1993-07-01T00:00:17Z" (741484817) 0x14f-0x152.7 (4)
0x150|32 29 11                                       |2).             |
0x150|         00 00 00 12                           |   ....         |        corr: 18 0x153-0x156.7 (4)
     |                                               |                |      [18]{}: leap_second_record 0x157-0x15e.7 (8)
0x150|                     2e 13 5c 92               |       ..\.     |        occur: "1994-07-01T00:00:18Z" (773020818) 0x157-0x15a.7 (4)
0x150|                                 00 00 00 13   |           .... |        corr: 19 0x15b-0x15e.7 (4)
     |                                               |                |      [19]{}: leap_second_record 0x15f-0x166.7 (8)
0x150|                                             30|               0|        occur: "1996-01-01T00:00:19Z" (820454419) 0x15f-0x162.7 (4)
0x160|e7 24 13                                       |.$.             |
0x160|         00 00 00 14                           |   ....         |        corr: 20 0x163-0x166.7 (4)
     |                                               |                |      [20]{}: leap_second_record 0x167-0x16e.7 (8)
0x160|                     33 b8 48 94               |       3.H.     |        occur: "1997-07-01T00:00:20Z" (867715220) 0x167-0x16a.7 (4)
0x160|                                 00 00 00 15   |           .... |        corr: 21 0x16b-0x16e.7 (4)
     |                                               |                |      [21]{}: leap_second_record 0x16f-0x176.7 (8)
0x160|                                             36|               6|        occur: "1999-01-01T00:00:21Z" (915148821) 0x16f-0x172.7 (4)
0x170|8c 10 15                                       |...             |
0x170|         00 00 00 16                           |   ....         |        corr: 22 0x173-0x176.7 (4)
     |                                               |                |      [22]{}: leap_second_record 0x177-0x17e.7 (8)
0x170|                     43 b7 1b 96               |       C...     |        occur: "2006-01-01T00:00:22Z" (1136073622) 0x177-0x17a.7 (4)
0x170|                                 00 00 00 17   |           .... |        corr: 23 0x17b-0x17e.7 (4)
     |                                               |                |      [23]{}: leap_second_record 0x17f-0x186.7 (8)
0x170|                                             49|               I|        occur: "2009-01-01T00:00:23Z" (1230768023) 0x17f-0x182.7 (4)
0x180|5c 07 97                                       |\..             |
0x180|         00 00 00 18                           |   ....         |        corr: 24 0x183-0x186.7 (4)
     |                                               |                |      [24]{}: leap_second_record 0x187-0x18e.7 (8)
0x180|                     4f ef 93 18               |       O...     |        occur: "2012-07-01T00:00:24Z" (1341100824) 0x187-0x18a.7 (4)
0x180|                                 00 00 00 19   |           .... |        corr: 25 0x18b-0x18e.7 (4)
     |                                               |                |      [25]{}: leap_second_record 0x18f-0x196.7 (8)
0x180|                                             55|               U|        occur: "2015-07-01T00:00:25Z" (1435708825) 0x18f-0x192.7 (4)
0x190|93 2d 99                                       |.-.             |
0x190|         00 00 00 1a                           |   ....         |        corr: 26 0x193-0x196.7 (4)
     |                                               |                |      [26]{}: leap_second_record 0x197-0x19e.7 (8)
0x190|                     58 68 46 9a               |       XhF.     |        occur: "2017-01-01T00:00:26Z" (1483228826) 0x197-0x19a.7 (4)
0x190|                                 00 00 00 1b   |           .... |        corr: 27 0x19b-0x19e.7 (4)
     |                                               |                |    standard_wall_indicators[0:0]: 0x19f-NA (0)
     |                                               |                |    ut_local_indicators[0:0]: 0x19f-NA (0)
     |                                               |                |  v2plusheader{}: 0x19f-0x1ca.7 (44)
0x190|                                             54|               T|    magic: 0x545a6966 (valid) 0x19f-0x1a2.7 (4)
0x1a0|5a 69 66                                       |Zif             |
0x1a0|         32                                    |   2            |    ver: "2" (0x32) (valid) 0x1a3-0x1a3.7 (1)
0x1a0|            00 00 00 00 00 00 00 00 00 00 00 00|    ............|    reserved: raw bits 0x1a4-0x1b2.7 (15)
0x1b0|00 00 00                                       |...             |
0x1b0|         00 00 00 00                           |   ....         |    isutcnt: 0 0x1b3-0x1b6.7 (4)
0x1b0|                     00 00 00 00               |       ....     |    isstdcnt: 0 0x1b7-0x1ba.7 (4)
0x1b0|                                 00 00 00 1b   |           .... |    leapcnt: 27 0x1bb-0x1be.7 (4)
0x1b0|                                             00|               .|    timecnt: 19 0x1bf-0x1c2.7 (4)
0x1c0|00 00 13                                       |...             |
0x1c0|         00 00 00 06                           |   ....         |    typecnt: 6 0x1c3-0x1c6.7 (4)
0x1c0|                     00 00 00 18               |       ....     |    charcnt: 24 0x1c7-0x1ca.7 (4)
     |                                               |                |  v2plusdatablock{}: 0x1cb-0x3f5.7 (555)
     |                                               |                |    transition_times[0:19]: 0x1cb-0x262.7 (152)
0x1c0|                                 ff ff ff ff ad|           .....|      [0]: "1926-02-28T16:38:40Z" (-1383463280) transition_time 0x1cb-0x1d2.7 (8)
0x1d0|8a 06 90                                       |...             |
0x1d0|         ff ff ff ff ba 67 47 88               |   .....gG.     |      [1]: "1932-12-31T16:30:00Z" (-1167636600) transition_time 0x1d3-0x1da.7 (8)
0x1d0|                                 ff ff ff ff bf|           .....|      [2]: "1935-09-13T16:00:00Z" (-1082448000) transition_time 0x1db-0x1e2.7 (8)
0x1e0|7b 27 80                                       |{'.             |
0x1e0|         ff ff ff ff bf f3 1b 50               |   .......P     |      [3]: "1935-12-13T15:40:00Z" (-1074586800) transition_time 0x1e3-0x1ea.7 (8)
0x1e0|                                 ff ff ff ff c1|           .....|      [4]: "1936-09-13T16:00:00Z" (-1050825600) transition_time 0x1eb-0x1f2.7 (8)
0x1f0|5d ac 80                                       |]..             |
0x1f0|         ff ff ff ff c1 d5 a0 50               |   .......P     |      [5]: "1936-12-13T15:40:00Z" (-1042964400) transition_time 0x1f3-0x1fa.7 (8)
0x1f0|                                 ff ff ff ff c3|           .....|      [6]: "1937-09-13T16:00:00Z" (-1019289600) transition_time 0x1fb-0x202.7 (8)
0x200|3e e0 00                                       |>..             |
0x200|         ff ff ff ff c3 b6 d3 d0               |   ........     |      [7]: "1937-12-13T15:40:00Z" (-1011428400) transition_time 0x203-0x20a.7 (8)
0x200|                                 ff ff ff ff c5|           .....|      [8]: "1938-09-13T16:00:00Z" (-987753600) transition_time 0x20b-0x212.7 (8)
0x210|20 13 80                                       | ..             |
0x210|         ff ff ff ff c5 98 07 50               |   .......P     |      [9]: "1938-12-13T15:40:00Z" (-979892400) transition_time 0x213-0x21a.7 (8)
0x210|                                 ff ff ff ff c7|           .....|      [10]: "1939-09-13T16:00:00Z" (-956217600) transition_time 0x21b-0x222.7 (8)
0x220|01 47 00                                       |.G.             |
0x220|         ff ff ff ff c7 79 3a d0               |   .....y:.     |      [11]: "1939-12-13T15:40:00Z" (-948356400) transition_time 0x223-0x22a.7 (8)
0x220|                                 ff ff ff ff c8|           .....|      [12]: "1940-09-13T16:00:00Z" (-924595200) transition_time 0x22b-0x232.7 (8)
0x230|e3 cc 00                                       |...             |
0x230|         ff ff ff ff c9 5b bf d0               |   .....[..     |      [13]: "1940-12-13T15:40:00Z" (-916734000) transition_time 0x233-0x23a.7 (8)
0x230|                                 ff ff ff ff ca|           .....|      [14]: "1941-09-13T16:00:00Z" (-893059200) transition_time 0x23b-0x242.7 (8)
0x240|c4 ff 80                                       |...             |
0x240|         ff ff ff ff cb 3c f3 50               |   .....<.P     |      [15]: "1941-12-13T15:40:00Z" (-885198000) transition_time 0x243-0x24a.7 (8)
0x240|                                 ff ff ff ff cb|           .....|      [16]: "1942-02-15T16:00:00Z" (-879667200) transition_time 0x24b-0x252.7 (8)
0x250|91 58 00                                       |.X.             |
0x250|         ff ff ff ff d2 48 6d f0               |   .....Hm.     |      [17]: "1945-09-11T15:00:00Z" (-767005200) transition_time 0x253-0x25a.7 (8)
0x250|                                 00 00 00 00 64|           ....d|      [18]: "2023-06-28T00:00:27Z" (1687910427) transition_time 0x25b-0x262.7 (8)
0x260|9b 78 1b                                       |.x.             |
     |                                               |                |    transition_types[0:19]: 0x263-0x275.7 (19)
0x260|         01                                    |   .            |      [0]: 1 transition_type 0x263-0x263.7 (1)
0x260|            03                                 |    .           |      [1]: 3 transition_type 0x264-0x264.7 (1)
0x260|               02                              |     .          |      [2]: 2 transition_type 0x265-0x265.7 (1)
0x260|                  03                           |      .         |      [3]: 3 transition_type 0x266-0x266.7 (1)
0x260|                     02                        |       .        |      [4]: 2 transition_type 0x267-0x267.7 (1)
0x260|                        03                     |        .       |      [5]: 3 transition_type 0x268-0x268.7 (1)
0x260|                           02                  |         .      |      [6]: 2 transition_type 0x269-0x269.7 (1)
0x260|                              03               |          .     |      [7]: 3 transition_type 0x26a-0x26a.7 (1)
0x260|                                 02            |           .    |      [8]: 2 transition_type 0x26b-0x26b.7 (1)
0x260|                                    03         |            .   |      [9]: 3 transition_type 0x26c-0x26c.7 (1)
0x260|                                       02      |             .  |      [10]: 2 transition_type 0x26d-0x26d.7 (1)
0x260|                                          03   |              . |      [11]: 3 transition_type 0x26e-0x26e.7 (1)
0x260|                                             02|               .|      [12]: 2 transition_type 0x26f-0x26f.7 (1)
0x270|03                                             |.               |      [13]: 3 transition_type 0x270-0x270.7 (1)
0x270|   02                                          | .              |      [14]: 2 transition_type 0x271-0x271.7 (1)
0x270|      03                                       |  .             |      [15]: 3 transition_type 0x272-0x272.7 (1)
0x270|         04                                    |   .            |      [16]: 4 transition_type 0x273-0x273.7 (1)
0x270|            03                                 |    .           |      [17]: 3 transition_type 0x274-0x274.7 (1)
0x270|               03                              |     .          |      [18]: 3 transition_type 0x275-0x275.7 (1)
     |                                               |                |    local_time_type_records[0:6]: 0x276-0x299.7 (36)
     |                                               |                |      [0]{}: local_time_type 0x276-0x27b.7 (6)
0x270|                  00 00 67 70                  |      ..gp      |        utoff: 26480 (valid) 0x276-0x279.7 (4)
0x270|                              00               |          .     |        dst: 0 (valid) 0x27a-0x27a.7 (1)
0x270|                                 00            |           .    |        idx: 0 (valid) 0x27b-0x27b.7 (1)
     |                                               |                |      [1]{}: local_time_type 0x27c-0x281.7 (6)
0x270|                                    00 00 69 78|            ..ix|        utoff: 27000 (valid) 0x27c-0x27f.7 (4)
0x280|00                                             |.               |        dst: 0 (valid) 0x280-0x280.7 (1)
0x280|   04                                          | .              |        idx: 4 (valid) 0x281-0x281.7 (1)
     |                                               |                |      [2]{}: local_time_type 0x282-0x287.7 (6)
0x280|      00 00 75 30                              |  ..u0          |        utoff: 30000 (valid) 0x282-0x285.7 (4)
0x280|                  01                           |      .         |        dst: 1 (valid) 0x286-0x286.7 (1)
0x280|                     0a                        |       .        |        idx: 10 (valid) 0x287-0x287.7 (1)
     |                                               |                |      [3]{}: local_time_type 0x288-0x28d.7 (6)
0x280|                        00 00 70 80            |        ..p.    |        utoff: 28800 (valid) 0x288-0x28b.7 (4)
0x280|                                    00         |            .   |        dst: 0 (valid) 0x28c-0x28c.7 (1)
0x280|                                       10      |             .  |        idx: 16 (valid) 0x28d-0x28d.7 (1)
     |                                               |                |      [4]{}: local_time_type 0x28e-0x293.7 (6)
0x280|                                          00 00|              ..|        utoff: 32400 (valid) 0x28e-0x291.7 (4)
0x290|7e 90                                          |~.              |
0x290|      00                                       |  .             |        dst: 0 (valid) 0x292-0x292.7 (1)
0x290|         14                                    |   .            |        idx: 20 (valid) 0x293-0x293.7 (1)
     |                                               |                |      [5]{}: local_time_type 0x294-0x299.7 (6)
0x290|            00 00 70 80                        |    ..p.        |        utoff: 28800 (valid) 0x294-0x297.7 (4)
0x290|                        00                     |        .       |        dst: 0 (valid) 0x298-0x298.7 (1)
0x290|                           10                  |         .      |        idx: 16 (valid) 0x299-0x299.7 (1)
     |                                               |                |    time_zone_designations[0:5]: 0x29a-0x2b1.7 (24)
0x290|                              4c 4d 54 00      |          LMT.  |      [0]: "LMT" time_zone_designation 0x29a-0x29d.7 (4)
0x290|                                          2b 30|              +0|      [1]: "+0730" time_zone_designation 0x29e-0x2a3.7 (6)
0x2a0|37 33 30 00                                    |730.            |
0x2a0|            2b 30 38 32 30 00                  |    +0820.      |      [2]: "+0820" time_zone_designation 0x2a4-0x2a9.7 (6)
0x2a0|                              2b 30 38 00      |          +08.  |      [3]: "+08" time_zone_designation 0x2aa-0x2ad.7 (4)
0x2a0|                                          2b 30|              +0|      [4]: "+09" time_zone_designation 0x2ae-0x2b1.7 (4)
0x2b0|39 00                                          |9.              |
     |                                               |                |    leap_second_records[0:27]: 0x2b2-0x3f5.7 (324)
     |                                               |                |      [0]{}: leap_second_record 0x2b2-0x2bd.7 (12)
0x2b0|      00 00 00 00 04 b2 58 00                  |  ......X.      |        occur: "1972-07-01T00:00:00Z" (78796800) 0x2b2-0x2b9.7 (8)
0x2b0|                              00 00 00 01      |          ....  |        corr: 1 0x2ba-0x2bd.7 (4)
     |                                               |                |      [1]{}: leap_second_record 0x2be-0x2c9.7 (12)
0x2b0|                                          00 00|              ..|        occur: "1973-01-01T00:00:01Z" (94694401) 0x2be-0x2c5.7 (8)
0x2c0|00 00 05 a4 ec 01                              |......          |
0x2c0|                  00 00 00 02                  |      ....      |        corr: 2 0x2c6-0x2c9.7 (4)
     |                                               |                |      [2]{}: leap_second_record 0x2ca-0x2d5.7 (12)
0x2c0|                              00 00 00 00 07 86|          ......|        occur: "1974-01-01T00:00:02Z" (126230402) 0x2ca-0x2d1.7 (8)
0x2d0|1f 82                                          |..              |
0x2d0|      00 00 00 03                              |  ....          |        corr: 3 0x2d2-0x2d5.7 (4)
     |                                               |                |      [3]{}: leap_second_record 0x2d6-0x2e1.7 (12)
0x2d0|                  00 00 00 00 09 67 53 03      |      .....gS.  |        occur: "1975-01-01T00:00:03Z" (157766403) 0x2d6-0x2dd.7 (8)
0x2d0|                                          00 00|              ..|        corr: 4 0x2de-0x2e1.7 (4)
0x2e0|00 04                                          |..              |
     |                                               |                |      [4]{}: leap_second_record 0x2e2-0x2ed.7 (12)
0x2e0|      00 00 00 00 0b 48 86 84                  |  .....H..      |        occur: "1976-01-01T00:00:04Z" (189302404) 0x2e2-0x2e9.7 (8)
0x2e0|                              00 00 00 05      |          ....  |        corr: 5 0x2ea-0x2ed.7 (4)
     |                                               |                |      [5]{}: leap_second_record 0x2ee-0x2f9.7 (12)
0x2e0|                                          00 00|              ..|        occur: "1977-01-01T00:00:05Z" (220924805) 0x2ee-0x2f5.7 (8)
0x2f0|00 00 0d 2b 0b 85                              |...+..          |
0x2f0|                  00 00 00 06                  |      ....      |        corr: 6 0x2f6-0x2f9.7 (4)
     |                                               |                |      [6]{}: leap_second_record 0x2fa-0x305.7 (12)
0x2f0|                              00 00 00 00 0f 0c|          ......|        occur: "1978-01-01T00:00:06Z" (252460806) 0x2fa-0x301.7 (8)
0x300|3f 06                                          |?.              |
0x300|      00 00 00 07                              |  ....          |        corr: 7 0x302-0x305.7 (4)
     |                                               |                |      [7]{}: leap_second_record 0x306-0x311.7 (12)
0x300|                  00 00 00 00 10 ed 72 87      |      ......r.  |        occur: "1979-01-01T00:00:07Z" (283996807) 0x306-0x30d.7 (8)
0x300|                                          00 00|              ..|        corr: 8 0x30e-0x311.7 (4)
0x310|00 08                                          |..              |
     |                                               |                |      [8]{}: leap_second_record 0x312-0x31d.7 (12)
0x310|      00 00 00 00 12 ce a6 08                  |  ........      |        occur: "1980-01-01T00:00:08Z" (315532808) 0x312-0x319.7 (8)
0x310|                              00 00 00 09      |          ....  |        corr: 9 0x31a-0x31d.7 (4)
     |                                               |                |      [9]{}: leap_second_record 0x31e-0x329.7 (12)
0x310|                                          00 00|              ..|        occur: "1981-07-01T00:00:09Z" (362793609) 0x31e-0x325.7 (8)
0x320|00 00 15 9f ca 89                              |......          |
0x320|                  00 00 00 0a                  |      ....      |        corr: 10 0x326-0x329.7 (4)
     |                                               |                |      [10]{}: leap_second_record 0x32a-0x335.7 (12)
0x320|                              00 00 00 00 17 80|          ......|        occur: "1982-07-01T00:00:10Z" (394329610) 0x32a-0x331.7 (8)
0x330|fe 0a                                          |..              |
0x330|      00 00 00 0b                              |  ....          |        corr: 11 0x332-0x335.7 (4)
     |                                               |                |      [11]{}: leap_second_record 0x336-0x341.7 (12)
0x330|                  00 00 00 00 19 62 31 8b      |      .....b1.  |        occur: "1983-07-01T00:00:11Z" (425865611) 0x336-0x33d.7 (8)
0x330|                                          00 00|              ..|        corr: 12 0x33e-0x341.7 (4)
0x340|00 0c                                          |..              |
     |                                               |                |      [12]{}: leap_second_record 0x342-0x34d.7 (12)
0x340|      00 00 00 00 1d 25 ea 0c                  |  .....%..      |        occur: "1985-07-01T00:00:12Z" (489024012) 0x342-0x349.7 (8)
0x340|                              00 00 00 0d      |          ....  |        corr: 13 0x34a-0x34d.7 (4)
     |                                               |                |      [13]{}: leap_second_record 0x34e-0x359.7 (12)
0x340|                                          00 00|              ..|        occur: "1988-01-01T00:00:13Z" (567993613) 0x34e-0x355.7 (8)
0x350|00 00 21 da e5 0d                              |..!...          |
0x350|                  00 00 00 0e                  |      ....      |        corr: 14 0x356-0x359.7 (4)
     |                                               |                |      [14]{}: leap_second_record 0x35a-0x365.7 (12)
0x350|                              00 00 00 00 25 9e|          ....%.|        occur: "1990-01-01T00:00:14Z" (631152014) 0x35a-0x361.7 (8)
0x360|9d 8e                                          |..              |
0x360|      00 00 00 0f                              |  ....          |        corr: 15 0x362-0x365.7 (4)
     |                                               |                |      [15]{}: leap_second_record 0x366-0x371.7 (12)
0x360|                  00 00 00 00 27 7f d1 0f      |      ....'...  |        occur: "1991-01-01T00:00:15Z" (662688015) 0x366-0x36d.7 (8)
0x360|                                          00 00|              ..|        corr: 16 0x36e-0x371.7 (4)
0x370|00 10                                          |..              |
     |                                               |                |      [16]{}: leap_second_record 0x372-0x37d.7 (12)
0x370|      00 00 00 00 2a 50 f5 90                  |  ....*P..      |        occur: "1992-07-01T00:00:16Z" (709948816) 0x372-0x379.7 (8)
0x370|                              00 00 00 11      |          ....  |        corr: 17 0x37a-0x37d.7 (4)
     |                                               |                |      [17]{}: leap_second_record 0x37e-0x389.7 (12)
0x370|                                          00 00|              ..|        occur: "1993-07-01T00:00:17Z" (741484817) 0x37e-0x385.7 (8)
0x380|00 00 2c 32 29 11                              |..,2).          |
0x380|                  00 00 00 12                  |      ....      |        corr: 18 0x386-0x389.7 (4)
     |                                               |                |      [18]{}: leap_second_record 0x38a-0x395.7 (12)
0x380|                              00 00 00 00 2e 13|          ......|        occur: "1994-07-01T00:00:18Z" (773020818) 0x38a-0x391.7 (8)
0x390|5c 92                                          |\.              |
0x390|      00 00 00 13                              |  ....          |        corr: 19 0x392-0x395.7 (4)
     |                                               |                |      [19]{}: leap_second_record 0x396-0x3a1.7 (12)
0x390|                  00 00 00 00 30 e7 24 13      |      ....0.$.  |        occur: "1996-01-01T00:00:19Z" (820454419) 0x396-0x39d.7 (8)
0x390|                                          00 00|              ..|        corr: 20 0x39e-0x3a1.7 (4)
0x3a0|00 14                                          |..              |
     |                                               |                |      [20]{}: leap_second_record 0x3a2-0x3ad.7 (12)
0x3a0|      00 00 00 00 33 b8 48 94                  |  ....3.H.      |        occur: "1997-07-01T00:00:20Z" (867715220) 0x3a2-0x3a9.7 (8)
0x3a0|                              00 00 00 15      |          ....  |        corr: 21 0x3aa-0x3ad.7 (4)
     |                                               |                |      [21]{}: leap_second_record 0x3ae-0x3b9.7 (12)
0x3a0|                                          00 00|              ..|        occur: "1999-01-01T00:00:21Z" (915148821) 0x3ae-0x3b5.7 (8)
0x3b0|00 00 36 8c 10 15                              |..6...          |
0x3b0|                  00 00 00 16                  |      ....      |        corr: 22 0x3b6-0x3b9.7 (4)
     |                                               |                |      [22]{}: leap_second_record 0x3ba-0x3c5.7 (12)
0x3b0|                              00 00 00 00 43 b7|          ....C.|        occur: "2006-01-01T00:00:22Z" (1136073622) 0x3ba-0x3c1.7 (8)
0x3c0|1b 96                                          |..              |
0x3c0|      00 00 00 17                              |  ....          |        corr: 23 0x3c2-0x3c5.7 (4)
     |                                               |                |      [23]{}: leap_second_record 0x3c6-0x3d1.7 (12)
0x3c0|                  00 00 00 00 49 5c 07 97      |      ....I\..  |        occur: "2009-01-01T00:00:23Z" (1230768023) 0x3c6-0x3cd.7 (8)
0x3c0|                                          00 00|              ..|        corr: 24 0x3ce-0x3d1.7 (4)
0x3d0|00 18                                          |..              |
     |                                               |                |      [24]{}: leap_second_record 0x3d2-0x3dd.7 (12)
0x3d0|      00 00 00 00 4f ef 93 18                  |  ....O...      |        occur: "2012-07-01T00:00:24Z" (1341100824) 0x3d2-0x3d9.7 (8)
0x3d0|                              00 00 00 19      |          ....  |        corr: 25 0x3da-0x3dd.7 (4)
     |                                               |                |      [25]{}: leap_second_record 0x3de-0x3e9.7 (12)
0x3d0|                                          00 00|              ..|        occur: "2015-07-01T00:00:25Z" (1435708825) 0x3de-0x3e5.7 (8)
0x3e0|00 00 55 93 2d 99                              |..U.-.          |
0x3e0|                  00 00 00 1a                  |      ....      |        corr: 26 0x3e6-0x3e9.7 (4)
     |                                               |                |      [26]{}: leap_second_record 0x3ea-0x3f5.7 (12)
0x3e0|                              00 00 00 00 58 68|          ....Xh|        occur: "2017-01-01T00:00:26Z" (1483228826) 0x3ea-0x3f1.7 (8)
0x3f0|46 9a                                          |F.              |
0x3f0|      00 00 00 1b                              |  ....          |        corr: 27 0x3f2-0x3f5.7 (4)
     |                                               |                |    standard_wall_indicators[0:0]: 0x3f6-NA (0)
     |                                               |                |    ut_local_indicators[0:0]: 0x3f6-NA (0)
     |                                               |                |  footer{}: 0x3f6-0x3f7.7 (2)
0x3f0|                  0a                           |      .         |    nl1: 10 (valid) 0x3f6-0x3f6.7 (1)
     |                                               |                |    tz_string: "" 0x3f7-NA (0)
0x3f0|                     0a|                       |       .|       |    nl2: 10 (valid) 0x3f7-0x3f7.7 (1)
