$ fq -d tzif dv Kwajalein
     |00 01 02 03 04 05 06 07 08 09 0a 0b 0c 0d 0e 0f|0123456789abcdef|.{}: Kwajalein (tzif) 0x0-0x13b.7 (316)
     |                                               |                |  v1header{}: 0x0-0x2b.7 (44)
0x000|54 5a 69 66                                    |TZif            |    magic: 0x545a6966 (valid) 0x0-0x3.7 (4)
0x000|            32                                 |    2           |    ver: "2" (0x32) (valid) 0x4-0x4.7 (1)
0x000|               00 00 00 00 00 00 00 00 00 00 00|     ...........|    reserved: raw bits 0x5-0x13.7 (15)
0x010|00 00 00 00                                    |....            |
0x010|            00 00 00 00                        |    ....        |    isutcnt: 0 0x14-0x17.7 (4)
0x010|                        00 00 00 00            |        ....    |    isstdcnt: 0 0x18-0x1b.7 (4)
0x010|                                    00 00 00 00|            ....|    leapcnt: 0 0x1c-0x1f.7 (4)
0x020|00 00 00 07                                    |....            |    timecnt: 7 0x20-0x23.7 (4)
0x020|            00 00 00 06                        |    ....        |    typecnt: 6 0x24-0x27.7 (4)
0x020|                        00 00 00 18            |        ....    |    charcnt: 24 0x28-0x2b.7 (4)
     |                                               |                |  v1datablock{}: 0x2c-0x8a.7 (95)
     |                                               |                |    transition_times[0:7]: 0x2c-0x47.7 (28)
0x020|                                    80 00 00 00|            ....|      [0]: "1901-12-13T20:45:52Z" (-2147483648) transition_time 0x2c-0x2f.7 (4)
0x030|c1 ed 35 d0                                    |..5.            |      [1]: "1936-12-31T13:00:00Z" (-1041418800) transition_time 0x30-0x33.7 (4)
0x030|            c9 ea 0a 60                        |    ...`        |      [2]: "1941-03-31T14:00:00Z" (-907408800) transition_time 0x34-0x37.7 (4)
0x030|                        cf 46 81 f0            |        .F..    |      [3]: "1944-02-05T15:00:00Z" (-817462800) transition_time 0x38-0x3b.7 (4)
0x030|                                    ff 86 1b 50|            ...P|      [4]: "1969-09-30T13:00:00Z" (-7988400) transition_time 0x3c-0x3f.7 (4)
0x040|2c 76 0e 40                                    |,v.@            |      [5]: "1993-08-21T12:00:00Z" (745934400) transition_time 0x40-0x43.7 (4)
0x040|            7f ff ff ff                        |    ....        |      [6]: "2038-01-19T03:14:07Z" (2147483647) transition_time 0x44-0x47.7 (4)
     |                                               |                |    transition_types[0:7]: 0x48-0x4e.7 (7)
0x040|                        01                     |        .       |      [0]: 1 transition_type 0x48-0x48.7 (1)
0x040|                           02                  |         .      |      [1]: 2 transition_type 0x49-0x49.7 (1)
0x040|                              03               |          .     |      [2]: 3 transition_type 0x4a-0x4a.7 (1)
0x040|                                 01            |           .    |      [3]: 1 transition_type 0x4b-0x4b.7 (1)
0x040|                                    04         |            .   |      [4]: 4 transition_type 0x4c-0x4c.7 (1)
0x040|                                       05      |             .  |      [5]: 5 transition_type 0x4d-0x4d.7 (1)
0x040|                                          05   |              . |      [6]: 5 transition_type 0x4e-0x4e.7 (1)
     |                                               |                |    local_time_type_records[0:6]: 0x4f-0x72.7 (36)
     |                                               |                |      [0]{}: local_time_type 0x4f-0x54.7 (6)
0x040|                                             00|               .|        utoff: 40160 (valid) 0x4f-0x52.7 (4)
0x050|00 9c e0                                       |...             |
0x050|         00                                    |   .            |        dst: 0 (valid) 0x53-0x53.7 (1)
0x050|            00                                 |    .           |        idx: 0 (valid) 0x54-0x54.7 (1)
     |                                               |                |      [1]{}: local_time_type 0x55-0x5a.7 (6)
0x050|               00 00 9a b0                     |     ....       |        utoff: 39600 (valid) 0x55-0x58.7 (4)
0x050|                           00                  |         .      |        dst: 0 (valid) 0x59-0x59.7 (1)
0x050|                              04               |          .     |        idx: 4 (valid) 0x5a-0x5a.7 (1)
     |                                               |                |      [2]{}: local_time_type 0x5b-0x60.7 (6)
0x050|                                 00 00 8c a0   |           .... |        utoff: 36000 (valid) 0x5b-0x5e.7 (4)
0x050|                                             00|               .|        dst: 0 (valid) 0x5f-0x5f.7 (1)
0x060|08                                             |.               |        idx: 8 (valid) 0x60-0x60.7 (1)
     |                                               |                |      [3]{}: local_time_type 0x61-0x66.7 (6)
0x060|   00 00 7e 90                                 | ..~.           |        utoff: 32400 (valid) 0x61-0x64.7 (4)
0x060|               00                              |     .          |        dst: 0 (valid) 0x65-0x65.7 (1)
0x060|                  0c                           |      .         |        idx: 12 (valid) 0x66-0x66.7 (1)
     |                                               |                |      [4]{}: local_time_type 0x67-0x6c.7 (6)
0x060|                     ff ff 57 40               |       ..W@     |        utoff: -43200 (valid) 0x67-0x6a.7 (4)
0x060|                                 00            |           .    |        dst: 0 (valid) 0x6b-0x6b.7 (1)
0x060|                                    10         |            .   |        idx: 16 (valid) 0x6c-0x6c.7 (1)
     |                                               |                |      [5]{}: local_time_type 0x6d-0x72.7 (6)
0x060|                                       00 00 a8|             ...|        utoff: 43200 (valid) 0x6d-0x70.7 (4)
0x070|c0                                             |.               |
0x070|   00                                          | .              |        dst: 0 (valid) 0x71-0x71.7 (1)
0x070|      14                                       |  .             |        idx: 20 (valid) 0x72-0x72.7 (1)
     |                                               |                |    time_zone_designations[0:6]: 0x73-0x8a.7 (24)
0x070|         4c 4d 54 00                           |   LMT.         |      [0]: "LMT" time_zone_designation 0x73-0x76.7 (4)
0x070|                     2b 31 31 00               |       +11.     |      [1]: "+11" time_zone_designation 0x77-0x7a.7 (4)
0x070|                                 2b 31 30 00   |           +10. |      [2]: "+10" time_zone_designation 0x7b-0x7e.7 (4)
0x070|                                             2b|               +|      [3]: "+09" time_zone_designation 0x7f-0x82.7 (4)
0x080|30 39 00                                       |09.             |
0x080|         2d 31 32 00                           |   -12.         |      [4]: "-12" time_zone_designation 0x83-0x86.7 (4)
0x080|                     2b 31 32 00               |       +12.     |      [5]: "+12" time_zone_designation 0x87-0x8a.7 (4)
     |                                               |                |    leap_second_records[0:0]: 0x8b-NA (0)
     |                                               |                |    standard_wall_indicators[0:0]: 0x8b-NA (0)
     |                                               |                |    ut_local_indicators[0:0]: 0x8b-NA (0)
     |                                               |                |  v2plusheader{}: 0x8b-0xb6.7 (44)
0x080|                                 54 5a 69 66   |           TZif |    magic: 0x545a6966 (valid) 0x8b-0x8e.7 (4)
0x080|                                             32|               2|    ver: "2" (0x32) (valid) 0x8f-0x8f.7 (1)
0x090|00 00 00 00 00 00 00 00 00 00 00 00 00 00 00   |............... |    reserved: raw bits 0x90-0x9e.7 (15)
0x090|                                             00|               .|    isutcnt: 0 0x9f-0xa2.7 (4)
0x0a0|00 00 00                                       |...             |
0x0a0|         00 00 00 00                           |   ....         |    isstdcnt: 0 0xa3-0xa6.7 (4)
0x0a0|                     00 00 00 00               |       ....     |    leapcnt: 0 0xa7-0xaa.7 (4)
0x0a0|                                 00 00 00 07   |           .... |    timecnt: 7 0xab-0xae.7 (4)
0x0a0|                                             00|               .|    typecnt: 6 0xaf-0xb2.7 (4)
0x0b0|00 00 06                                       |...             |
0x0b0|         00 00 00 18                           |   ....         |    charcnt: 24 0xb3-0xb6.7 (4)
     |                                               |                |  v2plusdatablock{}: 0xb7-0x131.7 (123)
     |                                               |                |    transition_times[0:7]: 0xb7-0xee.7 (56)
0x0b0|                     ff ff ff ff 7e 36 18 20   |       ....~6.  |      [0]: "1900-12-31T12:50:40Z" (-2177492960) transition_time 0xb7-0xbe.7 (8)
0x0b0|                                             ff|               .|      [1]: "1936-12-31T13:00:00Z" (-1041418800) transition_time 0xbf-0xc6.7 (8)
0x0c0|ff ff ff c1 ed 35 d0                           |.....5.         |
0x0c0|                     ff ff ff ff c9 ea 0a 60   |       .......` |      [2]: "1941-03-31T14:00:00Z" (-907408800) transition_time 0xc7-0xce.7 (8)
0x0c0|                                             ff|               .|      [3]: "1944-02-05T15:00:00Z" (-817462800) transition_time 0xcf-0xd6.7 (8)
0x0d0|ff ff ff cf 46 81 f0                           |....F..         |
0x0d0|                     ff ff ff ff ff 86 1b 50   |       .......P |      [4]: "1969-09-30T13:00:00Z" (-7988400) transition_time 0xd7-0xde.7 (8)
0x0d0|                                             00|               .|      [5]: "1993-08-21T12:00:00Z" (745934400) transition_time 0xdf-0xe6.7 (8)
0x0e0|00 00 00 2c 76 0e 40                           |...,v.@         |
0x0e0|                     00 00 00 00 7f ff ff ff   |       ........ |      [6]: "2038-01-19T03:14:07Z" (2147483647) transition_time 0xe7-0xee.7 (8)
     |                                               |                |    transition_types[0:7]: 0xef-0xf5.7 (7)
0x0e0|                                             01|               .|      [0]: 1 transition_type 0xef-0xef.7 (1)
0x0f0|02                                             |.               |      [1]: 2 transition_type 0xf0-0xf0.7 (1)
0x0f0|   03                                          | .              |      [2]: 3 transition_type 0xf1-0xf1.7 (1)
0x0f0|      01                                       |  .             |      [3]: 1 transition_type 0xf2-0xf2.7 (1)
0x0f0|         04                                    |   .            |      [4]: 4 transition_type 0xf3-0xf3.7 (1)
0x0f0|            05                                 |    .           |      [5]: 5 transition_type 0xf4-0xf4.7 (1)
0x0f0|               05                              |     .          |      [6]: 5 transition_type 0xf5-0xf5.7 (1)
     |                                               |                |    local_time_type_records[0:6]: 0xf6-0x119.7 (36)
     |                                               |                |      [0]{}: local_time_type 0xf6-0xfb.7 (6)
0x0f0|                  00 00 9c e0                  |      ....      |        utoff: 40160 (valid) 0xf6-0xf9.7 (4)
0x0f0|                              00               |          .     |        dst: 0 (valid) 0xfa-0xfa.7 (1)
0x0f0|                                 00            |           .    |        idx: 0 (valid) 0xfb-0xfb.7 (1)
     |                                               |                |      [1]{}: local_time_type 0xfc-0x101.7 (6)
0x0f0|                                    00 00 9a b0|            ....|        utoff: 39600 (valid) 0xfc-0xff.7 (4)
0x100|00                                             |.               |        dst: 0 (valid) 0x100-0x100.7 (1)
0x100|   04                                          | .              |        idx: 4 (valid) 0x101-0x101.7 (1)
     |                                               |                |      [2]{}: local_time_type 0x102-0x107.7 (6)
0x100|      00 00 8c a0                              |  ....          |        utoff: 36000 (valid) 0x102-0x105.7 (4)
0x100|                  00                           |      .         |        dst: 0 (valid) 0x106-0x106.7 (1)
0x100|                     08                        |       .        |        idx: 8 (valid) 0x107-0x107.7 (1)
     |                                               |                |      [3]{}: local_time_type 0x108-0x10d.7 (6)
0x100|                        00 00 7e 90            |        ..~.    |        utoff: 32400 (valid) 0x108-0x10b.7 (4)
0x100|                                    00         |            .   |        dst: 0 (valid) 0x10c-0x10c.7 (1)
0x100|                                       0c      |             .  |        idx: 12 (valid) 0x10d-0x10d.7 (1)
     |                                               |                |      [4]{}: local_time_type 0x10e-0x113.7 (6)
0x100|                                          ff ff|              ..|        utoff: -43200 (valid) 0x10e-0x111.7 (4)
0x110|57 40                                          |W@              |
0x110|      00                                       |  .             |        dst: 0 (valid) 0x112-0x112.7 (1)
0x110|         10                                    |   .            |        idx: 16 (valid) 0x113-0x113.7 (1)
     |                                               |                |      [5]{}: local_time_type 0x114-0x119.7 (6)
0x110|            00 00 a8 c0                        |    ....        |        utoff: 43200 (valid) 0x114-0x117.7 (4)
0x110|                        00                     |        .       |        dst: 0 (valid) 0x118-0x118.7 (1)
0x110|                           14                  |         .      |        idx: 20 (valid) 0x119-0x119.7 (1)
     |                                               |                |    time_zone_designations[0:6]: 0x11a-0x131.7 (24)
0x110|                              4c 4d 54 00      |          LMT.  |      [0]: "LMT" time_zone_designation 0x11a-0x11d.7 (4)
0x110|                                          2b 31|              +1|      [1]: "+11" time_zone_designation 0x11e-0x121.7 (4)
0x120|31 00                                          |1.              |
0x120|      2b 31 30 00                              |  +10.          |      [2]: "+10" time_zone_designation 0x122-0x125.7 (4)
0x120|                  2b 30 39 00                  |      +09.      |      [3]: "+09" time_zone_designation 0x126-0x129.7 (4)
0x120|                              2d 31 32 00      |          -12.  |      [4]: "-12" time_zone_designation 0x12a-0x12d.7 (4)
0x120|                                          2b 31|              +1|      [5]: "+12" time_zone_designation 0x12e-0x131.7 (4)
0x130|32 00                                          |2.              |
     |                                               |                |    leap_second_records[0:0]: 0x132-NA (0)
     |                                               |                |    standard_wall_indicators[0:0]: 0x132-NA (0)
     |                                               |                |    ut_local_indicators[0:0]: 0x132-NA (0)
     |                                               |                |  footer{}: 0x132-0x13b.7 (10)
0x130|      0a                                       |  .             |    nl1: 10 (valid) 0x132-0x132.7 (1)
0x130|         3c 2b 31 32 3e 2d 31 32               |   <+12>-12     |    tz_string: "<+12>-12" 0x133-0x13a.7 (8)
0x130|                                 0a|           |           .|   |    nl2: 10 (valid) 0x13b-0x13b.7 (1)
