$ fq -d tzif dv Kyiv
     |00 01 02 03 04 05 06 07 08 09 0a 0b 0c 0d 0e 0f|0123456789abcdef|.{}: Kyiv (tzif) 0x0-0x848 (2120)
     |                                               |                |  v1header{}: 0x0-0x2c (44)
0x000|54 5a 69 66                                    |TZif            |    magic: 0x545a6966 (valid) 0x0-0x4 (4)
0x000|            32                                 |    2           |    ver: "2" (0x32) (valid) 0x4-0x5 (1)
0x000|               00 00 00 00 00 00 00 00 00 00 00|     ...........|    reserved: raw bits 0x5-0x14 (15)
0x010|00 00 00 00                                    |....            |
0x010|            00 00 00 0f                        |    ....        |    isutcnt: 15 0x14-0x18 (4)
0x010|                        00 00 00 0f            |        ....    |    isstdcnt: 15 0x18-0x1c (4)
0x010|                                    00 00 00 00|            ....|    leapcnt: 0 0x1c-0x20 (4)
0x020|00 00 00 79                                    |...y            |    timecnt: 121 0x20-0x24 (4)
0x020|            00 00 00 0f                        |    ....        |    typecnt: 15 0x24-0x28 (4)
0x020|                        00 00 00 22            |        ..."    |    charcnt: 34 0x28-0x2c (4)
     |                                               |                |  v1datablock{}: 0x2c-0x323 (759)
     |                                               |                |    transition_times[0:121]: 0x2c-0x210 (484)
0x020|                                    80 00 00 00|            ....|      [0]: "1901-12-13T20:45:52Z" (-2147483648) transition_time 0x2c-0x30 (4)
0x030|aa 19 a7 64                                    |...d            |      [1]: "1924-05-01T21:57:56Z" (-1441159324) transition_time 0x30-0x34 (4)
0x030|            b5 a4 19 60                        |    ...`        |      [2]: "1930-06-20T22:00:00Z" (-1247536800) transition_time 0x34-0x38 (4)
0x030|                        ca cd 2e d0            |        ....    |      [3]: "1941-09-19T21:00:00Z" (-892522800) transition_time 0x38-0x3c (4)
0x030|                                    cc e7 4b 10|            ..K.|      [4]: "1942-11-02T01:00:00Z" (-857257200) transition_time 0x3c-0x40 (4)
0x040|cd a9 17 90                                    |....            |      [5]: "1943-03-29T01:00:00Z" (-844556400) transition_time 0x40-0x44 (4)
0x040|            ce a2 43 10                        |    ..C.        |      [6]: "1943-10-04T01:00:00Z" (-828226800) transition_time 0x44-0x48 (4)
0x040|                        ce cd a8 70            |        ...p    |      [7]: "1943-11-05T23:00:00Z" (-825382800) transition_time 0x48-0x4c (4)
0x040|                                    15 27 a7 d0|            .'..|      [8]: "1981-03-31T21:00:00Z" (354920400) transition_time 0x4c-0x50 (4)
0x050|16 18 dc 40                                    |...@            |      [9]: "1981-09-30T20:00:00Z" (370728000) transition_time 0x50-0x54 (4)
0x050|            17 08 db 50                        |    ...P        |      [10]: "1982-03-31T21:00:00Z" (386456400) transition_time 0x54-0x58 (4)
0x050|                        17 fa 0f c0            |        ....    |      [11]: "1982-09-30T20:00:00Z" (402264000) transition_time 0x58-0x5c (4)
0x050|                                    18 ea 0e d0|            ....|      [12]: "1983-03-31T21:00:00Z" (417992400) transition_time 0x5c-0x60 (4)
0x060|19 db 43 40                                    |..C@            |      [13]: "1983-09-30T20:00:00Z" (433800000) transition_time 0x60-0x64 (4)
0x060|            1a cc 93 d0                        |    ....        |      [14]: "1984-03-31T21:00:00Z" (449614800) transition_time 0x64-0x68 (4)
0x060|                        1b bc a0 f0            |        ....    |      [15]: "1984-09-29T23:00:00Z" (465346800) transition_time 0x68-0x6c (4)
0x060|                                    1c ac 91 f0|            ....|      [16]: "1985-03-30T23:00:00Z" (481071600) transition_time 0x6c-0x70 (4)
0x070|1d 9c 82 f0                                    |....            |      [17]: "1985-09-28T23:00:00Z" (496796400) transition_time 0x70-0x74 (4)
0x070|            1e 8c 73 f0                        |    ..s.        |      [18]: "1986-03-29T23:00:00Z" (512521200) transition_time 0x74-0x78 (4)
0x070|                        1f 7c 64 f0            |        .|d.    |      [19]: "1986-09-27T23:00:00Z" (528246000) transition_time 0x78-0x7c (4)
0x070|                                    20 6c 55 f0|             lU.|      [20]: "1987-03-28T23:00:00Z" (543970800) transition_time 0x7c-0x80 (4)
0x080|21 5c 46 f0                                    |!\F.            |      [21]: "1987-09-26T23:00:00Z" (559695600) transition_time 0x80-0x84 (4)
0x080|            22 4c 37 f0                        |    "L7.        |      [22]: "1988-03-26T23:00:00Z" (575420400) transition_time 0x84-0x88 (4)
0x080|                        23 3c 28 f0            |        #<(.    |      [23]: "1988-09-24T23:00:00Z" (591145200) transition_time 0x88-0x8c (4)
0x080|                                    24 2c 19 f0|            $,..|      [24]: "1989-03-25T23:00:00Z" (606870000) transition_time 0x8c-0x90 (4)
0x090|25 1c 0a f0                                    |%...            |      [25]: "1989-09-23T23:00:00Z" (622594800) transition_time 0x90-0x94 (4)
0x090|            26 0b fb f0                        |    &...        |      [26]: "1990-03-24T23:00:00Z" (638319600) transition_time 0x94-0x98 (4)
0x090|                        26 8d 20 e0            |        &. .    |      [27]: "1990-06-30T22:00:00Z" (646783200) transition_time 0x98-0x9c (4)
0x090|                                    28 e5 17 80|            (...|      [28]: "1991-09-29T00:00:00Z" (686102400) transition_time 0x9c-0xa0 (4)
0x0a0|29 d5 08 80                                    |)...            |      [29]: "1992-03-29T00:00:00Z" (701827200) transition_time 0xa0-0xa4 (4)
0x0a0|            2a c4 f9 80                        |    *...        |      [30]: "1992-09-27T00:00:00Z" (717552000) transition_time 0xa4-0xa8 (4)
0x0a0|                        2b b4 ea 80            |        +...    |      [31]: "1993-03-28T00:00:00Z" (733276800) transition_time 0xa8-0xac (4)
0x0a0|                                    2c a4 db 80|            ,...|      [32]: "1993-09-26T00:00:00Z" (749001600) transition_time 0xac-0xb0 (4)
0x0b0|2d 94 cc 80                                    |-...            |      [33]: "1994-03-27T00:00:00Z" (764726400) transition_time 0xb0-0xb4 (4)
0x0b0|            2e 84 bd 80                        |    ....        |      [34]: "1994-09-25T00:00:00Z" (780451200) transition_time 0xb4-0xb8 (4)
0x0b0|                        2f 74 ae 80            |        /t..    |      [35]: "1995-03-26T00:00:00Z" (796176000) transition_time 0xb8-0xbc (4)
0x0b0|                                    30 64 9f 80|            0d..|      [36]: "1995-09-24T00:00:00Z" (811900800) transition_time 0xbc-0xc0 (4)
0x0c0|31 5d cb 00                                    |1]..            |      [37]: "1996-03-31T00:00:00Z" (828230400) transition_time 0xc0-0xc4 (4)
0x0c0|            32 72 b4 10                        |    2r..        |      [38]: "1996-10-27T01:00:00Z" (846378000) transition_time 0xc4-0xc8 (4)
0x0c0|                        33 3d bb 10            |        3=..    |      [39]: "1997-03-30T01:00:00Z" (859683600) transition_time 0xc8-0xcc (4)
0x0c0|                                    34 52 96 10|            4R..|      [40]: "1997-10-26T01:00:00Z" (877827600) transition_time 0xcc-0xd0 (4)
0x0d0|35 1d 9d 10                                    |5...            |      [41]: "1998-03-29T01:00:00Z" (891133200) transition_time 0xd0-0xd4 (4)
0x0d0|            36 32 78 10                        |    62x.        |      [42]: "1998-10-25T01:00:00Z" (909277200) transition_time 0xd4-0xd8 (4)
0x0d0|                        36 fd 7f 10            |        6...    |      [43]: "1999-03-28T01:00:00Z" (922582800) transition_time 0xd8-0xdc (4)
0x0d0|                                    38 1b 94 90|            8...|      [44]: "1999-10-31T01:00:00Z" (941331600) transition_time 0xdc-0xe0 (4)
0x0e0|38 dd 61 10                                    |8.a.            |      [45]: "2000-03-26T01:00:00Z" (954032400) transition_time 0xe0-0xe4 (4)
0x0e0|            39 fb 76 90                        |    9.v.        |      [46]: "2000-10-29T01:00:00Z" (972781200) transition_time 0xe4-0xe8 (4)
0x0e0|                        3a bd 43 10            |        :.C.    |      [47]: "2001-03-25T01:00:00Z" (985482000) transition_time 0xe8-0xec (4)
0x0e0|                                    3b db 58 90|            ;.X.|      [48]: "2001-10-28T01:00:00Z" (1004230800) transition_time 0xec-0xf0 (4)
0x0f0|3c a6 5f 90                                    |<._.            |      [49]: "2002-03-31T01:00:00Z" (1017536400) transition_time 0xf0-0xf4 (4)
0x0f0|            3d bb 3a 90                        |    =.:.        |      [50]: "2002-10-27T01:00:00Z" (1035680400) transition_time 0xf4-0xf8 (4)
0x0f0|                        3e 86 41 90            |        >.A.    |      [51]: "2003-03-30T01:00:00Z" (1048986000) transition_time 0xf8-0xfc (4)
0x0f0|                                    3f 9b 1c 90|            ?...|      [52]: "2003-10-26T01:00:00Z" (1067130000) transition_time 0xfc-0x100 (4)
0x100|40 66 23 90                                    |@f#.            |      [53]: "2004-03-28T01:00:00Z" (1080435600) transition_time 0x100-0x104 (4)
0x100|            41 84 39 10                        |    A.9.        |      [54]: "2004-10-31T01:00:00Z" (1099184400) transition_time 0x104-0x108 (4)
0x100|                        42 46 05 90            |        BF..    |      [55]: "2005-03-27T01:00:00Z" (1111885200) transition_time 0x108-0x10c (4)
0x100|                                    43 64 1b 10|            Cd..|      [56]: "2005-10-30T01:00:00Z" (1130634000) transition_time 0x10c-0x110 (4)
0x110|44 25 e7 90                                    |D%..            |      [57]: "2006-03-26T01:00:00Z" (1143334800) transition_time 0x110-0x114 (4)
0x110|            45 43 fd 10                        |    EC..        |      [58]: "2006-10-29T01:00:00Z" (1162083600) transition_time 0x114-0x118 (4)
0x110|                        46 05 c9 90            |        F...    |      [59]: "2007-03-25T01:00:00Z" (1174784400) transition_time 0x118-0x11c (4)
0x110|                                    47 23 df 10|            G#..|      [60]: "2007-10-28T01:00:00Z" (1193533200) transition_time 0x11c-0x120 (4)
0x120|47 ee e6 10                                    |G...            |      [61]: "2008-03-30T01:00:00Z" (1206838800) transition_time 0x120-0x124 (4)
0x120|            49 03 c1 10                        |    I...        |      [62]: "2008-10-26T01:00:00Z" (1224982800) transition_time 0x124-0x128 (4)
0x120|                        49 ce c8 10            |        I...    |      [63]: "2009-03-29T01:00:00Z" (1238288400) transition_time 0x128-0x12c (4)
0x120|                                    4a e3 a3 10|            J...|      [64]: "2009-10-25T01:00:00Z" (1256432400) transition_time 0x12c-0x130 (4)
0x130|4b ae aa 10                                    |K...            |      [65]: "2010-03-28T01:00:00Z" (1269738000) transition_time 0x130-0x134 (4)
0x130|            4c cc bf 90                        |    L...        |      [66]: "2010-10-31T01:00:00Z" (1288486800) transition_time 0x134-0x138 (4)
0x130|                        4d 8e 8c 10            |        M...    |      [67]: "2011-03-27T01:00:00Z" (1301187600) transition_time 0x138-0x13c (4)
0x130|                                    4e ac a1 90|            N...|      [68]: "2011-10-30T01:00:00Z" (1319936400) transition_time 0x13c-0x140 (4)
0x140|4f 6e 6e 10                                    |Onn.            |      [69]: "2012-03-25T01:00:00Z" (1332637200) transition_time 0x140-0x144 (4)
0x140|            50 8c 83 90                        |    P...        |      [70]: "2012-10-28T01:00:00Z" (1351386000) transition_time 0x144-0x148 (4)
0x140|                        51 57 8a 90            |        QW..    |      [71]: "2013-03-31T01:00:00Z" (1364691600) transition_time 0x148-0x14c (4)
0x140|                                    52 6c 65 90|            Rle.|      [72]: "2013-10-27T01:00:00Z" (1382835600) transition_time 0x14c-0x150 (4)
0x150|53 37 6c 90                                    |S7l.            |      [73]: "2014-03-30T01:00:00Z" (1396141200) transition_time 0x150-0x154 (4)
0x150|            54 4c 47 90                        |    TLG.        |      [74]: "2014-10-26T01:00:00Z" (1414285200) transition_time 0x154-0x158 (4)
0x150|                        55 17 4e 90            |        U.N.    |      [75]: "2015-03-29T01:00:00Z" (1427590800) transition_time 0x158-0x15c (4)
0x150|                                    56 2c 29 90|            V,).|      [76]: "2015-10-25T01:00:00Z" (1445734800) transition_time 0x15c-0x160 (4)
0x160|56 f7 30 90                                    |V.0.            |      [77]: "2016-03-27T01:00:00Z" (1459040400) transition_time 0x160-0x164 (4)
0x160|            58 15 46 10                        |    X.F.        |      [78]: "2016-10-30T01:00:00Z" (1477789200) transition_time 0x164-0x168 (4)
0x160|                        58 d7 12 90            |        X...    |      [79]: "2017-03-26T01:00:00Z" (1490490000) transition_time 0x168-0x16c (4)
0x160|                                    59 f5 28 10|            Y.(.|      [80]: "2017-10-29T01:00:00Z" (1509238800) transition_time 0x16c-0x170 (4)
0x170|5a b6 f4 90                                    |Z...            |      [81]: "2018-03-25T01:00:00Z" (1521939600) transition_time 0x170-0x174 (4)
0x170|            5b d5 0a 10                        |    [...        |      [82]: "2018-10-28T01:00:00Z" (1540688400) transition_time 0x174-0x178 (4)
0x170|                        5c a0 11 10            |        \...    |      [83]: "2019-03-31T01:00:00Z" (1553994000) transition_time 0x178-0x17c (4)
0x170|                                    5d b4 ec 10|            ]...|      [84]: "2019-10-27T01:00:00Z" (1572138000) transition_time 0x17c-0x180 (4)
0x180|5e 7f f3 10                                    |^...            |      [85]: "2020-03-29T01:00:00Z" (1585443600) transition_time 0x180-0x184 (4)
0x180|            5f 94 ce 10                        |    _...        |      [86]: "2020-10-25T01:00:00Z" (1603587600) transition_time 0x184-0x188 (4)
0x180|                        60 5f d5 10            |        `_..    |      [87]: "2021-03-28T01:00:00Z" (1616893200) transition_time 0x188-0x18c (4)
0x180|                                    61 7d ea 90|            a}..|      [88]: "2021-10-31T01:00:00Z" (1635642000) transition_time 0x18c-0x190 (4)
0x190|62 3f b7 10                                    |b?..            |      [89]: "2022-03-27T01:00:00Z" (1648342800) transition_time 0x190-0x194 (4)
0x190|            63 5d cc 90                        |    c]..        |      [90]: "2022-10-30T01:00:00Z" (1667091600) transition_time 0x194-0x198 (4)
0x190|                        64 1f 99 10            |        d...    |      [91]: "2023-03-26T01:00:00Z" (1679792400) transition_time 0x198-0x19c (4)
0x190|                                    65 3d ae 90|            e=..|      [92]: "2023-10-29T01:00:00Z" (1698541200) transition_time 0x19c-0x1a0 (4)
0x1a0|66 08 b5 90                                    |f...            |      [93]: "2024-03-31T01:00:00Z" (1711846800) transition_time 0x1a0-0x1a4 (4)
0x1a0|            67 1d 90 90                        |    g...        |      [94]: "2024-10-27T01:00:00Z" (1729990800) transition_time 0x1a4-0x1a8 (4)
0x1a0|                        67 e8 97 90            |        g...    |      [95]: "2025-03-30T01:00:00Z" (1743296400) transition_time 0x1a8-0x1ac (4)
0x1a0|                                    68 fd 72 90|            h.r.|      [96]: "2025-10-26T01:00:00Z" (1761440400) transition_time 0x1ac-0x1b0 (4)
0x1b0|69 c8 79 90                                    |i.y.            |      [97]: "2026-03-29T01:00:00Z" (1774746000) transition_time 0x1b0-0x1b4 (4)
0x1b0|            6a dd 54 90                        |    j.T.        |      [98]: "2026-10-25T01:00:00Z" (1792890000) transition_time 0x1b4-0x1b8 (4)
0x1b0|                        6b a8 5b 90            |        k.[.    |      [99]: "2027-03-28T01:00:00Z" (1806195600) transition_time 0x1b8-0x1bc (4)
0x1b0|                                    6c c6 71 10|            l.q.|      [100]: "2027-10-31T01:00:00Z" (1824944400) transition_time 0x1bc-0x1c0 (4)
0x1c0|6d 88 3d 90                                    |m.=.            |      [101]: "2028-03-26T01:00:00Z" (1837645200) transition_time 0x1c0-0x1c4 (4)
0x1c0|            6e a6 53 10                        |    n.S.        |      [102]: "2028-10-29T01:00:00Z" (1856394000) transition_time 0x1c4-0x1c8 (4)
0x1c0|                        6f 68 1f 90            |        oh..    |      [103]: "2029-03-25T01:00:00Z" (1869094800) transition_time 0x1c8-0x1cc (4)
0x1c0|                                    70 86 35 10|            p.5.|      [104]: "2029-10-28T01:00:00Z" (1887843600) transition_time 0x1cc-0x1d0 (4)
0x1d0|71 51 3c 10                                    |qQ<.            |      [105]: "2030-03-31T01:00:00Z" (1901149200) transition_time 0x1d0-0x1d4 (4)
0x1d0|            72 66 17 10                        |    rf..        |      [106]: "2030-10-27T01:00:00Z" (1919293200) transition_time 0x1d4-0x1d8 (4)
0x1d0|                        73 31 1e 10            |        s1..    |      [107]: "2031-03-30T01:00:00Z" (1932598800) transition_time 0x1d8-0x1dc (4)
0x1d0|                                    74 45 f9 10|            tE..|      [108]: "2031-10-26T01:00:00Z" (1950742800) transition_time 0x1dc-0x1e0 (4)
0x1e0|75 11 00 10                                    |u...            |      [109]: "2032-03-28T01:00:00Z" (1964048400) transition_time 0x1e0-0x1e4 (4)
0x1e0|            76 2f 15 90                        |    v/..        |      [110]: "2032-10-31T01:00:00Z" (1982797200) transition_time 0x1e4-0x1e8 (4)
0x1e0|                        76 f0 e2 10            |        v...    |      [111]: "2033-03-27T01:00:00Z" (1995498000) transition_time 0x1e8-0x1ec (4)
0x1e0|                                    78 0e f7 90|            x...|      [112]: "2033-10-30T01:00:00Z" (2014246800) transition_time 0x1ec-0x1f0 (4)
0x1f0|78 d0 c4 10                                    |x...            |      [113]: "2034-03-26T01:00:00Z" (2026947600) transition_time 0x1f0-0x1f4 (4)
0x1f0|            79 ee d9 90                        |    y...        |      [114]: "2034-10-29T01:00:00Z" (2045696400) transition_time 0x1f4-0x1f8 (4)
0x1f0|                        7a b0 a6 10            |        z...    |      [115]: "2035-03-25T01:00:00Z" (2058397200) transition_time 0x1f8-0x1fc (4)
0x1f0|                                    7b ce bb 90|            {...|      [116]: "2035-10-28T01:00:00Z" (2077146000) transition_time 0x1fc-0x200 (4)
0x200|7c 99 c2 90                                    ||...            |      [117]: "2036-03-30T01:00:00Z" (2090451600) transition_time 0x200-0x204 (4)
0x200|            7d ae 9d 90                        |    }...        |      [118]: "2036-10-26T01:00:00Z" (2108595600) transition_time 0x204-0x208 (4)
0x200|                        7e 79 a4 90            |        ~y..    |      [119]: "2037-03-29T01:00:00Z" (2121901200) transition_time 0x208-0x20c (4)
0x200|                                    7f 8e 7f 90|            ....|      [120]: "2037-10-25T01:00:00Z" (2140045200) transition_time 0x20c-0x210 (4)
     |                                               |                |    transition_types[0:121]: 0x210-0x289 (121)
0x210|01                                             |.               |      [0]: 1 transition_type 0x210-0x211 (1)
0x210|   02                                          | .              |      [1]: 2 transition_type 0x211-0x212 (1)
0x210|      03                                       |  .             |      [2]: 3 transition_type 0x212-0x213 (1)
0x210|         06                                    |   .            |      [3]: 6 transition_type 0x213-0x214 (1)
0x210|            04                                 |    .           |      [4]: 4 transition_type 0x214-0x215 (1)
0x210|               05                              |     .          |      [5]: 5 transition_type 0x215-0x216 (1)
0x210|                  04                           |      .         |      [6]: 4 transition_type 0x216-0x217 (1)
0x210|                     03                        |       .        |      [7]: 3 transition_type 0x217-0x218 (1)
0x210|                        07                     |        .       |      [8]: 7 transition_type 0x218-0x219 (1)
0x210|                           03                  |         .      |      [9]: 3 transition_type 0x219-0x21a (1)
0x210|                              07               |          .     |      [10]: 7 transition_type 0x21a-0x21b (1)
0x210|                                 03            |           .    |      [11]: 3 transition_type 0x21b-0x21c (1)
0x210|                                    07         |            .   |      [12]: 7 transition_type 0x21c-0x21d (1)
0x210|                                       03      |             .  |      [13]: 3 transition_type 0x21d-0x21e (1)
0x210|                                          07   |              . |      [14]: 7 transition_type 0x21e-0x21f (1)
0x210|                                             08|               .|      [15]: 8 transition_type 0x21f-0x220 (1)
0x220|09                                             |.               |      [16]: 9 transition_type 0x220-0x221 (1)
0x220|   08                                          | .              |      [17]: 8 transition_type 0x221-0x222 (1)
0x220|      09                                       |  .             |      [18]: 9 transition_type 0x222-0x223 (1)
0x220|         08                                    |   .            |      [19]: 8 transition_type 0x223-0x224 (1)
0x220|            09                                 |    .           |      [20]: 9 transition_type 0x224-0x225 (1)
0x220|               08                              |     .          |      [21]: 8 transition_type 0x225-0x226 (1)
0x220|                  09                           |      .         |      [22]: 9 transition_type 0x226-0x227 (1)
0x220|                     08                        |       .        |      [23]: 8 transition_type 0x227-0x228 (1)
0x220|                        09                     |        .       |      [24]: 9 transition_type 0x228-0x229 (1)
0x220|                           08                  |         .      |      [25]: 8 transition_type 0x229-0x22a (1)
0x220|                              09               |          .     |      [26]: 9 transition_type 0x22a-0x22b (1)
0x220|                                 0a            |           .    |      [27]: 10 transition_type 0x22b-0x22c (1)
0x220|                                    0b         |            .   |      [28]: 11 transition_type 0x22c-0x22d (1)
0x220|                                       0c      |             .  |      [29]: 12 transition_type 0x22d-0x22e (1)
0x220|                                          0b   |              . |      [30]: 11 transition_type 0x22e-0x22f (1)
0x220|                                             0c|               .|      [31]: 12 transition_type 0x22f-0x230 (1)
0x230|0b                                             |.               |      [32]: 11 transition_type 0x230-0x231 (1)
0x230|   0c                                          | .              |      [33]: 12 transition_type 0x231-0x232 (1)
0x230|      0b                                       |  .             |      [34]: 11 transition_type 0x232-0x233 (1)
0x230|         0c                                    |   .            |      [35]: 12 transition_type 0x233-0x234 (1)
0x230|            0b                                 |    .           |      [36]: 11 transition_type 0x234-0x235 (1)
0x230|               0c                              |     .          |      [37]: 12 transition_type 0x235-0x236 (1)
0x230|                  0d                           |      .         |      [38]: 13 transition_type 0x236-0x237 (1)
0x230|                     0e                        |       .        |      [39]: 14 transition_type 0x237-0x238 (1)
0x230|                        0d                     |        .       |      [40]: 13 transition_type 0x238-0x239 (1)
0x230|                           0e                  |         .      |      [41]: 14 transition_type 0x239-0x23a (1)
0x230|                              0d               |          .     |      [42]: 13 transition_type 0x23a-0x23b (1)
0x230|                                 0e            |           .    |      [43]: 14 transition_type 0x23b-0x23c (1)
0x230|                                    0d         |            .   |      [44]: 13 transition_type 0x23c-0x23d (1)
0x230|                                       0e      |             .  |      [45]: 14 transition_type 0x23d-0x23e (1)
0x230|                                          0d   |              . |      [46]: 13 transition_type 0x23e-0x23f (1)
0x230|                                             0e|               .|      [47]: 14 transition_type 0x23f-0x240 (1)
0x240|0d                                             |.               |      [48]: 13 transition_type 0x240-0x241 (1)
0x240|   0e                                          | .              |      [49]: 14 transition_type 0x241-0x242 (1)
0x240|      0d                                       |  .             |      [50]: 13 transition_type 0x242-0x243 (1)
0x240|         0e                                    |   .            |      [51]: 14 transition_type 0x243-0x244 (1)
0x240|            0d                                 |    .           |      [52]: 13 transition_type 0x244-0x245 (1)
0x240|               0e                              |     .          |      [53]: 14 transition_type 0x245-0x246 (1)
0x240|                  0d                           |      .         |      [54]: 13 transition_type 0x246-0x247 (1)
0x240|                     0e                        |       .        |      [55]: 14 transition_type 0x247-0x248 (1)
0x240|                        0d                     |        .       |      [56]: 13 transition_type 0x248-0x249 (1)
0x240|                           0e                  |         .      |      [57]: 14 transition_type 0x249-0x24a (1)
0x240|                              0d               |          .     |      [58]: 13 transition_type 0x24a-0x24b (1)
0x240|                                 0e            |           .    |      [59]: 14 transition_type 0x24b-0x24c (1)
0x240|                                    0d         |            .   |      [60]: 13 transition_type 0x24c-0x24d (1)
0x240|                                       0e      |             .  |      [61]: 14 transition_type 0x24d-0x24e (1)
0x240|                                          0d   |              . |      [62]: 13 transition_type 0x24e-0x24f (1)
0x240|                                             0e|               .|      [63]: 14 transition_type 0x24f-0x250 (1)
0x250|0d                                             |.               |      [64]: 13 transition_type 0x250-0x251 (1)
0x250|   0e                                          | .              |      [65]: 14 transition_type 0x251-0x252 (1)
0x250|      0d                                       |  .             |      [66]: 13 transition_type 0x252-0x253 (1)
0x250|         0e                                    |   .            |      [67]: 14 transition_type 0x253-0x254 (1)
0x250|            0d                                 |    .           |      [68]: 13 transition_type 0x254-0x255 (1)
0x250|               0e                              |     .          |      [69]: 14 transition_type 0x255-0x256 (1)
0x250|                  0d                           |      .         |      [70]: 13 transition_type 0x256-0x257 (1)
0x250|                     0e                        |       .        |      [71]: 14 transition_type 0x257-0x258 (1)
0x250|                        0d                     |        .       |      [72]: 13 transition_type 0x258-0x259 (1)
0x250|                           0e                  |         .      |      [73]: 14 transition_type 0x259-0x25a (1)
0x250|                              0d               |          .     |      [74]: 13 transition_type 0x25a-0x25b (1)
0x250|                                 0e            |           .    |      [75]: 14 transition_type 0x25b-0x25c (1)
0x250|                                    0d         |            .   |      [76]: 13 transition_type 0x25c-0x25d (1)
0x250|                                       0e      |             .  |      [77]: 14 transition_type 0x25d-0x25e (1)
0x250|                                          0d   |              . |      [78]: 13 transition_type 0x25e-0x25f (1)
0x250|                                             0e|               .|      [79]: 14 transition_type 0x25f-0x260 (1)
0x260|0d                                             |.               |      [80]: 13 transition_type 0x260-0x261 (1)
0x260|   0e                                          | .              |      [81]: 14 transition_type 0x261-0x262 (1)
0x260|      0d                                       |  .             |      [82]: 13 transition_type 0x262-0x263 (1)
0x260|         0e                                    |   .            |      [83]: 14 transition_type 0x263-0x264 (1)
0x260|            0d                                 |    .           |      [84]: 13 transition_type 0x264-0x265 (1)
0x260|               0e                              |     .          |      [85]: 14 transition_type 0x265-0x266 (1)
0x260|                  0d                           |      .         |      [86]: 13 transition_type 0x266-0x267 (1)
0x260|                     0e                        |       .        |      [87]: 14 transition_type 0x267-0x268 (1)
0x260|                        0d                     |        .       |      [88]: 13 transition_type 0x268-0x269 (1)
0x260|                           0e                  |         .      |      [89]: 14 transition_type 0x269-0x26a (1)
0x260|                              0d               |          .     |      [90]: 13 transition_type 0x26a-0x26b (1)
0x260|                                 0e            |           .    |      [91]: 14 transition_type 0x26b-0x26c (1)
0x260|                                    0d         |            .   |      [92]: 13 transition_type 0x26c-0x26d (1)
0x260|                                       0e      |             .  |      [93]: 14 transition_type 0x26d-0x26e (1)
0x260|                                          0d   |              . |      [94]: 13 transition_type 0x26e-0x26f (1)
0x260|                                             0e|               .|      [95]: 14 transition_type 0x26f-0x270 (1)
0x270|0d                                             |.               |      [96]: 13 transition_type 0x270-0x271 (1)
0x270|   0e                                          | .              |      [97]: 14 transition_type 0x271-0x272 (1)
0x270|      0d                                       |  .             |      [98]: 13 transition_type 0x272-0x273 (1)
0x270|         0e                                    |   .            |      [99]: 14 transition_type 0x273-0x274 (1)
0x270|            0d                                 |    .           |      [100]: 13 transition_type 0x274-0x275 (1)
0x270|               0e                              |     .          |      [101]: 14 transition_type 0x275-0x276 (1)
0x270|                  0d                           |      .         |      [102]: 13 transition_type 0x276-0x277 (1)
0x270|                     0e                        |       .        |      [103]: 14 transition_type 0x277-0x278 (1)
0x270|                        0d                     |        .       |      [104]: 13 transition_type 0x278-0x279 (1)
0x270|                           0e                  |         .      |      [105]: 14 transition_type 0x279-0x27a (1)
0x270|                              0d               |          .     |      [106]: 13 transition_type 0x27a-0x27b (1)
0x270|                                 0e            |           .    |      [107]: 14 transition_type 0x27b-0x27c (1)
0x270|                                    0d         |            .   |      [108]: 13 transition_type 0x27c-0x27d (1)
0x270|                                       0e      |             .  |      [109]: 14 transition_type 0x27d-0x27e (1)
0x270|                                          0d   |              . |      [110]: 13 transition_type 0x27e-0x27f (1)
0x270|                                             0e|               .|      [111]: 14 transition_type 0x27f-0x280 (1)
0x280|0d                                             |.               |      [112]: 13 transition_type 0x280-0x281 (1)
0x280|   0e                                          | .              |      [113]: 14 transition_type 0x281-0x282 (1)
0x280|      0d                                       |  .             |      [114]: 13 transition_type 0x282-0x283 (1)
0x280|         0e                                    |   .            |      [115]: 14 transition_type 0x283-0x284 (1)
0x280|            0d                                 |    .           |      [116]: 13 transition_type 0x284-0x285 (1)
0x280|               0e                              |     .          |      [117]: 14 transition_type 0x285-0x286 (1)
0x280|                  0d                           |      .         |      [118]: 13 transition_type 0x286-0x287 (1)
0x280|                     0e                        |       .        |      [119]: 14 transition_type 0x287-0x288 (1)
0x280|                        0d                     |        .       |      [120]: 13 transition_type 0x288-0x289 (1)
     |                                               |                |    local_time_type_records[0:15]: 0x289-0x2e3 (90)
     |                                               |                |      [0]{}: local_time_type 0x289-0x28f (6)
0x280|                           00 00 1c 9c         |         ....   |        utoff: 7324 (valid) 0x289-0x28d (4)
0x280|                                       00      |             .  |        dst: 0 (valid) 0x28d-0x28e (1)
0x280|                                          00   |              . |        idx: 0 (valid) 0x28e-0x28f (1)
     |                                               |                |      [1]{}: local_time_type 0x28f-0x295 (6)
0x280|                                             00|               .|        utoff: 7324 (valid) 0x28f-0x293 (4)
0x290|00 1c 9c                                       |...             |
0x290|         00                                    |   .            |        dst: 0 (valid) 0x293-0x294 (1)
0x290|            04                                 |    .           |        idx: 4 (valid) 0x294-0x295 (1)
     |                                               |                |      [2]{}: local_time_type 0x295-0x29b (6)
0x290|               00 00 1c 20                     |     ...        |        utoff: 7200 (valid) 0x295-0x299 (4)
0x290|                           00                  |         .      |        dst: 0 (valid) 0x299-0x29a (1)
0x290|                              08               |          .     |        idx: 8 (valid) 0x29a-0x29b (1)
     |                                               |                |      [3]{}: local_time_type 0x29b-0x2a1 (6)
0x290|                                 00 00 2a 30   |           ..*0 |        utoff: 10800 (valid) 0x29b-0x29f (4)
0x290|                                             00|               .|        dst: 0 (valid) 0x29f-0x2a0 (1)
0x2a0|0c                                             |.               |        idx: 12 (valid) 0x2a0-0x2a1 (1)
     |                                               |                |      [4]{}: local_time_type 0x2a1-0x2a7 (6)
0x2a0|   00 00 0e 10                                 | ....           |        utoff: 3600 (valid) 0x2a1-0x2a5 (4)
0x2a0|               00                              |     .          |        dst: 0 (valid) 0x2a5-0x2a6 (1)
0x2a0|                  10                           |      .         |        idx: 16 (valid) 0x2a6-0x2a7 (1)
     |                                               |                |      [5]{}: local_time_type 0x2a7-0x2ad (6)
0x2a0|                     00 00 1c 20               |       ...      |        utoff: 7200 (valid) 0x2a7-0x2ab (4)
0x2a0|                                 01            |           .    |        dst: 1 (valid) 0x2ab-0x2ac (1)
0x2a0|                                    14         |            .   |        idx: 20 (valid) 0x2ac-0x2ad (1)
     |                                               |                |      [6]{}: local_time_type 0x2ad-0x2b3 (6)
0x2a0|                                       00 00 1c|             ...|        utoff: 7200 (valid) 0x2ad-0x2b1 (4)
0x2b0|20                                             |                |
0x2b0|   01                                          | .              |        dst: 1 (valid) 0x2b1-0x2b2 (1)
0x2b0|      14                                       |  .             |        idx: 20 (valid) 0x2b2-0x2b3 (1)
     |                                               |                |      [7]{}: local_time_type 0x2b3-0x2b9 (6)
0x2b0|         00 00 38 40                           |   ..8@         |        utoff: 14400 (valid) 0x2b3-0x2b7 (4)
0x2b0|                     01                        |       .        |        dst: 1 (valid) 0x2b7-0x2b8 (1)
0x2b0|                        19                     |        .       |        idx: 25 (valid) 0x2b8-0x2b9 (1)
     |                                               |                |      [8]{}: local_time_type 0x2b9-0x2bf (6)
0x2b0|                           00 00 2a 30         |         ..*0   |        utoff: 10800 (valid) 0x2b9-0x2bd (4)
0x2b0|                                       00      |             .  |        dst: 0 (valid) 0x2bd-0x2be (1)
0x2b0|                                          0c   |              . |        idx: 12 (valid) 0x2be-0x2bf (1)
     |                                               |                |      [9]{}: local_time_type 0x2bf-0x2c5 (6)
0x2b0|                                             00|               .|        utoff: 14400 (valid) 0x2bf-0x2c3 (4)
0x2c0|00 38 40                                       |.8@             |
0x2c0|         01                                    |   .            |        dst: 1 (valid) 0x2c3-0x2c4 (1)
0x2c0|            19                                 |    .           |        idx: 25 (valid) 0x2c4-0x2c5 (1)
     |                                               |                |      [10]{}: local_time_type 0x2c5-0x2cb (6)
0x2c0|               00 00 2a 30                     |     ..*0       |        utoff: 10800 (valid) 0x2c5-0x2c9 (4)
0x2c0|                           01                  |         .      |        dst: 1 (valid) 0x2c9-0x2ca (1)
0x2c0|                              1d               |          .     |        idx: 29 (valid) 0x2ca-0x2cb (1)
     |                                               |                |      [11]{}: local_time_type 0x2cb-0x2d1 (6)
0x2c0|                                 00 00 1c 20   |           ...  |        utoff: 7200 (valid) 0x2cb-0x2cf (4)
0x2c0|                                             00|               .|        dst: 0 (valid) 0x2cf-0x2d0 (1)
0x2d0|08                                             |.               |        idx: 8 (valid) 0x2d0-0x2d1 (1)
     |                                               |                |      [12]{}: local_time_type 0x2d1-0x2d7 (6)
0x2d0|   00 00 2a 30                                 | ..*0           |        utoff: 10800 (valid) 0x2d1-0x2d5 (4)
0x2d0|               01                              |     .          |        dst: 1 (valid) 0x2d5-0x2d6 (1)
0x2d0|                  1d                           |      .         |        idx: 29 (valid) 0x2d6-0x2d7 (1)
     |                                               |                |      [13]{}: local_time_type 0x2d7-0x2dd (6)
0x2d0|                     00 00 1c 20               |       ...      |        utoff: 7200 (valid) 0x2d7-0x2db (4)
0x2d0|                                 00            |           .    |        dst: 0 (valid) 0x2db-0x2dc (1)
0x2d0|                                    08         |            .   |        idx: 8 (valid) 0x2dc-0x2dd (1)
     |                                               |                |      [14]{}: local_time_type 0x2dd-0x2e3 (6)
0x2d0|                                       00 00 2a|             ..*|        utoff: 10800 (valid) 0x2dd-0x2e1 (4)
0x2e0|30                                             |0               |
0x2e0|   01                                          | .              |        dst: 1 (valid) 0x2e1-0x2e2 (1)
0x2e0|      1d                                       |  .             |        idx: 29 (valid) 0x2e2-0x2e3 (1)
     |                                               |                |    time_zone_designations[0:8]: 0x2e3-0x305 (34)
0x2e0|         4c 4d 54 00                           |   LMT.         |      [0]: "LMT" time_zone_designation 0x2e3-0x2e7 (4)
0x2e0|                     4b 4d 54 00               |       KMT.     |      [1]: "KMT" time_zone_designation 0x2e7-0x2eb (4)
0x2e0|                                 45 45 54 00   |           EET. |      [2]: "EET" time_zone_designation 0x2eb-0x2ef (4)
0x2e0|                                             4d|               M|      [3]: "MSK" time_zone_designation 0x2ef-0x2f3 (4)
0x2f0|53 4b 00                                       |SK.             |
0x2f0|         43 45 54 00                           |   CET.         |      [4]: "CET" time_zone_designation 0x2f3-0x2f7 (4)
0x2f0|                     43 45 53 54 00            |       CEST.    |      [5]: "CEST" time_zone_designation 0x2f7-0x2fc (5)
0x2f0|                                    4d 53 44 00|            MSD.|      [6]: "MSD" time_zone_designation 0x2fc-0x300 (4)
0x300|45 45 53 54 00                                 |EEST.           |      [7]: "EEST" time_zone_designation 0x300-0x305 (5)
     |                                               |                |    leap_second_records[0:0]: 0x305-0x305 (0)
     |                                               |                |    standard_wall_indicators[0:15]: 0x305-0x314 (15)
0x300|               00                              |     .          |      [0]: 0 standard_wall_indicator (valid) 0x305-0x306 (1)
0x300|                  00                           |      .         |      [1]: 0 standard_wall_indicator (valid) 0x306-0x307 (1)
0x300|                     00                        |       .        |      [2]: 0 standard_wall_indicator (valid) 0x307-0x308 (1)
0x300|                        00                     |        .       |      [3]: 0 standard_wall_indicator (valid) 0x308-0x309 (1)
0x300|                           01                  |         .      |      [4]: 1 standard_wall_indicator (valid) 0x309-0x30a (1)
0x300|                              01               |          .     |      [5]: 1 standard_wall_indicator (valid) 0x30a-0x30b (1)
0x300|                                 00            |           .    |      [6]: 0 standard_wall_indicator (valid) 0x30b-0x30c (1)
0x300|                                    00         |            .   |      [7]: 0 standard_wall_indicator (valid) 0x30c-0x30d (1)
0x300|                                       01      |             .  |      [8]: 1 standard_wall_indicator (valid) 0x30d-0x30e (1)
0x300|                                          01   |              . |      [9]: 1 standard_wall_indicator (valid) 0x30e-0x30f (1)
0x300|                                             00|               .|      [10]: 0 standard_wall_indicator (valid) 0x30f-0x310 (1)
0x310|01                                             |.               |      [11]: 1 standard_wall_indicator (valid) 0x310-0x311 (1)
0x310|   01                                          | .              |      [12]: 1 standard_wall_indicator (valid) 0x311-0x312 (1)
0x310|      01                                       |  .             |      [13]: 1 standard_wall_indicator (valid) 0x312-0x313 (1)
0x310|         01                                    |   .            |      [14]: 1 standard_wall_indicator (valid) 0x313-0x314 (1)
     |                                               |                |    ut_local_indicators[0:15]: 0x314-0x323 (15)
0x310|            00                                 |    .           |      [0]: 0 ut_local_indicator (valid) 0x314-0x315 (1)
0x310|               00                              |     .          |      [1]: 0 ut_local_indicator (valid) 0x315-0x316 (1)
0x310|                  00                           |      .         |      [2]: 0 ut_local_indicator (valid) 0x316-0x317 (1)
0x310|                     00                        |       .        |      [3]: 0 ut_local_indicator (valid) 0x317-0x318 (1)
0x310|                        00                     |        .       |      [4]: 0 ut_local_indicator (valid) 0x318-0x319 (1)
0x310|                           00                  |         .      |      [5]: 0 ut_local_indicator (valid) 0x319-0x31a (1)
0x310|                              00               |          .     |      [6]: 0 ut_local_indicator (valid) 0x31a-0x31b (1)
0x310|                                 00            |           .    |      [7]: 0 ut_local_indicator (valid) 0x31b-0x31c (1)
0x310|                                    00         |            .   |      [8]: 0 ut_local_indicator (valid) 0x31c-0x31d (1)
0x310|                                       00      |             .  |      [9]: 0 ut_local_indicator (valid) 0x31d-0x31e (1)
0x310|                                          00   |              . |      [10]: 0 ut_local_indicator (valid) 0x31e-0x31f (1)
0x310|                                             00|               .|      [11]: 0 ut_local_indicator (valid) 0x31f-0x320 (1)
0x320|00                                             |.               |      [12]: 0 ut_local_indicator (valid) 0x320-0x321 (1)
0x320|   01                                          | .              |      [13]: 1 ut_local_indicator (valid) 0x321-0x322 (1)
0x320|      01                                       |  .             |      [14]: 1 ut_local_indicator (valid) 0x322-0x323 (1)
     |                                               |                |  v2plusheader{}: 0x323-0x34f (44)
0x320|         54 5a 69 66                           |   TZif         |    magic: 0x545a6966 (valid) 0x323-0x327 (4)
0x320|                     32                        |       2        |    ver: "2" (0x32) (valid) 0x327-0x328 (1)
0x320|                        00 00 00 00 00 00 00 00|        ........|    reserved: raw bits 0x328-0x337 (15)
0x330|00 00 00 00 00 00 00                           |.......         |
0x330|                     00 00 00 0f               |       ....     |    isutcnt: 15 0x337-0x33b (4)
0x330|                                 00 00 00 0f   |           .... |    isstdcnt: 15 0x33b-0x33f (4)
0x330|                                             00|               .|    leapcnt: 0 0x33f-0x343 (4)
0x340|00 00 00                                       |...             |
0x340|         00 00 00 79                           |   ...y         |    timecnt: 121 0x343-0x347 (4)
0x340|                     00 00 00 0f               |       ....     |    typecnt: 15 0x347-0x34b (4)
0x340|                                 00 00 00 22   |           ..." |    charcnt: 34 0x34b-0x34f (4)
     |                                               |                |  v2plusdatablock{}: 0x34f-0x82a (1243)
     |                                               |                |    transition_times[0:121]: 0x34f-0x717 (968)
0x340|                                             ff|               .|      [0]: "1879-12-31T21:57:56Z" (-2840148124) transition_time 0x34f-0x357 (8)
0x350|ff ff ff 56 b6 c7 64                           |...V..d         |
0x350|                     ff ff ff ff aa 19 a7 64   |       .......d |      [1]: "1924-05-01T21:57:56Z" (-1441159324) transition_time 0x357-0x35f (8)
0x350|                                             ff|               .|      [2]: "1930-06-20T22:00:00Z" (-1247536800) transition_time 0x35f-0x367 (8)
0x360|ff ff ff b5 a4 19 60                           |......`         |
0x360|                     ff ff ff ff ca cd 2e d0   |       ........ |      [3]: "1941-09-19T21:00:00Z" (-892522800) transition_time 0x367-0x36f (8)
0x360|                                             ff|               .|      [4]: "1942-11-02T01:00:00Z" (-857257200) transition_time 0x36f-0x377 (8)
0x370|ff ff ff cc e7 4b 10                           |.....K.         |
0x370|                     ff ff ff ff cd a9 17 90   |       ........ |      [5]: "1943-03-29T01:00:00Z" (-844556400) transition_time 0x377-0x37f (8)
0x370|                                             ff|               .|      [6]: "1943-10-04T01:00:00Z" (-828226800) transition_time 0x37f-0x387 (8)
0x380|ff ff ff ce a2 43 10                           |.....C.         |
0x380|                     ff ff ff ff ce cd a8 70   |       .......p |      [7]: "1943-11-05T23:00:00Z" (-825382800) transition_time 0x387-0x38f (8)
0x380|                                             00|               .|      [8]: "1981-03-31T21:00:00Z" (354920400) transition_time 0x38f-0x397 (8)
0x390|00 00 00 15 27 a7 d0                           |....'..         |
0x390|                     00 00 00 00 16 18 dc 40   |       .......@ |      [9]: "1981-09-30T20:00:00Z" (370728000) transition_time 0x397-0x39f (8)
0x390|                                             00|               .|      [10]: "1982-03-31T21:00:00Z" (386456400) transition_time 0x39f-0x3a7 (8)
0x3a0|00 00 00 17 08 db 50                           |......P         |
0x3a0|                     00 00 00 00 17 fa 0f c0   |       ........ |      [11]: "1982-09-30T20:00:00Z" (402264000) transition_time 0x3a7-0x3af (8)
0x3a0|                                             00|               .|      [12]: "1983-03-31T21:00:00Z" (417992400) transition_time 0x3af-0x3b7 (8)
0x3b0|00 00 00 18 ea 0e d0                           |.......         |
0x3b0|                     00 00 00 00 19 db 43 40   |       ......C@ |      [13]: "1983-09-30T20:00:00Z" (433800000) transition_time 0x3b7-0x3bf (8)
0x3b0|                                             00|               .|      [14]: "1984-03-31T21:00:00Z" (449614800) transition_time 0x3bf-0x3c7 (8)
0x3c0|00 00 00 1a cc 93 d0                           |.......         |
0x3c0|                     00 00 00 00 1b bc a0 f0   |       ........ |      [15]: "1984-09-29T23:00:00Z" (465346800) transition_time 0x3c7-0x3cf (8)
0x3c0|                                             00|               .|      [16]: "1985-03-30T23:00:00Z" (481071600) transition_time 0x3cf-0x3d7 (8)
0x3d0|00 00 00 1c ac 91 f0                           |.......         |
0x3d0|                     00 00 00 00 1d 9c 82 f0   |       ........ |      [17]: "1985-09-28T23:00:00Z" (496796400) transition_time 0x3d7-0x3df (8)
0x3d0|                                             00|               .|      [18]: "1986-03-29T23:00:00Z" (512521200) transition_time 0x3df-0x3e7 (8)
0x3e0|00 00 00 1e 8c 73 f0                           |.....s.         |
0x3e0|                     00 00 00 00 1f 7c 64 f0   |       .....|d. |      [19]: "1986-09-27T23:00:00Z" (528246000) transition_time 0x3e7-0x3ef (8)
0x3e0|                                             00|               .|      [20]: "1987-03-28T23:00:00Z" (543970800) transition_time 0x3ef-0x3f7 (8)
0x3f0|00 00 00 20 6c 55 f0                           |... lU.         |
0x3f0|                     00 00 00 00 21 5c 46 f0   |       ....!\F. |      [21]: "1987-09-26T23:00:00Z" (559695600) transition_time 0x3f7-0x3ff (8)
0x3f0|                                             00|               .|      [22]: "1988-03-26T23:00:00Z" (575420400) transition_time 0x3ff-0x407 (8)
0x400|00 00 00 22 4c 37 f0                           |..."L7.         |
0x400|                     00 00 00 00 23 3c 28 f0   |       ....#<(. |      [23]: "1988-09-24T23:00:00Z" (591145200) transition_time 0x407-0x40f (8)
0x400|                                             00|               .|      [24]: "1989-03-25T23:00:00Z" (606870000) transition_time 0x40f-0x417 (8)
0x410|00 00 00 24 2c 19 f0                           |...$,..         |
0x410|                     00 00 00 00 25 1c 0a f0   |       ....%... |      [25]: "1989-09-23T23:00:00Z" (622594800) transition_time 0x417-0x41f (8)
0x410|                                             00|               .|      [26]: "1990-03-24T23:00:00Z" (638319600) transition_time 0x41f-0x427 (8)
0x420|00 00 00 26 0b fb f0                           |...&...         |
0x420|                     00 00 00 00 26 8d 20 e0   |       ....&. . |      [27]: "1990-06-30T22:00:00Z" (646783200) transition_time 0x427-0x42f (8)
0x420|                                             00|               .|      [28]: "1991-09-29T00:00:00Z" (686102400) transition_time 0x42f-0x437 (8)
0x430|00 00 00 28 e5 17 80                           |...(...         |
0x430|                     00 00 00 00 29 d5 08 80   |       ....)... |      [29]: "1992-03-29T00:00:00Z" (701827200) transition_time 0x437-0x43f (8)
0x430|                                             00|               .|      [30]: "1992-09-27T00:00:00Z" (717552000) transition_time 0x43f-0x447 (8)
0x440|00 00 00 2a c4 f9 80                           |...*...         |
0x440|                     00 00 00 00 2b b4 ea 80   |       ....+... |      [31]: "1993-03-28T00:00:00Z" (733276800) transition_time 0x447-0x44f (8)
0x440|                                             00|               .|      [32]: "1993-09-26T00:00:00Z" (749001600) transition_time 0x44f-0x457 (8)
0x450|00 00 00 2c a4 db 80                           |...,...         |
0x450|                     00 00 00 00 2d 94 cc 80   |       ....-... |      [33]: "1994-03-27T00:00:00Z" (764726400) transition_time 0x457-0x45f (8)
0x450|                                             00|               .|      [34]: "1994-09-25T00:00:00Z" (780451200) transition_time 0x45f-0x467 (8)
0x460|00 00 00 2e 84 bd 80                           |.......         |
0x460|                     00 00 00 00 2f 74 ae 80   |       ..../t.. |      [35]: "1995-03-26T00:00:00Z" (796176000) transition_time 0x467-0x46f (8)
0x460|                                             00|               .|      [36]: "1995-09-24T00:00:00Z" (811900800) transition_time 0x46f-0x477 (8)
0x470|00 00 00 30 64 9f 80                           |...0d..         |
0x470|                     00 00 00 00 31 5d cb 00   |       ....1].. |      [37]: "1996-03-31T00:00:00Z" (828230400) transition_time 0x477-0x47f (8)
0x470|                                             00|               .|      [38]: "1996-10-27T01:00:00Z" (846378000) transition_time 0x47f-0x487 (8)
0x480|00 00 00 32 72 b4 10                           |...2r..         |
0x480|                     00 00 00 00 33 3d bb 10   |       ....3=.. |      [39]: "1997-03-30T01:00:00Z" (859683600) transition_time 0x487-0x48f (8)
0x480|                                             00|               .|      [40]: "1997-10-26T01:00:00Z" (877827600) transition_time 0x48f-0x497 (8)
0x490|00 00 00 34 52 96 10                           |...4R..         |
0x490|                     00 00 00 00 35 1d 9d 10   |       ....5... |      [41]: "1998-03-29T01:00:00Z" (891133200) transition_time 0x497-0x49f (8)
0x490|                                             00|               .|      [42]: "1998-10-25T01:00:00Z" (909277200) transition_time 0x49f-0x4a7 (8)
0x4a0|00 00 00 36 32 78 10                           |...62x.         |
0x4a0|                     00 00 00 00 36 fd 7f 10   |       ....6... |      [43]: "1999-03-28T01:00:00Z" (922582800) transition_time 0x4a7-0x4af (8)
0x4a0|                                             00|               .|      [44]: "1999-10-31T01:00:00Z" (941331600) transition_time 0x4af-0x4b7 (8)
0x4b0|00 00 00 38 1b 94 90                           |...8...         |
0x4b0|                     00 00 00 00 38 dd 61 10   |       ....8.a. |      [45]: "2000-03-26T01:00:00Z" (954032400) transition_time 0x4b7-0x4bf (8)
0x4b0|                                             00|               .|      [46]: "2000-10-29T01:00:00Z" (972781200) transition_time 0x4bf-0x4c7 (8)
0x4c0|00 00 00 39 fb 76 90                           |...9.v.         |
0x4c0|                     00 00 00 00 3a bd 43 10   |       ....:.C. |      [47]: "2001-03-25T01:00:00Z" (985482000) transition_time 0x4c7-0x4cf (8)
0x4c0|                                             00|               .|      [48]: "2001-10-28T01:00:00Z" (1004230800) transition_time 0x4cf-0x4d7 (8)
0x4d0|00 00 00 3b db 58 90                           |...;.X.         |
0x4d0|                     00 00 00 00 3c a6 5f 90   |       ....<._. |      [49]: "2002-03-31T01:00:00Z" (1017536400) transition_time 0x4d7-0x4df (8)
0x4d0|                                             00|               .|      [50]: "2002-10-27T01:00:00Z" (1035680400) transition_time 0x4df-0x4e7 (8)
0x4e0|00 00 00 3d bb 3a 90                           |...=.:.         |
0x4e0|                     00 00 00 00 3e 86 41 90   |       ....>.A. |      [51]: "2003-03-30T01:00:00Z" (1048986000) transition_time 0x4e7-0x4ef (8)
0x4e0|                                             00|               .|      [52]: "2003-10-26T01:00:00Z" (1067130000) transition_time 0x4ef-0x4f7 (8)
0x4f0|00 00 00 3f 9b 1c 90                           |...?...         |
0x4f0|                     00 00 00 00 40 66 23 90   |       ....@f#. |      [53]: "2004-03-28T01:00:00Z" (1080435600) transition_time 0x4f7-0x4ff (8)
0x4f0|                                             00|               .|      [54]: "2004-10-31T01:00:00Z" (1099184400) transition_time 0x4ff-0x507 (8)
0x500|00 00 00 41 84 39 10                           |...A.9.         |
0x500|                     00 00 00 00 42 46 05 90   |       ....BF.. |      [55]: "2005-03-27T01:00:00Z" (1111885200) transition_time 0x507-0x50f (8)
0x500|                                             00|               .|      [56]: "2005-10-30T01:00:00Z" (1130634000) transition_time 0x50f-0x517 (8)
0x510|00 00 00 43 64 1b 10                           |...Cd..         |
0x510|                     00 00 00 00 44 25 e7 90   |       ....D%.. |      [57]: "2006-03-26T01:00:00Z" (1143334800) transition_time 0x517-0x51f (8)
0x510|                                             00|               .|      [58]: "2006-10-29T01:00:00Z" (1162083600) transition_time 0x51f-0x527 (8)
0x520|00 00 00 45 43 fd 10                           |...EC..         |
0x520|                     00 00 00 00 46 05 c9 90   |       ....F... |      [59]: "2007-03-25T01:00:00Z" (1174784400) transition_time 0x527-0x52f (8)
0x520|                                             00|               .|      [60]: "2007-10-28T01:00:00Z" (1193533200) transition_time 0x52f-0x537 (8)
0x530|00 00 00 47 23 df 10                           |...G#..         |
0x530|                     00 00 00 00 47 ee e6 10   |       ....G... |      [61]: "2008-03-30T01:00:00Z" (1206838800) transition_time 0x537-0x53f (8)
0x530|                                             00|               .|      [62]: "2008-10-26T01:00:00Z" (1224982800) transition_time 0x53f-0x547 (8)
0x540|00 00 00 49 03 c1 10                           |...I...         |
0x540|                     00 00 00 00 49 ce c8 10   |       ....I... |      [63]: "2009-03-29T01:00:00Z" (1238288400) transition_time 0x547-0x54f (8)
0x540|                                             00|               .|      [64]: "2009-10-25T01:00:00Z" (1256432400) transition_time 0x54f-0x557 (8)
0x550|00 00 00 4a e3 a3 10                           |...J...         |
0x550|                     00 00 00 00 4b ae aa 10   |       ....K... |      [65]: "2010-03-28T01:00:00Z" (1269738000) transition_time 0x557-0x55f (8)
0x550|                                             00|               .|      [66]: "2010-10-31T01:00:00Z" (1288486800) transition_time 0x55f-0x567 (8)
0x560|00 00 00 4c cc bf 90                           |...L...         |
0x560|                     00 00 00 00 4d 8e 8c 10   |       ....M... |      [67]: "2011-03-27T01:00:00Z" (1301187600) transition_time 0x567-0x56f (8)
0x560|                                             00|               .|      [68]: "2011-10-30T01:00:00Z" (1319936400) transition_time 0x56f-0x577 (8)
0x570|00 00 00 4e ac a1 90                           |...N...         |
0x570|                     00 00 00 00 4f 6e 6e 10   |       ....Onn. |      [69]: "2012-03-25T01:00:00Z" (1332637200) transition_time 0x577-0x57f (8)
0x570|                                             00|               .|      [70]: "2012-10-28T01:00:00Z" (1351386000) transition_time 0x57f-0x587 (8)
0x580|00 00 00 50 8c 83 90                           |...P...         |
0x580|                     00 00 00 00 51 57 8a 90   |       ....QW.. |      [71]: "2013-03-31T01:00:00Z" (1364691600) transition_time 0x587-0x58f (8)
0x580|                                             00|               .|      [72]: "2013-10-27T01:00:00Z" (1382835600) transition_time 0x58f-0x597 (8)
0x590|00 00 00 52 6c 65 90                           |...Rle.         |
0x590|                     00 00 00 00 53 37 6c 90   |       ....S7l. |      [73]: "2014-03-30T01:00:00Z" (1396141200) transition_time 0x597-0x59f (8)
0x590|                                             00|               .|      [74]: "2014-10-26T01:00:00Z" (1414285200) transition_time 0x59f-0x5a7 (8)
0x5a0|00 00 00 54 4c 47 90                           |...TLG.         |
0x5a0|                     00 00 00 00 55 17 4e 90   |       ....U.N. |      [75]: "2015-03-29T01:00:00Z" (1427590800) transition_time 0x5a7-0x5af (8)
0x5a0|                                             00|               .|      [76]: "2015-10-25T01:00:00Z" (1445734800) transition_time 0x5af-0x5b7 (8)
0x5b0|00 00 00 56 2c 29 90                           |...V,).         |
0x5b0|                     00 00 00 00 56 f7 30 90   |       ....V.0. |      [77]: "2016-03-27T01:00:00Z" (1459040400) transition_time 0x5b7-0x5bf (8)
0x5b0|                                             00|               .|      [78]: "2016-10-30T01:00:00Z" (1477789200) transition_time 0x5bf-0x5c7 (8)
0x5c0|00 00 00 58 15 46 10                           |...X.F.         |
0x5c0|                     00 00 00 00 58 d7 12 90   |       ....X... |      [79]: "2017-03-26T01:00:00Z" (1490490000) transition_time 0x5c7-0x5cf (8)
0x5c0|                                             00|               .|      [80]: "2017-10-29T01:00:00Z" (1509238800) transition_time 0x5cf-0x5d7 (8)
0x5d0|00 00 00 59 f5 28 10                           |...Y.(.         |
0x5d0|                     00 00 00 00 5a b6 f4 90   |       ....Z... |      [81]: "2018-03-25T01:00:00Z" (1521939600) transition_time 0x5d7-0x5df (8)
0x5d0|                                             00|               .|      [82]: "2018-10-28T01:00:00Z" (1540688400) transition_time 0x5df-0x5e7 (8)
0x5e0|00 00 00 5b d5 0a 10                           |...[...         |
0x5e0|                     00 00 00 00 5c a0 11 10   |       ....\... |      [83]: "2019-03-31T01:00:00Z" (1553994000) transition_time 0x5e7-0x5ef (8)
0x5e0|                                             00|               .|      [84]: "2019-10-27T01:00:00Z" (1572138000) transition_time 0x5ef-0x5f7 (8)
0x5f0|00 00 00 5d b4 ec 10                           |...]...         |
0x5f0|                     00 00 00 00 5e 7f f3 10   |       ....^... |      [85]: "2020-03-29T01:00:00Z" (1585443600) transition_time 0x5f7-0x5ff (8)
0x5f0|                                             00|               .|      [86]: "2020-10-25T01:00:00Z" (1603587600) transition_time 0x5ff-0x607 (8)
0x600|00 00 00 5f 94 ce 10                           |..._...         |
0x600|                     00 00 00 00 60 5f d5 10   |       ....`_.. |      [87]: "2021-03-28T01:00:00Z" (1616893200) transition_time 0x607-0x60f (8)
0x600|                                             00|               .|      [88]: "2021-10-31T01:00:00Z" (1635642000) transition_time 0x60f-0x617 (8)
0x610|00 00 00 61 7d ea 90                           |...a}..         |
0x610|                     00 00 00 00 62 3f b7 10   |       ....b?.. |      [89]: "2022-03-27T01:00:00Z" (1648342800) transition_time 0x617-0x61f (8)
0x610|                                             00|               .|      [90]: "2022-10-30T01:00:00Z" (1667091600) transition_time 0x61f-0x627 (8)
0x620|00 00 00 63 5d cc 90                           |...c]..         |
0x620|                     00 00 00 00 64 1f 99 10   |       ....d... |      [91]: "2023-03-26T01:00:00Z" (1679792400) transition_time 0x627-0x62f (8)
0x620|                                             00|               .|      [92]: "2023-10-29T01:00:00Z" (1698541200) transition_time 0x62f-0x637 (8)
0x630|00 00 00 65 3d ae 90                           |...e=..         |
0x630|                     00 00 00 00 66 08 b5 90   |       ....f... |      [93]: "2024-03-31T01:00:00Z" (1711846800) transition_time 0x637-0x63f (8)
0x630|                                             00|               .|      [94]: "2024-10-27T01:00:00Z" (1729990800) transition_time 0x63f-0x647 (8)
0x640|00 00 00 67 1d 90 90                           |...g...         |
0x640|                     00 00 00 00 67 e8 97 90   |       ....g... |      [95]: "2025-03-30T01:00:00Z" (1743296400) transition_time 0x647-0x64f (8)
0x640|                                             00|               .|      [96]: "2025-10-26T01:00:00Z" (1761440400) transition_time 0x64f-0x657 (8)
0x650|00 00 00 68 fd 72 90                           |...h.r.         |
0x650|                     00 00 00 00 69 c8 79 90   |       ....i.y. |      [97]: "2026-03-29T01:00:00Z" (1774746000) transition_time 0x657-0x65f (8)
0x650|                                             00|               .|      [98]: "2026-10-25T01:00:00Z" (1792890000) transition_time 0x65f-0x667 (8)
0x660|00 00 00 6a dd 54 90                           |...j.T.         |
0x660|                     00 00 00 00 6b a8 5b 90   |       ....k.[. |      [99]: "2027-03-28T01:00:00Z" (1806195600) transition_time 0x667-0x66f (8)
0x660|                                             00|               .|      [100]: "2027-10-31T01:00:00Z" (1824944400) transition_time 0x66f-0x677 (8)
0x670|00 00 00 6c c6 71 10                           |...l.q.         |
0x670|                     00 00 00 00 6d 88 3d 90   |       ....m.=. |      [101]: "2028-03-26T01:00:00Z" (1837645200) transition_time 0x677-0x67f (8)
0x670|                                             00|               .|      [102]: "2028-10-29T01:00:00Z" (1856394000) transition_time 0x67f-0x687 (8)
0x680|00 00 00 6e a6 53 10                           |...n.S.         |
0x680|                     00 00 00 00 6f 68 1f 90   |       ....oh.. |      [103]: "2029-03-25T01:00:00Z" (1869094800) transition_time 0x687-0x68f (8)
0x680|                                             00|               .|      [104]: "2029-10-28T01:00:00Z" (1887843600) transition_time 0x68f-0x697 (8)
0x690|00 00 00 70 86 35 10                           |...p.5.         |
0x690|                     00 00 00 00 71 51 3c 10   |       ....qQ<. |      [105]: "2030-03-31T01:00:00Z" (1901149200) transition_time 0x697-0x69f (8)
0x690|                                             00|               .|      [106]: "2030-10-27T01:00:00Z" (1919293200) transition_time 0x69f-0x6a7 (8)
0x6a0|00 00 00 72 66 17 10                           |...rf..         |
0x6a0|                     00 00 00 00 73 31 1e 10   |       ....s1.. |      [107]: "2031-03-30T01:00:00Z" (1932598800) transition_time 0x6a7-0x6af (8)
0x6a0|                                             00|               .|      [108]: "2031-10-26T01:00:00Z" (1950742800) transition_time 0x6af-0x6b7 (8)
0x6b0|00 00 00 74 45 f9 10                           |...tE..         |
0x6b0|                     00 00 00 00 75 11 00 10   |       ....u... |      [109]: "2032-03-28T01:00:00Z" (1964048400) transition_time 0x6b7-0x6bf (8)
0x6b0|                                             00|               .|      [110]: "2032-10-31T01:00:00Z" (1982797200) transition_time 0x6bf-0x6c7 (8)
0x6c0|00 00 00 76 2f 15 90                           |...v/..         |
0x6c0|                     00 00 00 00 76 f0 e2 10   |       ....v... |      [111]: "2033-03-27T01:00:00Z" (1995498000) transition_time 0x6c7-0x6cf (8)
0x6c0|                                             00|               .|      [112]: "2033-10-30T01:00:00Z" (2014246800) transition_time 0x6cf-0x6d7 (8)
0x6d0|00 00 00 78 0e f7 90                           |...x...         |
0x6d0|                     00 00 00 00 78 d0 c4 10   |       ....x... |      [113]: "2034-03-26T01:00:00Z" (2026947600) transition_time 0x6d7-0x6df (8)
0x6d0|                                             00|               .|      [114]: "2034-10-29T01:00:00Z" (2045696400) transition_time 0x6df-0x6e7 (8)
0x6e0|00 00 00 79 ee d9 90                           |...y...         |
0x6e0|                     00 00 00 00 7a b0 a6 10   |       ....z... |      [115]: "2035-03-25T01:00:00Z" (2058397200) transition_time 0x6e7-0x6ef (8)
0x6e0|                                             00|               .|      [116]: "2035-10-28T01:00:00Z" (2077146000) transition_time 0x6ef-0x6f7 (8)
0x6f0|00 00 00 7b ce bb 90                           |...{...         |
0x6f0|                     00 00 00 00 7c 99 c2 90   |       ....|... |      [117]: "2036-03-30T01:00:00Z" (2090451600) transition_time 0x6f7-0x6ff (8)
0x6f0|                                             00|               .|      [118]: "2036-10-26T01:00:00Z" (2108595600) transition_time 0x6ff-0x707 (8)
0x700|00 00 00 7d ae 9d 90                           |...}...         |
0x700|                     00 00 00 00 7e 79 a4 90   |       ....~y.. |      [119]: "2037-03-29T01:00:00Z" (2121901200) transition_time 0x707-0x70f (8)
0x700|                                             00|               .|      [120]: "2037-10-25T01:00:00Z" (2140045200) transition_time 0x70f-0x717 (8)
0x710|00 00 00 7f 8e 7f 90                           |.......         |
     |                                               |                |    transition_types[0:121]: 0x717-0x790 (121)
0x710|                     01                        |       .        |      [0]: 1 transition_type 0x717-0x718 (1)
0x710|                        02                     |        .       |      [1]: 2 transition_type 0x718-0x719 (1)
0x710|                           03                  |         .      |      [2]: 3 transition_type 0x719-0x71a (1)
0x710|                              06               |          .     |      [3]: 6 transition_type 0x71a-0x71b (1)
0x710|                                 04            |           .    |      [4]: 4 transition_type 0x71b-0x71c (1)
0x710|                                    05         |            .   |      [5]: 5 transition_type 0x71c-0x71d (1)
0x710|                                       04      |             .  |      [6]: 4 transition_type 0x71d-0x71e (1)
0x710|                                          03   |              . |      [7]: 3 transition_type 0x71e-0x71f (1)
0x710|                                             07|               .|      [8]: 7 transition_type 0x71f-0x720 (1)
0x720|03                                             |.               |      [9]: 3 transition_type 0x720-0x721 (1)
0x720|   07                                          | .              |      [10]: 7 transition_type 0x721-0x722 (1)
0x720|      03                                       |  .             |      [11]: 3 transition_type 0x722-0x723 (1)
0x720|         07                                    |   .            |      [12]: 7 transition_type 0x723-0x724 (1)
0x720|            03                                 |    .           |      [13]: 3 transition_type 0x724-0x725 (1)
0x720|               07                              |     .          |      [14]: 7 transition_type 0x725-0x726 (1)
0x720|                  08                           |      .         |      [15]: 8 transition_type 0x726-0x727 (1)
0x720|                     09                        |       .        |      [16]: 9 transition_type 0x727-0x728 (1)
0x720|                        08                     |        .       |      [17]: 8 transition_type 0x728-0x729 (1)
0x720|                           09                  |         .      |      [18]: 9 transition_type 0x729-0x72a (1)
0x720|                              08               |          .     |      [19]: 8 transition_type 0x72a-0x72b (1)
0x720|                                 09            |           .    |      [20]: 9 transition_type 0x72b-0x72c (1)
0x720|                                    08         |            .   |      [21]: 8 transition_type 0x72c-0x72d (1)
0x720|                                       09      |             .  |      [22]: 9 transition_type 0x72d-0x72e (1)
0x720|                                          08   |              . |      [23]: 8 transition_type 0x72e-0x72f (1)
0x720|                                             09|               .|      [24]: 9 transition_type 0x72f-0x730 (1)
0x730|08                                             |.               |      [25]: 8 transition_type 0x730-0x731 (1)
0x730|   09                                          | .              |      [26]: 9 transition_type 0x731-0x732 (1)
0x730|      0a                                       |  .             |      [27]: 10 transition_type 0x732-0x733 (1)
0x730|         0b                                    |   .            |      [28]: 11 transition_type 0x733-0x734 (1)
0x730|            0c                                 |    .           |      [29]: 12 transition_type 0x734-0x735 (1)
0x730|               0b                              |     .          |      [30]: 11 transition_type 0x735-0x736 (1)
0x730|                  0c                           |      .         |      [31]: 12 transition_type 0x736-0x737 (1)
0x730|                     0b                        |       .        |      [32]: 11 transition_type 0x737-0x738 (1)
0x730|                        0c                     |        .       |      [33]: 12 transition_type 0x738-0x739 (1)
0x730|                           0b                  |         .      |      [34]: 11 transition_type 0x739-0x73a (1)
0x730|                              0c               |          .     |      [35]: 12 transition_type 0x73a-0x73b (1)
0x730|                                 0b            |           .    |      [36]: 11 transition_type 0x73b-0x73c (1)
0x730|                                    0c         |            .   |      [37]: 12 transition_type 0x73c-0x73d (1)
0x730|                                       0d      |             .  |      [38]: 13 transition_type 0x73d-0x73e (1)
0x730|                                          0e   |              . |      [39]: 14 transition_type 0x73e-0x73f (1)
0x730|                                             0d|               .|      [40]: 13 transition_type 0x73f-0x740 (1)
0x740|0e                                             |.               |      [41]: 14 transition_type 0x740-0x741 (1)
0x740|   0d                                          | .              |      [42]: 13 transition_type 0x741-0x742 (1)
0x740|      0e                                       |  .             |      [43]: 14 transition_type 0x742-0x743 (1)
0x740|         0d                                    |   .            |      [44]: 13 transition_type 0x743-0x744 (1)
0x740|            0e                                 |    .           |      [45]: 14 transition_type 0x744-0x745 (1)
0x740|               0d                              |     .          |      [46]: 13 transition_type 0x745-0x746 (1)
0x740|                  0e                           |      .         |      [47]: 14 transition_type 0x746-0x747 (1)
0x740|                     0d                        |       .        |      [48]: 13 transition_type 0x747-0x748 (1)
0x740|                        0e                     |        .       |      [49]: 14 transition_type 0x748-0x749 (1)
0x740|                           0d                  |         .      |      [50]: 13 transition_type 0x749-0x74a (1)
0x740|                              0e               |          .     |      [51]: 14 transition_type 0x74a-0x74b (1)
0x740|                                 0d            |           .    |      [52]: 13 transition_type 0x74b-0x74c (1)
0x740|                                    0e         |            .   |      [53]: 14 transition_type 0x74c-0x74d (1)
0x740|                                       0d      |             .  |      [54]: 13 transition_type 0x74d-0x74e (1)
0x740|                                          0e   |              . |      [55]: 14 transition_type 0x74e-0x74f (1)
0x740|                                             0d|               .|      [56]: 13 transition_type 0x74f-0x750 (1)
0x750|0e                                             |.               |      [57]: 14 transition_type 0x750-0x751 (1)
0x750|   0d                                          | .              |      [58]: 13 transition_type 0x751-0x752 (1)
0x750|      0e                                       |  .             |      [59]: 14 transition_type 0x752-0x753 (1)
0x750|         0d                                    |   .            |      [60]: 13 transition_type 0x753-0x754 (1)
0x750|            0e                                 |    .           |      [61]: 14 transition_type 0x754-0x755 (1)
0x750|               0d                              |     .          |      [62]: 13 transition_type 0x755-0x756 (1)
0x750|                  0e                           |      .         |      [63]: 14 transition_type 0x756-0x757 (1)
0x750|                     0d                        |       .        |      [64]: 13 transition_type 0x757-0x758 (1)
0x750|                        0e                     |        .       |      [65]: 14 transition_type 0x758-0x759 (1)
0x750|                           0d                  |         .      |      [66]: 13 transition_type 0x759-0x75a (1)
0x750|                              0e               |          .     |      [67]: 14 transition_type 0x75a-0x75b (1)
0x750|                                 0d            |           .    |      [68]: 13 transition_type 0x75b-0x75c (1)
0x750|                                    0e         |            .   |      [69]: 14 transition_type 0x75c-0x75d (1)
0x750|                                       0d      |             .  |      [70]: 13 transition_type 0x75d-0x75e (1)
0x750|                                          0e   |              . |      [71]: 14 transition_type 0x75e-0x75f (1)
0x750|                                             0d|               .|      [72]: 13 transition_type 0x75f-0x760 (1)
0x760|0e                                             |.               |      [73]: 14 transition_type 0x760-0x761 (1)
0x760|   0d                                          | .              |      [74]: 13 transition_type 0x761-0x762 (1)
0x760|      0e                                       |  .             |      [75]: 14 transition_type 0x762-0x763 (1)
0x760|         0d                                    |   .            |      [76]: 13 transition_type 0x763-0x764 (1)
0x760|            0e                                 |    .           |      [77]: 14 transition_type 0x764-0x765 (1)
0x760|               0d                              |     .          |      [78]: 13 transition_type 0x765-0x766 (1)
0x760|                  0e                           |      .         |      [79]: 14 transition_type 0x766-0x767 (1)
0x760|                     0d                        |       .        |      [80]: 13 transition_type 0x767-0x768 (1)
0x760|                        0e                     |        .       |      [81]: 14 transition_type 0x768-0x769 (1)
0x760|                           0d                  |         .      |      [82]: 13 transition_type 0x769-0x76a (1)
0x760|                              0e               |          .     |      [83]: 14 transition_type 0x76a-0x76b (1)
0x760|                                 0d            |           .    |      [84]: 13 transition_type 0x76b-0x76c (1)
0x760|                                    0e         |            .   |      [85]: 14 transition_type 0x76c-0x76d (1)
0x760|                                       0d      |             .  |      [86]: 13 transition_type 0x76d-0x76e (1)
0x760|                                          0e   |              . |      [87]: 14 transition_type 0x76e-0x76f (1)
0x760|                                             0d|               .|      [88]: 13 transition_type 0x76f-0x770 (1)
0x770|0e                                             |.               |      [89]: 14 transition_type 0x770-0x771 (1)
0x770|   0d                                          | .              |      [90]: 13 transition_type 0x771-0x772 (1)
0x770|      0e                                       |  .             |      [91]: 14 transition_type 0x772-0x773 (1)
0x770|         0d                                    |   .            |      [92]: 13 transition_type 0x773-0x774 (1)
0x770|            0e                                 |    .           |      [93]: 14 transition_type 0x774-0x775 (1)
0x770|               0d                              |     .          |      [94]: 13 transition_type 0x775-0x776 (1)
0x770|                  0e                           |      .         |      [95]: 14 transition_type 0x776-0x777 (1)
0x770|                     0d                        |       .        |      [96]: 13 transition_type 0x777-0x778 (1)
0x770|                        0e                     |        .       |      [97]: 14 transition_type 0x778-0x779 (1)
0x770|                           0d                  |         .      |      [98]: 13 transition_type 0x779-0x77a (1)
0x770|                              0e               |          .     |      [99]: 14 transition_type 0x77a-0x77b (1)
0x770|                                 0d            |           .    |      [100]: 13 transition_type 0x77b-0x77c (1)
0x770|                                    0e         |            .   |      [101]: 14 transition_type 0x77c-0x77d (1)
0x770|                                       0d      |             .  |      [102]: 13 transition_type 0x77d-0x77e (1)
0x770|                                          0e   |              . |      [103]: 14 transition_type 0x77e-0x77f (1)
0x770|                                             0d|               .|      [104]: 13 transition_type 0x77f-0x780 (1)
0x780|0e                                             |.               |      [105]: 14 transition_type 0x780-0x781 (1)
0x780|   0d                                          | .              |      [106]: 13 transition_type 0x781-0x782 (1)
0x780|      0e                                       |  .             |      [107]: 14 transition_type 0x782-0x783 (1)
0x780|         0d                                    |   .            |      [108]: 13 transition_type 0x783-0x784 (1)
0x780|            0e                                 |    .           |      [109]: 14 transition_type 0x784-0x785 (1)
0x780|               0d                              |     .          |      [110]: 13 transition_type 0x785-0x786 (1)
0x780|                  0e                           |      .         |      [111]: 14 transition_type 0x786-0x787 (1)
0x780|                     0d                        |       .        |      [112]: 13 transition_type 0x787-0x788 (1)
0x780|                        0e                     |        .       |      [113]: 14 transition_type 0x788-0x789 (1)
0x780|                           0d                  |         .      |      [114]: 13 transition_type 0x789-0x78a (1)
0x780|                              0e               |          .     |      [115]: 14 transition_type 0x78a-0x78b (1)
0x780|                                 0d            |           .    |      [116]: 13 transition_type 0x78b-0x78c (1)
0x780|                                    0e         |            .   |      [117]: 14 transition_type 0x78c-0x78d (1)
0x780|                                       0d      |             .  |      [118]: 13 transition_type 0x78d-0x78e (1)
0x780|                                          0e   |              . |      [119]: 14 transition_type 0x78e-0x78f (1)
0x780|                                             0d|               .|      [120]: 13 transition_type 0x78f-0x790 (1)
     |                                               |                |    local_time_type_records[0:15]: 0x790-0x7ea (90)
     |                                               |                |      [0]{}: local_time_type 0x790-0x796 (6)
0x790|00 00 1c 9c                                    |....            |        utoff: 7324 (valid) 0x790-0x794 (4)
0x790|            00                                 |    .           |        dst: 0 (valid) 0x794-0x795 (1)
0x790|               00                              |     .          |        idx: 0 (valid) 0x795-0x796 (1)
     |                                               |                |      [1]{}: local_time_type 0x796-0x79c (6)
0x790|                  00 00 1c 9c                  |      ....      |        utoff: 7324 (valid) 0x796-0x79a (4)
0x790|                              00               |          .     |        dst: 0 (valid) 0x79a-0x79b (1)
0x790|                                 04            |           .    |        idx: 4 (valid) 0x79b-0x79c (1)
     |                                               |                |      [2]{}: local_time_type 0x79c-0x7a2 (6)
0x790|                                    00 00 1c 20|            ... |        utoff: 7200 (valid) 0x79c-0x7a0 (4)
0x7a0|00                                             |.               |        dst: 0 (valid) 0x7a0-0x7a1 (1)
0x7a0|   08                                          | .              |        idx: 8 (valid) 0x7a1-0x7a2 (1)
     |                                               |                |      [3]{}: local_time_type 0x7a2-0x7a8 (6)
0x7a0|      00 00 2a 30                              |  ..*0          |        utoff: 10800 (valid) 0x7a2-0x7a6 (4)
0x7a0|                  00                           |      .         |        dst: 0 (valid) 0x7a6-0x7a7 (1)
0x7a0|                     0c                        |       .        |        idx: 12 (valid) 0x7a7-0x7a8 (1)
     |                                               |                |      [4]{}: local_time_type 0x7a8-0x7ae (6)
0x7a0|                        00 00 0e 10            |        ....    |        utoff: 3600 (valid) 0x7a8-0x7ac (4)
0x7a0|                                    00         |            .   |        dst: 0 (valid) 0x7ac-0x7ad (1)
0x7a0|                                       10      |             .  |        idx: 16 (valid) 0x7ad-0x7ae (1)
     |                                               |                |      [5]{}: local_time_type 0x7ae-0x7b4 (6)
0x7a0|                                          00 00|              ..|        utoff: 7200 (valid) 0x7ae-0x7b2 (4)
0x7b0|1c 20                                          |.               |
0x7b0|      01                                       |  .             |        dst: 1 (valid) 0x7b2-0x7b3 (1)
0x7b0|         14                                    |   .            |        idx: 20 (valid) 0x7b3-0x7b4 (1)
     |                                               |                |      [6]{}: local_time_type 0x7b4-0x7ba (6)
0x7b0|            00 00 1c 20                        |    ...         |        utoff: 7200 (valid) 0x7b4-0x7b8 (4)
0x7b0|                        01                     |        .       |        dst: 1 (valid) 0x7b8-0x7b9 (1)
0x7b0|                           14                  |         .      |        idx: 20 (valid) 0x7b9-0x7ba (1)
     |                                               |                |      [7]{}: local_time_type 0x7ba-0x7c0 (6)
0x7b0|                              00 00 38 40      |          ..8@  |        utoff: 14400 (valid) 0x7ba-0x7be (4)
0x7b0|                                          01   |              . |        dst: 1 (valid) 0x7be-0x7bf (1)
0x7b0|                                             19|               .|        idx: 25 (valid) 0x7bf-0x7c0 (1)
     |                                               |                |      [8]{}: local_time_type 0x7c0-0x7c6 (6)
0x7c0|00 00 2a 30                                    |..*0            |        utoff: 10800 (valid) 0x7c0-0x7c4 (4)
0x7c0|            00                                 |    .           |        dst: 0 (valid) 0x7c4-0x7c5 (1)
0x7c0|               0c                              |     .          |        idx: 12 (valid) 0x7c5-0x7c6 (1)
     |                                               |                |      [9]{}: local_time_type 0x7c6-0x7cc (6)
0x7c0|                  00 00 38 40                  |      ..8@      |        utoff: 14400 (valid) 0x7c6-0x7ca (4)
0x7c0|                              01               |          .     |        dst: 1 (valid) 0x7ca-0x7cb (1)
0x7c0|                                 19            |           .    |        idx: 25 (valid) 0x7cb-0x7cc (1)
     |                                               |                |      [10]{}: local_time_type 0x7cc-0x7d2 (6)
0x7c0|                                    00 00 2a 30|            ..*0|        utoff: 10800 (valid) 0x7cc-0x7d0 (4)
0x7d0|01                                             |.               |        dst: 1 (valid) 0x7d0-0x7d1 (1)
0x7d0|   1d                                          | .              |        idx: 29 (valid) 0x7d1-0x7d2 (1)
     |                                               |                |      [11]{}: local_time_type 0x7d2-0x7d8 (6)
0x7d0|      00 00 1c 20                              |  ...           |        utoff: 7200 (valid) 0x7d2-0x7d6 (4)
0x7d0|                  00                           |      .         |        dst: 0 (valid) 0x7d6-0x7d7 (1)
0x7d0|                     08                        |       .        |        idx: 8 (valid) 0x7d7-0x7d8 (1)
     |                                               |                |      [12]{}: local_time_type 0x7d8-0x7de (6)
0x7d0|                        00 00 2a 30            |        ..*0    |        utoff: 10800 (valid) 0x7d8-0x7dc (4)
0x7d0|                                    01         |            .   |        dst: 1 (valid) 0x7dc-0x7dd (1)
0x7d0|                                       1d      |             .  |        idx: 29 (valid) 0x7dd-0x7de (1)
     |                                               |                |      [13]{}: local_time_type 0x7de-0x7e4 (6)
0x7d0|                                          00 00|              ..|        utoff: 7200 (valid) 0x7de-0x7e2 (4)
0x7e0|1c 20                                          |.               |
0x7e0|      00                                       |  .             |        dst: 0 (valid) 0x7e2-0x7e3 (1)
0x7e0|         08                                    |   .            |        idx: 8 (valid) 0x7e3-0x7e4 (1)
     |                                               |                |      [14]{}: local_time_type 0x7e4-0x7ea (6)
0x7e0|            00 00 2a 30                        |    ..*0        |        utoff: 10800 (valid) 0x7e4-0x7e8 (4)
0x7e0|                        01                     |        .       |        dst: 1 (valid) 0x7e8-0x7e9 (1)
0x7e0|                           1d                  |         .      |        idx: 29 (valid) 0x7e9-0x7ea (1)
     |                                               |                |    time_zone_designations[0:8]: 0x7ea-0x80c (34)
0x7e0|                              4c 4d 54 00      |          LMT.  |      [0]: "LMT" time_zone_designation 0x7ea-0x7ee (4)
0x7e0|                                          4b 4d|              KM|      [1]: "KMT" time_zone_designation 0x7ee-0x7f2 (4)
0x7f0|54 00                                          |T.              |
0x7f0|      45 45 54 00                              |  EET.          |      [2]: "EET" time_zone_designation 0x7f2-0x7f6 (4)
0x7f0|                  4d 53 4b 00                  |      MSK.      |      [3]: "MSK" time_zone_designation 0x7f6-0x7fa (4)
0x7f0|                              43 45 54 00      |          CET.  |      [4]: "CET" time_zone_designation 0x7fa-0x7fe (4)
0x7f0|                                          43 45|              CE|      [5]: "CEST" time_zone_designation 0x7fe-0x803 (5)
0x800|53 54 00                                       |ST.             |
0x800|         4d 53 44 00                           |   MSD.         |      [6]: "MSD" time_zone_designation 0x803-0x807 (4)
0x800|                     45 45 53 54 00            |       EEST.    |      [7]: "EEST" time_zone_designation 0x807-0x80c (5)
     |                                               |                |    leap_second_records[0:0]: 0x80c-0x80c (0)
     |                                               |                |    standard_wall_indicators[0:15]: 0x80c-0x81b (15)
0x800|                                    00         |            .   |      [0]: 0 standard_wall_indicator (valid) 0x80c-0x80d (1)
0x800|                                       00      |             .  |      [1]: 0 standard_wall_indicator (valid) 0x80d-0x80e (1)
0x800|                                          00   |              . |      [2]: 0 standard_wall_indicator (valid) 0x80e-0x80f (1)
0x800|                                             00|               .|      [3]: 0 standard_wall_indicator (valid) 0x80f-0x810 (1)
0x810|01                                             |.               |      [4]: 1 standard_wall_indicator (valid) 0x810-0x811 (1)
0x810|   01                                          | .              |      [5]: 1 standard_wall_indicator (valid) 0x811-0x812 (1)
0x810|      00                                       |  .             |      [6]: 0 standard_wall_indicator (valid) 0x812-0x813 (1)
0x810|         00                                    |   .            |      [7]: 0 standard_wall_indicator (valid) 0x813-0x814 (1)
0x810|            01                                 |    .           |      [8]: 1 standard_wall_indicator (valid) 0x814-0x815 (1)
0x810|               01                              |     .          |      [9]: 1 standard_wall_indicator (valid) 0x815-0x816 (1)
0x810|                  00                           |      .         |      [10]: 0 standard_wall_indicator (valid) 0x816-0x817 (1)
0x810|                     01                        |       .        |      [11]: 1 standard_wall_indicator (valid) 0x817-0x818 (1)
0x810|                        01                     |        .       |      [12]: 1 standard_wall_indicator (valid) 0x818-0x819 (1)
0x810|                           01                  |         .      |      [13]: 1 standard_wall_indicator (valid) 0x819-0x81a (1)
0x810|                              01               |          .     |      [14]: 1 standard_wall_indicator (valid) 0x81a-0x81b (1)
     |                                               |                |    ut_local_indicators[0:15]: 0x81b-0x82a (15)
0x810|                                 00            |           .    |      [0]: 0 ut_local_indicator (valid) 0x81b-0x81c (1)
0x810|                                    00         |            .   |      [1]: 0 ut_local_indicator (valid) 0x81c-0x81d (1)
0x810|                                       00      |             .  |      [2]: 0 ut_local_indicator (valid) 0x81d-0x81e (1)
0x810|                                          00   |              . |      [3]: 0 ut_local_indicator (valid) 0x81e-0x81f (1)
0x810|                                             00|               .|      [4]: 0 ut_local_indicator (valid) 0x81f-0x820 (1)
0x820|00                                             |.               |      [5]: 0 ut_local_indicator (valid) 0x820-0x821 (1)
0x820|   00                                          | .              |      [6]: 0 ut_local_indicator (valid) 0x821-0x822 (1)
0x820|      00                                       |  .             |      [7]: 0 ut_local_indicator (valid) 0x822-0x823 (1)
0x820|         00                                    |   .            |      [8]: 0 ut_local_indicator (valid) 0x823-0x824 (1)
0x820|            00                                 |    .           |      [9]: 0 ut_local_indicator (valid) 0x824-0x825 (1)
0x820|               00                              |     .          |      [10]: 0 ut_local_indicator (valid) 0x825-0x826 (1)
0x820|                  00                           |      .         |      [11]: 0 ut_local_indicator (valid) 0x826-0x827 (1)
0x820|                     00                        |       .        |      [12]: 0 ut_local_indicator (valid) 0x827-0x828 (1)
0x820|                        01                     |        .       |      [13]: 1 ut_local_indicator (valid) 0x828-0x829 (1)
0x820|                           01                  |         .      |      [14]: 1 ut_local_indicator (valid) 0x829-0x82a (1)
     |                                               |                |  footer{}: 0x82a-0x848 (30)
0x820|                              0a               |          .     |    nl1: 10 (valid) 0x82a-0x82b (1)
0x820|                                 45 45 54 2d 32|           EET-2|    tz_string: "EET-2EEST,M3.5.0/3,M10.5.0/4" 0x82b-0x847 (28)
0x830|45 45 53 54 2c 4d 33 2e 35 2e 30 2f 33 2c 4d 31|EEST,M3.5.0/3,M1|
0x840|30 2e 35 2e 30 2f 34                           |0.5.0/4         |
0x840|                     0a|                       |       .|       |    nl2: 10 (valid) 0x847-0x848 (1)
