$ fq -d tzif dv Lagos
    |00 01 02 03 04 05 06 07 08 09 0a 0b 0c 0d 0e 0f|0123456789abcdef|.{}: Lagos (tzif) 0x0-0xea.7 (235)
    |                                               |                |  v1header{}: 0x0-0x2b.7 (44)
0x00|54 5a 69 66                                    |TZif            |    magic: 0x545a6966 (valid) 0x0-0x3.7 (4)
0x00|            32                                 |    2           |    ver: "2" (0x32) (valid) 0x4-0x4.7 (1)
0x00|               00 00 00 00 00 00 00 00 00 00 00|     ...........|    reserved: raw bits 0x5-0x13.7 (15)
0x10|00 00 00 00                                    |....            |
0x10|            00 00 00 00                        |    ....        |    isutcnt: 0 0x14-0x17.7 (4)
0x10|                        00 00 00 00            |        ....    |    isstdcnt: 0 0x18-0x1b.7 (4)
0x10|                                    00 00 00 00|            ....|    leapcnt: 0 0x1c-0x1f.7 (4)
0x20|00 00 00 04                                    |....            |    timecnt: 4 0x20-0x23.7 (4)
0x20|            00 00 00 04                        |    ....        |    typecnt: 4 0x24-0x27.7 (4)
0x20|                        00 00 00 12            |        ....    |    charcnt: 18 0x28-0x2b.7 (4)
    |                                               |                |  v1datablock{}: 0x2c-0x69.7 (62)
    |                                               |                |    transition_times[0:4]: 0x2c-0x3b.7 (16)
0x20|                                    86 ab 70 d1|            ..p.|      [0]: "1905-06-30T23:46:25Z" (-2035584815) transition_time 0x2c-0x2f.7 (4)
0x30|8c 50 60 00                                    |.P`.            |      [1]: "1908-07-01T00:00:00Z" (-1940889600) transition_time 0x30-0x33.7 (4)
0x30|            96 aa 43 d1                        |    ..C.        |      [2]: "1913-12-31T23:46:25Z" (-1767226415) transition_time 0x34-0x37.7 (4)
0x30|                        a1 51 ef 78            |        .Q.x    |      [3]: "1919-08-31T23:30:00Z" (-1588465800) transition_time 0x38-0x3b.7 (4)
    |                                               |                |    transition_types[0:4]: 0x3c-0x3f.7 (4)
0x30|                                    01         |            .   |      [0]: 1 transition_type 0x3c-0x3c.7 (1)
0x30|                                       00      |             .  |      [1]: 0 transition_type 0x3d-0x3d.7 (1)
0x30|                                          02   |              . |      [2]: 2 transition_type 0x3e-0x3e.7 (1)
0x30|                                             03|               .|      [3]: 3 transition_type 0x3f-0x3f.7 (1)
    |                                               |                |    local_time_type_records[0:4]: 0x40-0x57.7 (24)
    |                                               |                |      [0]{}: local_time_type 0x40-0x45.7 (6)
0x40|00 00 03 2f                                    |.../            |        utoff: 815 (valid) 0x40-0x43.7 (4)
0x40|            00                                 |    .           |        dst: 0 (valid) 0x44-0x44.7 (1)
0x40|               00                              |     .          |        idx: 0 (valid) 0x45-0x45.7 (1)
    |                                               |                |      [1]{}: local_time_type 0x46-0x4b.7 (6)
0x40|                  00 00 00 00                  |      ....      |        utoff: 0 (valid) 0x46-0x49.7 (4)
0x40|                              00               |          .     |        dst: 0 (valid) 0x4a-0x4a.7 (1)
0x40|                                 04            |           .    |        idx: 4 (valid) 0x4b-0x4b.7 (1)
    |                                               |                |      [2]{}: local_time_type 0x4c-0x51.7 (6)
0x40|                                    00 00 07 08|            ....|        utoff: 1800 (valid) 0x4c-0x4f.7 (4)
0x50|00                                             |.               |        dst: 0 (valid) 0x50-0x50.7 (1)
0x50|   08                                          | .              |        idx: 8 (valid) 0x51-0x51.7 (1)
    |                                               |                |      [3]{}: local_time_type 0x52-0x57.7 (6)
0x50|      00 00 0e 10                              |  ....          |        utoff: 3600 (valid) 0x52-0x55.7 (4)
0x50|                  00                           |      .         |        dst: 0 (valid) 0x56-0x56.7 (1)
0x50|                     0e                        |       .        |        idx: 14 (valid) 0x57-0x57.7 (1)
    |                                               |                |    time_zone_designations[0:4]: 0x58-0x69.7 (18)
0x50|                        4c 4d 54 00            |        LMT.    |      [0]: "LMT" time_zone_designation 0x58-0x5b.7 (4)
0x50|                                    47 4d 54 00|            GMT.|      [1]: "GMT" time_zone_designation 0x5c-0x5f.7 (4)
0x60|2b 30 30 33 30 00                              |+0030.          |      [2]: "+0030" time_zone_designation 0x60-0x65.7 (6)
0x60|                  57 41 54 00                  |      WAT.      |      [3]: "WAT" time_zone_designation 0x66-0x69.7 (4)
    |                                               |                |    leap_second_records[0:0]: 0x6a-NA (0)
    |                                               |                |    standard_wall_indicators[0:0]: 0x6a-NA (0)
    |                                               |                |    ut_local_indicators[0:0]: 0x6a-NA (0)
    |                                               |                |  v2plusheader{}: 0x6a-0x95.7 (44)
0x60|                              54 5a 69 66      |          TZif  |    magic: 0x545a6966 (valid) 0x6a-0x6d.7 (4)
0x60|                                          32   |              2 |    ver: "2" (0x32) (valid) 0x6e-0x6e.7 (1)
0x60|                                             00|               .|    reserved: raw bits 0x6f-0x7d.7 (15)
0x70|00 00 00 00 00 00 00 00 00 00 00 00 00 00      |..............  |
0x70|                                          00 00|              ..|    isutcnt: 0 0x7e-0x81.7 (4)
0x80|00 00                                          |..              |
0x80|      00 00 00 00                              |  ....          |    isstdcnt: 0 0x82-0x85.7 (4)
0x80|                  00 00 00 00                  |      ....      |    leapcnt: 0 0x86-0x89.7 (4)
0x80|                              00 00 00 04      |          ....  |    timecnt: 4 0x8a-0x8d.7 (4)
0x80|                                          00 00|              ..|    typecnt: 4 0x8e-0x91.7 (4)
0x90|00 04                                          |..              |
0x90|      00 00 00 12                              |  ....          |    charcnt: 18 0x92-0x95.7 (4)
    |                                               |                |  v2plusdatablock{}: 0x96-0xe3.7 (78)
    |                                               |                |    transition_times[0:4]: 0x96-0xb5.7 (32)
0x90|                  ff ff ff ff 86 ab 70 d1      |      ......p.  |      [0]: "1905-06-30T23:46:25Z" (-2035584815) transition_time 0x96-0x9d.7 (8)
0x90|                                          ff ff|              ..|      [1]: "1908-07-01T00:00:00Z" (-1940889600) transition_time 0x9e-0xa5.7 (8)
0xa0|ff ff 8c 50 60 00                              |...P`.          |
0xa0|                  ff ff ff ff 96 aa 43 d1      |      ......C.  |      [2]: "1913-12-31T23:46:25Z" (-1767226415) transition_time 0xa6-0xad.7 (8)
0xa0|                                          ff ff|              ..|      [3]: "1919-08-31T23:30:00Z" (-1588465800) transition_time 0xae-0xb5.7 (8)
0xb0|ff ff a1 51 ef 78                              |...Q.x          |
    |                                               |                |    transition_types[0:4]: 0xb6-0xb9.7 (4)
0xb0|                  01                           |      .         |      [0]: 1 transition_type 0xb6-0xb6.7 (1)
0xb0|                     00                        |       .        |      [1]: 0 transition_type 0xb7-0xb7.7 (1)
0xb0|                        02                     |        .       |      [2]: 2 transition_type 0xb8-0xb8.7 (1)
0xb0|                           03                  |         .      |      [3]: 3 transition_type 0xb9-0xb9.7 (1)
    |                                               |                |    local_time_type_records[0:4]: 0xba-0xd1.7 (24)
    |                                               |                |      [0]{}: local_time_type 0xba-0xbf.7 (6)
0xb0|                              00 00 03 2f      |          .../  |        utoff: 815 (valid) 0xba-0xbd.7 (4)
0xb0|                                          00   |              . |        dst: 0 (valid) 0xbe-0xbe.7 (1)
0xb0|                                             00|               .|        idx: 0 (valid) 0xbf-0xbf.7 (1)
    |                                               |                |      [1]{}: local_time_type 0xc0-0xc5.7 (6)
0xc0|00 00 00 00                                    |....            |        utoff: 0 (valid) 0xc0-0xc3.7 (4)
0xc0|            00                                 |    .           |        dst: 0 (valid) 0xc4-0xc4.7 (1)
0xc0|               04                              |     .          |        idx: 4 (valid) 0xc5-0xc5.7 (1)
    |                                               |                |      [2]{}: local_time_type 0xc6-0xcb.7 (6)
0xc0|                  00 00 07 08                  |      ....      |        utoff: 1800 (valid) 0xc6-0xc9.7 (4)
0xc0|                              00               |          .     |        dst: 0 (valid) 0xca-0xca.7 (1)
0xc0|                                 08            |           .    |        idx: 8 (valid) 0xcb-0xcb.7 (1)
    |                                               |                |      [3]{}: local_time_type 0xcc-0xd1.7 (6)
0xc0|                                    00 00 0e 10|            ....|        utoff: 3600 (valid) 0xcc-0xcf.7 (4)
0xd0|00                                             |.               |        dst: 0 (valid) 0xd0-0xd0.7 (1)
0xd0|   0e                                          | .              |        idx: 14 (valid) 0xd1-0xd1.7 (1)
    |                                               |                |    time_zone_designations[0:4]: 0xd2-0xe3.7 (18)
0xd0|      4c 4d 54 00                              |  LMT.          |      [0]: "LMT" time_zone_designation 0xd2-0xd5.7 (4)
0xd0|                  47 4d 54 00                  |      GMT.      |      [1]: "GMT" time_zone_designation 0xd6-0xd9.7 (4)
0xd0|                              2b 30 30 33 30 00|          +0030.|      [2]: "+0030" time_zone_designation 0xda-0xdf.7 (6)
0xe0|57 41 54 00                                    |WAT.            |      [3]: "WAT" time_zone_designation 0xe0-0xe3.7 (4)
    |                                               |                |    leap_second_records[0:0]: 0xe4-NA (0)
    |                                               |                |    standard_wall_indicators[0:0]: 0xe4-NA (0)
    |                                               |                |    ut_local_indicators[0:0]: 0xe4-NA (0)
    |                                               |                |  footer{}: 0xe4-0xea.7 (7)
0xe0|            0a                                 |    .           |    nl1: 10 (valid) 0xe4-0xe4.7 (1)
0xe0|               57 41 54 2d 31                  |     WAT-1      |    tz_string: "WAT-1" 0xe5-0xe9.7 (5)
0xe0|                              0a|              |          .|    |    nl2: 10 (valid) 0xea-0xea.7 (1)
