$ fq -d tzif dv Lima
     |00 01 02 03 04 05 06 07 08 09 0a 0b 0c 0d 0e 0f|0123456789abcdef|.{}: Lima (tzif) 0x0-0x3ab.7 (940)
     |                                               |                |  v1header{}: 0x0-0x2b.7 (44)
0x000|54 5a 69 66                                    |TZif            |    magic: 0x545a6966 (valid) 0x0-0x3.7 (4)
0x000|            32                                 |    2           |    ver: "2" (0x32) (valid) 0x4-0x4.7 (1)
0x000|               00 00 00 00 00 00 00 00 00 00 00|     ...........|    reserved: raw bits 0x5-0x13.7 (15)
0x010|00 00 00 00                                    |....            |
0x010|            00 00 00 00                        |    ....        |    isutcnt: 0 0x14-0x17.7 (4)
0x010|                        00 00 00 00            |        ....    |    isstdcnt: 0 0x18-0x1b.7 (4)
0x010|                                    00 00 00 1b|            ....|    leapcnt: 27 0x1c-0x1f.7 (4)
0x020|00 00 00 11                                    |....            |    timecnt: 17 0x20-0x23.7 (4)
0x020|            00 00 00 04                        |    ....        |    typecnt: 4 0x24-0x27.7 (4)
0x020|                        00 00 00 0c            |        ....    |    charcnt: 12 0x28-0x2b.7 (4)
     |                                               |                |  v1datablock{}: 0x2c-0x17c.7 (337)
     |                                               |                |    transition_times[0:17]: 0x2c-0x6f.7 (68)
0x020|                                    80 00 00 00|            ....|      [0]: "1901-12-13T20:45:52Z" (-2147483648) transition_time 0x2c-0x2f.7 (4)
0x030|8c 74 40 d4                                    |.t@.            |      [1]: "1908-07-28T05:08:36Z" (-1938538284) transition_time 0x30-0x33.7 (4)
0x030|            c3 cf 4a 50                        |    ..JP        |      [2]: "1938-01-01T05:00:00Z" (-1009825200) transition_time 0x34-0x37.7 (4)
0x030|                        c4 45 e3 40            |        .E.@    |      [3]: "1938-04-01T04:00:00Z" (-1002052800) transition_time 0x38-0x3b.7 (4)
0x030|                                    c5 2f 4a d0|            ./J.|      [4]: "1938-09-25T05:00:00Z" (-986756400) transition_time 0x3c-0x3f.7 (4)
0x040|c6 1f 2d c0                                    |..-.            |      [5]: "1939-03-26T04:00:00Z" (-971035200) transition_time 0x40-0x43.7 (4)
0x040|            c7 0f 2c d0                        |    ..,.        |      [6]: "1939-09-24T05:00:00Z" (-955306800) transition_time 0x44-0x47.7 (4)
0x040|                        c7 ff 0f c0            |        ....    |      [7]: "1940-03-24T04:00:00Z" (-939585600) transition_time 0x48-0x4b.7 (4)
0x040|                                    1e 18 c4 5d|            ...]|      [8]: "1986-01-01T05:00:13Z" (504939613) transition_time 0x4c-0x4f.7 (4)
0x050|1e 8f 5d 4d                                    |..]M            |      [9]: "1986-04-01T04:00:13Z" (512712013) transition_time 0x50-0x53.7 (4)
0x050|            1f f9 f7 dd                        |    ....        |      [10]: "1987-01-01T05:00:13Z" (536475613) transition_time 0x54-0x57.7 (4)
0x050|                        20 70 90 cd            |         p..    |      [11]: "1987-04-01T04:00:13Z" (544248013) transition_time 0x58-0x5b.7 (4)
0x050|                                    25 9e e3 df|            %...|      [12]: "1990-01-01T05:00:15Z" (631170015) transition_time 0x5c-0x5f.7 (4)
0x060|26 15 7c cf                                    |&.|.            |      [13]: "1990-04-01T04:00:15Z" (638942415) transition_time 0x60-0x63.7 (4)
0x060|            2d 25 03 62                        |    -%.b        |      [14]: "1994-01-01T05:00:18Z" (757400418) transition_time 0x64-0x67.7 (4)
0x060|                        2d 9b 9c 52            |        -..R    |      [15]: "1994-04-01T04:00:18Z" (765172818) transition_time 0x68-0x6b.7 (4)
0x060|                                    64 9b 78 1b|            d.x.|      [16]: "2023-06-28T00:00:27Z" (1687910427) transition_time 0x6c-0x6f.7 (4)
     |                                               |                |    transition_types[0:17]: 0x70-0x80.7 (17)
0x070|01                                             |.               |      [0]: 1 transition_type 0x70-0x70.7 (1)
0x070|   03                                          | .              |      [1]: 3 transition_type 0x71-0x71.7 (1)
0x070|      02                                       |  .             |      [2]: 2 transition_type 0x72-0x72.7 (1)
0x070|         03                                    |   .            |      [3]: 3 transition_type 0x73-0x73.7 (1)
0x070|            02                                 |    .           |      [4]: 2 transition_type 0x74-0x74.7 (1)
0x070|               03                              |     .          |      [5]: 3 transition_type 0x75-0x75.7 (1)
0x070|                  02                           |      .         |      [6]: 2 transition_type 0x76-0x76.7 (1)
0x070|                     03                        |       .        |      [7]: 3 transition_type 0x77-0x77.7 (1)
0x070|                        02                     |        .       |      [8]: 2 transition_type 0x78-0x78.7 (1)
0x070|                           03                  |         .      |      [9]: 3 transition_type 0x79-0x79.7 (1)
0x070|                              02               |          .     |      [10]: 2 transition_type 0x7a-0x7a.7 (1)
0x070|                                 03            |           .    |      [11]: 3 transition_type 0x7b-0x7b.7 (1)
0x070|                                    02         |            .   |      [12]: 2 transition_type 0x7c-0x7c.7 (1)
0x070|                                       03      |             .  |      [13]: 3 transition_type 0x7d-0x7d.7 (1)
0x070|                                          02   |              . |      [14]: 2 transition_type 0x7e-0x7e.7 (1)
0x070|                                             03|               .|      [15]: 3 transition_type 0x7f-0x7f.7 (1)
0x080|03                                             |.               |      [16]: 3 transition_type 0x80-0x80.7 (1)
     |                                               |                |    local_time_type_records[0:4]: 0x81-0x98.7 (24)
     |                                               |                |      [0]{}: local_time_type 0x81-0x86.7 (6)
0x080|   ff ff b7 c4                                 | ....           |        utoff: -18492 (valid) 0x81-0x84.7 (4)
0x080|               00                              |     .          |        dst: 0 (valid) 0x85-0x85.7 (1)
0x080|                  00                           |      .         |        idx: 0 (valid) 0x86-0x86.7 (1)
     |                                               |                |      [1]{}: local_time_type 0x87-0x8c.7 (6)
0x080|                     ff ff b7 ac               |       ....     |        utoff: -18516 (valid) 0x87-0x8a.7 (4)
0x080|                                 00            |           .    |        dst: 0 (valid) 0x8b-0x8b.7 (1)
0x080|                                    00         |            .   |        idx: 0 (valid) 0x8c-0x8c.7 (1)
     |                                               |                |      [2]{}: local_time_type 0x8d-0x92.7 (6)
0x080|                                       ff ff c7|             ...|        utoff: -14400 (valid) 0x8d-0x90.7 (4)
0x090|c0                                             |.               |
0x090|   01                                          | .              |        dst: 1 (valid) 0x91-0x91.7 (1)
0x090|      04                                       |  .             |        idx: 4 (valid) 0x92-0x92.7 (1)
     |                                               |                |      [3]{}: local_time_type 0x93-0x98.7 (6)
0x090|         ff ff b9 b0                           |   ....         |        utoff: -18000 (valid) 0x93-0x96.7 (4)
0x090|                     00                        |       .        |        dst: 0 (valid) 0x97-0x97.7 (1)
0x090|                        08                     |        .       |        idx: 8 (valid) 0x98-0x98.7 (1)
     |                                               |                |    time_zone_designations[0:3]: 0x99-0xa4.7 (12)
0x090|                           4c 4d 54 00         |         LMT.   |      [0]: "LMT" time_zone_designation 0x99-0x9c.7 (4)
0x090|                                       2d 30 34|             -04|      [1]: "-04" time_zone_designation 0x9d-0xa0.7 (4)
0x0a0|00                                             |.               |
0x0a0|   2d 30 35 00                                 | -05.           |      [2]: "-05" time_zone_designation 0xa1-0xa4.7 (4)
     |                                               |                |    leap_second_records[0:27]: 0xa5-0x17c.7 (216)
     |                                               |                |      [0]{}: leap_second_record 0xa5-0xac.7 (8)
0x0a0|               04 b2 58 00                     |     ..X.       |        occur: "1972-07-01T00:00:00Z" (78796800) 0xa5-0xa8.7 (4)
0x0a0|                           00 00 00 01         |         ....   |        corr: 1 0xa9-0xac.7 (4)
     |                                               |                |      [1]{}: leap_second_record 0xad-0xb4.7 (8)
0x0a0|                                       05 a4 ec|             ...|        occur: "1973-01-01T00:00:01Z" (94694401) 0xad-0xb0.7 (4)
0x0b0|01                                             |.               |
0x0b0|   00 00 00 02                                 | ....           |        corr: 2 0xb1-0xb4.7 (4)
     |                                               |                |      [2]{}: leap_second_record 0xb5-0xbc.7 (8)
0x0b0|               07 86 1f 82                     |     ....       |        occur: "1974-01-01T00:00:02Z" (126230402) 0xb5-0xb8.7 (4)
0x0b0|                           00 00 00 03         |         ....   |        corr: 3 0xb9-0xbc.7 (4)
     |                                               |                |      [3]{}: leap_second_record 0xbd-0xc4.7 (8)
0x0b0|                                       09 67 53|             .gS|        occur: "1975-01-01T00:00:03Z" (157766403) 0xbd-0xc0.7 (4)
0x0c0|03                                             |.               |
0x0c0|   00 00 00 04                                 | ....           |        corr: 4 0xc1-0xc4.7 (4)
     |                                               |                |      [4]{}: leap_second_record 0xc5-0xcc.7 (8)
0x0c0|               0b 48 86 84                     |     .H..       |        occur: "1976-01-01T00:00:04Z" (189302404) 0xc5-0xc8.7 (4)
0x0c0|                           00 00 00 05         |         ....   |        corr: 5 0xc9-0xcc.7 (4)
     |                                               |                |      [5]{}: leap_second_record 0xcd-0xd4.7 (8)
0x0c0|                                       0d 2b 0b|             .+.|        occur: "1977-01-01T00:00:05Z" (220924805) 0xcd-0xd0.7 (4)
0x0d0|85                                             |.               |
0x0d0|   00 00 00 06                                 | ....           |        corr: 6 0xd1-0xd4.7 (4)
     |                                               |                |      [6]{}: leap_second_record 0xd5-0xdc.7 (8)
0x0d0|               0f 0c 3f 06                     |     ..?.       |        occur: "1978-01-01T00:00:06Z" (252460806) 0xd5-0xd8.7 (4)
0x0d0|                           00 00 00 07         |         ....   |        corr: 7 0xd9-0xdc.7 (4)
     |                                               |                |      [7]{}: leap_second_record 0xdd-0xe4.7 (8)
0x0d0|                                       10 ed 72|             ..r|        occur: "1979-01-01T00:00:07Z" (283996807) 0xdd-0xe0.7 (4)
0x0e0|87                                             |.               |
0x0e0|   00 00 00 08                                 | ....           |        corr: 8 0xe1-0xe4.7 (4)
     |                                               |                |      [8]{}: leap_second_record 0xe5-0xec.7 (8)
0x0e0|               12 ce a6 08                     |     ....       |        occur: "1980-01-01T00:00:08Z" (315532808) 0xe5-0xe8.7 (4)
0x0e0|                           00 00 00 09         |         ....   |        corr: 9 0xe9-0xec.7 (4)
     |                                               |                |      [9]{}: leap_second_record 0xed-0xf4.7 (8)
0x0e0|                                       15 9f ca|             ...|        occur: "1981-07-01T00:00:09Z" (362793609) 0xed-0xf0.7 (4)
0x0f0|89                                             |.               |
0x0f0|   00 00 00 0a                                 | ....           |        corr: 10 0xf1-0xf4.7 (4)
     |                                               |                |      [10]{}: leap_second_record 0xf5-0xfc.7 (8)
0x0f0|               17 80 fe 0a                     |     ....       |        occur: "1982-07-01T00:00:10Z" (394329610) 0xf5-0xf8.7 (4)
0x0f0|                           00 00 00 0b         |         ....   |        corr: 11 0xf9-0xfc.7 (4)
     |                                               |                |      [11]{}: leap_second_record 0xfd-0x104.7 (8)
0x0f0|                                       19 62 31|             .b1|        occur: "1983-07-01T00:00:11Z" (425865611) 0xfd-0x100.7 (4)
0x100|8b                                             |.               |
0x100|   00 00 00 0c                                 | ....           |        corr: 12 0x101-0x104.7 (4)
     |                                               |                |      [12]{}: leap_second_record 0x105-0x10c.7 (8)
0x100|               1d 25 ea 0c                     |     .%..       |        occur: "1985-07-01T00:00:12Z" (489024012) 0x105-0x108.7 (4)
0x100|                           00 00 00 0d         |         ....   |        corr: 13 0x109-0x10c.7 (4)
     |                                               |                |      [13]{}: leap_second_record 0x10d-0x114.7 (8)
0x100|                                       21 da e5|             !..|        occur: "1988-01-01T00:00:13Z" (567993613) 0x10d-0x110.7 (4)
0x110|0d                                             |.               |
0x110|   00 00 00 0e                                 | ....           |        corr: 14 0x111-0x114.7 (4)
     |                                               |                |      [14]{}: leap_second_record 0x115-0x11c.7 (8)
0x110|               25 9e 9d 8e                     |     %...       |        occur: "1990-01-01T00:00:14Z" (631152014) 0x115-0x118.7 (4)
0x110|                           00 00 00 0f         |         ....   |        corr: 15 0x119-0x11c.7 (4)
     |                                               |                |      [15]{}: leap_second_record 0x11d-0x124.7 (8)
0x110|                                       27 7f d1|             '..|        occur: "1991-01-01T00:00:15Z" (662688015) 0x11d-0x120.7 (4)
0x120|0f                                             |.               |
0x120|   00 00 00 10                                 | ....           |        corr: 16 0x121-0x124.7 (4)
     |                                               |                |      [16]{}: leap_second_record 0x125-0x12c.7 (8)
0x120|               2a 50 f5 90                     |     *P..       |        occur: "1992-07-01T00:00:16Z" (709948816) 0x125-0x128.7 (4)
0x120|                           00 00 00 11         |         ....   |        corr: 17 0x129-0x12c.7 (4)
     |                                               |                |      [17]{}: leap_second_record 0x12d-0x134.7 (8)
0x120|                                       2c 32 29|             ,2)|        occur: "1993-07-01T00:00:17Z" (741484817) 0x12d-0x130.7 (4)
0x130|11                                             |.               |
0x130|   00 00 00 12                                 | ....           |        corr: 18 0x131-0x134.7 (4)
     |                                               |                |      [18]{}: leap_second_record 0x135-0x13c.7 (8)
0x130|               2e 13 5c 92                     |     ..\.       |        occur: "1994-07-01T00:00:18Z" (773020818) 0x135-0x138.7 (4)
0x130|                           00 00 00 13         |         ....   |        corr: 19 0x139-0x13c.7 (4)
     |                                               |                |      [19]{}: leap_second_record 0x13d-0x144.7 (8)
0x130|                                       30 e7 24|             0.$|        occur: "1996-01-01T00:00:19Z" (820454419) 0x13d-0x140.7 (4)
0x140|13                                             |.               |
0x140|   00 00 00 14                                 | ....           |        corr: 20 0x141-0x144.7 (4)
     |                                               |                |      [20]{}: leap_second_record 0x145-0x14c.7 (8)
0x140|               33 b8 48 94                     |     3.H.       |        occur: "1997-07-01T00:00:20Z" (867715220) 0x145-0x148.7 (4)
0x140|                           00 00 00 15         |         ....   |        corr: 21 0x149-0x14c.7 (4)
     |                                               |                |      [21]{}: leap_second_record 0x14d-0x154.7 (8)
0x140|                                       36 8c 10|             6..|        occur: "1999-01-01T00:00:21Z" (915148821) 0x14d-0x150.7 (4)
0x150|15                                             |.               |
0x150|   00 00 00 16                                 | ....           |        corr: 22 0x151-0x154.7 (4)
     |                                               |                |      [22]{}: leap_second_record 0x155-0x15c.7 (8)
0x150|               43 b7 1b 96                     |     C...       |        occur: "2006-01-01T00:00:22Z" (1136073622) 0x155-0x158.7 (4)
0x150|                           00 00 00 17         |         ....   |        corr: 23 0x159-0x15c.7 (4)
     |                                               |                |      [23]{}: leap_second_record 0x15d-0x164.7 (8)
0x150|                                       49 5c 07|             I\.|        occur: "2009-01-01T00:00:23Z" (1230768023) 0x15d-0x160.7 (4)
0x160|97                                             |.               |
0x160|   00 00 00 18                                 | ....           |        corr: 24 0x161-0x164.7 (4)
     |                                               |                |      [24]{}: leap_second_record 0x165-0x16c.7 (8)
0x160|               4f ef 93 18                     |     O...       |        occur: "2012-07-01T00:00:24Z" (1341100824) 0x165-0x168.7 (4)
0x160|                           00 00 00 19         |         ....   |        corr: 25 0x169-0x16c.7 (4)
     |                                               |                |      [25]{}: leap_second_record 0x16d-0x174.7 (8)
0x160|                                       55 93 2d|             U.-|        occur: "2015-07-01T00:00:25Z" (1435708825) 0x16d-0x170.7 (4)
0x170|99                                             |.               |
0x170|   00 00 00 1a                                 | ....           |        corr: 26 0x171-0x174.7 (4)
     |                                               |                |      [26]{}: leap_second_record 0x175-0x17c.7 (8)
0x170|               58 68 46 9a                     |     XhF.       |        occur: "2017-01-01T00:00:26Z" (1483228826) 0x175-0x178.7 (4)
0x170|                           00 00 00 1b         |         ....   |        corr: 27 0x179-0x17c.7 (4)
     |                                               |                |    standard_wall_indicators[0:0]: 0x17d-NA (0)
     |                                               |                |    ut_local_indicators[0:0]: 0x17d-NA (0)
     |                                               |                |  v2plusheader{}: 0x17d-0x1a8.7 (44)
0x170|                                       54 5a 69|             TZi|    magic: 0x545a6966 (valid) 0x17d-0x180.7 (4)
0x180|66                                             |f               |
0x180|   32                                          | 2              |    ver: "2" (0x32) (valid) 0x181-0x181.7 (1)
0x180|      00 00 00 00 00 00 00 00 00 00 00 00 00 00|  ..............|    reserved: raw bits 0x182-0x190.7 (15)
0x190|00                                             |.               |
0x190|   00 00 00 00                                 | ....           |    isutcnt: 0 0x191-0x194.7 (4)
0x190|               00 00 00 00                     |     ....       |    isstdcnt: 0 0x195-0x198.7 (4)
0x190|                           00 00 00 1b         |         ....   |    leapcnt: 27 0x199-0x19c.7 (4)
0x190|                                       00 00 00|             ...|    timecnt: 17 0x19d-0x1a0.7 (4)
0x1a0|11                                             |.               |
0x1a0|   00 00 00 04                                 | ....           |    typecnt: 4 0x1a1-0x1a4.7 (4)
0x1a0|               00 00 00 0c                     |     ....       |    charcnt: 12 0x1a5-0x1a8.7 (4)
     |                                               |                |  v2plusdatablock{}: 0x1a9-0x3a9.7 (513)
     |                                               |                |    transition_times[0:17]: 0x1a9-0x230.7 (136)
0x1a0|                           ff ff ff ff 69 87 23|         ....i.#|      [0]: "1890-01-01T05:08:12Z" (-2524503108) transition_time 0x1a9-0x1b0.7 (8)
0x1b0|bc                                             |.               |
0x1b0|   ff ff ff ff 8c 74 40 d4                     | .....t@.       |      [1]: "1908-07-28T05:08:36Z" (-1938538284) transition_time 0x1b1-0x1b8.7 (8)
0x1b0|                           ff ff ff ff c3 cf 4a|         ......J|      [2]: "1938-01-01T05:00:00Z" (-1009825200) transition_time 0x1b9-0x1c0.7 (8)
0x1c0|50                                             |P               |
0x1c0|   ff ff ff ff c4 45 e3 40                     | .....E.@       |      [3]: "1938-04-01T04:00:00Z" (-1002052800) transition_time 0x1c1-0x1c8.7 (8)
0x1c0|                           ff ff ff ff c5 2f 4a|         ...../J|      [4]: "1938-09-25T05:00:00Z" (-986756400) transition_time 0x1c9-0x1d0.7 (8)
0x1d0|d0                                             |.               |
0x1d0|   ff ff ff ff c6 1f 2d c0                     | ......-.       |      [5]: "1939-03-26T04:00:00Z" (-971035200) transition_time 0x1d1-0x1d8.7 (8)
0x1d0|                           ff ff ff ff c7 0f 2c|         ......,|      [6]: "1939-09-24T05:00:00Z" (-955306800) transition_time 0x1d9-0x1e0.7 (8)
0x1e0|d0                                             |.               |
0x1e0|   ff ff ff ff c7 ff 0f c0                     | ........       |      [7]: "1940-03-24T04:00:00Z" (-939585600) transition_time 0x1e1-0x1e8.7 (8)
0x1e0|                           00 00 00 00 1e 18 c4|         .......|      [8]: "1986-01-01T05:00:13Z" (504939613) transition_time 0x1e9-0x1f0.7 (8)
0x1f0|5d                                             |]               |
0x1f0|   00 00 00 00 1e 8f 5d 4d                     | ......]M       |      [9]: "1986-04-01T04:00:13Z" (512712013) transition_time 0x1f1-0x1f8.7 (8)
0x1f0|                           00 00 00 00 1f f9 f7|         .......|      [10]: "1987-01-01T05:00:13Z" (536475613) transition_time 0x1f9-0x200.7 (8)
0x200|dd                                             |.               |
0x200|   00 00 00 00 20 70 90 cd                     | .... p..       |      [11]: "1987-04-01T04:00:13Z" (544248013) transition_time 0x201-0x208.7 (8)
0x200|                           00 00 00 00 25 9e e3|         ....%..|      [12]: "1990-01-01T05:00:15Z" (631170015) transition_time 0x209-0x210.7 (8)
0x210|df                                             |.               |
0x210|   00 00 00 00 26 15 7c cf                     | ....&.|.       |      [13]: "1990-04-01T04:00:15Z" (638942415) transition_time 0x211-0x218.7 (8)
0x210|                           00 00 00 00 2d 25 03|         ....-%.|      [14]: "1994-01-01T05:00:18Z" (757400418) transition_time 0x219-0x220.7 (8)
0x220|62                                             |b               |
0x220|   00 00 00 00 2d 9b 9c 52                     | ....-..R       |      [15]: "1994-04-01T04:00:18Z" (765172818) transition_time 0x221-0x228.7 (8)
0x220|                           00 00 00 00 64 9b 78|         ....d.x|      [16]: "2023-06-28T00:00:27Z" (1687910427) transition_time 0x229-0x230.7 (8)
0x230|1b                                             |.               |
     |                                               |                |    transition_types[0:17]: 0x231-0x241.7 (17)
0x230|   01                                          | .              |      [0]: 1 transition_type 0x231-0x231.7 (1)
0x230|      03                                       |  .             |      [1]: 3 transition_type 0x232-0x232.7 (1)
0x230|         02                                    |   .            |      [2]: 2 transition_type 0x233-0x233.7 (1)
0x230|            03                                 |    .           |      [3]: 3 transition_type 0x234-0x234.7 (1)
0x230|               02                              |     .          |      [4]: 2 transition_type 0x235-0x235.7 (1)
0x230|                  03                           |      .         |      [5]: 3 transition_type 0x236-0x236.7 (1)
0x230|                     02                        |       .        |      [6]: 2 transition_type 0x237-0x237.7 (1)
0x230|                        03                     |        .       |      [7]: 3 transition_type 0x238-0x238.7 (1)
0x230|                           02                  |         .      |      [8]: 2 transition_type 0x239-0x239.7 (1)
0x230|                              03               |          .     |      [9]: 3 transition_type 0x23a-0x23a.7 (1)
0x230|                                 02            |           .    |      [10]: 2 transition_type 0x23b-0x23b.7 (1)
0x230|                                    03         |            .   |      [11]: 3 transition_type 0x23c-0x23c.7 (1)
0x230|                                       02      |             .  |      [12]: 2 transition_type 0x23d-0x23d.7 (1)
0x230|                                          03   |              . |      [13]: 3 transition_type 0x23e-0x23e.7 (1)
0x230|                                             02|               .|      [14]: 2 transition_type 0x23f-0x23f.7 (1)
0x240|03                                             |.               |      [15]: 3 transition_type 0x240-0x240.7 (1)
0x240|   03                                          | .              |      [16]: 3 transition_type 0x241-0x241.7 (1)
     |                                               |                |    local_time_type_records[0:4]: 0x242-0x259.7 (24)
     |                                               |                |      [0]{}: local_time_type 0x242-0x247.7 (6)
0x240|      ff ff b7 c4                              |  ....          |        utoff: -18492 (valid) 0x242-0x245.7 (4)
0x240|                  00                           |      .         |        dst: 0 (valid) 0x246-0x246.7 (1)
0x240|                     00                        |       .        |        idx: 0 (valid) 0x247-0x247.7 (1)
     |                                               |                |      [1]{}: local_time_type 0x248-0x24d.7 (6)
0x240|                        ff ff b7 ac            |        ....    |        utoff: -18516 (valid) 0x248-0x24b.7 (4)
0x240|                                    00         |            .   |        dst: 0 (valid) 0x24c-0x24c.7 (1)
0x240|                                       00      |             .  |        idx: 0 (valid) 0x24d-0x24d.7 (1)
     |                                               |                |      [2]{}: local_time_type 0x24e-0x253.7 (6)
0x240|                                          ff ff|              ..|        utoff: -14400 (valid) 0x24e-0x251.7 (4)
0x250|c7 c0                                          |..              |
0x250|      01                                       |  .             |        dst: 1 (valid) 0x252-0x252.7 (1)
0x250|         04                                    |   .            |        idx: 4 (valid) 0x253-0x253.7 (1)
     |                                               |                |      [3]{}: local_time_type 0x254-0x259.7 (6)
0x250|            ff ff b9 b0                        |    ....        |        utoff: -18000 (valid) 0x254-0x257.7 (4)
0x250|                        00                     |        .       |        dst: 0 (valid) 0x258-0x258.7 (1)
0x250|                           08                  |         .      |        idx: 8 (valid) 0x259-0x259.7 (1)
     |                                               |                |    time_zone_designations[0:3]: 0x25a-0x265.7 (12)
0x250|                              4c 4d 54 00      |          LMT.  |      [0]: "LMT" time_zone_designation 0x25a-0x25d.7 (4)
0x250|                                          2d 30|              -0|      [1]: "-04" time_zone_designation 0x25e-0x261.7 (4)
0x260|34 00                                          |4.              |
0x260|      2d 30 35 00                              |  -05.          |      [2]: "-05" time_zone_designation 0x262-0x265.7 (4)
     |                                               |                |    leap_second_records[0:27]: 0x266-0x3a9.7 (324)
     |                                               |                |      [0]{}: leap_second_record 0x266-0x271.7 (12)
0x260|                  00 00 00 00 04 b2 58 00      |      ......X.  |        occur: "1972-07-01T00:00:00Z" (78796800) 0x266-0x26d.7 (8)
0x260|                                          00 00|              ..|        corr: 1 0x26e-0x271.7 (4)
0x270|00 01                                          |..              |
     |                                               |                |      [1]{}: leap_second_record 0x272-0x27d.7 (12)
0x270|      00 00 00 00 05 a4 ec 01                  |  ........      |        occur: "1973-01-01T00:00:01Z" (94694401) 0x272-0x279.7 (8)
0x270|                              00 00 00 02      |          ....  |        corr: 2 0x27a-0x27d.7 (4)
     |                                               |                |      [2]{}: leap_second_record 0x27e-0x289.7 (12)
0x270|                                          00 00|              ..|        occur: "1974-01-01T00:00:02Z" (126230402) 0x27e-0x285.7 (8)
0x280|00 00 07 86 1f 82                              |......          |
0x280|                  00 00 00 03                  |      ....      |        corr: 3 0x286-0x289.7 (4)
     |                                               |                |      [3]{}: leap_second_record 0x28a-0x295.7 (12)
0x280|                              00 00 00 00 09 67|          .....g|        occur: "1975-01-01T00:00:03Z" (157766403) 0x28a-0x291.7 (8)
0x290|53 03                                          |S.              |
0x290|      00 00 00 04                              |  ....          |        corr: 4 0x292-0x295.7 (4)
     |                                               |                |      [4]{}: leap_second_record 0x296-0x2a1.7 (12)
0x290|                  00 00 00 00 0b 48 86 84      |      .....H..  |        occur: "1976-01-01T00:00:04Z" (189302404) 0x296-0x29d.7 (8)
0x290|                                          00 00|              ..|        corr: 5 0x29e-0x2a1.7 (4)
0x2a0|00 05                                          |..              |
     |                                               |                |      [5]{}: leap_second_record 0x2a2-0x2ad.7 (12)
0x2a0|      00 00 00 00 0d 2b 0b 85                  |  .....+..      |        occur: "1977-01-01T00:00:05Z" (220924805) 0x2a2-0x2a9.7 (8)
0x2a0|                              00 00 00 06      |          ....  |        corr: 6 0x2aa-0x2ad.7 (4)
     |                                               |                |      [6]{}: leap_second_record 0x2ae-0x2b9.7 (12)
0x2a0|                                          00 00|              ..|        occur: "1978-01-01T00:00:06Z" (252460806) 0x2ae-0x2b5.7 (8)
0x2b0|00 00 0f 0c 3f 06                              |....?.          |
0x2b0|                  00 00 00 07                  |      ....      |        corr: 7 0x2b6-0x2b9.7 (4)
     |                                               |                |      [7]{}: leap_second_record 0x2ba-0x2c5.7 (12)
0x2b0|                              00 00 00 00 10 ed|          ......|        occur: "1979-01-01T00:00:07Z" (283996807) 0x2ba-0x2c1.7 (8)
0x2c0|72 87                                          |r.              |
0x2c0|      00 00 00 08                              |  ....          |        corr: 8 0x2c2-0x2c5.7 (4)
     |                                               |                |      [8]{}: leap_second_record 0x2c6-0x2d1.7 (12)
0x2c0|                  00 00 00 00 12 ce a6 08      |      ........  |        occur: "1980-01-01T00:00:08Z" (315532808) 0x2c6-0x2cd.7 (8)
0x2c0|                                          00 00|              ..|        corr: 9 0x2ce-0x2d1.7 (4)
0x2d0|00 09                                          |..              |
     |                                               |                |      [9]{}: leap_second_record 0x2d2-0x2dd.7 (12)
0x2d0|      00 00 00 00 15 9f ca 89                  |  ........      |        occur: "1981-07-01T00:00:09Z" (362793609) 0x2d2-0x2d9.7 (8)
0x2d0|                              00 00 00 0a      |          ....  |        corr: 10 0x2da-0x2dd.7 (4)
     |                                               |                |      [10]{}: leap_second_record 0x2de-0x2e9.7 (12)
0x2d0|                                          00 00|              ..|        occur: "1982-07-01T00:00:10Z" (394329610) 0x2de-0x2e5.7 (8)
0x2e0|00 00 17 80 fe 0a                              |......          |
0x2e0|                  00 00 00 0b                  |      ....      |        corr: 11 0x2e6-0x2e9.7 (4)
     |                                               |                |      [11]{}: leap_second_record 0x2ea-0x2f5.7 (12)
0x2e0|                              00 00 00 00 19 62|          .....b|        occur: "1983-07-01T00:00:11Z" (425865611) 0x2ea-0x2f1.7 (8)
0x2f0|31 8b                                          |1.              |
0x2f0|      00 00 00 0c                              |  ....          |        corr: 12 0x2f2-0x2f5.7 (4)
     |                                               |                |      [12]{}: leap_second_record 0x2f6-0x301.7 (12)
0x2f0|                  00 00 00 00 1d 25 ea 0c      |      .....%..  |        occur: "1985-07-01T00:00:12Z" (489024012) 0x2f6-0x2fd.7 (8)
0x2f0|                                          00 00|              ..|        corr: 13 0x2fe-0x301.7 (4)
0x300|00 0d                                          |..              |
     |                                               |                |      [13]{}: leap_second_record 0x302-0x30d.7 (12)
0x300|      00 00 00 00 21 da e5 0d                  |  ....!...      |        occur: "1988-01-01T00:00:13Z" (567993613) 0x302-0x309.7 (8)
0x300|                              00 00 00 0e      |          ....  |        corr: 14 0x30a-0x30d.7 (4)
     |                                               |                |      [14]{}: leap_second_record 0x30e-0x319.7 (12)
0x300|                                          00 00|              ..|        occur: "1990-01-01T00:00:14Z" (631152014) 0x30e-0x315.7 (8)
0x310|00 00 25 9e 9d 8e                              |..%...          |
0x310|                  00 00 00 0f                  |      ....      |        corr: 15 0x316-0x319.7 (4)
     |                                               |                |      [15]{}: leap_second_record 0x31a-0x325.7 (12)
0x310|                              00 00 00 00 27 7f|          ....'.|        occur: "1991-01-01T00:00:15Z" (662688015) 0x31a-0x321.7 (8)
0x320|d1 0f                                          |..              |
0x320|      00 00 00 10                              |  ....          |        corr: 16 0x322-0x325.7 (4)
     |                                               |                |      [16]{}: leap_second_record 0x326-0x331.7 (12)
0x320|                  00 00 00 00 2a 50 f5 90      |      ....*P..  |        occur: "1992-07-01T00:00:16Z" (709948816) 0x326-0x32d.7 (8)
0x320|                                          00 00|              ..|        corr: 17 0x32e-0x331.7 (4)
0x330|00 11                                          |..              |
     |                                               |                |      [17]{}: leap_second_record 0x332-0x33d.7 (12)
0x330|      00 00 00 00 2c 32 29 11                  |  ....,2).      |        occur: "1993-07-01T00:00:17Z" (741484817) 0x332-0x339.7 (8)
0x330|                              00 00 00 12      |          ....  |        corr: 18 0x33a-0x33d.7 (4)
     |                                               |                |      [18]{}: leap_second_record 0x33e-0x349.7 (12)
0x330|                                          00 00|              ..|        occur: "1994-07-01T00:00:18Z" (773020818) 0x33e-0x345.7 (8)
0x340|00 00 2e 13 5c 92                              |....\.          |
0x340|                  00 00 00 13                  |      ....      |        corr: 19 0x346-0x349.7 (4)
     |                                               |                |      [19]{}: leap_second_record 0x34a-0x355.7 (12)
0x340|                              00 00 00 00 30 e7|          ....0.|        occur: "1996-01-01T00:00:19Z" (820454419) 0x34a-0x351.7 (8)
0x350|24 13                                          |$.              |
0x350|      00 00 00 14                              |  ....          |        corr: 20 0x352-0x355.7 (4)
     |                                               |                |      [20]{}: leap_second_record 0x356-0x361.7 (12)
0x350|                  00 00 00 00 33 b8 48 94      |      ....3.H.  |        occur: "1997-07-01T00:00:20Z" (867715220) 0x356-0x35d.7 (8)
0x350|                                          00 00|              ..|        corr: 21 0x35e-0x361.7 (4)
0x360|00 15                                          |..              |
     |                                               |                |      [21]{}: leap_second_record 0x362-0x36d.7 (12)
0x360|      00 00 00 00 36 8c 10 15                  |  ....6...      |        occur: "1999-01-01T00:00:21Z" (915148821) 0x362-0x369.7 (8)
0x360|                              00 00 00 16      |          ....  |        corr: 22 0x36a-0x36d.7 (4)
     |                                               |                |      [22]{}: leap_second_record 0x36e-0x379.7 (12)
0x360|                                          00 00|              ..|        occur: "2006-01-01T00:00:22Z" (1136073622) 0x36e-0x375.7 (8)
0x370|00 00 43 b7 1b 96                              |..C...          |
0x370|                  00 00 00 17                  |      ....      |        corr: 23 0x376-0x379.7 (4)
     |                                               |                |      [23]{}: leap_second_record 0x37a-0x385.7 (12)
0x370|                              00 00 00 00 49 5c|          ....I\|        occur: "2009-01-01T00:00:23Z" (1230768023) 0x37a-0x381.7 (8)
0x380|07 97                                          |..              |
0x380|      00 00 00 18                              |  ....          |        corr: 24 0x382-0x385.7 (4)
     |                                               |                |      [24]{}: leap_second_record 0x386-0x391.7 (12)
0x380|                  00 00 00 00 4f ef 93 18      |      ....O...  |        occur: "2012-07-01T00:00:24Z" (1341100824) 0x386-0x38d.7 (8)
0x380|                                          00 00|              ..|        corr: 25 0x38e-0x391.7 (4)
0x390|00 19                                          |..              |
     |                                               |                |      [25]{}: leap_second_record 0x392-0x39d.7 (12)
0x390|      00 00 00 00 55 93 2d 99                  |  ....U.-.      |        occur: "2015-07-01T00:00:25Z" (1435708825) 0x392-0x399.7 (8)
0x390|                              00 00 00 1a      |          ....  |        corr: 26 0x39a-0x39d.7 (4)
     |                                               |                |      [26]{}: leap_second_record 0x39e-0x3a9.7 (12)
0x390|                                          00 00|              ..|        occur: "2017-01-01T00:00:26Z" (1483228826) 0x39e-0x3a5.7 (8)
0x3a0|00 00 58 68 46 9a                              |..XhF.          |
0x3a0|                  00 00 00 1b                  |      ....      |        corr: 27 0x3a6-0x3a9.7 (4)
     |                                               |                |    standard_wall_indicators[0:0]: 0x3aa-NA (0)
     |                                               |                |    ut_local_indicators[0:0]: 0x3aa-NA (0)
     |                                               |                |  footer{}: 0x3aa-0x3ab.7 (2)
0x3a0|                              0a               |          .     |    nl1: 10 (valid) 0x3aa-0x3aa.7 (1)
     |                                               |                |    tz_string: "" 0x3ab-NA (0)
0x3a0|                                 0a|           |           .|   |    nl2: 10 (valid) 0x3ab-0x3ab.7 (1)
