$ fq -d tzif dv Lisbon
     |00 01 02 03 04 05 06 07 08 09 0a 0b 0c 0d 0e 0f|0123456789abcdef|.{}: Lisbon (tzif) 0x0-0xda8.7 (3497)
     |                                               |                |  v1header{}: 0x0-0x2b.7 (44)
0x000|54 5a 69 66                                    |TZif            |    magic: 0x545a6966 (valid) 0x0-0x3.7 (4)
0x000|            32                                 |    2           |    ver: "2" (0x32) (valid) 0x4-0x4.7 (1)
0x000|               00 00 00 00 00 00 00 00 00 00 00|     ...........|    reserved: raw bits 0x5-0x13.7 (15)
0x010|00 00 00 00                                    |....            |
0x010|            00 00 00 0c                        |    ....        |    isutcnt: 12 0x14-0x17.7 (4)
0x010|                        00 00 00 0c            |        ....    |    isstdcnt: 12 0x18-0x1b.7 (4)
0x010|                                    00 00 00 00|            ....|    leapcnt: 0 0x1c-0x1f.7 (4)
0x020|00 00 00 e0                                    |....            |    timecnt: 224 0x20-0x23.7 (4)
0x020|            00 00 00 0c                        |    ....        |    typecnt: 12 0x24-0x27.7 (4)
0x020|                        00 00 00 1b            |        ....    |    charcnt: 27 0x28-0x2b.7 (4)
     |                                               |                |  v1datablock{}: 0x2c-0x506.7 (1243)
     |                                               |                |    transition_times[0:224]: 0x2c-0x3ab.7 (896)
0x020|                                    80 00 00 00|            ....|      [0]: "1901-12-13T20:45:52Z" (-2147483648) transition_time 0x2c-0x2f.7 (4)
0x030|92 e6 8e 80                                    |....            |      [1]: "1912-01-01T00:00:00Z" (-1830384000) transition_time 0x30-0x33.7 (4)
0x030|            9b 4b 6d 70                        |    .Kmp        |      [2]: "1916-06-17T23:00:00Z" (-1689555600) transition_time 0x34-0x37.7 (4)
0x030|                        9b fe c7 80            |        ....    |      [3]: "1916-11-01T00:00:00Z" (-1677801600) transition_time 0x38-0x3b.7 (4)
0x030|                                    9c 9c ed 70|            ...p|      [4]: "1917-02-28T23:00:00Z" (-1667437200) transition_time 0x3c-0x3f.7 (4)
0x040|9d c9 83 70                                    |...p            |      [5]: "1917-10-14T23:00:00Z" (-1647738000) transition_time 0x40-0x43.7 (4)
0x040|            9e 7f 72 70                        |    ..rp        |      [6]: "1918-03-01T23:00:00Z" (-1635814800) transition_time 0x44-0x47.7 (4)
0x040|                        9f aa b6 f0            |        ....    |      [7]: "1918-10-14T23:00:00Z" (-1616202000) transition_time 0x48-0x4b.7 (4)
0x040|                                    a0 5f 54 70|            ._Tp|      [8]: "1919-02-28T23:00:00Z" (-1604365200) transition_time 0x4c-0x4f.7 (4)
0x050|a1 8b ea 70                                    |...p            |      [9]: "1919-10-14T23:00:00Z" (-1584666000) transition_time 0x50-0x53.7 (4)
0x050|            a2 41 d9 70                        |    .A.p        |      [10]: "1920-02-29T23:00:00Z" (-1572742800) transition_time 0x54-0x57.7 (4)
0x050|                        a3 6e 6f 70            |        .nop    |      [11]: "1920-10-14T23:00:00Z" (-1553043600) transition_time 0x58-0x5b.7 (4)
0x050|                                    a4 23 0c f0|            .#..|      [12]: "1921-02-28T23:00:00Z" (-1541206800) transition_time 0x5c-0x5f.7 (4)
0x060|a5 4f a2 f0                                    |.O..            |      [13]: "1921-10-14T23:00:00Z" (-1521507600) transition_time 0x60-0x63.7 (4)
0x060|            aa 05 ef 70                        |    ...p        |      [14]: "1924-04-16T23:00:00Z" (-1442451600) transition_time 0x64-0x67.7 (4)
0x060|                        aa f4 8e f0            |        ....    |      [15]: "1924-10-14T23:00:00Z" (-1426813200) transition_time 0x68-0x6b.7 (4)
0x060|                                    ad c9 a7 f0|            ....|      [16]: "1926-04-17T23:00:00Z" (-1379293200) transition_time 0x6c-0x6f.7 (4)
0x070|ae a7 23 f0                                    |..#.            |      [17]: "1926-10-02T23:00:00Z" (-1364778000) transition_time 0x70-0x73.7 (4)
0x070|            af a0 4f 70                        |    ..Op        |      [18]: "1927-04-09T23:00:00Z" (-1348448400) transition_time 0x74-0x77.7 (4)
0x070|                        b0 87 05 f0            |        ....    |      [19]: "1927-10-01T23:00:00Z" (-1333328400) transition_time 0x78-0x7b.7 (4)
0x070|                                    b1 89 6b f0|            ..k.|      [20]: "1928-04-14T23:00:00Z" (-1316394000) transition_time 0x7c-0x7f.7 (4)
0x080|b2 70 22 70                                    |.p"p            |      [21]: "1928-10-06T23:00:00Z" (-1301274000) transition_time 0x80-0x83.7 (4)
0x080|            b3 72 88 70                        |    .r.p        |      [22]: "1929-04-20T23:00:00Z" (-1284339600) transition_time 0x84-0x87.7 (4)
0x080|                        b4 50 04 70            |        .P.p    |      [23]: "1929-10-05T23:00:00Z" (-1269824400) transition_time 0x88-0x8b.7 (4)
0x080|                                    b7 32 4c 70|            .2Lp|      [24]: "1931-04-18T23:00:00Z" (-1221440400) transition_time 0x8c-0x8f.7 (4)
0x090|b8 0f c8 70                                    |...p            |      [25]: "1931-10-03T23:00:00Z" (-1206925200) transition_time 0x90-0x93.7 (4)
0x090|            b8 ff b9 70                        |    ...p        |      [26]: "1932-04-02T23:00:00Z" (-1191200400) transition_time 0x94-0x97.7 (4)
0x090|                        b9 ef aa 70            |        ...p    |      [27]: "1932-10-01T23:00:00Z" (-1175475600) transition_time 0x98-0x9b.7 (4)
0x090|                                    bc c8 b7 f0|            ....|      [28]: "1934-04-07T23:00:00Z" (-1127696400) transition_time 0x9c-0x9f.7 (4)
0x0a0|bd b8 a8 f0                                    |....            |      [29]: "1934-10-06T23:00:00Z" (-1111971600) transition_time 0xa0-0xa3.7 (4)
0x0a0|            be 9f 5f 70                        |    .._p        |      [30]: "1935-03-30T23:00:00Z" (-1096851600) transition_time 0xa4-0xa7.7 (4)
0x0a0|                        bf 98 8a f0            |        ....    |      [31]: "1935-10-05T23:00:00Z" (-1080522000) transition_time 0xa8-0xab.7 (4)
0x0a0|                                    c0 9a f0 f0|            ....|      [32]: "1936-04-18T23:00:00Z" (-1063587600) transition_time 0xac-0xaf.7 (4)
0x0b0|c1 78 6c f0                                    |.xl.            |      [33]: "1936-10-03T23:00:00Z" (-1049072400) transition_time 0xb0-0xb3.7 (4)
0x0b0|            c2 68 5d f0                        |    .h].        |      [34]: "1937-04-03T23:00:00Z" (-1033347600) transition_time 0xb4-0xb7.7 (4)
0x0b0|                        c3 58 4e f0            |        .XN.    |      [35]: "1937-10-02T23:00:00Z" (-1017622800) transition_time 0xb8-0xbb.7 (4)
0x0b0|                                    c4 3f 05 70|            .?.p|      [36]: "1938-03-26T23:00:00Z" (-1002502800) transition_time 0xbc-0xbf.7 (4)
0x0c0|c5 38 30 f0                                    |.80.            |      [37]: "1938-10-01T23:00:00Z" (-986173200) transition_time 0xc0-0xc3.7 (4)
0x0c0|            c6 3a 96 f0                        |    .:..        |      [38]: "1939-04-15T23:00:00Z" (-969238800) transition_time 0xc4-0xc7.7 (4)
0x0c0|                        c7 58 ac 70            |        .X.p    |      [39]: "1939-11-18T23:00:00Z" (-950490000) transition_time 0xc8-0xcb.7 (4)
0x0c0|                                    c7 d9 df 70|            ...p|      [40]: "1940-02-24T23:00:00Z" (-942022800) transition_time 0xcc-0xcf.7 (4)
0x0d0|c9 01 2f 70                                    |../p            |      [41]: "1940-10-05T23:00:00Z" (-922669200) transition_time 0xd0-0xd3.7 (4)
0x0d0|            c9 f1 20 70                        |    .. p        |      [42]: "1941-04-05T23:00:00Z" (-906944400) transition_time 0xd4-0xd7.7 (4)
0x0d0|                        ca e2 62 f0            |        ..b.    |      [43]: "1941-10-05T23:00:00Z" (-891133200) transition_time 0xd8-0xdb.7 (4)
0x0d0|                                    cb b5 52 f0|            ..R.|      [44]: "1942-03-14T23:00:00Z" (-877309200) transition_time 0xdc-0xdf.7 (4)
0x0e0|cb ec a3 e0                                    |....            |      [45]: "1942-04-25T22:00:00Z" (-873684000) transition_time 0xe0-0xe3.7 (4)
0x0e0|            cc 80 4b e0                        |    ..K.        |      [46]: "1942-08-15T22:00:00Z" (-864007200) transition_time 0xe4-0xe7.7 (4)
0x0e0|                        cc dc a2 f0            |        ....    |      [47]: "1942-10-24T23:00:00Z" (-857955600) transition_time 0xe8-0xeb.7 (4)
0x0e0|                                    cd 95 34 f0|            ..4.|      [48]: "1943-03-13T23:00:00Z" (-845859600) transition_time 0xec-0xef.7 (4)
0x0f0|cd c3 4b 60                                    |..K`            |      [49]: "1943-04-17T22:00:00Z" (-842839200) transition_time 0xf0-0xf3.7 (4)
0x0f0|            ce 72 a2 e0                        |    .r..        |      [50]: "1943-08-28T22:00:00Z" (-831348000) transition_time 0xf4-0xf7.7 (4)
0x0f0|                        ce c5 bf 70            |        ...p    |      [51]: "1943-10-30T23:00:00Z" (-825901200) transition_time 0xf8-0xfb.7 (4)
0x0f0|                                    cf 75 16 f0|            .u..|      [52]: "1944-03-11T23:00:00Z" (-814410000) transition_time 0xfc-0xff.7 (4)
0x100|cf ac 67 e0                                    |..g.            |      [53]: "1944-04-22T22:00:00Z" (-810784800) transition_time 0x100-0x103.7 (4)
0x100|            d0 52 84 e0                        |    .R..        |      [54]: "1944-08-26T22:00:00Z" (-799898400) transition_time 0x104-0x107.7 (4)
0x100|                        d0 a5 a1 70            |        ...p    |      [55]: "1944-10-28T23:00:00Z" (-794451600) transition_time 0x108-0x10b.7 (4)
0x100|                                    d1 54 f8 f0|            .T..|      [56]: "1945-03-10T23:00:00Z" (-782960400) transition_time 0x10c-0x10f.7 (4)
0x110|d1 8c 49 e0                                    |..I.            |      [57]: "1945-04-21T22:00:00Z" (-779335200) transition_time 0x110-0x113.7 (4)
0x110|            d2 32 66 e0                        |    .2f.        |      [58]: "1945-08-25T22:00:00Z" (-768448800) transition_time 0x114-0x117.7 (4)
0x110|                        d2 85 83 70            |        ...p    |      [59]: "1945-10-27T23:00:00Z" (-763002000) transition_time 0x118-0x11b.7 (4)
0x110|                                    d3 59 c4 f0|            .Y..|      [60]: "1946-04-06T23:00:00Z" (-749091600) transition_time 0x11c-0x11f.7 (4)
0x120|d4 49 b5 f0                                    |.I..            |      [61]: "1946-10-05T23:00:00Z" (-733366800) transition_time 0x120-0x123.7 (4)
0x120|            d5 39 d1 20                        |    .9.         |      [62]: "1947-04-06T02:00:00Z" (-717631200) transition_time 0x124-0x127.7 (4)
0x120|                        d6 29 c2 20            |        .).     |      [63]: "1947-10-05T02:00:00Z" (-701906400) transition_time 0x128-0x12b.7 (4)
0x120|                                    d7 19 b3 20|            ... |      [64]: "1948-04-04T02:00:00Z" (-686181600) transition_time 0x12c-0x12f.7 (4)
0x130|d8 09 a4 20                                    |...             |      [65]: "1948-10-03T02:00:00Z" (-670456800) transition_time 0x130-0x133.7 (4)
0x130|            d8 f9 95 20                        |    ...         |      [66]: "1949-04-03T02:00:00Z" (-654732000) transition_time 0x134-0x137.7 (4)
0x130|                        d9 e9 86 20            |        ...     |      [67]: "1949-10-02T02:00:00Z" (-639007200) transition_time 0x138-0x13b.7 (4)
0x130|                                    da d9 77 20|            ..w |      [68]: "1950-04-02T02:00:00Z" (-623282400) transition_time 0x13c-0x13f.7 (4)
0x140|db c9 68 20                                    |..h             |      [69]: "1950-10-01T02:00:00Z" (-607557600) transition_time 0x140-0x143.7 (4)
0x140|            dc b9 59 20                        |    ..Y         |      [70]: "1951-04-01T02:00:00Z" (-591832800) transition_time 0x144-0x147.7 (4)
0x140|                        dd b2 84 a0            |        ....    |      [71]: "1951-10-07T02:00:00Z" (-575503200) transition_time 0x148-0x14b.7 (4)
0x140|                                    de a2 75 a0|            ..u.|      [72]: "1952-04-06T02:00:00Z" (-559778400) transition_time 0x14c-0x14f.7 (4)
0x150|df 92 66 a0                                    |..f.            |      [73]: "1952-10-05T02:00:00Z" (-544053600) transition_time 0x150-0x153.7 (4)
0x150|            e0 82 57 a0                        |    ..W.        |      [74]: "1953-04-05T02:00:00Z" (-528328800) transition_time 0x154-0x157.7 (4)
0x150|                        e1 72 48 a0            |        .rH.    |      [75]: "1953-10-04T02:00:00Z" (-512604000) transition_time 0x158-0x15b.7 (4)
0x150|                                    e2 62 39 a0|            .b9.|      [76]: "1954-04-04T02:00:00Z" (-496879200) transition_time 0x15c-0x15f.7 (4)
0x160|e3 52 2a a0                                    |.R*.            |      [77]: "1954-10-03T02:00:00Z" (-481154400) transition_time 0x160-0x163.7 (4)
0x160|            e4 42 1b a0                        |    .B..        |      [78]: "1955-04-03T02:00:00Z" (-465429600) transition_time 0x164-0x167.7 (4)
0x160|                        e5 32 0c a0            |        .2..    |      [79]: "1955-10-02T02:00:00Z" (-449704800) transition_time 0x168-0x16b.7 (4)
0x160|                                    e6 21 fd a0|            .!..|      [80]: "1956-04-01T02:00:00Z" (-433980000) transition_time 0x16c-0x16f.7 (4)
0x170|e7 1b 29 20                                    |..)             |      [81]: "1956-10-07T02:00:00Z" (-417650400) transition_time 0x170-0x173.7 (4)
0x170|            e8 0b 1a 20                        |    ...         |      [82]: "1957-04-07T02:00:00Z" (-401925600) transition_time 0x174-0x177.7 (4)
0x170|                        e8 fb 0b 20            |        ...     |      [83]: "1957-10-06T02:00:00Z" (-386200800) transition_time 0x178-0x17b.7 (4)
0x170|                                    e9 ea fc 20|            ... |      [84]: "1958-04-06T02:00:00Z" (-370476000) transition_time 0x17c-0x17f.7 (4)
0x180|ea da ed 20                                    |...             |      [85]: "1958-10-05T02:00:00Z" (-354751200) transition_time 0x180-0x183.7 (4)
0x180|            eb ca de 20                        |    ...         |      [86]: "1959-04-05T02:00:00Z" (-339026400) transition_time 0x184-0x187.7 (4)
0x180|                        ec ba cf 20            |        ...     |      [87]: "1959-10-04T02:00:00Z" (-323301600) transition_time 0x188-0x18b.7 (4)
0x180|                                    ed aa c0 20|            ... |      [88]: "1960-04-03T02:00:00Z" (-307576800) transition_time 0x18c-0x18f.7 (4)
0x190|ee 9a b1 20                                    |...             |      [89]: "1960-10-02T02:00:00Z" (-291852000) transition_time 0x190-0x193.7 (4)
0x190|            ef 8a a2 20                        |    ...         |      [90]: "1961-04-02T02:00:00Z" (-276127200) transition_time 0x194-0x197.7 (4)
0x190|                        f0 7a 93 20            |        .z.     |      [91]: "1961-10-01T02:00:00Z" (-260402400) transition_time 0x198-0x19b.7 (4)
0x190|                                    f1 6a 84 20|            .j. |      [92]: "1962-04-01T02:00:00Z" (-244677600) transition_time 0x19c-0x19f.7 (4)
0x1a0|f2 63 af a0                                    |.c..            |      [93]: "1962-10-07T02:00:00Z" (-228348000) transition_time 0x1a0-0x1a3.7 (4)
0x1a0|            f3 53 a0 a0                        |    .S..        |      [94]: "1963-04-07T02:00:00Z" (-212623200) transition_time 0x1a4-0x1a7.7 (4)
0x1a0|                        f4 43 91 a0            |        .C..    |      [95]: "1963-10-06T02:00:00Z" (-196898400) transition_time 0x1a8-0x1ab.7 (4)
0x1a0|                                    f5 33 82 a0|            .3..|      [96]: "1964-04-05T02:00:00Z" (-181173600) transition_time 0x1ac-0x1af.7 (4)
0x1b0|f6 23 73 a0                                    |.#s.            |      [97]: "1964-10-04T02:00:00Z" (-165448800) transition_time 0x1b0-0x1b3.7 (4)
0x1b0|            f7 13 64 a0                        |    ..d.        |      [98]: "1965-04-04T02:00:00Z" (-149724000) transition_time 0x1b4-0x1b7.7 (4)
0x1b0|                        f8 03 55 a0            |        ..U.    |      [99]: "1965-10-03T02:00:00Z" (-133999200) transition_time 0x1b8-0x1bb.7 (4)
0x1b0|                                    f8 f3 46 a0|            ..F.|      [100]: "1966-04-03T02:00:00Z" (-118274400) transition_time 0x1bc-0x1bf.7 (4)
0x1c0|0c ab 2a 00                                    |..*.            |      [101]: "1976-09-26T00:00:00Z" (212544000) transition_time 0x1c0-0x1c3.7 (4)
0x1c0|            0d 9b 1b 00                        |    ....        |      [102]: "1977-03-27T00:00:00Z" (228268800) transition_time 0x1c4-0x1c7.7 (4)
0x1c0|                        0e 8b 0c 00            |        ....    |      [103]: "1977-09-25T00:00:00Z" (243993600) transition_time 0x1c8-0x1cb.7 (4)
0x1c0|                                    0f 84 37 80|            ..7.|      [104]: "1978-04-02T00:00:00Z" (260323200) transition_time 0x1cc-0x1cf.7 (4)
0x1d0|10 74 28 80                                    |.t(.            |      [105]: "1978-10-01T00:00:00Z" (276048000) transition_time 0x1d0-0x1d3.7 (4)
0x1d0|            11 64 19 80                        |    .d..        |      [106]: "1979-04-01T00:00:00Z" (291772800) transition_time 0x1d4-0x1d7.7 (4)
0x1d0|                        12 54 18 90            |        .T..    |      [107]: "1979-09-30T01:00:00Z" (307501200) transition_time 0x1d8-0x1db.7 (4)
0x1d0|                                    13 43 fb 80|            .C..|      [108]: "1980-03-30T00:00:00Z" (323222400) transition_time 0x1dc-0x1df.7 (4)
0x1e0|14 33 fa 90                                    |.3..            |      [109]: "1980-09-28T01:00:00Z" (338950800) transition_time 0x1e0-0x1e3.7 (4)
0x1e0|            15 23 eb 90                        |    .#..        |      [110]: "1981-03-29T01:00:00Z" (354675600) transition_time 0x1e4-0x1e7.7 (4)
0x1e0|                        16 13 dc 90            |        ....    |      [111]: "1981-09-27T01:00:00Z" (370400400) transition_time 0x1e8-0x1eb.7 (4)
0x1e0|                                    17 03 cd 90|            ....|      [112]: "1982-03-28T01:00:00Z" (386125200) transition_time 0x1ec-0x1ef.7 (4)
0x1f0|17 f3 be 90                                    |....            |      [113]: "1982-09-26T01:00:00Z" (401850000) transition_time 0x1f0-0x1f3.7 (4)
0x1f0|            18 e3 bd a0                        |    ....        |      [114]: "1983-03-27T02:00:00Z" (417578400) transition_time 0x1f4-0x1f7.7 (4)
0x1f0|                        19 d3 a0 90            |        ....    |      [115]: "1983-09-25T01:00:00Z" (433299600) transition_time 0x1f8-0x1fb.7 (4)
0x1f0|                                    1a c3 91 90|            ....|      [116]: "1984-03-25T01:00:00Z" (449024400) transition_time 0x1fc-0x1ff.7 (4)
0x200|1b bc bd 10                                    |....            |      [117]: "1984-09-30T01:00:00Z" (465354000) transition_time 0x200-0x203.7 (4)
0x200|            1c ac ae 10                        |    ....        |      [118]: "1985-03-31T01:00:00Z" (481078800) transition_time 0x204-0x207.7 (4)
0x200|                        1d 9c 9f 10            |        ....    |      [119]: "1985-09-29T01:00:00Z" (496803600) transition_time 0x208-0x20b.7 (4)
0x200|                                    1e 8c 90 10|            ....|      [120]: "1986-03-30T01:00:00Z" (512528400) transition_time 0x20c-0x20f.7 (4)
0x210|1f 7c 81 10                                    |.|..            |      [121]: "1986-09-28T01:00:00Z" (528253200) transition_time 0x210-0x213.7 (4)
0x210|            20 6c 72 10                        |     lr.        |      [122]: "1987-03-29T01:00:00Z" (543978000) transition_time 0x214-0x217.7 (4)
0x210|                        21 5c 63 10            |        !\c.    |      [123]: "1987-09-27T01:00:00Z" (559702800) transition_time 0x218-0x21b.7 (4)
0x210|                                    22 4c 54 10|            "LT.|      [124]: "1988-03-27T01:00:00Z" (575427600) transition_time 0x21c-0x21f.7 (4)
0x220|23 3c 45 10                                    |#<E.            |      [125]: "1988-09-25T01:00:00Z" (591152400) transition_time 0x220-0x223.7 (4)
0x220|            24 2c 36 10                        |    $,6.        |      [126]: "1989-03-26T01:00:00Z" (606877200) transition_time 0x224-0x227.7 (4)
0x220|                        25 1c 27 10            |        %.'.    |      [127]: "1989-09-24T01:00:00Z" (622602000) transition_time 0x228-0x22b.7 (4)
0x220|                                    26 0c 18 10|            &...|      [128]: "1990-03-25T01:00:00Z" (638326800) transition_time 0x22c-0x22f.7 (4)
0x230|27 05 43 90                                    |'.C.            |      [129]: "1990-09-30T01:00:00Z" (654656400) transition_time 0x230-0x233.7 (4)
0x230|            27 f5 34 90                        |    '.4.        |      [130]: "1991-03-31T01:00:00Z" (670381200) transition_time 0x234-0x237.7 (4)
0x230|                        28 e5 25 90            |        (.%.    |      [131]: "1991-09-29T01:00:00Z" (686106000) transition_time 0x238-0x23b.7 (4)
0x230|                                    29 d5 16 90|            )...|      [132]: "1992-03-29T01:00:00Z" (701830800) transition_time 0x23c-0x23f.7 (4)
0x240|2a c5 07 90                                    |*...            |      [133]: "1992-09-27T01:00:00Z" (717555600) transition_time 0x240-0x243.7 (4)
0x240|            2b b4 f8 90                        |    +...        |      [134]: "1993-03-28T01:00:00Z" (733280400) transition_time 0x244-0x247.7 (4)
0x240|                        2c a4 e9 90            |        ,...    |      [135]: "1993-09-26T01:00:00Z" (749005200) transition_time 0x248-0x24b.7 (4)
0x240|                                    2d 94 da 90|            -...|      [136]: "1994-03-27T01:00:00Z" (764730000) transition_time 0x24c-0x24f.7 (4)
0x250|2e 84 cb 90                                    |....            |      [137]: "1994-09-25T01:00:00Z" (780454800) transition_time 0x250-0x253.7 (4)
0x250|            2f 74 bc 90                        |    /t..        |      [138]: "1995-03-26T01:00:00Z" (796179600) transition_time 0x254-0x257.7 (4)
0x250|                        30 64 ad 90            |        0d..    |      [139]: "1995-09-24T01:00:00Z" (811904400) transition_time 0x258-0x25b.7 (4)
0x250|                                    31 5d d9 10|            1]..|      [140]: "1996-03-31T01:00:00Z" (828234000) transition_time 0x25c-0x25f.7 (4)
0x260|32 72 b4 10                                    |2r..            |      [141]: "1996-10-27T01:00:00Z" (846378000) transition_time 0x260-0x263.7 (4)
0x260|            33 3d bb 10                        |    3=..        |      [142]: "1997-03-30T01:00:00Z" (859683600) transition_time 0x264-0x267.7 (4)
0x260|                        34 52 96 10            |        4R..    |      [143]: "1997-10-26T01:00:00Z" (877827600) transition_time 0x268-0x26b.7 (4)
0x260|                                    35 1d 9d 10|            5...|      [144]: "1998-03-29T01:00:00Z" (891133200) transition_time 0x26c-0x26f.7 (4)
0x270|36 32 78 10                                    |62x.            |      [145]: "1998-10-25T01:00:00Z" (909277200) transition_time 0x270-0x273.7 (4)
0x270|            36 fd 7f 10                        |    6...        |      [146]: "1999-03-28T01:00:00Z" (922582800) transition_time 0x274-0x277.7 (4)
0x270|                        38 1b 94 90            |        8...    |      [147]: "1999-10-31T01:00:00Z" (941331600) transition_time 0x278-0x27b.7 (4)
0x270|                                    38 dd 61 10|            8.a.|      [148]: "2000-03-26T01:00:00Z" (954032400) transition_time 0x27c-0x27f.7 (4)
0x280|39 fb 76 90                                    |9.v.            |      [149]: "2000-10-29T01:00:00Z" (972781200) transition_time 0x280-0x283.7 (4)
0x280|            3a bd 43 10                        |    :.C.        |      [150]: "2001-03-25T01:00:00Z" (985482000) transition_time 0x284-0x287.7 (4)
0x280|                        3b db 58 90            |        ;.X.    |      [151]: "2001-10-28T01:00:00Z" (1004230800) transition_time 0x288-0x28b.7 (4)
0x280|                                    3c a6 5f 90|            <._.|      [152]: "2002-03-31T01:00:00Z" (1017536400) transition_time 0x28c-0x28f.7 (4)
0x290|3d bb 3a 90                                    |=.:.            |      [153]: "2002-10-27T01:00:00Z" (1035680400) transition_time 0x290-0x293.7 (4)
0x290|            3e 86 41 90                        |    >.A.        |      [154]: "2003-03-30T01:00:00Z" (1048986000) transition_time 0x294-0x297.7 (4)
0x290|                        3f 9b 1c 90            |        ?...    |      [155]: "2003-10-26T01:00:00Z" (1067130000) transition_time 0x298-0x29b.7 (4)
0x290|                                    40 66 23 90|            @f#.|      [156]: "2004-03-28T01:00:00Z" (1080435600) transition_time 0x29c-0x29f.7 (4)
0x2a0|41 84 39 10                                    |A.9.            |      [157]: "2004-10-31T01:00:00Z" (1099184400) transition_time 0x2a0-0x2a3.7 (4)
0x2a0|            42 46 05 90                        |    BF..        |      [158]: "2005-03-27T01:00:00Z" (1111885200) transition_time 0x2a4-0x2a7.7 (4)
0x2a0|                        43 64 1b 10            |        Cd..    |      [159]: "2005-10-30T01:00:00Z" (1130634000) transition_time 0x2a8-0x2ab.7 (4)
0x2a0|                                    44 25 e7 90|            D%..|      [160]: "2006-03-26T01:00:00Z" (1143334800) transition_time 0x2ac-0x2af.7 (4)
0x2b0|45 43 fd 10                                    |EC..            |      [161]: "2006-10-29T01:00:00Z" (1162083600) transition_time 0x2b0-0x2b3.7 (4)
0x2b0|            46 05 c9 90                        |    F...        |      [162]: "2007-03-25T01:00:00Z" (1174784400) transition_time 0x2b4-0x2b7.7 (4)
0x2b0|                        47 23 df 10            |        G#..    |      [163]: "2007-10-28T01:00:00Z" (1193533200) transition_time 0x2b8-0x2bb.7 (4)
0x2b0|                                    47 ee e6 10|            G...|      [164]: "2008-03-30T01:00:00Z" (1206838800) transition_time 0x2bc-0x2bf.7 (4)
0x2c0|49 03 c1 10                                    |I...            |      [165]: "2008-10-26T01:00:00Z" (1224982800) transition_time 0x2c0-0x2c3.7 (4)
0x2c0|            49 ce c8 10                        |    I...        |      [166]: "2009-03-29T01:00:00Z" (1238288400) transition_time 0x2c4-0x2c7.7 (4)
0x2c0|                        4a e3 a3 10            |        J...    |      [167]: "2009-10-25T01:00:00Z" (1256432400) transition_time 0x2c8-0x2cb.7 (4)
0x2c0|                                    4b ae aa 10|            K...|      [168]: "2010-03-28T01:00:00Z" (1269738000) transition_time 0x2cc-0x2cf.7 (4)
0x2d0|4c cc bf 90                                    |L...            |      [169]: "2010-10-31T01:00:00Z" (1288486800) transition_time 0x2d0-0x2d3.7 (4)
0x2d0|            4d 8e 8c 10                        |    M...        |      [170]: "2011-03-27T01:00:00Z" (1301187600) transition_time 0x2d4-0x2d7.7 (4)
0x2d0|                        4e ac a1 90            |        N...    |      [171]: "2011-10-30T01:00:00Z" (1319936400) transition_time 0x2d8-0x2db.7 (4)
0x2d0|                                    4f 6e 6e 10|            Onn.|      [172]: "2012-03-25T01:00:00Z" (1332637200) transition_time 0x2dc-0x2df.7 (4)
0x2e0|50 8c 83 90                                    |P...            |      [173]: "2012-10-28T01:00:00Z" (1351386000) transition_time 0x2e0-0x2e3.7 (4)
0x2e0|            51 57 8a 90                        |    QW..        |      [174]: "2013-03-31T01:00:00Z" (1364691600) transition_time 0x2e4-0x2e7.7 (4)
0x2e0|                        52 6c 65 90            |        Rle.    |      [175]: "2013-10-27T01:00:00Z" (1382835600) transition_time 0x2e8-0x2eb.7 (4)
0x2e0|                                    53 37 6c 90|            S7l.|      [176]: "2014-03-30T01:00:00Z" (1396141200) transition_time 0x2ec-0x2ef.7 (4)
0x2f0|54 4c 47 90                                    |TLG.            |      [177]: "2014-10-26T01:00:00Z" (1414285200) transition_time 0x2f0-0x2f3.7 (4)
0x2f0|            55 17 4e 90                        |    U.N.        |      [178]: "2015-03-29T01:00:00Z" (1427590800) transition_time 0x2f4-0x2f7.7 (4)
0x2f0|                        56 2c 29 90            |        V,).    |      [179]: "2015-10-25T01:00:00Z" (1445734800) transition_time 0x2f8-0x2fb.7 (4)
0x2f0|                                    56 f7 30 90|            V.0.|      [180]: "2016-03-27T01:00:00Z" (1459040400) transition_time 0x2fc-0x2ff.7 (4)
0x300|58 15 46 10                                    |X.F.            |      [181]: "2016-10-30T01:00:00Z" (1477789200) transition_time 0x300-0x303.7 (4)
0x300|            58 d7 12 90                        |    X...        |      [182]: "2017-03-26T01:00:00Z" (1490490000) transition_time 0x304-0x307.7 (4)
0x300|                        59 f5 28 10            |        Y.(.    |      [183]: "2017-10-29T01:00:00Z" (1509238800) transition_time 0x308-0x30b.7 (4)
0x300|                                    5a b6 f4 90|            Z...|      [184]: "2018-03-25T01:00:00Z" (1521939600) transition_time 0x30c-0x30f.7 (4)
0x310|5b d5 0a 10                                    |[...            |      [185]: "2018-10-28T01:00:00Z" (1540688400) transition_time 0x310-0x313.7 (4)
0x310|            5c a0 11 10                        |    \...        |      [186]: "2019-03-31T01:00:00Z" (1553994000) transition_time 0x314-0x317.7 (4)
0x310|                        5d b4 ec 10            |        ]...    |      [187]: "2019-10-27T01:00:00Z" (1572138000) transition_time 0x318-0x31b.7 (4)
0x310|                                    5e 7f f3 10|            ^...|      [188]: "2020-03-29T01:00:00Z" (1585443600) transition_time 0x31c-0x31f.7 (4)
0x320|5f 94 ce 10                                    |_...            |      [189]: "2020-10-25T01:00:00Z" (1603587600) transition_time 0x320-0x323.7 (4)
0x320|            60 5f d5 10                        |    `_..        |      [190]: "2021-03-28T01:00:00Z" (1616893200) transition_time 0x324-0x327.7 (4)
0x320|                        61 7d ea 90            |        a}..    |      [191]: "2021-10-31T01:00:00Z" (1635642000) transition_time 0x328-0x32b.7 (4)
0x320|                                    62 3f b7 10|            b?..|      [192]: "2022-03-27T01:00:00Z" (1648342800) transition_time 0x32c-0x32f.7 (4)
0x330|63 5d cc 90                                    |c]..            |      [193]: "2022-10-30T01:00:00Z" (1667091600) transition_time 0x330-0x333.7 (4)
0x330|            64 1f 99 10                        |    d...        |      [194]: "2023-03-26T01:00:00Z" (1679792400) transition_time 0x334-0x337.7 (4)
0x330|                        65 3d ae 90            |        e=..    |      [195]: "2023-10-29T01:00:00Z" (1698541200) transition_time 0x338-0x33b.7 (4)
0x330|                                    66 08 b5 90|            f...|      [196]: "2024-03-31T01:00:00Z" (1711846800) transition_time 0x33c-0x33f.7 (4)
0x340|67 1d 90 90                                    |g...            |      [197]: "2024-10-27T01:00:00Z" (1729990800) transition_time 0x340-0x343.7 (4)
0x340|            67 e8 97 90                        |    g...        |      [198]: "2025-03-30T01:00:00Z" (1743296400) transition_time 0x344-0x347.7 (4)
0x340|                        68 fd 72 90            |        h.r.    |      [199]: "2025-10-26T01:00:00Z" (1761440400) transition_time 0x348-0x34b.7 (4)
0x340|                                    69 c8 79 90|            i.y.|      [200]: "2026-03-29T01:00:00Z" (1774746000) transition_time 0x34c-0x34f.7 (4)
0x350|6a dd 54 90                                    |j.T.            |      [201]: "2026-10-25T01:00:00Z" (1792890000) transition_time 0x350-0x353.7 (4)
0x350|            6b a8 5b 90                        |    k.[.        |      [202]: "2027-03-28T01:00:00Z" (1806195600) transition_time 0x354-0x357.7 (4)
0x350|                        6c c6 71 10            |        l.q.    |      [203]: "2027-10-31T01:00:00Z" (1824944400) transition_time 0x358-0x35b.7 (4)
0x350|                                    6d 88 3d 90|            m.=.|      [204]: "2028-03-26T01:00:00Z" (1837645200) transition_time 0x35c-0x35f.7 (4)
0x360|6e a6 53 10                                    |n.S.            |      [205]: "2028-10-29T01:00:00Z" (1856394000) transition_time 0x360-0x363.7 (4)
0x360|            6f 68 1f 90                        |    oh..        |      [206]: "2029-03-25T01:00:00Z" (1869094800) transition_time 0x364-0x367.7 (4)
0x360|                        70 86 35 10            |        p.5.    |      [207]: "2029-10-28T01:00:00Z" (1887843600) transition_time 0x368-0x36b.7 (4)
0x360|                                    71 51 3c 10|            qQ<.|      [208]: "2030-03-31T01:00:00Z" (1901149200) transition_time 0x36c-0x36f.7 (4)
0x370|72 66 17 10                                    |rf..            |      [209]: "2030-10-27T01:00:00Z" (1919293200) transition_time 0x370-0x373.7 (4)
0x370|            73 31 1e 10                        |    s1..        |      [210]: "2031-03-30T01:00:00Z" (1932598800) transition_time 0x374-0x377.7 (4)
0x370|                        74 45 f9 10            |        tE..    |      [211]: "2031-10-26T01:00:00Z" (1950742800) transition_time 0x378-0x37b.7 (4)
0x370|                                    75 11 00 10|            u...|      [212]: "2032-03-28T01:00:00Z" (1964048400) transition_time 0x37c-0x37f.7 (4)
0x380|76 2f 15 90                                    |v/..            |      [213]: "2032-10-31T01:00:00Z" (1982797200) transition_time 0x380-0x383.7 (4)
0x380|            76 f0 e2 10                        |    v...        |      [214]: "2033-03-27T01:00:00Z" (1995498000) transition_time 0x384-0x387.7 (4)
0x380|                        78 0e f7 90            |        x...    |      [215]: "2033-10-30T01:00:00Z" (2014246800) transition_time 0x388-0x38b.7 (4)
0x380|                                    78 d0 c4 10|            x...|      [216]: "2034-03-26T01:00:00Z" (2026947600) transition_time 0x38c-0x38f.7 (4)
0x390|79 ee d9 90                                    |y...            |      [217]: "2034-10-29T01:00:00Z" (2045696400) transition_time 0x390-0x393.7 (4)
0x390|            7a b0 a6 10                        |    z...        |      [218]: "2035-03-25T01:00:00Z" (2058397200) transition_time 0x394-0x397.7 (4)
0x390|                        7b ce bb 90            |        {...    |      [219]: "2035-10-28T01:00:00Z" (2077146000) transition_time 0x398-0x39b.7 (4)
0x390|                                    7c 99 c2 90|            |...|      [220]: "2036-03-30T01:00:00Z" (2090451600) transition_time 0x39c-0x39f.7 (4)
0x3a0|7d ae 9d 90                                    |}...            |      [221]: "2036-10-26T01:00:00Z" (2108595600) transition_time 0x3a0-0x3a3.7 (4)
0x3a0|            7e 79 a4 90                        |    ~y..        |      [222]: "2037-03-29T01:00:00Z" (2121901200) transition_time 0x3a4-0x3a7.7 (4)
0x3a0|                        7f 8e 7f 90            |        ....    |      [223]: "2037-10-25T01:00:00Z" (2140045200) transition_time 0x3a8-0x3ab.7 (4)
     |                                               |                |    transition_types[0:224]: 0x3ac-0x48b.7 (224)
0x3a0|                                    00         |            .   |      [0]: 0 transition_type 0x3ac-0x3ac.7 (1)
0x3a0|                                       06      |             .  |      [1]: 6 transition_type 0x3ad-0x3ad.7 (1)
0x3a0|                                          01   |              . |      [2]: 1 transition_type 0x3ae-0x3ae.7 (1)
0x3a0|                                             02|               .|      [3]: 2 transition_type 0x3af-0x3af.7 (1)
0x3b0|03                                             |.               |      [4]: 3 transition_type 0x3b0-0x3b0.7 (1)
0x3b0|   04                                          | .              |      [5]: 4 transition_type 0x3b1-0x3b1.7 (1)
0x3b0|      03                                       |  .             |      [6]: 3 transition_type 0x3b2-0x3b2.7 (1)
0x3b0|         04                                    |   .            |      [7]: 4 transition_type 0x3b3-0x3b3.7 (1)
0x3b0|            03                                 |    .           |      [8]: 3 transition_type 0x3b4-0x3b4.7 (1)
0x3b0|               04                              |     .          |      [9]: 4 transition_type 0x3b5-0x3b5.7 (1)
0x3b0|                  03                           |      .         |      [10]: 3 transition_type 0x3b6-0x3b6.7 (1)
0x3b0|                     04                        |       .        |      [11]: 4 transition_type 0x3b7-0x3b7.7 (1)
0x3b0|                        03                     |        .       |      [12]: 3 transition_type 0x3b8-0x3b8.7 (1)
0x3b0|                           04                  |         .      |      [13]: 4 transition_type 0x3b9-0x3b9.7 (1)
0x3b0|                              03               |          .     |      [14]: 3 transition_type 0x3ba-0x3ba.7 (1)
0x3b0|                                 04            |           .    |      [15]: 4 transition_type 0x3bb-0x3bb.7 (1)
0x3b0|                                    03         |            .   |      [16]: 3 transition_type 0x3bc-0x3bc.7 (1)
0x3b0|                                       04      |             .  |      [17]: 4 transition_type 0x3bd-0x3bd.7 (1)
0x3b0|                                          03   |              . |      [18]: 3 transition_type 0x3be-0x3be.7 (1)
0x3b0|                                             04|               .|      [19]: 4 transition_type 0x3bf-0x3bf.7 (1)
0x3c0|03                                             |.               |      [20]: 3 transition_type 0x3c0-0x3c0.7 (1)
0x3c0|   04                                          | .              |      [21]: 4 transition_type 0x3c1-0x3c1.7 (1)
0x3c0|      03                                       |  .             |      [22]: 3 transition_type 0x3c2-0x3c2.7 (1)
0x3c0|         04                                    |   .            |      [23]: 4 transition_type 0x3c3-0x3c3.7 (1)
0x3c0|            03                                 |    .           |      [24]: 3 transition_type 0x3c4-0x3c4.7 (1)
0x3c0|               04                              |     .          |      [25]: 4 transition_type 0x3c5-0x3c5.7 (1)
0x3c0|                  03                           |      .         |      [26]: 3 transition_type 0x3c6-0x3c6.7 (1)
0x3c0|                     04                        |       .        |      [27]: 4 transition_type 0x3c7-0x3c7.7 (1)
0x3c0|                        03                     |        .       |      [28]: 3 transition_type 0x3c8-0x3c8.7 (1)
0x3c0|                           04                  |         .      |      [29]: 4 transition_type 0x3c9-0x3c9.7 (1)
0x3c0|                              03               |          .     |      [30]: 3 transition_type 0x3ca-0x3ca.7 (1)
0x3c0|                                 04            |           .    |      [31]: 4 transition_type 0x3cb-0x3cb.7 (1)
0x3c0|                                    03         |            .   |      [32]: 3 transition_type 0x3cc-0x3cc.7 (1)
0x3c0|                                       04      |             .  |      [33]: 4 transition_type 0x3cd-0x3cd.7 (1)
0x3c0|                                          03   |              . |      [34]: 3 transition_type 0x3ce-0x3ce.7 (1)
0x3c0|                                             04|               .|      [35]: 4 transition_type 0x3cf-0x3cf.7 (1)
0x3d0|03                                             |.               |      [36]: 3 transition_type 0x3d0-0x3d0.7 (1)
0x3d0|   04                                          | .              |      [37]: 4 transition_type 0x3d1-0x3d1.7 (1)
0x3d0|      03                                       |  .             |      [38]: 3 transition_type 0x3d2-0x3d2.7 (1)
0x3d0|         04                                    |   .            |      [39]: 4 transition_type 0x3d3-0x3d3.7 (1)
0x3d0|            03                                 |    .           |      [40]: 3 transition_type 0x3d4-0x3d4.7 (1)
0x3d0|               04                              |     .          |      [41]: 4 transition_type 0x3d5-0x3d5.7 (1)
0x3d0|                  03                           |      .         |      [42]: 3 transition_type 0x3d6-0x3d6.7 (1)
0x3d0|                     04                        |       .        |      [43]: 4 transition_type 0x3d7-0x3d7.7 (1)
0x3d0|                        03                     |        .       |      [44]: 3 transition_type 0x3d8-0x3d8.7 (1)
0x3d0|                           05                  |         .      |      [45]: 5 transition_type 0x3d9-0x3d9.7 (1)
0x3d0|                              03               |          .     |      [46]: 3 transition_type 0x3da-0x3da.7 (1)
0x3d0|                                 04            |           .    |      [47]: 4 transition_type 0x3db-0x3db.7 (1)
0x3d0|                                    03         |            .   |      [48]: 3 transition_type 0x3dc-0x3dc.7 (1)
0x3d0|                                       05      |             .  |      [49]: 5 transition_type 0x3dd-0x3dd.7 (1)
0x3d0|                                          03   |              . |      [50]: 3 transition_type 0x3de-0x3de.7 (1)
0x3d0|                                             04|               .|      [51]: 4 transition_type 0x3df-0x3df.7 (1)
0x3e0|03                                             |.               |      [52]: 3 transition_type 0x3e0-0x3e0.7 (1)
0x3e0|   05                                          | .              |      [53]: 5 transition_type 0x3e1-0x3e1.7 (1)
0x3e0|      03                                       |  .             |      [54]: 3 transition_type 0x3e2-0x3e2.7 (1)
0x3e0|         04                                    |   .            |      [55]: 4 transition_type 0x3e3-0x3e3.7 (1)
0x3e0|            03                                 |    .           |      [56]: 3 transition_type 0x3e4-0x3e4.7 (1)
0x3e0|               05                              |     .          |      [57]: 5 transition_type 0x3e5-0x3e5.7 (1)
0x3e0|                  03                           |      .         |      [58]: 3 transition_type 0x3e6-0x3e6.7 (1)
0x3e0|                     04                        |       .        |      [59]: 4 transition_type 0x3e7-0x3e7.7 (1)
0x3e0|                        03                     |        .       |      [60]: 3 transition_type 0x3e8-0x3e8.7 (1)
0x3e0|                           04                  |         .      |      [61]: 4 transition_type 0x3e9-0x3e9.7 (1)
0x3e0|                              03               |          .     |      [62]: 3 transition_type 0x3ea-0x3ea.7 (1)
0x3e0|                                 04            |           .    |      [63]: 4 transition_type 0x3eb-0x3eb.7 (1)
0x3e0|                                    03         |            .   |      [64]: 3 transition_type 0x3ec-0x3ec.7 (1)
0x3e0|                                       04      |             .  |      [65]: 4 transition_type 0x3ed-0x3ed.7 (1)
0x3e0|                                          03   |              . |      [66]: 3 transition_type 0x3ee-0x3ee.7 (1)
0x3e0|                                             04|               .|      [67]: 4 transition_type 0x3ef-0x3ef.7 (1)
0x3f0|03                                             |.               |      [68]: 3 transition_type 0x3f0-0x3f0.7 (1)
0x3f0|   04                                          | .              |      [69]: 4 transition_type 0x3f1-0x3f1.7 (1)
0x3f0|      03                                       |  .             |      [70]: 3 transition_type 0x3f2-0x3f2.7 (1)
0x3f0|         04                                    |   .            |      [71]: 4 transition_type 0x3f3-0x3f3.7 (1)
0x3f0|            03                                 |    .           |      [72]: 3 transition_type 0x3f4-0x3f4.7 (1)
0x3f0|               04                              |     .          |      [73]: 4 transition_type 0x3f5-0x3f5.7 (1)
0x3f0|                  03                           |      .         |      [74]: 3 transition_type 0x3f6-0x3f6.7 (1)
0x3f0|                     04                        |       .        |      [75]: 4 transition_type 0x3f7-0x3f7.7 (1)
0x3f0|                        03                     |        .       |      [76]: 3 transition_type 0x3f8-0x3f8.7 (1)
0x3f0|                           04                  |         .      |      [77]: 4 transition_type 0x3f9-0x3f9.7 (1)
0x3f0|                              03               |          .     |      [78]: 3 transition_type 0x3fa-0x3fa.7 (1)
0x3f0|                                 04            |           .    |      [79]: 4 transition_type 0x3fb-0x3fb.7 (1)
0x3f0|                                    03         |            .   |      [80]: 3 transition_type 0x3fc-0x3fc.7 (1)
0x3f0|                                       04      |             .  |      [81]: 4 transition_type 0x3fd-0x3fd.7 (1)
0x3f0|                                          03   |              . |      [82]: 3 transition_type 0x3fe-0x3fe.7 (1)
0x3f0|                                             04|               .|      [83]: 4 transition_type 0x3ff-0x3ff.7 (1)
0x400|03                                             |.               |      [84]: 3 transition_type 0x400-0x400.7 (1)
0x400|   04                                          | .              |      [85]: 4 transition_type 0x401-0x401.7 (1)
0x400|      03                                       |  .             |      [86]: 3 transition_type 0x402-0x402.7 (1)
0x400|         04                                    |   .            |      [87]: 4 transition_type 0x403-0x403.7 (1)
0x400|            03                                 |    .           |      [88]: 3 transition_type 0x404-0x404.7 (1)
0x400|               04                              |     .          |      [89]: 4 transition_type 0x405-0x405.7 (1)
0x400|                  03                           |      .         |      [90]: 3 transition_type 0x406-0x406.7 (1)
0x400|                     04                        |       .        |      [91]: 4 transition_type 0x407-0x407.7 (1)
0x400|                        03                     |        .       |      [92]: 3 transition_type 0x408-0x408.7 (1)
0x400|                           04                  |         .      |      [93]: 4 transition_type 0x409-0x409.7 (1)
0x400|                              03               |          .     |      [94]: 3 transition_type 0x40a-0x40a.7 (1)
0x400|                                 04            |           .    |      [95]: 4 transition_type 0x40b-0x40b.7 (1)
0x400|                                    03         |            .   |      [96]: 3 transition_type 0x40c-0x40c.7 (1)
0x400|                                       04      |             .  |      [97]: 4 transition_type 0x40d-0x40d.7 (1)
0x400|                                          03   |              . |      [98]: 3 transition_type 0x40e-0x40e.7 (1)
0x400|                                             04|               .|      [99]: 4 transition_type 0x40f-0x40f.7 (1)
0x410|07                                             |.               |      [100]: 7 transition_type 0x410-0x410.7 (1)
0x410|   02                                          | .              |      [101]: 2 transition_type 0x411-0x411.7 (1)
0x410|      03                                       |  .             |      [102]: 3 transition_type 0x412-0x412.7 (1)
0x410|         04                                    |   .            |      [103]: 4 transition_type 0x413-0x413.7 (1)
0x410|            03                                 |    .           |      [104]: 3 transition_type 0x414-0x414.7 (1)
0x410|               04                              |     .          |      [105]: 4 transition_type 0x415-0x415.7 (1)
0x410|                  03                           |      .         |      [106]: 3 transition_type 0x416-0x416.7 (1)
0x410|                     04                        |       .        |      [107]: 4 transition_type 0x417-0x417.7 (1)
0x410|                        03                     |        .       |      [108]: 3 transition_type 0x418-0x418.7 (1)
0x410|                           04                  |         .      |      [109]: 4 transition_type 0x419-0x419.7 (1)
0x410|                              03               |          .     |      [110]: 3 transition_type 0x41a-0x41a.7 (1)
0x410|                                 04            |           .    |      [111]: 4 transition_type 0x41b-0x41b.7 (1)
0x410|                                    03         |            .   |      [112]: 3 transition_type 0x41c-0x41c.7 (1)
0x410|                                       04      |             .  |      [113]: 4 transition_type 0x41d-0x41d.7 (1)
0x410|                                          03   |              . |      [114]: 3 transition_type 0x41e-0x41e.7 (1)
0x410|                                             04|               .|      [115]: 4 transition_type 0x41f-0x41f.7 (1)
0x420|03                                             |.               |      [116]: 3 transition_type 0x420-0x420.7 (1)
0x420|   04                                          | .              |      [117]: 4 transition_type 0x421-0x421.7 (1)
0x420|      03                                       |  .             |      [118]: 3 transition_type 0x422-0x422.7 (1)
0x420|         04                                    |   .            |      [119]: 4 transition_type 0x423-0x423.7 (1)
0x420|            03                                 |    .           |      [120]: 3 transition_type 0x424-0x424.7 (1)
0x420|               04                              |     .          |      [121]: 4 transition_type 0x425-0x425.7 (1)
0x420|                  03                           |      .         |      [122]: 3 transition_type 0x426-0x426.7 (1)
0x420|                     04                        |       .        |      [123]: 4 transition_type 0x427-0x427.7 (1)
0x420|                        03                     |        .       |      [124]: 3 transition_type 0x428-0x428.7 (1)
0x420|                           04                  |         .      |      [125]: 4 transition_type 0x429-0x429.7 (1)
0x420|                              03               |          .     |      [126]: 3 transition_type 0x42a-0x42a.7 (1)
0x420|                                 04            |           .    |      [127]: 4 transition_type 0x42b-0x42b.7 (1)
0x420|                                    03         |            .   |      [128]: 3 transition_type 0x42c-0x42c.7 (1)
0x420|                                       04      |             .  |      [129]: 4 transition_type 0x42d-0x42d.7 (1)
0x420|                                          03   |              . |      [130]: 3 transition_type 0x42e-0x42e.7 (1)
0x420|                                             04|               .|      [131]: 4 transition_type 0x42f-0x42f.7 (1)
0x430|03                                             |.               |      [132]: 3 transition_type 0x430-0x430.7 (1)
0x430|   08                                          | .              |      [133]: 8 transition_type 0x431-0x431.7 (1)
0x430|      09                                       |  .             |      [134]: 9 transition_type 0x432-0x432.7 (1)
0x430|         08                                    |   .            |      [135]: 8 transition_type 0x433-0x433.7 (1)
0x430|            09                                 |    .           |      [136]: 9 transition_type 0x434-0x434.7 (1)
0x430|               08                              |     .          |      [137]: 8 transition_type 0x435-0x435.7 (1)
0x430|                  09                           |      .         |      [138]: 9 transition_type 0x436-0x436.7 (1)
0x430|                     08                        |       .        |      [139]: 8 transition_type 0x437-0x437.7 (1)
0x430|                        0a                     |        .       |      [140]: 10 transition_type 0x438-0x438.7 (1)
0x430|                           06                  |         .      |      [141]: 6 transition_type 0x439-0x439.7 (1)
0x430|                              0a               |          .     |      [142]: 10 transition_type 0x43a-0x43a.7 (1)
0x430|                                 06            |           .    |      [143]: 6 transition_type 0x43b-0x43b.7 (1)
0x430|                                    0a         |            .   |      [144]: 10 transition_type 0x43c-0x43c.7 (1)
0x430|                                       06      |             .  |      [145]: 6 transition_type 0x43d-0x43d.7 (1)
0x430|                                          0a   |              . |      [146]: 10 transition_type 0x43e-0x43e.7 (1)
0x430|                                             06|               .|      [147]: 6 transition_type 0x43f-0x43f.7 (1)
0x440|0a                                             |.               |      [148]: 10 transition_type 0x440-0x440.7 (1)
0x440|   06                                          | .              |      [149]: 6 transition_type 0x441-0x441.7 (1)
0x440|      0a                                       |  .             |      [150]: 10 transition_type 0x442-0x442.7 (1)
0x440|         06                                    |   .            |      [151]: 6 transition_type 0x443-0x443.7 (1)
0x440|            0a                                 |    .           |      [152]: 10 transition_type 0x444-0x444.7 (1)
0x440|               06                              |     .          |      [153]: 6 transition_type 0x445-0x445.7 (1)
0x440|                  0a                           |      .         |      [154]: 10 transition_type 0x446-0x446.7 (1)
0x440|                     06                        |       .        |      [155]: 6 transition_type 0x447-0x447.7 (1)
0x440|                        0a                     |        .       |      [156]: 10 transition_type 0x448-0x448.7 (1)
0x440|                           06                  |         .      |      [157]: 6 transition_type 0x449-0x449.7 (1)
0x440|                              0a               |          .     |      [158]: 10 transition_type 0x44a-0x44a.7 (1)
0x440|                                 06            |           .    |      [159]: 6 transition_type 0x44b-0x44b.7 (1)
0x440|                                    0a         |            .   |      [160]: 10 transition_type 0x44c-0x44c.7 (1)
0x440|                                       06      |             .  |      [161]: 6 transition_type 0x44d-0x44d.7 (1)
0x440|                                          0a   |              . |      [162]: 10 transition_type 0x44e-0x44e.7 (1)
0x440|                                             06|               .|      [163]: 6 transition_type 0x44f-0x44f.7 (1)
0x450|0a                                             |.               |      [164]: 10 transition_type 0x450-0x450.7 (1)
0x450|   06                                          | .              |      [165]: 6 transition_type 0x451-0x451.7 (1)
0x450|      0a                                       |  .             |      [166]: 10 transition_type 0x452-0x452.7 (1)
0x450|         06                                    |   .            |      [167]: 6 transition_type 0x453-0x453.7 (1)
0x450|            0a                                 |    .           |      [168]: 10 transition_type 0x454-0x454.7 (1)
0x450|               06                              |     .          |      [169]: 6 transition_type 0x455-0x455.7 (1)
0x450|                  0a                           |      .         |      [170]: 10 transition_type 0x456-0x456.7 (1)
0x450|                     06                        |       .        |      [171]: 6 transition_type 0x457-0x457.7 (1)
0x450|                        0a                     |        .       |      [172]: 10 transition_type 0x458-0x458.7 (1)
0x450|                           06                  |         .      |      [173]: 6 transition_type 0x459-0x459.7 (1)
0x450|                              0a               |          .     |      [174]: 10 transition_type 0x45a-0x45a.7 (1)
0x450|                                 06            |           .    |      [175]: 6 transition_type 0x45b-0x45b.7 (1)
0x450|                                    0a         |            .   |      [176]: 10 transition_type 0x45c-0x45c.7 (1)
0x450|                                       06      |             .  |      [177]: 6 transition_type 0x45d-0x45d.7 (1)
0x450|                                          0a   |              . |      [178]: 10 transition_type 0x45e-0x45e.7 (1)
0x450|                                             06|               .|      [179]: 6 transition_type 0x45f-0x45f.7 (1)
0x460|0a                                             |.               |      [180]: 10 transition_type 0x460-0x460.7 (1)
0x460|   06                                          | .              |      [181]: 6 transition_type 0x461-0x461.7 (1)
0x460|      0a                                       |  .             |      [182]: 10 transition_type 0x462-0x462.7 (1)
0x460|         06                                    |   .            |      [183]: 6 transition_type 0x463-0x463.7 (1)
0x460|            0a                                 |    .           |      [184]: 10 transition_type 0x464-0x464.7 (1)
0x460|               06                              |     .          |      [185]: 6 transition_type 0x465-0x465.7 (1)
0x460|                  0a                           |      .         |      [186]: 10 transition_type 0x466-0x466.7 (1)
0x460|                     06                        |       .        |      [187]: 6 transition_type 0x467-0x467.7 (1)
0x460|                        0a                     |        .       |      [188]: 10 transition_type 0x468-0x468.7 (1)
0x460|                           06                  |         .      |      [189]: 6 transition_type 0x469-0x469.7 (1)
0x460|                              0a               |          .     |      [190]: 10 transition_type 0x46a-0x46a.7 (1)
0x460|                                 06            |           .    |      [191]: 6 transition_type 0x46b-0x46b.7 (1)
0x460|                                    0a         |            .   |      [192]: 10 transition_type 0x46c-0x46c.7 (1)
0x460|                                       06      |             .  |      [193]: 6 transition_type 0x46d-0x46d.7 (1)
0x460|                                          0a   |              . |      [194]: 10 transition_type 0x46e-0x46e.7 (1)
0x460|                                             06|               .|      [195]: 6 transition_type 0x46f-0x46f.7 (1)
0x470|0a                                             |.               |      [196]: 10 transition_type 0x470-0x470.7 (1)
0x470|   06                                          | .              |      [197]: 6 transition_type 0x471-0x471.7 (1)
0x470|      0a                                       |  .             |      [198]: 10 transition_type 0x472-0x472.7 (1)
0x470|         06                                    |   .            |      [199]: 6 transition_type 0x473-0x473.7 (1)
0x470|            0a                                 |    .           |      [200]: 10 transition_type 0x474-0x474.7 (1)
0x470|               06                              |     .          |      [201]: 6 transition_type 0x475-0x475.7 (1)
0x470|                  0a                           |      .         |      [202]: 10 transition_type 0x476-0x476.7 (1)
0x470|                     06                        |       .        |      [203]: 6 transition_type 0x477-0x477.7 (1)
0x470|                        0a                     |        .       |      [204]: 10 transition_type 0x478-0x478.7 (1)
0x470|                           06                  |         .      |      [205]: 6 transition_type 0x479-0x479.7 (1)
0x470|                              0a               |          .     |      [206]: 10 transition_type 0x47a-0x47a.7 (1)
0x470|                                 06            |           .    |      [207]: 6 transition_type 0x47b-0x47b.7 (1)
0x470|                                    0a         |            .   |      [208]: 10 transition_type 0x47c-0x47c.7 (1)
0x470|                                       06      |             .  |      [209]: 6 transition_type 0x47d-0x47d.7 (1)
0x470|                                          0a   |              . |      [210]: 10 transition_type 0x47e-0x47e.7 (1)
0x470|                                             06|               .|      [211]: 6 transition_type 0x47f-0x47f.7 (1)
0x480|0a                                             |.               |      [212]: 10 transition_type 0x480-0x480.7 (1)
0x480|   06                                          | .              |      [213]: 6 transition_type 0x481-0x481.7 (1)
0x480|      0a                                       |  .             |      [214]: 10 transition_type 0x482-0x482.7 (1)
0x480|         06                                    |   .            |      [215]: 6 transition_type 0x483-0x483.7 (1)
0x480|            0a                                 |    .           |      [216]: 10 transition_type 0x484-0x484.7 (1)
0x480|               06                              |     .          |      [217]: 6 transition_type 0x485-0x485.7 (1)
0x480|                  0a                           |      .         |      [218]: 10 transition_type 0x486-0x486.7 (1)
0x480|                     06                        |       .        |      [219]: 6 transition_type 0x487-0x487.7 (1)
0x480|                        0a                     |        .       |      [220]: 10 transition_type 0x488-0x488.7 (1)
0x480|                           06                  |         .      |      [221]: 6 transition_type 0x489-0x489.7 (1)
0x480|                              0a               |          .     |      [222]: 10 transition_type 0x48a-0x48a.7 (1)
0x480|                                 06            |           .    |      [223]: 6 transition_type 0x48b-0x48b.7 (1)
     |                                               |                |    local_time_type_records[0:12]: 0x48c-0x4d3.7 (72)
     |                                               |                |      [0]{}: local_time_type 0x48c-0x491.7 (6)
0x480|                                    ff ff f7 63|            ...c|        utoff: -2205 (valid) 0x48c-0x48f.7 (4)
0x490|00                                             |.               |        dst: 0 (valid) 0x490-0x490.7 (1)
0x490|   00                                          | .              |        idx: 0 (valid) 0x491-0x491.7 (1)
     |                                               |                |      [1]{}: local_time_type 0x492-0x497.7 (6)
0x490|      00 00 0e 10                              |  ....          |        utoff: 3600 (valid) 0x492-0x495.7 (4)
0x490|                  01                           |      .         |        dst: 1 (valid) 0x496-0x496.7 (1)
0x490|                     04                        |       .        |        idx: 4 (valid) 0x497-0x497.7 (1)
     |                                               |                |      [2]{}: local_time_type 0x498-0x49d.7 (6)
0x490|                        00 00 00 00            |        ....    |        utoff: 0 (valid) 0x498-0x49b.7 (4)
0x490|                                    00         |            .   |        dst: 0 (valid) 0x49c-0x49c.7 (1)
0x490|                                       09      |             .  |        idx: 9 (valid) 0x49d-0x49d.7 (1)
     |                                               |                |      [3]{}: local_time_type 0x49e-0x4a3.7 (6)
0x490|                                          00 00|              ..|        utoff: 3600 (valid) 0x49e-0x4a1.7 (4)
0x4a0|0e 10                                          |..              |
0x4a0|      01                                       |  .             |        dst: 1 (valid) 0x4a2-0x4a2.7 (1)
0x4a0|         04                                    |   .            |        idx: 4 (valid) 0x4a3-0x4a3.7 (1)
     |                                               |                |      [4]{}: local_time_type 0x4a4-0x4a9.7 (6)
0x4a0|            00 00 00 00                        |    ....        |        utoff: 0 (valid) 0x4a4-0x4a7.7 (4)
0x4a0|                        00                     |        .       |        dst: 0 (valid) 0x4a8-0x4a8.7 (1)
0x4a0|                           09                  |         .      |        idx: 9 (valid) 0x4a9-0x4a9.7 (1)
     |                                               |                |      [5]{}: local_time_type 0x4aa-0x4af.7 (6)
0x4a0|                              00 00 1c 20      |          ...   |        utoff: 7200 (valid) 0x4aa-0x4ad.7 (4)
0x4a0|                                          01   |              . |        dst: 1 (valid) 0x4ae-0x4ae.7 (1)
0x4a0|                                             0d|               .|        idx: 13 (valid) 0x4af-0x4af.7 (1)
     |                                               |                |      [6]{}: local_time_type 0x4b0-0x4b5.7 (6)
0x4b0|00 00 00 00                                    |....            |        utoff: 0 (valid) 0x4b0-0x4b3.7 (4)
0x4b0|            00                                 |    .           |        dst: 0 (valid) 0x4b4-0x4b4.7 (1)
0x4b0|               09                              |     .          |        idx: 9 (valid) 0x4b5-0x4b5.7 (1)
     |                                               |                |      [7]{}: local_time_type 0x4b6-0x4bb.7 (6)
0x4b0|                  00 00 0e 10                  |      ....      |        utoff: 3600 (valid) 0x4b6-0x4b9.7 (4)
0x4b0|                              00               |          .     |        dst: 0 (valid) 0x4ba-0x4ba.7 (1)
0x4b0|                                 12            |           .    |        idx: 18 (valid) 0x4bb-0x4bb.7 (1)
     |                                               |                |      [8]{}: local_time_type 0x4bc-0x4c1.7 (6)
0x4b0|                                    00 00 0e 10|            ....|        utoff: 3600 (valid) 0x4bc-0x4bf.7 (4)
0x4c0|00                                             |.               |        dst: 0 (valid) 0x4c0-0x4c0.7 (1)
0x4c0|   12                                          | .              |        idx: 18 (valid) 0x4c1-0x4c1.7 (1)
     |                                               |                |      [9]{}: local_time_type 0x4c2-0x4c7.7 (6)
0x4c0|      00 00 1c 20                              |  ...           |        utoff: 7200 (valid) 0x4c2-0x4c5.7 (4)
0x4c0|                  01                           |      .         |        dst: 1 (valid) 0x4c6-0x4c6.7 (1)
0x4c0|                     16                        |       .        |        idx: 22 (valid) 0x4c7-0x4c7.7 (1)
     |                                               |                |      [10]{}: local_time_type 0x4c8-0x4cd.7 (6)
0x4c0|                        00 00 0e 10            |        ....    |        utoff: 3600 (valid) 0x4c8-0x4cb.7 (4)
0x4c0|                                    01         |            .   |        dst: 1 (valid) 0x4cc-0x4cc.7 (1)
0x4c0|                                       04      |             .  |        idx: 4 (valid) 0x4cd-0x4cd.7 (1)
     |                                               |                |      [11]{}: local_time_type 0x4ce-0x4d3.7 (6)
0x4c0|                                          00 00|              ..|        utoff: 0 (valid) 0x4ce-0x4d1.7 (4)
0x4d0|00 00                                          |..              |
0x4d0|      00                                       |  .             |        dst: 0 (valid) 0x4d2-0x4d2.7 (1)
0x4d0|         09                                    |   .            |        idx: 9 (valid) 0x4d3-0x4d3.7 (1)
     |                                               |                |    time_zone_designations[0:6]: 0x4d4-0x4ee.7 (27)
0x4d0|            4c 4d 54 00                        |    LMT.        |      [0]: "LMT" time_zone_designation 0x4d4-0x4d7.7 (4)
0x4d0|                        57 45 53 54 00         |        WEST.   |      [1]: "WEST" time_zone_designation 0x4d8-0x4dc.7 (5)
0x4d0|                                       57 45 54|             WET|      [2]: "WET" time_zone_designation 0x4dd-0x4e0.7 (4)
0x4e0|00                                             |.               |
0x4e0|   57 45 4d 54 00                              | WEMT.          |      [3]: "WEMT" time_zone_designation 0x4e1-0x4e5.7 (5)
0x4e0|                  43 45 54 00                  |      CET.      |      [4]: "CET" time_zone_designation 0x4e6-0x4e9.7 (4)
0x4e0|                              43 45 53 54 00   |          CEST. |      [5]: "CEST" time_zone_designation 0x4ea-0x4ee.7 (5)
     |                                               |                |    leap_second_records[0:0]: 0x4ef-NA (0)
     |                                               |                |    standard_wall_indicators[0:12]: 0x4ef-0x4fa.7 (12)
0x4e0|                                             00|               .|      [0]: 0 standard_wall_indicator (valid) 0x4ef-0x4ef.7 (1)
0x4f0|00                                             |.               |      [1]: 0 standard_wall_indicator (valid) 0x4f0-0x4f0.7 (1)
0x4f0|   00                                          | .              |      [2]: 0 standard_wall_indicator (valid) 0x4f1-0x4f1.7 (1)
0x4f0|      01                                       |  .             |      [3]: 1 standard_wall_indicator (valid) 0x4f2-0x4f2.7 (1)
0x4f0|         01                                    |   .            |      [4]: 1 standard_wall_indicator (valid) 0x4f3-0x4f3.7 (1)
0x4f0|            01                                 |    .           |      [5]: 1 standard_wall_indicator (valid) 0x4f4-0x4f4.7 (1)
0x4f0|               01                              |     .          |      [6]: 1 standard_wall_indicator (valid) 0x4f5-0x4f5.7 (1)
0x4f0|                  00                           |      .         |      [7]: 0 standard_wall_indicator (valid) 0x4f6-0x4f6.7 (1)
0x4f0|                     01                        |       .        |      [8]: 1 standard_wall_indicator (valid) 0x4f7-0x4f7.7 (1)
0x4f0|                        01                     |        .       |      [9]: 1 standard_wall_indicator (valid) 0x4f8-0x4f8.7 (1)
0x4f0|                           01                  |         .      |      [10]: 1 standard_wall_indicator (valid) 0x4f9-0x4f9.7 (1)
0x4f0|                              01               |          .     |      [11]: 1 standard_wall_indicator (valid) 0x4fa-0x4fa.7 (1)
     |                                               |                |    ut_local_indicators[0:12]: 0x4fb-0x506.7 (12)
0x4f0|                                 00            |           .    |      [0]: 0 ut_local_indicator (valid) 0x4fb-0x4fb.7 (1)
0x4f0|                                    00         |            .   |      [1]: 0 ut_local_indicator (valid) 0x4fc-0x4fc.7 (1)
0x4f0|                                       00      |             .  |      [2]: 0 ut_local_indicator (valid) 0x4fd-0x4fd.7 (1)
0x4f0|                                          00   |              . |      [3]: 0 ut_local_indicator (valid) 0x4fe-0x4fe.7 (1)
0x4f0|                                             00|               .|      [4]: 0 ut_local_indicator (valid) 0x4ff-0x4ff.7 (1)
0x500|00                                             |.               |      [5]: 0 ut_local_indicator (valid) 0x500-0x500.7 (1)
0x500|   01                                          | .              |      [6]: 1 ut_local_indicator (valid) 0x501-0x501.7 (1)
0x500|      00                                       |  .             |      [7]: 0 ut_local_indicator (valid) 0x502-0x502.7 (1)
0x500|         01                                    |   .            |      [8]: 1 ut_local_indicator (valid) 0x503-0x503.7 (1)
0x500|            01                                 |    .           |      [9]: 1 ut_local_indicator (valid) 0x504-0x504.7 (1)
0x500|               01                              |     .          |      [10]: 1 ut_local_indicator (valid) 0x505-0x505.7 (1)
0x500|                  01                           |      .         |      [11]: 1 ut_local_indicator (valid) 0x506-0x506.7 (1)
     |                                               |                |  v2plusheader{}: 0x507-0x532.7 (44)
0x500|                     54 5a 69 66               |       TZif     |    magic: 0x545a6966 (valid) 0x507-0x50a.7 (4)
0x500|                                 32            |           2    |    ver: "2" (0x32) (valid) 0x50b-0x50b.7 (1)
0x500|                                    00 00 00 00|            ....|    reserved: raw bits 0x50c-0x51a.7 (15)
0x510|00 00 00 00 00 00 00 00 00 00 00               |...........     |
0x510|                                 00 00 00 0c   |           .... |    isutcnt: 12 0x51b-0x51e.7 (4)
0x510|                                             00|               .|    isstdcnt: 12 0x51f-0x522.7 (4)
0x520|00 00 0c                                       |...             |
0x520|         00 00 00 00                           |   ....         |    leapcnt: 0 0x523-0x526.7 (4)
0x520|                     00 00 00 e0               |       ....     |    timecnt: 224 0x527-0x52a.7 (4)
0x520|                                 00 00 00 0c   |           .... |    typecnt: 12 0x52b-0x52e.7 (4)
0x520|                                             00|               .|    charcnt: 27 0x52f-0x532.7 (4)
0x530|00 00 1b                                       |...             |
     |                                               |                |  v2plusdatablock{}: 0x533-0xd8d.7 (2139)
     |                                               |                |    transition_times[0:224]: 0x533-0xc32.7 (1792)
0x530|         ff ff ff ff 5e 3d 0c 1d               |   ....^=..     |      [0]: "1884-01-01T00:36:45Z" (-2713908195) transition_time 0x533-0x53a.7 (8)
0x530|                                 ff ff ff ff 92|           .....|      [1]: "1912-01-01T00:00:00Z" (-1830384000) transition_time 0x53b-0x542.7 (8)
0x540|e6 8e 80                                       |...             |
0x540|         ff ff ff ff 9b 4b 6d 70               |   .....Kmp     |      [2]: "1916-06-17T23:00:00Z" (-1689555600) transition_time 0x543-0x54a.7 (8)
0x540|                                 ff ff ff ff 9b|           .....|      [3]: "1916-11-01T00:00:00Z" (-1677801600) transition_time 0x54b-0x552.7 (8)
0x550|fe c7 80                                       |...             |
0x550|         ff ff ff ff 9c 9c ed 70               |   .......p     |      [4]: "1917-02-28T23:00:00Z" (-1667437200) transition_time 0x553-0x55a.7 (8)
0x550|                                 ff ff ff ff 9d|           .....|      [5]: "1917-10-14T23:00:00Z" (-1647738000) transition_time 0x55b-0x562.7 (8)
0x560|c9 83 70                                       |..p             |
0x560|         ff ff ff ff 9e 7f 72 70               |   ......rp     |      [6]: "1918-03-01T23:00:00Z" (-1635814800) transition_time 0x563-0x56a.7 (8)
0x560|                                 ff ff ff ff 9f|           .....|      [7]: "1918-10-14T23:00:00Z" (-1616202000) transition_time 0x56b-0x572.7 (8)
0x570|aa b6 f0                                       |...             |
0x570|         ff ff ff ff a0 5f 54 70               |   ....._Tp     |      [8]: "1919-02-28T23:00:00Z" (-1604365200) transition_time 0x573-0x57a.7 (8)
0x570|                                 ff ff ff ff a1|           .....|      [9]: "1919-10-14T23:00:00Z" (-1584666000) transition_time 0x57b-0x582.7 (8)
0x580|8b ea 70                                       |..p             |
0x580|         ff ff ff ff a2 41 d9 70               |   .....A.p     |      [10]: "1920-02-29T23:00:00Z" (-1572742800) transition_time 0x583-0x58a.7 (8)
0x580|                                 ff ff ff ff a3|           .....|      [11]: "1920-10-14T23:00:00Z" (-1553043600) transition_time 0x58b-0x592.7 (8)
0x590|6e 6f 70                                       |nop             |
0x590|         ff ff ff ff a4 23 0c f0               |   .....#..     |      [12]: "1921-02-28T23:00:00Z" (-1541206800) transition_time 0x593-0x59a.7 (8)
0x590|                                 ff ff ff ff a5|           .....|      [13]: "1921-10-14T23:00:00Z" (-1521507600) transition_time 0x59b-0x5a2.7 (8)
0x5a0|4f a2 f0                                       |O..             |
0x5a0|         ff ff ff ff aa 05 ef 70               |   .......p     |      [14]: "1924-04-16T23:00:00Z" (-1442451600) transition_time 0x5a3-0x5aa.7 (8)
0x5a0|                                 ff ff ff ff aa|           .....|      [15]: "1924-10-14T23:00:00Z" (-1426813200) transition_time 0x5ab-0x5b2.7 (8)
0x5b0|f4 8e f0                                       |...             |
0x5b0|         ff ff ff ff ad c9 a7 f0               |   ........     |      [16]: "1926-04-17T23:00:00Z" (-1379293200) transition_time 0x5b3-0x5ba.7 (8)
0x5b0|                                 ff ff ff ff ae|           .....|      [17]: "1926-10-02T23:00:00Z" (-1364778000) transition_time 0x5bb-0x5c2.7 (8)
0x5c0|a7 23 f0                                       |.#.             |
0x5c0|         ff ff ff ff af a0 4f 70               |   ......Op     |      [18]: "1927-04-09T23:00:00Z" (-1348448400) transition_time 0x5c3-0x5ca.7 (8)
0x5c0|                                 ff ff ff ff b0|           .....|      [19]: "1927-10-01T23:00:00Z" (-1333328400) transition_time 0x5cb-0x5d2.7 (8)
0x5d0|87 05 f0                                       |...             |
0x5d0|         ff ff ff ff b1 89 6b f0               |   ......k.     |      [20]: "1928-04-14T23:00:00Z" (-1316394000) transition_time 0x5d3-0x5da.7 (8)
0x5d0|                                 ff ff ff ff b2|           .....|      [21]: "1928-10-06T23:00:00Z" (-1301274000) transition_time 0x5db-0x5e2.7 (8)
0x5e0|70 22 70                                       |p"p             |
0x5e0|         ff ff ff ff b3 72 88 70               |   .....r.p     |      [22]: "1929-04-20T23:00:00Z" (-1284339600) transition_time 0x5e3-0x5ea.7 (8)
0x5e0|                                 ff ff ff ff b4|           .....|      [23]: "1929-10-05T23:00:00Z" (-1269824400) transition_time 0x5eb-0x5f2.7 (8)
0x5f0|50 04 70                                       |P.p             |
0x5f0|         ff ff ff ff b7 32 4c 70               |   .....2Lp     |      [24]: "1931-04-18T23:00:00Z" (-1221440400) transition_time 0x5f3-0x5fa.7 (8)
0x5f0|                                 ff ff ff ff b8|           .....|      [25]: "1931-10-03T23:00:00Z" (-1206925200) transition_time 0x5fb-0x602.7 (8)
0x600|0f c8 70                                       |..p             |
0x600|         ff ff ff ff b8 ff b9 70               |   .......p     |      [26]: "1932-04-02T23:00:00Z" (-1191200400) transition_time 0x603-0x60a.7 (8)
0x600|                                 ff ff ff ff b9|           .....|      [27]: "1932-10-01T23:00:00Z" (-1175475600) transition_time 0x60b-0x612.7 (8)
0x610|ef aa 70                                       |..p             |
0x610|         ff ff ff ff bc c8 b7 f0               |   ........     |      [28]: "1934-04-07T23:00:00Z" (-1127696400) transition_time 0x613-0x61a.7 (8)
0x610|                                 ff ff ff ff bd|           .....|      [29]: "1934-10-06T23:00:00Z" (-1111971600) transition_time 0x61b-0x622.7 (8)
0x620|b8 a8 f0                                       |...             |
0x620|         ff ff ff ff be 9f 5f 70               |   ......_p     |      [30]: "1935-03-30T23:00:00Z" (-1096851600) transition_time 0x623-0x62a.7 (8)
0x620|                                 ff ff ff ff bf|           .....|      [31]: "1935-10-05T23:00:00Z" (-1080522000) transition_time 0x62b-0x632.7 (8)
0x630|98 8a f0                                       |...             |
0x630|         ff ff ff ff c0 9a f0 f0               |   ........     |      [32]: "1936-04-18T23:00:00Z" (-1063587600) transition_time 0x633-0x63a.7 (8)
0x630|                                 ff ff ff ff c1|           .....|      [33]: "1936-10-03T23:00:00Z" (-1049072400) transition_time 0x63b-0x642.7 (8)
0x640|78 6c f0                                       |xl.             |
0x640|         ff ff ff ff c2 68 5d f0               |   .....h].     |      [34]: "1937-04-03T23:00:00Z" (-1033347600) transition_time 0x643-0x64a.7 (8)
0x640|                                 ff ff ff ff c3|           .....|      [35]: "1937-10-02T23:00:00Z" (-1017622800) transition_time 0x64b-0x652.7 (8)
0x650|58 4e f0                                       |XN.             |
0x650|         ff ff ff ff c4 3f 05 70               |   .....?.p     |      [36]: "1938-03-26T23:00:00Z" (-1002502800) transition_time 0x653-0x65a.7 (8)
0x650|                                 ff ff ff ff c5|           .....|      [37]: "1938-10-01T23:00:00Z" (-986173200) transition_time 0x65b-0x662.7 (8)
0x660|38 30 f0                                       |80.             |
0x660|         ff ff ff ff c6 3a 96 f0               |   .....:..     |      [38]: "1939-04-15T23:00:00Z" (-969238800) transition_time 0x663-0x66a.7 (8)
0x660|                                 ff ff ff ff c7|           .....|      [39]: "1939-11-18T23:00:00Z" (-950490000) transition_time 0x66b-0x672.7 (8)
0x670|58 ac 70                                       |X.p             |
0x670|         ff ff ff ff c7 d9 df 70               |   .......p     |      [40]: "1940-02-24T23:00:00Z" (-942022800) transition_time 0x673-0x67a.7 (8)
0x670|                                 ff ff ff ff c9|           .....|      [41]: "1940-10-05T23:00:00Z" (-922669200) transition_time 0x67b-0x682.7 (8)
0x680|01 2f 70                                       |./p             |
0x680|         ff ff ff ff c9 f1 20 70               |   ...... p     |      [42]: "1941-04-05T23:00:00Z" (-906944400) transition_time 0x683-0x68a.7 (8)
0x680|                                 ff ff ff ff ca|           .....|      [43]: "1941-10-05T23:00:00Z" (-891133200) transition_time 0x68b-0x692.7 (8)
0x690|e2 62 f0                                       |.b.             |
0x690|         ff ff ff ff cb b5 52 f0               |   ......R.     |      [44]: "1942-03-14T23:00:00Z" (-877309200) transition_time 0x693-0x69a.7 (8)
0x690|                                 ff ff ff ff cb|           .....|      [45]: "1942-04-25T22:00:00Z" (-873684000) transition_time 0x69b-0x6a2.7 (8)
0x6a0|ec a3 e0                                       |...             |
0x6a0|         ff ff ff ff cc 80 4b e0               |   ......K.     |      [46]: "1942-08-15T22:00:00Z" (-864007200) transition_time 0x6a3-0x6aa.7 (8)
0x6a0|                                 ff ff ff ff cc|           .....|      [47]: "1942-10-24T23:00:00Z" (-857955600) transition_time 0x6ab-0x6b2.7 (8)
0x6b0|dc a2 f0                                       |...             |
0x6b0|         ff ff ff ff cd 95 34 f0               |   ......4.     |      [48]: "1943-03-13T23:00:00Z" (-845859600) transition_time 0x6b3-0x6ba.7 (8)
0x6b0|                                 ff ff ff ff cd|           .....|      [49]: "1943-04-17T22:00:00Z" (-842839200) transition_time 0x6bb-0x6c2.7 (8)
0x6c0|c3 4b 60                                       |.K`             |
0x6c0|         ff ff ff ff ce 72 a2 e0               |   .....r..     |      [50]: "1943-08-28T22:00:00Z" (-831348000) transition_time 0x6c3-0x6ca.7 (8)
0x6c0|                                 ff ff ff ff ce|           .....|      [51]: "1943-10-30T23:00:00Z" (-825901200) transition_time 0x6cb-0x6d2.7 (8)
0x6d0|c5 bf 70                                       |..p             |
0x6d0|         ff ff ff ff cf 75 16 f0               |   .....u..     |      [52]: "1944-03-11T23:00:00Z" (-814410000) transition_time 0x6d3-0x6da.7 (8)
0x6d0|                                 ff ff ff ff cf|           .....|      [53]: "1944-04-22T22:00:00Z" (-810784800) transition_time 0x6db-0x6e2.7 (8)
0x6e0|ac 67 e0                                       |.g.             |
0x6e0|         ff ff ff ff d0 52 84 e0               |   .....R..     |      [54]: "1944-08-26T22:00:00Z" (-799898400) transition_time 0x6e3-0x6ea.7 (8)
0x6e0|                                 ff ff ff ff d0|           .....|      [55]: "1944-10-28T23:00:00Z" (-794451600) transition_time 0x6eb-0x6f2.7 (8)
0x6f0|a5 a1 70                                       |..p             |
0x6f0|         ff ff ff ff d1 54 f8 f0               |   .....T..     |      [56]: "1945-03-10T23:00:00Z" (-782960400) transition_time 0x6f3-0x6fa.7 (8)
0x6f0|                                 ff ff ff ff d1|           .....|      [57]: "1945-04-21T22:00:00Z" (-779335200) transition_time 0x6fb-0x702.7 (8)
0x700|8c 49 e0                                       |.I.             |
0x700|         ff ff ff ff d2 32 66 e0               |   .....2f.     |      [58]: "1945-08-25T22:00:00Z" (-768448800) transition_time 0x703-0x70a.7 (8)
0x700|                                 ff ff ff ff d2|           .....|      [59]: "1945-10-27T23:00:00Z" (-763002000) transition_time 0x70b-0x712.7 (8)
0x710|85 83 70                                       |..p             |
0x710|         ff ff ff ff d3 59 c4 f0               |   .....Y..     |      [60]: "1946-04-06T23:00:00Z" (-749091600) transition_time 0x713-0x71a.7 (8)
0x710|                                 ff ff ff ff d4|           .....|      [61]: "1946-10-05T23:00:00Z" (-733366800) transition_time 0x71b-0x722.7 (8)
0x720|49 b5 f0                                       |I..             |
0x720|         ff ff ff ff d5 39 d1 20               |   .....9.      |      [62]: "1947-04-06T02:00:00Z" (-717631200) transition_time 0x723-0x72a.7 (8)
0x720|                                 ff ff ff ff d6|           .....|      [63]: "1947-10-05T02:00:00Z" (-701906400) transition_time 0x72b-0x732.7 (8)
0x730|29 c2 20                                       |).              |
0x730|         ff ff ff ff d7 19 b3 20               |   .......      |      [64]: "1948-04-04T02:00:00Z" (-686181600) transition_time 0x733-0x73a.7 (8)
0x730|                                 ff ff ff ff d8|           .....|      [65]: "1948-10-03T02:00:00Z" (-670456800) transition_time 0x73b-0x742.7 (8)
0x740|09 a4 20                                       |..              |
0x740|         ff ff ff ff d8 f9 95 20               |   .......      |      [66]: "1949-04-03T02:00:00Z" (-654732000) transition_time 0x743-0x74a.7 (8)
0x740|                                 ff ff ff ff d9|           .....|      [67]: "1949-10-02T02:00:00Z" (-639007200) transition_time 0x74b-0x752.7 (8)
0x750|e9 86 20                                       |..              |
0x750|         ff ff ff ff da d9 77 20               |   ......w      |      [68]: "1950-04-02T02:00:00Z" (-623282400) transition_time 0x753-0x75a.7 (8)
0x750|                                 ff ff ff ff db|           .....|      [69]: "1950-10-01T02:00:00Z" (-607557600) transition_time 0x75b-0x762.7 (8)
0x760|c9 68 20                                       |.h              |
0x760|         ff ff ff ff dc b9 59 20               |   ......Y      |      [70]: "1951-04-01T02:00:00Z" (-591832800) transition_time 0x763-0x76a.7 (8)
0x760|                                 ff ff ff ff dd|           .....|      [71]: "1951-10-07T02:00:00Z" (-575503200) transition_time 0x76b-0x772.7 (8)
0x770|b2 84 a0                                       |...             |
0x770|         ff ff ff ff de a2 75 a0               |   ......u.     |      [72]: "1952-04-06T02:00:00Z" (-559778400) transition_time 0x773-0x77a.7 (8)
0x770|                                 ff ff ff ff df|           .....|      [73]: "1952-10-05T02:00:00Z" (-544053600) transition_time 0x77b-0x782.7 (8)
0x780|92 66 a0                                       |.f.             |
0x780|         ff ff ff ff e0 82 57 a0               |   ......W.     |      [74]: "1953-04-05T02:00:00Z" (-528328800) transition_time 0x783-0x78a.7 (8)
0x780|                                 ff ff ff ff e1|           .....|      [75]: "1953-10-04T02:00:00Z" (-512604000) transition_time 0x78b-0x792.7 (8)
0x790|72 48 a0                                       |rH.             |
0x790|         ff ff ff ff e2 62 39 a0               |   .....b9.     |      [76]: "1954-04-04T02:00:00Z" (-496879200) transition_time 0x793-0x79a.7 (8)
0x790|                                 ff ff ff ff e3|           .....|      [77]: "1954-10-03T02:00:00Z" (-481154400) transition_time 0x79b-0x7a2.7 (8)
0x7a0|52 2a a0                                       |R*.             |
0x7a0|         ff ff ff ff e4 42 1b a0               |   .....B..     |      [78]: "1955-04-03T02:00:00Z" (-465429600) transition_time 0x7a3-0x7aa.7 (8)
0x7a0|                                 ff ff ff ff e5|           .....|      [79]: "1955-10-02T02:00:00Z" (-449704800) transition_time 0x7ab-0x7b2.7 (8)
0x7b0|32 0c a0                                       |2..             |
0x7b0|         ff ff ff ff e6 21 fd a0               |   .....!..     |      [80]: "1956-04-01T02:00:00Z" (-433980000) transition_time 0x7b3-0x7ba.7 (8)
0x7b0|                                 ff ff ff ff e7|           .....|      [81]: "1956-10-07T02:00:00Z" (-417650400) transition_time 0x7bb-0x7c2.7 (8)
0x7c0|1b 29 20                                       |.)              |
0x7c0|         ff ff ff ff e8 0b 1a 20               |   .......      |      [82]: "1957-04-07T02:00:00Z" (-401925600) transition_time 0x7c3-0x7ca.7 (8)
0x7c0|                                 ff ff ff ff e8|           .....|      [83]: "1957-10-06T02:00:00Z" (-386200800) transition_time 0x7cb-0x7d2.7 (8)
0x7d0|fb 0b 20                                       |..              |
0x7d0|         ff ff ff ff e9 ea fc 20               |   .......      |      [84]: "1958-04-06T02:00:00Z" (-370476000) transition_time 0x7d3-0x7da.7 (8)
0x7d0|                                 ff ff ff ff ea|           .....|      [85]: "1958-10-05T02:00:00Z" (-354751200) transition_time 0x7db-0x7e2.7 (8)
0x7e0|da ed 20                                       |..              |
0x7e0|         ff ff ff ff eb ca de 20               |   .......      |      [86]: "1959-04-05T02:00:00Z" (-339026400) transition_time 0x7e3-0x7ea.7 (8)
0x7e0|                                 ff ff ff ff ec|           .....|      [87]: "1959-10-04T02:00:00Z" (-323301600) transition_time 0x7eb-0x7f2.7 (8)
0x7f0|ba cf 20                                       |..              |
0x7f0|         ff ff ff ff ed aa c0 20               |   .......      |      [88]: "1960-04-03T02:00:00Z" (-307576800) transition_time 0x7f3-0x7fa.7 (8)
0x7f0|                                 ff ff ff ff ee|           .....|      [89]: "1960-10-02T02:00:00Z" (-291852000) transition_time 0x7fb-0x802.7 (8)
0x800|9a b1 20                                       |..              |
0x800|         ff ff ff ff ef 8a a2 20               |   .......      |      [90]: "1961-04-02T02:00:00Z" (-276127200) transition_time 0x803-0x80a.7 (8)
0x800|                                 ff ff ff ff f0|           .....|      [91]: "1961-10-01T02:00:00Z" (-260402400) transition_time 0x80b-0x812.7 (8)
0x810|7a 93 20                                       |z.              |
0x810|         ff ff ff ff f1 6a 84 20               |   .....j.      |      [92]: "1962-04-01T02:00:00Z" (-244677600) transition_time 0x813-0x81a.7 (8)
0x810|                                 ff ff ff ff f2|           .....|      [93]: "1962-10-07T02:00:00Z" (-228348000) transition_time 0x81b-0x822.7 (8)
0x820|63 af a0                                       |c..             |
0x820|         ff ff ff ff f3 53 a0 a0               |   .....S..     |      [94]: "1963-04-07T02:00:00Z" (-212623200) transition_time 0x823-0x82a.7 (8)
0x820|                                 ff ff ff ff f4|           .....|      [95]: "1963-10-06T02:00:00Z" (-196898400) transition_time 0x82b-0x832.7 (8)
0x830|43 91 a0                                       |C..             |
0x830|         ff ff ff ff f5 33 82 a0               |   .....3..     |      [96]: "1964-04-05T02:00:00Z" (-181173600) transition_time 0x833-0x83a.7 (8)
0x830|                                 ff ff ff ff f6|           .....|      [97]: "1964-10-04T02:00:00Z" (-165448800) transition_time 0x83b-0x842.7 (8)
0x840|23 73 a0                                       |#s.             |
0x840|         ff ff ff ff f7 13 64 a0               |   ......d.     |      [98]: "1965-04-04T02:00:00Z" (-149724000) transition_time 0x843-0x84a.7 (8)
0x840|                                 ff ff ff ff f8|           .....|      [99]: "1965-10-03T02:00:00Z" (-133999200) transition_time 0x84b-0x852.7 (8)
0x850|03 55 a0                                       |.U.             |
0x850|         ff ff ff ff f8 f3 46 a0               |   ......F.     |      [100]: "1966-04-03T02:00:00Z" (-118274400) transition_time 0x853-0x85a.7 (8)
0x850|                                 00 00 00 00 0c|           .....|      [101]: "1976-09-26T00:00:00Z" (212544000) transition_time 0x85b-0x862.7 (8)
0x860|ab 2a 00                                       |.*.             |
0x860|         00 00 00 00 0d 9b 1b 00               |   ........     |      [102]: "1977-03-27T00:00:00Z" (228268800) transition_time 0x863-0x86a.7 (8)
0x860|                                 00 00 00 00 0e|           .....|      [103]: "1977-09-25T00:00:00Z" (243993600) transition_time 0x86b-0x872.7 (8)
0x870|8b 0c 00                                       |...             |
0x870|         00 00 00 00 0f 84 37 80               |   ......7.     |      [104]: "1978-04-02T00:00:00Z" (260323200) transition_time 0x873-0x87a.7 (8)
0x870|                                 00 00 00 00 10|           .....|      [105]: "1978-10-01T00:00:00Z" (276048000) transition_time 0x87b-0x882.7 (8)
0x880|74 28 80                                       |t(.             |
0x880|         00 00 00 00 11 64 19 80               |   .....d..     |      [106]: "1979-04-01T00:00:00Z" (291772800) transition_time 0x883-0x88a.7 (8)
0x880|                                 00 00 00 00 12|           .....|      [107]: "1979-09-30T01:00:00Z" (307501200) transition_time 0x88b-0x892.7 (8)
0x890|54 18 90                                       |T..             |
0x890|         00 00 00 00 13 43 fb 80               |   .....C..     |      [108]: "1980-03-30T00:00:00Z" (323222400) transition_time 0x893-0x89a.7 (8)
0x890|                                 00 00 00 00 14|           .....|      [109]: "1980-09-28T01:00:00Z" (338950800) transition_time 0x89b-0x8a2.7 (8)
0x8a0|33 fa 90                                       |3..             |
0x8a0|         00 00 00 00 15 23 eb 90               |   .....#..     |      [110]: "1981-03-29T01:00:00Z" (354675600) transition_time 0x8a3-0x8aa.7 (8)
0x8a0|                                 00 00 00 00 16|           .....|      [111]: "1981-09-27T01:00:00Z" (370400400) transition_time 0x8ab-0x8b2.7 (8)
0x8b0|13 dc 90                                       |...             |
0x8b0|         00 00 00 00 17 03 cd 90               |   ........     |      [112]: "1982-03-28T01:00:00Z" (386125200) transition_time 0x8b3-0x8ba.7 (8)
0x8b0|                                 00 00 00 00 17|           .....|      [113]: "1982-09-26T01:00:00Z" (401850000) transition_time 0x8bb-0x8c2.7 (8)
0x8c0|f3 be 90                                       |...             |
0x8c0|         00 00 00 00 18 e3 bd a0               |   ........     |      [114]: "1983-03-27T02:00:00Z" (417578400) transition_time 0x8c3-0x8ca.7 (8)
0x8c0|                                 00 00 00 00 19|           .....|      [115]: "1983-09-25T01:00:00Z" (433299600) transition_time 0x8cb-0x8d2.7 (8)
0x8d0|d3 a0 90                                       |...             |
0x8d0|         00 00 00 00 1a c3 91 90               |   ........     |      [116]: "1984-03-25T01:00:00Z" (449024400) transition_time 0x8d3-0x8da.7 (8)
0x8d0|                                 00 00 00 00 1b|           .....|      [117]: "1984-09-30T01:00:00Z" (465354000) transition_time 0x8db-0x8e2.7 (8)
0x8e0|bc bd 10                                       |...             |
0x8e0|         00 00 00 00 1c ac ae 10               |   ........     |      [118]: "1985-03-31T01:00:00Z" (481078800) transition_time 0x8e3-0x8ea.7 (8)
0x8e0|                                 00 00 00 00 1d|           .....|      [119]: "1985-09-29T01:00:00Z" (496803600) transition_time 0x8eb-0x8f2.7 (8)
0x8f0|9c 9f 10                                       |...             |
0x8f0|         00 00 00 00 1e 8c 90 10               |   ........     |      [120]: "1986-03-30T01:00:00Z" (512528400) transition_time 0x8f3-0x8fa.7 (8)
0x8f0|                                 00 00 00 00 1f|           .....|      [121]: "1986-09-28T01:00:00Z" (528253200) transition_time 0x8fb-0x902.7 (8)
0x900|7c 81 10                                       ||..             |
0x900|         00 00 00 00 20 6c 72 10               |   .... lr.     |      [122]: "1987-03-29T01:00:00Z" (543978000) transition_time 0x903-0x90a.7 (8)
0x900|                                 00 00 00 00 21|           ....!|      [123]: "1987-09-27T01:00:00Z" (559702800) transition_time 0x90b-0x912.7 (8)
0x910|5c 63 10                                       |\c.             |
0x910|         00 00 00 00 22 4c 54 10               |   ...."LT.     |      [124]: "1988-03-27T01:00:00Z" (575427600) transition_time 0x913-0x91a.7 (8)
0x910|                                 00 00 00 00 23|           ....#|      [125]: "1988-09-25T01:00:00Z" (591152400) transition_time 0x91b-0x922.7 (8)
0x920|3c 45 10                                       |<E.             |
0x920|         00 00 00 00 24 2c 36 10               |   ....$,6.     |      [126]: "1989-03-26T01:00:00Z" (606877200) transition_time 0x923-0x92a.7 (8)
0x920|                                 00 00 00 00 25|           ....%|      [127]: "1989-09-24T01:00:00Z" (622602000) transition_time 0x92b-0x932.7 (8)
0x930|1c 27 10                                       |.'.             |
0x930|         00 00 00 00 26 0c 18 10               |   ....&...     |      [128]: "1990-03-25T01:00:00Z" (638326800) transition_time 0x933-0x93a.7 (8)
0x930|                                 00 00 00 00 27|           ....'|      [129]: "1990-09-30T01:00:00Z" (654656400) transition_time 0x93b-0x942.7 (8)
0x940|05 43 90                                       |.C.             |
0x940|         00 00 00 00 27 f5 34 90               |   ....'.4.     |      [130]: "1991-03-31T01:00:00Z" (670381200) transition_time 0x943-0x94a.7 (8)
0x940|                                 00 00 00 00 28|           ....(|      [131]: "1991-09-29T01:00:00Z" (686106000) transition_time 0x94b-0x952.7 (8)
0x950|e5 25 90                                       |.%.             |
0x950|         00 00 00 00 29 d5 16 90               |   ....)...     |      [132]: "1992-03-29T01:00:00Z" (701830800) transition_time 0x953-0x95a.7 (8)
0x950|                                 00 00 00 00 2a|           ....*|      [133]: "1992-09-27T01:00:00Z" (717555600) transition_time 0x95b-0x962.7 (8)
0x960|c5 07 90                                       |...             |
0x960|         00 00 00 00 2b b4 f8 90               |   ....+...     |      [134]: "1993-03-28T01:00:00Z" (733280400) transition_time 0x963-0x96a.7 (8)
0x960|                                 00 00 00 00 2c|           ....,|      [135]: "1993-09-26T01:00:00Z" (749005200) transition_time 0x96b-0x972.7 (8)
0x970|a4 e9 90                                       |...             |
0x970|         00 00 00 00 2d 94 da 90               |   ....-...     |      [136]: "1994-03-27T01:00:00Z" (764730000) transition_time 0x973-0x97a.7 (8)
0x970|                                 00 00 00 00 2e|           .....|      [137]: "1994-09-25T01:00:00Z" (780454800) transition_time 0x97b-0x982.7 (8)
0x980|84 cb 90                                       |...             |
0x980|         00 00 00 00 2f 74 bc 90               |   ..../t..     |      [138]: "1995-03-26T01:00:00Z" (796179600) transition_time 0x983-0x98a.7 (8)
0x980|                                 00 00 00 00 30|           ....0|      [139]: "1995-09-24T01:00:00Z" (811904400) transition_time 0x98b-0x992.7 (8)
0x990|64 ad 90                                       |d..             |
0x990|         00 00 00 00 31 5d d9 10               |   ....1]..     |      [140]: "1996-03-31T01:00:00Z" (828234000) transition_time 0x993-0x99a.7 (8)
0x990|                                 00 00 00 00 32|           ....2|      [141]: "1996-10-27T01:00:00Z" (846378000) transition_time 0x99b-0x9a2.7 (8)
0x9a0|72 b4 10                                       |r..             |
0x9a0|         00 00 00 00 33 3d bb 10               |   ....3=..     |      [142]: "1997-03-30T01:00:00Z" (859683600) transition_time 0x9a3-0x9aa.7 (8)
0x9a0|                                 00 00 00 00 34|           ....4|      [143]: "1997-10-26T01:00:00Z" (877827600) transition_time 0x9ab-0x9b2.7 (8)
0x9b0|52 96 10                                       |R..             |
0x9b0|         00 00 00 00 35 1d 9d 10               |   ....5...     |      [144]: "1998-03-29T01:00:00Z" (891133200) transition_time 0x9b3-0x9ba.7 (8)
0x9b0|                                 00 00 00 00 36|           ....6|      [145]: "1998-10-25T01:00:00Z" (909277200) transition_time 0x9bb-0x9c2.7 (8)
0x9c0|32 78 10                                       |2x.             |
0x9c0|         00 00 00 00 36 fd 7f 10               |   ....6...     |      [146]: "1999-03-28T01:00:00Z" (922582800) transition_time 0x9c3-0x9ca.7 (8)
0x9c0|                                 00 00 00 00 38|           ....8|      [147]: "1999-10-31T01:00:00Z" (941331600) transition_time 0x9cb-0x9d2.7 (8)
0x9d0|1b 94 90                                       |...             |
0x9d0|         00 00 00 00 38 dd 61 10               |   ....8.a.     |      [148]: "2000-03-26T01:00:00Z" (954032400) transition_time 0x9d3-0x9da.7 (8)
0x9d0|                                 00 00 00 00 39|           ....9|      [149]: "2000-10-29T01:00:00Z" (972781200) transition_time 0x9db-0x9e2.7 (8)
0x9e0|fb 76 90                                       |.v.             |
0x9e0|         00 00 00 00 3a bd 43 10               |   ....:.C.     |      [150]: "2001-03-25T01:00:00Z" (985482000) transition_time 0x9e3-0x9ea.7 (8)
0x9e0|                                 00 00 00 00 3b|           ....;|      [151]: "2001-10-28T01:00:00Z" (1004230800) transition_time 0x9eb-0x9f2.7 (8)
0x9f0|db 58 90                                       |.X.             |
0x9f0|         00 00 00 00 3c a6 5f 90               |   ....<._.     |      [152]: "2002-03-31T01:00:00Z" (1017536400) transition_time 0x9f3-0x9fa.7 (8)
0x9f0|                                 00 00 00 00 3d|           ....=|      [153]: "2002-10-27T01:00:00Z" (1035680400) transition_time 0x9fb-0xa02.7 (8)
0xa00|bb 3a 90                                       |.:.             |
0xa00|         00 00 00 00 3e 86 41 90               |   ....>.A.     |      [154]: "2003-03-30T01:00:00Z" (1048986000) transition_time 0xa03-0xa0a.7 (8)
0xa00|                                 00 00 00 00 3f|           ....?|      [155]: "2003-10-26T01:00:00Z" (1067130000) transition_time 0xa0b-0xa12.7 (8)
0xa10|9b 1c 90                                       |...             |
0xa10|         00 00 00 00 40 66 23 90               |   ....@f#.     |      [156]: "2004-03-28T01:00:00Z" (1080435600) transition_time 0xa13-0xa1a.7 (8)
0xa10|                                 00 00 00 00 41|           ....A|      [157]: "2004-10-31T01:00:00Z" (1099184400) transition_time 0xa1b-0xa22.7 (8)
0xa20|84 39 10                                       |.9.             |
0xa20|         00 00 00 00 42 46 05 90               |   ....BF..     |      [158]: "2005-03-27T01:00:00Z" (1111885200) transition_time 0xa23-0xa2a.7 (8)
0xa20|                                 00 00 00 00 43|           ....C|      [159]: "2005-10-30T01:00:00Z" (1130634000) transition_time 0xa2b-0xa32.7 (8)
0xa30|64 1b 10                                       |d..             |
0xa30|         00 00 00 00 44 25 e7 90               |   ....D%..     |      [160]: "2006-03-26T01:00:00Z" (1143334800) transition_time 0xa33-0xa3a.7 (8)
0xa30|                                 00 00 00 00 45|           ....E|      [161]: "2006-10-29T01:00:00Z" (1162083600) transition_time 0xa3b-0xa42.7 (8)
0xa40|43 fd 10                                       |C..             |
0xa40|         00 00 00 00 46 05 c9 90               |   ....F...     |      [162]: "2007-03-25T01:00:00Z" (1174784400) transition_time 0xa43-0xa4a.7 (8)
0xa40|                                 00 00 00 00 47|           ....G|      [163]: "2007-10-28T01:00:00Z" (1193533200) transition_time 0xa4b-0xa52.7 (8)
0xa50|23 df 10                                       |#..             |
0xa50|         00 00 00 00 47 ee e6 10               |   ....G...     |      [164]: "2008-03-30T01:00:00Z" (1206838800) transition_time 0xa53-0xa5a.7 (8)
0xa50|                                 00 00 00 00 49|           ....I|      [165]: "2008-10-26T01:00:00Z" (1224982800) transition_time 0xa5b-0xa62.7 (8)
0xa60|03 c1 10                                       |...             |
0xa60|         00 00 00 00 49 ce c8 10               |   ....I...     |      [166]: "2009-03-29T01:00:00Z" (1238288400) transition_time 0xa63-0xa6a.7 (8)
0xa60|                                 00 00 00 00 4a|           ....J|      [167]: "2009-10-25T01:00:00Z" (1256432400) transition_time 0xa6b-0xa72.7 (8)
0xa70|e3 a3 10                                       |...             |
0xa70|         00 00 00 00 4b ae aa 10               |   ....K...     |      [168]: "2010-03-28T01:00:00Z" (1269738000) transition_time 0xa73-0xa7a.7 (8)
0xa70|                                 00 00 00 00 4c|           ....L|      [169]: "2010-10-31T01:00:00Z" (1288486800) transition_time 0xa7b-0xa82.7 (8)
0xa80|cc bf 90                                       |...             |
0xa80|         00 00 00 00 4d 8e 8c 10               |   ....M...     |      [170]: "2011-03-27T01:00:00Z" (1301187600) transition_time 0xa83-0xa8a.7 (8)
0xa80|                                 00 00 00 00 4e|           ....N|      [171]: "2011-10-30T01:00:00Z" (1319936400) transition_time 0xa8b-0xa92.7 (8)
0xa90|ac a1 90                                       |...             |
0xa90|         00 00 00 00 4f 6e 6e 10               |   ....Onn.     |      [172]: "2012-03-25T01:00:00Z" (1332637200) transition_time 0xa93-0xa9a.7 (8)
0xa90|                                 00 00 00 00 50|           ....P|      [173]: "2012-10-28T01:00:00Z" (1351386000) transition_time 0xa9b-0xaa2.7 (8)
0xaa0|8c 83 90                                       |...             |
0xaa0|         00 00 00 00 51 57 8a 90               |   ....QW..     |      [174]: "2013-03-31T01:00:00Z" (1364691600) transition_time 0xaa3-0xaaa.7 (8)
0xaa0|                                 00 00 00 00 52|           ....R|      [175]: "2013-10-27T01:00:00Z" (1382835600) transition_time 0xaab-0xab2.7 (8)
0xab0|6c 65 90                                       |le.             |
0xab0|         00 00 00 00 53 37 6c 90               |   ....S7l.     |      [176]: "2014-03-30T01:00:00Z" (1396141200) transition_time 0xab3-0xaba.7 (8)
0xab0|                                 00 00 00 00 54|           ....T|      [177]: "2014-10-26T01:00:00Z" (1414285200) transition_time 0xabb-0xac2.7 (8)
0xac0|4c 47 90                                       |LG.             |
0xac0|         00 00 00 00 55 17 4e 90               |   ....U.N.     |      [178]: "2015-03-29T01:00:00Z" (1427590800) transition_time 0xac3-0xaca.7 (8)
0xac0|                                 00 00 00 00 56|           ....V|      [179]: "2015-10-25T01:00:00Z" (1445734800) transition_time 0xacb-0xad2.7 (8)
0xad0|2c 29 90                                       |,).             |
0xad0|         00 00 00 00 56 f7 30 90               |   ....V.0.     |      [180]: "2016-03-27T01:00:00Z" (1459040400) transition_time 0xad3-0xada.7 (8)
0xad0|                                 00 00 00 00 58|           ....X|      [181]: "2016-10-30T01:00:00Z" (1477789200) transition_time 0xadb-0xae2.7 (8)
0xae0|15 46 10                                       |.F.             |
0xae0|         00 00 00 00 58 d7 12 90               |   ....X...     |      [182]: "2017-03-26T01:00:00Z" (1490490000) transition_time 0xae3-0xaea.7 (8)
0xae0|                                 00 00 00 00 59|           ....Y|      [183]: "2017-10-29T01:00:00Z" (1509238800) transition_time 0xaeb-0xaf2.7 (8)
0xaf0|f5 28 10                                       |.(.             |
0xaf0|         00 00 00 00 5a b6 f4 90               |   ....Z...     |      [184]: "2018-03-25T01:00:00Z" (1521939600) transition_time 0xaf3-0xafa.7 (8)
0xaf0|                                 00 00 00 00 5b|           ....[|      [185]: "2018-10-28T01:00:00Z" (1540688400) transition_time 0xafb-0xb02.7 (8)
0xb00|d5 0a 10                                       |...             |
0xb00|         00 00 00 00 5c a0 11 10               |   ....\...     |      [186]: "2019-03-31T01:00:00Z" (1553994000) transition_time 0xb03-0xb0a.7 (8)
0xb00|                                 00 00 00 00 5d|           ....]|      [187]: "2019-10-27T01:00:00Z" (1572138000) transition_time 0xb0b-0xb12.7 (8)
0xb10|b4 ec 10                                       |...             |
0xb10|         00 00 00 00 5e 7f f3 10               |   ....^...     |      [188]: "2020-03-29T01:00:00Z" (1585443600) transition_time 0xb13-0xb1a.7 (8)
0xb10|                                 00 00 00 00 5f|           ...._|      [189]: "2020-10-25T01:00:00Z" (1603587600) transition_time 0xb1b-0xb22.7 (8)
0xb20|94 ce 10                                       |...             |
0xb20|         00 00 00 00 60 5f d5 10               |   ....`_..     |      [190]: "2021-03-28T01:00:00Z" (1616893200) transition_time 0xb23-0xb2a.7 (8)
0xb20|                                 00 00 00 00 61|           ....a|      [191]: "2021-10-31T01:00:00Z" (1635642000) transition_time 0xb2b-0xb32.7 (8)
0xb30|7d ea 90                                       |}..             |
0xb30|         00 00 00 00 62 3f b7 10               |   ....b?..     |      [192]: "2022-03-27T01:00:00Z" (1648342800) transition_time 0xb33-0xb3a.7 (8)
0xb30|                                 00 00 00 00 63|           ....c|      [193]: "2022-10-30T01:00:00Z" (1667091600) transition_time 0xb3b-0xb42.7 (8)
0xb40|5d cc 90                                       |]..             |
0xb40|         00 00 00 00 64 1f 99 10               |   ....d...     |      [194]: "2023-03-26T01:00:00Z" (1679792400) transition_time 0xb43-0xb4a.7 (8)
0xb40|                                 00 00 00 00 65|           ....e|      [195]: "2023-10-29T01:00:00Z" (1698541200) transition_time 0xb4b-0xb52.7 (8)
0xb50|3d ae 90                                       |=..             |
0xb50|         00 00 00 00 66 08 b5 90               |   ....f...     |      [196]: "2024-03-31T01:00:00Z" (1711846800) transition_time 0xb53-0xb5a.7 (8)
0xb50|                                 00 00 00 00 67|           ....g|      [197]: "2024-10-27T01:00:00Z" (1729990800) transition_time 0xb5b-0xb62.7 (8)
0xb60|1d 90 90                                       |...             |
0xb60|         00 00 00 00 67 e8 97 90               |   ....g...     |      [198]: "2025-03-30T01:00:00Z" (1743296400) transition_time 0xb63-0xb6a.7 (8)
0xb60|                                 00 00 00 00 68|           ....h|      [199]: "2025-10-26T01:00:00Z" (1761440400) transition_time 0xb6b-0xb72.7 (8)
0xb70|fd 72 90                                       |.r.             |
0xb70|         00 00 00 00 69 c8 79 90               |   ....i.y.     |      [200]: "2026-03-29T01:00:00Z" (1774746000) transition_time 0xb73-0xb7a.7 (8)
0xb70|                                 00 00 00 00 6a|           ....j|      [201]: "2026-10-25T01:00:00Z" (1792890000) transition_time 0xb7b-0xb82.7 (8)
0xb80|dd 54 90                                       |.T.             |
0xb80|         00 00 00 00 6b a8 5b 90               |   ....k.[.     |      [202]: "2027-03-28T01:00:00Z" (1806195600) transition_time 0xb83-0xb8a.7 (8)
0xb80|                                 00 00 00 00 6c|           ....l|      [203]: "2027-10-31T01:00:00Z" (1824944400) transition_time 0xb8b-0xb92.7 (8)
0xb90|c6 71 10                                       |.q.             |
0xb90|         00 00 00 00 6d 88 3d 90               |   ....m.=.     |      [204]: "2028-03-26T01:00:00Z" (1837645200) transition_time 0xb93-0xb9a.7 (8)
0xb90|                                 00 00 00 00 6e|           ....n|      [205]: "2028-10-29T01:00:00Z" (1856394000) transition_time 0xb9b-0xba2.7 (8)
0xba0|a6 53 10                                       |.S.             |
0xba0|         00 00 00 00 6f 68 1f 90               |   ....oh..     |      [206]: "2029-03-25T01:00:00Z" (1869094800) transition_time 0xba3-0xbaa.7 (8)
0xba0|                                 00 00 00 00 70|           ....p|      [207]: "2029-10-28T01:00:00Z" (1887843600) transition_time 0xbab-0xbb2.7 (8)
0xbb0|86 35 10                                       |.5.             |
0xbb0|         00 00 00 00 71 51 3c 10               |   ....qQ<.     |      [208]: "2030-03-31T01:00:00Z" (1901149200) transition_time 0xbb3-0xbba.7 (8)
0xbb0|                                 00 00 00 00 72|           ....r|      [209]: "2030-10-27T01:00:00Z" (1919293200) transition_time 0xbbb-0xbc2.7 (8)
0xbc0|66 17 10                                       |f..             |
0xbc0|         00 00 00 00 73 31 1e 10               |   ....s1..     |      [210]: "2031-03-30T01:00:00Z" (1932598800) transition_time 0xbc3-0xbca.7 (8)
0xbc0|                                 00 00 00 00 74|           ....t|      [211]: "2031-10-26T01:00:00Z" (1950742800) transition_time 0xbcb-0xbd2.7 (8)
0xbd0|45 f9 10                                       |E..             |
0xbd0|         00 00 00 00 75 11 00 10               |   ....u...     |      [212]: "2032-03-28T01:00:00Z" (1964048400) transition_time 0xbd3-0xbda.7 (8)
0xbd0|                                 00 00 00 00 76|           ....v|      [213]: "2032-10-31T01:00:00Z" (1982797200) transition_time 0xbdb-0xbe2.7 (8)
0xbe0|2f 15 90                                       |/..             |
0xbe0|         00 00 00 00 76 f0 e2 10               |   ....v...     |      [214]: "2033-03-27T01:00:00Z" (1995498000) transition_time 0xbe3-0xbea.7 (8)
0xbe0|                                 00 00 00 00 78|           ....x|      [215]: "2033-10-30T01:00:00Z" (2014246800) transition_time 0xbeb-0xbf2.7 (8)
0xbf0|0e f7 90                                       |...             |
0xbf0|         00 00 00 00 78 d0 c4 10               |   ....x...     |      [216]: "2034-03-26T01:00:00Z" (2026947600) transition_time 0xbf3-0xbfa.7 (8)
0xbf0|                                 00 00 00 00 79|           ....y|      [217]: "2034-10-29T01:00:00Z" (2045696400) transition_time 0xbfb-0xc02.7 (8)
0xc00|ee d9 90                                       |...             |
0xc00|         00 00 00 00 7a b0 a6 10               |   ....z...     |      [218]: "2035-03-25T01:00:00Z" (2058397200) transition_time 0xc03-0xc0a.7 (8)
0xc00|                                 00 00 00 00 7b|           ....{|      [219]: "2035-10-28T01:00:00Z" (2077146000) transition_time 0xc0b-0xc12.7 (8)
0xc10|ce bb 90                                       |...             |
0xc10|         00 00 00 00 7c 99 c2 90               |   ....|...     |      [220]: "2036-03-30T01:00:00Z" (2090451600) transition_time 0xc13-0xc1a.7 (8)
0xc10|                                 00 00 00 00 7d|           ....}|      [221]: "2036-10-26T01:00:00Z" (2108595600) transition_time 0xc1b-0xc22.7 (8)
0xc20|ae 9d 90                                       |...             |
0xc20|         00 00 00 00 7e 79 a4 90               |   ....~y..     |      [222]: "2037-03-29T01:00:00Z" (2121901200) transition_time 0xc23-0xc2a.7 (8)
0xc20|                                 00 00 00 00 7f|           .....|      [223]: "2037-10-25T01:00:00Z" (2140045200) transition_time 0xc2b-0xc32.7 (8)
0xc30|8e 7f 90                                       |...             |
     |                                               |                |    transition_types[0:224]: 0xc33-0xd12.7 (224)
0xc30|         00                                    |   .            |      [0]: 0 transition_type 0xc33-0xc33.7 (1)
0xc30|            06                                 |    .           |      [1]: 6 transition_type 0xc34-0xc34.7 (1)
0xc30|               01                              |     .          |      [2]: 1 transition_type 0xc35-0xc35.7 (1)
0xc30|                  02                           |      .         |      [3]: 2 transition_type 0xc36-0xc36.7 (1)
0xc30|                     03                        |       .        |      [4]: 3 transition_type 0xc37-0xc37.7 (1)
0xc30|                        04                     |        .       |      [5]: 4 transition_type 0xc38-0xc38.7 (1)
0xc30|                           03                  |         .      |      [6]: 3 transition_type 0xc39-0xc39.7 (1)
0xc30|                              04               |          .     |      [7]: 4 transition_type 0xc3a-0xc3a.7 (1)
0xc30|                                 03            |           .    |      [8]: 3 transition_type 0xc3b-0xc3b.7 (1)
0xc30|                                    04         |            .   |      [9]: 4 transition_type 0xc3c-0xc3c.7 (1)
0xc30|                                       03      |             .  |      [10]: 3 transition_type 0xc3d-0xc3d.7 (1)
0xc30|                                          04   |              . |      [11]: 4 transition_type 0xc3e-0xc3e.7 (1)
0xc30|                                             03|               .|      [12]: 3 transition_type 0xc3f-0xc3f.7 (1)
0xc40|04                                             |.               |      [13]: 4 transition_type 0xc40-0xc40.7 (1)
0xc40|   03                                          | .              |      [14]: 3 transition_type 0xc41-0xc41.7 (1)
0xc40|      04                                       |  .             |      [15]: 4 transition_type 0xc42-0xc42.7 (1)
0xc40|         03                                    |   .            |      [16]: 3 transition_type 0xc43-0xc43.7 (1)
0xc40|            04                                 |    .           |      [17]: 4 transition_type 0xc44-0xc44.7 (1)
0xc40|               03                              |     .          |      [18]: 3 transition_type 0xc45-0xc45.7 (1)
0xc40|                  04                           |      .         |      [19]: 4 transition_type 0xc46-0xc46.7 (1)
0xc40|                     03                        |       .        |      [20]: 3 transition_type 0xc47-0xc47.7 (1)
0xc40|                        04                     |        .       |      [21]: 4 transition_type 0xc48-0xc48.7 (1)
0xc40|                           03                  |         .      |      [22]: 3 transition_type 0xc49-0xc49.7 (1)
0xc40|                              04               |          .     |      [23]: 4 transition_type 0xc4a-0xc4a.7 (1)
0xc40|                                 03            |           .    |      [24]: 3 transition_type 0xc4b-0xc4b.7 (1)
0xc40|                                    04         |            .   |      [25]: 4 transition_type 0xc4c-0xc4c.7 (1)
0xc40|                                       03      |             .  |      [26]: 3 transition_type 0xc4d-0xc4d.7 (1)
0xc40|                                          04   |              . |      [27]: 4 transition_type 0xc4e-0xc4e.7 (1)
0xc40|                                             03|               .|      [28]: 3 transition_type 0xc4f-0xc4f.7 (1)
0xc50|04                                             |.               |      [29]: 4 transition_type 0xc50-0xc50.7 (1)
0xc50|   03                                          | .              |      [30]: 3 transition_type 0xc51-0xc51.7 (1)
0xc50|      04                                       |  .             |      [31]: 4 transition_type 0xc52-0xc52.7 (1)
0xc50|         03                                    |   .            |      [32]: 3 transition_type 0xc53-0xc53.7 (1)
0xc50|            04                                 |    .           |      [33]: 4 transition_type 0xc54-0xc54.7 (1)
0xc50|               03                              |     .          |      [34]: 3 transition_type 0xc55-0xc55.7 (1)
0xc50|                  04                           |      .         |      [35]: 4 transition_type 0xc56-0xc56.7 (1)
0xc50|                     03                        |       .        |      [36]: 3 transition_type 0xc57-0xc57.7 (1)
0xc50|                        04                     |        .       |      [37]: 4 transition_type 0xc58-0xc58.7 (1)
0xc50|                           03                  |         .      |      [38]: 3 transition_type 0xc59-0xc59.7 (1)
0xc50|                              04               |          .     |      [39]: 4 transition_type 0xc5a-0xc5a.7 (1)
0xc50|                                 03            |           .    |      [40]: 3 transition_type 0xc5b-0xc5b.7 (1)
0xc50|                                    04         |            .   |      [41]: 4 transition_type 0xc5c-0xc5c.7 (1)
0xc50|                                       03      |             .  |      [42]: 3 transition_type 0xc5d-0xc5d.7 (1)
0xc50|                                          04   |              . |      [43]: 4 transition_type 0xc5e-0xc5e.7 (1)
0xc50|                                             03|               .|      [44]: 3 transition_type 0xc5f-0xc5f.7 (1)
0xc60|05                                             |.               |      [45]: 5 transition_type 0xc60-0xc60.7 (1)
0xc60|   03                                          | .              |      [46]: 3 transition_type 0xc61-0xc61.7 (1)
0xc60|      04                                       |  .             |      [47]: 4 transition_type 0xc62-0xc62.7 (1)
0xc60|         03                                    |   .            |      [48]: 3 transition_type 0xc63-0xc63.7 (1)
0xc60|            05                                 |    .           |      [49]: 5 transition_type 0xc64-0xc64.7 (1)
0xc60|               03                              |     .          |      [50]: 3 transition_type 0xc65-0xc65.7 (1)
0xc60|                  04                           |      .         |      [51]: 4 transition_type 0xc66-0xc66.7 (1)
0xc60|                     03                        |       .        |      [52]: 3 transition_type 0xc67-0xc67.7 (1)
0xc60|                        05                     |        .       |      [53]: 5 transition_type 0xc68-0xc68.7 (1)
0xc60|                           03                  |         .      |      [54]: 3 transition_type 0xc69-0xc69.7 (1)
0xc60|                              04               |          .     |      [55]: 4 transition_type 0xc6a-0xc6a.7 (1)
0xc60|                                 03            |           .    |      [56]: 3 transition_type 0xc6b-0xc6b.7 (1)
0xc60|                                    05         |            .   |      [57]: 5 transition_type 0xc6c-0xc6c.7 (1)
0xc60|                                       03      |             .  |      [58]: 3 transition_type 0xc6d-0xc6d.7 (1)
0xc60|                                          04   |              . |      [59]: 4 transition_type 0xc6e-0xc6e.7 (1)
0xc60|                                             03|               .|      [60]: 3 transition_type 0xc6f-0xc6f.7 (1)
0xc70|04                                             |.               |      [61]: 4 transition_type 0xc70-0xc70.7 (1)
0xc70|   03                                          | .              |      [62]: 3 transition_type 0xc71-0xc71.7 (1)
0xc70|      04                                       |  .             |      [63]: 4 transition_type 0xc72-0xc72.7 (1)
0xc70|         03                                    |   .            |      [64]: 3 transition_type 0xc73-0xc73.7 (1)
0xc70|            04                                 |    .           |      [65]: 4 transition_type 0xc74-0xc74.7 (1)
0xc70|               03                              |     .          |      [66]: 3 transition_type 0xc75-0xc75.7 (1)
0xc70|                  04                           |      .         |      [67]: 4 transition_type 0xc76-0xc76.7 (1)
0xc70|                     03                        |       .        |      [68]: 3 transition_type 0xc77-0xc77.7 (1)
0xc70|                        04                     |        .       |      [69]: 4 transition_type 0xc78-0xc78.7 (1)
0xc70|                           03                  |         .      |      [70]: 3 transition_type 0xc79-0xc79.7 (1)
0xc70|                              04               |          .     |      [71]: 4 transition_type 0xc7a-0xc7a.7 (1)
0xc70|                                 03            |           .    |      [72]: 3 transition_type 0xc7b-0xc7b.7 (1)
0xc70|                                    04         |            .   |      [73]: 4 transition_type 0xc7c-0xc7c.7 (1)
0xc70|                                       03      |             .  |      [74]: 3 transition_type 0xc7d-0xc7d.7 (1)
0xc70|                                          04   |              . |      [75]: 4 transition_type 0xc7e-0xc7e.7 (1)
0xc70|                                             03|               .|      [76]: 3 transition_type 0xc7f-0xc7f.7 (1)
0xc80|04                                             |.               |      [77]: 4 transition_type 0xc80-0xc80.7 (1)
0xc80|   03                                          | .              |      [78]: 3 transition_type 0xc81-0xc81.7 (1)
0xc80|      04                                       |  .             |      [79]: 4 transition_type 0xc82-0xc82.7 (1)
0xc80|         03                                    |   .            |      [80]: 3 transition_type 0xc83-0xc83.7 (1)
0xc80|            04                                 |    .           |      [81]: 4 transition_type 0xc84-0xc84.7 (1)
0xc80|               03                              |     .          |      [82]: 3 transition_type 0xc85-0xc85.7 (1)
0xc80|                  04                           |      .         |      [83]: 4 transition_type 0xc86-0xc86.7 (1)
0xc80|                     03                        |       .        |      [84]: 3 transition_type 0xc87-0xc87.7 (1)
0xc80|                        04                     |        .       |      [85]: 4 transition_type 0xc88-0xc88.7 (1)
0xc80|                           03                  |         .      |      [86]: 3 transition_type 0xc89-0xc89.7 (1)
0xc80|                              04               |          .     |      [87]: 4 transition_type 0xc8a-0xc8a.7 (1)
0xc80|                                 03            |           .    |      [88]: 3 transition_type 0xc8b-0xc8b.7 (1)
0xc80|                                    04         |            .   |      [89]: 4 transition_type 0xc8c-0xc8c.7 (1)
0xc80|                                       03      |             .  |      [90]: 3 transition_type 0xc8d-0xc8d.7 (1)
0xc80|                                          04   |              . |      [91]: 4 transition_type 0xc8e-0xc8e.7 (1)
0xc80|                                             03|               .|      [92]: 3 transition_type 0xc8f-0xc8f.7 (1)
0xc90|04                                             |.               |      [93]: 4 transition_type 0xc90-0xc90.7 (1)
0xc90|   03                                          | .              |      [94]: 3 transition_type 0xc91-0xc91.7 (1)
0xc90|      04                                       |  .             |      [95]: 4 transition_type 0xc92-0xc92.7 (1)
0xc90|         03                                    |   .            |      [96]: 3 transition_type 0xc93-0xc93.7 (1)
0xc90|            04                                 |    .           |      [97]: 4 transition_type 0xc94-0xc94.7 (1)
0xc90|               03                              |     .          |      [98]: 3 transition_type 0xc95-0xc95.7 (1)
0xc90|                  04                           |      .         |      [99]: 4 transition_type 0xc96-0xc96.7 (1)
0xc90|                     07                        |       .        |      [100]: 7 transition_type 0xc97-0xc97.7 (1)
0xc90|                        02                     |        .       |      [101]: 2 transition_type 0xc98-0xc98.7 (1)
0xc90|                           03                  |         .      |      [102]: 3 transition_type 0xc99-0xc99.7 (1)
0xc90|                              04               |          .     |      [103]: 4 transition_type 0xc9a-0xc9a.7 (1)
0xc90|                                 03            |           .    |      [104]: 3 transition_type 0xc9b-0xc9b.7 (1)
0xc90|                                    04         |            .   |      [105]: 4 transition_type 0xc9c-0xc9c.7 (1)
0xc90|                                       03      |             .  |      [106]: 3 transition_type 0xc9d-0xc9d.7 (1)
0xc90|                                          04   |              . |      [107]: 4 transition_type 0xc9e-0xc9e.7 (1)
0xc90|                                             03|               .|      [108]: 3 transition_type 0xc9f-0xc9f.7 (1)
0xca0|04                                             |.               |      [109]: 4 transition_type 0xca0-0xca0.7 (1)
0xca0|   03                                          | .              |      [110]: 3 transition_type 0xca1-0xca1.7 (1)
0xca0|      04                                       |  .             |      [111]: 4 transition_type 0xca2-0xca2.7 (1)
0xca0|         03                                    |   .            |      [112]: 3 transition_type 0xca3-0xca3.7 (1)
0xca0|            04                                 |    .           |      [113]: 4 transition_type 0xca4-0xca4.7 (1)
0xca0|               03                              |     .          |      [114]: 3 transition_type 0xca5-0xca5.7 (1)
0xca0|                  04                           |      .         |      [115]: 4 transition_type 0xca6-0xca6.7 (1)
0xca0|                     03                        |       .        |      [116]: 3 transition_type 0xca7-0xca7.7 (1)
0xca0|                        04                     |        .       |      [117]: 4 transition_type 0xca8-0xca8.7 (1)
0xca0|                           03                  |         .      |      [118]: 3 transition_type 0xca9-0xca9.7 (1)
0xca0|                              04               |          .     |      [119]: 4 transition_type 0xcaa-0xcaa.7 (1)
0xca0|                                 03            |           .    |      [120]: 3 transition_type 0xcab-0xcab.7 (1)
0xca0|                                    04         |            .   |      [121]: 4 transition_type 0xcac-0xcac.7 (1)
0xca0|                                       03      |             .  |      [122]: 3 transition_type 0xcad-0xcad.7 (1)
0xca0|                                          04   |              . |      [123]: 4 transition_type 0xcae-0xcae.7 (1)
0xca0|                                             03|               .|      [124]: 3 transition_type 0xcaf-0xcaf.7 (1)
0xcb0|04                                             |.               |      [125]: 4 transition_type 0xcb0-0xcb0.7 (1)
0xcb0|   03                                          | .              |      [126]: 3 transition_type 0xcb1-0xcb1.7 (1)
0xcb0|      04                                       |  .             |      [127]: 4 transition_type 0xcb2-0xcb2.7 (1)
0xcb0|         03                                    |   .            |      [128]: 3 transition_type 0xcb3-0xcb3.7 (1)
0xcb0|            04                                 |    .           |      [129]: 4 transition_type 0xcb4-0xcb4.7 (1)
0xcb0|               03                              |     .          |      [130]: 3 transition_type 0xcb5-0xcb5.7 (1)
0xcb0|                  04                           |      .         |      [131]: 4 transition_type 0xcb6-0xcb6.7 (1)
0xcb0|                     03                        |       .        |      [132]: 3 transition_type 0xcb7-0xcb7.7 (1)
0xcb0|                        08                     |        .       |      [133]: 8 transition_type 0xcb8-0xcb8.7 (1)
0xcb0|                           09                  |         .      |      [134]: 9 transition_type 0xcb9-0xcb9.7 (1)
0xcb0|                              08               |          .     |      [135]: 8 transition_type 0xcba-0xcba.7 (1)
0xcb0|                                 09            |           .    |      [136]: 9 transition_type 0xcbb-0xcbb.7 (1)
0xcb0|                                    08         |            .   |      [137]: 8 transition_type 0xcbc-0xcbc.7 (1)
0xcb0|                                       09      |             .  |      [138]: 9 transition_type 0xcbd-0xcbd.7 (1)
0xcb0|                                          08   |              . |      [139]: 8 transition_type 0xcbe-0xcbe.7 (1)
0xcb0|                                             0a|               .|      [140]: 10 transition_type 0xcbf-0xcbf.7 (1)
0xcc0|06                                             |.               |      [141]: 6 transition_type 0xcc0-0xcc0.7 (1)
0xcc0|   0a                                          | .              |      [142]: 10 transition_type 0xcc1-0xcc1.7 (1)
0xcc0|      06                                       |  .             |      [143]: 6 transition_type 0xcc2-0xcc2.7 (1)
0xcc0|         0a                                    |   .            |      [144]: 10 transition_type 0xcc3-0xcc3.7 (1)
0xcc0|            06                                 |    .           |      [145]: 6 transition_type 0xcc4-0xcc4.7 (1)
0xcc0|               0a                              |     .          |      [146]: 10 transition_type 0xcc5-0xcc5.7 (1)
0xcc0|                  06                           |      .         |      [147]: 6 transition_type 0xcc6-0xcc6.7 (1)
0xcc0|                     0a                        |       .        |      [148]: 10 transition_type 0xcc7-0xcc7.7 (1)
0xcc0|                        06                     |        .       |      [149]: 6 transition_type 0xcc8-0xcc8.7 (1)
0xcc0|                           0a                  |         .      |      [150]: 10 transition_type 0xcc9-0xcc9.7 (1)
0xcc0|                              06               |          .     |      [151]: 6 transition_type 0xcca-0xcca.7 (1)
0xcc0|                                 0a            |           .    |      [152]: 10 transition_type 0xccb-0xccb.7 (1)
0xcc0|                                    06         |            .   |      [153]: 6 transition_type 0xccc-0xccc.7 (1)
0xcc0|                                       0a      |             .  |      [154]: 10 transition_type 0xccd-0xccd.7 (1)
0xcc0|                                          06   |              . |      [155]: 6 transition_type 0xcce-0xcce.7 (1)
0xcc0|                                             0a|               .|      [156]: 10 transition_type 0xccf-0xccf.7 (1)
0xcd0|06                                             |.               |      [157]: 6 transition_type 0xcd0-0xcd0.7 (1)
0xcd0|   0a                                          | .              |      [158]: 10 transition_type 0xcd1-0xcd1.7 (1)
0xcd0|      06                                       |  .             |      [159]: 6 transition_type 0xcd2-0xcd2.7 (1)
0xcd0|         0a                                    |   .            |      [160]: 10 transition_type 0xcd3-0xcd3.7 (1)
0xcd0|            06                                 |    .           |      [161]: 6 transition_type 0xcd4-0xcd4.7 (1)
0xcd0|               0a                              |     .          |      [162]: 10 transition_type 0xcd5-0xcd5.7 (1)
0xcd0|                  06                           |      .         |      [163]: 6 transition_type 0xcd6-0xcd6.7 (1)
0xcd0|                     0a                        |       .        |      [164]: 10 transition_type 0xcd7-0xcd7.7 (1)
0xcd0|                        06                     |        .       |      [165]: 6 transition_type 0xcd8-0xcd8.7 (1)
0xcd0|                           0a                  |         .      |      [166]: 10 transition_type 0xcd9-0xcd9.7 (1)
0xcd0|                              06               |          .     |      [167]: 6 transition_type 0xcda-0xcda.7 (1)
0xcd0|                                 0a            |           .    |      [168]: 10 transition_type 0xcdb-0xcdb.7 (1)
0xcd0|                                    06         |            .   |      [169]: 6 transition_type 0xcdc-0xcdc.7 (1)
0xcd0|                                       0a      |             .  |      [170]: 10 transition_type 0xcdd-0xcdd.7 (1)
0xcd0|                                          06   |              . |      [171]: 6 transition_type 0xcde-0xcde.7 (1)
0xcd0|                                             0a|               .|      [172]: 10 transition_type 0xcdf-0xcdf.7 (1)
0xce0|06                                             |.               |      [173]: 6 transition_type 0xce0-0xce0.7 (1)
0xce0|   0a                                          | .              |      [174]: 10 transition_type 0xce1-0xce1.7 (1)
0xce0|      06                                       |  .             |      [175]: 6 transition_type 0xce2-0xce2.7 (1)
0xce0|         0a                                    |   .            |      [176]: 10 transition_type 0xce3-0xce3.7 (1)
0xce0|            06                                 |    .           |      [177]: 6 transition_type 0xce4-0xce4.7 (1)
0xce0|               0a                              |     .          |      [178]: 10 transition_type 0xce5-0xce5.7 (1)
0xce0|                  06                           |      .         |      [179]: 6 transition_type 0xce6-0xce6.7 (1)
0xce0|                     0a                        |       .        |      [180]: 10 transition_type 0xce7-0xce7.7 (1)
0xce0|                        06                     |        .       |      [181]: 6 transition_type 0xce8-0xce8.7 (1)
0xce0|                           0a                  |         .      |      [182]: 10 transition_type 0xce9-0xce9.7 (1)
0xce0|                              06               |          .     |      [183]: 6 transition_type 0xcea-0xcea.7 (1)
0xce0|                                 0a            |           .    |      [184]: 10 transition_type 0xceb-0xceb.7 (1)
0xce0|                                    06         |            .   |      [185]: 6 transition_type 0xcec-0xcec.7 (1)
0xce0|                                       0a      |             .  |      [186]: 10 transition_type 0xced-0xced.7 (1)
0xce0|                                          06   |              . |      [187]: 6 transition_type 0xcee-0xcee.7 (1)
0xce0|                                             0a|               .|      [188]: 10 transition_type 0xcef-0xcef.7 (1)
0xcf0|06                                             |.               |      [189]: 6 transition_type 0xcf0-0xcf0.7 (1)
0xcf0|   0a                                          | .              |      [190]: 10 transition_type 0xcf1-0xcf1.7 (1)
0xcf0|      06                                       |  .             |      [191]: 6 transition_type 0xcf2-0xcf2.7 (1)
0xcf0|         0a                                    |   .            |      [192]: 10 transition_type 0xcf3-0xcf3.7 (1)
0xcf0|            06                                 |    .           |      [193]: 6 transition_type 0xcf4-0xcf4.7 (1)
0xcf0|               0a                              |     .          |      [194]: 10 transition_type 0xcf5-0xcf5.7 (1)
0xcf0|                  06                           |      .         |      [195]: 6 transition_type 0xcf6-0xcf6.7 (1)
0xcf0|                     0a                        |       .        |      [196]: 10 transition_type 0xcf7-0xcf7.7 (1)
0xcf0|                        06                     |        .       |      [197]: 6 transition_type 0xcf8-0xcf8.7 (1)
0xcf0|                           0a                  |         .      |      [198]: 10 transition_type 0xcf9-0xcf9.7 (1)
0xcf0|                              06               |          .     |      [199]: 6 transition_type 0xcfa-0xcfa.7 (1)
0xcf0|                                 0a            |           .    |      [200]: 10 transition_type 0xcfb-0xcfb.7 (1)
0xcf0|                                    06         |            .   |      [201]: 6 transition_type 0xcfc-0xcfc.7 (1)
0xcf0|                                       0a      |             .  |      [202]: 10 transition_type 0xcfd-0xcfd.7 (1)
0xcf0|                                          06   |              . |      [203]: 6 transition_type 0xcfe-0xcfe.7 (1)
0xcf0|                                             0a|               .|      [204]: 10 transition_type 0xcff-0xcff.7 (1)
0xd00|06                                             |.               |      [205]: 6 transition_type 0xd00-0xd00.7 (1)
0xd00|   0a                                          | .              |      [206]: 10 transition_type 0xd01-0xd01.7 (1)
0xd00|      06                                       |  .             |      [207]: 6 transition_type 0xd02-0xd02.7 (1)
0xd00|         0a                                    |   .            |      [208]: 10 transition_type 0xd03-0xd03.7 (1)
0xd00|            06                                 |    .           |      [209]: 6 transition_type 0xd04-0xd04.7 (1)
0xd00|               0a                              |     .          |      [210]: 10 transition_type 0xd05-0xd05.7 (1)
0xd00|                  06                           |      .         |      [211]: 6 transition_type 0xd06-0xd06.7 (1)
0xd00|                     0a                        |       .        |      [212]: 10 transition_type 0xd07-0xd07.7 (1)
0xd00|                        06                     |        .       |      [213]: 6 transition_type 0xd08-0xd08.7 (1)
0xd00|                           0a                  |         .      |      [214]: 10 transition_type 0xd09-0xd09.7 (1)
0xd00|                              06               |          .     |      [215]: 6 transition_type 0xd0a-0xd0a.7 (1)
0xd00|                                 0a            |           .    |      [216]: 10 transition_type 0xd0b-0xd0b.7 (1)
0xd00|                                    06         |            .   |      [217]: 6 transition_type 0xd0c-0xd0c.7 (1)
0xd00|                                       0a      |             .  |      [218]: 10 transition_type 0xd0d-0xd0d.7 (1)
0xd00|                                          06   |              . |      [219]: 6 transition_type 0xd0e-0xd0e.7 (1)
0xd00|                                             0a|               .|      [220]: 10 transition_type 0xd0f-0xd0f.7 (1)
0xd10|06                                             |.               |      [221]: 6 transition_type 0xd10-0xd10.7 (1)
0xd10|   0a                                          | .              |      [222]: 10 transition_type 0xd11-0xd11.7 (1)
0xd10|      06                                       |  .             |      [223]: 6 transition_type 0xd12-0xd12.7 (1)
     |                                               |                |    local_time_type_records[0:12]: 0xd13-0xd5a.7 (72)
     |                                               |                |      [0]{}: local_time_type 0xd13-0xd18.7 (6)
0xd10|         ff ff f7 63                           |   ...c         |        utoff: -2205 (valid) 0xd13-0xd16.7 (4)
0xd10|                     00                        |       .        |        dst: 0 (valid) 0xd17-0xd17.7 (1)
0xd10|                        00                     |        .       |        idx: 0 (valid) 0xd18-0xd18.7 (1)
     |                                               |                |      [1]{}: local_time_type 0xd19-0xd1e.7 (6)
0xd10|                           00 00 0e 10         |         ....   |        utoff: 3600 (valid) 0xd19-0xd1c.7 (4)
0xd10|                                       01      |             .  |        dst: 1 (valid) 0xd1d-0xd1d.7 (1)
0xd10|                                          04   |              . |        idx: 4 (valid) 0xd1e-0xd1e.7 (1)
     |                                               |                |      [2]{}: local_time_type 0xd1f-0xd24.7 (6)
0xd10|                                             00|               .|        utoff: 0 (valid) 0xd1f-0xd22.7 (4)
0xd20|00 00 00                                       |...             |
0xd20|         00                                    |   .            |        dst: 0 (valid) 0xd23-0xd23.7 (1)
0xd20|            09                                 |    .           |        idx: 9 (valid) 0xd24-0xd24.7 (1)
     |                                               |                |      [3]{}: local_time_type 0xd25-0xd2a.7 (6)
0xd20|               00 00 0e 10                     |     ....       |        utoff: 3600 (valid) 0xd25-0xd28.7 (4)
0xd20|                           01                  |         .      |        dst: 1 (valid) 0xd29-0xd29.7 (1)
0xd20|                              04               |          .     |        idx: 4 (valid) 0xd2a-0xd2a.7 (1)
     |                                               |                |      [4]{}: local_time_type 0xd2b-0xd30.7 (6)
0xd20|                                 00 00 00 00   |           .... |        utoff: 0 (valid) 0xd2b-0xd2e.7 (4)
0xd20|                                             00|               .|        dst: 0 (valid) 0xd2f-0xd2f.7 (1)
0xd30|09                                             |.               |        idx: 9 (valid) 0xd30-0xd30.7 (1)
     |                                               |                |      [5]{}: local_time_type 0xd31-0xd36.7 (6)
0xd30|   00 00 1c 20                                 | ...            |        utoff: 7200 (valid) 0xd31-0xd34.7 (4)
0xd30|               01                              |     .          |        dst: 1 (valid) 0xd35-0xd35.7 (1)
0xd30|                  0d                           |      .         |        idx: 13 (valid) 0xd36-0xd36.7 (1)
     |                                               |                |      [6]{}: local_time_type 0xd37-0xd3c.7 (6)
0xd30|                     00 00 00 00               |       ....     |        utoff: 0 (valid) 0xd37-0xd3a.7 (4)
0xd30|                                 00            |           .    |        dst: 0 (valid) 0xd3b-0xd3b.7 (1)
0xd30|                                    09         |            .   |        idx: 9 (valid) 0xd3c-0xd3c.7 (1)
     |                                               |                |      [7]{}: local_time_type 0xd3d-0xd42.7 (6)
0xd30|                                       00 00 0e|             ...|        utoff: 3600 (valid) 0xd3d-0xd40.7 (4)
0xd40|10                                             |.               |
0xd40|   00                                          | .              |        dst: 0 (valid) 0xd41-0xd41.7 (1)
0xd40|      12                                       |  .             |        idx: 18 (valid) 0xd42-0xd42.7 (1)
     |                                               |                |      [8]{}: local_time_type 0xd43-0xd48.7 (6)
0xd40|         00 00 0e 10                           |   ....         |        utoff: 3600 (valid) 0xd43-0xd46.7 (4)
0xd40|                     00                        |       .        |        dst: 0 (valid) 0xd47-0xd47.7 (1)
0xd40|                        12                     |        .       |        idx: 18 (valid) 0xd48-0xd48.7 (1)
     |                                               |                |      [9]{}: local_time_type 0xd49-0xd4e.7 (6)
0xd40|                           00 00 1c 20         |         ...    |        utoff: 7200 (valid) 0xd49-0xd4c.7 (4)
0xd40|                                       01      |             .  |        dst: 1 (valid) 0xd4d-0xd4d.7 (1)
0xd40|                                          16   |              . |        idx: 22 (valid) 0xd4e-0xd4e.7 (1)
     |                                               |                |      [10]{}: local_time_type 0xd4f-0xd54.7 (6)
0xd40|                                             00|               .|        utoff: 3600 (valid) 0xd4f-0xd52.7 (4)
0xd50|00 0e 10                                       |...             |
0xd50|         01                                    |   .            |        dst: 1 (valid) 0xd53-0xd53.7 (1)
0xd50|            04                                 |    .           |        idx: 4 (valid) 0xd54-0xd54.7 (1)
     |                                               |                |      [11]{}: local_time_type 0xd55-0xd5a.7 (6)
0xd50|               00 00 00 00                     |     ....       |        utoff: 0 (valid) 0xd55-0xd58.7 (4)
0xd50|                           00                  |         .      |        dst: 0 (valid) 0xd59-0xd59.7 (1)
0xd50|                              09               |          .     |        idx: 9 (valid) 0xd5a-0xd5a.7 (1)
     |                                               |                |    time_zone_designations[0:6]: 0xd5b-0xd75.7 (27)
0xd50|                                 4c 4d 54 00   |           LMT. |      [0]: "LMT" time_zone_designation 0xd5b-0xd5e.7 (4)
0xd50|                                             57|               W|      [1]: "WEST" time_zone_designation 0xd5f-0xd63.7 (5)
0xd60|45 53 54 00                                    |EST.            |
0xd60|            57 45 54 00                        |    WET.        |      [2]: "WET" time_zone_designation 0xd64-0xd67.7 (4)
0xd60|                        57 45 4d 54 00         |        WEMT.   |      [3]: "WEMT" time_zone_designation 0xd68-0xd6c.7 (5)
0xd60|                                       43 45 54|             CET|      [4]: "CET" time_zone_designation 0xd6d-0xd70.7 (4)
0xd70|00                                             |.               |
0xd70|   43 45 53 54 00                              | CEST.          |      [5]: "CEST" time_zone_designation 0xd71-0xd75.7 (5)
     |                                               |                |    leap_second_records[0:0]: 0xd76-NA (0)
     |                                               |                |    standard_wall_indicators[0:12]: 0xd76-0xd81.7 (12)
0xd70|                  00                           |      .         |      [0]: 0 standard_wall_indicator (valid) 0xd76-0xd76.7 (1)
0xd70|                     00                        |       .        |      [1]: 0 standard_wall_indicator (valid) 0xd77-0xd77.7 (1)
0xd70|                        00                     |        .       |      [2]: 0 standard_wall_indicator (valid) 0xd78-0xd78.7 (1)
0xd70|                           01                  |         .      |      [3]: 1 standard_wall_indicator (valid) 0xd79-0xd79.7 (1)
0xd70|                              01               |          .     |      [4]: 1 standard_wall_indicator (valid) 0xd7a-0xd7a.7 (1)
0xd70|                                 01            |           .    |      [5]: 1 standard_wall_indicator (valid) 0xd7b-0xd7b.7 (1)
0xd70|                                    01         |            .   |      [6]: 1 standard_wall_indicator (valid) 0xd7c-0xd7c.7 (1)
0xd70|                                       00      |             .  |      [7]: 0 standard_wall_indicator (valid) 0xd7d-0xd7d.7 (1)
0xd70|                                          01   |              . |      [8]: 1 standard_wall_indicator (valid) 0xd7e-0xd7e.7 (1)
0xd70|                                             01|               .|      [9]: 1 standard_wall_indicator (valid) 0xd7f-0xd7f.7 (1)
0xd80|01                                             |.               |      [10]: 1 standard_wall_indicator (valid) 0xd80-0xd80.7 (1)
0xd80|   01                                          | .              |      [11]: 1 standard_wall_indicator (valid) 0xd81-0xd81.7 (1)
     |                                               |                |    ut_local_indicators[0:12]: 0xd82-0xd8d.7 (12)
0xd80|      00                                       |  .             |      [0]: 0 ut_local_indicator (valid) 0xd82-0xd82.7 (1)
0xd80|         00                                    |   .            |      [1]: 0 ut_local_indicator (valid) 0xd83-0xd83.7 (1)
0xd80|            00                                 |    .           |      [2]: 0 ut_local_indicator (valid) 0xd84-0xd84.7 (1)
0xd80|               00                              |     .          |      [3]: 0 ut_local_indicator (valid) 0xd85-0xd85.7 (1)
0xd80|                  00                           |      .         |      [4]: 0 ut_local_indicator (valid) 0xd86-0xd86.7 (1)
0xd80|                     00                        |       .        |      [5]: 0 ut_local_indicator (valid) 0xd87-0xd87.7 (1)
0xd80|                        01                     |        .       |      [6]: 1 ut_local_indicator (valid) 0xd88-0xd88.7 (1)
0xd80|                           00                  |         .      |      [7]: 0 ut_local_indicator (valid) 0xd89-0xd89.7 (1)
0xd80|                              01               |          .     |      [8]: 1 ut_local_indicator (valid) 0xd8a-0xd8a.7 (1)
0xd80|                                 01            |           .    |      [9]: 1 ut_local_indicator (valid) 0xd8b-0xd8b.7 (1)
0xd80|                                    01         |            .   |      [10]: 1 ut_local_indicator (valid) 0xd8c-0xd8c.7 (1)
0xd80|                                       01      |             .  |      [11]: 1 ut_local_indicator (valid) 0xd8d-0xd8d.7 (1)
     |                                               |                |  footer{}: 0xd8e-0xda8.7 (27)
0xd80|                                          0a   |              . |    nl1: 10 (valid) 0xd8e-0xd8e.7 (1)
0xd80|                                             57|               W|    tz_string: "WET0WEST,M3.5.0/1,M10.5.0" 0xd8f-0xda7.7 (25)
0xd90|45 54 30 57 45 53 54 2c 4d 33 2e 35 2e 30 2f 31|ET0WEST,M3.5.0/1|
0xda0|2c 4d 31 30 2e 35 2e 30                        |,M10.5.0        |
0xda0|                        0a|                    |        .|      |    nl2: 10 (valid) 0xda8-0xda8.7 (1)
