$ fq -d tzif dv London
     |00 01 02 03 04 05 06 07 08 09 0a 0b 0c 0d 0e 0f|0123456789abcdef|.{}: London (tzif) 0x0-0xe50 (3664)
     |                                               |                |  v1header{}: 0x0-0x2c (44)
0x000|54 5a 69 66                                    |TZif            |    magic: 0x545a6966 (valid) 0x0-0x4 (4)
0x000|            32                                 |    2           |    ver: "2" (0x32) (valid) 0x4-0x5 (1)
0x000|               00 00 00 00 00 00 00 00 00 00 00|     ...........|    reserved: raw bits 0x5-0x14 (15)
0x010|00 00 00 00                                    |....            |
0x010|            00 00 00 08                        |    ....        |    isutcnt: 8 0x14-0x18 (4)
0x010|                        00 00 00 08            |        ....    |    isstdcnt: 8 0x18-0x1c (4)
0x010|                                    00 00 00 00|            ....|    leapcnt: 0 0x1c-0x20 (4)
0x020|00 00 00 f2                                    |....            |    timecnt: 242 0x20-0x24 (4)
0x020|            00 00 00 08                        |    ....        |    typecnt: 8 0x24-0x28 (4)
0x020|                        00 00 00 11            |        ....    |    charcnt: 17 0x28-0x2c (4)
     |                                               |                |  v1datablock{}: 0x2c-0x537 (1291)
     |                                               |                |    transition_times[0:242]: 0x2c-0x3f4 (968)
0x020|                                    80 00 00 00|            ....|      [0]: "1901-12-13T20:45:52Z" (-2147483648) transition_time 0x2c-0x30 (4)
0x030|9b 26 ad a0                                    |.&..            |      [1]: "1916-05-21T02:00:00Z" (-1691964000) transition_time 0x30-0x34 (4)
0x030|            9b d6 05 20                        |    ...         |      [2]: "1916-10-01T02:00:00Z" (-1680472800) transition_time 0x34-0x38 (4)
0x030|                        9c cf 30 a0            |        ..0.    |      [3]: "1917-04-08T02:00:00Z" (-1664143200) transition_time 0x38-0x3c (4)
0x030|                                    9d a4 c3 a0|            ....|      [4]: "1917-09-17T02:00:00Z" (-1650146400) transition_time 0x3c-0x40 (4)
0x040|9e 9c 9d a0                                    |....            |      [5]: "1918-03-24T02:00:00Z" (-1633903200) transition_time 0x40-0x44 (4)
0x040|            9f 97 1a a0                        |    ....        |      [6]: "1918-09-30T02:00:00Z" (-1617487200) transition_time 0x44-0x48 (4)
0x040|                        a0 85 ba 20            |        ...     |      [7]: "1919-03-30T02:00:00Z" (-1601848800) transition_time 0x48-0x4c (4)
0x040|                                    a1 76 fc a0|            .v..|      [8]: "1919-09-29T02:00:00Z" (-1586037600) transition_time 0x4c-0x50 (4)
0x050|a2 65 9c 20                                    |.e.             |      [9]: "1920-03-28T02:00:00Z" (-1570399200) transition_time 0x50-0x54 (4)
0x050|            a3 7b c8 a0                        |    .{..        |      [10]: "1920-10-25T02:00:00Z" (-1552168800) transition_time 0x54-0x58 (4)
0x050|                        a4 4e b8 a0            |        .N..    |      [11]: "1921-04-03T02:00:00Z" (-1538344800) transition_time 0x58-0x5c (4)
0x050|                                    a5 3f fb 20|            .?. |      [12]: "1921-10-03T02:00:00Z" (-1522533600) transition_time 0x5c-0x60 (4)
0x060|a6 25 60 20                                    |.%`             |      [13]: "1922-03-26T02:00:00Z" (-1507500000) transition_time 0x60-0x64 (4)
0x060|            a7 27 c6 20                        |    .'.         |      [14]: "1922-10-08T02:00:00Z" (-1490565600) transition_time 0x64-0x68 (4)
0x060|                        a8 2a 2c 20            |        .*,     |      [15]: "1923-04-22T02:00:00Z" (-1473631200) transition_time 0x68-0x6c (4)
0x060|                                    a8 eb f8 a0|            ....|      [16]: "1923-09-16T02:00:00Z" (-1460930400) transition_time 0x6c-0x70 (4)
0x070|aa 00 d3 a0                                    |....            |      [17]: "1924-04-13T02:00:00Z" (-1442786400) transition_time 0x70-0x74 (4)
0x070|            aa d5 15 20                        |    ...         |      [18]: "1924-09-21T02:00:00Z" (-1428876000) transition_time 0x74-0x78 (4)
0x070|                        ab e9 f0 20            |        ...     |      [19]: "1925-04-19T02:00:00Z" (-1410732000) transition_time 0x78-0x7c (4)
0x070|                                    ac c7 6c 20|            ..l |      [20]: "1925-10-04T02:00:00Z" (-1396216800) transition_time 0x7c-0x80 (4)
0x080|ad c9 d2 20                                    |...             |      [21]: "1926-04-18T02:00:00Z" (-1379282400) transition_time 0x80-0x84 (4)
0x080|            ae a7 4e 20                        |    ..N         |      [22]: "1926-10-03T02:00:00Z" (-1364767200) transition_time 0x84-0x88 (4)
0x080|                        af a0 79 a0            |        ..y.    |      [23]: "1927-04-10T02:00:00Z" (-1348437600) transition_time 0x88-0x8c (4)
0x080|                                    b0 87 30 20|            ..0 |      [24]: "1927-10-02T02:00:00Z" (-1333317600) transition_time 0x8c-0x90 (4)
0x090|b1 92 d0 a0                                    |....            |      [25]: "1928-04-22T02:00:00Z" (-1315778400) transition_time 0x90-0x94 (4)
0x090|            b2 70 4c a0                        |    .pL.        |      [26]: "1928-10-07T02:00:00Z" (-1301263200) transition_time 0x94-0x98 (4)
0x090|                        b3 72 b2 a0            |        .r..    |      [27]: "1929-04-21T02:00:00Z" (-1284328800) transition_time 0x98-0x9c (4)
0x090|                                    b4 50 2e a0|            .P..|      [28]: "1929-10-06T02:00:00Z" (-1269813600) transition_time 0x9c-0xa0 (4)
0x0a0|b5 49 5a 20                                    |.IZ             |      [29]: "1930-04-13T02:00:00Z" (-1253484000) transition_time 0xa0-0xa4 (4)
0x0a0|            b6 30 10 a0                        |    .0..        |      [30]: "1930-10-05T02:00:00Z" (-1238364000) transition_time 0xa4-0xa8 (4)
0x0a0|                        b7 32 76 a0            |        .2v.    |      [31]: "1931-04-19T02:00:00Z" (-1221429600) transition_time 0xa8-0xac (4)
0x0a0|                                    b8 0f f2 a0|            ....|      [32]: "1931-10-04T02:00:00Z" (-1206914400) transition_time 0xac-0xb0 (4)
0x0b0|b9 12 58 a0                                    |..X.            |      [33]: "1932-04-17T02:00:00Z" (-1189980000) transition_time 0xb0-0xb4 (4)
0x0b0|            b9 ef d4 a0                        |    ....        |      [34]: "1932-10-02T02:00:00Z" (-1175464800) transition_time 0xb4-0xb8 (4)
0x0b0|                        ba e9 00 20            |        ...     |      [35]: "1933-04-09T02:00:00Z" (-1159135200) transition_time 0xb8-0xbc (4)
0x0b0|                                    bb d8 f1 20|            ... |      [36]: "1933-10-08T02:00:00Z" (-1143410400) transition_time 0xbc-0xc0 (4)
0x0c0|bc db 57 20                                    |..W             |      [37]: "1934-04-22T02:00:00Z" (-1126476000) transition_time 0xc0-0xc4 (4)
0x0c0|            bd b8 d3 20                        |    ...         |      [38]: "1934-10-07T02:00:00Z" (-1111960800) transition_time 0xc4-0xc8 (4)
0x0c0|                        be b1 fe a0            |        ....    |      [39]: "1935-04-14T02:00:00Z" (-1095631200) transition_time 0xc8-0xcc (4)
0x0c0|                                    bf 98 b5 20|            ... |      [40]: "1935-10-06T02:00:00Z" (-1080511200) transition_time 0xcc-0xd0 (4)
0x0d0|c0 9b 1b 20                                    |...             |      [41]: "1936-04-19T02:00:00Z" (-1063576800) transition_time 0xd0-0xd4 (4)
0x0d0|            c1 78 97 20                        |    .x.         |      [42]: "1936-10-04T02:00:00Z" (-1049061600) transition_time 0xd4-0xd8 (4)
0x0d0|                        c2 7a fd 20            |        .z.     |      [43]: "1937-04-18T02:00:00Z" (-1032127200) transition_time 0xd8-0xdc (4)
0x0d0|                                    c3 58 79 20|            .Xy |      [44]: "1937-10-03T02:00:00Z" (-1017612000) transition_time 0xdc-0xe0 (4)
0x0e0|c4 51 a4 a0                                    |.Q..            |      [45]: "1938-04-10T02:00:00Z" (-1001282400) transition_time 0xe0-0xe4 (4)
0x0e0|            c5 38 5b 20                        |    .8[         |      [46]: "1938-10-02T02:00:00Z" (-986162400) transition_time 0xe4-0xe8 (4)
0x0e0|                        c6 3a c1 20            |        .:.     |      [47]: "1939-04-16T02:00:00Z" (-969228000) transition_time 0xe8-0xec (4)
0x0e0|                                    c7 58 d6 a0|            .X..|      [48]: "1939-11-19T02:00:00Z" (-950479200) transition_time 0xec-0xf0 (4)
0x0f0|c7 da 09 a0                                    |....            |      [49]: "1940-02-25T02:00:00Z" (-942012000) transition_time 0xf0-0xf4 (4)
0x0f0|            ca 16 26 90                        |    ..&.        |      [50]: "1941-05-04T01:00:00Z" (-904518000) transition_time 0xf4-0xf8 (4)
0x0f0|                        ca 97 59 90            |        ..Y.    |      [51]: "1941-08-10T01:00:00Z" (-896050800) transition_time 0xf8-0xfc (4)
0x0f0|                                    cb d1 1e 90|            ....|      [52]: "1942-04-05T01:00:00Z" (-875487600) transition_time 0xfc-0x100 (4)
0x100|cc 77 3b 90                                    |.w;.            |      [53]: "1942-08-09T01:00:00Z" (-864601200) transition_time 0x100-0x104 (4)
0x100|            cd b1 00 90                        |    ....        |      [54]: "1943-04-04T01:00:00Z" (-844038000) transition_time 0x104-0x108 (4)
0x100|                        ce 60 58 10            |        .`X.    |      [55]: "1943-08-15T01:00:00Z" (-832546800) transition_time 0x108-0x10c (4)
0x100|                                    cf 90 e2 90|            ....|      [56]: "1944-04-02T01:00:00Z" (-812588400) transition_time 0x10c-0x110 (4)
0x110|d0 6e 5e 90                                    |.n^.            |      [57]: "1944-09-17T01:00:00Z" (-798073200) transition_time 0x110-0x114 (4)
0x110|            d1 72 16 10                        |    .r..        |      [58]: "1945-04-02T01:00:00Z" (-781052400) transition_time 0x114-0x118 (4)
0x110|                        d1 fb 32 10            |        ..2.    |      [59]: "1945-07-15T01:00:00Z" (-772066800) transition_time 0x118-0x11c (4)
0x110|                                    d2 69 fe 20|            .i. |      [60]: "1945-10-07T02:00:00Z" (-764805600) transition_time 0x11c-0x120 (4)
0x120|d3 63 29 a0                                    |.c).            |      [61]: "1946-04-14T02:00:00Z" (-748476000) transition_time 0x120-0x124 (4)
0x120|            d4 49 e0 20                        |    .I.         |      [62]: "1946-10-06T02:00:00Z" (-733356000) transition_time 0x124-0x128 (4)
0x120|                        d5 1e 21 a0            |        ..!.    |      [63]: "1947-03-16T02:00:00Z" (-719445600) transition_time 0x128-0x12c (4)
0x120|                                    d5 42 fd 90|            .B..|      [64]: "1947-04-13T01:00:00Z" (-717030000) transition_time 0x12c-0x130 (4)
0x130|d5 df e0 10                                    |....            |      [65]: "1947-08-10T01:00:00Z" (-706748400) transition_time 0x130-0x134 (4)
0x130|            d6 4e ac 20                        |    .N.         |      [66]: "1947-11-02T02:00:00Z" (-699487200) transition_time 0x134-0x138 (4)
0x130|                        d6 fe 03 a0            |        ....    |      [67]: "1948-03-14T02:00:00Z" (-687996000) transition_time 0x138-0x13c (4)
0x130|                                    d8 2e 8e 20|            ... |      [68]: "1948-10-31T02:00:00Z" (-668037600) transition_time 0x13c-0x140 (4)
0x140|d8 f9 95 20                                    |...             |      [69]: "1949-04-03T02:00:00Z" (-654732000) transition_time 0x140-0x144 (4)
0x140|            da 0e 70 20                        |    ..p         |      [70]: "1949-10-30T02:00:00Z" (-636588000) transition_time 0x144-0x148 (4)
0x140|                        da eb ec 20            |        ...     |      [71]: "1950-04-16T02:00:00Z" (-622072800) transition_time 0x148-0x14c (4)
0x140|                                    db e5 17 a0|            ....|      [72]: "1950-10-22T02:00:00Z" (-605743200) transition_time 0x14c-0x150 (4)
0x150|dc cb ce 20                                    |...             |      [73]: "1951-04-15T02:00:00Z" (-590623200) transition_time 0x150-0x154 (4)
0x150|            dd c4 f9 a0                        |    ....        |      [74]: "1951-10-21T02:00:00Z" (-574293600) transition_time 0x154-0x158 (4)
0x150|                        de b4 ea a0            |        ....    |      [75]: "1952-04-20T02:00:00Z" (-558568800) transition_time 0x158-0x15c (4)
0x150|                                    df ae 16 20|            ... |      [76]: "1952-10-26T02:00:00Z" (-542239200) transition_time 0x15c-0x160 (4)
0x160|e0 94 cc a0                                    |....            |      [77]: "1953-04-19T02:00:00Z" (-527119200) transition_time 0x160-0x164 (4)
0x160|            e1 72 48 a0                        |    .rH.        |      [78]: "1953-10-04T02:00:00Z" (-512604000) transition_time 0x164-0x168 (4)
0x160|                        e2 6b 74 20            |        .kt     |      [79]: "1954-04-11T02:00:00Z" (-496274400) transition_time 0x168-0x16c (4)
0x160|                                    e3 52 2a a0|            .R*.|      [80]: "1954-10-03T02:00:00Z" (-481154400) transition_time 0x16c-0x170 (4)
0x170|e4 54 90 a0                                    |.T..            |      [81]: "1955-04-17T02:00:00Z" (-464220000) transition_time 0x170-0x174 (4)
0x170|            e5 32 0c a0                        |    .2..        |      [82]: "1955-10-02T02:00:00Z" (-449704800) transition_time 0x174-0x178 (4)
0x170|                        e6 3d ad 20            |        .=.     |      [83]: "1956-04-22T02:00:00Z" (-432165600) transition_time 0x178-0x17c (4)
0x170|                                    e7 1b 29 20|            ..) |      [84]: "1956-10-07T02:00:00Z" (-417650400) transition_time 0x17c-0x180 (4)
0x180|e8 14 54 a0                                    |..T.            |      [85]: "1957-04-14T02:00:00Z" (-401320800) transition_time 0x180-0x184 (4)
0x180|            e8 fb 0b 20                        |    ...         |      [86]: "1957-10-06T02:00:00Z" (-386200800) transition_time 0x184-0x188 (4)
0x180|                        e9 fd 71 20            |        ..q     |      [87]: "1958-04-20T02:00:00Z" (-369266400) transition_time 0x188-0x18c (4)
0x180|                                    ea da ed 20|            ... |      [88]: "1958-10-05T02:00:00Z" (-354751200) transition_time 0x18c-0x190 (4)
0x190|eb dd 53 20                                    |..S             |      [89]: "1959-04-19T02:00:00Z" (-337816800) transition_time 0x190-0x194 (4)
0x190|            ec ba cf 20                        |    ...         |      [90]: "1959-10-04T02:00:00Z" (-323301600) transition_time 0x194-0x198 (4)
0x190|                        ed b3 fa a0            |        ....    |      [91]: "1960-04-10T02:00:00Z" (-306972000) transition_time 0x198-0x19c (4)
0x190|                                    ee 9a b1 20|            ... |      [92]: "1960-10-02T02:00:00Z" (-291852000) transition_time 0x19c-0x1a0 (4)
0x1a0|ef 81 67 a0                                    |..g.            |      [93]: "1961-03-26T02:00:00Z" (-276732000) transition_time 0x1a0-0x1a4 (4)
0x1a0|            f0 9f 7d 20                        |    ..}         |      [94]: "1961-10-29T02:00:00Z" (-257983200) transition_time 0x1a4-0x1a8 (4)
0x1a0|                        f1 61 49 a0            |        .aI.    |      [95]: "1962-03-25T02:00:00Z" (-245282400) transition_time 0x1a8-0x1ac (4)
0x1a0|                                    f2 7f 5f 20|            .._ |      [96]: "1962-10-28T02:00:00Z" (-226533600) transition_time 0x1ac-0x1b0 (4)
0x1b0|f3 4a 66 20                                    |.Jf             |      [97]: "1963-03-31T02:00:00Z" (-213228000) transition_time 0x1b0-0x1b4 (4)
0x1b0|            f4 5f 41 20                        |    ._A         |      [98]: "1963-10-27T02:00:00Z" (-195084000) transition_time 0x1b4-0x1b8 (4)
0x1b0|                        f5 21 0d a0            |        .!..    |      [99]: "1964-03-22T02:00:00Z" (-182383200) transition_time 0x1b8-0x1bc (4)
0x1b0|                                    f6 3f 23 20|            .?# |      [100]: "1964-10-25T02:00:00Z" (-163634400) transition_time 0x1bc-0x1c0 (4)
0x1c0|f7 00 ef a0                                    |....            |      [101]: "1965-03-21T02:00:00Z" (-150933600) transition_time 0x1c0-0x1c4 (4)
0x1c0|            f8 1f 05 20                        |    ...         |      [102]: "1965-10-24T02:00:00Z" (-132184800) transition_time 0x1c4-0x1c8 (4)
0x1c0|                        f8 e0 d1 a0            |        ....    |      [103]: "1966-03-20T02:00:00Z" (-119484000) transition_time 0x1c8-0x1cc (4)
0x1c0|                                    f9 fe e7 20|            ... |      [104]: "1966-10-23T02:00:00Z" (-100735200) transition_time 0x1cc-0x1d0 (4)
0x1d0|fa c0 b3 a0                                    |....            |      [105]: "1967-03-19T02:00:00Z" (-88034400) transition_time 0x1d0-0x1d4 (4)
0x1d0|            fb e8 03 a0                        |    ....        |      [106]: "1967-10-29T02:00:00Z" (-68680800) transition_time 0x1d4-0x1d8 (4)
0x1d0|                        fc 7b ab a0            |        .{..    |      [107]: "1968-02-18T02:00:00Z" (-59004000) transition_time 0x1d8-0x1dc (4)
0x1d0|                                    fd c7 bb 70|            ...p|      [108]: "1968-10-26T23:00:00Z" (-37242000) transition_time 0x1dc-0x1e0 (4)
0x1e0|03 70 c6 20                                    |.p.             |      [109]: "1971-10-31T02:00:00Z" (57722400) transition_time 0x1e0-0x1e4 (4)
0x1e0|            04 29 58 20                        |    .)X         |      [110]: "1972-03-19T02:00:00Z" (69818400) transition_time 0x1e4-0x1e8 (4)
0x1e0|                        05 50 a8 20            |        .P.     |      [111]: "1972-10-29T02:00:00Z" (89172000) transition_time 0x1e8-0x1ec (4)
0x1e0|                                    06 09 3a 20|            ..: |      [112]: "1973-03-18T02:00:00Z" (101268000) transition_time 0x1ec-0x1f0 (4)
0x1f0|07 30 8a 20                                    |.0.             |      [113]: "1973-10-28T02:00:00Z" (120621600) transition_time 0x1f0-0x1f4 (4)
0x1f0|            07 e9 1c 20                        |    ...         |      [114]: "1974-03-17T02:00:00Z" (132717600) transition_time 0x1f4-0x1f8 (4)
0x1f0|                        09 10 6c 20            |        ..l     |      [115]: "1974-10-27T02:00:00Z" (152071200) transition_time 0x1f8-0x1fc (4)
0x1f0|                                    09 c8 fe 20|            ... |      [116]: "1975-03-16T02:00:00Z" (164167200) transition_time 0x1fc-0x200 (4)
0x200|0a f0 4e 20                                    |..N             |      [117]: "1975-10-26T02:00:00Z" (183520800) transition_time 0x200-0x204 (4)
0x200|            0b b2 1a a0                        |    ....        |      [118]: "1976-03-21T02:00:00Z" (196221600) transition_time 0x204-0x208 (4)
0x200|                        0c d0 30 20            |        ..0     |      [119]: "1976-10-24T02:00:00Z" (214970400) transition_time 0x208-0x20c (4)
0x200|                                    0d 91 fc a0|            ....|      [120]: "1977-03-20T02:00:00Z" (227671200) transition_time 0x20c-0x210 (4)
0x210|0e b0 12 20                                    |...             |      [121]: "1977-10-23T02:00:00Z" (246420000) transition_time 0x210-0x214 (4)
0x210|            0f 71 de a0                        |    .q..        |      [122]: "1978-03-19T02:00:00Z" (259120800) transition_time 0x214-0x218 (4)
0x210|                        10 99 2e a0            |        ....    |      [123]: "1978-10-29T02:00:00Z" (278474400) transition_time 0x218-0x21c (4)
0x210|                                    11 51 c0 a0|            .Q..|      [124]: "1979-03-18T02:00:00Z" (290570400) transition_time 0x21c-0x220 (4)
0x220|12 79 10 a0                                    |.y..            |      [125]: "1979-10-28T02:00:00Z" (309924000) transition_time 0x220-0x224 (4)
0x220|            13 31 a2 a0                        |    .1..        |      [126]: "1980-03-16T02:00:00Z" (322020000) transition_time 0x224-0x228 (4)
0x220|                        14 58 f2 a0            |        .X..    |      [127]: "1980-10-26T02:00:00Z" (341373600) transition_time 0x228-0x22c (4)
0x220|                                    15 23 eb 90|            .#..|      [128]: "1981-03-29T01:00:00Z" (354675600) transition_time 0x22c-0x230 (4)
0x230|16 38 c6 90                                    |.8..            |      [129]: "1981-10-25T01:00:00Z" (372819600) transition_time 0x230-0x234 (4)
0x230|            17 03 cd 90                        |    ....        |      [130]: "1982-03-28T01:00:00Z" (386125200) transition_time 0x234-0x238 (4)
0x230|                        18 18 a8 90            |        ....    |      [131]: "1982-10-24T01:00:00Z" (404269200) transition_time 0x238-0x23c (4)
0x230|                                    18 e3 af 90|            ....|      [132]: "1983-03-27T01:00:00Z" (417574800) transition_time 0x23c-0x240 (4)
0x240|19 f8 8a 90                                    |....            |      [133]: "1983-10-23T01:00:00Z" (435718800) transition_time 0x240-0x244 (4)
0x240|            1a c3 91 90                        |    ....        |      [134]: "1984-03-25T01:00:00Z" (449024400) transition_time 0x244-0x248 (4)
0x240|                        1b e1 a7 10            |        ....    |      [135]: "1984-10-28T01:00:00Z" (467773200) transition_time 0x248-0x24c (4)
0x240|                                    1c ac ae 10|            ....|      [136]: "1985-03-31T01:00:00Z" (481078800) transition_time 0x24c-0x250 (4)
0x250|1d c1 89 10                                    |....            |      [137]: "1985-10-27T01:00:00Z" (499222800) transition_time 0x250-0x254 (4)
0x250|            1e 8c 90 10                        |    ....        |      [138]: "1986-03-30T01:00:00Z" (512528400) transition_time 0x254-0x258 (4)
0x250|                        1f a1 6b 10            |        ..k.    |      [139]: "1986-10-26T01:00:00Z" (530672400) transition_time 0x258-0x25c (4)
0x250|                                    20 6c 72 10|             lr.|      [140]: "1987-03-29T01:00:00Z" (543978000) transition_time 0x25c-0x260 (4)
0x260|21 81 4d 10                                    |!.M.            |      [141]: "1987-10-25T01:00:00Z" (562122000) transition_time 0x260-0x264 (4)
0x260|            22 4c 54 10                        |    "LT.        |      [142]: "1988-03-27T01:00:00Z" (575427600) transition_time 0x264-0x268 (4)
0x260|                        23 61 2f 10            |        #a/.    |      [143]: "1988-10-23T01:00:00Z" (593571600) transition_time 0x268-0x26c (4)
0x260|                                    24 2c 36 10|            $,6.|      [144]: "1989-03-26T01:00:00Z" (606877200) transition_time 0x26c-0x270 (4)
0x270|25 4a 4b 90                                    |%JK.            |      [145]: "1989-10-29T01:00:00Z" (625626000) transition_time 0x270-0x274 (4)
0x270|            26 0c 18 10                        |    &...        |      [146]: "1990-03-25T01:00:00Z" (638326800) transition_time 0x274-0x278 (4)
0x270|                        27 2a 2d 90            |        '*-.    |      [147]: "1990-10-28T01:00:00Z" (657075600) transition_time 0x278-0x27c (4)
0x270|                                    27 f5 34 90|            '.4.|      [148]: "1991-03-31T01:00:00Z" (670381200) transition_time 0x27c-0x280 (4)
0x280|29 0a 0f 90                                    |)...            |      [149]: "1991-10-27T01:00:00Z" (688525200) transition_time 0x280-0x284 (4)
0x280|            29 d5 16 90                        |    )...        |      [150]: "1992-03-29T01:00:00Z" (701830800) transition_time 0x284-0x288 (4)
0x280|                        2a e9 f1 90            |        *...    |      [151]: "1992-10-25T01:00:00Z" (719974800) transition_time 0x288-0x28c (4)
0x280|                                    2b b4 f8 90|            +...|      [152]: "1993-03-28T01:00:00Z" (733280400) transition_time 0x28c-0x290 (4)
0x290|2c c9 d3 90                                    |,...            |      [153]: "1993-10-24T01:00:00Z" (751424400) transition_time 0x290-0x294 (4)
0x290|            2d 94 da 90                        |    -...        |      [154]: "1994-03-27T01:00:00Z" (764730000) transition_time 0x294-0x298 (4)
0x290|                        2e a9 b5 90            |        ....    |      [155]: "1994-10-23T01:00:00Z" (782874000) transition_time 0x298-0x29c (4)
0x290|                                    2f 74 bc 90|            /t..|      [156]: "1995-03-26T01:00:00Z" (796179600) transition_time 0x29c-0x2a0 (4)
0x2a0|30 89 97 90                                    |0...            |      [157]: "1995-10-22T01:00:00Z" (814323600) transition_time 0x2a0-0x2a4 (4)
0x2a0|            31 5d d9 10                        |    1]..        |      [158]: "1996-03-31T01:00:00Z" (828234000) transition_time 0x2a4-0x2a8 (4)
0x2a0|                        32 72 b4 10            |        2r..    |      [159]: "1996-10-27T01:00:00Z" (846378000) transition_time 0x2a8-0x2ac (4)
0x2a0|                                    33 3d bb 10|            3=..|      [160]: "1997-03-30T01:00:00Z" (859683600) transition_time 0x2ac-0x2b0 (4)
0x2b0|34 52 96 10                                    |4R..            |      [161]: "1997-10-26T01:00:00Z" (877827600) transition_time 0x2b0-0x2b4 (4)
0x2b0|            35 1d 9d 10                        |    5...        |      [162]: "1998-03-29T01:00:00Z" (891133200) transition_time 0x2b4-0x2b8 (4)
0x2b0|                        36 32 78 10            |        62x.    |      [163]: "1998-10-25T01:00:00Z" (909277200) transition_time 0x2b8-0x2bc (4)
0x2b0|                                    36 fd 7f 10|            6...|      [164]: "1999-03-28T01:00:00Z" (922582800) transition_time 0x2bc-0x2c0 (4)
0x2c0|38 1b 94 90                                    |8...            |      [165]: "1999-10-31T01:00:00Z" (941331600) transition_time 0x2c0-0x2c4 (4)
0x2c0|            38 dd 61 10                        |    8.a.        |      [166]: "2000-03-26T01:00:00Z" (954032400) transition_time 0x2c4-0x2c8 (4)
0x2c0|                        39 fb 76 90            |        9.v.    |      [167]: "2000-10-29T01:00:00Z" (972781200) transition_time 0x2c8-0x2cc (4)
0x2c0|                                    3a bd 43 10|            :.C.|      [168]: "2001-03-25T01:00:00Z" (985482000) transition_time 0x2cc-0x2d0 (4)
0x2d0|3b db 58 90                                    |;.X.            |      [169]: "2001-10-28T01:00:00Z" (1004230800) transition_time 0x2d0-0x2d4 (4)
0x2d0|            3c a6 5f 90                        |    <._.        |      [170]: "2002-03-31T01:00:00Z" (1017536400) transition_time 0x2d4-0x2d8 (4)
0x2d0|                        3d bb 3a 90            |        =.:.    |      [171]: "2002-10-27T01:00:00Z" (1035680400) transition_time 0x2d8-0x2dc (4)
0x2d0|                                    3e 86 41 90|            >.A.|      [172]: "2003-03-30T01:00:00Z" (1048986000) transition_time 0x2dc-0x2e0 (4)
0x2e0|3f 9b 1c 90                                    |?...            |      [173]: "2003-10-26T01:00:00Z" (1067130000) transition_time 0x2e0-0x2e4 (4)
0x2e0|            40 66 23 90                        |    @f#.        |      [174]: "2004-03-28T01:00:00Z" (1080435600) transition_time 0x2e4-0x2e8 (4)
0x2e0|                        41 84 39 10            |        A.9.    |      [175]: "2004-10-31T01:00:00Z" (1099184400) transition_time 0x2e8-0x2ec (4)
0x2e0|                                    42 46 05 90|            BF..|      [176]: "2005-03-27T01:00:00Z" (1111885200) transition_time 0x2ec-0x2f0 (4)
0x2f0|43 64 1b 10                                    |Cd..            |      [177]: "2005-10-30T01:00:00Z" (1130634000) transition_time 0x2f0-0x2f4 (4)
0x2f0|            44 25 e7 90                        |    D%..        |      [178]: "2006-03-26T01:00:00Z" (1143334800) transition_time 0x2f4-0x2f8 (4)
0x2f0|                        45 43 fd 10            |        EC..    |      [179]: "2006-10-29T01:00:00Z" (1162083600) transition_time 0x2f8-0x2fc (4)
0x2f0|                                    46 05 c9 90|            F...|      [180]: "2007-03-25T01:00:00Z" (1174784400) transition_time 0x2fc-0x300 (4)
0x300|47 23 df 10                                    |G#..            |      [181]: "2007-10-28T01:00:00Z" (1193533200) transition_time 0x300-0x304 (4)
0x300|            47 ee e6 10                        |    G...        |      [182]: "2008-03-30T01:00:00Z" (1206838800) transition_time 0x304-0x308 (4)
0x300|                        49 03 c1 10            |        I...    |      [183]: "2008-10-26T01:00:00Z" (1224982800) transition_time 0x308-0x30c (4)
0x300|                                    49 ce c8 10|            I...|      [184]: "2009-03-29T01:00:00Z" (1238288400) transition_time 0x30c-0x310 (4)
0x310|4a e3 a3 10                                    |J...            |      [185]: "2009-10-25T01:00:00Z" (1256432400) transition_time 0x310-0x314 (4)
0x310|            4b ae aa 10                        |    K...        |      [186]: "2010-03-28T01:00:00Z" (1269738000) transition_time 0x314-0x318 (4)
0x310|                        4c cc bf 90            |        L...    |      [187]: "2010-10-31T01:00:00Z" (1288486800) transition_time 0x318-0x31c (4)
0x310|                                    4d 8e 8c 10|            M...|      [188]: "2011-03-27T01:00:00Z" (1301187600) transition_time 0x31c-0x320 (4)
0x320|4e ac a1 90                                    |N...            |      [189]: "2011-10-30T01:00:00Z" (1319936400) transition_time 0x320-0x324 (4)
0x320|            4f 6e 6e 10                        |    Onn.        |      [190]: "2012-03-25T01:00:00Z" (1332637200) transition_time 0x324-0x328 (4)
0x320|                        50 8c 83 90            |        P...    |      [191]: "2012-10-28T01:00:00Z" (1351386000) transition_time 0x328-0x32c (4)
0x320|                                    51 57 8a 90|            QW..|      [192]: "2013-03-31T01:00:00Z" (1364691600) transition_time 0x32c-0x330 (4)
0x330|52 6c 65 90                                    |Rle.            |      [193]: "2013-10-27T01:00:00Z" (1382835600) transition_time 0x330-0x334 (4)
0x330|            53 37 6c 90                        |    S7l.        |      [194]: "2014-03-30T01:00:00Z" (1396141200) transition_time 0x334-0x338 (4)
0x330|                        54 4c 47 90            |        TLG.    |      [195]: "2014-10-26T01:00:00Z" (1414285200) transition_time 0x338-0x33c (4)
0x330|                                    55 17 4e 90|            U.N.|      [196]: "2015-03-29T01:00:00Z" (1427590800) transition_time 0x33c-0x340 (4)
0x340|56 2c 29 90                                    |V,).            |      [197]: "2015-10-25T01:00:00Z" (1445734800) transition_time 0x340-0x344 (4)
0x340|            56 f7 30 90                        |    V.0.        |      [198]: "2016-03-27T01:00:00Z" (1459040400) transition_time 0x344-0x348 (4)
0x340|                        58 15 46 10            |        X.F.    |      [199]: "2016-10-30T01:00:00Z" (1477789200) transition_time 0x348-0x34c (4)
0x340|                                    58 d7 12 90|            X...|      [200]: "2017-03-26T01:00:00Z" (1490490000) transition_time 0x34c-0x350 (4)
0x350|59 f5 28 10                                    |Y.(.            |      [201]: "2017-10-29T01:00:00Z" (1509238800) transition_time 0x350-0x354 (4)
0x350|            5a b6 f4 90                        |    Z...        |      [202]: "2018-03-25T01:00:00Z" (1521939600) transition_time 0x354-0x358 (4)
0x350|                        5b d5 0a 10            |        [...    |      [203]: "2018-10-28T01:00:00Z" (1540688400) transition_time 0x358-0x35c (4)
0x350|                                    5c a0 11 10|            \...|      [204]: "2019-03-31T01:00:00Z" (1553994000) transition_time 0x35c-0x360 (4)
0x360|5d b4 ec 10                                    |]...            |      [205]: "2019-10-27T01:00:00Z" (1572138000) transition_time 0x360-0x364 (4)
0x360|            5e 7f f3 10                        |    ^...        |      [206]: "2020-03-29T01:00:00Z" (1585443600) transition_time 0x364-0x368 (4)
0x360|                        5f 94 ce 10            |        _...    |      [207]: "2020-10-25T01:00:00Z" (1603587600) transition_time 0x368-0x36c (4)
0x360|                                    60 5f d5 10|            `_..|      [208]: "2021-03-28T01:00:00Z" (1616893200) transition_time 0x36c-0x370 (4)
0x370|61 7d ea 90                                    |a}..            |      [209]: "2021-10-31T01:00:00Z" (1635642000) transition_time 0x370-0x374 (4)
0x370|            62 3f b7 10                        |    b?..        |      [210]: "2022-03-27T01:00:00Z" (1648342800) transition_time 0x374-0x378 (4)
0x370|                        63 5d cc 90            |        c]..    |      [211]: "2022-10-30T01:00:00Z" (1667091600) transition_time 0x378-0x37c (4)
0x370|                                    64 1f 99 10|            d...|      [212]: "2023-03-26T01:00:00Z" (1679792400) transition_time 0x37c-0x380 (4)
0x380|65 3d ae 90                                    |e=..            |      [213]: "2023-10-29T01:00:00Z" (1698541200) transition_time 0x380-0x384 (4)
0x380|            66 08 b5 90                        |    f...        |      [214]: "2024-03-31T01:00:00Z" (1711846800) transition_time 0x384-0x388 (4)
0x380|                        67 1d 90 90            |        g...    |      [215]: "2024-10-27T01:00:00Z" (1729990800) transition_time 0x388-0x38c (4)
0x380|                                    67 e8 97 90|            g...|      [216]: "2025-03-30T01:00:00Z" (1743296400) transition_time 0x38c-0x390 (4)
0x390|68 fd 72 90                                    |h.r.            |      [217]: "2025-10-26T01:00:00Z" (1761440400) transition_time 0x390-0x394 (4)
0x390|            69 c8 79 90                        |    i.y.        |      [218]: "2026-03-29T01:00:00Z" (1774746000) transition_time 0x394-0x398 (4)
0x390|                        6a dd 54 90            |        j.T.    |      [219]: "2026-10-25T01:00:00Z" (1792890000) transition_time 0x398-0x39c (4)
0x390|                                    6b a8 5b 90|            k.[.|      [220]: "2027-03-28T01:00:00Z" (1806195600) transition_time 0x39c-0x3a0 (4)
0x3a0|6c c6 71 10                                    |l.q.            |      [221]: "2027-10-31T01:00:00Z" (1824944400) transition_time 0x3a0-0x3a4 (4)
0x3a0|            6d 88 3d 90                        |    m.=.        |      [222]: "2028-03-26T01:00:00Z" (1837645200) transition_time 0x3a4-0x3a8 (4)
0x3a0|                        6e a6 53 10            |        n.S.    |      [223]: "2028-10-29T01:00:00Z" (1856394000) transition_time 0x3a8-0x3ac (4)
0x3a0|                                    6f 68 1f 90|            oh..|      [224]: "2029-03-25T01:00:00Z" (1869094800) transition_time 0x3ac-0x3b0 (4)
0x3b0|70 86 35 10                                    |p.5.            |      [225]: "2029-10-28T01:00:00Z" (1887843600) transition_time 0x3b0-0x3b4 (4)
0x3b0|            71 51 3c 10                        |    qQ<.        |      [226]: "2030-03-31T01:00:00Z" (1901149200) transition_time 0x3b4-0x3b8 (4)
0x3b0|                        72 66 17 10            |        rf..    |      [227]: "2030-10-27T01:00:00Z" (1919293200) transition_time 0x3b8-0x3bc (4)
0x3b0|                                    73 31 1e 10|            s1..|      [228]: "2031-03-30T01:00:00Z" (1932598800) transition_time 0x3bc-0x3c0 (4)
0x3c0|74 45 f9 10                                    |tE..            |      [229]: "2031-10-26T01:00:00Z" (1950742800) transition_time 0x3c0-0x3c4 (4)
0x3c0|            75 11 00 10                        |    u...        |      [230]: "2032-03-28T01:00:00Z" (1964048400) transition_time 0x3c4-0x3c8 (4)
0x3c0|                        76 2f 15 90            |        v/..    |      [231]: "2032-10-31T01:00:00Z" (1982797200) transition_time 0x3c8-0x3cc (4)
0x3c0|                                    76 f0 e2 10|            v...|      [232]: "2033-03-27T01:00:00Z" (1995498000) transition_time 0x3cc-0x3d0 (4)
0x3d0|78 0e f7 90                                    |x...            |      [233]: "2033-10-30T01:00:00Z" (2014246800) transition_time 0x3d0-0x3d4 (4)
0x3d0|            78 d0 c4 10                        |    x...        |      [234]: "2034-03-26T01:00:00Z" (2026947600) transition_time 0x3d4-0x3d8 (4)
0x3d0|                        79 ee d9 90            |        y...    |      [235]: "2034-10-29T01:00:00Z" (2045696400) transition_time 0x3d8-0x3dc (4)
0x3d0|                                    7a b0 a6 10|            z...|      [236]: "2035-03-25T01:00:00Z" (2058397200) transition_time 0x3dc-0x3e0 (4)
0x3e0|7b ce bb 90                                    |{...            |      [237]: "2035-10-28T01:00:00Z" (2077146000) transition_time 0x3e0-0x3e4 (4)
0x3e0|            7c 99 c2 90                        |    |...        |      [238]: "2036-03-30T01:00:00Z" (2090451600) transition_time 0x3e4-0x3e8 (4)
0x3e0|                        7d ae 9d 90            |        }...    |      [239]: "2036-10-26T01:00:00Z" (2108595600) transition_time 0x3e8-0x3ec (4)
0x3e0|                                    7e 79 a4 90|            ~y..|      [240]: "2037-03-29T01:00:00Z" (2121901200) transition_time 0x3ec-0x3f0 (4)
0x3f0|7f 8e 7f 90                                    |....            |      [241]: "2037-10-25T01:00:00Z" (2140045200) transition_time 0x3f0-0x3f4 (4)
     |                                               |                |    transition_types[0:242]: 0x3f4-0x4e6 (242)
0x3f0|            04                                 |    .           |      [0]: 4 transition_type 0x3f4-0x3f5 (1)
0x3f0|               01                              |     .          |      [1]: 1 transition_type 0x3f5-0x3f6 (1)
0x3f0|                  02                           |      .         |      [2]: 2 transition_type 0x3f6-0x3f7 (1)
0x3f0|                     01                        |       .        |      [3]: 1 transition_type 0x3f7-0x3f8 (1)
0x3f0|                        02                     |        .       |      [4]: 2 transition_type 0x3f8-0x3f9 (1)
0x3f0|                           01                  |         .      |      [5]: 1 transition_type 0x3f9-0x3fa (1)
0x3f0|                              02               |          .     |      [6]: 2 transition_type 0x3fa-0x3fb (1)
0x3f0|                                 01            |           .    |      [7]: 1 transition_type 0x3fb-0x3fc (1)
0x3f0|                                    02         |            .   |      [8]: 2 transition_type 0x3fc-0x3fd (1)
0x3f0|                                       01      |             .  |      [9]: 1 transition_type 0x3fd-0x3fe (1)
0x3f0|                                          02   |              . |      [10]: 2 transition_type 0x3fe-0x3ff (1)
0x3f0|                                             01|               .|      [11]: 1 transition_type 0x3ff-0x400 (1)
0x400|02                                             |.               |      [12]: 2 transition_type 0x400-0x401 (1)
0x400|   01                                          | .              |      [13]: 1 transition_type 0x401-0x402 (1)
0x400|      02                                       |  .             |      [14]: 2 transition_type 0x402-0x403 (1)
0x400|         01                                    |   .            |      [15]: 1 transition_type 0x403-0x404 (1)
0x400|            02                                 |    .           |      [16]: 2 transition_type 0x404-0x405 (1)
0x400|               01                              |     .          |      [17]: 1 transition_type 0x405-0x406 (1)
0x400|                  02                           |      .         |      [18]: 2 transition_type 0x406-0x407 (1)
0x400|                     01                        |       .        |      [19]: 1 transition_type 0x407-0x408 (1)
0x400|                        02                     |        .       |      [20]: 2 transition_type 0x408-0x409 (1)
0x400|                           01                  |         .      |      [21]: 1 transition_type 0x409-0x40a (1)
0x400|                              02               |          .     |      [22]: 2 transition_type 0x40a-0x40b (1)
0x400|                                 01            |           .    |      [23]: 1 transition_type 0x40b-0x40c (1)
0x400|                                    02         |            .   |      [24]: 2 transition_type 0x40c-0x40d (1)
0x400|                                       01      |             .  |      [25]: 1 transition_type 0x40d-0x40e (1)
0x400|                                          02   |              . |      [26]: 2 transition_type 0x40e-0x40f (1)
0x400|                                             01|               .|      [27]: 1 transition_type 0x40f-0x410 (1)
0x410|02                                             |.               |      [28]: 2 transition_type 0x410-0x411 (1)
0x410|   01                                          | .              |      [29]: 1 transition_type 0x411-0x412 (1)
0x410|      02                                       |  .             |      [30]: 2 transition_type 0x412-0x413 (1)
0x410|         01                                    |   .            |      [31]: 1 transition_type 0x413-0x414 (1)
0x410|            02                                 |    .           |      [32]: 2 transition_type 0x414-0x415 (1)
0x410|               01                              |     .          |      [33]: 1 transition_type 0x415-0x416 (1)
0x410|                  02                           |      .         |      [34]: 2 transition_type 0x416-0x417 (1)
0x410|                     01                        |       .        |      [35]: 1 transition_type 0x417-0x418 (1)
0x410|                        02                     |        .       |      [36]: 2 transition_type 0x418-0x419 (1)
0x410|                           01                  |         .      |      [37]: 1 transition_type 0x419-0x41a (1)
0x410|                              02               |          .     |      [38]: 2 transition_type 0x41a-0x41b (1)
0x410|                                 01            |           .    |      [39]: 1 transition_type 0x41b-0x41c (1)
0x410|                                    02         |            .   |      [40]: 2 transition_type 0x41c-0x41d (1)
0x410|                                       01      |             .  |      [41]: 1 transition_type 0x41d-0x41e (1)
0x410|                                          02   |              . |      [42]: 2 transition_type 0x41e-0x41f (1)
0x410|                                             01|               .|      [43]: 1 transition_type 0x41f-0x420 (1)
0x420|02                                             |.               |      [44]: 2 transition_type 0x420-0x421 (1)
0x420|   01                                          | .              |      [45]: 1 transition_type 0x421-0x422 (1)
0x420|      02                                       |  .             |      [46]: 2 transition_type 0x422-0x423 (1)
0x420|         01                                    |   .            |      [47]: 1 transition_type 0x423-0x424 (1)
0x420|            02                                 |    .           |      [48]: 2 transition_type 0x424-0x425 (1)
0x420|               01                              |     .          |      [49]: 1 transition_type 0x425-0x426 (1)
0x420|                  03                           |      .         |      [50]: 3 transition_type 0x426-0x427 (1)
0x420|                     01                        |       .        |      [51]: 1 transition_type 0x427-0x428 (1)
0x420|                        03                     |        .       |      [52]: 3 transition_type 0x428-0x429 (1)
0x420|                           01                  |         .      |      [53]: 1 transition_type 0x429-0x42a (1)
0x420|                              03               |          .     |      [54]: 3 transition_type 0x42a-0x42b (1)
0x420|                                 01            |           .    |      [55]: 1 transition_type 0x42b-0x42c (1)
0x420|                                    03         |            .   |      [56]: 3 transition_type 0x42c-0x42d (1)
0x420|                                       01      |             .  |      [57]: 1 transition_type 0x42d-0x42e (1)
0x420|                                          03   |              . |      [58]: 3 transition_type 0x42e-0x42f (1)
0x420|                                             01|               .|      [59]: 1 transition_type 0x42f-0x430 (1)
0x430|02                                             |.               |      [60]: 2 transition_type 0x430-0x431 (1)
0x430|   01                                          | .              |      [61]: 1 transition_type 0x431-0x432 (1)
0x430|      02                                       |  .             |      [62]: 2 transition_type 0x432-0x433 (1)
0x430|         01                                    |   .            |      [63]: 1 transition_type 0x433-0x434 (1)
0x430|            03                                 |    .           |      [64]: 3 transition_type 0x434-0x435 (1)
0x430|               01                              |     .          |      [65]: 1 transition_type 0x435-0x436 (1)
0x430|                  02                           |      .         |      [66]: 2 transition_type 0x436-0x437 (1)
0x430|                     01                        |       .        |      [67]: 1 transition_type 0x437-0x438 (1)
0x430|                        02                     |        .       |      [68]: 2 transition_type 0x438-0x439 (1)
0x430|                           01                  |         .      |      [69]: 1 transition_type 0x439-0x43a (1)
0x430|                              02               |          .     |      [70]: 2 transition_type 0x43a-0x43b (1)
0x430|                                 01            |           .    |      [71]: 1 transition_type 0x43b-0x43c (1)
0x430|                                    02         |            .   |      [72]: 2 transition_type 0x43c-0x43d (1)
0x430|                                       01      |             .  |      [73]: 1 transition_type 0x43d-0x43e (1)
0x430|                                          02   |              . |      [74]: 2 transition_type 0x43e-0x43f (1)
0x430|                                             01|               .|      [75]: 1 transition_type 0x43f-0x440 (1)
0x440|02                                             |.               |      [76]: 2 transition_type 0x440-0x441 (1)
0x440|   01                                          | .              |      [77]: 1 transition_type 0x441-0x442 (1)
0x440|      02                                       |  .             |      [78]: 2 transition_type 0x442-0x443 (1)
0x440|         01                                    |   .            |      [79]: 1 transition_type 0x443-0x444 (1)
0x440|            02                                 |    .           |      [80]: 2 transition_type 0x444-0x445 (1)
0x440|               01                              |     .          |      [81]: 1 transition_type 0x445-0x446 (1)
0x440|                  02                           |      .         |      [82]: 2 transition_type 0x446-0x447 (1)
0x440|                     01                        |       .        |      [83]: 1 transition_type 0x447-0x448 (1)
0x440|                        02                     |        .       |      [84]: 2 transition_type 0x448-0x449 (1)
0x440|                           01                  |         .      |      [85]: 1 transition_type 0x449-0x44a (1)
0x440|                              02               |          .     |      [86]: 2 transition_type 0x44a-0x44b (1)
0x440|                                 01            |           .    |      [87]: 1 transition_type 0x44b-0x44c (1)
0x440|                                    02         |            .   |      [88]: 2 transition_type 0x44c-0x44d (1)
0x440|                                       01      |             .  |      [89]: 1 transition_type 0x44d-0x44e (1)
0x440|                                          02   |              . |      [90]: 2 transition_type 0x44e-0x44f (1)
0x440|                                             01|               .|      [91]: 1 transition_type 0x44f-0x450 (1)
0x450|02                                             |.               |      [92]: 2 transition_type 0x450-0x451 (1)
0x450|   01                                          | .              |      [93]: 1 transition_type 0x451-0x452 (1)
0x450|      02                                       |  .             |      [94]: 2 transition_type 0x452-0x453 (1)
0x450|         01                                    |   .            |      [95]: 1 transition_type 0x453-0x454 (1)
0x450|            02                                 |    .           |      [96]: 2 transition_type 0x454-0x455 (1)
0x450|               01                              |     .          |      [97]: 1 transition_type 0x455-0x456 (1)
0x450|                  02                           |      .         |      [98]: 2 transition_type 0x456-0x457 (1)
0x450|                     01                        |       .        |      [99]: 1 transition_type 0x457-0x458 (1)
0x450|                        02                     |        .       |      [100]: 2 transition_type 0x458-0x459 (1)
0x450|                           01                  |         .      |      [101]: 1 transition_type 0x459-0x45a (1)
0x450|                              02               |          .     |      [102]: 2 transition_type 0x45a-0x45b (1)
0x450|                                 01            |           .    |      [103]: 1 transition_type 0x45b-0x45c (1)
0x450|                                    02         |            .   |      [104]: 2 transition_type 0x45c-0x45d (1)
0x450|                                       01      |             .  |      [105]: 1 transition_type 0x45d-0x45e (1)
0x450|                                          02   |              . |      [106]: 2 transition_type 0x45e-0x45f (1)
0x450|                                             01|               .|      [107]: 1 transition_type 0x45f-0x460 (1)
0x460|05                                             |.               |      [108]: 5 transition_type 0x460-0x461 (1)
0x460|   07                                          | .              |      [109]: 7 transition_type 0x461-0x462 (1)
0x460|      01                                       |  .             |      [110]: 1 transition_type 0x462-0x463 (1)
0x460|         02                                    |   .            |      [111]: 2 transition_type 0x463-0x464 (1)
0x460|            01                                 |    .           |      [112]: 1 transition_type 0x464-0x465 (1)
0x460|               02                              |     .          |      [113]: 2 transition_type 0x465-0x466 (1)
0x460|                  01                           |      .         |      [114]: 1 transition_type 0x466-0x467 (1)
0x460|                     02                        |       .        |      [115]: 2 transition_type 0x467-0x468 (1)
0x460|                        01                     |        .       |      [116]: 1 transition_type 0x468-0x469 (1)
0x460|                           02                  |         .      |      [117]: 2 transition_type 0x469-0x46a (1)
0x460|                              01               |          .     |      [118]: 1 transition_type 0x46a-0x46b (1)
0x460|                                 02            |           .    |      [119]: 2 transition_type 0x46b-0x46c (1)
0x460|                                    01         |            .   |      [120]: 1 transition_type 0x46c-0x46d (1)
0x460|                                       02      |             .  |      [121]: 2 transition_type 0x46d-0x46e (1)
0x460|                                          01   |              . |      [122]: 1 transition_type 0x46e-0x46f (1)
0x460|                                             02|               .|      [123]: 2 transition_type 0x46f-0x470 (1)
0x470|01                                             |.               |      [124]: 1 transition_type 0x470-0x471 (1)
0x470|   02                                          | .              |      [125]: 2 transition_type 0x471-0x472 (1)
0x470|      01                                       |  .             |      [126]: 1 transition_type 0x472-0x473 (1)
0x470|         02                                    |   .            |      [127]: 2 transition_type 0x473-0x474 (1)
0x470|            06                                 |    .           |      [128]: 6 transition_type 0x474-0x475 (1)
0x470|               07                              |     .          |      [129]: 7 transition_type 0x475-0x476 (1)
0x470|                  06                           |      .         |      [130]: 6 transition_type 0x476-0x477 (1)
0x470|                     07                        |       .        |      [131]: 7 transition_type 0x477-0x478 (1)
0x470|                        06                     |        .       |      [132]: 6 transition_type 0x478-0x479 (1)
0x470|                           07                  |         .      |      [133]: 7 transition_type 0x479-0x47a (1)
0x470|                              06               |          .     |      [134]: 6 transition_type 0x47a-0x47b (1)
0x470|                                 07            |           .    |      [135]: 7 transition_type 0x47b-0x47c (1)
0x470|                                    06         |            .   |      [136]: 6 transition_type 0x47c-0x47d (1)
0x470|                                       07      |             .  |      [137]: 7 transition_type 0x47d-0x47e (1)
0x470|                                          06   |              . |      [138]: 6 transition_type 0x47e-0x47f (1)
0x470|                                             07|               .|      [139]: 7 transition_type 0x47f-0x480 (1)
0x480|06                                             |.               |      [140]: 6 transition_type 0x480-0x481 (1)
0x480|   07                                          | .              |      [141]: 7 transition_type 0x481-0x482 (1)
0x480|      06                                       |  .             |      [142]: 6 transition_type 0x482-0x483 (1)
0x480|         07                                    |   .            |      [143]: 7 transition_type 0x483-0x484 (1)
0x480|            06                                 |    .           |      [144]: 6 transition_type 0x484-0x485 (1)
0x480|               07                              |     .          |      [145]: 7 transition_type 0x485-0x486 (1)
0x480|                  06                           |      .         |      [146]: 6 transition_type 0x486-0x487 (1)
0x480|                     07                        |       .        |      [147]: 7 transition_type 0x487-0x488 (1)
0x480|                        06                     |        .       |      [148]: 6 transition_type 0x488-0x489 (1)
0x480|                           07                  |         .      |      [149]: 7 transition_type 0x489-0x48a (1)
0x480|                              06               |          .     |      [150]: 6 transition_type 0x48a-0x48b (1)
0x480|                                 07            |           .    |      [151]: 7 transition_type 0x48b-0x48c (1)
0x480|                                    06         |            .   |      [152]: 6 transition_type 0x48c-0x48d (1)
0x480|                                       07      |             .  |      [153]: 7 transition_type 0x48d-0x48e (1)
0x480|                                          06   |              . |      [154]: 6 transition_type 0x48e-0x48f (1)
0x480|                                             07|               .|      [155]: 7 transition_type 0x48f-0x490 (1)
0x490|06                                             |.               |      [156]: 6 transition_type 0x490-0x491 (1)
0x490|   07                                          | .              |      [157]: 7 transition_type 0x491-0x492 (1)
0x490|      06                                       |  .             |      [158]: 6 transition_type 0x492-0x493 (1)
0x490|         07                                    |   .            |      [159]: 7 transition_type 0x493-0x494 (1)
0x490|            06                                 |    .           |      [160]: 6 transition_type 0x494-0x495 (1)
0x490|               07                              |     .          |      [161]: 7 transition_type 0x495-0x496 (1)
0x490|                  06                           |      .         |      [162]: 6 transition_type 0x496-0x497 (1)
0x490|                     07                        |       .        |      [163]: 7 transition_type 0x497-0x498 (1)
0x490|                        06                     |        .       |      [164]: 6 transition_type 0x498-0x499 (1)
0x490|                           07                  |         .      |      [165]: 7 transition_type 0x499-0x49a (1)
0x490|                              06               |          .     |      [166]: 6 transition_type 0x49a-0x49b (1)
0x490|                                 07            |           .    |      [167]: 7 transition_type 0x49b-0x49c (1)
0x490|                                    06         |            .   |      [168]: 6 transition_type 0x49c-0x49d (1)
0x490|                                       07      |             .  |      [169]: 7 transition_type 0x49d-0x49e (1)
0x490|                                          06   |              . |      [170]: 6 transition_type 0x49e-0x49f (1)
0x490|                                             07|               .|      [171]: 7 transition_type 0x49f-0x4a0 (1)
0x4a0|06                                             |.               |      [172]: 6 transition_type 0x4a0-0x4a1 (1)
0x4a0|   07                                          | .              |      [173]: 7 transition_type 0x4a1-0x4a2 (1)
0x4a0|      06                                       |  .             |      [174]: 6 transition_type 0x4a2-0x4a3 (1)
0x4a0|         07                                    |   .            |      [175]: 7 transition_type 0x4a3-0x4a4 (1)
0x4a0|            06                                 |    .           |      [176]: 6 transition_type 0x4a4-0x4a5 (1)
0x4a0|               07                              |     .          |      [177]: 7 transition_type 0x4a5-0x4a6 (1)
0x4a0|                  06                           |      .         |      [178]: 6 transition_type 0x4a6-0x4a7 (1)
0x4a0|                     07                        |       .        |      [179]: 7 transition_type 0x4a7-0x4a8 (1)
0x4a0|                        06                     |        .       |      [180]: 6 transition_type 0x4a8-0x4a9 (1)
0x4a0|                           07                  |         .      |      [181]: 7 transition_type 0x4a9-0x4aa (1)
0x4a0|                              06               |          .     |      [182]: 6 transition_type 0x4aa-0x4ab (1)
0x4a0|                                 07            |           .    |      [183]: 7 transition_type 0x4ab-0x4ac (1)
0x4a0|                                    06         |            .   |      [184]: 6 transition_type 0x4ac-0x4ad (1)
0x4a0|                                       07      |             .  |      [185]: 7 transition_type 0x4ad-0x4ae (1)
0x4a0|                                          06   |              . |      [186]: 6 transition_type 0x4ae-0x4af (1)
0x4a0|                                             07|               .|      [187]: 7 transition_type 0x4af-0x4b0 (1)
0x4b0|06                                             |.               |      [188]: 6 transition_type 0x4b0-0x4b1 (1)
0x4b0|   07                                          | .              |      [189]: 7 transition_type 0x4b1-0x4b2 (1)
0x4b0|      06                                       |  .             |      [190]: 6 transition_type 0x4b2-0x4b3 (1)
0x4b0|         07                                    |   .            |      [191]: 7 transition_type 0x4b3-0x4b4 (1)
0x4b0|            06                                 |    .           |      [192]: 6 transition_type 0x4b4-0x4b5 (1)
0x4b0|               07                              |     .          |      [193]: 7 transition_type 0x4b5-0x4b6 (1)
0x4b0|                  06                           |      .         |      [194]: 6 transition_type 0x4b6-0x4b7 (1)
0x4b0|                     07                        |       .        |      [195]: 7 transition_type 0x4b7-0x4b8 (1)
0x4b0|                        06                     |        .       |      [196]: 6 transition_type 0x4b8-0x4b9 (1)
0x4b0|                           07                  |         .      |      [197]: 7 transition_type 0x4b9-0x4ba (1)
0x4b0|                              06               |          .     |      [198]: 6 transition_type 0x4ba-0x4bb (1)
0x4b0|                                 07            |           .    |      [199]: 7 transition_type 0x4bb-0x4bc (1)
0x4b0|                                    06         |            .   |      [200]: 6 transition_type 0x4bc-0x4bd (1)
0x4b0|                                       07      |             .  |      [201]: 7 transition_type 0x4bd-0x4be (1)
0x4b0|                                          06   |              . |      [202]: 6 transition_type 0x4be-0x4bf (1)
0x4b0|                                             07|               .|      [203]: 7 transition_type 0x4bf-0x4c0 (1)
0x4c0|06                                             |.               |      [204]: 6 transition_type 0x4c0-0x4c1 (1)
0x4c0|   07                                          | .              |      [205]: 7 transition_type 0x4c1-0x4c2 (1)
0x4c0|      06                                       |  .             |      [206]: 6 transition_type 0x4c2-0x4c3 (1)
0x4c0|         07                                    |   .            |      [207]: 7 transition_type 0x4c3-0x4c4 (1)
0x4c0|            06                                 |    .           |      [208]: 6 transition_type 0x4c4-0x4c5 (1)
0x4c0|               07                              |     .          |      [209]: 7 transition_type 0x4c5-0x4c6 (1)
0x4c0|                  06                           |      .         |      [210]: 6 transition_type 0x4c6-0x4c7 (1)
0x4c0|                     07                        |       .        |      [211]: 7 transition_type 0x4c7-0x4c8 (1)
0x4c0|                        06                     |        .       |      [212]: 6 transition_type 0x4c8-0x4c9 (1)
0x4c0|                           07                  |         .      |      [213]: 7 transition_type 0x4c9-0x4ca (1)
0x4c0|                              06               |          .     |      [214]: 6 transition_type 0x4ca-0x4cb (1)
0x4c0|                                 07            |           .    |      [215]: 7 transition_type 0x4cb-0x4cc (1)
0x4c0|                                    06         |            .   |      [216]: 6 transition_type 0x4cc-0x4cd (1)
0x4c0|                                       07      |             .  |      [217]: 7 transition_type 0x4cd-0x4ce (1)
0x4c0|                                          06   |              . |      [218]: 6 transition_type 0x4ce-0x4cf (1)
0x4c0|                                             07|               .|      [219]: 7 transition_type 0x4cf-0x4d0 (1)
0x4d0|06                                             |.               |      [220]: 6 transition_type 0x4d0-0x4d1 (1)
0x4d0|   07                                          | .              |      [221]: 7 transition_type 0x4d1-0x4d2 (1)
0x4d0|      06                                       |  .             |      [222]: 6 transition_type 0x4d2-0x4d3 (1)
0x4d0|         07                                    |   .            |      [223]: 7 transition_type 0x4d3-0x4d4 (1)
0x4d0|            06                                 |    .           |      [224]: 6 transition_type 0x4d4-0x4d5 (1)
0x4d0|               07                              |     .          |      [225]: 7 transition_type 0x4d5-0x4d6 (1)
0x4d0|                  06                           |      .         |      [226]: 6 transition_type 0x4d6-0x4d7 (1)
0x4d0|                     07                        |       .        |      [227]: 7 transition_type 0x4d7-0x4d8 (1)
0x4d0|                        06                     |        .       |      [228]: 6 transition_type 0x4d8-0x4d9 (1)
0x4d0|                           07                  |         .      |      [229]: 7 transition_type 0x4d9-0x4da (1)
0x4d0|                              06               |          .     |      [230]: 6 transition_type 0x4da-0x4db (1)
0x4d0|                                 07            |           .    |      [231]: 7 transition_type 0x4db-0x4dc (1)
0x4d0|                                    06         |            .   |      [232]: 6 transition_type 0x4dc-0x4dd (1)
0x4d0|                                       07      |             .  |      [233]: 7 transition_type 0x4dd-0x4de (1)
0x4d0|                                          06   |              . |      [234]: 6 transition_type 0x4de-0x4df (1)
0x4d0|                                             07|               .|      [235]: 7 transition_type 0x4df-0x4e0 (1)
0x4e0|06                                             |.               |      [236]: 6 transition_type 0x4e0-0x4e1 (1)
0x4e0|   07                                          | .              |      [237]: 7 transition_type 0x4e1-0x4e2 (1)
0x4e0|      06                                       |  .             |      [238]: 6 transition_type 0x4e2-0x4e3 (1)
0x4e0|         07                                    |   .            |      [239]: 7 transition_type 0x4e3-0x4e4 (1)
0x4e0|            06                                 |    .           |      [240]: 6 transition_type 0x4e4-0x4e5 (1)
0x4e0|               07                              |     .          |      [241]: 7 transition_type 0x4e5-0x4e6 (1)
     |                                               |                |    local_time_type_records[0:8]: 0x4e6-0x516 (48)
     |                                               |                |      [0]{}: local_time_type 0x4e6-0x4ec (6)
0x4e0|                  ff ff ff b5                  |      ....      |        utoff: -75 (valid) 0x4e6-0x4ea (4)
0x4e0|                              00               |          .     |        dst: 0 (valid) 0x4ea-0x4eb (1)
0x4e0|                                 00            |           .    |        idx: 0 (valid) 0x4eb-0x4ec (1)
     |                                               |                |      [1]{}: local_time_type 0x4ec-0x4f2 (6)
0x4e0|                                    00 00 0e 10|            ....|        utoff: 3600 (valid) 0x4ec-0x4f0 (4)
0x4f0|01                                             |.               |        dst: 1 (valid) 0x4f0-0x4f1 (1)
0x4f0|   04                                          | .              |        idx: 4 (valid) 0x4f1-0x4f2 (1)
     |                                               |                |      [2]{}: local_time_type 0x4f2-0x4f8 (6)
0x4f0|      00 00 00 00                              |  ....          |        utoff: 0 (valid) 0x4f2-0x4f6 (4)
0x4f0|                  00                           |      .         |        dst: 0 (valid) 0x4f6-0x4f7 (1)
0x4f0|                     08                        |       .        |        idx: 8 (valid) 0x4f7-0x4f8 (1)
     |                                               |                |      [3]{}: local_time_type 0x4f8-0x4fe (6)
0x4f0|                        00 00 1c 20            |        ...     |        utoff: 7200 (valid) 0x4f8-0x4fc (4)
0x4f0|                                    01         |            .   |        dst: 1 (valid) 0x4fc-0x4fd (1)
0x4f0|                                       0c      |             .  |        idx: 12 (valid) 0x4fd-0x4fe (1)
     |                                               |                |      [4]{}: local_time_type 0x4fe-0x504 (6)
0x4f0|                                          00 00|              ..|        utoff: 0 (valid) 0x4fe-0x502 (4)
0x500|00 00                                          |..              |
0x500|      00                                       |  .             |        dst: 0 (valid) 0x502-0x503 (1)
0x500|         08                                    |   .            |        idx: 8 (valid) 0x503-0x504 (1)
     |                                               |                |      [5]{}: local_time_type 0x504-0x50a (6)
0x500|            00 00 0e 10                        |    ....        |        utoff: 3600 (valid) 0x504-0x508 (4)
0x500|                        00                     |        .       |        dst: 0 (valid) 0x508-0x509 (1)
0x500|                           04                  |         .      |        idx: 4 (valid) 0x509-0x50a (1)
     |                                               |                |      [6]{}: local_time_type 0x50a-0x510 (6)
0x500|                              00 00 0e 10      |          ....  |        utoff: 3600 (valid) 0x50a-0x50e (4)
0x500|                                          01   |              . |        dst: 1 (valid) 0x50e-0x50f (1)
0x500|                                             04|               .|        idx: 4 (valid) 0x50f-0x510 (1)
     |                                               |                |      [7]{}: local_time_type 0x510-0x516 (6)
0x510|00 00 00 00                                    |....            |        utoff: 0 (valid) 0x510-0x514 (4)
0x510|            00                                 |    .           |        dst: 0 (valid) 0x514-0x515 (1)
0x510|               08                              |     .          |        idx: 8 (valid) 0x515-0x516 (1)
     |                                               |                |    time_zone_designations[0:4]: 0x516-0x527 (17)
0x510|                  4c 4d 54 00                  |      LMT.      |      [0]: "LMT" time_zone_designation 0x516-0x51a (4)
0x510|                              42 53 54 00      |          BST.  |      [1]: "BST" time_zone_designation 0x51a-0x51e (4)
0x510|                                          47 4d|              GM|      [2]: "GMT" time_zone_designation 0x51e-0x522 (4)
0x520|54 00                                          |T.              |
0x520|      42 44 53 54 00                           |  BDST.         |      [3]: "BDST" time_zone_designation 0x522-0x527 (5)
     |                                               |                |    leap_second_records[0:0]: 0x527-0x527 (0)
     |                                               |                |    standard_wall_indicators[0:8]: 0x527-0x52f (8)
0x520|                     00                        |       .        |      [0]: 0 standard_wall_indicator (valid) 0x527-0x528 (1)
0x520|                        01                     |        .       |      [1]: 1 standard_wall_indicator (valid) 0x528-0x529 (1)
0x520|                           01                  |         .      |      [2]: 1 standard_wall_indicator (valid) 0x529-0x52a (1)
0x520|                              01               |          .     |      [3]: 1 standard_wall_indicator (valid) 0x52a-0x52b (1)
0x520|                                 00            |           .    |      [4]: 0 standard_wall_indicator (valid) 0x52b-0x52c (1)
0x520|                                    00         |            .   |      [5]: 0 standard_wall_indicator (valid) 0x52c-0x52d (1)
0x520|                                       01      |             .  |      [6]: 1 standard_wall_indicator (valid) 0x52d-0x52e (1)
0x520|                                          01   |              . |      [7]: 1 standard_wall_indicator (valid) 0x52e-0x52f (1)
     |                                               |                |    ut_local_indicators[0:8]: 0x52f-0x537 (8)
0x520|                                             00|               .|      [0]: 0 ut_local_indicator (valid) 0x52f-0x530 (1)
0x530|00                                             |.               |      [1]: 0 ut_local_indicator (valid) 0x530-0x531 (1)
0x530|   00                                          | .              |      [2]: 0 ut_local_indicator (valid) 0x531-0x532 (1)
0x530|      00                                       |  .             |      [3]: 0 ut_local_indicator (valid) 0x532-0x533 (1)
0x530|         00                                    |   .            |      [4]: 0 ut_local_indicator (valid) 0x533-0x534 (1)
0x530|            00                                 |    .           |      [5]: 0 ut_local_indicator (valid) 0x534-0x535 (1)
0x530|               01                              |     .          |      [6]: 1 ut_local_indicator (valid) 0x535-0x536 (1)
0x530|                  01                           |      .         |      [7]: 1 ut_local_indicator (valid) 0x536-0x537 (1)
     |                                               |                |  v2plusheader{}: 0x537-0x563 (44)
0x530|                     54 5a 69 66               |       TZif     |    magic: 0x545a6966 (valid) 0x537-0x53b (4)
0x530|                                 32            |           2    |    ver: "2" (0x32) (valid) 0x53b-0x53c (1)
0x530|                                    00 00 00 00|            ....|    reserved: raw bits 0x53c-0x54b (15)
0x540|00 00 00 00 00 00 00 00 00 00 00               |...........     |
0x540|                                 00 00 00 08   |           .... |    isutcnt: 8 0x54b-0x54f (4)
0x540|                                             00|               .|    isstdcnt: 8 0x54f-0x553 (4)
0x550|00 00 08                                       |...             |
0x550|         00 00 00 00                           |   ....         |    leapcnt: 0 0x553-0x557 (4)
0x550|                     00 00 00 f2               |       ....     |    timecnt: 242 0x557-0x55b (4)
0x550|                                 00 00 00 08   |           .... |    typecnt: 8 0x55b-0x55f (4)
0x550|                                             00|               .|    charcnt: 17 0x55f-0x563 (4)
0x560|00 00 11                                       |...             |
     |                                               |                |  v2plusdatablock{}: 0x563-0xe36 (2259)
     |                                               |                |    transition_times[0:242]: 0x563-0xcf3 (1936)
0x560|         ff ff ff ff 1a 5d 09 cb               |   .....]..     |      [0]: "1847-12-01T00:01:15Z" (-3852662325) transition_time 0x563-0x56b (8)
0x560|                                 ff ff ff ff 9b|           .....|      [1]: "1916-05-21T02:00:00Z" (-1691964000) transition_time 0x56b-0x573 (8)
0x570|26 ad a0                                       |&..             |
0x570|         ff ff ff ff 9b d6 05 20               |   .......      |      [2]: "1916-10-01T02:00:00Z" (-1680472800) transition_time 0x573-0x57b (8)
0x570|                                 ff ff ff ff 9c|           .....|      [3]: "1917-04-08T02:00:00Z" (-1664143200) transition_time 0x57b-0x583 (8)
0x580|cf 30 a0                                       |.0.             |
0x580|         ff ff ff ff 9d a4 c3 a0               |   ........     |      [4]: "1917-09-17T02:00:00Z" (-1650146400) transition_time 0x583-0x58b (8)
0x580|                                 ff ff ff ff 9e|           .....|      [5]: "1918-03-24T02:00:00Z" (-1633903200) transition_time 0x58b-0x593 (8)
0x590|9c 9d a0                                       |...             |
0x590|         ff ff ff ff 9f 97 1a a0               |   ........     |      [6]: "1918-09-30T02:00:00Z" (-1617487200) transition_time 0x593-0x59b (8)
0x590|                                 ff ff ff ff a0|           .....|      [7]: "1919-03-30T02:00:00Z" (-1601848800) transition_time 0x59b-0x5a3 (8)
0x5a0|85 ba 20                                       |..              |
0x5a0|         ff ff ff ff a1 76 fc a0               |   .....v..     |      [8]: "1919-09-29T02:00:00Z" (-1586037600) transition_time 0x5a3-0x5ab (8)
0x5a0|                                 ff ff ff ff a2|           .....|      [9]: "1920-03-28T02:00:00Z" (-1570399200) transition_time 0x5ab-0x5b3 (8)
0x5b0|65 9c 20                                       |e.              |
0x5b0|         ff ff ff ff a3 7b c8 a0               |   .....{..     |      [10]: "1920-10-25T02:00:00Z" (-1552168800) transition_time 0x5b3-0x5bb (8)
0x5b0|                                 ff ff ff ff a4|           .....|      [11]: "1921-04-03T02:00:00Z" (-1538344800) transition_time 0x5bb-0x5c3 (8)
0x5c0|4e b8 a0                                       |N..             |
0x5c0|         ff ff ff ff a5 3f fb 20               |   .....?.      |      [12]: "1921-10-03T02:00:00Z" (-1522533600) transition_time 0x5c3-0x5cb (8)
0x5c0|                                 ff ff ff ff a6|           .....|      [13]: "1922-03-26T02:00:00Z" (-1507500000) transition_time 0x5cb-0x5d3 (8)
0x5d0|25 60 20                                       |%`              |
0x5d0|         ff ff ff ff a7 27 c6 20               |   .....'.      |      [14]: "1922-10-08T02:00:00Z" (-1490565600) transition_time 0x5d3-0x5db (8)
0x5d0|                                 ff ff ff ff a8|           .....|      [15]: "1923-04-22T02:00:00Z" (-1473631200) transition_time 0x5db-0x5e3 (8)
0x5e0|2a 2c 20                                       |*,              |
0x5e0|         ff ff ff ff a8 eb f8 a0               |   ........     |      [16]: "1923-09-16T02:00:00Z" (-1460930400) transition_time 0x5e3-0x5eb (8)
0x5e0|                                 ff ff ff ff aa|           .....|      [17]: "1924-04-13T02:00:00Z" (-1442786400) transition_time 0x5eb-0x5f3 (8)
0x5f0|00 d3 a0                                       |...             |
0x5f0|         ff ff ff ff aa d5 15 20               |   .......      |      [18]: "1924-09-21T02:00:00Z" (-1428876000) transition_time 0x5f3-0x5fb (8)
0x5f0|                                 ff ff ff ff ab|           .....|      [19]: "1925-04-19T02:00:00Z" (-1410732000) transition_time 0x5fb-0x603 (8)
0x600|e9 f0 20                                       |..              |
0x600|         ff ff ff ff ac c7 6c 20               |   ......l      |      [20]: "1925-10-04T02:00:00Z" (-1396216800) transition_time 0x603-0x60b (8)
0x600|                                 ff ff ff ff ad|           .....|      [21]: "1926-04-18T02:00:00Z" (-1379282400) transition_time 0x60b-0x613 (8)
0x610|c9 d2 20                                       |..              |
0x610|         ff ff ff ff ae a7 4e 20               |   ......N      |      [22]: "1926-10-03T02:00:00Z" (-1364767200) transition_time 0x613-0x61b (8)
0x610|                                 ff ff ff ff af|           .....|      [23]: "1927-04-10T02:00:00Z" (-1348437600) transition_time 0x61b-0x623 (8)
0x620|a0 79 a0                                       |.y.             |
0x620|         ff ff ff ff b0 87 30 20               |   ......0      |      [24]: "1927-10-02T02:00:00Z" (-1333317600) transition_time 0x623-0x62b (8)
0x620|                                 ff ff ff ff b1|           .....|      [25]: "1928-04-22T02:00:00Z" (-1315778400) transition_time 0x62b-0x633 (8)
0x630|92 d0 a0                                       |...             |
0x630|         ff ff ff ff b2 70 4c a0               |   .....pL.     |      [26]: "1928-10-07T02:00:00Z" (-1301263200) transition_time 0x633-0x63b (8)
0x630|                                 ff ff ff ff b3|           .....|      [27]: "1929-04-21T02:00:00Z" (-1284328800) transition_time 0x63b-0x643 (8)
0x640|72 b2 a0                                       |r..             |
0x640|         ff ff ff ff b4 50 2e a0               |   .....P..     |      [28]: "1929-10-06T02:00:00Z" (-1269813600) transition_time 0x643-0x64b (8)
0x640|                                 ff ff ff ff b5|           .....|      [29]: "1930-04-13T02:00:00Z" (-1253484000) transition_time 0x64b-0x653 (8)
0x650|49 5a 20                                       |IZ              |
0x650|         ff ff ff ff b6 30 10 a0               |   .....0..     |      [30]: "1930-10-05T02:00:00Z" (-1238364000) transition_time 0x653-0x65b (8)
0x650|                                 ff ff ff ff b7|           .....|      [31]: "1931-04-19T02:00:00Z" (-1221429600) transition_time 0x65b-0x663 (8)
0x660|32 76 a0                                       |2v.             |
0x660|         ff ff ff ff b8 0f f2 a0               |   ........     |      [32]: "1931-10-04T02:00:00Z" (-1206914400) transition_time 0x663-0x66b (8)
0x660|                                 ff ff ff ff b9|           .....|      [33]: "1932-04-17T02:00:00Z" (-1189980000) transition_time 0x66b-0x673 (8)
0x670|12 58 a0                                       |.X.             |
0x670|         ff ff ff ff b9 ef d4 a0               |   ........     |      [34]: "1932-10-02T02:00:00Z" (-1175464800) transition_time 0x673-0x67b (8)
0x670|                                 ff ff ff ff ba|           .....|      [35]: "1933-04-09T02:00:00Z" (-1159135200) transition_time 0x67b-0x683 (8)
0x680|e9 00 20                                       |..              |
0x680|         ff ff ff ff bb d8 f1 20               |   .......      |      [36]: "1933-10-08T02:00:00Z" (-1143410400) transition_time 0x683-0x68b (8)
0x680|                                 ff ff ff ff bc|           .....|      [37]: "1934-04-22T02:00:00Z" (-1126476000) transition_time 0x68b-0x693 (8)
0x690|db 57 20                                       |.W              |
0x690|         ff ff ff ff bd b8 d3 20               |   .......      |      [38]: "1934-10-07T02:00:00Z" (-1111960800) transition_time 0x693-0x69b (8)
0x690|                                 ff ff ff ff be|           .....|      [39]: "1935-04-14T02:00:00Z" (-1095631200) transition_time 0x69b-0x6a3 (8)
0x6a0|b1 fe a0                                       |...             |
0x6a0|         ff ff ff ff bf 98 b5 20               |   .......      |      [40]: "1935-10-06T02:00:00Z" (-1080511200) transition_time 0x6a3-0x6ab (8)
0x6a0|                                 ff ff ff ff c0|           .....|      [41]: "1936-04-19T02:00:00Z" (-1063576800) transition_time 0x6ab-0x6b3 (8)
0x6b0|9b 1b 20                                       |..              |
0x6b0|         ff ff ff ff c1 78 97 20               |   .....x.      |      [42]: "1936-10-04T02:00:00Z" (-1049061600) transition_time 0x6b3-0x6bb (8)
0x6b0|                                 ff ff ff ff c2|           .....|      [43]: "1937-04-18T02:00:00Z" (-1032127200) transition_time 0x6bb-0x6c3 (8)
0x6c0|7a fd 20                                       |z.              |
0x6c0|         ff ff ff ff c3 58 79 20               |   .....Xy      |      [44]: "1937-10-03T02:00:00Z" (-1017612000) transition_time 0x6c3-0x6cb (8)
0x6c0|                                 ff ff ff ff c4|           .....|      [45]: "1938-04-10T02:00:00Z" (-1001282400) transition_time 0x6cb-0x6d3 (8)
0x6d0|51 a4 a0                                       |Q..             |
0x6d0|         ff ff ff ff c5 38 5b 20               |   .....8[      |      [46]: "1938-10-02T02:00:00Z" (-986162400) transition_time 0x6d3-0x6db (8)
0x6d0|                                 ff ff ff ff c6|           .....|      [47]: "1939-04-16T02:00:00Z" (-969228000) transition_time 0x6db-0x6e3 (8)
0x6e0|3a c1 20                                       |:.              |
0x6e0|         ff ff ff ff c7 58 d6 a0               |   .....X..     |      [48]: "1939-11-19T02:00:00Z" (-950479200) transition_time 0x6e3-0x6eb (8)
0x6e0|                                 ff ff ff ff c7|           .....|      [49]: "1940-02-25T02:00:00Z" (-942012000) transition_time 0x6eb-0x6f3 (8)
0x6f0|da 09 a0                                       |...             |
0x6f0|         ff ff ff ff ca 16 26 90               |   ......&.     |      [50]: "1941-05-04T01:00:00Z" (-904518000) transition_time 0x6f3-0x6fb (8)
0x6f0|                                 ff ff ff ff ca|           .....|      [51]: "1941-08-10T01:00:00Z" (-896050800) transition_time 0x6fb-0x703 (8)
0x700|97 59 90                                       |.Y.             |
0x700|         ff ff ff ff cb d1 1e 90               |   ........     |      [52]: "1942-04-05T01:00:00Z" (-875487600) transition_time 0x703-0x70b (8)
0x700|                                 ff ff ff ff cc|           .....|      [53]: "1942-08-09T01:00:00Z" (-864601200) transition_time 0x70b-0x713 (8)
0x710|77 3b 90                                       |w;.             |
0x710|         ff ff ff ff cd b1 00 90               |   ........     |      [54]: "1943-04-04T01:00:00Z" (-844038000) transition_time 0x713-0x71b (8)
0x710|                                 ff ff ff ff ce|           .....|      [55]: "1943-08-15T01:00:00Z" (-832546800) transition_time 0x71b-0x723 (8)
0x720|60 58 10                                       |`X.             |
0x720|         ff ff ff ff cf 90 e2 90               |   ........     |      [56]: "1944-04-02T01:00:00Z" (-812588400) transition_time 0x723-0x72b (8)
0x720|                                 ff ff ff ff d0|           .....|      [57]: "1944-09-17T01:00:00Z" (-798073200) transition_time 0x72b-0x733 (8)
0x730|6e 5e 90                                       |n^.             |
0x730|         ff ff ff ff d1 72 16 10               |   .....r..     |      [58]: "1945-04-02T01:00:00Z" (-781052400) transition_time 0x733-0x73b (8)
0x730|                                 ff ff ff ff d1|           .....|      [59]: "1945-07-15T01:00:00Z" (-772066800) transition_time 0x73b-0x743 (8)
0x740|fb 32 10                                       |.2.             |
0x740|         ff ff ff ff d2 69 fe 20               |   .....i.      |      [60]: "1945-10-07T02:00:00Z" (-764805600) transition_time 0x743-0x74b (8)
0x740|                                 ff ff ff ff d3|           .....|      [61]: "1946-04-14T02:00:00Z" (-748476000) transition_time 0x74b-0x753 (8)
0x750|63 29 a0                                       |c).             |
0x750|         ff ff ff ff d4 49 e0 20               |   .....I.      |      [62]: "1946-10-06T02:00:00Z" (-733356000) transition_time 0x753-0x75b (8)
0x750|                                 ff ff ff ff d5|           .....|      [63]: "1947-03-16T02:00:00Z" (-719445600) transition_time 0x75b-0x763 (8)
0x760|1e 21 a0                                       |.!.             |
0x760|         ff ff ff ff d5 42 fd 90               |   .....B..     |      [64]: "1947-04-13T01:00:00Z" (-717030000) transition_time 0x763-0x76b (8)
0x760|                                 ff ff ff ff d5|           .....|      [65]: "1947-08-10T01:00:00Z" (-706748400) transition_time 0x76b-0x773 (8)
0x770|df e0 10                                       |...             |
0x770|         ff ff ff ff d6 4e ac 20               |   .....N.      |      [66]: "1947-11-02T02:00:00Z" (-699487200) transition_time 0x773-0x77b (8)
0x770|                                 ff ff ff ff d6|           .....|      [67]: "1948-03-14T02:00:00Z" (-687996000) transition_time 0x77b-0x783 (8)
0x780|fe 03 a0                                       |...             |
0x780|         ff ff ff ff d8 2e 8e 20               |   .......      |      [68]: "1948-10-31T02:00:00Z" (-668037600) transition_time 0x783-0x78b (8)
0x780|                                 ff ff ff ff d8|           .....|      [69]: "1949-04-03T02:00:00Z" (-654732000) transition_time 0x78b-0x793 (8)
0x790|f9 95 20                                       |..              |
0x790|         ff ff ff ff da 0e 70 20               |   ......p      |      [70]: "1949-10-30T02:00:00Z" (-636588000) transition_time 0x793-0x79b (8)
0x790|                                 ff ff ff ff da|           .....|      [71]: "1950-04-16T02:00:00Z" (-622072800) transition_time 0x79b-0x7a3 (8)
0x7a0|eb ec 20                                       |..              |
0x7a0|         ff ff ff ff db e5 17 a0               |   ........     |      [72]: "1950-10-22T02:00:00Z" (-605743200) transition_time 0x7a3-0x7ab (8)
0x7a0|                                 ff ff ff ff dc|           .....|      [73]: "1951-04-15T02:00:00Z" (-590623200) transition_time 0x7ab-0x7b3 (8)
0x7b0|cb ce 20                                       |..              |
0x7b0|         ff ff ff ff dd c4 f9 a0               |   ........     |      [74]: "1951-10-21T02:00:00Z" (-574293600) transition_time 0x7b3-0x7bb (8)
0x7b0|                                 ff ff ff ff de|           .....|      [75]: "1952-04-20T02:00:00Z" (-558568800) transition_time 0x7bb-0x7c3 (8)
0x7c0|b4 ea a0                                       |...             |
0x7c0|         ff ff ff ff df ae 16 20               |   .......      |      [76]: "1952-10-26T02:00:00Z" (-542239200) transition_time 0x7c3-0x7cb (8)
0x7c0|                                 ff ff ff ff e0|           .....|      [77]: "1953-04-19T02:00:00Z" (-527119200) transition_time 0x7cb-0x7d3 (8)
0x7d0|94 cc a0                                       |...             |
0x7d0|         ff ff ff ff e1 72 48 a0               |   .....rH.     |      [78]: "1953-10-04T02:00:00Z" (-512604000) transition_time 0x7d3-0x7db (8)
0x7d0|                                 ff ff ff ff e2|           .....|      [79]: "1954-04-11T02:00:00Z" (-496274400) transition_time 0x7db-0x7e3 (8)
0x7e0|6b 74 20                                       |kt              |
0x7e0|         ff ff ff ff e3 52 2a a0               |   .....R*.     |      [80]: "1954-10-03T02:00:00Z" (-481154400) transition_time 0x7e3-0x7eb (8)
0x7e0|                                 ff ff ff ff e4|           .....|      [81]: "1955-04-17T02:00:00Z" (-464220000) transition_time 0x7eb-0x7f3 (8)
0x7f0|54 90 a0                                       |T..             |
0x7f0|         ff ff ff ff e5 32 0c a0               |   .....2..     |      [82]: "1955-10-02T02:00:00Z" (-449704800) transition_time 0x7f3-0x7fb (8)
0x7f0|                                 ff ff ff ff e6|           .....|      [83]: "1956-04-22T02:00:00Z" (-432165600) transition_time 0x7fb-0x803 (8)
0x800|3d ad 20                                       |=.              |
0x800|         ff ff ff ff e7 1b 29 20               |   ......)      |      [84]: "1956-10-07T02:00:00Z" (-417650400) transition_time 0x803-0x80b (8)
0x800|                                 ff ff ff ff e8|           .....|      [85]: "1957-04-14T02:00:00Z" (-401320800) transition_time 0x80b-0x813 (8)
0x810|14 54 a0                                       |.T.             |
0x810|         ff ff ff ff e8 fb 0b 20               |   .......      |      [86]: "1957-10-06T02:00:00Z" (-386200800) transition_time 0x813-0x81b (8)
0x810|                                 ff ff ff ff e9|           .....|      [87]: "1958-04-20T02:00:00Z" (-369266400) transition_time 0x81b-0x823 (8)
0x820|fd 71 20                                       |.q              |
0x820|         ff ff ff ff ea da ed 20               |   .......      |      [88]: "1958-10-05T02:00:00Z" (-354751200) transition_time 0x823-0x82b (8)
0x820|                                 ff ff ff ff eb|           .....|      [89]: "1959-04-19T02:00:00Z" (-337816800) transition_time 0x82b-0x833 (8)
0x830|dd 53 20                                       |.S              |
0x830|         ff ff ff ff ec ba cf 20               |   .......      |      [90]: "1959-10-04T02:00:00Z" (-323301600) transition_time 0x833-0x83b (8)
0x830|                                 ff ff ff ff ed|           .....|      [91]: "1960-04-10T02:00:00Z" (-306972000) transition_time 0x83b-0x843 (8)
0x840|b3 fa a0                                       |...             |
0x840|         ff ff ff ff ee 9a b1 20               |   .......      |      [92]: "1960-10-02T02:00:00Z" (-291852000) transition_time 0x843-0x84b (8)
0x840|                                 ff ff ff ff ef|           .....|      [93]: "1961-03-26T02:00:00Z" (-276732000) transition_time 0x84b-0x853 (8)
0x850|81 67 a0                                       |.g.             |
0x850|         ff ff ff ff f0 9f 7d 20               |   ......}      |      [94]: "1961-10-29T02:00:00Z" (-257983200) transition_time 0x853-0x85b (8)
0x850|                                 ff ff ff ff f1|           .....|      [95]: "1962-03-25T02:00:00Z" (-245282400) transition_time 0x85b-0x863 (8)
0x860|61 49 a0                                       |aI.             |
0x860|         ff ff ff ff f2 7f 5f 20               |   ......_      |      [96]: "1962-10-28T02:00:00Z" (-226533600) transition_time 0x863-0x86b (8)
0x860|                                 ff ff ff ff f3|           .....|      [97]: "1963-03-31T02:00:00Z" (-213228000) transition_time 0x86b-0x873 (8)
0x870|4a 66 20                                       |Jf              |
0x870|         ff ff ff ff f4 5f 41 20               |   ....._A      |      [98]: "1963-10-27T02:00:00Z" (-195084000) transition_time 0x873-0x87b (8)
0x870|                                 ff ff ff ff f5|           .....|      [99]: "1964-03-22T02:00:00Z" (-182383200) transition_time 0x87b-0x883 (8)
0x880|21 0d a0                                       |!..             |
0x880|         ff ff ff ff f6 3f 23 20               |   .....?#      |      [100]: "1964-10-25T02:00:00Z" (-163634400) transition_time 0x883-0x88b (8)
0x880|                                 ff ff ff ff f7|           .....|      [101]: "1965-03-21T02:00:00Z" (-150933600) transition_time 0x88b-0x893 (8)
0x890|00 ef a0                                       |...             |
0x890|         ff ff ff ff f8 1f 05 20               |   .......      |      [102]: "1965-10-24T02:00:00Z" (-132184800) transition_time 0x893-0x89b (8)
0x890|                                 ff ff ff ff f8|           .....|      [103]: "1966-03-20T02:00:00Z" (-119484000) transition_time 0x89b-0x8a3 (8)
0x8a0|e0 d1 a0                                       |...             |
0x8a0|         ff ff ff ff f9 fe e7 20               |   .......      |      [104]: "1966-10-23T02:00:00Z" (-100735200) transition_time 0x8a3-0x8ab (8)
0x8a0|                                 ff ff ff ff fa|           .....|      [105]: "1967-03-19T02:00:00Z" (-88034400) transition_time 0x8ab-0x8b3 (8)
0x8b0|c0 b3 a0                                       |...             |
0x8b0|         ff ff ff ff fb e8 03 a0               |   ........     |      [106]: "1967-10-29T02:00:00Z" (-68680800) transition_time 0x8b3-0x8bb (8)
0x8b0|                                 ff ff ff ff fc|           .....|      [107]: "1968-02-18T02:00:00Z" (-59004000) transition_time 0x8bb-0x8c3 (8)
0x8c0|7b ab a0                                       |{..             |
0x8c0|         ff ff ff ff fd c7 bb 70               |   .......p     |      [108]: "1968-10-26T23:00:00Z" (-37242000) transition_time 0x8c3-0x8cb (8)
0x8c0|                                 00 00 00 00 03|           .....|      [109]: "1971-10-31T02:00:00Z" (57722400) transition_time 0x8cb-0x8d3 (8)
0x8d0|70 c6 20                                       |p.              |
0x8d0|         00 00 00 00 04 29 58 20               |   .....)X      |      [110]: "1972-03-19T02:00:00Z" (69818400) transition_time 0x8d3-0x8db (8)
0x8d0|                                 00 00 00 00 05|           .....|      [111]: "1972-10-29T02:00:00Z" (89172000) transition_time 0x8db-0x8e3 (8)
0x8e0|50 a8 20                                       |P.              |
0x8e0|         00 00 00 00 06 09 3a 20               |   ......:      |      [112]: "1973-03-18T02:00:00Z" (101268000) transition_time 0x8e3-0x8eb (8)
0x8e0|                                 00 00 00 00 07|           .....|      [113]: "1973-10-28T02:00:00Z" (120621600) transition_time 0x8eb-0x8f3 (8)
0x8f0|30 8a 20                                       |0.              |
0x8f0|         00 00 00 00 07 e9 1c 20               |   .......      |      [114]: "1974-03-17T02:00:00Z" (132717600) transition_time 0x8f3-0x8fb (8)
0x8f0|                                 00 00 00 00 09|           .....|      [115]: "1974-10-27T02:00:00Z" (152071200) transition_time 0x8fb-0x903 (8)
0x900|10 6c 20                                       |.l              |
0x900|         00 00 00 00 09 c8 fe 20               |   .......      |      [116]: "1975-03-16T02:00:00Z" (164167200) transition_time 0x903-0x90b (8)
0x900|                                 00 00 00 00 0a|           .....|      [117]: "1975-10-26T02:00:00Z" (183520800) transition_time 0x90b-0x913 (8)
0x910|f0 4e 20                                       |.N              |
0x910|         00 00 00 00 0b b2 1a a0               |   ........     |      [118]: "1976-03-21T02:00:00Z" (196221600) transition_time 0x913-0x91b (8)
0x910|                                 00 00 00 00 0c|           .....|      [119]: "1976-10-24T02:00:00Z" (214970400) transition_time 0x91b-0x923 (8)
0x920|d0 30 20                                       |.0              |
0x920|         00 00 00 00 0d 91 fc a0               |   ........     |      [120]: "1977-03-20T02:00:00Z" (227671200) transition_time 0x923-0x92b (8)
0x920|                                 00 00 00 00 0e|           .....|      [121]: "1977-10-23T02:00:00Z" (246420000) transition_time 0x92b-0x933 (8)
0x930|b0 12 20                                       |..              |
0x930|         00 00 00 00 0f 71 de a0               |   .....q..     |      [122]: "1978-03-19T02:00:00Z" (259120800) transition_time 0x933-0x93b (8)
0x930|                                 00 00 00 00 10|           .....|      [123]: "1978-10-29T02:00:00Z" (278474400) transition_time 0x93b-0x943 (8)
0x940|99 2e a0                                       |...             |
0x940|         00 00 00 00 11 51 c0 a0               |   .....Q..     |      [124]: "1979-03-18T02:00:00Z" (290570400) transition_time 0x943-0x94b (8)
0x940|                                 00 00 00 00 12|           .....|      [125]: "1979-10-28T02:00:00Z" (309924000) transition_time 0x94b-0x953 (8)
0x950|79 10 a0                                       |y..             |
0x950|         00 00 00 00 13 31 a2 a0               |   .....1..     |      [126]: "1980-03-16T02:00:00Z" (322020000) transition_time 0x953-0x95b (8)
0x950|                                 00 00 00 00 14|           .....|      [127]: "1980-10-26T02:00:00Z" (341373600) transition_time 0x95b-0x963 (8)
0x960|58 f2 a0                                       |X..             |
0x960|         00 00 00 00 15 23 eb 90               |   .....#..     |      [128]: "1981-03-29T01:00:00Z" (354675600) transition_time 0x963-0x96b (8)
0x960|                                 00 00 00 00 16|           .....|      [129]: "1981-10-25T01:00:00Z" (372819600) transition_time 0x96b-0x973 (8)
0x970|38 c6 90                                       |8..             |
0x970|         00 00 00 00 17 03 cd 90               |   ........     |      [130]: "1982-03-28T01:00:00Z" (386125200) transition_time 0x973-0x97b (8)
0x970|                                 00 00 00 00 18|           .....|      [131]: "1982-10-24T01:00:00Z" (404269200) transition_time 0x97b-0x983 (8)
0x980|18 a8 90                                       |...             |
0x980|         00 00 00 00 18 e3 af 90               |   ........     |      [132]: "1983-03-27T01:00:00Z" (417574800) transition_time 0x983-0x98b (8)
0x980|                                 00 00 00 00 19|           .....|      [133]: "1983-10-23T01:00:00Z" (435718800) transition_time 0x98b-0x993 (8)
0x990|f8 8a 90                                       |...             |
0x990|         00 00 00 00 1a c3 91 90               |   ........     |      [134]: "1984-03-25T01:00:00Z" (449024400) transition_time 0x993-0x99b (8)
0x990|                                 00 00 00 00 1b|           .....|      [135]: "1984-10-28T01:00:00Z" (467773200) transition_time 0x99b-0x9a3 (8)
0x9a0|e1 a7 10                                       |...             |
0x9a0|         00 00 00 00 1c ac ae 10               |   ........     |      [136]: "1985-03-31T01:00:00Z" (481078800) transition_time 0x9a3-0x9ab (8)
0x9a0|                                 00 00 00 00 1d|           .....|      [137]: "1985-10-27T01:00:00Z" (499222800) transition_time 0x9ab-0x9b3 (8)
0x9b0|c1 89 10                                       |...             |
0x9b0|         00 00 00 00 1e 8c 90 10               |   ........     |      [138]: "1986-03-30T01:00:00Z" (512528400) transition_time 0x9b3-0x9bb (8)
0x9b0|                                 00 00 00 00 1f|           .....|      [139]: "1986-10-26T01:00:00Z" (530672400) transition_time 0x9bb-0x9c3 (8)
0x9c0|a1 6b 10                                       |.k.             |
0x9c0|         00 00 00 00 20 6c 72 10               |   .... lr.     |      [140]: "1987-03-29T01:00:00Z" (543978000) transition_time 0x9c3-0x9cb (8)
0x9c0|                                 00 00 00 00 21|           ....!|      [141]: "1987-10-25T01:00:00Z" (562122000) transition_time 0x9cb-0x9d3 (8)
0x9d0|81 4d 10                                       |.M.             |
0x9d0|         00 00 00 00 22 4c 54 10               |   ...."LT.     |      [142]: "1988-03-27T01:00:00Z" (575427600) transition_time 0x9d3-0x9db (8)
0x9d0|                                 00 00 00 00 23|           ....#|      [143]: "1988-10-23T01:00:00Z" (593571600) transition_time 0x9db-0x9e3 (8)
0x9e0|61 2f 10                                       |a/.             |
0x9e0|         00 00 00 00 24 2c 36 10               |   ....$,6.     |      [144]: "1989-03-26T01:00:00Z" (606877200) transition_time 0x9e3-0x9eb (8)
0x9e0|                                 00 00 00 00 25|           ....%|      [145]: "1989-10-29T01:00:00Z" (625626000) transition_time 0x9eb-0x9f3 (8)
0x9f0|4a 4b 90                                       |JK.             |
0x9f0|         00 00 00 00 26 0c 18 10               |   ....&...     |      [146]: "1990-03-25T01:00:00Z" (638326800) transition_time 0x9f3-0x9fb (8)
0x9f0|                                 00 00 00 00 27|           ....'|      [147]: "1990-10-28T01:00:00Z" (657075600) transition_time 0x9fb-0xa03 (8)
0xa00|2a 2d 90                                       |*-.             |
0xa00|         00 00 00 00 27 f5 34 90               |   ....'.4.     |      [148]: "1991-03-31T01:00:00Z" (670381200) transition_time 0xa03-0xa0b (8)
0xa00|                                 00 00 00 00 29|           ....)|      [149]: "1991-10-27T01:00:00Z" (688525200) transition_time 0xa0b-0xa13 (8)
0xa10|0a 0f 90                                       |...             |
0xa10|         00 00 00 00 29 d5 16 90               |   ....)...     |      [150]: "1992-03-29T01:00:00Z" (701830800) transition_time 0xa13-0xa1b (8)
0xa10|                                 00 00 00 00 2a|           ....*|      [151]: "1992-10-25T01:00:00Z" (719974800) transition_time 0xa1b-0xa23 (8)
0xa20|e9 f1 90                                       |...             |
0xa20|         00 00 00 00 2b b4 f8 90               |   ....+...     |      [152]: "1993-03-28T01:00:00Z" (733280400) transition_time 0xa23-0xa2b (8)
0xa20|                                 00 00 00 00 2c|           ....,|      [153]: "1993-10-24T01:00:00Z" (751424400) transition_time 0xa2b-0xa33 (8)
0xa30|c9 d3 90                                       |...             |
0xa30|         00 00 00 00 2d 94 da 90               |   ....-...     |      [154]: "1994-03-27T01:00:00Z" (764730000) transition_time 0xa33-0xa3b (8)
0xa30|                                 00 00 00 00 2e|           .....|      [155]: "1994-10-23T01:00:00Z" (782874000) transition_time 0xa3b-0xa43 (8)
0xa40|a9 b5 90                                       |...             |
0xa40|         00 00 00 00 2f 74 bc 90               |   ..../t..     |      [156]: "1995-03-26T01:00:00Z" (796179600) transition_time 0xa43-0xa4b (8)
0xa40|                                 00 00 00 00 30|           ....0|      [157]: "1995-10-22T01:00:00Z" (814323600) transition_time 0xa4b-0xa53 (8)
0xa50|89 97 90                                       |...             |
0xa50|         00 00 00 00 31 5d d9 10               |   ....1]..     |      [158]: "1996-03-31T01:00:00Z" (828234000) transition_time 0xa53-0xa5b (8)
0xa50|                                 00 00 00 00 32|           ....2|      [159]: "1996-10-27T01:00:00Z" (846378000) transition_time 0xa5b-0xa63 (8)
0xa60|72 b4 10                                       |r..             |
0xa60|         00 00 00 00 33 3d bb 10               |   ....3=..     |      [160]: "1997-03-30T01:00:00Z" (859683600) transition_time 0xa63-0xa6b (8)
0xa60|                                 00 00 00 00 34|           ....4|      [161]: "1997-10-26T01:00:00Z" (877827600) transition_time 0xa6b-0xa73 (8)
0xa70|52 96 10                                       |R..             |
0xa70|         00 00 00 00 35 1d 9d 10               |   ....5...     |      [162]: "1998-03-29T01:00:00Z" (891133200) transition_time 0xa73-0xa7b (8)
0xa70|                                 00 00 00 00 36|           ....6|      [163]: "1998-10-25T01:00:00Z" (909277200) transition_time 0xa7b-0xa83 (8)
0xa80|32 78 10                                       |2x.             |
0xa80|         00 00 00 00 36 fd 7f 10               |   ....6...     |      [164]: "1999-03-28T01:00:00Z" (922582800) transition_time 0xa83-0xa8b (8)
0xa80|                                 00 00 00 00 38|           ....8|      [165]: "1999-10-31T01:00:00Z" (941331600) transition_time 0xa8b-0xa93 (8)
0xa90|1b 94 90                                       |...             |
0xa90|         00 00 00 00 38 dd 61 10               |   ....8.a.     |      [166]: "2000-03-26T01:00:00Z" (954032400) transition_time 0xa93-0xa9b (8)
0xa90|                                 00 00 00 00 39|           ....9|      [167]: "2000-10-29T01:00:00Z" (972781200) transition_time 0xa9b-0xaa3 (8)
0xaa0|fb 76 90                                       |.v.             |
0xaa0|         00 00 00 00 3a bd 43 10               |   ....:.C.     |      [168]: "2001-03-25T01:00:00Z" (985482000) transition_time 0xaa3-0xaab (8)
0xaa0|                                 00 00 00 00 3b|           ....;|      [169]: "2001-10-28T01:00:00Z" (1004230800) transition_time 0xaab-0xab3 (8)
0xab0|db 58 90                                       |.X.             |
0xab0|         00 00 00 00 3c a6 5f 90               |   ....<._.     |      [170]: "2002-03-31T01:00:00Z" (1017536400) transition_time 0xab3-0xabb (8)
0xab0|                                 00 00 00 00 3d|           ....=|      [171]: "2002-10-27T01:00:00Z" (1035680400) transition_time 0xabb-0xac3 (8)
0xac0|bb 3a 90                                       |.:.             |
0xac0|         00 00 00 00 3e 86 41 90               |   ....>.A.     |      [172]: "2003-03-30T01:00:00Z" (1048986000) transition_time 0xac3-0xacb (8)
0xac0|                                 00 00 00 00 3f|           ....?|      [173]: "2003-10-26T01:00:00Z" (1067130000) transition_time 0xacb-0xad3 (8)
0xad0|9b 1c 90                                       |...             |
0xad0|         00 00 00 00 40 66 23 90               |   ....@f#.     |      [174]: "2004-03-28T01:00:00Z" (1080435600) transition_time 0xad3-0xadb (8)
0xad0|                                 00 00 00 00 41|           ....A|      [175]: "2004-10-31T01:00:00Z" (1099184400) transition_time 0xadb-0xae3 (8)
0xae0|84 39 10                                       |.9.             |
0xae0|         00 00 00 00 42 46 05 90               |   ....BF..     |      [176]: "2005-03-27T01:00:00Z" (1111885200) transition_time 0xae3-0xaeb (8)
0xae0|                                 00 00 00 00 43|           ....C|      [177]: "2005-10-30T01:00:00Z" (1130634000) transition_time 0xaeb-0xaf3 (8)
0xaf0|64 1b 10                                       |d..             |
0xaf0|         00 00 00 00 44 25 e7 90               |   ....D%..     |      [178]: "2006-03-26T01:00:00Z" (1143334800) transition_time 0xaf3-0xafb (8)
0xaf0|                                 00 00 00 00 45|           ....E|      [179]: "2006-10-29T01:00:00Z" (1162083600) transition_time 0xafb-0xb03 (8)
0xb00|43 fd 10                                       |C..             |
0xb00|         00 00 00 00 46 05 c9 90               |   ....F...     |      [180]: "2007-03-25T01:00:00Z" (1174784400) transition_time 0xb03-0xb0b (8)
0xb00|                                 00 00 00 00 47|           ....G|      [181]: "2007-10-28T01:00:00Z" (1193533200) transition_time 0xb0b-0xb13 (8)
0xb10|23 df 10                                       |#..             |
0xb10|         00 00 00 00 47 ee e6 10               |   ....G...     |      [182]: "2008-03-30T01:00:00Z" (1206838800) transition_time 0xb13-0xb1b (8)
0xb10|                                 00 00 00 00 49|           ....I|      [183]: "2008-10-26T01:00:00Z" (1224982800) transition_time 0xb1b-0xb23 (8)
0xb20|03 c1 10                                       |...             |
0xb20|         00 00 00 00 49 ce c8 10               |   ....I...     |      [184]: "2009-03-29T01:00:00Z" (1238288400) transition_time 0xb23-0xb2b (8)
0xb20|                                 00 00 00 00 4a|           ....J|      [185]: "2009-10-25T01:00:00Z" (1256432400) transition_time 0xb2b-0xb33 (8)
0xb30|e3 a3 10                                       |...             |
0xb30|         00 00 00 00 4b ae aa 10               |   ....K...     |      [186]: "2010-03-28T01:00:00Z" (1269738000) transition_time 0xb33-0xb3b (8)
0xb30|                                 00 00 00 00 4c|           ....L|      [187]: "2010-10-31T01:00:00Z" (1288486800) transition_time 0xb3b-0xb43 (8)
0xb40|cc bf 90                                       |...             |
0xb40|         00 00 00 00 4d 8e 8c 10               |   ....M...     |      [188]: "2011-03-27T01:00:00Z" (1301187600) transition_time 0xb43-0xb4b (8)
0xb40|                                 00 00 00 00 4e|           ....N|      [189]: "2011-10-30T01:00:00Z" (1319936400) transition_time 0xb4b-0xb53 (8)
0xb50|ac a1 90                                       |...             |
0xb50|         00 00 00 00 4f 6e 6e 10               |   ....Onn.     |      [190]: "2012-03-25T01:00:00Z" (1332637200) transition_time 0xb53-0xb5b (8)
0xb50|                                 00 00 00 00 50|           ....P|      [191]: "2012-10-28T01:00:00Z" (1351386000) transition_time 0xb5b-0xb63 (8)
0xb60|8c 83 90                                       |...             |
0xb60|         00 00 00 00 51 57 8a 90               |   ....QW..     |      [192]: "2013-03-31T01:00:00Z" (1364691600) transition_time 0xb63-0xb6b (8)
0xb60|                                 00 00 00 00 52|           ....R|      [193]: "2013-10-27T01:00:00Z" (1382835600) transition_time 0xb6b-0xb73 (8)
0xb70|6c 65 90                                       |le.             |
0xb70|         00 00 00 00 53 37 6c 90               |   ....S7l.     |      [194]: "2014-03-30T01:00:00Z" (1396141200) transition_time 0xb73-0xb7b (8)
0xb70|                                 00 00 00 00 54|           ....T|      [195]: "2014-10-26T01:00:00Z" (1414285200) transition_time 0xb7b-0xb83 (8)
0xb80|4c 47 90                                       |LG.             |
0xb80|         00 00 00 00 55 17 4e 90               |   ....U.N.     |      [196]: "2015-03-29T01:00:00Z" (1427590800) transition_time 0xb83-0xb8b (8)
0xb80|                                 00 00 00 00 56|           ....V|      [197]: "2015-10-25T01:00:00Z" (1445734800) transition_time 0xb8b-0xb93 (8)
0xb90|2c 29 90                                       |,).             |
0xb90|         00 00 00 00 56 f7 30 90               |   ....V.0.     |      [198]: "2016-03-27T01:00:00Z" (1459040400) transition_time 0xb93-0xb9b (8)
0xb90|                                 00 00 00 00 58|           ....X|      [199]: "2016-10-30T01:00:00Z" (1477789200) transition_time 0xb9b-0xba3 (8)
0xba0|15 46 10                                       |.F.             |
0xba0|         00 00 00 00 58 d7 12 90               |   ....X...     |      [200]: "2017-03-26T01:00:00Z" (1490490000) transition_time 0xba3-0xbab (8)
0xba0|                                 00 00 00 00 59|           ....Y|      [201]: "2017-10-29T01:00:00Z" (1509238800) transition_time 0xbab-0xbb3 (8)
0xbb0|f5 28 10                                       |.(.             |
0xbb0|         00 00 00 00 5a b6 f4 90               |   ....Z...     |      [202]: "2018-03-25T01:00:00Z" (1521939600) transition_time 0xbb3-0xbbb (8)
0xbb0|                                 00 00 00 00 5b|           ....[|      [203]: "2018-10-28T01:00:00Z" (1540688400) transition_time 0xbbb-0xbc3 (8)
0xbc0|d5 0a 10                                       |...             |
0xbc0|         00 00 00 00 5c a0 11 10               |   ....\...     |      [204]: "2019-03-31T01:00:00Z" (1553994000) transition_time 0xbc3-0xbcb (8)
0xbc0|                                 00 00 00 00 5d|           ....]|      [205]: "2019-10-27T01:00:00Z" (1572138000) transition_time 0xbcb-0xbd3 (8)
0xbd0|b4 ec 10                                       |...             |
0xbd0|         00 00 00 00 5e 7f f3 10               |   ....^...     |      [206]: "2020-03-29T01:00:00Z" (1585443600) transition_time 0xbd3-0xbdb (8)
0xbd0|                                 00 00 00 00 5f|           ...._|      [207]: "2020-10-25T01:00:00Z" (1603587600) transition_time 0xbdb-0xbe3 (8)
0xbe0|94 ce 10                                       |...             |
0xbe0|         00 00 00 00 60 5f d5 10               |   ....`_..     |      [208]: "2021-03-28T01:00:00Z" (1616893200) transition_time 0xbe3-0xbeb (8)
0xbe0|                                 00 00 00 00 61|           ....a|      [209]: "2021-10-31T01:00:00Z" (1635642000) transition_time 0xbeb-0xbf3 (8)
0xbf0|7d ea 90                                       |}..             |
0xbf0|         00 00 00 00 62 3f b7 10               |   ....b?..     |      [210]: "2022-03-27T01:00:00Z" (1648342800) transition_time 0xbf3-0xbfb (8)
0xbf0|                                 00 00 00 00 63|           ....c|      [211]: "2022-10-30T01:00:00Z" (1667091600) transition_time 0xbfb-0xc03 (8)
0xc00|5d cc 90                                       |]..             |
0xc00|         00 00 00 00 64 1f 99 10               |   ....d...     |      [212]: "2023-03-26T01:00:00Z" (1679792400) transition_time 0xc03-0xc0b (8)
0xc00|                                 00 00 00 00 65|           ....e|      [213]: "2023-10-29T01:00:00Z" (1698541200) transition_time 0xc0b-0xc13 (8)
0xc10|3d ae 90                                       |=..             |
0xc10|         00 00 00 00 66 08 b5 90               |   ....f...     |      [214]: "2024-03-31T01:00:00Z" (1711846800) transition_time 0xc13-0xc1b (8)
0xc10|                                 00 00 00 00 67|           ....g|      [215]: "2024-10-27T01:00:00Z" (1729990800) transition_time 0xc1b-0xc23 (8)
0xc20|1d 90 90                                       |...             |
0xc20|         00 00 00 00 67 e8 97 90               |   ....g...     |      [216]: "2025-03-30T01:00:00Z" (1743296400) transition_time 0xc23-0xc2b (8)
0xc20|                                 00 00 00 00 68|           ....h|      [217]: "2025-10-26T01:00:00Z" (1761440400) transition_time 0xc2b-0xc33 (8)
0xc30|fd 72 90                                       |.r.             |
0xc30|         00 00 00 00 69 c8 79 90               |   ....i.y.     |      [218]: "2026-03-29T01:00:00Z" (1774746000) transition_time 0xc33-0xc3b (8)
0xc30|                                 00 00 00 00 6a|           ....j|      [219]: "2026-10-25T01:00:00Z" (1792890000) transition_time 0xc3b-0xc43 (8)
0xc40|dd 54 90                                       |.T.             |
0xc40|         00 00 00 00 6b a8 5b 90               |   ....k.[.     |      [220]: "2027-03-28T01:00:00Z" (1806195600) transition_time 0xc43-0xc4b (8)
0xc40|                                 00 00 00 00 6c|           ....l|      [221]: "2027-10-31T01:00:00Z" (1824944400) transition_time 0xc4b-0xc53 (8)
0xc50|c6 71 10                                       |.q.             |
0xc50|         00 00 00 00 6d 88 3d 90               |   ....m.=.     |      [222]: "2028-03-26T01:00:00Z" (1837645200) transition_time 0xc53-0xc5b (8)
0xc50|                                 00 00 00 00 6e|           ....n|      [223]: "2028-10-29T01:00:00Z" (1856394000) transition_time 0xc5b-0xc63 (8)
0xc60|a6 53 10                                       |.S.             |
0xc60|         00 00 00 00 6f 68 1f 90               |   ....oh..     |      [224]: "2029-03-25T01:00:00Z" (1869094800) transition_time 0xc63-0xc6b (8)
0xc60|                                 00 00 00 00 70|           ....p|      [225]: "2029-10-28T01:00:00Z" (1887843600) transition_time 0xc6b-0xc73 (8)
0xc70|86 35 10                                       |.5.             |
0xc70|         00 00 00 00 71 51 3c 10               |   ....qQ<.     |      [226]: "2030-03-31T01:00:00Z" (1901149200) transition_time 0xc73-0xc7b (8)
0xc70|                                 00 00 00 00 72|           ....r|      [227]: "2030-10-27T01:00:00Z" (1919293200) transition_time 0xc7b-0xc83 (8)
0xc80|66 17 10                                       |f..             |
0xc80|         00 00 00 00 73 31 1e 10               |   ....s1..     |      [228]: "2031-03-30T01:00:00Z" (1932598800) transition_time 0xc83-0xc8b (8)
0xc80|                                 00 00 00 00 74|           ....t|      [229]: "2031-10-26T01:00:00Z" (1950742800) transition_time 0xc8b-0xc93 (8)
0xc90|45 f9 10                                       |E..             |
0xc90|         00 00 00 00 75 11 00 10               |   ....u...     |      [230]: "2032-03-28T01:00:00Z" (1964048400) transition_time 0xc93-0xc9b (8)
0xc90|                                 00 00 00 00 76|           ....v|      [231]: "2032-10-31T01:00:00Z" (1982797200) transition_time 0xc9b-0xca3 (8)
0xca0|2f 15 90                                       |/..             |
0xca0|         00 00 00 00 76 f0 e2 10               |   ....v...     |      [232]: "2033-03-27T01:00:00Z" (1995498000) transition_time 0xca3-0xcab (8)
0xca0|                                 00 00 00 00 78|           ....x|      [233]: "2033-10-30T01:00:00Z" (2014246800) transition_time 0xcab-0xcb3 (8)
0xcb0|0e f7 90                                       |...             |
0xcb0|         00 00 00 00 78 d0 c4 10               |   ....x...     |      [234]: "2034-03-26T01:00:00Z" (2026947600) transition_time 0xcb3-0xcbb (8)
0xcb0|                                 00 00 00 00 79|           ....y|      [235]: "2034-10-29T01:00:00Z" (2045696400) transition_time 0xcbb-0xcc3 (8)
0xcc0|ee d9 90                                       |...             |
0xcc0|         00 00 00 00 7a b0 a6 10               |   ....z...     |      [236]: "2035-03-25T01:00:00Z" (2058397200) transition_time 0xcc3-0xccb (8)
0xcc0|                                 00 00 00 00 7b|           ....{|      [237]: "2035-10-28T01:00:00Z" (2077146000) transition_time 0xccb-0xcd3 (8)
0xcd0|ce bb 90                                       |...             |
0xcd0|         00 00 00 00 7c 99 c2 90               |   ....|...     |      [238]: "2036-03-30T01:00:00Z" (2090451600) transition_time 0xcd3-0xcdb (8)
0xcd0|                                 00 00 00 00 7d|           ....}|      [239]: "2036-10-26T01:00:00Z" (2108595600) transition_time 0xcdb-0xce3 (8)
0xce0|ae 9d 90                                       |...             |
0xce0|         00 00 00 00 7e 79 a4 90               |   ....~y..     |      [240]: "2037-03-29T01:00:00Z" (2121901200) transition_time 0xce3-0xceb (8)
0xce0|                                 00 00 00 00 7f|           .....|      [241]: "2037-10-25T01:00:00Z" (2140045200) transition_time 0xceb-0xcf3 (8)
0xcf0|8e 7f 90                                       |...             |
     |                                               |                |    transition_types[0:242]: 0xcf3-0xde5 (242)
0xcf0|         04                                    |   .            |      [0]: 4 transition_type 0xcf3-0xcf4 (1)
0xcf0|            01                                 |    .           |      [1]: 1 transition_type 0xcf4-0xcf5 (1)
0xcf0|               02                              |     .          |      [2]: 2 transition_type 0xcf5-0xcf6 (1)
0xcf0|                  01                           |      .         |      [3]: 1 transition_type 0xcf6-0xcf7 (1)
0xcf0|                     02                        |       .        |      [4]: 2 transition_type 0xcf7-0xcf8 (1)
0xcf0|                        01                     |        .       |      [5]: 1 transition_type 0xcf8-0xcf9 (1)
0xcf0|                           02                  |         .      |      [6]: 2 transition_type 0xcf9-0xcfa (1)
0xcf0|                              01               |          .     |      [7]: 1 transition_type 0xcfa-0xcfb (1)
0xcf0|                                 02            |           .    |      [8]: 2 transition_type 0xcfb-0xcfc (1)
0xcf0|                                    01         |            .   |      [9]: 1 transition_type 0xcfc-0xcfd (1)
0xcf0|                                       02      |             .  |      [10]: 2 transition_type 0xcfd-0xcfe (1)
0xcf0|                                          01   |              . |      [11]: 1 transition_type 0xcfe-0xcff (1)
0xcf0|                                             02|               .|      [12]: 2 transition_type 0xcff-0xd00 (1)
0xd00|01                                             |.               |      [13]: 1 transition_type 0xd00-0xd01 (1)
0xd00|   02                                          | .              |      [14]: 2 transition_type 0xd01-0xd02 (1)
0xd00|      01                                       |  .             |      [15]: 1 transition_type 0xd02-0xd03 (1)
0xd00|         02                                    |   .            |      [16]: 2 transition_type 0xd03-0xd04 (1)
0xd00|            01                                 |    .           |      [17]: 1 transition_type 0xd04-0xd05 (1)
0xd00|               02                              |     .          |      [18]: 2 transition_type 0xd05-0xd06 (1)
0xd00|                  01                           |      .         |      [19]: 1 transition_type 0xd06-0xd07 (1)
0xd00|                     02                        |       .        |      [20]: 2 transition_type 0xd07-0xd08 (1)
0xd00|                        01                     |        .       |      [21]: 1 transition_type 0xd08-0xd09 (1)
0xd00|                           02                  |         .      |      [22]: 2 transition_type 0xd09-0xd0a (1)
0xd00|                              01               |          .     |      [23]: 1 transition_type 0xd0a-0xd0b (1)
0xd00|                                 02            |           .    |      [24]: 2 transition_type 0xd0b-0xd0c (1)
0xd00|                                    01         |            .   |      [25]: 1 transition_type 0xd0c-0xd0d (1)
0xd00|                                       02      |             .  |      [26]: 2 transition_type 0xd0d-0xd0e (1)
0xd00|                                          01   |              . |      [27]: 1 transition_type 0xd0e-0xd0f (1)
0xd00|                                             02|               .|      [28]: 2 transition_type 0xd0f-0xd10 (1)
0xd10|01                                             |.               |      [29]: 1 transition_type 0xd10-0xd11 (1)
0xd10|   02                                          | .              |      [30]: 2 transition_type 0xd11-0xd12 (1)
0xd10|      01                                       |  .             |      [31]: 1 transition_type 0xd12-0xd13 (1)
0xd10|         02                                    |   .            |      [32]: 2 transition_type 0xd13-0xd14 (1)
0xd10|            01                                 |    .           |      [33]: 1 transition_type 0xd14-0xd15 (1)
0xd10|               02                              |     .          |      [34]: 2 transition_type 0xd15-0xd16 (1)
0xd10|                  01                           |      .         |      [35]: 1 transition_type 0xd16-0xd17 (1)
0xd10|                     02                        |       .        |      [36]: 2 transition_type 0xd17-0xd18 (1)
0xd10|                        01                     |        .       |      [37]: 1 transition_type 0xd18-0xd19 (1)
0xd10|                           02                  |         .      |      [38]: 2 transition_type 0xd19-0xd1a (1)
0xd10|                              01               |          .     |      [39]: 1 transition_type 0xd1a-0xd1b (1)
0xd10|                                 02            |           .    |      [40]: 2 transition_type 0xd1b-0xd1c (1)
0xd10|                                    01         |            .   |      [41]: 1 transition_type 0xd1c-0xd1d (1)
0xd10|                                       02      |             .  |      [42]: 2 transition_type 0xd1d-0xd1e (1)
0xd10|                                          01   |              . |      [43]: 1 transition_type 0xd1e-0xd1f (1)
0xd10|                                             02|               .|      [44]: 2 transition_type 0xd1f-0xd20 (1)
0xd20|01                                             |.               |      [45]: 1 transition_type 0xd20-0xd21 (1)
0xd20|   02                                          | .              |      [46]: 2 transition_type 0xd21-0xd22 (1)
0xd20|      01                                       |  .             |      [47]: 1 transition_type 0xd22-0xd23 (1)
0xd20|         02                                    |   .            |      [48]: 2 transition_type 0xd23-0xd24 (1)
0xd20|            01                                 |    .           |      [49]: 1 transition_type 0xd24-0xd25 (1)
0xd20|               03                              |     .          |      [50]: 3 transition_type 0xd25-0xd26 (1)
0xd20|                  01                           |      .         |      [51]: 1 transition_type 0xd26-0xd27 (1)
0xd20|                     03                        |       .        |      [52]: 3 transition_type 0xd27-0xd28 (1)
0xd20|                        01                     |        .       |      [53]: 1 transition_type 0xd28-0xd29 (1)
0xd20|                           03                  |         .      |      [54]: 3 transition_type 0xd29-0xd2a (1)
0xd20|                              01               |          .     |      [55]: 1 transition_type 0xd2a-0xd2b (1)
0xd20|                                 03            |           .    |      [56]: 3 transition_type 0xd2b-0xd2c (1)
0xd20|                                    01         |            .   |      [57]: 1 transition_type 0xd2c-0xd2d (1)
0xd20|                                       03      |             .  |      [58]: 3 transition_type 0xd2d-0xd2e (1)
0xd20|                                          01   |              . |      [59]: 1 transition_type 0xd2e-0xd2f (1)
0xd20|                                             02|               .|      [60]: 2 transition_type 0xd2f-0xd30 (1)
0xd30|01                                             |.               |      [61]: 1 transition_type 0xd30-0xd31 (1)
0xd30|   02                                          | .              |      [62]: 2 transition_type 0xd31-0xd32 (1)
0xd30|      01                                       |  .             |      [63]: 1 transition_type 0xd32-0xd33 (1)
0xd30|         03                                    |   .            |      [64]: 3 transition_type 0xd33-0xd34 (1)
0xd30|            01                                 |    .           |      [65]: 1 transition_type 0xd34-0xd35 (1)
0xd30|               02                              |     .          |      [66]: 2 transition_type 0xd35-0xd36 (1)
0xd30|                  01                           |      .         |      [67]: 1 transition_type 0xd36-0xd37 (1)
0xd30|                     02                        |       .        |      [68]: 2 transition_type 0xd37-0xd38 (1)
0xd30|                        01                     |        .       |      [69]: 1 transition_type 0xd38-0xd39 (1)
0xd30|                           02                  |         .      |      [70]: 2 transition_type 0xd39-0xd3a (1)
0xd30|                              01               |          .     |      [71]: 1 transition_type 0xd3a-0xd3b (1)
0xd30|                                 02            |           .    |      [72]: 2 transition_type 0xd3b-0xd3c (1)
0xd30|                                    01         |            .   |      [73]: 1 transition_type 0xd3c-0xd3d (1)
0xd30|                                       02      |             .  |      [74]: 2 transition_type 0xd3d-0xd3e (1)
0xd30|                                          01   |              . |      [75]: 1 transition_type 0xd3e-0xd3f (1)
0xd30|                                             02|               .|      [76]: 2 transition_type 0xd3f-0xd40 (1)
0xd40|01                                             |.               |      [77]: 1 transition_type 0xd40-0xd41 (1)
0xd40|   02                                          | .              |      [78]: 2 transition_type 0xd41-0xd42 (1)
0xd40|      01                                       |  .             |      [79]: 1 transition_type 0xd42-0xd43 (1)
0xd40|         02                                    |   .            |      [80]: 2 transition_type 0xd43-0xd44 (1)
0xd40|            01                                 |    .           |      [81]: 1 transition_type 0xd44-0xd45 (1)
0xd40|               02                              |     .          |      [82]: 2 transition_type 0xd45-0xd46 (1)
0xd40|                  01                           |      .         |      [83]: 1 transition_type 0xd46-0xd47 (1)
0xd40|                     02                        |       .        |      [84]: 2 transition_type 0xd47-0xd48 (1)
0xd40|                        01                     |        .       |      [85]: 1 transition_type 0xd48-0xd49 (1)
0xd40|                           02                  |         .      |      [86]: 2 transition_type 0xd49-0xd4a (1)
0xd40|                              01               |          .     |      [87]: 1 transition_type 0xd4a-0xd4b (1)
0xd40|                                 02            |           .    |      [88]: 2 transition_type 0xd4b-0xd4c (1)
0xd40|                                    01         |            .   |      [89]: 1 transition_type 0xd4c-0xd4d (1)
0xd40|                                       02      |             .  |      [90]: 2 transition_type 0xd4d-0xd4e (1)
0xd40|                                          01   |              . |      [91]: 1 transition_type 0xd4e-0xd4f (1)
0xd40|                                             02|               .|      [92]: 2 transition_type 0xd4f-0xd50 (1)
0xd50|01                                             |.               |      [93]: 1 transition_type 0xd50-0xd51 (1)
0xd50|   02                                          | .              |      [94]: 2 transition_type 0xd51-0xd52 (1)
0xd50|      01                                       |  .             |      [95]: 1 transition_type 0xd52-0xd53 (1)
0xd50|         02                                    |   .            |      [96]: 2 transition_type 0xd53-0xd54 (1)
0xd50|            01                                 |    .           |      [97]: 1 transition_type 0xd54-0xd55 (1)
0xd50|               02                              |     .          |      [98]: 2 transition_type 0xd55-0xd56 (1)
0xd50|                  01                           |      .         |      [99]: 1 transition_type 0xd56-0xd57 (1)
0xd50|                     02                        |       .        |      [100]: 2 transition_type 0xd57-0xd58 (1)
0xd50|                        01                     |        .       |      [101]: 1 transition_type 0xd58-0xd59 (1)
0xd50|                           02                  |         .      |      [102]: 2 transition_type 0xd59-0xd5a (1)
0xd50|                              01               |          .     |      [103]: 1 transition_type 0xd5a-0xd5b (1)
0xd50|                                 02            |           .    |      [104]: 2 transition_type 0xd5b-0xd5c (1)
0xd50|                                    01         |            .   |      [105]: 1 transition_type 0xd5c-0xd5d (1)
0xd50|                                       02      |             .  |      [106]: 2 transition_type 0xd5d-0xd5e (1)
0xd50|                                          01   |              . |      [107]: 1 transition_type 0xd5e-0xd5f (1)
0xd50|                                             05|               .|      [108]: 5 transition_type 0xd5f-0xd60 (1)
0xd60|07                                             |.               |      [109]: 7 transition_type 0xd60-0xd61 (1)
0xd60|   01                                          | .              |      [110]: 1 transition_type 0xd61-0xd62 (1)
0xd60|      02                                       |  .             |      [111]: 2 transition_type 0xd62-0xd63 (1)
0xd60|         01                                    |   .            |      [112]: 1 transition_type 0xd63-0xd64 (1)
0xd60|            02                                 |    .           |      [113]: 2 transition_type 0xd64-0xd65 (1)
0xd60|               01                              |     .          |      [114]: 1 transition_type 0xd65-0xd66 (1)
0xd60|                  02                           |      .         |      [115]: 2 transition_type 0xd66-0xd67 (1)
0xd60|                     01                        |       .        |      [116]: 1 transition_type 0xd67-0xd68 (1)
0xd60|                        02                     |        .       |      [117]: 2 transition_type 0xd68-0xd69 (1)
0xd60|                           01                  |         .      |      [118]: 1 transition_type 0xd69-0xd6a (1)
0xd60|                              02               |          .     |      [119]: 2 transition_type 0xd6a-0xd6b (1)
0xd60|                                 01            |           .    |      [120]: 1 transition_type 0xd6b-0xd6c (1)
0xd60|                                    02         |            .   |      [121]: 2 transition_type 0xd6c-0xd6d (1)
0xd60|                                       01      |             .  |      [122]: 1 transition_type 0xd6d-0xd6e (1)
0xd60|                                          02   |              . |      [123]: 2 transition_type 0xd6e-0xd6f (1)
0xd60|                                             01|               .|      [124]: 1 transition_type 0xd6f-0xd70 (1)
0xd70|02                                             |.               |      [125]: 2 transition_type 0xd70-0xd71 (1)
0xd70|   01                                          | .              |      [126]: 1 transition_type 0xd71-0xd72 (1)
0xd70|      02                                       |  .             |      [127]: 2 transition_type 0xd72-0xd73 (1)
0xd70|         06                                    |   .            |      [128]: 6 transition_type 0xd73-0xd74 (1)
0xd70|            07                                 |    .           |      [129]: 7 transition_type 0xd74-0xd75 (1)
0xd70|               06                              |     .          |      [130]: 6 transition_type 0xd75-0xd76 (1)
0xd70|                  07                           |      .         |      [131]: 7 transition_type 0xd76-0xd77 (1)
0xd70|                     06                        |       .        |      [132]: 6 transition_type 0xd77-0xd78 (1)
0xd70|                        07                     |        .       |      [133]: 7 transition_type 0xd78-0xd79 (1)
0xd70|                           06                  |         .      |      [134]: 6 transition_type 0xd79-0xd7a (1)
0xd70|                              07               |          .     |      [135]: 7 transition_type 0xd7a-0xd7b (1)
0xd70|                                 06            |           .    |      [136]: 6 transition_type 0xd7b-0xd7c (1)
0xd70|                                    07         |            .   |      [137]: 7 transition_type 0xd7c-0xd7d (1)
0xd70|                                       06      |             .  |      [138]: 6 transition_type 0xd7d-0xd7e (1)
0xd70|                                          07   |              . |      [139]: 7 transition_type 0xd7e-0xd7f (1)
0xd70|                                             06|               .|      [140]: 6 transition_type 0xd7f-0xd80 (1)
0xd80|07                                             |.               |      [141]: 7 transition_type 0xd80-0xd81 (1)
0xd80|   06                                          | .              |      [142]: 6 transition_type 0xd81-0xd82 (1)
0xd80|      07                                       |  .             |      [143]: 7 transition_type 0xd82-0xd83 (1)
0xd80|         06                                    |   .            |      [144]: 6 transition_type 0xd83-0xd84 (1)
0xd80|            07                                 |    .           |      [145]: 7 transition_type 0xd84-0xd85 (1)
0xd80|               06                              |     .          |      [146]: 6 transition_type 0xd85-0xd86 (1)
0xd80|                  07                           |      .         |      [147]: 7 transition_type 0xd86-0xd87 (1)
0xd80|                     06                        |       .        |      [148]: 6 transition_type 0xd87-0xd88 (1)
0xd80|                        07                     |        .       |      [149]: 7 transition_type 0xd88-0xd89 (1)
0xd80|                           06                  |         .      |      [150]: 6 transition_type 0xd89-0xd8a (1)
0xd80|                              07               |          .     |      [151]: 7 transition_type 0xd8a-0xd8b (1)
0xd80|                                 06            |           .    |      [152]: 6 transition_type 0xd8b-0xd8c (1)
0xd80|                                    07         |            .   |      [153]: 7 transition_type 0xd8c-0xd8d (1)
0xd80|                                       06      |             .  |      [154]: 6 transition_type 0xd8d-0xd8e (1)
0xd80|                                          07   |              . |      [155]: 7 transition_type 0xd8e-0xd8f (1)
0xd80|                                             06|               .|      [156]: 6 transition_type 0xd8f-0xd90 (1)
0xd90|07                                             |.               |      [157]: 7 transition_type 0xd90-0xd91 (1)
0xd90|   06                                          | .              |      [158]: 6 transition_type 0xd91-0xd92 (1)
0xd90|      07                                       |  .             |      [159]: 7 transition_type 0xd92-0xd93 (1)
0xd90|         06                                    |   .            |      [160]: 6 transition_type 0xd93-0xd94 (1)
0xd90|            07                                 |    .           |      [161]: 7 transition_type 0xd94-0xd95 (1)
0xd90|               06                              |     .          |      [162]: 6 transition_type 0xd95-0xd96 (1)
0xd90|                  07                           |      .         |      [163]: 7 transition_type 0xd96-0xd97 (1)
0xd90|                     06                        |       .        |      [164]: 6 transition_type 0xd97-0xd98 (1)
0xd90|                        07                     |        .       |      [165]: 7 transition_type 0xd98-0xd99 (1)
0xd90|                           06                  |         .      |      [166]: 6 transition_type 0xd99-0xd9a (1)
0xd90|                              07               |          .     |      [167]: 7 transition_type 0xd9a-0xd9b (1)
0xd90|                                 06            |           .    |      [168]: 6 transition_type 0xd9b-0xd9c (1)
0xd90|                                    07         |            .   |      [169]: 7 transition_type 0xd9c-0xd9d (1)
0xd90|                                       06      |             .  |      [170]: 6 transition_type 0xd9d-0xd9e (1)
0xd90|                                          07   |              . |      [171]: 7 transition_type 0xd9e-0xd9f (1)
0xd90|                                             06|               .|      [172]: 6 transition_type 0xd9f-0xda0 (1)
0xda0|07                                             |.               |      [173]: 7 transition_type 0xda0-0xda1 (1)
0xda0|   06                                          | .              |      [174]: 6 transition_type 0xda1-0xda2 (1)
0xda0|      07                                       |  .             |      [175]: 7 transition_type 0xda2-0xda3 (1)
0xda0|         06                                    |   .            |      [176]: 6 transition_type 0xda3-0xda4 (1)
0xda0|            07                                 |    .           |      [177]: 7 transition_type 0xda4-0xda5 (1)
0xda0|               06                              |     .          |      [178]: 6 transition_type 0xda5-0xda6 (1)
0xda0|                  07                           |      .         |      [179]: 7 transition_type 0xda6-0xda7 (1)
0xda0|                     06                        |       .        |      [180]: 6 transition_type 0xda7-0xda8 (1)
0xda0|                        07                     |        .       |      [181]: 7 transition_type 0xda8-0xda9 (1)
0xda0|                           06                  |         .      |      [182]: 6 transition_type 0xda9-0xdaa (1)
0xda0|                              07               |          .     |      [183]: 7 transition_type 0xdaa-0xdab (1)
0xda0|                                 06            |           .    |      [184]: 6 transition_type 0xdab-0xdac (1)
0xda0|                                    07         |            .   |      [185]: 7 transition_type 0xdac-0xdad (1)
0xda0|                                       06      |             .  |      [186]: 6 transition_type 0xdad-0xdae (1)
0xda0|                                          07   |              . |      [187]: 7 transition_type 0xdae-0xdaf (1)
0xda0|                                             06|               .|      [188]: 6 transition_type 0xdaf-0xdb0 (1)
0xdb0|07                                             |.               |      [189]: 7 transition_type 0xdb0-0xdb1 (1)
0xdb0|   06                                          | .              |      [190]: 6 transition_type 0xdb1-0xdb2 (1)
0xdb0|      07                                       |  .             |      [191]: 7 transition_type 0xdb2-0xdb3 (1)
0xdb0|         06                                    |   .            |      [192]: 6 transition_type 0xdb3-0xdb4 (1)
0xdb0|            07                                 |    .           |      [193]: 7 transition_type 0xdb4-0xdb5 (1)
0xdb0|               06                              |     .          |      [194]: 6 transition_type 0xdb5-0xdb6 (1)
0xdb0|                  07                           |      .         |      [195]: 7 transition_type 0xdb6-0xdb7 (1)
0xdb0|                     06                        |       .        |      [196]: 6 transition_type 0xdb7-0xdb8 (1)
0xdb0|                        07                     |        .       |      [197]: 7 transition_type 0xdb8-0xdb9 (1)
0xdb0|                           06                  |         .      |      [198]: 6 transition_type 0xdb9-0xdba (1)
0xdb0|                              07               |          .     |      [199]: 7 transition_type 0xdba-0xdbb (1)
0xdb0|                                 06            |           .    |      [200]: 6 transition_type 0xdbb-0xdbc (1)
0xdb0|                                    07         |            .   |      [201]: 7 transition_type 0xdbc-0xdbd (1)
0xdb0|                                       06      |             .  |      [202]: 6 transition_type 0xdbd-0xdbe (1)
0xdb0|                                          07   |              . |      [203]: 7 transition_type 0xdbe-0xdbf (1)
0xdb0|                                             06|               .|      [204]: 6 transition_type 0xdbf-0xdc0 (1)
0xdc0|07                                             |.               |      [205]: 7 transition_type 0xdc0-0xdc1 (1)
0xdc0|   06                                          | .              |      [206]: 6 transition_type 0xdc1-0xdc2 (1)
0xdc0|      07                                       |  .             |      [207]: 7 transition_type 0xdc2-0xdc3 (1)
0xdc0|         06                                    |   .            |      [208]: 6 transition_type 0xdc3-0xdc4 (1)
0xdc0|            07                                 |    .           |      [209]: 7 transition_type 0xdc4-0xdc5 (1)
0xdc0|               06                              |     .          |      [210]: 6 transition_type 0xdc5-0xdc6 (1)
0xdc0|                  07                           |      .         |      [211]: 7 transition_type 0xdc6-0xdc7 (1)
0xdc0|                     06                        |       .        |      [212]: 6 transition_type 0xdc7-0xdc8 (1)
0xdc0|                        07                     |        .       |      [213]: 7 transition_type 0xdc8-0xdc9 (1)
0xdc0|                           06                  |         .      |      [214]: 6 transition_type 0xdc9-0xdca (1)
0xdc0|                              07               |          .     |      [215]: 7 transition_type 0xdca-0xdcb (1)
0xdc0|                                 06            |           .    |      [216]: 6 transition_type 0xdcb-0xdcc (1)
0xdc0|                                    07         |            .   |      [217]: 7 transition_type 0xdcc-0xdcd (1)
0xdc0|                                       06      |             .  |      [218]: 6 transition_type 0xdcd-0xdce (1)
0xdc0|                                          07   |              . |      [219]: 7 transition_type 0xdce-0xdcf (1)
0xdc0|                                             06|               .|      [220]: 6 transition_type 0xdcf-0xdd0 (1)
0xdd0|07                                             |.               |      [221]: 7 transition_type 0xdd0-0xdd1 (1)
0xdd0|   06                                          | .              |      [222]: 6 transition_type 0xdd1-0xdd2 (1)
0xdd0|      07                                       |  .             |      [223]: 7 transition_type 0xdd2-0xdd3 (1)
0xdd0|         06                                    |   .            |      [224]: 6 transition_type 0xdd3-0xdd4 (1)
0xdd0|            07                                 |    .           |      [225]: 7 transition_type 0xdd4-0xdd5 (1)
0xdd0|               06                              |     .          |      [226]: 6 transition_type 0xdd5-0xdd6 (1)
0xdd0|                  07                           |      .         |      [227]: 7 transition_type 0xdd6-0xdd7 (1)
0xdd0|                     06                        |       .        |      [228]: 6 transition_type 0xdd7-0xdd8 (1)
0xdd0|                        07                     |        .       |      [229]: 7 transition_type 0xdd8-0xdd9 (1)
0xdd0|                           06                  |         .      |      [230]: 6 transition_type 0xdd9-0xdda (1)
0xdd0|                              07               |          .     |      [231]: 7 transition_type 0xdda-0xddb (1)
0xdd0|                                 06            |           .    |      [232]: 6 transition_type 0xddb-0xddc (1)
0xdd0|                                    07         |            .   |      [233]: 7 transition_type 0xddc-0xddd (1)
0xdd0|                                       06      |             .  |      [234]: 6 transition_type 0xddd-0xdde (1)
0xdd0|                                          07   |              . |      [235]: 7 transition_type 0xdde-0xddf (1)
0xdd0|                                             06|               .|      [236]: 6 transition_type 0xddf-0xde0 (1)
0xde0|07                                             |.               |      [237]: 7 transition_type 0xde0-0xde1 (1)
0xde0|   06                                          | .              |      [238]: 6 transition_type 0xde1-0xde2 (1)
0xde0|      07                                       |  .             |      [239]: 7 transition_type 0xde2-0xde3 (1)
0xde0|         06                                    |   .            |      [240]: 6 transition_type 0xde3-0xde4 (1)
0xde0|            07                                 |    .           |      [241]: 7 transition_type 0xde4-0xde5 (1)
     |                                               |                |    local_time_type_records[0:8]: 0xde5-0xe15 (48)
     |                                               |                |      [0]{}: local_time_type 0xde5-0xdeb (6)
0xde0|               ff ff ff b5                     |     ....       |        utoff: -75 (valid) 0xde5-0xde9 (4)
0xde0|                           00                  |         .      |        dst: 0 (valid) 0xde9-0xdea (1)
0xde0|                              00               |          .     |        idx: 0 (valid) 0xdea-0xdeb (1)
     |                                               |                |      [1]{}: local_time_type 0xdeb-0xdf1 (6)
0xde0|                                 00 00 0e 10   |           .... |        utoff: 3600 (valid) 0xdeb-0xdef (4)
0xde0|                                             01|               .|        dst: 1 (valid) 0xdef-0xdf0 (1)
0xdf0|04                                             |.               |        idx: 4 (valid) 0xdf0-0xdf1 (1)
     |                                               |                |      [2]{}: local_time_type 0xdf1-0xdf7 (6)
0xdf0|   00 00 00 00                                 | ....           |        utoff: 0 (valid) 0xdf1-0xdf5 (4)
0xdf0|               00                              |     .          |        dst: 0 (valid) 0xdf5-0xdf6 (1)
0xdf0|                  08                           |      .         |        idx: 8 (valid) 0xdf6-0xdf7 (1)
     |                                               |                |      [3]{}: local_time_type 0xdf7-0xdfd (6)
0xdf0|                     00 00 1c 20               |       ...      |        utoff: 7200 (valid) 0xdf7-0xdfb (4)
0xdf0|                                 01            |           .    |        dst: 1 (valid) 0xdfb-0xdfc (1)
0xdf0|                                    0c         |            .   |        idx: 12 (valid) 0xdfc-0xdfd (1)
     |                                               |                |      [4]{}: local_time_type 0xdfd-0xe03 (6)
0xdf0|                                       00 00 00|             ...|        utoff: 0 (valid) 0xdfd-0xe01 (4)
0xe00|00                                             |.               |
0xe00|   00                                          | .              |        dst: 0 (valid) 0xe01-0xe02 (1)
0xe00|      08                                       |  .             |        idx: 8 (valid) 0xe02-0xe03 (1)
     |                                               |                |      [5]{}: local_time_type 0xe03-0xe09 (6)
0xe00|         00 00 0e 10                           |   ....         |        utoff: 3600 (valid) 0xe03-0xe07 (4)
0xe00|                     00                        |       .        |        dst: 0 (valid) 0xe07-0xe08 (1)
0xe00|                        04                     |        .       |        idx: 4 (valid) 0xe08-0xe09 (1)
     |                                               |                |      [6]{}: local_time_type 0xe09-0xe0f (6)
0xe00|                           00 00 0e 10         |         ....   |        utoff: 3600 (valid) 0xe09-0xe0d (4)
0xe00|                                       01      |             .  |        dst: 1 (valid) 0xe0d-0xe0e (1)
0xe00|                                          04   |              . |        idx: 4 (valid) 0xe0e-0xe0f (1)
     |                                               |                |      [7]{}: local_time_type 0xe0f-0xe15 (6)
0xe00|                                             00|               .|        utoff: 0 (valid) 0xe0f-0xe13 (4)
0xe10|00 00 00                                       |...             |
0xe10|         00                                    |   .            |        dst: 0 (valid) 0xe13-0xe14 (1)
0xe10|            08                                 |    .           |        idx: 8 (valid) 0xe14-0xe15 (1)
     |                                               |                |    time_zone_designations[0:4]: 0xe15-0xe26 (17)
0xe10|               4c 4d 54 00                     |     LMT.       |      [0]: "LMT" time_zone_designation 0xe15-0xe19 (4)
0xe10|                           42 53 54 00         |         BST.   |      [1]: "BST" time_zone_designation 0xe19-0xe1d (4)
0xe10|                                       47 4d 54|             GMT|      [2]: "GMT" time_zone_designation 0xe1d-0xe21 (4)
0xe20|00                                             |.               |
0xe20|   42 44 53 54 00                              | BDST.          |      [3]: "BDST" time_zone_designation 0xe21-0xe26 (5)
     |                                               |                |    leap_second_records[0:0]: 0xe26-0xe26 (0)
     |                                               |                |    standard_wall_indicators[0:8]: 0xe26-0xe2e (8)
0xe20|                  00                           |      .         |      [0]: 0 standard_wall_indicator (valid) 0xe26-0xe27 (1)
0xe20|                     01                        |       .        |      [1]: 1 standard_wall_indicator (valid) 0xe27-0xe28 (1)
0xe20|                        01                     |        .       |      [2]: 1 standard_wall_indicator (valid) 0xe28-0xe29 (1)
0xe20|                           01                  |         .      |      [3]: 1 standard_wall_indicator (valid) 0xe29-0xe2a (1)
0xe20|                              00               |          .     |      [4]: 0 standard_wall_indicator (valid) 0xe2a-0xe2b (1)
0xe20|                                 00            |           .    |      [5]: 0 standard_wall_indicator (valid) 0xe2b-0xe2c (1)
0xe20|                                    01         |            .   |      [6]: 1 standard_wall_indicator (valid) 0xe2c-0xe2d (1)
0xe20|                                       01      |             .  |      [7]: 1 standard_wall_indicator (valid) 0xe2d-0xe2e (1)
     |                                               |                |    ut_local_indicators[0:8]: 0xe2e-0xe36 (8)
0xe20|                                          00   |              . |      [0]: 0 ut_local_indicator (valid) 0xe2e-0xe2f (1)
0xe20|                                             00|               .|      [1]: 0 ut_local_indicator (valid) 0xe2f-0xe30 (1)
0xe30|00                                             |.               |      [2]: 0 ut_local_indicator (valid) 0xe30-0xe31 (1)
0xe30|   00                                          | .              |      [3]: 0 ut_local_indicator (valid) 0xe31-0xe32 (1)
0xe30|      00                                       |  .             |      [4]: 0 ut_local_indicator (valid) 0xe32-0xe33 (1)
0xe30|         00                                    |   .            |      [5]: 0 ut_local_indicator (valid) 0xe33-0xe34 (1)
0xe30|            01                                 |    .           |      [6]: 1 ut_local_indicator (valid) 0xe34-0xe35 (1)
0xe30|               01                              |     .          |      [7]: 1 ut_local_indicator (valid) 0xe35-0xe36 (1)
     |                                               |                |  footer{}: 0xe36-0xe50 (26)
0xe30|                  0a                           |      .         |    nl1: 10 (valid) 0xe36-0xe37 (1)
0xe30|                     47 4d 54 30 42 53 54 2c 4d|       GMT0BST,M|    tz_string: "GMT0BST,M3.5.0/1,M10.5.0" 0xe37-0xe4f (24)
0xe40|33 2e 35 2e 30 2f 31 2c 4d 31 30 2e 35 2e 30   |3.5.0/1,M10.5.0 |
0xe40|                                             0a|               .|    nl2: 10 (valid) 0xe4f-0xe50 (1)
