$ fq -d tzif dv Lord_Howe
     |00 01 02 03 04 05 06 07 08 09 0a 0b 0c 0d 0e 0f|0123456789abcdef|.{}: Lord_Howe (tzif) 0x0-0x743.7 (1860)
     |                                               |                |  v1header{}: 0x0-0x2b.7 (44)
0x000|54 5a 69 66                                    |TZif            |    magic: 0x545a6966 (valid) 0x0-0x3.7 (4)
0x000|            32                                 |    2           |    ver: "2" (0x32) (valid) 0x4-0x4.7 (1)
0x000|               00 00 00 00 00 00 00 00 00 00 00|     ...........|    reserved: raw bits 0x5-0x13.7 (15)
0x010|00 00 00 00                                    |....            |
0x010|            00 00 00 00                        |    ....        |    isutcnt: 0 0x14-0x17.7 (4)
0x010|                        00 00 00 00            |        ....    |    isstdcnt: 0 0x18-0x1b.7 (4)
0x010|                                    00 00 00 00|            ....|    leapcnt: 0 0x1c-0x1f.7 (4)
0x020|00 00 00 74                                    |...t            |    timecnt: 116 0x20-0x23.7 (4)
0x020|            00 00 00 05                        |    ....        |    typecnt: 5 0x24-0x27.7 (4)
0x020|                        00 00 00 19            |        ....    |    charcnt: 25 0x28-0x2b.7 (4)
     |                                               |                |  v1datablock{}: 0x2c-0x2a6.7 (635)
     |                                               |                |    transition_times[0:116]: 0x2c-0x1fb.7 (464)
0x020|                                    80 00 00 00|            ....|      [0]: "1901-12-13T20:45:52Z" (-2147483648) transition_time 0x2c-0x2f.7 (4)
0x030|14 fe 66 e0                                    |..f.            |      [1]: "1981-02-28T14:00:00Z" (352216800) transition_time 0x30-0x33.7 (4)
0x030|            16 38 40 f8                        |    .8@.        |      [2]: "1981-10-24T15:30:00Z" (372785400) transition_time 0x34-0x37.7 (4)
0x030|                        16 e7 8a 68            |        ...h    |      [3]: "1982-03-06T14:30:00Z" (384273000) transition_time 0x38-0x3b.7 (4)
0x030|                                    18 21 5d 78|            .!]x|      [4]: "1982-10-30T15:30:00Z" (404839800) transition_time 0x3c-0x3f.7 (4)
0x040|18 c7 6c 68                                    |..lh            |      [5]: "1983-03-05T14:30:00Z" (415722600) transition_time 0x40-0x43.7 (4)
0x040|            1a 01 3f 78                        |    ..?x        |      [6]: "1983-10-29T15:30:00Z" (436289400) transition_time 0x44-0x47.7 (4)
0x040|                        1a a7 4e 68            |        ..Nh    |      [7]: "1984-03-03T14:30:00Z" (447172200) transition_time 0x48-0x4b.7 (4)
0x040|                                    1b e1 21 78|            ..!x|      [8]: "1984-10-27T15:30:00Z" (467739000) transition_time 0x4c-0x4f.7 (4)
0x050|1c 87 30 68                                    |..0h            |      [9]: "1985-03-02T14:30:00Z" (478621800) transition_time 0x50-0x53.7 (4)
0x050|            1d c1 03 78                        |    ...x        |      [10]: "1985-10-26T15:30:00Z" (499188600) transition_time 0x54-0x57.7 (4)
0x050|                        1e 79 8e 70            |        .y.p    |      [11]: "1986-03-15T15:00:00Z" (511282800) transition_time 0x58-0x5b.7 (4)
0x050|                                    1f 97 aa f8|            ....|      [12]: "1986-10-18T15:30:00Z" (530033400) transition_time 0x5c-0x5f.7 (4)
0x060|20 59 70 70                                    | Ypp            |      [13]: "1987-03-14T15:00:00Z" (542732400) transition_time 0x60-0x63.7 (4)
0x060|            21 80 c7 78                        |    !..x        |      [14]: "1987-10-24T15:30:00Z" (562087800) transition_time 0x64-0x67.7 (4)
0x060|                        22 42 8c f0            |        "B..    |      [15]: "1988-03-19T15:00:00Z" (574786800) transition_time 0x68-0x6b.7 (4)
0x060|                                    23 69 e3 f8|            #i..|      [16]: "1988-10-29T15:30:00Z" (594142200) transition_time 0x6c-0x6f.7 (4)
0x070|24 22 6e f0                                    |$"n.            |      [17]: "1989-03-18T15:00:00Z" (606236400) transition_time 0x70-0x73.7 (4)
0x070|            25 49 c5 f8                        |    %I..        |      [18]: "1989-10-28T15:30:00Z" (625591800) transition_time 0x74-0x77.7 (4)
0x070|                        25 ef db f0            |        %...    |      [19]: "1990-03-03T15:00:00Z" (636476400) transition_time 0x78-0x7b.7 (4)
0x070|                                    27 29 a7 f8|            ')..|      [20]: "1990-10-27T15:30:00Z" (657041400) transition_time 0x7c-0x7f.7 (4)
0x080|27 cf bd f0                                    |'...            |      [21]: "1991-03-02T15:00:00Z" (667926000) transition_time 0x80-0x83.7 (4)
0x080|            29 09 89 f8                        |    )...        |      [22]: "1991-10-26T15:30:00Z" (688491000) transition_time 0x84-0x87.7 (4)
0x080|                        29 af 9f f0            |        )...    |      [23]: "1992-02-29T15:00:00Z" (699375600) transition_time 0x88-0x8b.7 (4)
0x080|                                    2a e9 6b f8|            *.k.|      [24]: "1992-10-24T15:30:00Z" (719940600) transition_time 0x8c-0x8f.7 (4)
0x090|2b 98 bc 70                                    |+..p            |      [25]: "1993-03-06T15:00:00Z" (731430000) transition_time 0x90-0x93.7 (4)
0x090|            2c d2 88 78                        |    ,..x        |      [26]: "1993-10-30T15:30:00Z" (751995000) transition_time 0x94-0x97.7 (4)
0x090|                        2d 78 9e 70            |        -x.p    |      [27]: "1994-03-05T15:00:00Z" (762879600) transition_time 0x98-0x9b.7 (4)
0x090|                                    2e b2 6a 78|            ..jx|      [28]: "1994-10-29T15:30:00Z" (783444600) transition_time 0x9c-0x9f.7 (4)
0x0a0|2f 58 80 70                                    |/X.p            |      [29]: "1995-03-04T15:00:00Z" (794329200) transition_time 0xa0-0xa3.7 (4)
0x0a0|            30 92 4c 78                        |    0.Lx        |      [30]: "1995-10-28T15:30:00Z" (814894200) transition_time 0xa4-0xa7.7 (4)
0x0a0|                        31 5d 4c 70            |        1]Lp    |      [31]: "1996-03-30T15:00:00Z" (828198000) transition_time 0xa8-0xab.7 (4)
0x0a0|                                    32 72 2e 78|            2r.x|      [32]: "1996-10-26T15:30:00Z" (846343800) transition_time 0xac-0xaf.7 (4)
0x0b0|33 3d 2e 70                                    |3=.p            |      [33]: "1997-03-29T15:00:00Z" (859647600) transition_time 0xb0-0xb3.7 (4)
0x0b0|            34 52 10 78                        |    4R.x        |      [34]: "1997-10-25T15:30:00Z" (877793400) transition_time 0xb4-0xb7.7 (4)
0x0b0|                        35 1d 10 70            |        5..p    |      [35]: "1998-03-28T15:00:00Z" (891097200) transition_time 0xb8-0xbb.7 (4)
0x0b0|                                    36 31 f2 78|            61.x|      [36]: "1998-10-24T15:30:00Z" (909243000) transition_time 0xbc-0xbf.7 (4)
0x0c0|36 fc f2 70                                    |6..p            |      [37]: "1999-03-27T15:00:00Z" (922546800) transition_time 0xc0-0xc3.7 (4)
0x0c0|            38 1b 0e f8                        |    8...        |      [38]: "1999-10-30T15:30:00Z" (941297400) transition_time 0xc4-0xc7.7 (4)
0x0c0|                        38 dc d4 70            |        8..p    |      [39]: "2000-03-25T15:00:00Z" (953996400) transition_time 0xc8-0xcb.7 (4)
0x0c0|                                    39 a7 e2 78|            9..x|      [40]: "2000-08-26T15:30:00Z" (967303800) transition_time 0xcc-0xcf.7 (4)
0x0d0|3a bc b6 70                                    |:..p            |      [41]: "2001-03-24T15:00:00Z" (985446000) transition_time 0xd0-0xd3.7 (4)
0x0d0|            3b da d2 f8                        |    ;...        |      [42]: "2001-10-27T15:30:00Z" (1004196600) transition_time 0xd4-0xd7.7 (4)
0x0d0|                        3c a5 d2 f0            |        <...    |      [43]: "2002-03-30T15:00:00Z" (1017500400) transition_time 0xd8-0xdb.7 (4)
0x0d0|                                    3d ba b4 f8|            =...|      [44]: "2002-10-26T15:30:00Z" (1035646200) transition_time 0xdc-0xdf.7 (4)
0x0e0|3e 85 b4 f0                                    |>...            |      [45]: "2003-03-29T15:00:00Z" (1048950000) transition_time 0xe0-0xe3.7 (4)
0x0e0|            3f 9a 96 f8                        |    ?...        |      [46]: "2003-10-25T15:30:00Z" (1067095800) transition_time 0xe4-0xe7.7 (4)
0x0e0|                        40 65 96 f0            |        @e..    |      [47]: "2004-03-27T15:00:00Z" (1080399600) transition_time 0xe8-0xeb.7 (4)
0x0e0|                                    41 83 b3 78|            A..x|      [48]: "2004-10-30T15:30:00Z" (1099150200) transition_time 0xec-0xef.7 (4)
0x0f0|42 45 78 f0                                    |BEx.            |      [49]: "2005-03-26T15:00:00Z" (1111849200) transition_time 0xf0-0xf3.7 (4)
0x0f0|            43 63 95 78                        |    Cc.x        |      [50]: "2005-10-29T15:30:00Z" (1130599800) transition_time 0xf4-0xf7.7 (4)
0x0f0|                        44 2e 95 70            |        D..p    |      [51]: "2006-04-01T15:00:00Z" (1143903600) transition_time 0xf8-0xfb.7 (4)
0x0f0|                                    45 43 77 78|            ECwx|      [52]: "2006-10-28T15:30:00Z" (1162049400) transition_time 0xfc-0xff.7 (4)
0x100|46 05 3c f0                                    |F.<.            |      [53]: "2007-03-24T15:00:00Z" (1174748400) transition_time 0x100-0x103.7 (4)
0x100|            47 23 59 78                        |    G#Yx        |      [54]: "2007-10-27T15:30:00Z" (1193499000) transition_time 0x104-0x107.7 (4)
0x100|                        47 f7 93 f0            |        G...    |      [55]: "2008-04-05T15:00:00Z" (1207407600) transition_time 0x108-0x10b.7 (4)
0x100|                                    48 e7 8b f8|            H...|      [56]: "2008-10-04T15:30:00Z" (1223134200) transition_time 0x10c-0x10f.7 (4)
0x110|49 d7 75 f0                                    |I.u.            |      [57]: "2009-04-04T15:00:00Z" (1238857200) transition_time 0x110-0x113.7 (4)
0x110|            4a c7 6d f8                        |    J.m.        |      [58]: "2009-10-03T15:30:00Z" (1254583800) transition_time 0x114-0x117.7 (4)
0x110|                        4b b7 57 f0            |        K.W.    |      [59]: "2010-04-03T15:00:00Z" (1270306800) transition_time 0x118-0x11b.7 (4)
0x110|                                    4c a7 4f f8|            L.O.|      [60]: "2010-10-02T15:30:00Z" (1286033400) transition_time 0x11c-0x11f.7 (4)
0x120|4d 97 39 f0                                    |M.9.            |      [61]: "2011-04-02T15:00:00Z" (1301756400) transition_time 0x120-0x123.7 (4)
0x120|            4e 87 31 f8                        |    N.1.        |      [62]: "2011-10-01T15:30:00Z" (1317483000) transition_time 0x124-0x127.7 (4)
0x120|                        4f 77 1b f0            |        Ow..    |      [63]: "2012-03-31T15:00:00Z" (1333206000) transition_time 0x128-0x12b.7 (4)
0x120|                                    50 70 4e 78|            PpNx|      [64]: "2012-10-06T15:30:00Z" (1349537400) transition_time 0x12c-0x12f.7 (4)
0x130|51 60 38 70                                    |Q`8p            |      [65]: "2013-04-06T15:00:00Z" (1365260400) transition_time 0x130-0x133.7 (4)
0x130|            52 50 30 78                        |    RP0x        |      [66]: "2013-10-05T15:30:00Z" (1380987000) transition_time 0x134-0x137.7 (4)
0x130|                        53 40 1a 70            |        S@.p    |      [67]: "2014-04-05T15:00:00Z" (1396710000) transition_time 0x138-0x13b.7 (4)
0x130|                                    54 30 12 78|            T0.x|      [68]: "2014-10-04T15:30:00Z" (1412436600) transition_time 0x13c-0x13f.7 (4)
0x140|55 1f fc 70                                    |U..p            |      [69]: "2015-04-04T15:00:00Z" (1428159600) transition_time 0x140-0x143.7 (4)
0x140|            56 0f f4 78                        |    V..x        |      [70]: "2015-10-03T15:30:00Z" (1443886200) transition_time 0x144-0x147.7 (4)
0x140|                        56 ff de 70            |        V..p    |      [71]: "2016-04-02T15:00:00Z" (1459609200) transition_time 0x148-0x14b.7 (4)
0x140|                                    57 ef d6 78|            W..x|      [72]: "2016-10-01T15:30:00Z" (1475335800) transition_time 0x14c-0x14f.7 (4)
0x150|58 df c0 70                                    |X..p            |      [73]: "2017-04-01T15:00:00Z" (1491058800) transition_time 0x150-0x153.7 (4)
0x150|            59 cf b8 78                        |    Y..x        |      [74]: "2017-09-30T15:30:00Z" (1506785400) transition_time 0x154-0x157.7 (4)
0x150|                        5a bf a2 70            |        Z..p    |      [75]: "2018-03-31T15:00:00Z" (1522508400) transition_time 0x158-0x15b.7 (4)
0x150|                                    5b b8 d4 f8|            [...|      [76]: "2018-10-06T15:30:00Z" (1538839800) transition_time 0x15c-0x15f.7 (4)
0x160|5c a8 be f0                                    |\...            |      [77]: "2019-04-06T15:00:00Z" (1554562800) transition_time 0x160-0x163.7 (4)
0x160|            5d 98 b6 f8                        |    ]...        |      [78]: "2019-10-05T15:30:00Z" (1570289400) transition_time 0x164-0x167.7 (4)
0x160|                        5e 88 a0 f0            |        ^...    |      [79]: "2020-04-04T15:00:00Z" (1586012400) transition_time 0x168-0x16b.7 (4)
0x160|                                    5f 78 98 f8|            _x..|      [80]: "2020-10-03T15:30:00Z" (1601739000) transition_time 0x16c-0x16f.7 (4)
0x170|60 68 82 f0                                    |`h..            |      [81]: "2021-04-03T15:00:00Z" (1617462000) transition_time 0x170-0x173.7 (4)
0x170|            61 58 7a f8                        |    aXz.        |      [82]: "2021-10-02T15:30:00Z" (1633188600) transition_time 0x174-0x177.7 (4)
0x170|                        62 48 64 f0            |        bHd.    |      [83]: "2022-04-02T15:00:00Z" (1648911600) transition_time 0x178-0x17b.7 (4)
0x170|                                    63 38 5c f8|            c8\.|      [84]: "2022-10-01T15:30:00Z" (1664638200) transition_time 0x17c-0x17f.7 (4)
0x180|64 28 46 f0                                    |d(F.            |      [85]: "2023-04-01T15:00:00Z" (1680361200) transition_time 0x180-0x183.7 (4)
0x180|            65 18 3e f8                        |    e.>.        |      [86]: "2023-09-30T15:30:00Z" (1696087800) transition_time 0x184-0x187.7 (4)
0x180|                        66 11 63 70            |        f.cp    |      [87]: "2024-04-06T15:00:00Z" (1712415600) transition_time 0x188-0x18b.7 (4)
0x180|                                    67 01 5b 78|            g.[x|      [88]: "2024-10-05T15:30:00Z" (1728142200) transition_time 0x18c-0x18f.7 (4)
0x190|67 f1 45 70                                    |g.Ep            |      [89]: "2025-04-05T15:00:00Z" (1743865200) transition_time 0x190-0x193.7 (4)
0x190|            68 e1 3d 78                        |    h.=x        |      [90]: "2025-10-04T15:30:00Z" (1759591800) transition_time 0x194-0x197.7 (4)
0x190|                        69 d1 27 70            |        i.'p    |      [91]: "2026-04-04T15:00:00Z" (1775314800) transition_time 0x198-0x19b.7 (4)
0x190|                                    6a c1 1f 78|            j..x|      [92]: "2026-10-03T15:30:00Z" (1791041400) transition_time 0x19c-0x19f.7 (4)
0x1a0|6b b1 09 70                                    |k..p            |      [93]: "2027-04-03T15:00:00Z" (1806764400) transition_time 0x1a0-0x1a3.7 (4)
0x1a0|            6c a1 01 78                        |    l..x        |      [94]: "2027-10-02T15:30:00Z" (1822491000) transition_time 0x1a4-0x1a7.7 (4)
0x1a0|                        6d 90 eb 70            |        m..p    |      [95]: "2028-04-01T15:00:00Z" (1838214000) transition_time 0x1a8-0x1ab.7 (4)
0x1a0|                                    6e 80 e3 78|            n..x|      [96]: "2028-09-30T15:30:00Z" (1853940600) transition_time 0x1ac-0x1af.7 (4)
0x1b0|6f 70 cd 70                                    |op.p            |      [97]: "2029-03-31T15:00:00Z" (1869663600) transition_time 0x1b0-0x1b3.7 (4)
0x1b0|            70 69 ff f8                        |    pi..        |      [98]: "2029-10-06T15:30:00Z" (1885995000) transition_time 0x1b4-0x1b7.7 (4)
0x1b0|                        71 59 e9 f0            |        qY..    |      [99]: "2030-04-06T15:00:00Z" (1901718000) transition_time 0x1b8-0x1bb.7 (4)
0x1b0|                                    72 49 e1 f8|            rI..|      [100]: "2030-10-05T15:30:00Z" (1917444600) transition_time 0x1bc-0x1bf.7 (4)
0x1c0|73 39 cb f0                                    |s9..            |      [101]: "2031-04-05T15:00:00Z" (1933167600) transition_time 0x1c0-0x1c3.7 (4)
0x1c0|            74 29 c3 f8                        |    t)..        |      [102]: "2031-10-04T15:30:00Z" (1948894200) transition_time 0x1c4-0x1c7.7 (4)
0x1c0|                        75 19 ad f0            |        u...    |      [103]: "2032-04-03T15:00:00Z" (1964617200) transition_time 0x1c8-0x1cb.7 (4)
0x1c0|                                    76 09 a5 f8|            v...|      [104]: "2032-10-02T15:30:00Z" (1980343800) transition_time 0x1cc-0x1cf.7 (4)
0x1d0|76 f9 8f f0                                    |v...            |      [105]: "2033-04-02T15:00:00Z" (1996066800) transition_time 0x1d0-0x1d3.7 (4)
0x1d0|            77 e9 87 f8                        |    w...        |      [106]: "2033-10-01T15:30:00Z" (2011793400) transition_time 0x1d4-0x1d7.7 (4)
0x1d0|                        78 d9 71 f0            |        x.q.    |      [107]: "2034-04-01T15:00:00Z" (2027516400) transition_time 0x1d8-0x1db.7 (4)
0x1d0|                                    79 c9 69 f8|            y.i.|      [108]: "2034-09-30T15:30:00Z" (2043243000) transition_time 0x1dc-0x1df.7 (4)
0x1e0|7a b9 53 f0                                    |z.S.            |      [109]: "2035-03-31T15:00:00Z" (2058966000) transition_time 0x1e0-0x1e3.7 (4)
0x1e0|            7b b2 86 78                        |    {..x        |      [110]: "2035-10-06T15:30:00Z" (2075297400) transition_time 0x1e4-0x1e7.7 (4)
0x1e0|                        7c a2 70 70            |        |.pp    |      [111]: "2036-04-05T15:00:00Z" (2091020400) transition_time 0x1e8-0x1eb.7 (4)
0x1e0|                                    7d 92 68 78|            }.hx|      [112]: "2036-10-04T15:30:00Z" (2106747000) transition_time 0x1ec-0x1ef.7 (4)
0x1f0|7e 82 52 70                                    |~.Rp            |      [113]: "2037-04-04T15:00:00Z" (2122470000) transition_time 0x1f0-0x1f3.7 (4)
0x1f0|            7f 72 4a 78                        |    .rJx        |      [114]: "2037-10-03T15:30:00Z" (2138196600) transition_time 0x1f4-0x1f7.7 (4)
0x1f0|                        7f ff ff ff            |        ....    |      [115]: "2038-01-19T03:14:07Z" (2147483647) transition_time 0x1f8-0x1fb.7 (4)
     |                                               |                |    transition_types[0:116]: 0x1fc-0x26f.7 (116)
0x1f0|                                    01         |            .   |      [0]: 1 transition_type 0x1fc-0x1fc.7 (1)
0x1f0|                                       03      |             .  |      [1]: 3 transition_type 0x1fd-0x1fd.7 (1)
0x1f0|                                          02   |              . |      [2]: 2 transition_type 0x1fe-0x1fe.7 (1)
0x1f0|                                             03|               .|      [3]: 3 transition_type 0x1ff-0x1ff.7 (1)
0x200|02                                             |.               |      [4]: 2 transition_type 0x200-0x200.7 (1)
0x200|   03                                          | .              |      [5]: 3 transition_type 0x201-0x201.7 (1)
0x200|      02                                       |  .             |      [6]: 2 transition_type 0x202-0x202.7 (1)
0x200|         03                                    |   .            |      [7]: 3 transition_type 0x203-0x203.7 (1)
0x200|            02                                 |    .           |      [8]: 2 transition_type 0x204-0x204.7 (1)
0x200|               03                              |     .          |      [9]: 3 transition_type 0x205-0x205.7 (1)
0x200|                  04                           |      .         |      [10]: 4 transition_type 0x206-0x206.7 (1)
0x200|                     03                        |       .        |      [11]: 3 transition_type 0x207-0x207.7 (1)
0x200|                        04                     |        .       |      [12]: 4 transition_type 0x208-0x208.7 (1)
0x200|                           03                  |         .      |      [13]: 3 transition_type 0x209-0x209.7 (1)
0x200|                              04               |          .     |      [14]: 4 transition_type 0x20a-0x20a.7 (1)
0x200|                                 03            |           .    |      [15]: 3 transition_type 0x20b-0x20b.7 (1)
0x200|                                    04         |            .   |      [16]: 4 transition_type 0x20c-0x20c.7 (1)
0x200|                                       03      |             .  |      [17]: 3 transition_type 0x20d-0x20d.7 (1)
0x200|                                          04   |              . |      [18]: 4 transition_type 0x20e-0x20e.7 (1)
0x200|                                             03|               .|      [19]: 3 transition_type 0x20f-0x20f.7 (1)
0x210|04                                             |.               |      [20]: 4 transition_type 0x210-0x210.7 (1)
0x210|   03                                          | .              |      [21]: 3 transition_type 0x211-0x211.7 (1)
0x210|      04                                       |  .             |      [22]: 4 transition_type 0x212-0x212.7 (1)
0x210|         03                                    |   .            |      [23]: 3 transition_type 0x213-0x213.7 (1)
0x210|            04                                 |    .           |      [24]: 4 transition_type 0x214-0x214.7 (1)
0x210|               03                              |     .          |      [25]: 3 transition_type 0x215-0x215.7 (1)
0x210|                  04                           |      .         |      [26]: 4 transition_type 0x216-0x216.7 (1)
0x210|                     03                        |       .        |      [27]: 3 transition_type 0x217-0x217.7 (1)
0x210|                        04                     |        .       |      [28]: 4 transition_type 0x218-0x218.7 (1)
0x210|                           03                  |         .      |      [29]: 3 transition_type 0x219-0x219.7 (1)
0x210|                              04               |          .     |      [30]: 4 transition_type 0x21a-0x21a.7 (1)
0x210|                                 03            |           .    |      [31]: 3 transition_type 0x21b-0x21b.7 (1)
0x210|                                    04         |            .   |      [32]: 4 transition_type 0x21c-0x21c.7 (1)
0x210|                                       03      |             .  |      [33]: 3 transition_type 0x21d-0x21d.7 (1)
0x210|                                          04   |              . |      [34]: 4 transition_type 0x21e-0x21e.7 (1)
0x210|                                             03|               .|      [35]: 3 transition_type 0x21f-0x21f.7 (1)
0x220|04                                             |.               |      [36]: 4 transition_type 0x220-0x220.7 (1)
0x220|   03                                          | .              |      [37]: 3 transition_type 0x221-0x221.7 (1)
0x220|      04                                       |  .             |      [38]: 4 transition_type 0x222-0x222.7 (1)
0x220|         03                                    |   .            |      [39]: 3 transition_type 0x223-0x223.7 (1)
0x220|            04                                 |    .           |      [40]: 4 transition_type 0x224-0x224.7 (1)
0x220|               03                              |     .          |      [41]: 3 transition_type 0x225-0x225.7 (1)
0x220|                  04                           |      .         |      [42]: 4 transition_type 0x226-0x226.7 (1)
0x220|                     03                        |       .        |      [43]: 3 transition_type 0x227-0x227.7 (1)
0x220|                        04                     |        .       |      [44]: 4 transition_type 0x228-0x228.7 (1)
0x220|                           03                  |         .      |      [45]: 3 transition_type 0x229-0x229.7 (1)
0x220|                              04               |          .     |      [46]: 4 transition_type 0x22a-0x22a.7 (1)
0x220|                                 03            |           .    |      [47]: 3 transition_type 0x22b-0x22b.7 (1)
0x220|                                    04         |            .   |      [48]: 4 transition_type 0x22c-0x22c.7 (1)
0x220|                                       03      |             .  |      [49]: 3 transition_type 0x22d-0x22d.7 (1)
0x220|                                          04   |              . |      [50]: 4 transition_type 0x22e-0x22e.7 (1)
0x220|                                             03|               .|      [51]: 3 transition_type 0x22f-0x22f.7 (1)
0x230|04                                             |.               |      [52]: 4 transition_type 0x230-0x230.7 (1)
0x230|   03                                          | .              |      [53]: 3 transition_type 0x231-0x231.7 (1)
0x230|      04                                       |  .             |      [54]: 4 transition_type 0x232-0x232.7 (1)
0x230|         03                                    |   .            |      [55]: 3 transition_type 0x233-0x233.7 (1)
0x230|            04                                 |    .           |      [56]: 4 transition_type 0x234-0x234.7 (1)
0x230|               03                              |     .          |      [57]: 3 transition_type 0x235-0x235.7 (1)
0x230|                  04                           |      .         |      [58]: 4 transition_type 0x236-0x236.7 (1)
0x230|                     03                        |       .        |      [59]: 3 transition_type 0x237-0x237.7 (1)
0x230|                        04                     |        .       |      [60]: 4 transition_type 0x238-0x238.7 (1)
0x230|                           03                  |         .      |      [61]: 3 transition_type 0x239-0x239.7 (1)
0x230|                              04               |          .     |      [62]: 4 transition_type 0x23a-0x23a.7 (1)
0x230|                                 03            |           .    |      [63]: 3 transition_type 0x23b-0x23b.7 (1)
0x230|                                    04         |            .   |      [64]: 4 transition_type 0x23c-0x23c.7 (1)
0x230|                                       03      |             .  |      [65]: 3 transition_type 0x23d-0x23d.7 (1)
0x230|                                          04   |              . |      [66]: 4 transition_type 0x23e-0x23e.7 (1)
0x230|                                             03|               .|      [67]: 3 transition_type 0x23f-0x23f.7 (1)
0x240|04                                             |.               |      [68]: 4 transition_type 0x240-0x240.7 (1)
0x240|   03                                          | .              |      [69]: 3 transition_type 0x241-0x241.7 (1)
0x240|      04                                       |  .             |      [70]: 4 transition_type 0x242-0x242.7 (1)
0x240|         03                                    |   .            |      [71]: 3 transition_type 0x243-0x243.7 (1)
0x240|            04                                 |    .           |      [72]: 4 transition_type 0x244-0x244.7 (1)
0x240|               03                              |     .          |      [73]: 3 transition_type 0x245-0x245.7 (1)
0x240|                  04                           |      .         |      [74]: 4 transition_type 0x246-0x246.7 (1)
0x240|                     03                        |       .        |      [75]: 3 transition_type 0x247-0x247.7 (1)
0x240|                        04                     |        .       |      [76]: 4 transition_type 0x248-0x248.7 (1)
0x240|                           03                  |         .      |      [77]: 3 transition_type 0x249-0x249.7 (1)
0x240|                              04               |          .     |      [78]: 4 transition_type 0x24a-0x24a.7 (1)
0x240|                                 03            |           .    |      [79]: 3 transition_type 0x24b-0x24b.7 (1)
0x240|                                    04         |            .   |      [80]: 4 transition_type 0x24c-0x24c.7 (1)
0x240|                                       03      |             .  |      [81]: 3 transition_type 0x24d-0x24d.7 (1)
0x240|                                          04   |              . |      [82]: 4 transition_type 0x24e-0x24e.7 (1)
0x240|                                             03|               .|      [83]: 3 transition_type 0x24f-0x24f.7 (1)
0x250|04                                             |.               |      [84]: 4 transition_type 0x250-0x250.7 (1)
0x250|   03                                          | .              |      [85]: 3 transition_type 0x251-0x251.7 (1)
0x250|      04                                       |  .             |      [86]: 4 transition_type 0x252-0x252.7 (1)
0x250|         03                                    |   .            |      [87]: 3 transition_type 0x253-0x253.7 (1)
0x250|            04                                 |    .           |      [88]: 4 transition_type 0x254-0x254.7 (1)
0x250|               03                              |     .          |      [89]: 3 transition_type 0x255-0x255.7 (1)
0x250|                  04                           |      .         |      [90]: 4 transition_type 0x256-0x256.7 (1)
0x250|                     03                        |       .        |      [91]: 3 transition_type 0x257-0x257.7 (1)
0x250|                        04                     |        .       |      [92]: 4 transition_type 0x258-0x258.7 (1)
0x250|                           03                  |         .      |      [93]: 3 transition_type 0x259-0x259.7 (1)
0x250|                              04               |          .     |      [94]: 4 transition_type 0x25a-0x25a.7 (1)
0x250|                                 03            |           .    |      [95]: 3 transition_type 0x25b-0x25b.7 (1)
0x250|                                    04         |            .   |      [96]: 4 transition_type 0x25c-0x25c.7 (1)
0x250|                                       03      |             .  |      [97]: 3 transition_type 0x25d-0x25d.7 (1)
0x250|                                          04   |              . |      [98]: 4 transition_type 0x25e-0x25e.7 (1)
0x250|                                             03|               .|      [99]: 3 transition_type 0x25f-0x25f.7 (1)
0x260|04                                             |.               |      [100]: 4 transition_type 0x260-0x260.7 (1)
0x260|   03                                          | .              |      [101]: 3 transition_type 0x261-0x261.7 (1)
0x260|      04                                       |  .             |      [102]: 4 transition_type 0x262-0x262.7 (1)
0x260|         03                                    |   .            |      [103]: 3 transition_type 0x263-0x263.7 (1)
0x260|            04                                 |    .           |      [104]: 4 transition_type 0x264-0x264.7 (1)
0x260|               03                              |     .          |      [105]: 3 transition_type 0x265-0x265.7 (1)
0x260|                  04                           |      .         |      [106]: 4 transition_type 0x266-0x266.7 (1)
0x260|                     03                        |       .        |      [107]: 3 transition_type 0x267-0x267.7 (1)
0x260|                        04                     |        .       |      [108]: 4 transition_type 0x268-0x268.7 (1)
0x260|                           03                  |         .      |      [109]: 3 transition_type 0x269-0x269.7 (1)
0x260|                              04               |          .     |      [110]: 4 transition_type 0x26a-0x26a.7 (1)
0x260|                                 03            |           .    |      [111]: 3 transition_type 0x26b-0x26b.7 (1)
0x260|                                    04         |            .   |      [112]: 4 transition_type 0x26c-0x26c.7 (1)
0x260|                                       03      |             .  |      [113]: 3 transition_type 0x26d-0x26d.7 (1)
0x260|                                          04   |              . |      [114]: 4 transition_type 0x26e-0x26e.7 (1)
0x260|                                             04|               .|      [115]: 4 transition_type 0x26f-0x26f.7 (1)
     |                                               |                |    local_time_type_records[0:5]: 0x270-0x28d.7 (30)
     |                                               |                |      [0]{}: local_time_type 0x270-0x275.7 (6)
0x270|00 00 95 24                                    |...$            |        utoff: 38180 (valid) 0x270-0x273.7 (4)
0x270|            00                                 |    .           |        dst: 0 (valid) 0x274-0x274.7 (1)
0x270|               00                              |     .          |        idx: 0 (valid) 0x275-0x275.7 (1)
     |                                               |                |      [1]{}: local_time_type 0x276-0x27b.7 (6)
0x270|                  00 00 8c a0                  |      ....      |        utoff: 36000 (valid) 0x276-0x279.7 (4)
0x270|                              00               |          .     |        dst: 0 (valid) 0x27a-0x27a.7 (1)
0x270|                                 04            |           .    |        idx: 4 (valid) 0x27b-0x27b.7 (1)
     |                                               |                |      [2]{}: local_time_type 0x27c-0x281.7 (6)
0x270|                                    00 00 a1 b8|            ....|        utoff: 41400 (valid) 0x27c-0x27f.7 (4)
0x280|01                                             |.               |        dst: 1 (valid) 0x280-0x280.7 (1)
0x280|   09                                          | .              |        idx: 9 (valid) 0x281-0x281.7 (1)
     |                                               |                |      [3]{}: local_time_type 0x282-0x287.7 (6)
0x280|      00 00 93 a8                              |  ....          |        utoff: 37800 (valid) 0x282-0x285.7 (4)
0x280|                  00                           |      .         |        dst: 0 (valid) 0x286-0x286.7 (1)
0x280|                     0f                        |       .        |        idx: 15 (valid) 0x287-0x287.7 (1)
     |                                               |                |      [4]{}: local_time_type 0x288-0x28d.7 (6)
0x280|                        00 00 9a b0            |        ....    |        utoff: 39600 (valid) 0x288-0x28b.7 (4)
0x280|                                    01         |            .   |        dst: 1 (valid) 0x28c-0x28c.7 (1)
0x280|                                       15      |             .  |        idx: 21 (valid) 0x28d-0x28d.7 (1)
     |                                               |                |    time_zone_designations[0:5]: 0x28e-0x2a6.7 (25)
0x280|                                          4c 4d|              LM|      [0]: "LMT" time_zone_designation 0x28e-0x291.7 (4)
0x290|54 00                                          |T.              |
0x290|      41 45 53 54 00                           |  AEST.         |      [1]: "AEST" time_zone_designation 0x292-0x296.7 (5)
0x290|                     2b 31 31 33 30 00         |       +1130.   |      [2]: "+1130" time_zone_designation 0x297-0x29c.7 (6)
0x290|                                       2b 31 30|             +10|      [3]: "+1030" time_zone_designation 0x29d-0x2a2.7 (6)
0x2a0|33 30 00                                       |30.             |
0x2a0|         2b 31 31 00                           |   +11.         |      [4]: "+11" time_zone_designation 0x2a3-0x2a6.7 (4)
     |                                               |                |    leap_second_records[0:0]: 0x2a7-NA (0)
     |                                               |                |    standard_wall_indicators[0:0]: 0x2a7-NA (0)
     |                                               |                |    ut_local_indicators[0:0]: 0x2a7-NA (0)
     |                                               |                |  v2plusheader{}: 0x2a7-0x2d2.7 (44)
0x2a0|                     54 5a 69 66               |       TZif     |    magic: 0x545a6966 (valid) 0x2a7-0x2aa.7 (4)
0x2a0|                                 32            |           2    |    ver: "2" (0x32) (valid) 0x2ab-0x2ab.7 (1)
0x2a0|                                    00 00 00 00|            ....|    reserved: raw bits 0x2ac-0x2ba.7 (15)
0x2b0|00 00 00 00 00 00 00 00 00 00 00               |...........     |
0x2b0|                                 00 00 00 00   |           .... |    isutcnt: 0 0x2bb-0x2be.7 (4)
0x2b0|                                             00|               .|    isstdcnt: 0 0x2bf-0x2c2.7 (4)
0x2c0|00 00 00                                       |...             |
0x2c0|         00 00 00 00                           |   ....         |    leapcnt: 0 0x2c3-0x2c6.7 (4)
0x2c0|                     00 00 00 74               |       ...t     |    timecnt: 116 0x2c7-0x2ca.7 (4)
0x2c0|                                 00 00 00 05   |           .... |    typecnt: 5 0x2cb-0x2ce.7 (4)
0x2c0|                                             00|               .|    charcnt: 25 0x2cf-0x2d2.7 (4)
0x2d0|00 00 19                                       |...             |
     |                                               |                |  v2plusdatablock{}: 0x2d3-0x71d.7 (1099)
     |                                               |                |    transition_times[0:116]: 0x2d3-0x672.7 (928)
0x2d0|         ff ff ff ff 73 16 77 dc               |   ....s.w.     |      [0]: "1895-01-31T13:23:40Z" (-2364114980) transition_time 0x2d3-0x2da.7 (8)
0x2d0|                                 00 00 00 00 14|           .....|      [1]: "1981-02-28T14:00:00Z" (352216800) transition_time 0x2db-0x2e2.7 (8)
0x2e0|fe 66 e0                                       |.f.             |
0x2e0|         00 00 00 00 16 38 40 f8               |   .....8@.     |      [2]: "1981-10-24T15:30:00Z" (372785400) transition_time 0x2e3-0x2ea.7 (8)
0x2e0|                                 00 00 00 00 16|           .....|      [3]: "1982-03-06T14:30:00Z" (384273000) transition_time 0x2eb-0x2f2.7 (8)
0x2f0|e7 8a 68                                       |..h             |
0x2f0|         00 00 00 00 18 21 5d 78               |   .....!]x     |      [4]: "1982-10-30T15:30:00Z" (404839800) transition_time 0x2f3-0x2fa.7 (8)
0x2f0|                                 00 00 00 00 18|           .....|      [5]: "1983-03-05T14:30:00Z" (415722600) transition_time 0x2fb-0x302.7 (8)
0x300|c7 6c 68                                       |.lh             |
0x300|         00 00 00 00 1a 01 3f 78               |   ......?x     |      [6]: "1983-10-29T15:30:00Z" (436289400) transition_time 0x303-0x30a.7 (8)
0x300|                                 00 00 00 00 1a|           .....|      [7]: "1984-03-03T14:30:00Z" (447172200) transition_time 0x30b-0x312.7 (8)
0x310|a7 4e 68                                       |.Nh             |
0x310|         00 00 00 00 1b e1 21 78               |   ......!x     |      [8]: "1984-10-27T15:30:00Z" (467739000) transition_time 0x313-0x31a.7 (8)
0x310|                                 00 00 00 00 1c|           .....|      [9]: "1985-03-02T14:30:00Z" (478621800) transition_time 0x31b-0x322.7 (8)
0x320|87 30 68                                       |.0h             |
0x320|         00 00 00 00 1d c1 03 78               |   .......x     |      [10]: "1985-10-26T15:30:00Z" (499188600) transition_time 0x323-0x32a.7 (8)
0x320|                                 00 00 00 00 1e|           .....|      [11]: "1986-03-15T15:00:00Z" (511282800) transition_time 0x32b-0x332.7 (8)
0x330|79 8e 70                                       |y.p             |
0x330|         00 00 00 00 1f 97 aa f8               |   ........     |      [12]: "1986-10-18T15:30:00Z" (530033400) transition_time 0x333-0x33a.7 (8)
0x330|                                 00 00 00 00 20|           .... |      [13]: "1987-03-14T15:00:00Z" (542732400) transition_time 0x33b-0x342.7 (8)
0x340|59 70 70                                       |Ypp             |
0x340|         00 00 00 00 21 80 c7 78               |   ....!..x     |      [14]: "1987-10-24T15:30:00Z" (562087800) transition_time 0x343-0x34a.7 (8)
0x340|                                 00 00 00 00 22|           ...."|      [15]: "1988-03-19T15:00:00Z" (574786800) transition_time 0x34b-0x352.7 (8)
0x350|42 8c f0                                       |B..             |
0x350|         00 00 00 00 23 69 e3 f8               |   ....#i..     |      [16]: "1988-10-29T15:30:00Z" (594142200) transition_time 0x353-0x35a.7 (8)
0x350|                                 00 00 00 00 24|           ....$|      [17]: "1989-03-18T15:00:00Z" (606236400) transition_time 0x35b-0x362.7 (8)
0x360|22 6e f0                                       |"n.             |
0x360|         00 00 00 00 25 49 c5 f8               |   ....%I..     |      [18]: "1989-10-28T15:30:00Z" (625591800) transition_time 0x363-0x36a.7 (8)
0x360|                                 00 00 00 00 25|           ....%|      [19]: "1990-03-03T15:00:00Z" (636476400) transition_time 0x36b-0x372.7 (8)
0x370|ef db f0                                       |...             |
0x370|         00 00 00 00 27 29 a7 f8               |   ....')..     |      [20]: "1990-10-27T15:30:00Z" (657041400) transition_time 0x373-0x37a.7 (8)
0x370|                                 00 00 00 00 27|           ....'|      [21]: "1991-03-02T15:00:00Z" (667926000) transition_time 0x37b-0x382.7 (8)
0x380|cf bd f0                                       |...             |
0x380|         00 00 00 00 29 09 89 f8               |   ....)...     |      [22]: "1991-10-26T15:30:00Z" (688491000) transition_time 0x383-0x38a.7 (8)
0x380|                                 00 00 00 00 29|           ....)|      [23]: "1992-02-29T15:00:00Z" (699375600) transition_time 0x38b-0x392.7 (8)
0x390|af 9f f0                                       |...             |
0x390|         00 00 00 00 2a e9 6b f8               |   ....*.k.     |      [24]: "1992-10-24T15:30:00Z" (719940600) transition_time 0x393-0x39a.7 (8)
0x390|                                 00 00 00 00 2b|           ....+|      [25]: "1993-03-06T15:00:00Z" (731430000) transition_time 0x39b-0x3a2.7 (8)
0x3a0|98 bc 70                                       |..p             |
0x3a0|         00 00 00 00 2c d2 88 78               |   ....,..x     |      [26]: "1993-10-30T15:30:00Z" (751995000) transition_time 0x3a3-0x3aa.7 (8)
0x3a0|                                 00 00 00 00 2d|           ....-|      [27]: "1994-03-05T15:00:00Z" (762879600) transition_time 0x3ab-0x3b2.7 (8)
0x3b0|78 9e 70                                       |x.p             |
0x3b0|         00 00 00 00 2e b2 6a 78               |   ......jx     |      [28]: "1994-10-29T15:30:00Z" (783444600) transition_time 0x3b3-0x3ba.7 (8)
0x3b0|                                 00 00 00 00 2f|           ..../|      [29]: "1995-03-04T15:00:00Z" (794329200) transition_time 0x3bb-0x3c2.7 (8)
0x3c0|58 80 70                                       |X.p             |
0x3c0|         00 00 00 00 30 92 4c 78               |   ....0.Lx     |      [30]: "1995-10-28T15:30:00Z" (814894200) transition_time 0x3c3-0x3ca.7 (8)
0x3c0|                                 00 00 00 00 31|           ....1|      [31]: "1996-03-30T15:00:00Z" (828198000) transition_time 0x3cb-0x3d2.7 (8)
0x3d0|5d 4c 70                                       |]Lp             |
0x3d0|         00 00 00 00 32 72 2e 78               |   ....2r.x     |      [32]: "1996-10-26T15:30:00Z" (846343800) transition_time 0x3d3-0x3da.7 (8)
0x3d0|                                 00 00 00 00 33|           ....3|      [33]: "1997-03-29T15:00:00Z" (859647600) transition_time 0x3db-0x3e2.7 (8)
0x3e0|3d 2e 70                                       |=.p             |
0x3e0|         00 00 00 00 34 52 10 78               |   ....4R.x     |      [34]: "1997-10-25T15:30:00Z" (877793400) transition_time 0x3e3-0x3ea.7 (8)
0x3e0|                                 00 00 00 00 35|           ....5|      [35]: "1998-03-28T15:00:00Z" (891097200) transition_time 0x3eb-0x3f2.7 (8)
0x3f0|1d 10 70                                       |..p             |
0x3f0|         00 00 00 00 36 31 f2 78               |   ....61.x     |      [36]: "1998-10-24T15:30:00Z" (909243000) transition_time 0x3f3-0x3fa.7 (8)
0x3f0|                                 00 00 00 00 36|           ....6|      [37]: "1999-03-27T15:00:00Z" (922546800) transition_time 0x3fb-0x402.7 (8)
0x400|fc f2 70                                       |..p             |
0x400|         00 00 00 00 38 1b 0e f8               |   ....8...     |      [38]: "1999-10-30T15:30:00Z" (941297400) transition_time 0x403-0x40a.7 (8)
0x400|                                 00 00 00 00 38|           ....8|      [39]: "2000-03-25T15:00:00Z" (953996400) transition_time 0x40b-0x412.7 (8)
0x410|dc d4 70                                       |..p             |
0x410|         00 00 00 00 39 a7 e2 78               |   ....9..x     |      [40]: "2000-08-26T15:30:00Z" (967303800) transition_time 0x413-0x41a.7 (8)
0x410|                                 00 00 00 00 3a|           ....:|      [41]: "2001-03-24T15:00:00Z" (985446000) transition_time 0x41b-0x422.7 (8)
0x420|bc b6 70                                       |..p             |
0x420|         00 00 00 00 3b da d2 f8               |   ....;...     |      [42]: "2001-10-27T15:30:00Z" (1004196600) transition_time 0x423-0x42a.7 (8)
0x420|                                 00 00 00 00 3c|           ....<|      [43]: "2002-03-30T15:00:00Z" (1017500400) transition_time 0x42b-0x432.7 (8)
0x430|a5 d2 f0                                       |...             |
0x430|         00 00 00 00 3d ba b4 f8               |   ....=...     |      [44]: "2002-10-26T15:30:00Z" (1035646200) transition_time 0x433-0x43a.7 (8)
0x430|                                 00 00 00 00 3e|           ....>|      [45]: "2003-03-29T15:00:00Z" (1048950000) transition_time 0x43b-0x442.7 (8)
0x440|85 b4 f0                                       |...             |
0x440|         00 00 00 00 3f 9a 96 f8               |   ....?...     |      [46]: "2003-10-25T15:30:00Z" (1067095800) transition_time 0x443-0x44a.7 (8)
0x440|                                 00 00 00 00 40|           ....@|      [47]: "2004-03-27T15:00:00Z" (1080399600) transition_time 0x44b-0x452.7 (8)
0x450|65 96 f0                                       |e..             |
0x450|         00 00 00 00 41 83 b3 78               |   ....A..x     |      [48]: "2004-10-30T15:30:00Z" (1099150200) transition_time 0x453-0x45a.7 (8)
0x450|                                 00 00 00 00 42|           ....B|      [49]: "2005-03-26T15:00:00Z" (1111849200) transition_time 0x45b-0x462.7 (8)
0x460|45 78 f0                                       |Ex.             |
0x460|         00 00 00 00 43 63 95 78               |   ....Cc.x     |      [50]: "2005-10-29T15:30:00Z" (1130599800) transition_time 0x463-0x46a.7 (8)
0x460|                                 00 00 00 00 44|           ....D|      [51]: "2006-04-01T15:00:00Z" (1143903600) transition_time 0x46b-0x472.7 (8)
0x470|2e 95 70                                       |..p             |
0x470|         00 00 00 00 45 43 77 78               |   ....ECwx     |      [52]: "2006-10-28T15:30:00Z" (1162049400) transition_time 0x473-0x47a.7 (8)
0x470|                                 00 00 00 00 46|           ....F|      [53]: "2007-03-24T15:00:00Z" (1174748400) transition_time 0x47b-0x482.7 (8)
0x480|05 3c f0                                       |.<.             |
0x480|         00 00 00 00 47 23 59 78               |   ....G#Yx     |      [54]: "2007-10-27T15:30:00Z" (1193499000) transition_time 0x483-0x48a.7 (8)
0x480|                                 00 00 00 00 47|           ....G|      [55]: "2008-04-05T15:00:00Z" (1207407600) transition_time 0x48b-0x492.7 (8)
0x490|f7 93 f0                                       |...             |
0x490|         00 00 00 00 48 e7 8b f8               |   ....H...     |      [56]: "2008-10-04T15:30:00Z" (1223134200) transition_time 0x493-0x49a.7 (8)
0x490|                                 00 00 00 00 49|           ....I|      [57]: "2009-04-04T15:00:00Z" (1238857200) transition_time 0x49b-0x4a2.7 (8)
0x4a0|d7 75 f0                                       |.u.             |
0x4a0|         00 00 00 00 4a c7 6d f8               |   ....J.m.     |      [58]: "2009-10-03T15:30:00Z" (1254583800) transition_time 0x4a3-0x4aa.7 (8)
0x4a0|                                 00 00 00 00 4b|           ....K|      [59]: "2010-04-03T15:00:00Z" (1270306800) transition_time 0x4ab-0x4b2.7 (8)
0x4b0|b7 57 f0                                       |.W.             |
0x4b0|         00 00 00 00 4c a7 4f f8               |   ....L.O.     |      [60]: "2010-10-02T15:30:00Z" (1286033400) transition_time 0x4b3-0x4ba.7 (8)
0x4b0|                                 00 00 00 00 4d|           ....M|      [61]: "2011-04-02T15:00:00Z" (1301756400) transition_time 0x4bb-0x4c2.7 (8)
0x4c0|97 39 f0                                       |.9.             |
0x4c0|         00 00 00 00 4e 87 31 f8               |   ....N.1.     |      [62]: "2011-10-01T15:30:00Z" (1317483000) transition_time 0x4c3-0x4ca.7 (8)
0x4c0|                                 00 00 00 00 4f|           ....O|      [63]: "2012-03-31T15:00:00Z" (1333206000) transition_time 0x4cb-0x4d2.7 (8)
0x4d0|77 1b f0                                       |w..             |
0x4d0|         00 00 00 00 50 70 4e 78               |   ....PpNx     |      [64]: "2012-10-06T15:30:00Z" (1349537400) transition_time 0x4d3-0x4da.7 (8)
0x4d0|                                 00 00 00 00 51|           ....Q|      [65]: "2013-04-06T15:00:00Z" (1365260400) transition_time 0x4db-0x4e2.7 (8)
0x4e0|60 38 70                                       |`8p             |
0x4e0|         00 00 00 00 52 50 30 78               |   ....RP0x     |      [66]: "2013-10-05T15:30:00Z" (1380987000) transition_time 0x4e3-0x4ea.7 (8)
0x4e0|                                 00 00 00 00 53|           ....S|      [67]: "2014-04-05T15:00:00Z" (1396710000) transition_time 0x4eb-0x4f2.7 (8)
0x4f0|40 1a 70                                       |@.p             |
0x4f0|         00 00 00 00 54 30 12 78               |   ....T0.x     |      [68]: "2014-10-04T15:30:00Z" (1412436600) transition_time 0x4f3-0x4fa.7 (8)
0x4f0|                                 00 00 00 00 55|           ....U|      [69]: "2015-04-04T15:00:00Z" (1428159600) transition_time 0x4fb-0x502.7 (8)
0x500|1f fc 70                                       |..p             |
0x500|         00 00 00 00 56 0f f4 78               |   ....V..x     |      [70]: "2015-10-03T15:30:00Z" (1443886200) transition_time 0x503-0x50a.7 (8)
0x500|                                 00 00 00 00 56|           ....V|      [71]: "2016-04-02T15:00:00Z" (1459609200) transition_time 0x50b-0x512.7 (8)
0x510|ff de 70                                       |..p             |
0x510|         00 00 00 00 57 ef d6 78               |   ....W..x     |      [72]: "2016-10-01T15:30:00Z" (1475335800) transition_time 0x513-0x51a.7 (8)
0x510|                                 00 00 00 00 58|           ....X|      [73]: "2017-04-01T15:00:00Z" (1491058800) transition_time 0x51b-0x522.7 (8)
0x520|df c0 70                                       |..p             |
0x520|         00 00 00 00 59 cf b8 78               |   ....Y..x     |      [74]: "2017-09-30T15:30:00Z" (1506785400) transition_time 0x523-0x52a.7 (8)
0x520|                                 00 00 00 00 5a|           ....Z|      [75]: "2018-03-31T15:00:00Z" (1522508400) transition_time 0x52b-0x532.7 (8)
0x530|bf a2 70                                       |..p             |
0x530|         00 00 00 00 5b b8 d4 f8               |   ....[...     |      [76]: "2018-10-06T15:30:00Z" (1538839800) transition_time 0x533-0x53a.7 (8)
0x530|                                 00 00 00 00 5c|           ....\|      [77]: "2019-04-06T15:00:00Z" (1554562800) transition_time 0x53b-0x542.7 (8)
0x540|a8 be f0                                       |...             |
0x540|         00 00 00 00 5d 98 b6 f8               |   ....]...     |      [78]: "2019-10-05T15:30:00Z" (1570289400) transition_time 0x543-0x54a.7 (8)
0x540|                                 00 00 00 00 5e|           ....^|      [79]: "2020-04-04T15:00:00Z" (1586012400) transition_time 0x54b-0x552.7 (8)
0x550|88 a0 f0                                       |...             |
0x550|         00 00 00 00 5f 78 98 f8               |   ...._x..     |      [80]: "2020-10-03T15:30:00Z" (1601739000) transition_time 0x553-0x55a.7 (8)
0x550|                                 00 00 00 00 60|           ....`|      [81]: "2021-04-03T15:00:00Z" (1617462000) transition_time 0x55b-0x562.7 (8)
0x560|68 82 f0                                       |h..             |
0x560|         00 00 00 00 61 58 7a f8               |   ....aXz.     |      [82]: "2021-10-02T15:30:00Z" (1633188600) transition_time 0x563-0x56a.7 (8)
0x560|                                 00 00 00 00 62|           ....b|      [83]: "2022-04-02T15:00:00Z" (1648911600) transition_time 0x56b-0x572.7 (8)
0x570|48 64 f0                                       |Hd.             |
0x570|         00 00 00 00 63 38 5c f8               |   ....c8\.     |      [84]: "2022-10-01T15:30:00Z" (1664638200) transition_time 0x573-0x57a.7 (8)
0x570|                                 00 00 00 00 64|           ....d|      [85]: "2023-04-01T15:00:00Z" (1680361200) transition_time 0x57b-0x582.7 (8)
0x580|28 46 f0                                       |(F.             |
0x580|         00 00 00 00 65 18 3e f8               |   ....e.>.     |      [86]: "2023-09-30T15:30:00Z" (1696087800) transition_time 0x583-0x58a.7 (8)
0x580|                                 00 00 00 00 66|           ....f|      [87]: "2024-04-06T15:00:00Z" (1712415600) transition_time 0x58b-0x592.7 (8)
0x590|11 63 70                                       |.cp             |
0x590|         00 00 00 00 67 01 5b 78               |   ....g.[x     |      [88]: "2024-10-05T15:30:00Z" (1728142200) transition_time 0x593-0x59a.7 (8)
0x590|                                 00 00 00 00 67|           ....g|      [89]: "2025-04-05T15:00:00Z" (1743865200) transition_time 0x59b-0x5a2.7 (8)
0x5a0|f1 45 70                                       |.Ep             |
0x5a0|         00 00 00 00 68 e1 3d 78               |   ....h.=x     |      [90]: "2025-10-04T15:30:00Z" (1759591800) transition_time 0x5a3-0x5aa.7 (8)
0x5a0|                                 00 00 00 00 69|           ....i|      [91]: "2026-04-04T15:00:00Z" (1775314800) transition_time 0x5ab-0x5b2.7 (8)
0x5b0|d1 27 70                                       |.'p             |
0x5b0|         00 00 00 00 6a c1 1f 78               |   ....j..x     |      [92]: "2026-10-03T15:30:00Z" (1791041400) transition_time 0x5b3-0x5ba.7 (8)
0x5b0|                                 00 00 00 00 6b|           ....k|      [93]: "2027-04-03T15:00:00Z" (1806764400) transition_time 0x5bb-0x5c2.7 (8)
0x5c0|b1 09 70                                       |..p             |
0x5c0|         00 00 00 00 6c a1 01 78               |   ....l..x     |      [94]: "2027-10-02T15:30:00Z" (1822491000) transition_time 0x5c3-0x5ca.7 (8)
0x5c0|                                 00 00 00 00 6d|           ....m|      [95]: "2028-04-01T15:00:00Z" (1838214000) transition_time 0x5cb-0x5d2.7 (8)
0x5d0|90 eb 70                                       |..p             |
0x5d0|         00 00 00 00 6e 80 e3 78               |   ....n..x     |      [96]: "2028-09-30T15:30:00Z" (1853940600) transition_time 0x5d3-0x5da.7 (8)
0x5d0|                                 00 00 00 00 6f|           ....o|      [97]: "2029-03-31T15:00:00Z" (1869663600) transition_time 0x5db-0x5e2.7 (8)
0x5e0|70 cd 70                                       |p.p             |
0x5e0|         00 00 00 00 70 69 ff f8               |   ....pi..     |      [98]: "2029-10-06T15:30:00Z" (1885995000) transition_time 0x5e3-0x5ea.7 (8)
0x5e0|                                 00 00 00 00 71|           ....q|      [99]: "2030-04-06T15:00:00Z" (1901718000) transition_time 0x5eb-0x5f2.7 (8)
0x5f0|59 e9 f0                                       |Y..             |
0x5f0|         00 00 00 00 72 49 e1 f8               |   ....rI..     |      [100]: "2030-10-05T15:30:00Z" (1917444600) transition_time 0x5f3-0x5fa.7 (8)
0x5f0|                                 00 00 00 00 73|           ....s|      [101]: "2031-04-05T15:00:00Z" (1933167600) transition_time 0x5fb-0x602.7 (8)
0x600|39 cb f0                                       |9..             |
0x600|         00 00 00 00 74 29 c3 f8               |   ....t)..     |      [102]: "2031-10-04T15:30:00Z" (1948894200) transition_time 0x603-0x60a.7 (8)
0x600|                                 00 00 00 00 75|           ....u|      [103]: "2032-04-03T15:00:00Z" (1964617200) transition_time 0x60b-0x612.7 (8)
0x610|19 ad f0                                       |...             |
0x610|         00 00 00 00 76 09 a5 f8               |   ....v...     |      [104]: "2032-10-02T15:30:00Z" (1980343800) transition_time 0x613-0x61a.7 (8)
0x610|                                 00 00 00 00 76|           ....v|      [105]: "2033-04-02T15:00:00Z" (1996066800) transition_time 0x61b-0x622.7 (8)
0x620|f9 8f f0                                       |...             |
0x620|         00 00 00 00 77 e9 87 f8               |   ....w...     |      [106]: "2033-10-01T15:30:00Z" (2011793400) transition_time 0x623-0x62a.7 (8)
0x620|                                 00 00 00 00 78|           ....x|      [107]: "2034-04-01T15:00:00Z" (2027516400) transition_time 0x62b-0x632.7 (8)
0x630|d9 71 f0                                       |.q.             |
0x630|         00 00 00 00 79 c9 69 f8               |   ....y.i.     |      [108]: "2034-09-30T15:30:00Z" (2043243000) transition_time 0x633-0x63a.7 (8)
0x630|                                 00 00 00 00 7a|           ....z|      [109]: "2035-03-31T15:00:00Z" (2058966000) transition_time 0x63b-0x642.7 (8)
0x640|b9 53 f0                                       |.S.             |
0x640|         00 00 00 00 7b b2 86 78               |   ....{..x     |      [110]: "2035-10-06T15:30:00Z" (2075297400) transition_time 0x643-0x64a.7 (8)
0x640|                                 00 00 00 00 7c|           ....||      [111]: "2036-04-05T15:00:00Z" (2091020400) transition_time 0x64b-0x652.7 (8)
0x650|a2 70 70                                       |.pp             |
0x650|         00 00 00 00 7d 92 68 78               |   ....}.hx     |      [112]: "2036-10-04T15:30:00Z" (2106747000) transition_time 0x653-0x65a.7 (8)
0x650|                                 00 00 00 00 7e|           ....~|      [113]: "2037-04-04T15:00:00Z" (2122470000) transition_time 0x65b-0x662.7 (8)
0x660|82 52 70                                       |.Rp             |
0x660|         00 00 00 00 7f 72 4a 78               |   .....rJx     |      [114]: "2037-10-03T15:30:00Z" (2138196600) transition_time 0x663-0x66a.7 (8)
0x660|                                 00 00 00 00 7f|           .....|      [115]: "2038-01-19T03:14:07Z" (2147483647) transition_time 0x66b-0x672.7 (8)
0x670|ff ff ff                                       |...             |
     |                                               |                |    transition_types[0:116]: 0x673-0x6e6.7 (116)
0x670|         01                                    |   .            |      [0]: 1 transition_type 0x673-0x673.7 (1)
0x670|            03                                 |    .           |      [1]: 3 transition_type 0x674-0x674.7 (1)
0x670|               02                              |     .          |      [2]: 2 transition_type 0x675-0x675.7 (1)
0x670|                  03                           |      .         |      [3]: 3 transition_type 0x676-0x676.7 (1)
0x670|                     02                        |       .        |      [4]: 2 transition_type 0x677-0x677.7 (1)
0x670|                        03                     |        .       |      [5]: 3 transition_type 0x678-0x678.7 (1)
0x670|                           02                  |         .      |      [6]: 2 transition_type 0x679-0x679.7 (1)
0x670|                              03               |          .     |      [7]: 3 transition_type 0x67a-0x67a.7 (1)
0x670|                                 02            |           .    |      [8]: 2 transition_type 0x67b-0x67b.7 (1)
0x670|                                    03         |            .   |      [9]: 3 transition_type 0x67c-0x67c.7 (1)
0x670|                                       04      |             .  |      [10]: 4 transition_type 0x67d-0x67d.7 (1)
0x670|                                          03   |              . |      [11]: 3 transition_type 0x67e-0x67e.7 (1)
0x670|                                             04|               .|      [12]: 4 transition_type 0x67f-0x67f.7 (1)
0x680|03                                             |.               |      [13]: 3 transition_type 0x680-0x680.7 (1)
0x680|   04                                          | .              |      [14]: 4 transition_type 0x681-0x681.7 (1)
0x680|      03                                       |  .             |      [15]: 3 transition_type 0x682-0x682.7 (1)
0x680|         04                                    |   .            |      [16]: 4 transition_type 0x683-0x683.7 (1)
0x680|            03                                 |    .           |      [17]: 3 transition_type 0x684-0x684.7 (1)
0x680|               04                              |     .          |      [18]: 4 transition_type 0x685-0x685.7 (1)
0x680|                  03                           |      .         |      [19]: 3 transition_type 0x686-0x686.7 (1)
0x680|                     04                        |       .        |      [20]: 4 transition_type 0x687-0x687.7 (1)
0x680|                        03                     |        .       |      [21]: 3 transition_type 0x688-0x688.7 (1)
0x680|                           04                  |         .      |      [22]: 4 transition_type 0x689-0x689.7 (1)
0x680|                              03               |          .     |      [23]: 3 transition_type 0x68a-0x68a.7 (1)
0x680|                                 04            |           .    |      [24]: 4 transition_type 0x68b-0x68b.7 (1)
0x680|                                    03         |            .   |      [25]: 3 transition_type 0x68c-0x68c.7 (1)
0x680|                                       04      |             .  |      [26]: 4 transition_type 0x68d-0x68d.7 (1)
0x680|                                          03   |              . |      [27]: 3 transition_type 0x68e-0x68e.7 (1)
0x680|                                             04|               .|      [28]: 4 transition_type 0x68f-0x68f.7 (1)
0x690|03                                             |.               |      [29]: 3 transition_type 0x690-0x690.7 (1)
0x690|   04                                          | .              |      [30]: 4 transition_type 0x691-0x691.7 (1)
0x690|      03                                       |  .             |      [31]: 3 transition_type 0x692-0x692.7 (1)
0x690|         04                                    |   .            |      [32]: 4 transition_type 0x693-0x693.7 (1)
0x690|            03                                 |    .           |      [33]: 3 transition_type 0x694-0x694.7 (1)
0x690|               04                              |     .          |      [34]: 4 transition_type 0x695-0x695.7 (1)
0x690|                  03                           |      .         |      [35]: 3 transition_type 0x696-0x696.7 (1)
0x690|                     04                        |       .        |      [36]: 4 transition_type 0x697-0x697.7 (1)
0x690|                        03                     |        .       |      [37]: 3 transition_type 0x698-0x698.7 (1)
0x690|                           04                  |         .      |      [38]: 4 transition_type 0x699-0x699.7 (1)
0x690|                              03               |          .     |      [39]: 3 transition_type 0x69a-0x69a.7 (1)
0x690|                                 04            |           .    |      [40]: 4 transition_type 0x69b-0x69b.7 (1)
0x690|                                    03         |            .   |      [41]: 3 transition_type 0x69c-0x69c.7 (1)
0x690|                                       04      |             .  |      [42]: 4 transition_type 0x69d-0x69d.7 (1)
0x690|                                          03   |              . |      [43]: 3 transition_type 0x69e-0x69e.7 (1)
0x690|                                             04|               .|      [44]: 4 transition_type 0x69f-0x69f.7 (1)
0x6a0|03                                             |.               |      [45]: 3 transition_type 0x6a0-0x6a0.7 (1)
0x6a0|   04                                          | .              |      [46]: 4 transition_type 0x6a1-0x6a1.7 (1)
0x6a0|      03                                       |  .             |      [47]: 3 transition_type 0x6a2-0x6a2.7 (1)
0x6a0|         04                                    |   .            |      [48]: 4 transition_type 0x6a3-0x6a3.7 (1)
0x6a0|            03                                 |    .           |      [49]: 3 transition_type 0x6a4-0x6a4.7 (1)
0x6a0|               04                              |     .          |      [50]: 4 transition_type 0x6a5-0x6a5.7 (1)
0x6a0|                  03                           |      .         |      [51]: 3 transition_type 0x6a6-0x6a6.7 (1)
0x6a0|                     04                        |       .        |      [52]: 4 transition_type 0x6a7-0x6a7.7 (1)
0x6a0|                        03                     |        .       |      [53]: 3 transition_type 0x6a8-0x6a8.7 (1)
0x6a0|                           04                  |         .      |      [54]: 4 transition_type 0x6a9-0x6a9.7 (1)
0x6a0|                              03               |          .     |      [55]: 3 transition_type 0x6aa-0x6aa.7 (1)
0x6a0|                                 04            |           .    |      [56]: 4 transition_type 0x6ab-0x6ab.7 (1)
0x6a0|                                    03         |            .   |      [57]: 3 transition_type 0x6ac-0x6ac.7 (1)
0x6a0|                                       04      |             .  |      [58]: 4 transition_type 0x6ad-0x6ad.7 (1)
0x6a0|                                          03   |              . |      [59]: 3 transition_type 0x6ae-0x6ae.7 (1)
0x6a0|                                             04|               .|      [60]: 4 transition_type 0x6af-0x6af.7 (1)
0x6b0|03                                             |.               |      [61]: 3 transition_type 0x6b0-0x6b0.7 (1)
0x6b0|   04                                          | .              |      [62]: 4 transition_type 0x6b1-0x6b1.7 (1)
0x6b0|      03                                       |  .             |      [63]: 3 transition_type 0x6b2-0x6b2.7 (1)
0x6b0|         04                                    |   .            |      [64]: 4 transition_type 0x6b3-0x6b3.7 (1)
0x6b0|            03                                 |    .           |      [65]: 3 transition_type 0x6b4-0x6b4.7 (1)
0x6b0|               04                              |     .          |      [66]: 4 transition_type 0x6b5-0x6b5.7 (1)
0x6b0|                  03                           |      .         |      [67]: 3 transition_type 0x6b6-0x6b6.7 (1)
0x6b0|                     04                        |       .        |      [68]: 4 transition_type 0x6b7-0x6b7.7 (1)
0x6b0|                        03                     |        .       |      [69]: 3 transition_type 0x6b8-0x6b8.7 (1)
0x6b0|                           04                  |         .      |      [70]: 4 transition_type 0x6b9-0x6b9.7 (1)
0x6b0|                              03               |          .     |      [71]: 3 transition_type 0x6ba-0x6ba.7 (1)
0x6b0|                                 04            |           .    |      [72]: 4 transition_type 0x6bb-0x6bb.7 (1)
0x6b0|                                    03         |            .   |      [73]: 3 transition_type 0x6bc-0x6bc.7 (1)
0x6b0|                                       04      |             .  |      [74]: 4 transition_type 0x6bd-0x6bd.7 (1)
0x6b0|                                          03   |              . |      [75]: 3 transition_type 0x6be-0x6be.7 (1)
0x6b0|                                             04|               .|      [76]: 4 transition_type 0x6bf-0x6bf.7 (1)
0x6c0|03                                             |.               |      [77]: 3 transition_type 0x6c0-0x6c0.7 (1)
0x6c0|   04                                          | .              |      [78]: 4 transition_type 0x6c1-0x6c1.7 (1)
0x6c0|      03                                       |  .             |      [79]: 3 transition_type 0x6c2-0x6c2.7 (1)
0x6c0|         04                                    |   .            |      [80]: 4 transition_type 0x6c3-0x6c3.7 (1)
0x6c0|            03                                 |    .           |      [81]: 3 transition_type 0x6c4-0x6c4.7 (1)
0x6c0|               04                              |     .          |      [82]: 4 transition_type 0x6c5-0x6c5.7 (1)
0x6c0|                  03                           |      .         |      [83]: 3 transition_type 0x6c6-0x6c6.7 (1)
0x6c0|                     04                        |       .        |      [84]: 4 transition_type 0x6c7-0x6c7.7 (1)
0x6c0|                        03                     |        .       |      [85]: 3 transition_type 0x6c8-0x6c8.7 (1)
0x6c0|                           04                  |         .      |      [86]: 4 transition_type 0x6c9-0x6c9.7 (1)
0x6c0|                              03               |          .     |      [87]: 3 transition_type 0x6ca-0x6ca.7 (1)
0x6c0|                                 04            |           .    |      [88]: 4 transition_type 0x6cb-0x6cb.7 (1)
0x6c0|                                    03         |            .   |      [89]: 3 transition_type 0x6cc-0x6cc.7 (1)
0x6c0|                                       04      |             .  |      [90]: 4 transition_type 0x6cd-0x6cd.7 (1)
0x6c0|                                          03   |              . |      [91]: 3 transition_type 0x6ce-0x6ce.7 (1)
0x6c0|                                             04|               .|      [92]: 4 transition_type 0x6cf-0x6cf.7 (1)
0x6d0|03                                             |.               |      [93]: 3 transition_type 0x6d0-0x6d0.7 (1)
0x6d0|   04                                          | .              |      [94]: 4 transition_type 0x6d1-0x6d1.7 (1)
0x6d0|      03                                       |  .             |      [95]: 3 transition_type 0x6d2-0x6d2.7 (1)
0x6d0|         04                                    |   .            |      [96]: 4 transition_type 0x6d3-0x6d3.7 (1)
0x6d0|            03                                 |    .           |      [97]: 3 transition_type 0x6d4-0x6d4.7 (1)
0x6d0|               04                              |     .          |      [98]: 4 transition_type 0x6d5-0x6d5.7 (1)
0x6d0|                  03                           |      .         |      [99]: 3 transition_type 0x6d6-0x6d6.7 (1)
0x6d0|                     04                        |       .        |      [100]: 4 transition_type 0x6d7-0x6d7.7 (1)
0x6d0|                        03                     |        .       |      [101]: 3 transition_type 0x6d8-0x6d8.7 (1)
0x6d0|                           04                  |         .      |      [102]: 4 transition_type 0x6d9-0x6d9.7 (1)
0x6d0|                              03               |          .     |      [103]: 3 transition_type 0x6da-0x6da.7 (1)
0x6d0|                                 04            |           .    |      [104]: 4 transition_type 0x6db-0x6db.7 (1)
0x6d0|                                    03         |            .   |      [105]: 3 transition_type 0x6dc-0x6dc.7 (1)
0x6d0|                                       04      |             .  |      [106]: 4 transition_type 0x6dd-0x6dd.7 (1)
0x6d0|                                          03   |              . |      [107]: 3 transition_type 0x6de-0x6de.7 (1)
0x6d0|                                             04|               .|      [108]: 4 transition_type 0x6df-0x6df.7 (1)
0x6e0|03                                             |.               |      [109]: 3 transition_type 0x6e0-0x6e0.7 (1)
0x6e0|   04                                          | .              |      [110]: 4 transition_type 0x6e1-0x6e1.7 (1)
0x6e0|      03                                       |  .             |      [111]: 3 transition_type 0x6e2-0x6e2.7 (1)
0x6e0|         04                                    |   .            |      [112]: 4 transition_type 0x6e3-0x6e3.7 (1)
0x6e0|            03                                 |    .           |      [113]: 3 transition_type 0x6e4-0x6e4.7 (1)
0x6e0|               04                              |     .          |      [114]: 4 transition_type 0x6e5-0x6e5.7 (1)
0x6e0|                  04                           |      .         |      [115]: 4 transition_type 0x6e6-0x6e6.7 (1)
     |                                               |                |    local_time_type_records[0:5]: 0x6e7-0x704.7 (30)
     |                                               |                |      [0]{}: local_time_type 0x6e7-0x6ec.7 (6)
0x6e0|                     00 00 95 24               |       ...$     |        utoff: 38180 (valid) 0x6e7-0x6ea.7 (4)
0x6e0|                                 00            |           .    |        dst: 0 (valid) 0x6eb-0x6eb.7 (1)
0x6e0|                                    00         |            .   |        idx: 0 (valid) 0x6ec-0x6ec.7 (1)
     |                                               |                |      [1]{}: local_time_type 0x6ed-0x6f2.7 (6)
0x6e0|                                       00 00 8c|             ...|        utoff: 36000 (valid) 0x6ed-0x6f0.7 (4)
0x6f0|a0                                             |.               |
0x6f0|   00                                          | .              |        dst: 0 (valid) 0x6f1-0x6f1.7 (1)
0x6f0|      04                                       |  .             |        idx: 4 (valid) 0x6f2-0x6f2.7 (1)
     |                                               |                |      [2]{}: local_time_type 0x6f3-0x6f8.7 (6)
0x6f0|         00 00 a1 b8                           |   ....         |        utoff: 41400 (valid) 0x6f3-0x6f6.7 (4)
0x6f0|                     01                        |       .        |        dst: 1 (valid) 0x6f7-0x6f7.7 (1)
0x6f0|                        09                     |        .       |        idx: 9 (valid) 0x6f8-0x6f8.7 (1)
     |                                               |                |      [3]{}: local_time_type 0x6f9-0x6fe.7 (6)
0x6f0|                           00 00 93 a8         |         ....   |        utoff: 37800 (valid) 0x6f9-0x6fc.7 (4)
0x6f0|                                       00      |             .  |        dst: 0 (valid) 0x6fd-0x6fd.7 (1)
0x6f0|                                          0f   |              . |        idx: 15 (valid) 0x6fe-0x6fe.7 (1)
     |                                               |                |      [4]{}: local_time_type 0x6ff-0x704.7 (6)
0x6f0|                                             00|               .|        utoff: 39600 (valid) 0x6ff-0x702.7 (4)
0x700|00 9a b0                                       |...             |
0x700|         01                                    |   .            |        dst: 1 (valid) 0x703-0x703.7 (1)
0x700|            15                                 |    .           |        idx: 21 (valid) 0x704-0x704.7 (1)
     |                                               |                |    time_zone_designations[0:5]: 0x705-0x71d.7 (25)
0x700|               4c 4d 54 00                     |     LMT.       |      [0]: "LMT" time_zone_designation 0x705-0x708.7 (4)
0x700|                           41 45 53 54 00      |         AEST.  |      [1]: "AEST" time_zone_designation 0x709-0x70d.7 (5)
0x700|                                          2b 31|              +1|      [2]: "+1130" time_zone_designation 0x70e-0x713.7 (6)
0x710|31 33 30 00                                    |130.            |
0x710|            2b 31 30 33 30 00                  |    +1030.      |      [3]: "+1030" time_zone_designation 0x714-0x719.7 (6)
0x710|                              2b 31 31 00      |          +11.  |      [4]: "+11" time_zone_designation 0x71a-0x71d.7 (4)
     |                                               |                |    leap_second_records[0:0]: 0x71e-NA (0)
     |                                               |                |    standard_wall_indicators[0:0]: 0x71e-NA (0)
     |                                               |                |    ut_local_indicators[0:0]: 0x71e-NA (0)
     |                                               |                |  footer{}: 0x71e-0x743.7 (38)
0x710|                                          0a   |              . |    nl1: 10 (valid) 0x71e-0x71e.7 (1)
0x710|                                             3c|               <|    tz_string: "<+1030>-10:30<+11>-11,M10.1.0,M4.1.0" 0x71f-0x742.7 (36)
0x720|2b 31 30 33 30 3e 2d 31 30 3a 33 30 3c 2b 31 31|+1030>-10:30<+11|
*    |until 0x742.7 (36)                             |                |
0x740|         0a|                                   |   .|           |    nl2: 10 (valid) 0x743-0x743.7 (1)
