$ fq -d tzif dv Los_Angeles
     |00 01 02 03 04 05 06 07 08 09 0a 0b 0c 0d 0e 0f|0123456789abcdef|.{}: Los_Angeles (tzif) 0x0-0xba2 (2978)
     |                                               |                |  v1header{}: 0x0-0x2c (44)
0x000|54 5a 69 66                                    |TZif            |    magic: 0x545a6966 (valid) 0x0-0x4 (4)
0x000|            32                                 |    2           |    ver: "2" (0x32) (valid) 0x4-0x5 (1)
0x000|               00 00 00 00 00 00 00 00 00 00 00|     ...........|    reserved: raw bits 0x5-0x14 (15)
0x010|00 00 00 00                                    |....            |
0x010|            00 00 00 06                        |    ....        |    isutcnt: 6 0x14-0x18 (4)
0x010|                        00 00 00 06            |        ....    |    isstdcnt: 6 0x18-0x1c (4)
0x010|                                    00 00 00 1b|            ....|    leapcnt: 27 0x1c-0x20 (4)
0x020|00 00 00 9e                                    |....            |    timecnt: 158 0x20-0x24 (4)
0x020|            00 00 00 06                        |    ....        |    typecnt: 6 0x24-0x28 (4)
0x020|                        00 00 00 14            |        ....    |    charcnt: 20 0x28-0x2c (4)
     |                                               |                |  v1datablock{}: 0x2c-0x45e (1074)
     |                                               |                |    transition_times[0:158]: 0x2c-0x2a4 (632)
0x020|                                    80 00 00 00|            ....|      [0]: "1901-12-13T20:45:52Z" (-2147483648) transition_time 0x2c-0x30 (4)
0x030|9e a6 48 a0                                    |..H.            |      [1]: "1918-03-31T10:00:00Z" (-1633269600) transition_time 0x30-0x34 (4)
0x030|            9f bb 15 90                        |    ....        |      [2]: "1918-10-27T09:00:00Z" (-1615129200) transition_time 0x34-0x38 (4)
0x030|                        a0 86 2a a0            |        ..*.    |      [3]: "1919-03-30T10:00:00Z" (-1601820000) transition_time 0x38-0x3c (4)
0x030|                                    a1 9a f7 90|            ....|      [4]: "1919-10-26T09:00:00Z" (-1583679600) transition_time 0x3c-0x40 (4)
0x040|cb 89 1a a0                                    |....            |      [5]: "1942-02-09T10:00:00Z" (-880207200) transition_time 0x40-0x44 (4)
0x040|            d2 23 f4 70                        |    .#.p        |      [6]: "1945-08-14T23:00:00Z" (-769395600) transition_time 0x44-0x48 (4)
0x040|                        d2 61 26 10            |        .a&.    |      [7]: "1945-09-30T09:00:00Z" (-765385200) transition_time 0x48-0x4c (4)
0x040|                                    d6 fe 74 5c|            ..t\|      [8]: "1948-03-14T10:01:00Z" (-687967140) transition_time 0x4c-0x50 (4)
0x050|d8 80 ad 90                                    |....            |      [9]: "1949-01-01T09:00:00Z" (-662655600) transition_time 0x50-0x54 (4)
0x050|            da fe c3 90                        |    ....        |      [10]: "1950-04-30T09:00:00Z" (-620838000) transition_time 0x54-0x58 (4)
0x050|                        db c0 90 10            |        ....    |      [11]: "1950-09-24T09:00:00Z" (-608137200) transition_time 0x58-0x5c (4)
0x050|                                    dc de a5 90|            ....|      [12]: "1951-04-29T09:00:00Z" (-589388400) transition_time 0x5c-0x60 (4)
0x060|dd a9 ac 90                                    |....            |      [13]: "1951-09-30T09:00:00Z" (-576082800) transition_time 0x60-0x64 (4)
0x060|            de be 87 90                        |    ....        |      [14]: "1952-04-27T09:00:00Z" (-557938800) transition_time 0x64-0x68 (4)
0x060|                        df 89 8e 90            |        ....    |      [15]: "1952-09-28T09:00:00Z" (-544633200) transition_time 0x68-0x6c (4)
0x060|                                    e0 9e 69 90|            ..i.|      [16]: "1953-04-26T09:00:00Z" (-526489200) transition_time 0x6c-0x70 (4)
0x070|e1 69 70 90                                    |.ip.            |      [17]: "1953-09-27T09:00:00Z" (-513183600) transition_time 0x70-0x74 (4)
0x070|            e2 7e 4b 90                        |    .~K.        |      [18]: "1954-04-25T09:00:00Z" (-495039600) transition_time 0x74-0x78 (4)
0x070|                        e3 49 52 90            |        .IR.    |      [19]: "1954-09-26T09:00:00Z" (-481734000) transition_time 0x78-0x7c (4)
0x070|                                    e4 5e 2d 90|            .^-.|      [20]: "1955-04-24T09:00:00Z" (-463590000) transition_time 0x7c-0x80 (4)
0x080|e5 29 34 90                                    |.)4.            |      [21]: "1955-09-25T09:00:00Z" (-450284400) transition_time 0x80-0x84 (4)
0x080|            e6 47 4a 10                        |    .GJ.        |      [22]: "1956-04-29T09:00:00Z" (-431535600) transition_time 0x84-0x88 (4)
0x080|                        e7 12 51 10            |        ..Q.    |      [23]: "1956-09-30T09:00:00Z" (-418230000) transition_time 0x88-0x8c (4)
0x080|                                    e8 27 2c 10|            .',.|      [24]: "1957-04-28T09:00:00Z" (-400086000) transition_time 0x8c-0x90 (4)
0x090|e8 f2 33 10                                    |..3.            |      [25]: "1957-09-29T09:00:00Z" (-386780400) transition_time 0x90-0x94 (4)
0x090|            ea 07 0e 10                        |    ....        |      [26]: "1958-04-27T09:00:00Z" (-368636400) transition_time 0x94-0x98 (4)
0x090|                        ea d2 15 10            |        ....    |      [27]: "1958-09-28T09:00:00Z" (-355330800) transition_time 0x98-0x9c (4)
0x090|                                    eb e6 f0 10|            ....|      [28]: "1959-04-26T09:00:00Z" (-337186800) transition_time 0x9c-0xa0 (4)
0x0a0|ec b1 f7 10                                    |....            |      [29]: "1959-09-27T09:00:00Z" (-323881200) transition_time 0xa0-0xa4 (4)
0x0a0|            ed c6 d2 10                        |    ....        |      [30]: "1960-04-24T09:00:00Z" (-305737200) transition_time 0xa4-0xa8 (4)
0x0a0|                        ee 91 d9 10            |        ....    |      [31]: "1960-09-25T09:00:00Z" (-292431600) transition_time 0xa8-0xac (4)
0x0a0|                                    ef af ee 90|            ....|      [32]: "1961-04-30T09:00:00Z" (-273682800) transition_time 0xac-0xb0 (4)
0x0b0|f0 71 bb 10                                    |.q..            |      [33]: "1961-09-24T09:00:00Z" (-260982000) transition_time 0xb0-0xb4 (4)
0x0b0|            f1 8f d0 90                        |    ....        |      [34]: "1962-04-29T09:00:00Z" (-242233200) transition_time 0xb4-0xb8 (4)
0x0b0|                        f2 7f c1 90            |        ....    |      [35]: "1962-10-28T09:00:00Z" (-226508400) transition_time 0xb8-0xbc (4)
0x0b0|                                    f3 6f b2 90|            .o..|      [36]: "1963-04-28T09:00:00Z" (-210783600) transition_time 0xbc-0xc0 (4)
0x0c0|f4 5f a3 90                                    |._..            |      [37]: "1963-10-27T09:00:00Z" (-195058800) transition_time 0xc0-0xc4 (4)
0x0c0|            f5 4f 94 90                        |    .O..        |      [38]: "1964-04-26T09:00:00Z" (-179334000) transition_time 0xc4-0xc8 (4)
0x0c0|                        f6 3f 85 90            |        .?..    |      [39]: "1964-10-25T09:00:00Z" (-163609200) transition_time 0xc8-0xcc (4)
0x0c0|                                    f7 2f 76 90|            ./v.|      [40]: "1965-04-25T09:00:00Z" (-147884400) transition_time 0xcc-0xd0 (4)
0x0d0|f8 28 a2 10                                    |.(..            |      [41]: "1965-10-31T09:00:00Z" (-131554800) transition_time 0xd0-0xd4 (4)
0x0d0|            f9 0f 58 90                        |    ..X.        |      [42]: "1966-04-24T09:00:00Z" (-116434800) transition_time 0xd4-0xd8 (4)
0x0d0|                        fa 08 84 10            |        ....    |      [43]: "1966-10-30T09:00:00Z" (-100105200) transition_time 0xd8-0xdc (4)
0x0d0|                                    fa f8 83 20|            ... |      [44]: "1967-04-30T10:00:00Z" (-84376800) transition_time 0xdc-0xe0 (4)
0x0e0|fb e8 66 10                                    |..f.            |      [45]: "1967-10-29T09:00:00Z" (-68655600) transition_time 0xe0-0xe4 (4)
0x0e0|            fc d8 65 20                        |    ..e         |      [46]: "1968-04-28T10:00:00Z" (-52927200) transition_time 0xe4-0xe8 (4)
0x0e0|                        fd c8 48 10            |        ..H.    |      [47]: "1968-10-27T09:00:00Z" (-37206000) transition_time 0xe8-0xec (4)
0x0e0|                                    fe b8 47 20|            ..G |      [48]: "1969-04-27T10:00:00Z" (-21477600) transition_time 0xec-0xf0 (4)
0x0f0|ff a8 2a 10                                    |..*.            |      [49]: "1969-10-26T09:00:00Z" (-5756400) transition_time 0xf0-0xf4 (4)
0x0f0|            00 98 29 20                        |    ..)         |      [50]: "1970-04-26T10:00:00Z" (9972000) transition_time 0xf4-0xf8 (4)
0x0f0|                        01 88 0c 10            |        ....    |      [51]: "1970-10-25T09:00:00Z" (25693200) transition_time 0xf8-0xfc (4)
0x0f0|                                    02 78 0b 20|            .x. |      [52]: "1971-04-25T10:00:00Z" (41421600) transition_time 0xfc-0x100 (4)
0x100|03 71 28 90                                    |.q(.            |      [53]: "1971-10-31T09:00:00Z" (57747600) transition_time 0x100-0x104 (4)
0x100|            04 61 27 a0                        |    .a'.        |      [54]: "1972-04-30T10:00:00Z" (73476000) transition_time 0x104-0x108 (4)
0x100|                        05 51 0a 91            |        .Q..    |      [55]: "1972-10-29T09:00:01Z" (89197201) transition_time 0x108-0x10c (4)
0x100|                                    06 41 09 a2|            .A..|      [56]: "1973-04-29T10:00:02Z" (104925602) transition_time 0x10c-0x110 (4)
0x110|07 30 ec 92                                    |.0..            |      [57]: "1973-10-28T09:00:02Z" (120646802) transition_time 0x110-0x114 (4)
0x110|            07 8d 43 a3                        |    ..C.        |      [58]: "1974-01-06T10:00:03Z" (126698403) transition_time 0x114-0x118 (4)
0x110|                        09 10 ce 93            |        ....    |      [59]: "1974-10-27T09:00:03Z" (152096403) transition_time 0x118-0x11c (4)
0x110|                                    09 ad bf 24|            ...$|      [60]: "1975-02-23T10:00:04Z" (162381604) transition_time 0x11c-0x120 (4)
0x120|0a f0 b0 94                                    |....            |      [61]: "1975-10-26T09:00:04Z" (183546004) transition_time 0x120-0x124 (4)
0x120|            0b e0 af a5                        |    ....        |      [62]: "1976-04-25T10:00:05Z" (199274405) transition_time 0x124-0x128 (4)
0x120|                        0c d9 cd 15            |        ....    |      [63]: "1976-10-31T09:00:05Z" (215600405) transition_time 0x128-0x12c (4)
0x120|                                    0d c0 91 a6|            ....|      [64]: "1977-04-24T10:00:06Z" (230724006) transition_time 0x12c-0x130 (4)
0x130|0e b9 af 16                                    |....            |      [65]: "1977-10-30T09:00:06Z" (247050006) transition_time 0x130-0x134 (4)
0x130|            0f a9 ae 27                        |    ...'        |      [66]: "1978-04-30T10:00:07Z" (262778407) transition_time 0x134-0x138 (4)
0x130|                        10 99 91 17            |        ....    |      [67]: "1978-10-29T09:00:07Z" (278499607) transition_time 0x138-0x13c (4)
0x130|                                    11 89 90 28|            ...(|      [68]: "1979-04-29T10:00:08Z" (294228008) transition_time 0x13c-0x140 (4)
0x140|12 79 73 18                                    |.ys.            |      [69]: "1979-10-28T09:00:08Z" (309949208) transition_time 0x140-0x144 (4)
0x140|            13 69 72 29                        |    .ir)        |      [70]: "1980-04-27T10:00:09Z" (325677609) transition_time 0x144-0x148 (4)
0x140|                        14 59 55 19            |        .YU.    |      [71]: "1980-10-26T09:00:09Z" (341398809) transition_time 0x148-0x14c (4)
0x140|                                    15 49 54 29|            .IT)|      [72]: "1981-04-26T10:00:09Z" (357127209) transition_time 0x14c-0x150 (4)
0x150|16 39 37 1a                                    |.97.            |      [73]: "1981-10-25T09:00:10Z" (372848410) transition_time 0x150-0x154 (4)
0x150|            17 29 36 2a                        |    .)6*        |      [74]: "1982-04-25T10:00:10Z" (388576810) transition_time 0x154-0x158 (4)
0x150|                        18 22 53 9b            |        ."S.    |      [75]: "1982-10-31T09:00:11Z" (404902811) transition_time 0x158-0x15c (4)
0x150|                                    19 09 18 2b|            ...+|      [76]: "1983-04-24T10:00:11Z" (420026411) transition_time 0x15c-0x160 (4)
0x160|1a 02 35 9c                                    |..5.            |      [77]: "1983-10-30T09:00:12Z" (436352412) transition_time 0x160-0x164 (4)
0x160|            1a f2 34 ac                        |    ..4.        |      [78]: "1984-04-29T10:00:12Z" (452080812) transition_time 0x164-0x168 (4)
0x160|                        1b e2 17 9c            |        ....    |      [79]: "1984-10-28T09:00:12Z" (467802012) transition_time 0x168-0x16c (4)
0x160|                                    1c d2 16 ac|            ....|      [80]: "1985-04-28T10:00:12Z" (483530412) transition_time 0x16c-0x170 (4)
0x170|1d c1 f9 9d                                    |....            |      [81]: "1985-10-27T09:00:13Z" (499251613) transition_time 0x170-0x174 (4)
0x170|            1e b1 f8 ad                        |    ....        |      [82]: "1986-04-27T10:00:13Z" (514980013) transition_time 0x174-0x178 (4)
0x170|                        1f a1 db 9d            |        ....    |      [83]: "1986-10-26T09:00:13Z" (530701213) transition_time 0x178-0x17c (4)
0x170|                                    20 76 2b 2d|             v+-|      [84]: "1987-04-05T10:00:13Z" (544615213) transition_time 0x17c-0x180 (4)
0x180|21 81 bd 9d                                    |!...            |      [85]: "1987-10-25T09:00:13Z" (562150813) transition_time 0x180-0x184 (4)
0x180|            22 56 0d 2e                        |    "V..        |      [86]: "1988-04-03T10:00:14Z" (576064814) transition_time 0x184-0x188 (4)
0x180|                        23 6a da 1e            |        #j..    |      [87]: "1988-10-30T09:00:14Z" (594205214) transition_time 0x188-0x18c (4)
0x180|                                    24 35 ef 2e|            $5..|      [88]: "1989-04-02T10:00:14Z" (607514414) transition_time 0x18c-0x190 (4)
0x190|25 4a bc 1e                                    |%J..            |      [89]: "1989-10-29T09:00:14Z" (625654814) transition_time 0x190-0x194 (4)
0x190|            26 15 d1 2f                        |    &../        |      [90]: "1990-04-01T10:00:15Z" (638964015) transition_time 0x194-0x198 (4)
0x190|                        27 2a 9e 1f            |        '*..    |      [91]: "1990-10-28T09:00:15Z" (657104415) transition_time 0x198-0x19c (4)
0x190|                                    27 fe ed b0|            '...|      [92]: "1991-04-07T10:00:16Z" (671018416) transition_time 0x19c-0x1a0 (4)
0x1a0|29 0a 80 20                                    |)..             |      [93]: "1991-10-27T09:00:16Z" (688554016) transition_time 0x1a0-0x1a4 (4)
0x1a0|            29 de cf b0                        |    )...        |      [94]: "1992-04-05T10:00:16Z" (702468016) transition_time 0x1a4-0x1a8 (4)
0x1a0|                        2a ea 62 21            |        *.b!    |      [95]: "1992-10-25T09:00:17Z" (720003617) transition_time 0x1a8-0x1ac (4)
0x1a0|                                    2b be b1 b1|            +...|      [96]: "1993-04-04T10:00:17Z" (733917617) transition_time 0x1ac-0x1b0 (4)
0x1b0|2c d3 7e a2                                    |,.~.            |      [97]: "1993-10-31T09:00:18Z" (752058018) transition_time 0x1b0-0x1b4 (4)
0x1b0|            2d 9e 93 b2                        |    -...        |      [98]: "1994-04-03T10:00:18Z" (765367218) transition_time 0x1b4-0x1b8 (4)
0x1b0|                        2e b3 60 a3            |        ..`.    |      [99]: "1994-10-30T09:00:19Z" (783507619) transition_time 0x1b8-0x1bc (4)
0x1b0|                                    2f 7e 75 b3|            /~u.|      [100]: "1995-04-02T10:00:19Z" (796816819) transition_time 0x1bc-0x1c0 (4)
0x1c0|30 93 42 a3                                    |0.B.            |      [101]: "1995-10-29T09:00:19Z" (814957219) transition_time 0x1c0-0x1c4 (4)
0x1c0|            31 67 92 34                        |    1g.4        |      [102]: "1996-04-07T10:00:20Z" (828871220) transition_time 0x1c4-0x1c8 (4)
0x1c0|                        32 73 24 a4            |        2s$.    |      [103]: "1996-10-27T09:00:20Z" (846406820) transition_time 0x1c8-0x1cc (4)
0x1c0|                                    33 47 74 34|            3Gt4|      [104]: "1997-04-06T10:00:20Z" (860320820) transition_time 0x1cc-0x1d0 (4)
0x1d0|34 53 06 a5                                    |4S..            |      [105]: "1997-10-26T09:00:21Z" (877856421) transition_time 0x1d0-0x1d4 (4)
0x1d0|            35 27 56 35                        |    5'V5        |      [106]: "1998-04-05T10:00:21Z" (891770421) transition_time 0x1d4-0x1d8 (4)
0x1d0|                        36 32 e8 a5            |        62..    |      [107]: "1998-10-25T09:00:21Z" (909306021) transition_time 0x1d8-0x1dc (4)
0x1d0|                                    37 07 38 36|            7.86|      [108]: "1999-04-04T10:00:22Z" (923220022) transition_time 0x1dc-0x1e0 (4)
0x1e0|38 1c 05 26                                    |8..&            |      [109]: "1999-10-31T09:00:22Z" (941360422) transition_time 0x1e0-0x1e4 (4)
0x1e0|            38 e7 1a 36                        |    8..6        |      [110]: "2000-04-02T10:00:22Z" (954669622) transition_time 0x1e4-0x1e8 (4)
0x1e0|                        39 fb e7 26            |        9..&    |      [111]: "2000-10-29T09:00:22Z" (972810022) transition_time 0x1e8-0x1ec (4)
0x1e0|                                    3a c6 fc 36|            :..6|      [112]: "2001-04-01T10:00:22Z" (986119222) transition_time 0x1ec-0x1f0 (4)
0x1f0|3b db c9 26                                    |;..&            |      [113]: "2001-10-28T09:00:22Z" (1004259622) transition_time 0x1f0-0x1f4 (4)
0x1f0|            3c b0 18 b6                        |    <...        |      [114]: "2002-04-07T10:00:22Z" (1018173622) transition_time 0x1f4-0x1f8 (4)
0x1f0|                        3d bb ab 26            |        =..&    |      [115]: "2002-10-27T09:00:22Z" (1035709222) transition_time 0x1f8-0x1fc (4)
0x1f0|                                    3e 8f fa b6|            >...|      [116]: "2003-04-06T10:00:22Z" (1049623222) transition_time 0x1fc-0x200 (4)
0x200|3f 9b 8d 26                                    |?..&            |      [117]: "2003-10-26T09:00:22Z" (1067158822) transition_time 0x200-0x204 (4)
0x200|            40 6f dc b6                        |    @o..        |      [118]: "2004-04-04T10:00:22Z" (1081072822) transition_time 0x204-0x208 (4)
0x200|                        41 84 a9 a6            |        A...    |      [119]: "2004-10-31T09:00:22Z" (1099213222) transition_time 0x208-0x20c (4)
0x200|                                    42 4f be b6|            BO..|      [120]: "2005-04-03T10:00:22Z" (1112522422) transition_time 0x20c-0x210 (4)
0x210|43 64 8b a6                                    |Cd..            |      [121]: "2005-10-30T09:00:22Z" (1130662822) transition_time 0x210-0x214 (4)
0x210|            44 2f a0 b7                        |    D/..        |      [122]: "2006-04-02T10:00:23Z" (1143972023) transition_time 0x214-0x218 (4)
0x210|                        45 44 6d a7            |        EDm.    |      [123]: "2006-10-29T09:00:23Z" (1162112423) transition_time 0x218-0x21c (4)
0x210|                                    45 f3 d3 37|            E..7|      [124]: "2007-03-11T10:00:23Z" (1173607223) transition_time 0x21c-0x220 (4)
0x220|47 2d 8a 27                                    |G-.'            |      [125]: "2007-11-04T09:00:23Z" (1194166823) transition_time 0x220-0x224 (4)
0x220|            47 d3 b5 37                        |    G..7        |      [126]: "2008-03-09T10:00:23Z" (1205056823) transition_time 0x224-0x228 (4)
0x220|                        49 0d 6c 27            |        I.l'    |      [127]: "2008-11-02T09:00:23Z" (1225616423) transition_time 0x228-0x22c (4)
0x220|                                    49 b3 97 38|            I..8|      [128]: "2009-03-08T10:00:24Z" (1236506424) transition_time 0x22c-0x230 (4)
0x230|4a ed 4e 28                                    |J.N(            |      [129]: "2009-11-01T09:00:24Z" (1257066024) transition_time 0x230-0x234 (4)
0x230|            4b 9c b3 b8                        |    K...        |      [130]: "2010-03-14T10:00:24Z" (1268560824) transition_time 0x234-0x238 (4)
0x230|                        4c d6 6a a8            |        L.j.    |      [131]: "2010-11-07T09:00:24Z" (1289120424) transition_time 0x238-0x23c (4)
0x230|                                    4d 7c 95 b8|            M|..|      [132]: "2011-03-13T10:00:24Z" (1300010424) transition_time 0x23c-0x240 (4)
0x240|4e b6 4c a8                                    |N.L.            |      [133]: "2011-11-06T09:00:24Z" (1320570024) transition_time 0x240-0x244 (4)
0x240|            4f 5c 77 b8                        |    O\w.        |      [134]: "2012-03-11T10:00:24Z" (1331460024) transition_time 0x244-0x248 (4)
0x240|                        50 96 2e a9            |        P...    |      [135]: "2012-11-04T09:00:25Z" (1352019625) transition_time 0x248-0x24c (4)
0x240|                                    51 3c 59 b9|            Q<Y.|      [136]: "2013-03-10T10:00:25Z" (1362909625) transition_time 0x24c-0x250 (4)
0x250|52 76 10 a9                                    |Rv..            |      [137]: "2013-11-03T09:00:25Z" (1383469225) transition_time 0x250-0x254 (4)
0x250|            53 1c 3b b9                        |    S.;.        |      [138]: "2014-03-09T10:00:25Z" (1394359225) transition_time 0x254-0x258 (4)
0x250|                        54 55 f2 a9            |        TU..    |      [139]: "2014-11-02T09:00:25Z" (1414918825) transition_time 0x258-0x25c (4)
0x250|                                    54 fc 1d b9|            T...|      [140]: "2015-03-08T10:00:25Z" (1425808825) transition_time 0x25c-0x260 (4)
0x260|56 35 d4 aa                                    |V5..            |      [141]: "2015-11-01T09:00:26Z" (1446368426) transition_time 0x260-0x264 (4)
0x260|            56 e5 3a 3a                        |    V.::        |      [142]: "2016-03-13T10:00:26Z" (1457863226) transition_time 0x264-0x268 (4)
0x260|                        58 1e f1 2a            |        X..*    |      [143]: "2016-11-06T09:00:26Z" (1478422826) transition_time 0x268-0x26c (4)
0x260|                                    58 c5 1c 3b|            X..;|      [144]: "2017-03-12T10:00:27Z" (1489312827) transition_time 0x26c-0x270 (4)
0x270|59 fe d3 2b                                    |Y..+            |      [145]: "2017-11-05T09:00:27Z" (1509872427) transition_time 0x270-0x274 (4)
0x270|            5a a4 fe 3b                        |    Z..;        |      [146]: "2018-03-11T10:00:27Z" (1520762427) transition_time 0x274-0x278 (4)
0x270|                        5b de b5 2b            |        [..+    |      [147]: "2018-11-04T09:00:27Z" (1541322027) transition_time 0x278-0x27c (4)
0x270|                                    5c 84 e0 3b|            \..;|      [148]: "2019-03-10T10:00:27Z" (1552212027) transition_time 0x27c-0x280 (4)
0x280|5d be 97 2b                                    |]..+            |      [149]: "2019-11-03T09:00:27Z" (1572771627) transition_time 0x280-0x284 (4)
0x280|            5e 64 c2 3b                        |    ^d.;        |      [150]: "2020-03-08T10:00:27Z" (1583661627) transition_time 0x284-0x288 (4)
0x280|                        5f 9e 79 2b            |        _.y+    |      [151]: "2020-11-01T09:00:27Z" (1604221227) transition_time 0x288-0x28c (4)
0x280|                                    60 4d de bb|            `M..|      [152]: "2021-03-14T10:00:27Z" (1615716027) transition_time 0x28c-0x290 (4)
0x290|61 87 95 ab                                    |a...            |      [153]: "2021-11-07T09:00:27Z" (1636275627) transition_time 0x290-0x294 (4)
0x290|            62 2d c0 bb                        |    b-..        |      [154]: "2022-03-13T10:00:27Z" (1647165627) transition_time 0x294-0x298 (4)
0x290|                        63 67 77 ab            |        cgw.    |      [155]: "2022-11-06T09:00:27Z" (1667725227) transition_time 0x298-0x29c (4)
0x290|                                    64 0d a2 bb|            d...|      [156]: "2023-03-12T10:00:27Z" (1678615227) transition_time 0x29c-0x2a0 (4)
0x2a0|64 9b 78 1b                                    |d.x.            |      [157]: "2023-06-28T00:00:27Z" (1687910427) transition_time 0x2a0-0x2a4 (4)
     |                                               |                |    transition_types[0:158]: 0x2a4-0x342 (158)
0x2a0|            05                                 |    .           |      [0]: 5 transition_type 0x2a4-0x2a5 (1)
0x2a0|               01                              |     .          |      [1]: 1 transition_type 0x2a5-0x2a6 (1)
0x2a0|                  02                           |      .         |      [2]: 2 transition_type 0x2a6-0x2a7 (1)
0x2a0|                     01                        |       .        |      [3]: 1 transition_type 0x2a7-0x2a8 (1)
0x2a0|                        02                     |        .       |      [4]: 2 transition_type 0x2a8-0x2a9 (1)
0x2a0|                           03                  |         .      |      [5]: 3 transition_type 0x2a9-0x2aa (1)
0x2a0|                              04               |          .     |      [6]: 4 transition_type 0x2aa-0x2ab (1)
0x2a0|                                 02            |           .    |      [7]: 2 transition_type 0x2ab-0x2ac (1)
0x2a0|                                    01         |            .   |      [8]: 1 transition_type 0x2ac-0x2ad (1)
0x2a0|                                       02      |             .  |      [9]: 2 transition_type 0x2ad-0x2ae (1)
0x2a0|                                          01   |              . |      [10]: 1 transition_type 0x2ae-0x2af (1)
0x2a0|                                             02|               .|      [11]: 2 transition_type 0x2af-0x2b0 (1)
0x2b0|01                                             |.               |      [12]: 1 transition_type 0x2b0-0x2b1 (1)
0x2b0|   02                                          | .              |      [13]: 2 transition_type 0x2b1-0x2b2 (1)
0x2b0|      01                                       |  .             |      [14]: 1 transition_type 0x2b2-0x2b3 (1)
0x2b0|         02                                    |   .            |      [15]: 2 transition_type 0x2b3-0x2b4 (1)
0x2b0|            01                                 |    .           |      [16]: 1 transition_type 0x2b4-0x2b5 (1)
0x2b0|               02                              |     .          |      [17]: 2 transition_type 0x2b5-0x2b6 (1)
0x2b0|                  01                           |      .         |      [18]: 1 transition_type 0x2b6-0x2b7 (1)
0x2b0|                     02                        |       .        |      [19]: 2 transition_type 0x2b7-0x2b8 (1)
0x2b0|                        01                     |        .       |      [20]: 1 transition_type 0x2b8-0x2b9 (1)
0x2b0|                           02                  |         .      |      [21]: 2 transition_type 0x2b9-0x2ba (1)
0x2b0|                              01               |          .     |      [22]: 1 transition_type 0x2ba-0x2bb (1)
0x2b0|                                 02            |           .    |      [23]: 2 transition_type 0x2bb-0x2bc (1)
0x2b0|                                    01         |            .   |      [24]: 1 transition_type 0x2bc-0x2bd (1)
0x2b0|                                       02      |             .  |      [25]: 2 transition_type 0x2bd-0x2be (1)
0x2b0|                                          01   |              . |      [26]: 1 transition_type 0x2be-0x2bf (1)
0x2b0|                                             02|               .|      [27]: 2 transition_type 0x2bf-0x2c0 (1)
0x2c0|01                                             |.               |      [28]: 1 transition_type 0x2c0-0x2c1 (1)
0x2c0|   02                                          | .              |      [29]: 2 transition_type 0x2c1-0x2c2 (1)
0x2c0|      01                                       |  .             |      [30]: 1 transition_type 0x2c2-0x2c3 (1)
0x2c0|         02                                    |   .            |      [31]: 2 transition_type 0x2c3-0x2c4 (1)
0x2c0|            01                                 |    .           |      [32]: 1 transition_type 0x2c4-0x2c5 (1)
0x2c0|               02                              |     .          |      [33]: 2 transition_type 0x2c5-0x2c6 (1)
0x2c0|                  01                           |      .         |      [34]: 1 transition_type 0x2c6-0x2c7 (1)
0x2c0|                     02                        |       .        |      [35]: 2 transition_type 0x2c7-0x2c8 (1)
0x2c0|                        01                     |        .       |      [36]: 1 transition_type 0x2c8-0x2c9 (1)
0x2c0|                           02                  |         .      |      [37]: 2 transition_type 0x2c9-0x2ca (1)
0x2c0|                              01               |          .     |      [38]: 1 transition_type 0x2ca-0x2cb (1)
0x2c0|                                 02            |           .    |      [39]: 2 transition_type 0x2cb-0x2cc (1)
0x2c0|                                    01         |            .   |      [40]: 1 transition_type 0x2cc-0x2cd (1)
0x2c0|                                       02      |             .  |      [41]: 2 transition_type 0x2cd-0x2ce (1)
0x2c0|                                          01   |              . |      [42]: 1 transition_type 0x2ce-0x2cf (1)
0x2c0|                                             02|               .|      [43]: 2 transition_type 0x2cf-0x2d0 (1)
0x2d0|01                                             |.               |      [44]: 1 transition_type 0x2d0-0x2d1 (1)
0x2d0|   02                                          | .              |      [45]: 2 transition_type 0x2d1-0x2d2 (1)
0x2d0|      01                                       |  .             |      [46]: 1 transition_type 0x2d2-0x2d3 (1)
0x2d0|         02                                    |   .            |      [47]: 2 transition_type 0x2d3-0x2d4 (1)
0x2d0|            01                                 |    .           |      [48]: 1 transition_type 0x2d4-0x2d5 (1)
0x2d0|               02                              |     .          |      [49]: 2 transition_type 0x2d5-0x2d6 (1)
0x2d0|                  01                           |      .         |      [50]: 1 transition_type 0x2d6-0x2d7 (1)
0x2d0|                     02                        |       .        |      [51]: 2 transition_type 0x2d7-0x2d8 (1)
0x2d0|                        01                     |        .       |      [52]: 1 transition_type 0x2d8-0x2d9 (1)
0x2d0|                           02                  |         .      |      [53]: 2 transition_type 0x2d9-0x2da (1)
0x2d0|                              01               |          .     |      [54]: 1 transition_type 0x2da-0x2db (1)
0x2d0|                                 02            |           .    |      [55]: 2 transition_type 0x2db-0x2dc (1)
0x2d0|                                    01         |            .   |      [56]: 1 transition_type 0x2dc-0x2dd (1)
0x2d0|                                       02      |             .  |      [57]: 2 transition_type 0x2dd-0x2de (1)
0x2d0|                                          01   |              . |      [58]: 1 transition_type 0x2de-0x2df (1)
0x2d0|                                             02|               .|      [59]: 2 transition_type 0x2df-0x2e0 (1)
0x2e0|01                                             |.               |      [60]: 1 transition_type 0x2e0-0x2e1 (1)
0x2e0|   02                                          | .              |      [61]: 2 transition_type 0x2e1-0x2e2 (1)
0x2e0|      01                                       |  .             |      [62]: 1 transition_type 0x2e2-0x2e3 (1)
0x2e0|         02                                    |   .            |      [63]: 2 transition_type 0x2e3-0x2e4 (1)
0x2e0|            01                                 |    .           |      [64]: 1 transition_type 0x2e4-0x2e5 (1)
0x2e0|               02                              |     .          |      [65]: 2 transition_type 0x2e5-0x2e6 (1)
0x2e0|                  01                           |      .         |      [66]: 1 transition_type 0x2e6-0x2e7 (1)
0x2e0|                     02                        |       .        |      [67]: 2 transition_type 0x2e7-0x2e8 (1)
0x2e0|                        01                     |        .       |      [68]: 1 transition_type 0x2e8-0x2e9 (1)
0x2e0|                           02                  |         .      |      [69]: 2 transition_type 0x2e9-0x2ea (1)
0x2e0|                              01               |          .     |      [70]: 1 transition_type 0x2ea-0x2eb (1)
0x2e0|                                 02            |           .    |      [71]: 2 transition_type 0x2eb-0x2ec (1)
0x2e0|                                    01         |            .   |      [72]: 1 transition_type 0x2ec-0x2ed (1)
0x2e0|                                       02      |             .  |      [73]: 2 transition_type 0x2ed-0x2ee (1)
0x2e0|                                          01   |              . |      [74]: 1 transition_type 0x2ee-0x2ef (1)
0x2e0|                                             02|               .|      [75]: 2 transition_type 0x2ef-0x2f0 (1)
0x2f0|01                                             |.               |      [76]: 1 transition_type 0x2f0-0x2f1 (1)
0x2f0|   02                                          | .              |      [77]: 2 transition_type 0x2f1-0x2f2 (1)
0x2f0|      01                                       |  .             |      [78]: 1 transition_type 0x2f2-0x2f3 (1)
0x2f0|         02                                    |   .            |      [79]: 2 transition_type 0x2f3-0x2f4 (1)
0x2f0|            01                                 |    .           |      [80]: 1 transition_type 0x2f4-0x2f5 (1)
0x2f0|               02                              |     .          |      [81]: 2 transition_type 0x2f5-0x2f6 (1)
0x2f0|                  01                           |      .         |      [82]: 1 transition_type 0x2f6-0x2f7 (1)
0x2f0|                     02                        |       .        |      [83]: 2 transition_type 0x2f7-0x2f8 (1)
0x2f0|                        01                     |        .       |      [84]: 1 transition_type 0x2f8-0x2f9 (1)
0x2f0|                           02                  |         .      |      [85]: 2 transition_type 0x2f9-0x2fa (1)
0x2f0|                              01               |          .     |      [86]: 1 transition_type 0x2fa-0x2fb (1)
0x2f0|                                 02            |           .    |      [87]: 2 transition_type 0x2fb-0x2fc (1)
0x2f0|                                    01         |            .   |      [88]: 1 transition_type 0x2fc-0x2fd (1)
0x2f0|                                       02      |             .  |      [89]: 2 transition_type 0x2fd-0x2fe (1)
0x2f0|                                          01   |              . |      [90]: 1 transition_type 0x2fe-0x2ff (1)
0x2f0|                                             02|               .|      [91]: 2 transition_type 0x2ff-0x300 (1)
0x300|01                                             |.               |      [92]: 1 transition_type 0x300-0x301 (1)
0x300|   02                                          | .              |      [93]: 2 transition_type 0x301-0x302 (1)
0x300|      01                                       |  .             |      [94]: 1 transition_type 0x302-0x303 (1)
0x300|         02                                    |   .            |      [95]: 2 transition_type 0x303-0x304 (1)
0x300|            01                                 |    .           |      [96]: 1 transition_type 0x304-0x305 (1)
0x300|               02                              |     .          |      [97]: 2 transition_type 0x305-0x306 (1)
0x300|                  01                           |      .         |      [98]: 1 transition_type 0x306-0x307 (1)
0x300|                     02                        |       .        |      [99]: 2 transition_type 0x307-0x308 (1)
0x300|                        01                     |        .       |      [100]: 1 transition_type 0x308-0x309 (1)
0x300|                           02                  |         .      |      [101]: 2 transition_type 0x309-0x30a (1)
0x300|                              01               |          .     |      [102]: 1 transition_type 0x30a-0x30b (1)
0x300|                                 02            |           .    |      [103]: 2 transition_type 0x30b-0x30c (1)
0x300|                                    01         |            .   |      [104]: 1 transition_type 0x30c-0x30d (1)
0x300|                                       02      |             .  |      [105]: 2 transition_type 0x30d-0x30e (1)
0x300|                                          01   |              . |      [106]: 1 transition_type 0x30e-0x30f (1)
0x300|                                             02|               .|      [107]: 2 transition_type 0x30f-0x310 (1)
0x310|01                                             |.               |      [108]: 1 transition_type 0x310-0x311 (1)
0x310|   02                                          | .              |      [109]: 2 transition_type 0x311-0x312 (1)
0x310|      01                                       |  .             |      [110]: 1 transition_type 0x312-0x313 (1)
0x310|         02                                    |   .            |      [111]: 2 transition_type 0x313-0x314 (1)
0x310|            01                                 |    .           |      [112]: 1 transition_type 0x314-0x315 (1)
0x310|               02                              |     .          |      [113]: 2 transition_type 0x315-0x316 (1)
0x310|                  01                           |      .         |      [114]: 1 transition_type 0x316-0x317 (1)
0x310|                     02                        |       .        |      [115]: 2 transition_type 0x317-0x318 (1)
0x310|                        01                     |        .       |      [116]: 1 transition_type 0x318-0x319 (1)
0x310|                           02                  |         .      |      [117]: 2 transition_type 0x319-0x31a (1)
0x310|                              01               |          .     |      [118]: 1 transition_type 0x31a-0x31b (1)
0x310|                                 02            |           .    |      [119]: 2 transition_type 0x31b-0x31c (1)
0x310|                                    01         |            .   |      [120]: 1 transition_type 0x31c-0x31d (1)
0x310|                                       02      |             .  |      [121]: 2 transition_type 0x31d-0x31e (1)
0x310|                                          01   |              . |      [122]: 1 transition_type 0x31e-0x31f (1)
0x310|                                             02|               .|      [123]: 2 transition_type 0x31f-0x320 (1)
0x320|01                                             |.               |      [124]: 1 transition_type 0x320-0x321 (1)
0x320|   02                                          | .              |      [125]: 2 transition_type 0x321-0x322 (1)
0x320|      01                                       |  .             |      [126]: 1 transition_type 0x322-0x323 (1)
0x320|         02                                    |   .            |      [127]: 2 transition_type 0x323-0x324 (1)
0x320|            01                                 |    .           |      [128]: 1 transition_type 0x324-0x325 (1)
0x320|               02                              |     .          |      [129]: 2 transition_type 0x325-0x326 (1)
0x320|                  01                           |      .         |      [130]: 1 transition_type 0x326-0x327 (1)
0x320|                     02                        |       .        |      [131]: 2 transition_type 0x327-0x328 (1)
0x320|                        01                     |        .       |      [132]: 1 transition_type 0x328-0x329 (1)
0x320|                           02                  |         .      |      [133]: 2 transition_type 0x329-0x32a (1)
0x320|                              01               |          .     |      [134]: 1 transition_type 0x32a-0x32b (1)
0x320|                                 02            |           .    |      [135]: 2 transition_type 0x32b-0x32c (1)
0x320|                                    01         |            .   |      [136]: 1 transition_type 0x32c-0x32d (1)
0x320|                                       02      |             .  |      [137]: 2 transition_type 0x32d-0x32e (1)
0x320|                                          01   |              . |      [138]: 1 transition_type 0x32e-0x32f (1)
0x320|                                             02|               .|      [139]: 2 transition_type 0x32f-0x330 (1)
0x330|01                                             |.               |      [140]: 1 transition_type 0x330-0x331 (1)
0x330|   02                                          | .              |      [141]: 2 transition_type 0x331-0x332 (1)
0x330|      01                                       |  .             |      [142]: 1 transition_type 0x332-0x333 (1)
0x330|         02                                    |   .            |      [143]: 2 transition_type 0x333-0x334 (1)
0x330|            01                                 |    .           |      [144]: 1 transition_type 0x334-0x335 (1)
0x330|               02                              |     .          |      [145]: 2 transition_type 0x335-0x336 (1)
0x330|                  01                           |      .         |      [146]: 1 transition_type 0x336-0x337 (1)
0x330|                     02                        |       .        |      [147]: 2 transition_type 0x337-0x338 (1)
0x330|                        01                     |        .       |      [148]: 1 transition_type 0x338-0x339 (1)
0x330|                           02                  |         .      |      [149]: 2 transition_type 0x339-0x33a (1)
0x330|                              01               |          .     |      [150]: 1 transition_type 0x33a-0x33b (1)
0x330|                                 02            |           .    |      [151]: 2 transition_type 0x33b-0x33c (1)
0x330|                                    01         |            .   |      [152]: 1 transition_type 0x33c-0x33d (1)
0x330|                                       02      |             .  |      [153]: 2 transition_type 0x33d-0x33e (1)
0x330|                                          01   |              . |      [154]: 1 transition_type 0x33e-0x33f (1)
0x330|                                             02|               .|      [155]: 2 transition_type 0x33f-0x340 (1)
0x340|01                                             |.               |      [156]: 1 transition_type 0x340-0x341 (1)
0x340|   01                                          | .              |      [157]: 1 transition_type 0x341-0x342 (1)
     |                                               |                |    local_time_type_records[0:6]: 0x342-0x366 (36)
     |                                               |                |      [0]{}: local_time_type 0x342-0x348 (6)
0x340|      ff ff 91 26                              |  ...&          |        utoff: -28378 (valid) 0x342-0x346 (4)
0x340|                  00                           |      .         |        dst: 0 (valid) 0x346-0x347 (1)
0x340|                     00                        |       .        |        idx: 0 (valid) 0x347-0x348 (1)
     |                                               |                |      [1]{}: local_time_type 0x348-0x34e (6)
0x340|                        ff ff 9d 90            |        ....    |        utoff: -25200 (valid) 0x348-0x34c (4)
0x340|                                    01         |            .   |        dst: 1 (valid) 0x34c-0x34d (1)
0x340|                                       04      |             .  |        idx: 4 (valid) 0x34d-0x34e (1)
     |                                               |                |      [2]{}: local_time_type 0x34e-0x354 (6)
0x340|                                          ff ff|              ..|        utoff: -28800 (valid) 0x34e-0x352 (4)
0x350|8f 80                                          |..              |
0x350|      00                                       |  .             |        dst: 0 (valid) 0x352-0x353 (1)
0x350|         08                                    |   .            |        idx: 8 (valid) 0x353-0x354 (1)
     |                                               |                |      [3]{}: local_time_type 0x354-0x35a (6)
0x350|            ff ff 9d 90                        |    ....        |        utoff: -25200 (valid) 0x354-0x358 (4)
0x350|                        01                     |        .       |        dst: 1 (valid) 0x358-0x359 (1)
0x350|                           0c                  |         .      |        idx: 12 (valid) 0x359-0x35a (1)
     |                                               |                |      [4]{}: local_time_type 0x35a-0x360 (6)
0x350|                              ff ff 9d 90      |          ....  |        utoff: -25200 (valid) 0x35a-0x35e (4)
0x350|                                          01   |              . |        dst: 1 (valid) 0x35e-0x35f (1)
0x350|                                             10|               .|        idx: 16 (valid) 0x35f-0x360 (1)
     |                                               |                |      [5]{}: local_time_type 0x360-0x366 (6)
0x360|ff ff 8f 80                                    |....            |        utoff: -28800 (valid) 0x360-0x364 (4)
0x360|            00                                 |    .           |        dst: 0 (valid) 0x364-0x365 (1)
0x360|               08                              |     .          |        idx: 8 (valid) 0x365-0x366 (1)
     |                                               |                |    time_zone_designations[0:5]: 0x366-0x37a (20)
0x360|                  4c 4d 54 00                  |      LMT.      |      [0]: "LMT" time_zone_designation 0x366-0x36a (4)
0x360|                              50 44 54 00      |          PDT.  |      [1]: "PDT" time_zone_designation 0x36a-0x36e (4)
0x360|                                          50 53|              PS|      [2]: "PST" time_zone_designation 0x36e-0x372 (4)
0x370|54 00                                          |T.              |
0x370|      50 57 54 00                              |  PWT.          |      [3]: "PWT" time_zone_designation 0x372-0x376 (4)
0x370|                  50 50 54 00                  |      PPT.      |      [4]: "PPT" time_zone_designation 0x376-0x37a (4)
     |                                               |                |    leap_second_records[0:27]: 0x37a-0x452 (216)
     |                                               |                |      [0]{}: leap_second_record 0x37a-0x382 (8)
0x370|                              04 b2 58 00      |          ..X.  |        occur: "1972-07-01T00:00:00Z" (78796800) 0x37a-0x37e (4)
0x370|                                          00 00|              ..|        corr: 1 0x37e-0x382 (4)
0x380|00 01                                          |..              |
     |                                               |                |      [1]{}: leap_second_record 0x382-0x38a (8)
0x380|      05 a4 ec 01                              |  ....          |        occur: "1973-01-01T00:00:01Z" (94694401) 0x382-0x386 (4)
0x380|                  00 00 00 02                  |      ....      |        corr: 2 0x386-0x38a (4)
     |                                               |                |      [2]{}: leap_second_record 0x38a-0x392 (8)
0x380|                              07 86 1f 82      |          ....  |        occur: "1974-01-01T00:00:02Z" (126230402) 0x38a-0x38e (4)
0x380|                                          00 00|              ..|        corr: 3 0x38e-0x392 (4)
0x390|00 03                                          |..              |
     |                                               |                |      [3]{}: leap_second_record 0x392-0x39a (8)
0x390|      09 67 53 03                              |  .gS.          |        occur: "1975-01-01T00:00:03Z" (157766403) 0x392-0x396 (4)
0x390|                  00 00 00 04                  |      ....      |        corr: 4 0x396-0x39a (4)
     |                                               |                |      [4]{}: leap_second_record 0x39a-0x3a2 (8)
0x390|                              0b 48 86 84      |          .H..  |        occur: "1976-01-01T00:00:04Z" (189302404) 0x39a-0x39e (4)
0x390|                                          00 00|              ..|        corr: 5 0x39e-0x3a2 (4)
0x3a0|00 05                                          |..              |
     |                                               |                |      [5]{}: leap_second_record 0x3a2-0x3aa (8)
0x3a0|      0d 2b 0b 85                              |  .+..          |        occur: "1977-01-01T00:00:05Z" (220924805) 0x3a2-0x3a6 (4)
0x3a0|                  00 00 00 06                  |      ....      |        corr: 6 0x3a6-0x3aa (4)
     |                                               |                |      [6]{}: leap_second_record 0x3aa-0x3b2 (8)
0x3a0|                              0f 0c 3f 06      |          ..?.  |        occur: "1978-01-01T00:00:06Z" (252460806) 0x3aa-0x3ae (4)
0x3a0|                                          00 00|              ..|        corr: 7 0x3ae-0x3b2 (4)
0x3b0|00 07                                          |..              |
     |                                               |                |      [7]{}: leap_second_record 0x3b2-0x3ba (8)
0x3b0|      10 ed 72 87                              |  ..r.          |        occur: "1979-01-01T00:00:07Z" (283996807) 0x3b2-0x3b6 (4)
0x3b0|                  00 00 00 08                  |      ....      |        corr: 8 0x3b6-0x3ba (4)
     |                                               |                |      [8]{}: leap_second_record 0x3ba-0x3c2 (8)
0x3b0|                              12 ce a6 08      |          ....  |        occur: "1980-01-01T00:00:08Z" (315532808) 0x3ba-0x3be (4)
0x3b0|                                          00 00|              ..|        corr: 9 0x3be-0x3c2 (4)
0x3c0|00 09                                          |..              |
     |                                               |                |      [9]{}: leap_second_record 0x3c2-0x3ca (8)
0x3c0|      15 9f ca 89                              |  ....          |        occur: "1981-07-01T00:00:09Z" (362793609) 0x3c2-0x3c6 (4)
0x3c0|                  00 00 00 0a                  |      ....      |        corr: 10 0x3c6-0x3ca (4)
     |                                               |                |      [10]{}: leap_second_record 0x3ca-0x3d2 (8)
0x3c0|                              17 80 fe 0a      |          ....  |        occur: "1982-07-01T00:00:10Z" (394329610) 0x3ca-0x3ce (4)
0x3c0|                                          00 00|              ..|        corr: 11 0x3ce-0x3d2 (4)
0x3d0|00 0b                                          |..              |
     |                                               |                |      [11]{}: leap_second_record 0x3d2-0x3da (8)
0x3d0|      19 62 31 8b                              |  .b1.          |        occur: "1983-07-01T00:00:11Z" (425865611) 0x3d2-0x3d6 (4)
0x3d0|                  00 00 00 0c                  |      ....      |        corr: 12 0x3d6-0x3da (4)
     |                                               |                |      [12]{}: leap_second_record 0x3da-0x3e2 (8)
0x3d0|                              1d 25 ea 0c      |          .%..  |        occur: "1985-07-01T00:00:12Z" (489024012) 0x3da-0x3de (4)
0x3d0|                                          00 00|              ..|        corr: 13 0x3de-0x3e2 (4)
0x3e0|00 0d                                          |..              |
     |                                               |                |      [13]{}: leap_second_record 0x3e2-0x3ea (8)
0x3e0|      21 da e5 0d                              |  !...          |        occur: "1988-01-01T00:00:13Z" (567993613) 0x3e2-0x3e6 (4)
0x3e0|                  00 00 00 0e                  |      ....      |        corr: 14 0x3e6-0x3ea (4)
     |                                               |                |      [14]{}: leap_second_record 0x3ea-0x3f2 (8)
0x3e0|                              25 9e 9d 8e      |          %...  |        occur: "1990-01-01T00:00:14Z" (631152014) 0x3ea-0x3ee (4)
0x3e0|                                          00 00|              ..|        corr: 15 0x3ee-0x3f2 (4)
0x3f0|00 0f                                          |..              |
     |                                               |                |      [15]{}: leap_second_record 0x3f2-0x3fa (8)
0x3f0|      27 7f d1 0f                              |  '...          |        occur: "1991-01-01T00:00:15Z" (662688015) 0x3f2-0x3f6 (4)
0x3f0|                  00 00 00 10                  |      ....      |        corr: 16 0x3f6-0x3fa (4)
     |                                               |                |      [16]{}: leap_second_record 0x3fa-0x402 (8)
0x3f0|                              2a 50 f5 90      |          *P..  |        occur: "1992-07-01T00:00:16Z" (709948816) 0x3fa-0x3fe (4)
0x3f0|                                          00 00|              ..|        corr: 17 0x3fe-0x402 (4)
0x400|00 11                                          |..              |
     |                                               |                |      [17]{}: leap_second_record 0x402-0x40a (8)
0x400|      2c 32 29 11                              |  ,2).          |        occur: "1993-07-01T00:00:17Z" (741484817) 0x402-0x406 (4)
0x400|                  00 00 00 12                  |      ....      |        corr: 18 0x406-0x40a (4)
     |                                               |                |      [18]{}: leap_second_record 0x40a-0x412 (8)
0x400|                              2e 13 5c 92      |          ..\.  |        occur: "1994-07-01T00:00:18Z" (773020818) 0x40a-0x40e (4)
0x400|                                          00 00|              ..|        corr: 19 0x40e-0x412 (4)
0x410|00 13                                          |..              |
     |                                               |                |      [19]{}: leap_second_record 0x412-0x41a (8)
0x410|      30 e7 24 13                              |  0.$.          |        occur: "1996-01-01T00:00:19Z" (820454419) 0x412-0x416 (4)
0x410|                  00 00 00 14                  |      ....      |        corr: 20 0x416-0x41a (4)
     |                                               |                |      [20]{}: leap_second_record 0x41a-0x422 (8)
0x410|                              33 b8 48 94      |          3.H.  |        occur: "1997-07-01T00:00:20Z" (867715220) 0x41a-0x41e (4)
0x410|                                          00 00|              ..|        corr: 21 0x41e-0x422 (4)
0x420|00 15                                          |..              |
     |                                               |                |      [21]{}: leap_second_record 0x422-0x42a (8)
0x420|      36 8c 10 15                              |  6...          |        occur: "1999-01-01T00:00:21Z" (915148821) 0x422-0x426 (4)
0x420|                  00 00 00 16                  |      ....      |        corr: 22 0x426-0x42a (4)
     |                                               |                |      [22]{}: leap_second_record 0x42a-0x432 (8)
0x420|                              43 b7 1b 96      |          C...  |        occur: "2006-01-01T00:00:22Z" (1136073622) 0x42a-0x42e (4)
0x420|                                          00 00|              ..|        corr: 23 0x42e-0x432 (4)
0x430|00 17                                          |..              |
     |                                               |                |      [23]{}: leap_second_record 0x432-0x43a (8)
0x430|      49 5c 07 97                              |  I\..          |        occur: "2009-01-01T00:00:23Z" (1230768023) 0x432-0x436 (4)
0x430|                  00 00 00 18                  |      ....      |        corr: 24 0x436-0x43a (4)
     |                                               |                |      [24]{}: leap_second_record 0x43a-0x442 (8)
0x430|                              4f ef 93 18      |          O...  |        occur: "2012-07-01T00:00:24Z" (1341100824) 0x43a-0x43e (4)
0x430|                                          00 00|              ..|        corr: 25 0x43e-0x442 (4)
0x440|00 19                                          |..              |
     |                                               |                |      [25]{}: leap_second_record 0x442-0x44a (8)
0x440|      55 93 2d 99                              |  U.-.          |        occur: "2015-07-01T00:00:25Z" (1435708825) 0x442-0x446 (4)
0x440|                  00 00 00 1a                  |      ....      |        corr: 26 0x446-0x44a (4)
     |                                               |                |      [26]{}: leap_second_record 0x44a-0x452 (8)
0x440|                              58 68 46 9a      |          XhF.  |        occur: "2017-01-01T00:00:26Z" (1483228826) 0x44a-0x44e (4)
0x440|                                          00 00|              ..|        corr: 27 0x44e-0x452 (4)
0x450|00 1b                                          |..              |
     |                                               |                |    standard_wall_indicators[0:6]: 0x452-0x458 (6)
0x450|      00                                       |  .             |      [0]: 0 standard_wall_indicator (valid) 0x452-0x453 (1)
0x450|         00                                    |   .            |      [1]: 0 standard_wall_indicator (valid) 0x453-0x454 (1)
0x450|            00                                 |    .           |      [2]: 0 standard_wall_indicator (valid) 0x454-0x455 (1)
0x450|               00                              |     .          |      [3]: 0 standard_wall_indicator (valid) 0x455-0x456 (1)
0x450|                  01                           |      .         |      [4]: 1 standard_wall_indicator (valid) 0x456-0x457 (1)
0x450|                     01                        |       .        |      [5]: 1 standard_wall_indicator (valid) 0x457-0x458 (1)
     |                                               |                |    ut_local_indicators[0:6]: 0x458-0x45e (6)
0x450|                        00                     |        .       |      [0]: 0 ut_local_indicator (valid) 0x458-0x459 (1)
0x450|                           00                  |         .      |      [1]: 0 ut_local_indicator (valid) 0x459-0x45a (1)
0x450|                              00               |          .     |      [2]: 0 ut_local_indicator (valid) 0x45a-0x45b (1)
0x450|                                 00            |           .    |      [3]: 0 ut_local_indicator (valid) 0x45b-0x45c (1)
0x450|                                    01         |            .   |      [4]: 1 ut_local_indicator (valid) 0x45c-0x45d (1)
0x450|                                       01      |             .  |      [5]: 1 ut_local_indicator (valid) 0x45d-0x45e (1)
     |                                               |                |  v2plusheader{}: 0x45e-0x48a (44)
0x450|                                          54 5a|              TZ|    magic: 0x545a6966 (valid) 0x45e-0x462 (4)
0x460|69 66                                          |if              |
0x460|      32                                       |  2             |    ver: "2" (0x32) (valid) 0x462-0x463 (1)
0x460|         00 00 00 00 00 00 00 00 00 00 00 00 00|   .............|    reserved: raw bits 0x463-0x472 (15)
0x470|00 00                                          |..              |
0x470|      00 00 00 06                              |  ....          |    isutcnt: 6 0x472-0x476 (4)
0x470|                  00 00 00 06                  |      ....      |    isstdcnt: 6 0x476-0x47a (4)
0x470|                              00 00 00 1b      |          ....  |    leapcnt: 27 0x47a-0x47e (4)
0x470|                                          00 00|              ..|    timecnt: 158 0x47e-0x482 (4)
0x480|00 9e                                          |..              |
0x480|      00 00 00 06                              |  ....          |    typecnt: 6 0x482-0x486 (4)
0x480|                  00 00 00 14                  |      ....      |    charcnt: 20 0x486-0x48a (4)
     |                                               |                |  v2plusdatablock{}: 0x48a-0xba0 (1814)
     |                                               |                |    transition_times[0:158]: 0x48a-0x97a (1264)
0x480|                              ff ff ff ff 5e 04|          ....^.|      [0]: "1883-11-18T20:00:00Z" (-2717640000) transition_time 0x48a-0x492 (8)
0x490|1a c0                                          |..              |
0x490|      ff ff ff ff 9e a6 48 a0                  |  ......H.      |      [1]: "1918-03-31T10:00:00Z" (-1633269600) transition_time 0x492-0x49a (8)
0x490|                              ff ff ff ff 9f bb|          ......|      [2]: "1918-10-27T09:00:00Z" (-1615129200) transition_time 0x49a-0x4a2 (8)
0x4a0|15 90                                          |..              |
0x4a0|      ff ff ff ff a0 86 2a a0                  |  ......*.      |      [3]: "1919-03-30T10:00:00Z" (-1601820000) transition_time 0x4a2-0x4aa (8)
0x4a0|                              ff ff ff ff a1 9a|          ......|      [4]: "1919-10-26T09:00:00Z" (-1583679600) transition_time 0x4aa-0x4b2 (8)
0x4b0|f7 90                                          |..              |
0x4b0|      ff ff ff ff cb 89 1a a0                  |  ........      |      [5]: "1942-02-09T10:00:00Z" (-880207200) transition_time 0x4b2-0x4ba (8)
0x4b0|                              ff ff ff ff d2 23|          .....#|      [6]: "1945-08-14T23:00:00Z" (-769395600) transition_time 0x4ba-0x4c2 (8)
0x4c0|f4 70                                          |.p              |
0x4c0|      ff ff ff ff d2 61 26 10                  |  .....a&.      |      [7]: "1945-09-30T09:00:00Z" (-765385200) transition_time 0x4c2-0x4ca (8)
0x4c0|                              ff ff ff ff d6 fe|          ......|      [8]: "1948-03-14T10:01:00Z" (-687967140) transition_time 0x4ca-0x4d2 (8)
0x4d0|74 5c                                          |t\              |
0x4d0|      ff ff ff ff d8 80 ad 90                  |  ........      |      [9]: "1949-01-01T09:00:00Z" (-662655600) transition_time 0x4d2-0x4da (8)
0x4d0|                              ff ff ff ff da fe|          ......|      [10]: "1950-04-30T09:00:00Z" (-620838000) transition_time 0x4da-0x4e2 (8)
0x4e0|c3 90                                          |..              |
0x4e0|      ff ff ff ff db c0 90 10                  |  ........      |      [11]: "1950-09-24T09:00:00Z" (-608137200) transition_time 0x4e2-0x4ea (8)
0x4e0|                              ff ff ff ff dc de|          ......|      [12]: "1951-04-29T09:00:00Z" (-589388400) transition_time 0x4ea-0x4f2 (8)
0x4f0|a5 90                                          |..              |
0x4f0|      ff ff ff ff dd a9 ac 90                  |  ........      |      [13]: "1951-09-30T09:00:00Z" (-576082800) transition_time 0x4f2-0x4fa (8)
0x4f0|                              ff ff ff ff de be|          ......|      [14]: "1952-04-27T09:00:00Z" (-557938800) transition_time 0x4fa-0x502 (8)
0x500|87 90                                          |..              |
0x500|      ff ff ff ff df 89 8e 90                  |  ........      |      [15]: "1952-09-28T09:00:00Z" (-544633200) transition_time 0x502-0x50a (8)
0x500|                              ff ff ff ff e0 9e|          ......|      [16]: "1953-04-26T09:00:00Z" (-526489200) transition_time 0x50a-0x512 (8)
0x510|69 90                                          |i.              |
0x510|      ff ff ff ff e1 69 70 90                  |  .....ip.      |      [17]: "1953-09-27T09:00:00Z" (-513183600) transition_time 0x512-0x51a (8)
0x510|                              ff ff ff ff e2 7e|          .....~|      [18]: "1954-04-25T09:00:00Z" (-495039600) transition_time 0x51a-0x522 (8)
0x520|4b 90                                          |K.              |
0x520|      ff ff ff ff e3 49 52 90                  |  .....IR.      |      [19]: "1954-09-26T09:00:00Z" (-481734000) transition_time 0x522-0x52a (8)
0x520|                              ff ff ff ff e4 5e|          .....^|      [20]: "1955-04-24T09:00:00Z" (-463590000) transition_time 0x52a-0x532 (8)
0x530|2d 90                                          |-.              |
0x530|      ff ff ff ff e5 29 34 90                  |  .....)4.      |      [21]: "1955-09-25T09:00:00Z" (-450284400) transition_time 0x532-0x53a (8)
0x530|                              ff ff ff ff e6 47|          .....G|      [22]: "1956-04-29T09:00:00Z" (-431535600) transition_time 0x53a-0x542 (8)
0x540|4a 10                                          |J.              |
0x540|      ff ff ff ff e7 12 51 10                  |  ......Q.      |      [23]: "1956-09-30T09:00:00Z" (-418230000) transition_time 0x542-0x54a (8)
0x540|                              ff ff ff ff e8 27|          .....'|      [24]: "1957-04-28T09:00:00Z" (-400086000) transition_time 0x54a-0x552 (8)
0x550|2c 10                                          |,.              |
0x550|      ff ff ff ff e8 f2 33 10                  |  ......3.      |      [25]: "1957-09-29T09:00:00Z" (-386780400) transition_time 0x552-0x55a (8)
0x550|                              ff ff ff ff ea 07|          ......|      [26]: "1958-04-27T09:00:00Z" (-368636400) transition_time 0x55a-0x562 (8)
0x560|0e 10                                          |..              |
0x560|      ff ff ff ff ea d2 15 10                  |  ........      |      [27]: "1958-09-28T09:00:00Z" (-355330800) transition_time 0x562-0x56a (8)
0x560|                              ff ff ff ff eb e6|          ......|      [28]: "1959-04-26T09:00:00Z" (-337186800) transition_time 0x56a-0x572 (8)
0x570|f0 10                                          |..              |
0x570|      ff ff ff ff ec b1 f7 10                  |  ........      |      [29]: "1959-09-27T09:00:00Z" (-323881200) transition_time 0x572-0x57a (8)
0x570|                              ff ff ff ff ed c6|          ......|      [30]: "1960-04-24T09:00:00Z" (-305737200) transition_time 0x57a-0x582 (8)
0x580|d2 10                                          |..              |
0x580|      ff ff ff ff ee 91 d9 10                  |  ........      |      [31]: "1960-09-25T09:00:00Z" (-292431600) transition_time 0x582-0x58a (8)
0x580|                              ff ff ff ff ef af|          ......|      [32]: "1961-04-30T09:00:00Z" (-273682800) transition_time 0x58a-0x592 (8)
0x590|ee 90                                          |..              |
0x590|      ff ff ff ff f0 71 bb 10                  |  .....q..      |      [33]: "1961-09-24T09:00:00Z" (-260982000) transition_time 0x592-0x59a (8)
0x590|                              ff ff ff ff f1 8f|          ......|      [34]: "1962-04-29T09:00:00Z" (-242233200) transition_time 0x59a-0x5a2 (8)
0x5a0|d0 90                                          |..              |
0x5a0|      ff ff ff ff f2 7f c1 90                  |  ........      |      [35]: "1962-10-28T09:00:00Z" (-226508400) transition_time 0x5a2-0x5aa (8)
0x5a0|                              ff ff ff ff f3 6f|          .....o|      [36]: "1963-04-28T09:00:00Z" (-210783600) transition_time 0x5aa-0x5b2 (8)
0x5b0|b2 90                                          |..              |
0x5b0|      ff ff ff ff f4 5f a3 90                  |  ....._..      |      [37]: "1963-10-27T09:00:00Z" (-195058800) transition_time 0x5b2-0x5ba (8)
0x5b0|                              ff ff ff ff f5 4f|          .....O|      [38]: "1964-04-26T09:00:00Z" (-179334000) transition_time 0x5ba-0x5c2 (8)
0x5c0|94 90                                          |..              |
0x5c0|      ff ff ff ff f6 3f 85 90                  |  .....?..      |      [39]: "1964-10-25T09:00:00Z" (-163609200) transition_time 0x5c2-0x5ca (8)
0x5c0|                              ff ff ff ff f7 2f|          ...../|      [40]: "1965-04-25T09:00:00Z" (-147884400) transition_time 0x5ca-0x5d2 (8)
0x5d0|76 90                                          |v.              |
0x5d0|      ff ff ff ff f8 28 a2 10                  |  .....(..      |      [41]: "1965-10-31T09:00:00Z" (-131554800) transition_time 0x5d2-0x5da (8)
0x5d0|                              ff ff ff ff f9 0f|          ......|      [42]: "1966-04-24T09:00:00Z" (-116434800) transition_time 0x5da-0x5e2 (8)
0x5e0|58 90                                          |X.              |
0x5e0|      ff ff ff ff fa 08 84 10                  |  ........      |      [43]: "1966-10-30T09:00:00Z" (-100105200) transition_time 0x5e2-0x5ea (8)
0x5e0|                              ff ff ff ff fa f8|          ......|      [44]: "1967-04-30T10:00:00Z" (-84376800) transition_time 0x5ea-0x5f2 (8)
0x5f0|83 20                                          |.               |
0x5f0|      ff ff ff ff fb e8 66 10                  |  ......f.      |      [45]: "1967-10-29T09:00:00Z" (-68655600) transition_time 0x5f2-0x5fa (8)
0x5f0|                              ff ff ff ff fc d8|          ......|      [46]: "1968-04-28T10:00:00Z" (-52927200) transition_time 0x5fa-0x602 (8)
0x600|65 20                                          |e               |
0x600|      ff ff ff ff fd c8 48 10                  |  ......H.      |      [47]: "1968-10-27T09:00:00Z" (-37206000) transition_time 0x602-0x60a (8)
0x600|                              ff ff ff ff fe b8|          ......|      [48]: "1969-04-27T10:00:00Z" (-21477600) transition_time 0x60a-0x612 (8)
0x610|47 20                                          |G               |
0x610|      ff ff ff ff ff a8 2a 10                  |  ......*.      |      [49]: "1969-10-26T09:00:00Z" (-5756400) transition_time 0x612-0x61a (8)
0x610|                              00 00 00 00 00 98|          ......|      [50]: "1970-04-26T10:00:00Z" (9972000) transition_time 0x61a-0x622 (8)
0x620|29 20                                          |)               |
0x620|      00 00 00 00 01 88 0c 10                  |  ........      |      [51]: "1970-10-25T09:00:00Z" (25693200) transition_time 0x622-0x62a (8)
0x620|                              00 00 00 00 02 78|          .....x|      [52]: "1971-04-25T10:00:00Z" (41421600) transition_time 0x62a-0x632 (8)
0x630|0b 20                                          |.               |
0x630|      00 00 00 00 03 71 28 90                  |  .....q(.      |      [53]: "1971-10-31T09:00:00Z" (57747600) transition_time 0x632-0x63a (8)
0x630|                              00 00 00 00 04 61|          .....a|      [54]: "1972-04-30T10:00:00Z" (73476000) transition_time 0x63a-0x642 (8)
0x640|27 a0                                          |'.              |
0x640|      00 00 00 00 05 51 0a 91                  |  .....Q..      |      [55]: "1972-10-29T09:00:01Z" (89197201) transition_time 0x642-0x64a (8)
0x640|                              00 00 00 00 06 41|          .....A|      [56]: "1973-04-29T10:00:02Z" (104925602) transition_time 0x64a-0x652 (8)
0x650|09 a2                                          |..              |
0x650|      00 00 00 00 07 30 ec 92                  |  .....0..      |      [57]: "1973-10-28T09:00:02Z" (120646802) transition_time 0x652-0x65a (8)
0x650|                              00 00 00 00 07 8d|          ......|      [58]: "1974-01-06T10:00:03Z" (126698403) transition_time 0x65a-0x662 (8)
0x660|43 a3                                          |C.              |
0x660|      00 00 00 00 09 10 ce 93                  |  ........      |      [59]: "1974-10-27T09:00:03Z" (152096403) transition_time 0x662-0x66a (8)
0x660|                              00 00 00 00 09 ad|          ......|      [60]: "1975-02-23T10:00:04Z" (162381604) transition_time 0x66a-0x672 (8)
0x670|bf 24                                          |.$              |
0x670|      00 00 00 00 0a f0 b0 94                  |  ........      |      [61]: "1975-10-26T09:00:04Z" (183546004) transition_time 0x672-0x67a (8)
0x670|                              00 00 00 00 0b e0|          ......|      [62]: "1976-04-25T10:00:05Z" (199274405) transition_time 0x67a-0x682 (8)
0x680|af a5                                          |..              |
0x680|      00 00 00 00 0c d9 cd 15                  |  ........      |      [63]: "1976-10-31T09:00:05Z" (215600405) transition_time 0x682-0x68a (8)
0x680|                              00 00 00 00 0d c0|          ......|      [64]: "1977-04-24T10:00:06Z" (230724006) transition_time 0x68a-0x692 (8)
0x690|91 a6                                          |..              |
0x690|      00 00 00 00 0e b9 af 16                  |  ........      |      [65]: "1977-10-30T09:00:06Z" (247050006) transition_time 0x692-0x69a (8)
0x690|                              00 00 00 00 0f a9|          ......|      [66]: "1978-04-30T10:00:07Z" (262778407) transition_time 0x69a-0x6a2 (8)
0x6a0|ae 27                                          |.'              |
0x6a0|      00 00 00 00 10 99 91 17                  |  ........      |      [67]: "1978-10-29T09:00:07Z" (278499607) transition_time 0x6a2-0x6aa (8)
0x6a0|                              00 00 00 00 11 89|          ......|      [68]: "1979-04-29T10:00:08Z" (294228008) transition_time 0x6aa-0x6b2 (8)
0x6b0|90 28                                          |.(              |
0x6b0|      00 00 00 00 12 79 73 18                  |  .....ys.      |      [69]: "1979-10-28T09:00:08Z" (309949208) transition_time 0x6b2-0x6ba (8)
0x6b0|                              00 00 00 00 13 69|          .....i|      [70]: "1980-04-27T10:00:09Z" (325677609) transition_time 0x6ba-0x6c2 (8)
0x6c0|72 29                                          |r)              |
0x6c0|      00 00 00 00 14 59 55 19                  |  .....YU.      |      [71]: "1980-10-26T09:00:09Z" (341398809) transition_time 0x6c2-0x6ca (8)
0x6c0|                              00 00 00 00 15 49|          .....I|      [72]: "1981-04-26T10:00:09Z" (357127209) transition_time 0x6ca-0x6d2 (8)
0x6d0|54 29                                          |T)              |
0x6d0|      00 00 00 00 16 39 37 1a                  |  .....97.      |      [73]: "1981-10-25T09:00:10Z" (372848410) transition_time 0x6d2-0x6da (8)
0x6d0|                              00 00 00 00 17 29|          .....)|      [74]: "1982-04-25T10:00:10Z" (388576810) transition_time 0x6da-0x6e2 (8)
0x6e0|36 2a                                          |6*              |
0x6e0|      00 00 00 00 18 22 53 9b                  |  ....."S.      |      [75]: "1982-10-31T09:00:11Z" (404902811) transition_time 0x6e2-0x6ea (8)
0x6e0|                              00 00 00 00 19 09|          ......|      [76]: "1983-04-24T10:00:11Z" (420026411) transition_time 0x6ea-0x6f2 (8)
0x6f0|18 2b                                          |.+              |
0x6f0|      00 00 00 00 1a 02 35 9c                  |  ......5.      |      [77]: "1983-10-30T09:00:12Z" (436352412) transition_time 0x6f2-0x6fa (8)
0x6f0|                              00 00 00 00 1a f2|          ......|      [78]: "1984-04-29T10:00:12Z" (452080812) transition_time 0x6fa-0x702 (8)
0x700|34 ac                                          |4.              |
0x700|      00 00 00 00 1b e2 17 9c                  |  ........      |      [79]: "1984-10-28T09:00:12Z" (467802012) transition_time 0x702-0x70a (8)
0x700|                              00 00 00 00 1c d2|          ......|      [80]: "1985-04-28T10:00:12Z" (483530412) transition_time 0x70a-0x712 (8)
0x710|16 ac                                          |..              |
0x710|      00 00 00 00 1d c1 f9 9d                  |  ........      |      [81]: "1985-10-27T09:00:13Z" (499251613) transition_time 0x712-0x71a (8)
0x710|                              00 00 00 00 1e b1|          ......|      [82]: "1986-04-27T10:00:13Z" (514980013) transition_time 0x71a-0x722 (8)
0x720|f8 ad                                          |..              |
0x720|      00 00 00 00 1f a1 db 9d                  |  ........      |      [83]: "1986-10-26T09:00:13Z" (530701213) transition_time 0x722-0x72a (8)
0x720|                              00 00 00 00 20 76|          .... v|      [84]: "1987-04-05T10:00:13Z" (544615213) transition_time 0x72a-0x732 (8)
0x730|2b 2d                                          |+-              |
0x730|      00 00 00 00 21 81 bd 9d                  |  ....!...      |      [85]: "1987-10-25T09:00:13Z" (562150813) transition_time 0x732-0x73a (8)
0x730|                              00 00 00 00 22 56|          ...."V|      [86]: "1988-04-03T10:00:14Z" (576064814) transition_time 0x73a-0x742 (8)
0x740|0d 2e                                          |..              |
0x740|      00 00 00 00 23 6a da 1e                  |  ....#j..      |      [87]: "1988-10-30T09:00:14Z" (594205214) transition_time 0x742-0x74a (8)
0x740|                              00 00 00 00 24 35|          ....$5|      [88]: "1989-04-02T10:00:14Z" (607514414) transition_time 0x74a-0x752 (8)
0x750|ef 2e                                          |..              |
0x750|      00 00 00 00 25 4a bc 1e                  |  ....%J..      |      [89]: "1989-10-29T09:00:14Z" (625654814) transition_time 0x752-0x75a (8)
0x750|                              00 00 00 00 26 15|          ....&.|      [90]: "1990-04-01T10:00:15Z" (638964015) transition_time 0x75a-0x762 (8)
0x760|d1 2f                                          |./              |
0x760|      00 00 00 00 27 2a 9e 1f                  |  ....'*..      |      [91]: "1990-10-28T09:00:15Z" (657104415) transition_time 0x762-0x76a (8)
0x760|                              00 00 00 00 27 fe|          ....'.|      [92]: "1991-04-07T10:00:16Z" (671018416) transition_time 0x76a-0x772 (8)
0x770|ed b0                                          |..              |
0x770|      00 00 00 00 29 0a 80 20                  |  ....)..       |      [93]: "1991-10-27T09:00:16Z" (688554016) transition_time 0x772-0x77a (8)
0x770|                              00 00 00 00 29 de|          ....).|      [94]: "1992-04-05T10:00:16Z" (702468016) transition_time 0x77a-0x782 (8)
0x780|cf b0                                          |..              |
0x780|      00 00 00 00 2a ea 62 21                  |  ....*.b!      |      [95]: "1992-10-25T09:00:17Z" (720003617) transition_time 0x782-0x78a (8)
0x780|                              00 00 00 00 2b be|          ....+.|      [96]: "1993-04-04T10:00:17Z" (733917617) transition_time 0x78a-0x792 (8)
0x790|b1 b1                                          |..              |
0x790|      00 00 00 00 2c d3 7e a2                  |  ....,.~.      |      [97]: "1993-10-31T09:00:18Z" (752058018) transition_time 0x792-0x79a (8)
0x790|                              00 00 00 00 2d 9e|          ....-.|      [98]: "1994-04-03T10:00:18Z" (765367218) transition_time 0x79a-0x7a2 (8)
0x7a0|93 b2                                          |..              |
0x7a0|      00 00 00 00 2e b3 60 a3                  |  ......`.      |      [99]: "1994-10-30T09:00:19Z" (783507619) transition_time 0x7a2-0x7aa (8)
0x7a0|                              00 00 00 00 2f 7e|          ..../~|      [100]: "1995-04-02T10:00:19Z" (796816819) transition_time 0x7aa-0x7b2 (8)
0x7b0|75 b3                                          |u.              |
0x7b0|      00 00 00 00 30 93 42 a3                  |  ....0.B.      |      [101]: "1995-10-29T09:00:19Z" (814957219) transition_time 0x7b2-0x7ba (8)
0x7b0|                              00 00 00 00 31 67|          ....1g|      [102]: "1996-04-07T10:00:20Z" (828871220) transition_time 0x7ba-0x7c2 (8)
0x7c0|92 34                                          |.4              |
0x7c0|      00 00 00 00 32 73 24 a4                  |  ....2s$.      |      [103]: "1996-10-27T09:00:20Z" (846406820) transition_time 0x7c2-0x7ca (8)
0x7c0|                              00 00 00 00 33 47|          ....3G|      [104]: "1997-04-06T10:00:20Z" (860320820) transition_time 0x7ca-0x7d2 (8)
0x7d0|74 34                                          |t4              |
0x7d0|      00 00 00 00 34 53 06 a5                  |  ....4S..      |      [105]: "1997-10-26T09:00:21Z" (877856421) transition_time 0x7d2-0x7da (8)
0x7d0|                              00 00 00 00 35 27|          ....5'|      [106]: "1998-04-05T10:00:21Z" (891770421) transition_time 0x7da-0x7e2 (8)
0x7e0|56 35                                          |V5              |
0x7e0|      00 00 00 00 36 32 e8 a5                  |  ....62..      |      [107]: "1998-10-25T09:00:21Z" (909306021) transition_time 0x7e2-0x7ea (8)
0x7e0|                              00 00 00 00 37 07|          ....7.|      [108]: "1999-04-04T10:00:22Z" (923220022) transition_time 0x7ea-0x7f2 (8)
0x7f0|38 36                                          |86              |
0x7f0|      00 00 00 00 38 1c 05 26                  |  ....8..&      |      [109]: "1999-10-31T09:00:22Z" (941360422) transition_time 0x7f2-0x7fa (8)
0x7f0|                              00 00 00 00 38 e7|          ....8.|      [110]: "2000-04-02T10:00:22Z" (954669622) transition_time 0x7fa-0x802 (8)
0x800|1a 36                                          |.6              |
0x800|      00 00 00 00 39 fb e7 26                  |  ....9..&      |      [111]: "2000-10-29T09:00:22Z" (972810022) transition_time 0x802-0x80a (8)
0x800|                              00 00 00 00 3a c6|          ....:.|      [112]: "2001-04-01T10:00:22Z" (986119222) transition_time 0x80a-0x812 (8)
0x810|fc 36                                          |.6              |
0x810|      00 00 00 00 3b db c9 26                  |  ....;..&      |      [113]: "2001-10-28T09:00:22Z" (1004259622) transition_time 0x812-0x81a (8)
0x810|                              00 00 00 00 3c b0|          ....<.|      [114]: "2002-04-07T10:00:22Z" (1018173622) transition_time 0x81a-0x822 (8)
0x820|18 b6                                          |..              |
0x820|      00 00 00 00 3d bb ab 26                  |  ....=..&      |      [115]: "2002-10-27T09:00:22Z" (1035709222) transition_time 0x822-0x82a (8)
0x820|                              00 00 00 00 3e 8f|          ....>.|      [116]: "2003-04-06T10:00:22Z" (1049623222) transition_time 0x82a-0x832 (8)
0x830|fa b6                                          |..              |
0x830|      00 00 00 00 3f 9b 8d 26                  |  ....?..&      |      [117]: "2003-10-26T09:00:22Z" (1067158822) transition_time 0x832-0x83a (8)
0x830|                              00 00 00 00 40 6f|          ....@o|      [118]: "2004-04-04T10:00:22Z" (1081072822) transition_time 0x83a-0x842 (8)
0x840|dc b6                                          |..              |
0x840|      00 00 00 00 41 84 a9 a6                  |  ....A...      |      [119]: "2004-10-31T09:00:22Z" (1099213222) transition_time 0x842-0x84a (8)
0x840|                              00 00 00 00 42 4f|          ....BO|      [120]: "2005-04-03T10:00:22Z" (1112522422) transition_time 0x84a-0x852 (8)
0x850|be b6                                          |..              |
0x850|      00 00 00 00 43 64 8b a6                  |  ....Cd..      |      [121]: "2005-10-30T09:00:22Z" (1130662822) transition_time 0x852-0x85a (8)
0x850|                              00 00 00 00 44 2f|          ....D/|      [122]: "2006-04-02T10:00:23Z" (1143972023) transition_time 0x85a-0x862 (8)
0x860|a0 b7                                          |..              |
0x860|      00 00 00 00 45 44 6d a7                  |  ....EDm.      |      [123]: "2006-10-29T09:00:23Z" (1162112423) transition_time 0x862-0x86a (8)
0x860|                              00 00 00 00 45 f3|          ....E.|      [124]: "2007-03-11T10:00:23Z" (1173607223) transition_time 0x86a-0x872 (8)
0x870|d3 37                                          |.7              |
0x870|      00 00 00 00 47 2d 8a 27                  |  ....G-.'      |      [125]: "2007-11-04T09:00:23Z" (1194166823) transition_time 0x872-0x87a (8)
0x870|                              00 00 00 00 47 d3|          ....G.|      [126]: "2008-03-09T10:00:23Z" (1205056823) transition_time 0x87a-0x882 (8)
0x880|b5 37                                          |.7              |
0x880|      00 00 00 00 49 0d 6c 27                  |  ....I.l'      |      [127]: "2008-11-02T09:00:23Z" (1225616423) transition_time 0x882-0x88a (8)
0x880|                              00 00 00 00 49 b3|          ....I.|      [128]: "2009-03-08T10:00:24Z" (1236506424) transition_time 0x88a-0x892 (8)
0x890|97 38                                          |.8              |
0x890|      00 00 00 00 4a ed 4e 28                  |  ....J.N(      |      [129]: "2009-11-01T09:00:24Z" (1257066024) transition_time 0x892-0x89a (8)
0x890|                              00 00 00 00 4b 9c|          ....K.|      [130]: "2010-03-14T10:00:24Z" (1268560824) transition_time 0x89a-0x8a2 (8)
0x8a0|b3 b8                                          |..              |
0x8a0|      00 00 00 00 4c d6 6a a8                  |  ....L.j.      |      [131]: "2010-11-07T09:00:24Z" (1289120424) transition_time 0x8a2-0x8aa (8)
0x8a0|                              00 00 00 00 4d 7c|          ....M||      [132]: "2011-03-13T10:00:24Z" (1300010424) transition_time 0x8aa-0x8b2 (8)
0x8b0|95 b8                                          |..              |
0x8b0|      00 00 00 00 4e b6 4c a8                  |  ....N.L.      |      [133]: "2011-11-06T09:00:24Z" (1320570024) transition_time 0x8b2-0x8ba (8)
0x8b0|                              00 00 00 00 4f 5c|          ....O\|      [134]: "2012-03-11T10:00:24Z" (1331460024) transition_time 0x8ba-0x8c2 (8)
0x8c0|77 b8                                          |w.              |
0x8c0|      00 00 00 00 50 96 2e a9                  |  ....P...      |      [135]: "2012-11-04T09:00:25Z" (1352019625) transition_time 0x8c2-0x8ca (8)
0x8c0|                              00 00 00 00 51 3c|          ....Q<|      [136]: "2013-03-10T10:00:25Z" (1362909625) transition_time 0x8ca-0x8d2 (8)
0x8d0|59 b9                                          |Y.              |
0x8d0|      00 00 00 00 52 76 10 a9                  |  ....Rv..      |      [137]: "2013-11-03T09:00:25Z" (1383469225) transition_time 0x8d2-0x8da (8)
0x8d0|                              00 00 00 00 53 1c|          ....S.|      [138]: "2014-03-09T10:00:25Z" (1394359225) transition_time 0x8da-0x8e2 (8)
0x8e0|3b b9                                          |;.              |
0x8e0|      00 00 00 00 54 55 f2 a9                  |  ....TU..      |      [139]: "2014-11-02T09:00:25Z" (1414918825) transition_time 0x8e2-0x8ea (8)
0x8e0|                              00 00 00 00 54 fc|          ....T.|      [140]: "2015-03-08T10:00:25Z" (1425808825) transition_time 0x8ea-0x8f2 (8)
0x8f0|1d b9                                          |..              |
0x8f0|      00 00 00 00 56 35 d4 aa                  |  ....V5..      |      [141]: "2015-11-01T09:00:26Z" (1446368426) transition_time 0x8f2-0x8fa (8)
0x8f0|                              00 00 00 00 56 e5|          ....V.|      [142]: "2016-03-13T10:00:26Z" (1457863226) transition_time 0x8fa-0x902 (8)
0x900|3a 3a                                          |::              |
0x900|      00 00 00 00 58 1e f1 2a                  |  ....X..*      |      [143]: "2016-11-06T09:00:26Z" (1478422826) transition_time 0x902-0x90a (8)
0x900|                              00 00 00 00 58 c5|          ....X.|      [144]: "2017-03-12T10:00:27Z" (1489312827) transition_time 0x90a-0x912 (8)
0x910|1c 3b                                          |.;              |
0x910|      00 00 00 00 59 fe d3 2b                  |  ....Y..+      |      [145]: "2017-11-05T09:00:27Z" (1509872427) transition_time 0x912-0x91a (8)
0x910|                              00 00 00 00 5a a4|          ....Z.|      [146]: "2018-03-11T10:00:27Z" (1520762427) transition_time 0x91a-0x922 (8)
0x920|fe 3b                                          |.;              |
0x920|      00 00 00 00 5b de b5 2b                  |  ....[..+      |      [147]: "2018-11-04T09:00:27Z" (1541322027) transition_time 0x922-0x92a (8)
0x920|                              00 00 00 00 5c 84|          ....\.|      [148]: "2019-03-10T10:00:27Z" (1552212027) transition_time 0x92a-0x932 (8)
0x930|e0 3b                                          |.;              |
0x930|      00 00 00 00 5d be 97 2b                  |  ....]..+      |      [149]: "2019-11-03T09:00:27Z" (1572771627) transition_time 0x932-0x93a (8)
0x930|                              00 00 00 00 5e 64|          ....^d|      [150]: "2020-03-08T10:00:27Z" (1583661627) transition_time 0x93a-0x942 (8)
0x940|c2 3b                                          |.;              |
0x940|      00 00 00 00 5f 9e 79 2b                  |  ...._.y+      |      [151]: "2020-11-01T09:00:27Z" (1604221227) transition_time 0x942-0x94a (8)
0x940|                              00 00 00 00 60 4d|          ....`M|      [152]: "2021-03-14T10:00:27Z" (1615716027) transition_time 0x94a-0x952 (8)
0x950|de bb                                          |..              |
0x950|      00 00 00 00 61 87 95 ab                  |  ....a...      |      [153]: "2021-11-07T09:00:27Z" (1636275627) transition_time 0x952-0x95a (8)
0x950|                              00 00 00 00 62 2d|          ....b-|      [154]: "2022-03-13T10:00:27Z" (1647165627) transition_time 0x95a-0x962 (8)
0x960|c0 bb                                          |..              |
0x960|      00 00 00 00 63 67 77 ab                  |  ....cgw.      |      [155]: "2022-11-06T09:00:27Z" (1667725227) transition_time 0x962-0x96a (8)
0x960|                              00 00 00 00 64 0d|          ....d.|      [156]: "2023-03-12T10:00:27Z" (1678615227) transition_time 0x96a-0x972 (8)
0x970|a2 bb                                          |..              |
0x970|      00 00 00 00 64 9b 78 1b                  |  ....d.x.      |      [157]: "2023-06-28T00:00:27Z" (1687910427) transition_time 0x972-0x97a (8)
     |                                               |                |    transition_types[0:158]: 0x97a-0xa18 (158)
0x970|                              05               |          .     |      [0]: 5 transition_type 0x97a-0x97b (1)
0x970|                                 01            |           .    |      [1]: 1 transition_type 0x97b-0x97c (1)
0x970|                                    02         |            .   |      [2]: 2 transition_type 0x97c-0x97d (1)
0x970|                                       01      |             .  |      [3]: 1 transition_type 0x97d-0x97e (1)
0x970|                                          02   |              . |      [4]: 2 transition_type 0x97e-0x97f (1)
0x970|                                             03|               .|      [5]: 3 transition_type 0x97f-0x980 (1)
0x980|04                                             |.               |      [6]: 4 transition_type 0x980-0x981 (1)
0x980|   02                                          | .              |      [7]: 2 transition_type 0x981-0x982 (1)
0x980|      01                                       |  .             |      [8]: 1 transition_type 0x982-0x983 (1)
0x980|         02                                    |   .            |      [9]: 2 transition_type 0x983-0x984 (1)
0x980|            01                                 |    .           |      [10]: 1 transition_type 0x984-0x985 (1)
0x980|               02                              |     .          |      [11]: 2 transition_type 0x985-0x986 (1)
0x980|                  01                           |      .         |      [12]: 1 transition_type 0x986-0x987 (1)
0x980|                     02                        |       .        |      [13]: 2 transition_type 0x987-0x988 (1)
0x980|                        01                     |        .       |      [14]: 1 transition_type 0x988-0x989 (1)
0x980|                           02                  |         .      |      [15]: 2 transition_type 0x989-0x98a (1)
0x980|                              01               |          .     |      [16]: 1 transition_type 0x98a-0x98b (1)
0x980|                                 02            |           .    |      [17]: 2 transition_type 0x98b-0x98c (1)
0x980|                                    01         |            .   |      [18]: 1 transition_type 0x98c-0x98d (1)
0x980|                                       02      |             .  |      [19]: 2 transition_type 0x98d-0x98e (1)
0x980|                                          01   |              . |      [20]: 1 transition_type 0x98e-0x98f (1)
0x980|                                             02|               .|      [21]: 2 transition_type 0x98f-0x990 (1)
0x990|01                                             |.               |      [22]: 1 transition_type 0x990-0x991 (1)
0x990|   02                                          | .              |      [23]: 2 transition_type 0x991-0x992 (1)
0x990|      01                                       |  .             |      [24]: 1 transition_type 0x992-0x993 (1)
0x990|         02                                    |   .            |      [25]: 2 transition_type 0x993-0x994 (1)
0x990|            01                                 |    .           |      [26]: 1 transition_type 0x994-0x995 (1)
0x990|               02                              |     .          |      [27]: 2 transition_type 0x995-0x996 (1)
0x990|                  01                           |      .         |      [28]: 1 transition_type 0x996-0x997 (1)
0x990|                     02                        |       .        |      [29]: 2 transition_type 0x997-0x998 (1)
0x990|                        01                     |        .       |      [30]: 1 transition_type 0x998-0x999 (1)
0x990|                           02                  |         .      |      [31]: 2 transition_type 0x999-0x99a (1)
0x990|                              01               |          .     |      [32]: 1 transition_type 0x99a-0x99b (1)
0x990|                                 02            |           .    |      [33]: 2 transition_type 0x99b-0x99c (1)
0x990|                                    01         |            .   |      [34]: 1 transition_type 0x99c-0x99d (1)
0x990|                                       02      |             .  |      [35]: 2 transition_type 0x99d-0x99e (1)
0x990|                                          01   |              . |      [36]: 1 transition_type 0x99e-0x99f (1)
0x990|                                             02|               .|      [37]: 2 transition_type 0x99f-0x9a0 (1)
0x9a0|01                                             |.               |      [38]: 1 transition_type 0x9a0-0x9a1 (1)
0x9a0|   02                                          | .              |      [39]: 2 transition_type 0x9a1-0x9a2 (1)
0x9a0|      01                                       |  .             |      [40]: 1 transition_type 0x9a2-0x9a3 (1)
0x9a0|         02                                    |   .            |      [41]: 2 transition_type 0x9a3-0x9a4 (1)
0x9a0|            01                                 |    .           |      [42]: 1 transition_type 0x9a4-0x9a5 (1)
0x9a0|               02                              |     .          |      [43]: 2 transition_type 0x9a5-0x9a6 (1)
0x9a0|                  01                           |      .         |      [44]: 1 transition_type 0x9a6-0x9a7 (1)
0x9a0|                     02                        |       .        |      [45]: 2 transition_type 0x9a7-0x9a8 (1)
0x9a0|                        01                     |        .       |      [46]: 1 transition_type 0x9a8-0x9a9 (1)
0x9a0|                           02                  |         .      |      [47]: 2 transition_type 0x9a9-0x9aa (1)
0x9a0|                              01               |          .     |      [48]: 1 transition_type 0x9aa-0x9ab (1)
0x9a0|                                 02            |           .    |      [49]: 2 transition_type 0x9ab-0x9ac (1)
0x9a0|                                    01         |            .   |      [50]: 1 transition_type 0x9ac-0x9ad (1)
0x9a0|                                       02      |             .  |      [51]: 2 transition_type 0x9ad-0x9ae (1)
0x9a0|                                          01   |              . |      [52]: 1 transition_type 0x9ae-0x9af (1)
0x9a0|                                             02|               .|      [53]: 2 transition_type 0x9af-0x9b0 (1)
0x9b0|01                                             |.               |      [54]: 1 transition_type 0x9b0-0x9b1 (1)
0x9b0|   02                                          | .              |      [55]: 2 transition_type 0x9b1-0x9b2 (1)
0x9b0|      01                                       |  .             |      [56]: 1 transition_type 0x9b2-0x9b3 (1)
0x9b0|         02                                    |   .            |      [57]: 2 transition_type 0x9b3-0x9b4 (1)
0x9b0|            01                                 |    .           |      [58]: 1 transition_type 0x9b4-0x9b5 (1)
0x9b0|               02                              |     .          |      [59]: 2 transition_type 0x9b5-0x9b6 (1)
0x9b0|                  01                           |      .         |      [60]: 1 transition_type 0x9b6-0x9b7 (1)
0x9b0|                     02                        |       .        |      [61]: 2 transition_type 0x9b7-0x9b8 (1)
0x9b0|                        01                     |        .       |      [62]: 1 transition_type 0x9b8-0x9b9 (1)
0x9b0|                           02                  |         .      |      [63]: 2 transition_type 0x9b9-0x9ba (1)
0x9b0|                              01               |          .     |      [64]: 1 transition_type 0x9ba-0x9bb (1)
0x9b0|                                 02            |           .    |      [65]: 2 transition_type 0x9bb-0x9bc (1)
0x9b0|                                    01         |            .   |      [66]: 1 transition_type 0x9bc-0x9bd (1)
0x9b0|                                       02      |             .  |      [67]: 2 transition_type 0x9bd-0x9be (1)
0x9b0|                                          01   |              . |      [68]: 1 transition_type 0x9be-0x9bf (1)
0x9b0|                                             02|               .|      [69]: 2 transition_type 0x9bf-0x9c0 (1)
0x9c0|01                                             |.               |      [70]: 1 transition_type 0x9c0-0x9c1 (1)
0x9c0|   02                                          | .              |      [71]: 2 transition_type 0x9c1-0x9c2 (1)
0x9c0|      01                                       |  .             |      [72]: 1 transition_type 0x9c2-0x9c3 (1)
0x9c0|         02                                    |   .            |      [73]: 2 transition_type 0x9c3-0x9c4 (1)
0x9c0|            01                                 |    .           |      [74]: 1 transition_type 0x9c4-0x9c5 (1)
0x9c0|               02                              |     .          |      [75]: 2 transition_type 0x9c5-0x9c6 (1)
0x9c0|                  01                           |      .         |      [76]: 1 transition_type 0x9c6-0x9c7 (1)
0x9c0|                     02                        |       .        |      [77]: 2 transition_type 0x9c7-0x9c8 (1)
0x9c0|                        01                     |        .       |      [78]: 1 transition_type 0x9c8-0x9c9 (1)
0x9c0|                           02                  |         .      |      [79]: 2 transition_type 0x9c9-0x9ca (1)
0x9c0|                              01               |          .     |      [80]: 1 transition_type 0x9ca-0x9cb (1)
0x9c0|                                 02            |           .    |      [81]: 2 transition_type 0x9cb-0x9cc (1)
0x9c0|                                    01         |            .   |      [82]: 1 transition_type 0x9cc-0x9cd (1)
0x9c0|                                       02      |             .  |      [83]: 2 transition_type 0x9cd-0x9ce (1)
0x9c0|                                          01   |              . |      [84]: 1 transition_type 0x9ce-0x9cf (1)
0x9c0|                                             02|               .|      [85]: 2 transition_type 0x9cf-0x9d0 (1)
0x9d0|01                                             |.               |      [86]: 1 transition_type 0x9d0-0x9d1 (1)
0x9d0|   02                                          | .              |      [87]: 2 transition_type 0x9d1-0x9d2 (1)
0x9d0|      01                                       |  .             |      [88]: 1 transition_type 0x9d2-0x9d3 (1)
0x9d0|         02                                    |   .            |      [89]: 2 transition_type 0x9d3-0x9d4 (1)
0x9d0|            01                                 |    .           |      [90]: 1 transition_type 0x9d4-0x9d5 (1)
0x9d0|               02                              |     .          |      [91]: 2 transition_type 0x9d5-0x9d6 (1)
0x9d0|                  01                           |      .         |      [92]: 1 transition_type 0x9d6-0x9d7 (1)
0x9d0|                     02                        |       .        |      [93]: 2 transition_type 0x9d7-0x9d8 (1)
0x9d0|                        01                     |        .       |      [94]: 1 transition_type 0x9d8-0x9d9 (1)
0x9d0|                           02                  |         .      |      [95]: 2 transition_type 0x9d9-0x9da (1)
0x9d0|                              01               |          .     |      [96]: 1 transition_type 0x9da-0x9db (1)
0x9d0|                                 02            |           .    |      [97]: 2 transition_type 0x9db-0x9dc (1)
0x9d0|                                    01         |            .   |      [98]: 1 transition_type 0x9dc-0x9dd (1)
0x9d0|                                       02      |             .  |      [99]: 2 transition_type 0x9dd-0x9de (1)
0x9d0|                                          01   |              . |      [100]: 1 transition_type 0x9de-0x9df (1)
0x9d0|                                             02|               .|      [101]: 2 transition_type 0x9df-0x9e0 (1)
0x9e0|01                                             |.               |      [102]: 1 transition_type 0x9e0-0x9e1 (1)
0x9e0|   02                                          | .              |      [103]: 2 transition_type 0x9e1-0x9e2 (1)
0x9e0|      01                                       |  .             |      [104]: 1 transition_type 0x9e2-0x9e3 (1)
0x9e0|         02                                    |   .            |      [105]: 2 transition_type 0x9e3-0x9e4 (1)
0x9e0|            01                                 |    .           |      [106]: 1 transition_type 0x9e4-0x9e5 (1)
0x9e0|               02                              |     .          |      [107]: 2 transition_type 0x9e5-0x9e6 (1)
0x9e0|                  01                           |      .         |      [108]: 1 transition_type 0x9e6-0x9e7 (1)
0x9e0|                     02                        |       .        |      [109]: 2 transition_type 0x9e7-0x9e8 (1)
0x9e0|                        01                     |        .       |      [110]: 1 transition_type 0x9e8-0x9e9 (1)
0x9e0|                           02                  |         .      |      [111]: 2 transition_type 0x9e9-0x9ea (1)
0x9e0|                              01               |          .     |      [112]: 1 transition_type 0x9ea-0x9eb (1)
0x9e0|                                 02            |           .    |      [113]: 2 transition_type 0x9eb-0x9ec (1)
0x9e0|                                    01         |            .   |      [114]: 1 transition_type 0x9ec-0x9ed (1)
0x9e0|                                       02      |             .  |      [115]: 2 transition_type 0x9ed-0x9ee (1)
0x9e0|                                          01   |              . |      [116]: 1 transition_type 0x9ee-0x9ef (1)
0x9e0|                                             02|               .|      [117]: 2 transition_type 0x9ef-0x9f0 (1)
0x9f0|01                                             |.               |      [118]: 1 transition_type 0x9f0-0x9f1 (1)
0x9f0|   02                                          | .              |      [119]: 2 transition_type 0x9f1-0x9f2 (1)
0x9f0|      01                                       |  .             |      [120]: 1 transition_type 0x9f2-0x9f3 (1)
0x9f0|         02                                    |   .            |      [121]: 2 transition_type 0x9f3-0x9f4 (1)
0x9f0|            01                                 |    .           |      [122]: 1 transition_type 0x9f4-0x9f5 (1)
0x9f0|               02                              |     .          |      [123]: 2 transition_type 0x9f5-0x9f6 (1)
0x9f0|                  01                           |      .         |      [124]: 1 transition_type 0x9f6-0x9f7 (1)
0x9f0|                     02                        |       .        |      [125]: 2 transition_type 0x9f7-0x9f8 (1)
0x9f0|                        01                     |        .       |      [126]: 1 transition_type 0x9f8-0x9f9 (1)
0x9f0|                           02                  |         .      |      [127]: 2 transition_type 0x9f9-0x9fa (1)
0x9f0|                              01               |          .     |      [128]: 1 transition_type 0x9fa-0x9fb (1)
0x9f0|                                 02            |           .    |      [129]: 2 transition_type 0x9fb-0x9fc (1)
0x9f0|                                    01         |            .   |      [130]: 1 transition_type 0x9fc-0x9fd (1)
0x9f0|                                       02      |             .  |      [131]: 2 transition_type 0x9fd-0x9fe (1)
0x9f0|                                          01   |              . |      [132]: 1 transition_type 0x9fe-0x9ff (1)
0x9f0|                                             02|               .|      [133]: 2 transition_type 0x9ff-0xa00 (1)
0xa00|01                                             |.               |      [134]: 1 transition_type 0xa00-0xa01 (1)
0xa00|   02                                          | .              |      [135]: 2 transition_type 0xa01-0xa02 (1)
0xa00|      01                                       |  .             |      [136]: 1 transition_type 0xa02-0xa03 (1)
0xa00|         02                                    |   .            |      [137]: 2 transition_type 0xa03-0xa04 (1)
0xa00|            01                                 |    .           |      [138]: 1 transition_type 0xa04-0xa05 (1)
0xa00|               02                              |     .          |      [139]: 2 transition_type 0xa05-0xa06 (1)
0xa00|                  01                           |      .         |      [140]: 1 transition_type 0xa06-0xa07 (1)
0xa00|                     02                        |       .        |      [141]: 2 transition_type 0xa07-0xa08 (1)
0xa00|                        01                     |        .       |      [142]: 1 transition_type 0xa08-0xa09 (1)
0xa00|                           02                  |         .      |      [143]: 2 transition_type 0xa09-0xa0a (1)
0xa00|                              01               |          .     |      [144]: 1 transition_type 0xa0a-0xa0b (1)
0xa00|                                 02            |           .    |      [145]: 2 transition_type 0xa0b-0xa0c (1)
0xa00|                                    01         |            .   |      [146]: 1 transition_type 0xa0c-0xa0d (1)
0xa00|                                       02      |             .  |      [147]: 2 transition_type 0xa0d-0xa0e (1)
0xa00|                                          01   |              . |      [148]: 1 transition_type 0xa0e-0xa0f (1)
0xa00|                                             02|               .|      [149]: 2 transition_type 0xa0f-0xa10 (1)
0xa10|01                                             |.               |      [150]: 1 transition_type 0xa10-0xa11 (1)
0xa10|   02                                          | .              |      [151]: 2 transition_type 0xa11-0xa12 (1)
0xa10|      01                                       |  .             |      [152]: 1 transition_type 0xa12-0xa13 (1)
0xa10|         02                                    |   .            |      [153]: 2 transition_type 0xa13-0xa14 (1)
0xa10|            01                                 |    .           |      [154]: 1 transition_type 0xa14-0xa15 (1)
0xa10|               02                              |     .          |      [155]: 2 transition_type 0xa15-0xa16 (1)
0xa10|                  01                           |      .         |      [156]: 1 transition_type 0xa16-0xa17 (1)
0xa10|                     01                        |       .        |      [157]: 1 transition_type 0xa17-0xa18 (1)
     |                                               |                |    local_time_type_records[0:6]: 0xa18-0xa3c (36)
     |                                               |                |      [0]{}: local_time_type 0xa18-0xa1e (6)
0xa10|                        ff ff 91 26            |        ...&    |        utoff: -28378 (valid) 0xa18-0xa1c (4)
0xa10|                                    00         |            .   |        dst: 0 (valid) 0xa1c-0xa1d (1)
0xa10|                                       00      |             .  |        idx: 0 (valid) 0xa1d-0xa1e (1)
     |                                               |                |      [1]{}: local_time_type 0xa1e-0xa24 (6)
0xa10|                                          ff ff|              ..|        utoff: -25200 (valid) 0xa1e-0xa22 (4)
0xa20|9d 90                                          |..              |
0xa20|      01                                       |  .             |        dst: 1 (valid) 0xa22-0xa23 (1)
0xa20|         04                                    |   .            |        idx: 4 (valid) 0xa23-0xa24 (1)
     |                                               |                |      [2]{}: local_time_type 0xa24-0xa2a (6)
0xa20|            ff ff 8f 80                        |    ....        |        utoff: -28800 (valid) 0xa24-0xa28 (4)
0xa20|                        00                     |        .       |        dst: 0 (valid) 0xa28-0xa29 (1)
0xa20|                           08                  |         .      |        idx: 8 (valid) 0xa29-0xa2a (1)
     |                                               |                |      [3]{}: local_time_type 0xa2a-0xa30 (6)
0xa20|                              ff ff 9d 90      |          ....  |        utoff: -25200 (valid) 0xa2a-0xa2e (4)
0xa20|                                          01   |              . |        dst: 1 (valid) 0xa2e-0xa2f (1)
0xa20|                                             0c|               .|        idx: 12 (valid) 0xa2f-0xa30 (1)
     |                                               |                |      [4]{}: local_time_type 0xa30-0xa36 (6)
0xa30|ff ff 9d 90                                    |....            |        utoff: -25200 (valid) 0xa30-0xa34 (4)
0xa30|            01                                 |    .           |        dst: 1 (valid) 0xa34-0xa35 (1)
0xa30|               10                              |     .          |        idx: 16 (valid) 0xa35-0xa36 (1)
     |                                               |                |      [5]{}: local_time_type 0xa36-0xa3c (6)
0xa30|                  ff ff 8f 80                  |      ....      |        utoff: -28800 (valid) 0xa36-0xa3a (4)
0xa30|                              00               |          .     |        dst: 0 (valid) 0xa3a-0xa3b (1)
0xa30|                                 08            |           .    |        idx: 8 (valid) 0xa3b-0xa3c (1)
     |                                               |                |    time_zone_designations[0:5]: 0xa3c-0xa50 (20)
0xa30|                                    4c 4d 54 00|            LMT.|      [0]: "LMT" time_zone_designation 0xa3c-0xa40 (4)
0xa40|50 44 54 00                                    |PDT.            |      [1]: "PDT" time_zone_designation 0xa40-0xa44 (4)
0xa40|            50 53 54 00                        |    PST.        |      [2]: "PST" time_zone_designation 0xa44-0xa48 (4)
0xa40|                        50 57 54 00            |        PWT.    |      [3]: "PWT" time_zone_designation 0xa48-0xa4c (4)
0xa40|                                    50 50 54 00|            PPT.|      [4]: "PPT" time_zone_designation 0xa4c-0xa50 (4)
     |                                               |                |    leap_second_records[0:27]: 0xa50-0xb94 (324)
     |                                               |                |      [0]{}: leap_second_record 0xa50-0xa5c (12)
0xa50|00 00 00 00 04 b2 58 00                        |......X.        |        occur: "1972-07-01T00:00:00Z" (78796800) 0xa50-0xa58 (8)
0xa50|                        00 00 00 01            |        ....    |        corr: 1 0xa58-0xa5c (4)
     |                                               |                |      [1]{}: leap_second_record 0xa5c-0xa68 (12)
0xa50|                                    00 00 00 00|            ....|        occur: "1973-01-01T00:00:01Z" (94694401) 0xa5c-0xa64 (8)
0xa60|05 a4 ec 01                                    |....            |
0xa60|            00 00 00 02                        |    ....        |        corr: 2 0xa64-0xa68 (4)
     |                                               |                |      [2]{}: leap_second_record 0xa68-0xa74 (12)
0xa60|                        00 00 00 00 07 86 1f 82|        ........|        occur: "1974-01-01T00:00:02Z" (126230402) 0xa68-0xa70 (8)
0xa70|00 00 00 03                                    |....            |        corr: 3 0xa70-0xa74 (4)
     |                                               |                |      [3]{}: leap_second_record 0xa74-0xa80 (12)
0xa70|            00 00 00 00 09 67 53 03            |    .....gS.    |        occur: "1975-01-01T00:00:03Z" (157766403) 0xa74-0xa7c (8)
0xa70|                                    00 00 00 04|            ....|        corr: 4 0xa7c-0xa80 (4)
     |                                               |                |      [4]{}: leap_second_record 0xa80-0xa8c (12)
0xa80|00 00 00 00 0b 48 86 84                        |.....H..        |        occur: "1976-01-01T00:00:04Z" (189302404) 0xa80-0xa88 (8)
0xa80|                        00 00 00 05            |        ....    |        corr: 5 0xa88-0xa8c (4)
     |                                               |                |      [5]{}: leap_second_record 0xa8c-0xa98 (12)
0xa80|                                    00 00 00 00|            ....|        occur: "1977-01-01T00:00:05Z" (220924805) 0xa8c-0xa94 (8)
0xa90|0d 2b 0b 85                                    |.+..            |
0xa90|            00 00 00 06                        |    ....        |        corr: 6 0xa94-0xa98 (4)
     |                                               |                |      [6]{}: leap_second_record 0xa98-0xaa4 (12)
0xa90|                        00 00 00 00 0f 0c 3f 06|        ......?.|        occur: "1978-01-01T00:00:06Z" (252460806) 0xa98-0xaa0 (8)
0xaa0|00 00 00 07                                    |....            |        corr: 7 0xaa0-0xaa4 (4)
     |                                               |                |      [7]{}: leap_second_record 0xaa4-0xab0 (12)
0xaa0|            00 00 00 00 10 ed 72 87            |    ......r.    |        occur: "1979-01-01T00:00:07Z" (283996807) 0xaa4-0xaac (8)
0xaa0|                                    00 00 00 08|            ....|        corr: 8 0xaac-0xab0 (4)
     |                                               |                |      [8]{}: leap_second_record 0xab0-0xabc (12)
0xab0|00 00 00 00 12 ce a6 08                        |........        |        occur: "1980-01-01T00:00:08Z" (315532808) 0xab0-0xab8 (8)
0xab0|                        00 00 00 09            |        ....    |        corr: 9 0xab8-0xabc (4)
     |                                               |                |      [9]{}: leap_second_record 0xabc-0xac8 (12)
0xab0|                                    00 00 00 00|            ....|        occur: "1981-07-01T00:00:09Z" (362793609) 0xabc-0xac4 (8)
0xac0|15 9f ca 89                                    |....            |
0xac0|            00 00 00 0a                        |    ....        |        corr: 10 0xac4-0xac8 (4)
     |                                               |                |      [10]{}: leap_second_record 0xac8-0xad4 (12)
0xac0|                        00 00 00 00 17 80 fe 0a|        ........|        occur: "1982-07-01T00:00:10Z" (394329610) 0xac8-0xad0 (8)
0xad0|00 00 00 0b                                    |....            |        corr: 11 0xad0-0xad4 (4)
     |                                               |                |      [11]{}: leap_second_record 0xad4-0xae0 (12)
0xad0|            00 00 00 00 19 62 31 8b            |    .....b1.    |        occur: "1983-07-01T00:00:11Z" (425865611) 0xad4-0xadc (8)
0xad0|                                    00 00 00 0c|            ....|        corr: 12 0xadc-0xae0 (4)
     |                                               |                |      [12]{}: leap_second_record 0xae0-0xaec (12)
0xae0|00 00 00 00 1d 25 ea 0c                        |.....%..        |        occur: "1985-07-01T00:00:12Z" (489024012) 0xae0-0xae8 (8)
0xae0|                        00 00 00 0d            |        ....    |        corr: 13 0xae8-0xaec (4)
     |                                               |                |      [13]{}: leap_second_record 0xaec-0xaf8 (12)
0xae0|                                    00 00 00 00|            ....|        occur: "1988-01-01T00:00:13Z" (567993613) 0xaec-0xaf4 (8)
0xaf0|21 da e5 0d                                    |!...            |
0xaf0|            00 00 00 0e                        |    ....        |        corr: 14 0xaf4-0xaf8 (4)
     |                                               |                |      [14]{}: leap_second_record 0xaf8-0xb04 (12)
0xaf0|                        00 00 00 00 25 9e 9d 8e|        ....%...|        occur: "1990-01-01T00:00:14Z" (631152014) 0xaf8-0xb00 (8)
0xb00|00 00 00 0f                                    |....            |        corr: 15 0xb00-0xb04 (4)
     |                                               |                |      [15]{}: leap_second_record 0xb04-0xb10 (12)
0xb00|            00 00 00 00 27 7f d1 0f            |    ....'...    |        occur: "1991-01-01T00:00:15Z" (662688015) 0xb04-0xb0c (8)
0xb00|                                    00 00 00 10|            ....|        corr: 16 0xb0c-0xb10 (4)
     |                                               |                |      [16]{}: leap_second_record 0xb10-0xb1c (12)
0xb10|00 00 00 00 2a 50 f5 90                        |....*P..        |        occur: "1992-07-01T00:00:16Z" (709948816) 0xb10-0xb18 (8)
0xb10|                        00 00 00 11            |        ....    |        corr: 17 0xb18-0xb1c (4)
     |                                               |                |      [17]{}: leap_second_record 0xb1c-0xb28 (12)
0xb10|                                    00 00 00 00|            ....|        occur: "1993-07-01T00:00:17Z" (741484817) 0xb1c-0xb24 (8)
0xb20|2c 32 29 11                                    |,2).            |
0xb20|            00 00 00 12                        |    ....        |        corr: 18 0xb24-0xb28 (4)
     |                                               |                |      [18]{}: leap_second_record 0xb28-0xb34 (12)
0xb20|                        00 00 00 00 2e 13 5c 92|        ......\.|        occur: "1994-07-01T00:00:18Z" (773020818) 0xb28-0xb30 (8)
0xb30|00 00 00 13                                    |....            |        corr: 19 0xb30-0xb34 (4)
     |                                               |                |      [19]{}: leap_second_record 0xb34-0xb40 (12)
0xb30|            00 00 00 00 30 e7 24 13            |    ....0.$.    |        occur: "1996-01-01T00:00:19Z" (820454419) 0xb34-0xb3c (8)
0xb30|                                    00 00 00 14|            ....|        corr: 20 0xb3c-0xb40 (4)
     |                                               |                |      [20]{}: leap_second_record 0xb40-0xb4c (12)
0xb40|00 00 00 00 33 b8 48 94                        |....3.H.        |        occur: "1997-07-01T00:00:20Z" (867715220) 0xb40-0xb48 (8)
0xb40|                        00 00 00 15            |        ....    |        corr: 21 0xb48-0xb4c (4)
     |                                               |                |      [21]{}: leap_second_record 0xb4c-0xb58 (12)
0xb40|                                    00 00 00 00|            ....|        occur: "1999-01-01T00:00:21Z" (915148821) 0xb4c-0xb54 (8)
0xb50|36 8c 10 15                                    |6...            |
0xb50|            00 00 00 16                        |    ....        |        corr: 22 0xb54-0xb58 (4)
     |                                               |                |      [22]{}: leap_second_record 0xb58-0xb64 (12)
0xb50|                        00 00 00 00 43 b7 1b 96|        ....C...|        occur: "2006-01-01T00:00:22Z" (1136073622) 0xb58-0xb60 (8)
0xb60|00 00 00 17                                    |....            |        corr: 23 0xb60-0xb64 (4)
     |                                               |                |      [23]{}: leap_second_record 0xb64-0xb70 (12)
0xb60|            00 00 00 00 49 5c 07 97            |    ....I\..    |        occur: "2009-01-01T00:00:23Z" (1230768023) 0xb64-0xb6c (8)
0xb60|                                    00 00 00 18|            ....|        corr: 24 0xb6c-0xb70 (4)
     |                                               |                |      [24]{}: leap_second_record 0xb70-0xb7c (12)
0xb70|00 00 00 00 4f ef 93 18                        |....O...        |        occur: "2012-07-01T00:00:24Z" (1341100824) 0xb70-0xb78 (8)
0xb70|                        00 00 00 19            |        ....    |        corr: 25 0xb78-0xb7c (4)
     |                                               |                |      [25]{}: leap_second_record 0xb7c-0xb88 (12)
0xb70|                                    00 00 00 00|            ....|        occur: "2015-07-01T00:00:25Z" (1435708825) 0xb7c-0xb84 (8)
0xb80|55 93 2d 99                                    |U.-.            |
0xb80|            00 00 00 1a                        |    ....        |        corr: 26 0xb84-0xb88 (4)
     |                                               |                |      [26]{}: leap_second_record 0xb88-0xb94 (12)
0xb80|                        00 00 00 00 58 68 46 9a|        ....XhF.|        occur: "2017-01-01T00:00:26Z" (1483228826) 0xb88-0xb90 (8)
0xb90|00 00 00 1b                                    |....            |        corr: 27 0xb90-0xb94 (4)
     |                                               |                |    standard_wall_indicators[0:6]: 0xb94-0xb9a (6)
0xb90|            00                                 |    .           |      [0]: 0 standard_wall_indicator (valid) 0xb94-0xb95 (1)
0xb90|               00                              |     .          |      [1]: 0 standard_wall_indicator (valid) 0xb95-0xb96 (1)
0xb90|                  00                           |      .         |      [2]: 0 standard_wall_indicator (valid) 0xb96-0xb97 (1)
0xb90|                     00                        |       .        |      [3]: 0 standard_wall_indicator (valid) 0xb97-0xb98 (1)
0xb90|                        01                     |        .       |      [4]: 1 standard_wall_indicator (valid) 0xb98-0xb99 (1)
0xb90|                           01                  |         .      |      [5]: 1 standard_wall_indicator (valid) 0xb99-0xb9a (1)
     |                                               |                |    ut_local_indicators[0:6]: 0xb9a-0xba0 (6)
0xb90|                              00               |          .     |      [0]: 0 ut_local_indicator (valid) 0xb9a-0xb9b (1)
0xb90|                                 00            |           .    |      [1]: 0 ut_local_indicator (valid) 0xb9b-0xb9c (1)
0xb90|                                    00         |            .   |      [2]: 0 ut_local_indicator (valid) 0xb9c-0xb9d (1)
0xb90|                                       00      |             .  |      [3]: 0 ut_local_indicator (valid) 0xb9d-0xb9e (1)
0xb90|                                          01   |              . |      [4]: 1 ut_local_indicator (valid) 0xb9e-0xb9f (1)
0xb90|                                             01|               .|      [5]: 1 ut_local_indicator (valid) 0xb9f-0xba0 (1)
     |                                               |                |  footer{}: 0xba0-0xba2 (2)
0xba0|0a                                             |.               |    nl1: 10 (valid) 0xba0-0xba1 (1)
     |                                               |                |    tz_string: "" 0xba1-0xba1 (0)
0xba0|   0a|                                         | .|             |    nl2: 10 (valid) 0xba1-0xba2 (1)
