$ fq -d tzif dv Louisville
     |00 01 02 03 04 05 06 07 08 09 0a 0b 0c 0d 0e 0f|0123456789abcdef|.{}: Louisville (tzif) 0x0-0xb61.7 (2914)
     |                                               |                |  v1header{}: 0x0-0x2b.7 (44)
0x000|54 5a 69 66                                    |TZif            |    magic: 0x545a6966 (valid) 0x0-0x3.7 (4)
0x000|            32                                 |    2           |    ver: "2" (0x32) (valid) 0x4-0x4.7 (1)
0x000|               00 00 00 00 00 00 00 00 00 00 00|     ...........|    reserved: raw bits 0x5-0x13.7 (15)
0x010|00 00 00 00                                    |....            |
0x010|            00 00 00 08                        |    ....        |    isutcnt: 8 0x14-0x17.7 (4)
0x010|                        00 00 00 08            |        ....    |    isstdcnt: 8 0x18-0x1b.7 (4)
0x010|                                    00 00 00 1b|            ....|    leapcnt: 27 0x1c-0x1f.7 (4)
0x020|00 00 00 96                                    |....            |    timecnt: 150 0x20-0x23.7 (4)
0x020|            00 00 00 08                        |    ....        |    typecnt: 8 0x24-0x27.7 (4)
0x020|                        00 00 00 1c            |        ....    |    charcnt: 28 0x28-0x2b.7 (4)
     |                                               |                |  v1datablock{}: 0x2c-0x44d.7 (1058)
     |                                               |                |    transition_times[0:150]: 0x2c-0x283.7 (600)
0x020|                                    80 00 00 00|            ....|      [0]: "1901-12-13T20:45:52Z" (-2147483648) transition_time 0x2c-0x2f.7 (4)
0x030|9e a6 2c 80                                    |..,.            |      [1]: "1918-03-31T08:00:00Z" (-1633276800) transition_time 0x30-0x33.7 (4)
0x030|            9f ba f9 70                        |    ...p        |      [2]: "1918-10-27T07:00:00Z" (-1615136400) transition_time 0x34-0x37.7 (4)
0x030|                        a0 86 0e 80            |        ....    |      [3]: "1919-03-30T08:00:00Z" (-1601827200) transition_time 0x38-0x3b.7 (4)
0x030|                                    a1 9a db 70|            ...p|      [4]: "1919-10-26T07:00:00Z" (-1583686800) transition_time 0x3c-0x3f.7 (4)
0x040|a4 73 f7 00                                    |.s..            |      [5]: "1921-05-01T08:00:00Z" (-1535904000) transition_time 0x40-0x43.7 (4)
0x040|            a5 16 11 70                        |    ...p        |      [6]: "1921-09-01T07:00:00Z" (-1525280400) transition_time 0x44-0x47.7 (4)
0x040|                        ca 0d 4e 80            |        ..N.    |      [7]: "1941-04-27T08:00:00Z" (-905097600) transition_time 0x48-0x4b.7 (4)
0x040|                                    ca d8 47 70|            ..Gp|      [8]: "1941-09-28T07:00:00Z" (-891795600) transition_time 0x4c-0x4f.7 (4)
0x050|cb 88 fe 80                                    |....            |      [9]: "1942-02-09T08:00:00Z" (-880214400) transition_time 0x50-0x53.7 (4)
0x050|            d2 23 f4 70                        |    .#.p        |      [10]: "1945-08-14T23:00:00Z" (-769395600) transition_time 0x54-0x57.7 (4)
0x050|                        d2 61 09 f0            |        .a..    |      [11]: "1945-09-30T07:00:00Z" (-765392400) transition_time 0x58-0x5b.7 (4)
0x050|                                    d3 75 d7 1c|            .u..|      [12]: "1946-04-28T06:01:00Z" (-747251940) transition_time 0x5c-0x5f.7 (4)
0x060|d3 a4 09 70                                    |...p            |      [13]: "1946-06-02T07:00:00Z" (-744224400) transition_time 0x60-0x63.7 (4)
0x060|            da fe b5 80                        |    ....        |      [14]: "1950-04-30T08:00:00Z" (-620841600) transition_time 0x64-0x67.7 (4)
0x060|                        db c0 73 f0            |        ..s.    |      [15]: "1950-09-24T07:00:00Z" (-608144400) transition_time 0x68-0x6b.7 (4)
0x060|                                    dc de 97 80|            ....|      [16]: "1951-04-29T08:00:00Z" (-589392000) transition_time 0x6c-0x6f.7 (4)
0x070|dd a9 90 70                                    |...p            |      [17]: "1951-09-30T07:00:00Z" (-576090000) transition_time 0x70-0x73.7 (4)
0x070|            de be 79 80                        |    ..y.        |      [18]: "1952-04-27T08:00:00Z" (-557942400) transition_time 0x74-0x77.7 (4)
0x070|                        df 89 72 70            |        ..rp    |      [19]: "1952-09-28T07:00:00Z" (-544640400) transition_time 0x78-0x7b.7 (4)
0x070|                                    e0 9e 5b 80|            ..[.|      [20]: "1953-04-26T08:00:00Z" (-526492800) transition_time 0x7c-0x7f.7 (4)
0x080|e1 69 54 70                                    |.iTp            |      [21]: "1953-09-27T07:00:00Z" (-513190800) transition_time 0x80-0x83.7 (4)
0x080|            e2 7e 3d 80                        |    .~=.        |      [22]: "1954-04-25T08:00:00Z" (-495043200) transition_time 0x84-0x87.7 (4)
0x080|                        e3 49 36 70            |        .I6p    |      [23]: "1954-09-26T07:00:00Z" (-481741200) transition_time 0x88-0x8b.7 (4)
0x080|                                    e4 5e 1f 80|            .^..|      [24]: "1955-04-24T08:00:00Z" (-463593600) transition_time 0x8c-0x8f.7 (4)
0x090|e5 29 18 70                                    |.).p            |      [25]: "1955-09-25T07:00:00Z" (-450291600) transition_time 0x90-0x93.7 (4)
0x090|            e6 47 3c 00                        |    .G<.        |      [26]: "1956-04-29T08:00:00Z" (-431539200) transition_time 0x94-0x97.7 (4)
0x090|                        e7 37 1e f0            |        .7..    |      [27]: "1956-10-28T07:00:00Z" (-415818000) transition_time 0x98-0x9b.7 (4)
0x090|                                    e8 27 1e 00|            .'..|      [28]: "1957-04-28T08:00:00Z" (-400089600) transition_time 0x9c-0x9f.7 (4)
0x0a0|e9 17 00 f0                                    |....            |      [29]: "1957-10-27T07:00:00Z" (-384368400) transition_time 0xa0-0xa3.7 (4)
0x0a0|            ea 07 00 00                        |    ....        |      [30]: "1958-04-27T08:00:00Z" (-368640000) transition_time 0xa4-0xa7.7 (4)
0x0a0|                        ea f6 e2 f0            |        ....    |      [31]: "1958-10-26T07:00:00Z" (-352918800) transition_time 0xa8-0xab.7 (4)
0x0a0|                                    eb e6 e2 00|            ....|      [32]: "1959-04-26T08:00:00Z" (-337190400) transition_time 0xac-0xaf.7 (4)
0x0b0|ec d6 c4 f0                                    |....            |      [33]: "1959-10-25T07:00:00Z" (-321469200) transition_time 0xb0-0xb3.7 (4)
0x0b0|            ed c6 c4 00                        |    ....        |      [34]: "1960-04-24T08:00:00Z" (-305740800) transition_time 0xb4-0xb7.7 (4)
0x0b0|                        ee bf e1 70            |        ...p    |      [35]: "1960-10-30T07:00:00Z" (-289414800) transition_time 0xb8-0xbb.7 (4)
0x0b0|                                    ef af e0 80|            ....|      [36]: "1961-04-30T08:00:00Z" (-273686400) transition_time 0xbc-0xbf.7 (4)
0x0c0|f0 1e 90 70                                    |...p            |      [37]: "1961-07-23T07:00:00Z" (-266432400) transition_time 0xc0-0xc3.7 (4)
0x0c0|            fc d8 3a f0                        |    ..:.        |      [38]: "1968-04-28T07:00:00Z" (-52938000) transition_time 0xc4-0xc7.7 (4)
0x0c0|                        fd c8 1d e0            |        ....    |      [39]: "1968-10-27T06:00:00Z" (-37216800) transition_time 0xc8-0xcb.7 (4)
0x0c0|                                    fe b8 1c f0|            ....|      [40]: "1969-04-27T07:00:00Z" (-21488400) transition_time 0xcc-0xcf.7 (4)
0x0d0|ff a7 ff e0                                    |....            |      [41]: "1969-10-26T06:00:00Z" (-5767200) transition_time 0xd0-0xd3.7 (4)
0x0d0|            00 97 fe f0                        |    ....        |      [42]: "1970-04-26T07:00:00Z" (9961200) transition_time 0xd4-0xd7.7 (4)
0x0d0|                        01 87 e1 e0            |        ....    |      [43]: "1970-10-25T06:00:00Z" (25682400) transition_time 0xd8-0xdb.7 (4)
0x0d0|                                    02 77 e0 f0|            .w..|      [44]: "1971-04-25T07:00:00Z" (41410800) transition_time 0xdc-0xdf.7 (4)
0x0e0|03 70 fe 60                                    |.p.`            |      [45]: "1971-10-31T06:00:00Z" (57736800) transition_time 0xe0-0xe3.7 (4)
0x0e0|            04 60 fd 70                        |    .`.p        |      [46]: "1972-04-30T07:00:00Z" (73465200) transition_time 0xe4-0xe7.7 (4)
0x0e0|                        05 50 e0 61            |        .P.a    |      [47]: "1972-10-29T06:00:01Z" (89186401) transition_time 0xe8-0xeb.7 (4)
0x0e0|                                    06 40 df 72|            .@.r|      [48]: "1973-04-29T07:00:02Z" (104914802) transition_time 0xec-0xef.7 (4)
0x0f0|07 30 c2 62                                    |.0.b            |      [49]: "1973-10-28T06:00:02Z" (120636002) transition_time 0xf0-0xf3.7 (4)
0x0f0|            07 8d 19 73                        |    ...s        |      [50]: "1974-01-06T07:00:03Z" (126687603) transition_time 0xf4-0xf7.7 (4)
0x0f0|                        09 10 b2 73            |        ...s    |      [51]: "1974-10-27T07:00:03Z" (152089203) transition_time 0xf8-0xfb.7 (4)
0x0f0|                                    09 ad 94 f4|            ....|      [52]: "1975-02-23T07:00:04Z" (162370804) transition_time 0xfc-0xff.7 (4)
0x100|0a f0 86 64                                    |...d            |      [53]: "1975-10-26T06:00:04Z" (183535204) transition_time 0x100-0x103.7 (4)
0x100|            0b e0 85 75                        |    ...u        |      [54]: "1976-04-25T07:00:05Z" (199263605) transition_time 0x104-0x107.7 (4)
0x100|                        0c d9 a2 e5            |        ....    |      [55]: "1976-10-31T06:00:05Z" (215589605) transition_time 0x108-0x10b.7 (4)
0x100|                                    0d c0 67 76|            ..gv|      [56]: "1977-04-24T07:00:06Z" (230713206) transition_time 0x10c-0x10f.7 (4)
0x110|0e b9 84 e6                                    |....            |      [57]: "1977-10-30T06:00:06Z" (247039206) transition_time 0x110-0x113.7 (4)
0x110|            0f a9 83 f7                        |    ....        |      [58]: "1978-04-30T07:00:07Z" (262767607) transition_time 0x114-0x117.7 (4)
0x110|                        10 99 66 e7            |        ..f.    |      [59]: "1978-10-29T06:00:07Z" (278488807) transition_time 0x118-0x11b.7 (4)
0x110|                                    11 89 65 f8|            ..e.|      [60]: "1979-04-29T07:00:08Z" (294217208) transition_time 0x11c-0x11f.7 (4)
0x120|12 79 48 e8                                    |.yH.            |      [61]: "1979-10-28T06:00:08Z" (309938408) transition_time 0x120-0x123.7 (4)
0x120|            13 69 47 f9                        |    .iG.        |      [62]: "1980-04-27T07:00:09Z" (325666809) transition_time 0x124-0x127.7 (4)
0x120|                        14 59 2a e9            |        .Y*.    |      [63]: "1980-10-26T06:00:09Z" (341388009) transition_time 0x128-0x12b.7 (4)
0x120|                                    15 49 29 f9|            .I).|      [64]: "1981-04-26T07:00:09Z" (357116409) transition_time 0x12c-0x12f.7 (4)
0x130|16 39 0c ea                                    |.9..            |      [65]: "1981-10-25T06:00:10Z" (372837610) transition_time 0x130-0x133.7 (4)
0x130|            17 29 0b fa                        |    .)..        |      [66]: "1982-04-25T07:00:10Z" (388566010) transition_time 0x134-0x137.7 (4)
0x130|                        18 22 29 6b            |        .")k    |      [67]: "1982-10-31T06:00:11Z" (404892011) transition_time 0x138-0x13b.7 (4)
0x130|                                    19 08 ed fb|            ....|      [68]: "1983-04-24T07:00:11Z" (420015611) transition_time 0x13c-0x13f.7 (4)
0x140|1a 02 0b 6c                                    |...l            |      [69]: "1983-10-30T06:00:12Z" (436341612) transition_time 0x140-0x143.7 (4)
0x140|            1a f2 0a 7c                        |    ...|        |      [70]: "1984-04-29T07:00:12Z" (452070012) transition_time 0x144-0x147.7 (4)
0x140|                        1b e1 ed 6c            |        ...l    |      [71]: "1984-10-28T06:00:12Z" (467791212) transition_time 0x148-0x14b.7 (4)
0x140|                                    1c d1 ec 7c|            ...||      [72]: "1985-04-28T07:00:12Z" (483519612) transition_time 0x14c-0x14f.7 (4)
0x150|1d c1 cf 6d                                    |...m            |      [73]: "1985-10-27T06:00:13Z" (499240813) transition_time 0x150-0x153.7 (4)
0x150|            1e b1 ce 7d                        |    ...}        |      [74]: "1986-04-27T07:00:13Z" (514969213) transition_time 0x154-0x157.7 (4)
0x150|                        1f a1 b1 6d            |        ...m    |      [75]: "1986-10-26T06:00:13Z" (530690413) transition_time 0x158-0x15b.7 (4)
0x150|                                    20 76 00 fd|             v..|      [76]: "1987-04-05T07:00:13Z" (544604413) transition_time 0x15c-0x15f.7 (4)
0x160|21 81 93 6d                                    |!..m            |      [77]: "1987-10-25T06:00:13Z" (562140013) transition_time 0x160-0x163.7 (4)
0x160|            22 55 e2 fe                        |    "U..        |      [78]: "1988-04-03T07:00:14Z" (576054014) transition_time 0x164-0x167.7 (4)
0x160|                        23 6a af ee            |        #j..    |      [79]: "1988-10-30T06:00:14Z" (594194414) transition_time 0x168-0x16b.7 (4)
0x160|                                    24 35 c4 fe|            $5..|      [80]: "1989-04-02T07:00:14Z" (607503614) transition_time 0x16c-0x16f.7 (4)
0x170|25 4a 91 ee                                    |%J..            |      [81]: "1989-10-29T06:00:14Z" (625644014) transition_time 0x170-0x173.7 (4)
0x170|            26 15 a6 ff                        |    &...        |      [82]: "1990-04-01T07:00:15Z" (638953215) transition_time 0x174-0x177.7 (4)
0x170|                        27 2a 73 ef            |        '*s.    |      [83]: "1990-10-28T06:00:15Z" (657093615) transition_time 0x178-0x17b.7 (4)
0x170|                                    27 fe c3 80|            '...|      [84]: "1991-04-07T07:00:16Z" (671007616) transition_time 0x17c-0x17f.7 (4)
0x180|29 0a 55 f0                                    |).U.            |      [85]: "1991-10-27T06:00:16Z" (688543216) transition_time 0x180-0x183.7 (4)
0x180|            29 de a5 80                        |    )...        |      [86]: "1992-04-05T07:00:16Z" (702457216) transition_time 0x184-0x187.7 (4)
0x180|                        2a ea 37 f1            |        *.7.    |      [87]: "1992-10-25T06:00:17Z" (719992817) transition_time 0x188-0x18b.7 (4)
0x180|                                    2b be 87 81|            +...|      [88]: "1993-04-04T07:00:17Z" (733906817) transition_time 0x18c-0x18f.7 (4)
0x190|2c d3 54 72                                    |,.Tr            |      [89]: "1993-10-31T06:00:18Z" (752047218) transition_time 0x190-0x193.7 (4)
0x190|            2d 9e 69 82                        |    -.i.        |      [90]: "1994-04-03T07:00:18Z" (765356418) transition_time 0x194-0x197.7 (4)
0x190|                        2e b3 36 73            |        ..6s    |      [91]: "1994-10-30T06:00:19Z" (783496819) transition_time 0x198-0x19b.7 (4)
0x190|                                    2f 7e 4b 83|            /~K.|      [92]: "1995-04-02T07:00:19Z" (796806019) transition_time 0x19c-0x19f.7 (4)
0x1a0|30 93 18 73                                    |0..s            |      [93]: "1995-10-29T06:00:19Z" (814946419) transition_time 0x1a0-0x1a3.7 (4)
0x1a0|            31 67 68 04                        |    1gh.        |      [94]: "1996-04-07T07:00:20Z" (828860420) transition_time 0x1a4-0x1a7.7 (4)
0x1a0|                        32 72 fa 74            |        2r.t    |      [95]: "1996-10-27T06:00:20Z" (846396020) transition_time 0x1a8-0x1ab.7 (4)
0x1a0|                                    33 47 4a 04|            3GJ.|      [96]: "1997-04-06T07:00:20Z" (860310020) transition_time 0x1ac-0x1af.7 (4)
0x1b0|34 52 dc 75                                    |4R.u            |      [97]: "1997-10-26T06:00:21Z" (877845621) transition_time 0x1b0-0x1b3.7 (4)
0x1b0|            35 27 2c 05                        |    5',.        |      [98]: "1998-04-05T07:00:21Z" (891759621) transition_time 0x1b4-0x1b7.7 (4)
0x1b0|                        36 32 be 75            |        62.u    |      [99]: "1998-10-25T06:00:21Z" (909295221) transition_time 0x1b8-0x1bb.7 (4)
0x1b0|                                    37 07 0e 06|            7...|      [100]: "1999-04-04T07:00:22Z" (923209222) transition_time 0x1bc-0x1bf.7 (4)
0x1c0|38 1b da f6                                    |8...            |      [101]: "1999-10-31T06:00:22Z" (941349622) transition_time 0x1c0-0x1c3.7 (4)
0x1c0|            38 e6 f0 06                        |    8...        |      [102]: "2000-04-02T07:00:22Z" (954658822) transition_time 0x1c4-0x1c7.7 (4)
0x1c0|                        39 fb bc f6            |        9...    |      [103]: "2000-10-29T06:00:22Z" (972799222) transition_time 0x1c8-0x1cb.7 (4)
0x1c0|                                    3a c6 d2 06|            :...|      [104]: "2001-04-01T07:00:22Z" (986108422) transition_time 0x1cc-0x1cf.7 (4)
0x1d0|3b db 9e f6                                    |;...            |      [105]: "2001-10-28T06:00:22Z" (1004248822) transition_time 0x1d0-0x1d3.7 (4)
0x1d0|            3c af ee 86                        |    <...        |      [106]: "2002-04-07T07:00:22Z" (1018162822) transition_time 0x1d4-0x1d7.7 (4)
0x1d0|                        3d bb 80 f6            |        =...    |      [107]: "2002-10-27T06:00:22Z" (1035698422) transition_time 0x1d8-0x1db.7 (4)
0x1d0|                                    3e 8f d0 86|            >...|      [108]: "2003-04-06T07:00:22Z" (1049612422) transition_time 0x1dc-0x1df.7 (4)
0x1e0|3f 9b 62 f6                                    |?.b.            |      [109]: "2003-10-26T06:00:22Z" (1067148022) transition_time 0x1e0-0x1e3.7 (4)
0x1e0|            40 6f b2 86                        |    @o..        |      [110]: "2004-04-04T07:00:22Z" (1081062022) transition_time 0x1e4-0x1e7.7 (4)
0x1e0|                        41 84 7f 76            |        A..v    |      [111]: "2004-10-31T06:00:22Z" (1099202422) transition_time 0x1e8-0x1eb.7 (4)
0x1e0|                                    42 4f 94 86|            BO..|      [112]: "2005-04-03T07:00:22Z" (1112511622) transition_time 0x1ec-0x1ef.7 (4)
0x1f0|43 64 61 76                                    |Cdav            |      [113]: "2005-10-30T06:00:22Z" (1130652022) transition_time 0x1f0-0x1f3.7 (4)
0x1f0|            44 2f 76 87                        |    D/v.        |      [114]: "2006-04-02T07:00:23Z" (1143961223) transition_time 0x1f4-0x1f7.7 (4)
0x1f0|                        45 44 43 77            |        EDCw    |      [115]: "2006-10-29T06:00:23Z" (1162101623) transition_time 0x1f8-0x1fb.7 (4)
0x1f0|                                    45 f3 a9 07|            E...|      [116]: "2007-03-11T07:00:23Z" (1173596423) transition_time 0x1fc-0x1ff.7 (4)
0x200|47 2d 5f f7                                    |G-_.            |      [117]: "2007-11-04T06:00:23Z" (1194156023) transition_time 0x200-0x203.7 (4)
0x200|            47 d3 8b 07                        |    G...        |      [118]: "2008-03-09T07:00:23Z" (1205046023) transition_time 0x204-0x207.7 (4)
0x200|                        49 0d 41 f7            |        I.A.    |      [119]: "2008-11-02T06:00:23Z" (1225605623) transition_time 0x208-0x20b.7 (4)
0x200|                                    49 b3 6d 08|            I.m.|      [120]: "2009-03-08T07:00:24Z" (1236495624) transition_time 0x20c-0x20f.7 (4)
0x210|4a ed 23 f8                                    |J.#.            |      [121]: "2009-11-01T06:00:24Z" (1257055224) transition_time 0x210-0x213.7 (4)
0x210|            4b 9c 89 88                        |    K...        |      [122]: "2010-03-14T07:00:24Z" (1268550024) transition_time 0x214-0x217.7 (4)
0x210|                        4c d6 40 78            |        L.@x    |      [123]: "2010-11-07T06:00:24Z" (1289109624) transition_time 0x218-0x21b.7 (4)
0x210|                                    4d 7c 6b 88|            M|k.|      [124]: "2011-03-13T07:00:24Z" (1299999624) transition_time 0x21c-0x21f.7 (4)
0x220|4e b6 22 78                                    |N."x            |      [125]: "2011-11-06T06:00:24Z" (1320559224) transition_time 0x220-0x223.7 (4)
0x220|            4f 5c 4d 88                        |    O\M.        |      [126]: "2012-03-11T07:00:24Z" (1331449224) transition_time 0x224-0x227.7 (4)
0x220|                        50 96 04 79            |        P..y    |      [127]: "2012-11-04T06:00:25Z" (1352008825) transition_time 0x228-0x22b.7 (4)
0x220|                                    51 3c 2f 89|            Q</.|      [128]: "2013-03-10T07:00:25Z" (1362898825) transition_time 0x22c-0x22f.7 (4)
0x230|52 75 e6 79                                    |Ru.y            |      [129]: "2013-11-03T06:00:25Z" (1383458425) transition_time 0x230-0x233.7 (4)
0x230|            53 1c 11 89                        |    S...        |      [130]: "2014-03-09T07:00:25Z" (1394348425) transition_time 0x234-0x237.7 (4)
0x230|                        54 55 c8 79            |        TU.y    |      [131]: "2014-11-02T06:00:25Z" (1414908025) transition_time 0x238-0x23b.7 (4)
0x230|                                    54 fb f3 89|            T...|      [132]: "2015-03-08T07:00:25Z" (1425798025) transition_time 0x23c-0x23f.7 (4)
0x240|56 35 aa 7a                                    |V5.z            |      [133]: "2015-11-01T06:00:26Z" (1446357626) transition_time 0x240-0x243.7 (4)
0x240|            56 e5 10 0a                        |    V...        |      [134]: "2016-03-13T07:00:26Z" (1457852426) transition_time 0x244-0x247.7 (4)
0x240|                        58 1e c6 fa            |        X...    |      [135]: "2016-11-06T06:00:26Z" (1478412026) transition_time 0x248-0x24b.7 (4)
0x240|                                    58 c4 f2 0b|            X...|      [136]: "2017-03-12T07:00:27Z" (1489302027) transition_time 0x24c-0x24f.7 (4)
0x250|59 fe a8 fb                                    |Y...            |      [137]: "2017-11-05T06:00:27Z" (1509861627) transition_time 0x250-0x253.7 (4)
0x250|            5a a4 d4 0b                        |    Z...        |      [138]: "2018-03-11T07:00:27Z" (1520751627) transition_time 0x254-0x257.7 (4)
0x250|                        5b de 8a fb            |        [...    |      [139]: "2018-11-04T06:00:27Z" (1541311227) transition_time 0x258-0x25b.7 (4)
0x250|                                    5c 84 b6 0b|            \...|      [140]: "2019-03-10T07:00:27Z" (1552201227) transition_time 0x25c-0x25f.7 (4)
0x260|5d be 6c fb                                    |].l.            |      [141]: "2019-11-03T06:00:27Z" (1572760827) transition_time 0x260-0x263.7 (4)
0x260|            5e 64 98 0b                        |    ^d..        |      [142]: "2020-03-08T07:00:27Z" (1583650827) transition_time 0x264-0x267.7 (4)
0x260|                        5f 9e 4e fb            |        _.N.    |      [143]: "2020-11-01T06:00:27Z" (1604210427) transition_time 0x268-0x26b.7 (4)
0x260|                                    60 4d b4 8b|            `M..|      [144]: "2021-03-14T07:00:27Z" (1615705227) transition_time 0x26c-0x26f.7 (4)
0x270|61 87 6b 7b                                    |a.k{            |      [145]: "2021-11-07T06:00:27Z" (1636264827) transition_time 0x270-0x273.7 (4)
0x270|            62 2d 96 8b                        |    b-..        |      [146]: "2022-03-13T07:00:27Z" (1647154827) transition_time 0x274-0x277.7 (4)
0x270|                        63 67 4d 7b            |        cgM{    |      [147]: "2022-11-06T06:00:27Z" (1667714427) transition_time 0x278-0x27b.7 (4)
0x270|                                    64 0d 78 8b|            d.x.|      [148]: "2023-03-12T07:00:27Z" (1678604427) transition_time 0x27c-0x27f.7 (4)
0x280|64 9b 78 1b                                    |d.x.            |      [149]: "2023-06-28T00:00:27Z" (1687910427) transition_time 0x280-0x283.7 (4)
     |                                               |                |    transition_types[0:150]: 0x284-0x319.7 (150)
0x280|            03                                 |    .           |      [0]: 3 transition_type 0x284-0x284.7 (1)
0x280|               01                              |     .          |      [1]: 1 transition_type 0x285-0x285.7 (1)
0x280|                  02                           |      .         |      [2]: 2 transition_type 0x286-0x286.7 (1)
0x280|                     01                        |       .        |      [3]: 1 transition_type 0x287-0x287.7 (1)
0x280|                        02                     |        .       |      [4]: 2 transition_type 0x288-0x288.7 (1)
0x280|                           01                  |         .      |      [5]: 1 transition_type 0x289-0x289.7 (1)
0x280|                              02               |          .     |      [6]: 2 transition_type 0x28a-0x28a.7 (1)
0x280|                                 01            |           .    |      [7]: 1 transition_type 0x28b-0x28b.7 (1)
0x280|                                    02         |            .   |      [8]: 2 transition_type 0x28c-0x28c.7 (1)
0x280|                                       04      |             .  |      [9]: 4 transition_type 0x28d-0x28d.7 (1)
0x280|                                          05   |              . |      [10]: 5 transition_type 0x28e-0x28e.7 (1)
0x280|                                             02|               .|      [11]: 2 transition_type 0x28f-0x28f.7 (1)
0x290|01                                             |.               |      [12]: 1 transition_type 0x290-0x290.7 (1)
0x290|   02                                          | .              |      [13]: 2 transition_type 0x291-0x291.7 (1)
0x290|      01                                       |  .             |      [14]: 1 transition_type 0x292-0x292.7 (1)
0x290|         02                                    |   .            |      [15]: 2 transition_type 0x293-0x293.7 (1)
0x290|            01                                 |    .           |      [16]: 1 transition_type 0x294-0x294.7 (1)
0x290|               02                              |     .          |      [17]: 2 transition_type 0x295-0x295.7 (1)
0x290|                  01                           |      .         |      [18]: 1 transition_type 0x296-0x296.7 (1)
0x290|                     02                        |       .        |      [19]: 2 transition_type 0x297-0x297.7 (1)
0x290|                        01                     |        .       |      [20]: 1 transition_type 0x298-0x298.7 (1)
0x290|                           02                  |         .      |      [21]: 2 transition_type 0x299-0x299.7 (1)
0x290|                              01               |          .     |      [22]: 1 transition_type 0x29a-0x29a.7 (1)
0x290|                                 02            |           .    |      [23]: 2 transition_type 0x29b-0x29b.7 (1)
0x290|                                    01         |            .   |      [24]: 1 transition_type 0x29c-0x29c.7 (1)
0x290|                                       02      |             .  |      [25]: 2 transition_type 0x29d-0x29d.7 (1)
0x290|                                          01   |              . |      [26]: 1 transition_type 0x29e-0x29e.7 (1)
0x290|                                             02|               .|      [27]: 2 transition_type 0x29f-0x29f.7 (1)
0x2a0|01                                             |.               |      [28]: 1 transition_type 0x2a0-0x2a0.7 (1)
0x2a0|   02                                          | .              |      [29]: 2 transition_type 0x2a1-0x2a1.7 (1)
0x2a0|      01                                       |  .             |      [30]: 1 transition_type 0x2a2-0x2a2.7 (1)
0x2a0|         02                                    |   .            |      [31]: 2 transition_type 0x2a3-0x2a3.7 (1)
0x2a0|            01                                 |    .           |      [32]: 1 transition_type 0x2a4-0x2a4.7 (1)
0x2a0|               02                              |     .          |      [33]: 2 transition_type 0x2a5-0x2a5.7 (1)
0x2a0|                  01                           |      .         |      [34]: 1 transition_type 0x2a6-0x2a6.7 (1)
0x2a0|                     02                        |       .        |      [35]: 2 transition_type 0x2a7-0x2a7.7 (1)
0x2a0|                        01                     |        .       |      [36]: 1 transition_type 0x2a8-0x2a8.7 (1)
0x2a0|                           06                  |         .      |      [37]: 6 transition_type 0x2a9-0x2a9.7 (1)
0x2a0|                              07               |          .     |      [38]: 7 transition_type 0x2aa-0x2aa.7 (1)
0x2a0|                                 06            |           .    |      [39]: 6 transition_type 0x2ab-0x2ab.7 (1)
0x2a0|                                    07         |            .   |      [40]: 7 transition_type 0x2ac-0x2ac.7 (1)
0x2a0|                                       06      |             .  |      [41]: 6 transition_type 0x2ad-0x2ad.7 (1)
0x2a0|                                          07   |              . |      [42]: 7 transition_type 0x2ae-0x2ae.7 (1)
0x2a0|                                             06|               .|      [43]: 6 transition_type 0x2af-0x2af.7 (1)
0x2b0|07                                             |.               |      [44]: 7 transition_type 0x2b0-0x2b0.7 (1)
0x2b0|   06                                          | .              |      [45]: 6 transition_type 0x2b1-0x2b1.7 (1)
0x2b0|      07                                       |  .             |      [46]: 7 transition_type 0x2b2-0x2b2.7 (1)
0x2b0|         06                                    |   .            |      [47]: 6 transition_type 0x2b3-0x2b3.7 (1)
0x2b0|            07                                 |    .           |      [48]: 7 transition_type 0x2b4-0x2b4.7 (1)
0x2b0|               06                              |     .          |      [49]: 6 transition_type 0x2b5-0x2b5.7 (1)
0x2b0|                  01                           |      .         |      [50]: 1 transition_type 0x2b6-0x2b6.7 (1)
0x2b0|                     06                        |       .        |      [51]: 6 transition_type 0x2b7-0x2b7.7 (1)
0x2b0|                        07                     |        .       |      [52]: 7 transition_type 0x2b8-0x2b8.7 (1)
0x2b0|                           06                  |         .      |      [53]: 6 transition_type 0x2b9-0x2b9.7 (1)
0x2b0|                              07               |          .     |      [54]: 7 transition_type 0x2ba-0x2ba.7 (1)
0x2b0|                                 06            |           .    |      [55]: 6 transition_type 0x2bb-0x2bb.7 (1)
0x2b0|                                    07         |            .   |      [56]: 7 transition_type 0x2bc-0x2bc.7 (1)
0x2b0|                                       06      |             .  |      [57]: 6 transition_type 0x2bd-0x2bd.7 (1)
0x2b0|                                          07   |              . |      [58]: 7 transition_type 0x2be-0x2be.7 (1)
0x2b0|                                             06|               .|      [59]: 6 transition_type 0x2bf-0x2bf.7 (1)
0x2c0|07                                             |.               |      [60]: 7 transition_type 0x2c0-0x2c0.7 (1)
0x2c0|   06                                          | .              |      [61]: 6 transition_type 0x2c1-0x2c1.7 (1)
0x2c0|      07                                       |  .             |      [62]: 7 transition_type 0x2c2-0x2c2.7 (1)
0x2c0|         06                                    |   .            |      [63]: 6 transition_type 0x2c3-0x2c3.7 (1)
0x2c0|            07                                 |    .           |      [64]: 7 transition_type 0x2c4-0x2c4.7 (1)
0x2c0|               06                              |     .          |      [65]: 6 transition_type 0x2c5-0x2c5.7 (1)
0x2c0|                  07                           |      .         |      [66]: 7 transition_type 0x2c6-0x2c6.7 (1)
0x2c0|                     06                        |       .        |      [67]: 6 transition_type 0x2c7-0x2c7.7 (1)
0x2c0|                        07                     |        .       |      [68]: 7 transition_type 0x2c8-0x2c8.7 (1)
0x2c0|                           06                  |         .      |      [69]: 6 transition_type 0x2c9-0x2c9.7 (1)
0x2c0|                              07               |          .     |      [70]: 7 transition_type 0x2ca-0x2ca.7 (1)
0x2c0|                                 06            |           .    |      [71]: 6 transition_type 0x2cb-0x2cb.7 (1)
0x2c0|                                    07         |            .   |      [72]: 7 transition_type 0x2cc-0x2cc.7 (1)
0x2c0|                                       06      |             .  |      [73]: 6 transition_type 0x2cd-0x2cd.7 (1)
0x2c0|                                          07   |              . |      [74]: 7 transition_type 0x2ce-0x2ce.7 (1)
0x2c0|                                             06|               .|      [75]: 6 transition_type 0x2cf-0x2cf.7 (1)
0x2d0|07                                             |.               |      [76]: 7 transition_type 0x2d0-0x2d0.7 (1)
0x2d0|   06                                          | .              |      [77]: 6 transition_type 0x2d1-0x2d1.7 (1)
0x2d0|      07                                       |  .             |      [78]: 7 transition_type 0x2d2-0x2d2.7 (1)
0x2d0|         06                                    |   .            |      [79]: 6 transition_type 0x2d3-0x2d3.7 (1)
0x2d0|            07                                 |    .           |      [80]: 7 transition_type 0x2d4-0x2d4.7 (1)
0x2d0|               06                              |     .          |      [81]: 6 transition_type 0x2d5-0x2d5.7 (1)
0x2d0|                  07                           |      .         |      [82]: 7 transition_type 0x2d6-0x2d6.7 (1)
0x2d0|                     06                        |       .        |      [83]: 6 transition_type 0x2d7-0x2d7.7 (1)
0x2d0|                        07                     |        .       |      [84]: 7 transition_type 0x2d8-0x2d8.7 (1)
0x2d0|                           06                  |         .      |      [85]: 6 transition_type 0x2d9-0x2d9.7 (1)
0x2d0|                              07               |          .     |      [86]: 7 transition_type 0x2da-0x2da.7 (1)
0x2d0|                                 06            |           .    |      [87]: 6 transition_type 0x2db-0x2db.7 (1)
0x2d0|                                    07         |            .   |      [88]: 7 transition_type 0x2dc-0x2dc.7 (1)
0x2d0|                                       06      |             .  |      [89]: 6 transition_type 0x2dd-0x2dd.7 (1)
0x2d0|                                          07   |              . |      [90]: 7 transition_type 0x2de-0x2de.7 (1)
0x2d0|                                             06|               .|      [91]: 6 transition_type 0x2df-0x2df.7 (1)
0x2e0|07                                             |.               |      [92]: 7 transition_type 0x2e0-0x2e0.7 (1)
0x2e0|   06                                          | .              |      [93]: 6 transition_type 0x2e1-0x2e1.7 (1)
0x2e0|      07                                       |  .             |      [94]: 7 transition_type 0x2e2-0x2e2.7 (1)
0x2e0|         06                                    |   .            |      [95]: 6 transition_type 0x2e3-0x2e3.7 (1)
0x2e0|            07                                 |    .           |      [96]: 7 transition_type 0x2e4-0x2e4.7 (1)
0x2e0|               06                              |     .          |      [97]: 6 transition_type 0x2e5-0x2e5.7 (1)
0x2e0|                  07                           |      .         |      [98]: 7 transition_type 0x2e6-0x2e6.7 (1)
0x2e0|                     06                        |       .        |      [99]: 6 transition_type 0x2e7-0x2e7.7 (1)
0x2e0|                        07                     |        .       |      [100]: 7 transition_type 0x2e8-0x2e8.7 (1)
0x2e0|                           06                  |         .      |      [101]: 6 transition_type 0x2e9-0x2e9.7 (1)
0x2e0|                              07               |          .     |      [102]: 7 transition_type 0x2ea-0x2ea.7 (1)
0x2e0|                                 06            |           .    |      [103]: 6 transition_type 0x2eb-0x2eb.7 (1)
0x2e0|                                    07         |            .   |      [104]: 7 transition_type 0x2ec-0x2ec.7 (1)
0x2e0|                                       06      |             .  |      [105]: 6 transition_type 0x2ed-0x2ed.7 (1)
0x2e0|                                          07   |              . |      [106]: 7 transition_type 0x2ee-0x2ee.7 (1)
0x2e0|                                             06|               .|      [107]: 6 transition_type 0x2ef-0x2ef.7 (1)
0x2f0|07                                             |.               |      [108]: 7 transition_type 0x2f0-0x2f0.7 (1)
0x2f0|   06                                          | .              |      [109]: 6 transition_type 0x2f1-0x2f1.7 (1)
0x2f0|      07                                       |  .             |      [110]: 7 transition_type 0x2f2-0x2f2.7 (1)
0x2f0|         06                                    |   .            |      [111]: 6 transition_type 0x2f3-0x2f3.7 (1)
0x2f0|            07                                 |    .           |      [112]: 7 transition_type 0x2f4-0x2f4.7 (1)
0x2f0|               06                              |     .          |      [113]: 6 transition_type 0x2f5-0x2f5.7 (1)
0x2f0|                  07                           |      .         |      [114]: 7 transition_type 0x2f6-0x2f6.7 (1)
0x2f0|                     06                        |       .        |      [115]: 6 transition_type 0x2f7-0x2f7.7 (1)
0x2f0|                        07                     |        .       |      [116]: 7 transition_type 0x2f8-0x2f8.7 (1)
0x2f0|                           06                  |         .      |      [117]: 6 transition_type 0x2f9-0x2f9.7 (1)
0x2f0|                              07               |          .     |      [118]: 7 transition_type 0x2fa-0x2fa.7 (1)
0x2f0|                                 06            |           .    |      [119]: 6 transition_type 0x2fb-0x2fb.7 (1)
0x2f0|                                    07         |            .   |      [120]: 7 transition_type 0x2fc-0x2fc.7 (1)
0x2f0|                                       06      |             .  |      [121]: 6 transition_type 0x2fd-0x2fd.7 (1)
0x2f0|                                          07   |              . |      [122]: 7 transition_type 0x2fe-0x2fe.7 (1)
0x2f0|                                             06|               .|      [123]: 6 transition_type 0x2ff-0x2ff.7 (1)
0x300|07                                             |.               |      [124]: 7 transition_type 0x300-0x300.7 (1)
0x300|   06                                          | .              |      [125]: 6 transition_type 0x301-0x301.7 (1)
0x300|      07                                       |  .             |      [126]: 7 transition_type 0x302-0x302.7 (1)
0x300|         06                                    |   .            |      [127]: 6 transition_type 0x303-0x303.7 (1)
0x300|            07                                 |    .           |      [128]: 7 transition_type 0x304-0x304.7 (1)
0x300|               06                              |     .          |      [129]: 6 transition_type 0x305-0x305.7 (1)
0x300|                  07                           |      .         |      [130]: 7 transition_type 0x306-0x306.7 (1)
0x300|                     06                        |       .        |      [131]: 6 transition_type 0x307-0x307.7 (1)
0x300|                        07                     |        .       |      [132]: 7 transition_type 0x308-0x308.7 (1)
0x300|                           06                  |         .      |      [133]: 6 transition_type 0x309-0x309.7 (1)
0x300|                              07               |          .     |      [134]: 7 transition_type 0x30a-0x30a.7 (1)
0x300|                                 06            |           .    |      [135]: 6 transition_type 0x30b-0x30b.7 (1)
0x300|                                    07         |            .   |      [136]: 7 transition_type 0x30c-0x30c.7 (1)
0x300|                                       06      |             .  |      [137]: 6 transition_type 0x30d-0x30d.7 (1)
0x300|                                          07   |              . |      [138]: 7 transition_type 0x30e-0x30e.7 (1)
0x300|                                             06|               .|      [139]: 6 transition_type 0x30f-0x30f.7 (1)
0x310|07                                             |.               |      [140]: 7 transition_type 0x310-0x310.7 (1)
0x310|   06                                          | .              |      [141]: 6 transition_type 0x311-0x311.7 (1)
0x310|      07                                       |  .             |      [142]: 7 transition_type 0x312-0x312.7 (1)
0x310|         06                                    |   .            |      [143]: 6 transition_type 0x313-0x313.7 (1)
0x310|            07                                 |    .           |      [144]: 7 transition_type 0x314-0x314.7 (1)
0x310|               06                              |     .          |      [145]: 6 transition_type 0x315-0x315.7 (1)
0x310|                  07                           |      .         |      [146]: 7 transition_type 0x316-0x316.7 (1)
0x310|                     06                        |       .        |      [147]: 6 transition_type 0x317-0x317.7 (1)
0x310|                        07                     |        .       |      [148]: 7 transition_type 0x318-0x318.7 (1)
0x310|                           07                  |         .      |      [149]: 7 transition_type 0x319-0x319.7 (1)
     |                                               |                |    local_time_type_records[0:8]: 0x31a-0x349.7 (48)
     |                                               |                |      [0]{}: local_time_type 0x31a-0x31f.7 (6)
0x310|                              ff ff af 9a      |          ....  |        utoff: -20582 (valid) 0x31a-0x31d.7 (4)
0x310|                                          00   |              . |        dst: 0 (valid) 0x31e-0x31e.7 (1)
0x310|                                             00|               .|        idx: 0 (valid) 0x31f-0x31f.7 (1)
     |                                               |                |      [1]{}: local_time_type 0x320-0x325.7 (6)
0x320|ff ff b9 b0                                    |....            |        utoff: -18000 (valid) 0x320-0x323.7 (4)
0x320|            01                                 |    .           |        dst: 1 (valid) 0x324-0x324.7 (1)
0x320|               04                              |     .          |        idx: 4 (valid) 0x325-0x325.7 (1)
     |                                               |                |      [2]{}: local_time_type 0x326-0x32b.7 (6)
0x320|                  ff ff ab a0                  |      ....      |        utoff: -21600 (valid) 0x326-0x329.7 (4)
0x320|                              00               |          .     |        dst: 0 (valid) 0x32a-0x32a.7 (1)
0x320|                                 08            |           .    |        idx: 8 (valid) 0x32b-0x32b.7 (1)
     |                                               |                |      [3]{}: local_time_type 0x32c-0x331.7 (6)
0x320|                                    ff ff ab a0|            ....|        utoff: -21600 (valid) 0x32c-0x32f.7 (4)
0x330|00                                             |.               |        dst: 0 (valid) 0x330-0x330.7 (1)
0x330|   08                                          | .              |        idx: 8 (valid) 0x331-0x331.7 (1)
     |                                               |                |      [4]{}: local_time_type 0x332-0x337.7 (6)
0x330|      ff ff b9 b0                              |  ....          |        utoff: -18000 (valid) 0x332-0x335.7 (4)
0x330|                  01                           |      .         |        dst: 1 (valid) 0x336-0x336.7 (1)
0x330|                     0c                        |       .        |        idx: 12 (valid) 0x337-0x337.7 (1)
     |                                               |                |      [5]{}: local_time_type 0x338-0x33d.7 (6)
0x330|                        ff ff b9 b0            |        ....    |        utoff: -18000 (valid) 0x338-0x33b.7 (4)
0x330|                                    01         |            .   |        dst: 1 (valid) 0x33c-0x33c.7 (1)
0x330|                                       10      |             .  |        idx: 16 (valid) 0x33d-0x33d.7 (1)
     |                                               |                |      [6]{}: local_time_type 0x33e-0x343.7 (6)
0x330|                                          ff ff|              ..|        utoff: -18000 (valid) 0x33e-0x341.7 (4)
0x340|b9 b0                                          |..              |
0x340|      00                                       |  .             |        dst: 0 (valid) 0x342-0x342.7 (1)
0x340|         14                                    |   .            |        idx: 20 (valid) 0x343-0x343.7 (1)
     |                                               |                |      [7]{}: local_time_type 0x344-0x349.7 (6)
0x340|            ff ff c7 c0                        |    ....        |        utoff: -14400 (valid) 0x344-0x347.7 (4)
0x340|                        01                     |        .       |        dst: 1 (valid) 0x348-0x348.7 (1)
0x340|                           18                  |         .      |        idx: 24 (valid) 0x349-0x349.7 (1)
     |                                               |                |    time_zone_designations[0:7]: 0x34a-0x365.7 (28)
0x340|                              4c 4d 54 00      |          LMT.  |      [0]: "LMT" time_zone_designation 0x34a-0x34d.7 (4)
0x340|                                          43 44|              CD|      [1]: "CDT" time_zone_designation 0x34e-0x351.7 (4)
0x350|54 00                                          |T.              |
0x350|      43 53 54 00                              |  CST.          |      [2]: "CST" time_zone_designation 0x352-0x355.7 (4)
0x350|                  43 57 54 00                  |      CWT.      |      [3]: "CWT" time_zone_designation 0x356-0x359.7 (4)
0x350|                              43 50 54 00      |          CPT.  |      [4]: "CPT" time_zone_designation 0x35a-0x35d.7 (4)
0x350|                                          45 53|              ES|      [5]: "EST" time_zone_designation 0x35e-0x361.7 (4)
0x360|54 00                                          |T.              |
0x360|      45 44 54 00                              |  EDT.          |      [6]: "EDT" time_zone_designation 0x362-0x365.7 (4)
     |                                               |                |    leap_second_records[0:27]: 0x366-0x43d.7 (216)
     |                                               |                |      [0]{}: leap_second_record 0x366-0x36d.7 (8)
0x360|                  04 b2 58 00                  |      ..X.      |        occur: "1972-07-01T00:00:00Z" (78796800) 0x366-0x369.7 (4)
0x360|                              00 00 00 01      |          ....  |        corr: 1 0x36a-0x36d.7 (4)
     |                                               |                |      [1]{}: leap_second_record 0x36e-0x375.7 (8)
0x360|                                          05 a4|              ..|        occur: "1973-01-01T00:00:01Z" (94694401) 0x36e-0x371.7 (4)
0x370|ec 01                                          |..              |
0x370|      00 00 00 02                              |  ....          |        corr: 2 0x372-0x375.7 (4)
     |                                               |                |      [2]{}: leap_second_record 0x376-0x37d.7 (8)
0x370|                  07 86 1f 82                  |      ....      |        occur: "1974-01-01T00:00:02Z" (126230402) 0x376-0x379.7 (4)
0x370|                              00 00 00 03      |          ....  |        corr: 3 0x37a-0x37d.7 (4)
     |                                               |                |      [3]{}: leap_second_record 0x37e-0x385.7 (8)
0x370|                                          09 67|              .g|        occur: "1975-01-01T00:00:03Z" (157766403) 0x37e-0x381.7 (4)
0x380|53 03                                          |S.              |
0x380|      00 00 00 04                              |  ....          |        corr: 4 0x382-0x385.7 (4)
     |                                               |                |      [4]{}: leap_second_record 0x386-0x38d.7 (8)
0x380|                  0b 48 86 84                  |      .H..      |        occur: "1976-01-01T00:00:04Z" (189302404) 0x386-0x389.7 (4)
0x380|                              00 00 00 05      |          ....  |        corr: 5 0x38a-0x38d.7 (4)
     |                                               |                |      [5]{}: leap_second_record 0x38e-0x395.7 (8)
0x380|                                          0d 2b|              .+|        occur: "1977-01-01T00:00:05Z" (220924805) 0x38e-0x391.7 (4)
0x390|0b 85                                          |..              |
0x390|      00 00 00 06                              |  ....          |        corr: 6 0x392-0x395.7 (4)
     |                                               |                |      [6]{}: leap_second_record 0x396-0x39d.7 (8)
0x390|                  0f 0c 3f 06                  |      ..?.      |        occur: "1978-01-01T00:00:06Z" (252460806) 0x396-0x399.7 (4)
0x390|                              00 00 00 07      |          ....  |        corr: 7 0x39a-0x39d.7 (4)
     |                                               |                |      [7]{}: leap_second_record 0x39e-0x3a5.7 (8)
0x390|                                          10 ed|              ..|        occur: "1979-01-01T00:00:07Z" (283996807) 0x39e-0x3a1.7 (4)
0x3a0|72 87                                          |r.              |
0x3a0|      00 00 00 08                              |  ....          |        corr: 8 0x3a2-0x3a5.7 (4)
     |                                               |                |      [8]{}: leap_second_record 0x3a6-0x3ad.7 (8)
0x3a0|                  12 ce a6 08                  |      ....      |        occur: "1980-01-01T00:00:08Z" (315532808) 0x3a6-0x3a9.7 (4)
0x3a0|                              00 00 00 09      |          ....  |        corr: 9 0x3aa-0x3ad.7 (4)
     |                                               |                |      [9]{}: leap_second_record 0x3ae-0x3b5.7 (8)
0x3a0|                                          15 9f|              ..|        occur: "1981-07-01T00:00:09Z" (362793609) 0x3ae-0x3b1.7 (4)
0x3b0|ca 89                                          |..              |
0x3b0|      00 00 00 0a                              |  ....          |        corr: 10 0x3b2-0x3b5.7 (4)
     |                                               |                |      [10]{}: leap_second_record 0x3b6-0x3bd.7 (8)
0x3b0|                  17 80 fe 0a                  |      ....      |        occur: "1982-07-01T00:00:10Z" (394329610) 0x3b6-0x3b9.7 (4)
0x3b0|                              00 00 00 0b      |          ....  |        corr: 11 0x3ba-0x3bd.7 (4)
     |                                               |                |      [11]{}: leap_second_record 0x3be-0x3c5.7 (8)
0x3b0|                                          19 62|              .b|        occur: "1983-07-01T00:00:11Z" (425865611) 0x3be-0x3c1.7 (4)
0x3c0|31 8b                                          |1.              |
0x3c0|      00 00 00 0c                              |  ....          |        corr: 12 0x3c2-0x3c5.7 (4)
     |                                               |                |      [12]{}: leap_second_record 0x3c6-0x3cd.7 (8)
0x3c0|                  1d 25 ea 0c                  |      .%..      |        occur: "1985-07-01T00:00:12Z" (489024012) 0x3c6-0x3c9.7 (4)
0x3c0|                              00 00 00 0d      |          ....  |        corr: 13 0x3ca-0x3cd.7 (4)
     |                                               |                |      [13]{}: leap_second_record 0x3ce-0x3d5.7 (8)
0x3c0|                                          21 da|              !.|        occur: "1988-01-01T00:00:13Z" (567993613) 0x3ce-0x3d1.7 (4)
0x3d0|e5 0d                                          |..              |
0x3d0|      00 00 00 0e                              |  ....          |        corr: 14 0x3d2-0x3d5.7 (4)
     |                                               |                |      [14]{}: leap_second_record 0x3d6-0x3dd.7 (8)
0x3d0|                  25 9e 9d 8e                  |      %...      |        occur: "1990-01-01T00:00:14Z" (631152014) 0x3d6-0x3d9.7 (4)
0x3d0|                              00 00 00 0f      |          ....  |        corr: 15 0x3da-0x3dd.7 (4)
     |                                               |                |      [15]{}: leap_second_record 0x3de-0x3e5.7 (8)
0x3d0|                                          27 7f|              '.|        occur: "1991-01-01T00:00:15Z" (662688015) 0x3de-0x3e1.7 (4)
0x3e0|d1 0f                                          |..              |
0x3e0|      00 00 00 10                              |  ....          |        corr: 16 0x3e2-0x3e5.7 (4)
     |                                               |                |      [16]{}: leap_second_record 0x3e6-0x3ed.7 (8)
0x3e0|                  2a 50 f5 90                  |      *P..      |        occur: "1992-07-01T00:00:16Z" (709948816) 0x3e6-0x3e9.7 (4)
0x3e0|                              00 00 00 11      |          ....  |        corr: 17 0x3ea-0x3ed.7 (4)
     |                                               |                |      [17]{}: leap_second_record 0x3ee-0x3f5.7 (8)
0x3e0|                                          2c 32|              ,2|        occur: "1993-07-01T00:00:17Z" (741484817) 0x3ee-0x3f1.7 (4)
0x3f0|29 11                                          |).              |
0x3f0|      00 00 00 12                              |  ....          |        corr: 18 0x3f2-0x3f5.7 (4)
     |                                               |                |      [18]{}: leap_second_record 0x3f6-0x3fd.7 (8)
0x3f0|                  2e 13 5c 92                  |      ..\.      |        occur: "1994-07-01T00:00:18Z" (773020818) 0x3f6-0x3f9.7 (4)
0x3f0|                              00 00 00 13      |          ....  |        corr: 19 0x3fa-0x3fd.7 (4)
     |                                               |                |      [19]{}: leap_second_record 0x3fe-0x405.7 (8)
0x3f0|                                          30 e7|              0.|        occur: "1996-01-01T00:00:19Z" (820454419) 0x3fe-0x401.7 (4)
0x400|24 13                                          |$.              |
0x400|      00 00 00 14                              |  ....          |        corr: 20 0x402-0x405.7 (4)
     |                                               |                |      [20]{}: leap_second_record 0x406-0x40d.7 (8)
0x400|                  33 b8 48 94                  |      3.H.      |        occur: "1997-07-01T00:00:20Z" (867715220) 0x406-0x409.7 (4)
0x400|                              00 00 00 15      |          ....  |        corr: 21 0x40a-0x40d.7 (4)
     |                                               |                |      [21]{}: leap_second_record 0x40e-0x415.7 (8)
0x400|                                          36 8c|              6.|        occur: "1999-01-01T00:00:21Z" (915148821) 0x40e-0x411.7 (4)
0x410|10 15                                          |..              |
0x410|      00 00 00 16                              |  ....          |        corr: 22 0x412-0x415.7 (4)
     |                                               |                |      [22]{}: leap_second_record 0x416-0x41d.7 (8)
0x410|                  43 b7 1b 96                  |      C...      |        occur: "2006-01-01T00:00:22Z" (1136073622) 0x416-0x419.7 (4)
0x410|                              00 00 00 17      |          ....  |        corr: 23 0x41a-0x41d.7 (4)
     |                                               |                |      [23]{}: leap_second_record 0x41e-0x425.7 (8)
0x410|                                          49 5c|              I\|        occur: "2009-01-01T00:00:23Z" (1230768023) 0x41e-0x421.7 (4)
0x420|07 97                                          |..              |
0x420|      00 00 00 18                              |  ....          |        corr: 24 0x422-0x425.7 (4)
     |                                               |                |      [24]{}: leap_second_record 0x426-0x42d.7 (8)
0x420|                  4f ef 93 18                  |      O...      |        occur: "2012-07-01T00:00:24Z" (1341100824) 0x426-0x429.7 (4)
0x420|                              00 00 00 19      |          ....  |        corr: 25 0x42a-0x42d.7 (4)
     |                                               |                |      [25]{}: leap_second_record 0x42e-0x435.7 (8)
0x420|                                          55 93|              U.|        occur: "2015-07-01T00:00:25Z" (1435708825) 0x42e-0x431.7 (4)
0x430|2d 99                                          |-.              |
0x430|      00 00 00 1a                              |  ....          |        corr: 26 0x432-0x435.7 (4)
     |                                               |                |      [26]{}: leap_second_record 0x436-0x43d.7 (8)
0x430|                  58 68 46 9a                  |      XhF.      |        occur: "2017-01-01T00:00:26Z" (1483228826) 0x436-0x439.7 (4)
0x430|                              00 00 00 1b      |          ....  |        corr: 27 0x43a-0x43d.7 (4)
     |                                               |                |    standard_wall_indicators[0:8]: 0x43e-0x445.7 (8)
0x430|                                          00   |              . |      [0]: 0 standard_wall_indicator (valid) 0x43e-0x43e.7 (1)
0x430|                                             00|               .|      [1]: 0 standard_wall_indicator (valid) 0x43f-0x43f.7 (1)
0x440|00                                             |.               |      [2]: 0 standard_wall_indicator (valid) 0x440-0x440.7 (1)
0x440|   01                                          | .              |      [3]: 1 standard_wall_indicator (valid) 0x441-0x441.7 (1)
0x440|      00                                       |  .             |      [4]: 0 standard_wall_indicator (valid) 0x442-0x442.7 (1)
0x440|         01                                    |   .            |      [5]: 1 standard_wall_indicator (valid) 0x443-0x443.7 (1)
0x440|            00                                 |    .           |      [6]: 0 standard_wall_indicator (valid) 0x444-0x444.7 (1)
0x440|               00                              |     .          |      [7]: 0 standard_wall_indicator (valid) 0x445-0x445.7 (1)
     |                                               |                |    ut_local_indicators[0:8]: 0x446-0x44d.7 (8)
0x440|                  00                           |      .         |      [0]: 0 ut_local_indicator (valid) 0x446-0x446.7 (1)
0x440|                     00                        |       .        |      [1]: 0 ut_local_indicator (valid) 0x447-0x447.7 (1)
0x440|                        00                     |        .       |      [2]: 0 ut_local_indicator (valid) 0x448-0x448.7 (1)
0x440|                           01                  |         .      |      [3]: 1 ut_local_indicator (valid) 0x449-0x449.7 (1)
0x440|                              00               |          .     |      [4]: 0 ut_local_indicator (valid) 0x44a-0x44a.7 (1)
0x440|                                 01            |           .    |      [5]: 1 ut_local_indicator (valid) 0x44b-0x44b.7 (1)
0x440|                                    00         |            .   |      [6]: 0 ut_local_indicator (valid) 0x44c-0x44c.7 (1)
0x440|                                       00      |             .  |      [7]: 0 ut_local_indicator (valid) 0x44d-0x44d.7 (1)
     |                                               |                |  v2plusheader{}: 0x44e-0x479.7 (44)
0x440|                                          54 5a|              TZ|    magic: 0x545a6966 (valid) 0x44e-0x451.7 (4)
0x450|69 66                                          |if              |
0x450|      32                                       |  2             |    ver: "2" (0x32) (valid) 0x452-0x452.7 (1)
0x450|         00 00 00 00 00 00 00 00 00 00 00 00 00|   .............|    reserved: raw bits 0x453-0x461.7 (15)
0x460|00 00                                          |..              |
0x460|      00 00 00 08                              |  ....          |    isutcnt: 8 0x462-0x465.7 (4)
0x460|                  00 00 00 08                  |      ....      |    isstdcnt: 8 0x466-0x469.7 (4)
0x460|                              00 00 00 1b      |          ....  |    leapcnt: 27 0x46a-0x46d.7 (4)
0x460|                                          00 00|              ..|    timecnt: 150 0x46e-0x471.7 (4)
0x470|00 96                                          |..              |
0x470|      00 00 00 08                              |  ....          |    typecnt: 8 0x472-0x475.7 (4)
0x470|                  00 00 00 1c                  |      ....      |    charcnt: 28 0x476-0x479.7 (4)
     |                                               |                |  v2plusdatablock{}: 0x47a-0xb5f.7 (1766)
     |                                               |                |    transition_times[0:150]: 0x47a-0x929.7 (1200)
0x470|                              ff ff ff ff 5e 03|          ....^.|      [0]: "1883-11-18T18:00:00Z" (-2717647200) transition_time 0x47a-0x481.7 (8)
0x480|fe a0                                          |..              |
0x480|      ff ff ff ff 9e a6 2c 80                  |  ......,.      |      [1]: "1918-03-31T08:00:00Z" (-1633276800) transition_time 0x482-0x489.7 (8)
0x480|                              ff ff ff ff 9f ba|          ......|      [2]: "1918-10-27T07:00:00Z" (-1615136400) transition_time 0x48a-0x491.7 (8)
0x490|f9 70                                          |.p              |
0x490|      ff ff ff ff a0 86 0e 80                  |  ........      |      [3]: "1919-03-30T08:00:00Z" (-1601827200) transition_time 0x492-0x499.7 (8)
0x490|                              ff ff ff ff a1 9a|          ......|      [4]: "1919-10-26T07:00:00Z" (-1583686800) transition_time 0x49a-0x4a1.7 (8)
0x4a0|db 70                                          |.p              |
0x4a0|      ff ff ff ff a4 73 f7 00                  |  .....s..      |      [5]: "1921-05-01T08:00:00Z" (-1535904000) transition_time 0x4a2-0x4a9.7 (8)
0x4a0|                              ff ff ff ff a5 16|          ......|      [6]: "1921-09-01T07:00:00Z" (-1525280400) transition_time 0x4aa-0x4b1.7 (8)
0x4b0|11 70                                          |.p              |
0x4b0|      ff ff ff ff ca 0d 4e 80                  |  ......N.      |      [7]: "1941-04-27T08:00:00Z" (-905097600) transition_time 0x4b2-0x4b9.7 (8)
0x4b0|                              ff ff ff ff ca d8|          ......|      [8]: "1941-09-28T07:00:00Z" (-891795600) transition_time 0x4ba-0x4c1.7 (8)
0x4c0|47 70                                          |Gp              |
0x4c0|      ff ff ff ff cb 88 fe 80                  |  ........      |      [9]: "1942-02-09T08:00:00Z" (-880214400) transition_time 0x4c2-0x4c9.7 (8)
0x4c0|                              ff ff ff ff d2 23|          .....#|      [10]: "1945-08-14T23:00:00Z" (-769395600) transition_time 0x4ca-0x4d1.7 (8)
0x4d0|f4 70                                          |.p              |
0x4d0|      ff ff ff ff d2 61 09 f0                  |  .....a..      |      [11]: "1945-09-30T07:00:00Z" (-765392400) transition_time 0x4d2-0x4d9.7 (8)
0x4d0|                              ff ff ff ff d3 75|          .....u|      [12]: "1946-04-28T06:01:00Z" (-747251940) transition_time 0x4da-0x4e1.7 (8)
0x4e0|d7 1c                                          |..              |
0x4e0|      ff ff ff ff d3 a4 09 70                  |  .......p      |      [13]: "1946-06-02T07:00:00Z" (-744224400) transition_time 0x4e2-0x4e9.7 (8)
0x4e0|                              ff ff ff ff da fe|          ......|      [14]: "1950-04-30T08:00:00Z" (-620841600) transition_time 0x4ea-0x4f1.7 (8)
0x4f0|b5 80                                          |..              |
0x4f0|      ff ff ff ff db c0 73 f0                  |  ......s.      |      [15]: "1950-09-24T07:00:00Z" (-608144400) transition_time 0x4f2-0x4f9.7 (8)
0x4f0|                              ff ff ff ff dc de|          ......|      [16]: "1951-04-29T08:00:00Z" (-589392000) transition_time 0x4fa-0x501.7 (8)
0x500|97 80                                          |..              |
0x500|      ff ff ff ff dd a9 90 70                  |  .......p      |      [17]: "1951-09-30T07:00:00Z" (-576090000) transition_time 0x502-0x509.7 (8)
0x500|                              ff ff ff ff de be|          ......|      [18]: "1952-04-27T08:00:00Z" (-557942400) transition_time 0x50a-0x511.7 (8)
0x510|79 80                                          |y.              |
0x510|      ff ff ff ff df 89 72 70                  |  ......rp      |      [19]: "1952-09-28T07:00:00Z" (-544640400) transition_time 0x512-0x519.7 (8)
0x510|                              ff ff ff ff e0 9e|          ......|      [20]: "1953-04-26T08:00:00Z" (-526492800) transition_time 0x51a-0x521.7 (8)
0x520|5b 80                                          |[.              |
0x520|      ff ff ff ff e1 69 54 70                  |  .....iTp      |      [21]: "1953-09-27T07:00:00Z" (-513190800) transition_time 0x522-0x529.7 (8)
0x520|                              ff ff ff ff e2 7e|          .....~|      [22]: "1954-04-25T08:00:00Z" (-495043200) transition_time 0x52a-0x531.7 (8)
0x530|3d 80                                          |=.              |
0x530|      ff ff ff ff e3 49 36 70                  |  .....I6p      |      [23]: "1954-09-26T07:00:00Z" (-481741200) transition_time 0x532-0x539.7 (8)
0x530|                              ff ff ff ff e4 5e|          .....^|      [24]: "1955-04-24T08:00:00Z" (-463593600) transition_time 0x53a-0x541.7 (8)
0x540|1f 80                                          |..              |
0x540|      ff ff ff ff e5 29 18 70                  |  .....).p      |      [25]: "1955-09-25T07:00:00Z" (-450291600) transition_time 0x542-0x549.7 (8)
0x540|                              ff ff ff ff e6 47|          .....G|      [26]: "1956-04-29T08:00:00Z" (-431539200) transition_time 0x54a-0x551.7 (8)
0x550|3c 00                                          |<.              |
0x550|      ff ff ff ff e7 37 1e f0                  |  .....7..      |      [27]: "1956-10-28T07:00:00Z" (-415818000) transition_time 0x552-0x559.7 (8)
0x550|                              ff ff ff ff e8 27|          .....'|      [28]: "1957-04-28T08:00:00Z" (-400089600) transition_time 0x55a-0x561.7 (8)
0x560|1e 00                                          |..              |
0x560|      ff ff ff ff e9 17 00 f0                  |  ........      |      [29]: "1957-10-27T07:00:00Z" (-384368400) transition_time 0x562-0x569.7 (8)
0x560|                              ff ff ff ff ea 07|          ......|      [30]: "1958-04-27T08:00:00Z" (-368640000) transition_time 0x56a-0x571.7 (8)
0x570|00 00                                          |..              |
0x570|      ff ff ff ff ea f6 e2 f0                  |  ........      |      [31]: "1958-10-26T07:00:00Z" (-352918800) transition_time 0x572-0x579.7 (8)
0x570|                              ff ff ff ff eb e6|          ......|      [32]: "1959-04-26T08:00:00Z" (-337190400) transition_time 0x57a-0x581.7 (8)
0x580|e2 00                                          |..              |
0x580|      ff ff ff ff ec d6 c4 f0                  |  ........      |      [33]: "1959-10-25T07:00:00Z" (-321469200) transition_time 0x582-0x589.7 (8)
0x580|                              ff ff ff ff ed c6|          ......|      [34]: "1960-04-24T08:00:00Z" (-305740800) transition_time 0x58a-0x591.7 (8)
0x590|c4 00                                          |..              |
0x590|      ff ff ff ff ee bf e1 70                  |  .......p      |      [35]: "1960-10-30T07:00:00Z" (-289414800) transition_time 0x592-0x599.7 (8)
0x590|                              ff ff ff ff ef af|          ......|      [36]: "1961-04-30T08:00:00Z" (-273686400) transition_time 0x59a-0x5a1.7 (8)
0x5a0|e0 80                                          |..              |
0x5a0|      ff ff ff ff f0 1e 90 70                  |  .......p      |      [37]: "1961-07-23T07:00:00Z" (-266432400) transition_time 0x5a2-0x5a9.7 (8)
0x5a0|                              ff ff ff ff fc d8|          ......|      [38]: "1968-04-28T07:00:00Z" (-52938000) transition_time 0x5aa-0x5b1.7 (8)
0x5b0|3a f0                                          |:.              |
0x5b0|      ff ff ff ff fd c8 1d e0                  |  ........      |      [39]: "1968-10-27T06:00:00Z" (-37216800) transition_time 0x5b2-0x5b9.7 (8)
0x5b0|                              ff ff ff ff fe b8|          ......|      [40]: "1969-04-27T07:00:00Z" (-21488400) transition_time 0x5ba-0x5c1.7 (8)
0x5c0|1c f0                                          |..              |
0x5c0|      ff ff ff ff ff a7 ff e0                  |  ........      |      [41]: "1969-10-26T06:00:00Z" (-5767200) transition_time 0x5c2-0x5c9.7 (8)
0x5c0|                              00 00 00 00 00 97|          ......|      [42]: "1970-04-26T07:00:00Z" (9961200) transition_time 0x5ca-0x5d1.7 (8)
0x5d0|fe f0                                          |..              |
0x5d0|      00 00 00 00 01 87 e1 e0                  |  ........      |      [43]: "1970-10-25T06:00:00Z" (25682400) transition_time 0x5d2-0x5d9.7 (8)
0x5d0|                              00 00 00 00 02 77|          .....w|      [44]: "1971-04-25T07:00:00Z" (41410800) transition_time 0x5da-0x5e1.7 (8)
0x5e0|e0 f0                                          |..              |
0x5e0|      00 00 00 00 03 70 fe 60                  |  .....p.`      |      [45]: "1971-10-31T06:00:00Z" (57736800) transition_time 0x5e2-0x5e9.7 (8)
0x5e0|                              00 00 00 00 04 60|          .....`|      [46]: "1972-04-30T07:00:00Z" (73465200) transition_time 0x5ea-0x5f1.7 (8)
0x5f0|fd 70                                          |.p              |
0x5f0|      00 00 00 00 05 50 e0 61                  |  .....P.a      |      [47]: "1972-10-29T06:00:01Z" (89186401) transition_time 0x5f2-0x5f9.7 (8)
0x5f0|                              00 00 00 00 06 40|          .....@|      [48]: "1973-04-29T07:00:02Z" (104914802) transition_time 0x5fa-0x601.7 (8)
0x600|df 72                                          |.r              |
0x600|      00 00 00 00 07 30 c2 62                  |  .....0.b      |      [49]: "1973-10-28T06:00:02Z" (120636002) transition_time 0x602-0x609.7 (8)
0x600|                              00 00 00 00 07 8d|          ......|      [50]: "1974-01-06T07:00:03Z" (126687603) transition_time 0x60a-0x611.7 (8)
0x610|19 73                                          |.s              |
0x610|      00 00 00 00 09 10 b2 73                  |  .......s      |      [51]: "1974-10-27T07:00:03Z" (152089203) transition_time 0x612-0x619.7 (8)
0x610|                              00 00 00 00 09 ad|          ......|      [52]: "1975-02-23T07:00:04Z" (162370804) transition_time 0x61a-0x621.7 (8)
0x620|94 f4                                          |..              |
0x620|      00 00 00 00 0a f0 86 64                  |  .......d      |      [53]: "1975-10-26T06:00:04Z" (183535204) transition_time 0x622-0x629.7 (8)
0x620|                              00 00 00 00 0b e0|          ......|      [54]: "1976-04-25T07:00:05Z" (199263605) transition_time 0x62a-0x631.7 (8)
0x630|85 75                                          |.u              |
0x630|      00 00 00 00 0c d9 a2 e5                  |  ........      |      [55]: "1976-10-31T06:00:05Z" (215589605) transition_time 0x632-0x639.7 (8)
0x630|                              00 00 00 00 0d c0|          ......|      [56]: "1977-04-24T07:00:06Z" (230713206) transition_time 0x63a-0x641.7 (8)
0x640|67 76                                          |gv              |
0x640|      00 00 00 00 0e b9 84 e6                  |  ........      |      [57]: "1977-10-30T06:00:06Z" (247039206) transition_time 0x642-0x649.7 (8)
0x640|                              00 00 00 00 0f a9|          ......|      [58]: "1978-04-30T07:00:07Z" (262767607) transition_time 0x64a-0x651.7 (8)
0x650|83 f7                                          |..              |
0x650|      00 00 00 00 10 99 66 e7                  |  ......f.      |      [59]: "1978-10-29T06:00:07Z" (278488807) transition_time 0x652-0x659.7 (8)
0x650|                              00 00 00 00 11 89|          ......|      [60]: "1979-04-29T07:00:08Z" (294217208) transition_time 0x65a-0x661.7 (8)
0x660|65 f8                                          |e.              |
0x660|      00 00 00 00 12 79 48 e8                  |  .....yH.      |      [61]: "1979-10-28T06:00:08Z" (309938408) transition_time 0x662-0x669.7 (8)
0x660|                              00 00 00 00 13 69|          .....i|      [62]: "1980-04-27T07:00:09Z" (325666809) transition_time 0x66a-0x671.7 (8)
0x670|47 f9                                          |G.              |
0x670|      00 00 00 00 14 59 2a e9                  |  .....Y*.      |      [63]: "1980-10-26T06:00:09Z" (341388009) transition_time 0x672-0x679.7 (8)
0x670|                              00 00 00 00 15 49|          .....I|      [64]: "1981-04-26T07:00:09Z" (357116409) transition_time 0x67a-0x681.7 (8)
0x680|29 f9                                          |).              |
0x680|      00 00 00 00 16 39 0c ea                  |  .....9..      |      [65]: "1981-10-25T06:00:10Z" (372837610) transition_time 0x682-0x689.7 (8)
0x680|                              00 00 00 00 17 29|          .....)|      [66]: "1982-04-25T07:00:10Z" (388566010) transition_time 0x68a-0x691.7 (8)
0x690|0b fa                                          |..              |
0x690|      00 00 00 00 18 22 29 6b                  |  .....")k      |      [67]: "1982-10-31T06:00:11Z" (404892011) transition_time 0x692-0x699.7 (8)
0x690|                              00 00 00 00 19 08|          ......|      [68]: "1983-04-24T07:00:11Z" (420015611) transition_time 0x69a-0x6a1.7 (8)
0x6a0|ed fb                                          |..              |
0x6a0|      00 00 00 00 1a 02 0b 6c                  |  .......l      |      [69]: "1983-10-30T06:00:12Z" (436341612) transition_time 0x6a2-0x6a9.7 (8)
0x6a0|                              00 00 00 00 1a f2|          ......|      [70]: "1984-04-29T07:00:12Z" (452070012) transition_time 0x6aa-0x6b1.7 (8)
0x6b0|0a 7c                                          |.|              |
0x6b0|      00 00 00 00 1b e1 ed 6c                  |  .......l      |      [71]: "1984-10-28T06:00:12Z" (467791212) transition_time 0x6b2-0x6b9.7 (8)
0x6b0|                              00 00 00 00 1c d1|          ......|      [72]: "1985-04-28T07:00:12Z" (483519612) transition_time 0x6ba-0x6c1.7 (8)
0x6c0|ec 7c                                          |.|              |
0x6c0|      00 00 00 00 1d c1 cf 6d                  |  .......m      |      [73]: "1985-10-27T06:00:13Z" (499240813) transition_time 0x6c2-0x6c9.7 (8)
0x6c0|                              00 00 00 00 1e b1|          ......|      [74]: "1986-04-27T07:00:13Z" (514969213) transition_time 0x6ca-0x6d1.7 (8)
0x6d0|ce 7d                                          |.}              |
0x6d0|      00 00 00 00 1f a1 b1 6d                  |  .......m      |      [75]: "1986-10-26T06:00:13Z" (530690413) transition_time 0x6d2-0x6d9.7 (8)
0x6d0|                              00 00 00 00 20 76|          .... v|      [76]: "1987-04-05T07:00:13Z" (544604413) transition_time 0x6da-0x6e1.7 (8)
0x6e0|00 fd                                          |..              |
0x6e0|      00 00 00 00 21 81 93 6d                  |  ....!..m      |      [77]: "1987-10-25T06:00:13Z" (562140013) transition_time 0x6e2-0x6e9.7 (8)
0x6e0|                              00 00 00 00 22 55|          ...."U|      [78]: "1988-04-03T07:00:14Z" (576054014) transition_time 0x6ea-0x6f1.7 (8)
0x6f0|e2 fe                                          |..              |
0x6f0|      00 00 00 00 23 6a af ee                  |  ....#j..      |      [79]: "1988-10-30T06:00:14Z" (594194414) transition_time 0x6f2-0x6f9.7 (8)
0x6f0|                              00 00 00 00 24 35|          ....$5|      [80]: "1989-04-02T07:00:14Z" (607503614) transition_time 0x6fa-0x701.7 (8)
0x700|c4 fe                                          |..              |
0x700|      00 00 00 00 25 4a 91 ee                  |  ....%J..      |      [81]: "1989-10-29T06:00:14Z" (625644014) transition_time 0x702-0x709.7 (8)
0x700|                              00 00 00 00 26 15|          ....&.|      [82]: "1990-04-01T07:00:15Z" (638953215) transition_time 0x70a-0x711.7 (8)
0x710|a6 ff                                          |..              |
0x710|      00 00 00 00 27 2a 73 ef                  |  ....'*s.      |      [83]: "1990-10-28T06:00:15Z" (657093615) transition_time 0x712-0x719.7 (8)
0x710|                              00 00 00 00 27 fe|          ....'.|      [84]: "1991-04-07T07:00:16Z" (671007616) transition_time 0x71a-0x721.7 (8)
0x720|c3 80                                          |..              |
0x720|      00 00 00 00 29 0a 55 f0                  |  ....).U.      |      [85]: "1991-10-27T06:00:16Z" (688543216) transition_time 0x722-0x729.7 (8)
0x720|                              00 00 00 00 29 de|          ....).|      [86]: "1992-04-05T07:00:16Z" (702457216) transition_time 0x72a-0x731.7 (8)
0x730|a5 80                                          |..              |
0x730|      00 00 00 00 2a ea 37 f1                  |  ....*.7.      |      [87]: "1992-10-25T06:00:17Z" (719992817) transition_time 0x732-0x739.7 (8)
0x730|                              00 00 00 00 2b be|          ....+.|      [88]: "1993-04-04T07:00:17Z" (733906817) transition_time 0x73a-0x741.7 (8)
0x740|87 81                                          |..              |
0x740|      00 00 00 00 2c d3 54 72                  |  ....,.Tr      |      [89]: "1993-10-31T06:00:18Z" (752047218) transition_time 0x742-0x749.7 (8)
0x740|                              00 00 00 00 2d 9e|          ....-.|      [90]: "1994-04-03T07:00:18Z" (765356418) transition_time 0x74a-0x751.7 (8)
0x750|69 82                                          |i.              |
0x750|      00 00 00 00 2e b3 36 73                  |  ......6s      |      [91]: "1994-10-30T06:00:19Z" (783496819) transition_time 0x752-0x759.7 (8)
0x750|                              00 00 00 00 2f 7e|          ..../~|      [92]: "1995-04-02T07:00:19Z" (796806019) transition_time 0x75a-0x761.7 (8)
0x760|4b 83                                          |K.              |
0x760|      00 00 00 00 30 93 18 73                  |  ....0..s      |      [93]: "1995-10-29T06:00:19Z" (814946419) transition_time 0x762-0x769.7 (8)
0x760|                              00 00 00 00 31 67|          ....1g|      [94]: "1996-04-07T07:00:20Z" (828860420) transition_time 0x76a-0x771.7 (8)
0x770|68 04                                          |h.              |
0x770|      00 00 00 00 32 72 fa 74                  |  ....2r.t      |      [95]: "1996-10-27T06:00:20Z" (846396020) transition_time 0x772-0x779.7 (8)
0x770|                              00 00 00 00 33 47|          ....3G|      [96]: "1997-04-06T07:00:20Z" (860310020) transition_time 0x77a-0x781.7 (8)
0x780|4a 04                                          |J.              |
0x780|      00 00 00 00 34 52 dc 75                  |  ....4R.u      |      [97]: "1997-10-26T06:00:21Z" (877845621) transition_time 0x782-0x789.7 (8)
0x780|                              00 00 00 00 35 27|          ....5'|      [98]: "1998-04-05T07:00:21Z" (891759621) transition_time 0x78a-0x791.7 (8)
0x790|2c 05                                          |,.              |
0x790|      00 00 00 00 36 32 be 75                  |  ....62.u      |      [99]: "1998-10-25T06:00:21Z" (909295221) transition_time 0x792-0x799.7 (8)
0x790|                              00 00 00 00 37 07|          ....7.|      [100]: "1999-04-04T07:00:22Z" (923209222) transition_time 0x79a-0x7a1.7 (8)
0x7a0|0e 06                                          |..              |
0x7a0|      00 00 00 00 38 1b da f6                  |  ....8...      |      [101]: "1999-10-31T06:00:22Z" (941349622) transition_time 0x7a2-0x7a9.7 (8)
0x7a0|                              00 00 00 00 38 e6|          ....8.|      [102]: "2000-04-02T07:00:22Z" (954658822) transition_time 0x7aa-0x7b1.7 (8)
0x7b0|f0 06                                          |..              |
0x7b0|      00 00 00 00 39 fb bc f6                  |  ....9...      |      [103]: "2000-10-29T06:00:22Z" (972799222) transition_time 0x7b2-0x7b9.7 (8)
0x7b0|                              00 00 00 00 3a c6|          ....:.|      [104]: "2001-04-01T07:00:22Z" (986108422) transition_time 0x7ba-0x7c1.7 (8)
0x7c0|d2 06                                          |..              |
0x7c0|      00 00 00 00 3b db 9e f6                  |  ....;...      |      [105]: "2001-10-28T06:00:22Z" (1004248822) transition_time 0x7c2-0x7c9.7 (8)
0x7c0|                              00 00 00 00 3c af|          ....<.|      [106]: "2002-04-07T07:00:22Z" (1018162822) transition_time 0x7ca-0x7d1.7 (8)
0x7d0|ee 86                                          |..              |
0x7d0|      00 00 00 00 3d bb 80 f6                  |  ....=...      |      [107]: "2002-10-27T06:00:22Z" (1035698422) transition_time 0x7d2-0x7d9.7 (8)
0x7d0|                              00 00 00 00 3e 8f|          ....>.|      [108]: "2003-04-06T07:00:22Z" (1049612422) transition_time 0x7da-0x7e1.7 (8)
0x7e0|d0 86                                          |..              |
0x7e0|      00 00 00 00 3f 9b 62 f6                  |  ....?.b.      |      [109]: "2003-10-26T06:00:22Z" (1067148022) transition_time 0x7e2-0x7e9.7 (8)
0x7e0|                              00 00 00 00 40 6f|          ....@o|      [110]: "2004-04-04T07:00:22Z" (1081062022) transition_time 0x7ea-0x7f1.7 (8)
0x7f0|b2 86                                          |..              |
0x7f0|      00 00 00 00 41 84 7f 76                  |  ....A..v      |      [111]: "2004-10-31T06:00:22Z" (1099202422) transition_time 0x7f2-0x7f9.7 (8)
0x7f0|                              00 00 00 00 42 4f|          ....BO|      [112]: "2005-04-03T07:00:22Z" (1112511622) transition_time 0x7fa-0x801.7 (8)
0x800|94 86                                          |..              |
0x800|      00 00 00 00 43 64 61 76                  |  ....Cdav      |      [113]: "2005-10-30T06:00:22Z" (1130652022) transition_time 0x802-0x809.7 (8)
0x800|                              00 00 00 00 44 2f|          ....D/|      [114]: "2006-04-02T07:00:23Z" (1143961223) transition_time 0x80a-0x811.7 (8)
0x810|76 87                                          |v.              |
0x810|      00 00 00 00 45 44 43 77                  |  ....EDCw      |      [115]: "2006-10-29T06:00:23Z" (1162101623) transition_time 0x812-0x819.7 (8)
0x810|                              00 00 00 00 45 f3|          ....E.|      [116]: "2007-03-11T07:00:23Z" (1173596423) transition_time 0x81a-0x821.7 (8)
0x820|a9 07                                          |..              |
0x820|      00 00 00 00 47 2d 5f f7                  |  ....G-_.      |      [117]: "2007-11-04T06:00:23Z" (1194156023) transition_time 0x822-0x829.7 (8)
0x820|                              00 00 00 00 47 d3|          ....G.|      [118]: "2008-03-09T07:00:23Z" (1205046023) transition_time 0x82a-0x831.7 (8)
0x830|8b 07                                          |..              |
0x830|      00 00 00 00 49 0d 41 f7                  |  ....I.A.      |      [119]: "2008-11-02T06:00:23Z" (1225605623) transition_time 0x832-0x839.7 (8)
0x830|                              00 00 00 00 49 b3|          ....I.|      [120]: "2009-03-08T07:00:24Z" (1236495624) transition_time 0x83a-0x841.7 (8)
0x840|6d 08                                          |m.              |
0x840|      00 00 00 00 4a ed 23 f8                  |  ....J.#.      |      [121]: "2009-11-01T06:00:24Z" (1257055224) transition_time 0x842-0x849.7 (8)
0x840|                              00 00 00 00 4b 9c|          ....K.|      [122]: "2010-03-14T07:00:24Z" (1268550024) transition_time 0x84a-0x851.7 (8)
0x850|89 88                                          |..              |
0x850|      00 00 00 00 4c d6 40 78                  |  ....L.@x      |      [123]: "2010-11-07T06:00:24Z" (1289109624) transition_time 0x852-0x859.7 (8)
0x850|                              00 00 00 00 4d 7c|          ....M||      [124]: "2011-03-13T07:00:24Z" (1299999624) transition_time 0x85a-0x861.7 (8)
0x860|6b 88                                          |k.              |
0x860|      00 00 00 00 4e b6 22 78                  |  ....N."x      |      [125]: "2011-11-06T06:00:24Z" (1320559224) transition_time 0x862-0x869.7 (8)
0x860|                              00 00 00 00 4f 5c|          ....O\|      [126]: "2012-03-11T07:00:24Z" (1331449224) transition_time 0x86a-0x871.7 (8)
0x870|4d 88                                          |M.              |
0x870|      00 00 00 00 50 96 04 79                  |  ....P..y      |      [127]: "2012-11-04T06:00:25Z" (1352008825) transition_time 0x872-0x879.7 (8)
0x870|                              00 00 00 00 51 3c|          ....Q<|      [128]: "2013-03-10T07:00:25Z" (1362898825) transition_time 0x87a-0x881.7 (8)
0x880|2f 89                                          |/.              |
0x880|      00 00 00 00 52 75 e6 79                  |  ....Ru.y      |      [129]: "2013-11-03T06:00:25Z" (1383458425) transition_time 0x882-0x889.7 (8)
0x880|                              00 00 00 00 53 1c|          ....S.|      [130]: "2014-03-09T07:00:25Z" (1394348425) transition_time 0x88a-0x891.7 (8)
0x890|11 89                                          |..              |
0x890|      00 00 00 00 54 55 c8 79                  |  ....TU.y      |      [131]: "2014-11-02T06:00:25Z" (1414908025) transition_time 0x892-0x899.7 (8)
0x890|                              00 00 00 00 54 fb|          ....T.|      [132]: "2015-03-08T07:00:25Z" (1425798025) transition_time 0x89a-0x8a1.7 (8)
0x8a0|f3 89                                          |..              |
0x8a0|      00 00 00 00 56 35 aa 7a                  |  ....V5.z      |      [133]: "2015-11-01T06:00:26Z" (1446357626) transition_time 0x8a2-0x8a9.7 (8)
0x8a0|                              00 00 00 00 56 e5|          ....V.|      [134]: "2016-03-13T07:00:26Z" (1457852426) transition_time 0x8aa-0x8b1.7 (8)
0x8b0|10 0a                                          |..              |
0x8b0|      00 00 00 00 58 1e c6 fa                  |  ....X...      |      [135]: "2016-11-06T06:00:26Z" (1478412026) transition_time 0x8b2-0x8b9.7 (8)
0x8b0|                              00 00 00 00 58 c4|          ....X.|      [136]: "2017-03-12T07:00:27Z" (1489302027) transition_time 0x8ba-0x8c1.7 (8)
0x8c0|f2 0b                                          |..              |
0x8c0|      00 00 00 00 59 fe a8 fb                  |  ....Y...      |      [137]: "2017-11-05T06:00:27Z" (1509861627) transition_time 0x8c2-0x8c9.7 (8)
0x8c0|                              00 00 00 00 5a a4|          ....Z.|      [138]: "2018-03-11T07:00:27Z" (1520751627) transition_time 0x8ca-0x8d1.7 (8)
0x8d0|d4 0b                                          |..              |
0x8d0|      00 00 00 00 5b de 8a fb                  |  ....[...      |      [139]: "2018-11-04T06:00:27Z" (1541311227) transition_time 0x8d2-0x8d9.7 (8)
0x8d0|                              00 00 00 00 5c 84|          ....\.|      [140]: "2019-03-10T07:00:27Z" (1552201227) transition_time 0x8da-0x8e1.7 (8)
0x8e0|b6 0b                                          |..              |
0x8e0|      00 00 00 00 5d be 6c fb                  |  ....].l.      |      [141]: "2019-11-03T06:00:27Z" (1572760827) transition_time 0x8e2-0x8e9.7 (8)
0x8e0|                              00 00 00 00 5e 64|          ....^d|      [142]: "2020-03-08T07:00:27Z" (1583650827) transition_time 0x8ea-0x8f1.7 (8)
0x8f0|98 0b                                          |..              |
0x8f0|      00 00 00 00 5f 9e 4e fb                  |  ...._.N.      |      [143]: "2020-11-01T06:00:27Z" (1604210427) transition_time 0x8f2-0x8f9.7 (8)
0x8f0|                              00 00 00 00 60 4d|          ....`M|      [144]: "2021-03-14T07:00:27Z" (1615705227) transition_time 0x8fa-0x901.7 (8)
0x900|b4 8b                                          |..              |
0x900|      00 00 00 00 61 87 6b 7b                  |  ....a.k{      |      [145]: "2021-11-07T06:00:27Z" (1636264827) transition_time 0x902-0x909.7 (8)
0x900|                              00 00 00 00 62 2d|          ....b-|      [146]: "2022-03-13T07:00:27Z" (1647154827) transition_time 0x90a-0x911.7 (8)
0x910|96 8b                                          |..              |
0x910|      00 00 00 00 63 67 4d 7b                  |  ....cgM{      |      [147]: "2022-11-06T06:00:27Z" (1667714427) transition_time 0x912-0x919.7 (8)
0x910|                              00 00 00 00 64 0d|          ....d.|      [148]: "2023-03-12T07:00:27Z" (1678604427) transition_time 0x91a-0x921.7 (8)
0x920|78 8b                                          |x.              |
0x920|      00 00 00 00 64 9b 78 1b                  |  ....d.x.      |      [149]: "2023-06-28T00:00:27Z" (1687910427) transition_time 0x922-0x929.7 (8)
     |                                               |                |    transition_types[0:150]: 0x92a-0x9bf.7 (150)
0x920|                              03               |          .     |      [0]: 3 transition_type 0x92a-0x92a.7 (1)
0x920|                                 01            |           .    |      [1]: 1 transition_type 0x92b-0x92b.7 (1)
0x920|                                    02         |            .   |      [2]: 2 transition_type 0x92c-0x92c.7 (1)
0x920|                                       01      |             .  |      [3]: 1 transition_type 0x92d-0x92d.7 (1)
0x920|                                          02   |              . |      [4]: 2 transition_type 0x92e-0x92e.7 (1)
0x920|                                             01|               .|      [5]: 1 transition_type 0x92f-0x92f.7 (1)
0x930|02                                             |.               |      [6]: 2 transition_type 0x930-0x930.7 (1)
0x930|   01                                          | .              |      [7]: 1 transition_type 0x931-0x931.7 (1)
0x930|      02                                       |  .             |      [8]: 2 transition_type 0x932-0x932.7 (1)
0x930|         04                                    |   .            |      [9]: 4 transition_type 0x933-0x933.7 (1)
0x930|            05                                 |    .           |      [10]: 5 transition_type 0x934-0x934.7 (1)
0x930|               02                              |     .          |      [11]: 2 transition_type 0x935-0x935.7 (1)
0x930|                  01                           |      .         |      [12]: 1 transition_type 0x936-0x936.7 (1)
0x930|                     02                        |       .        |      [13]: 2 transition_type 0x937-0x937.7 (1)
0x930|                        01                     |        .       |      [14]: 1 transition_type 0x938-0x938.7 (1)
0x930|                           02                  |         .      |      [15]: 2 transition_type 0x939-0x939.7 (1)
0x930|                              01               |          .     |      [16]: 1 transition_type 0x93a-0x93a.7 (1)
0x930|                                 02            |           .    |      [17]: 2 transition_type 0x93b-0x93b.7 (1)
0x930|                                    01         |            .   |      [18]: 1 transition_type 0x93c-0x93c.7 (1)
0x930|                                       02      |             .  |      [19]: 2 transition_type 0x93d-0x93d.7 (1)
0x930|                                          01   |              . |      [20]: 1 transition_type 0x93e-0x93e.7 (1)
0x930|                                             02|               .|      [21]: 2 transition_type 0x93f-0x93f.7 (1)
0x940|01                                             |.               |      [22]: 1 transition_type 0x940-0x940.7 (1)
0x940|   02                                          | .              |      [23]: 2 transition_type 0x941-0x941.7 (1)
0x940|      01                                       |  .             |      [24]: 1 transition_type 0x942-0x942.7 (1)
0x940|         02                                    |   .            |      [25]: 2 transition_type 0x943-0x943.7 (1)
0x940|            01                                 |    .           |      [26]: 1 transition_type 0x944-0x944.7 (1)
0x940|               02                              |     .          |      [27]: 2 transition_type 0x945-0x945.7 (1)
0x940|                  01                           |      .         |      [28]: 1 transition_type 0x946-0x946.7 (1)
0x940|                     02                        |       .        |      [29]: 2 transition_type 0x947-0x947.7 (1)
0x940|                        01                     |        .       |      [30]: 1 transition_type 0x948-0x948.7 (1)
0x940|                           02                  |         .      |      [31]: 2 transition_type 0x949-0x949.7 (1)
0x940|                              01               |          .     |      [32]: 1 transition_type 0x94a-0x94a.7 (1)
0x940|                                 02            |           .    |      [33]: 2 transition_type 0x94b-0x94b.7 (1)
0x940|                                    01         |            .   |      [34]: 1 transition_type 0x94c-0x94c.7 (1)
0x940|                                       02      |             .  |      [35]: 2 transition_type 0x94d-0x94d.7 (1)
0x940|                                          01   |              . |      [36]: 1 transition_type 0x94e-0x94e.7 (1)
0x940|                                             06|               .|      [37]: 6 transition_type 0x94f-0x94f.7 (1)
0x950|07                                             |.               |      [38]: 7 transition_type 0x950-0x950.7 (1)
0x950|   06                                          | .              |      [39]: 6 transition_type 0x951-0x951.7 (1)
0x950|      07                                       |  .             |      [40]: 7 transition_type 0x952-0x952.7 (1)
0x950|         06                                    |   .            |      [41]: 6 transition_type 0x953-0x953.7 (1)
0x950|            07                                 |    .           |      [42]: 7 transition_type 0x954-0x954.7 (1)
0x950|               06                              |     .          |      [43]: 6 transition_type 0x955-0x955.7 (1)
0x950|                  07                           |      .         |      [44]: 7 transition_type 0x956-0x956.7 (1)
0x950|                     06                        |       .        |      [45]: 6 transition_type 0x957-0x957.7 (1)
0x950|                        07                     |        .       |      [46]: 7 transition_type 0x958-0x958.7 (1)
0x950|                           06                  |         .      |      [47]: 6 transition_type 0x959-0x959.7 (1)
0x950|                              07               |          .     |      [48]: 7 transition_type 0x95a-0x95a.7 (1)
0x950|                                 06            |           .    |      [49]: 6 transition_type 0x95b-0x95b.7 (1)
0x950|                                    01         |            .   |      [50]: 1 transition_type 0x95c-0x95c.7 (1)
0x950|                                       06      |             .  |      [51]: 6 transition_type 0x95d-0x95d.7 (1)
0x950|                                          07   |              . |      [52]: 7 transition_type 0x95e-0x95e.7 (1)
0x950|                                             06|               .|      [53]: 6 transition_type 0x95f-0x95f.7 (1)
0x960|07                                             |.               |      [54]: 7 transition_type 0x960-0x960.7 (1)
0x960|   06                                          | .              |      [55]: 6 transition_type 0x961-0x961.7 (1)
0x960|      07                                       |  .             |      [56]: 7 transition_type 0x962-0x962.7 (1)
0x960|         06                                    |   .            |      [57]: 6 transition_type 0x963-0x963.7 (1)
0x960|            07                                 |    .           |      [58]: 7 transition_type 0x964-0x964.7 (1)
0x960|               06                              |     .          |      [59]: 6 transition_type 0x965-0x965.7 (1)
0x960|                  07                           |      .         |      [60]: 7 transition_type 0x966-0x966.7 (1)
0x960|                     06                        |       .        |      [61]: 6 transition_type 0x967-0x967.7 (1)
0x960|                        07                     |        .       |      [62]: 7 transition_type 0x968-0x968.7 (1)
0x960|                           06                  |         .      |      [63]: 6 transition_type 0x969-0x969.7 (1)
0x960|                              07               |          .     |      [64]: 7 transition_type 0x96a-0x96a.7 (1)
0x960|                                 06            |           .    |      [65]: 6 transition_type 0x96b-0x96b.7 (1)
0x960|                                    07         |            .   |      [66]: 7 transition_type 0x96c-0x96c.7 (1)
0x960|                                       06      |             .  |      [67]: 6 transition_type 0x96d-0x96d.7 (1)
0x960|                                          07   |              . |      [68]: 7 transition_type 0x96e-0x96e.7 (1)
0x960|                                             06|               .|      [69]: 6 transition_type 0x96f-0x96f.7 (1)
0x970|07                                             |.               |      [70]: 7 transition_type 0x970-0x970.7 (1)
0x970|   06                                          | .              |      [71]: 6 transition_type 0x971-0x971.7 (1)
0x970|      07                                       |  .             |      [72]: 7 transition_type 0x972-0x972.7 (1)
0x970|         06                                    |   .            |      [73]: 6 transition_type 0x973-0x973.7 (1)
0x970|            07                                 |    .           |      [74]: 7 transition_type 0x974-0x974.7 (1)
0x970|               06                              |     .          |      [75]: 6 transition_type 0x975-0x975.7 (1)
0x970|                  07                           |      .         |      [76]: 7 transition_type 0x976-0x976.7 (1)
0x970|                     06                        |       .        |      [77]: 6 transition_type 0x977-0x977.7 (1)
0x970|                        07                     |        .       |      [78]: 7 transition_type 0x978-0x978.7 (1)
0x970|                           06                  |         .      |      [79]: 6 transition_type 0x979-0x979.7 (1)
0x970|                              07               |          .     |      [80]: 7 transition_type 0x97a-0x97a.7 (1)
0x970|                                 06            |           .    |      [81]: 6 transition_type 0x97b-0x97b.7 (1)
0x970|                                    07         |            .   |      [82]: 7 transition_type 0x97c-0x97c.7 (1)
0x970|                                       06      |             .  |      [83]: 6 transition_type 0x97d-0x97d.7 (1)
0x970|                                          07   |              . |      [84]: 7 transition_type 0x97e-0x97e.7 (1)
0x970|                                             06|               .|      [85]: 6 transition_type 0x97f-0x97f.7 (1)
0x980|07                                             |.               |      [86]: 7 transition_type 0x980-0x980.7 (1)
0x980|   06                                          | .              |      [87]: 6 transition_type 0x981-0x981.7 (1)
0x980|      07                                       |  .             |      [88]: 7 transition_type 0x982-0x982.7 (1)
0x980|         06                                    |   .            |      [89]: 6 transition_type 0x983-0x983.7 (1)
0x980|            07                                 |    .           |      [90]: 7 transition_type 0x984-0x984.7 (1)
0x980|               06                              |     .          |      [91]: 6 transition_type 0x985-0x985.7 (1)
0x980|                  07                           |      .         |      [92]: 7 transition_type 0x986-0x986.7 (1)
0x980|                     06                        |       .        |      [93]: 6 transition_type 0x987-0x987.7 (1)
0x980|                        07                     |        .       |      [94]: 7 transition_type 0x988-0x988.7 (1)
0x980|                           06                  |         .      |      [95]: 6 transition_type 0x989-0x989.7 (1)
0x980|                              07               |          .     |      [96]: 7 transition_type 0x98a-0x98a.7 (1)
0x980|                                 06            |           .    |      [97]: 6 transition_type 0x98b-0x98b.7 (1)
0x980|                                    07         |            .   |      [98]: 7 transition_type 0x98c-0x98c.7 (1)
0x980|                                       06      |             .  |      [99]: 6 transition_type 0x98d-0x98d.7 (1)
0x980|                                          07   |              . |      [100]: 7 transition_type 0x98e-0x98e.7 (1)
0x980|                                             06|               .|      [101]: 6 transition_type 0x98f-0x98f.7 (1)
0x990|07                                             |.               |      [102]: 7 transition_type 0x990-0x990.7 (1)
0x990|   06                                          | .              |      [103]: 6 transition_type 0x991-0x991.7 (1)
0x990|      07                                       |  .             |      [104]: 7 transition_type 0x992-0x992.7 (1)
0x990|         06                                    |   .            |      [105]: 6 transition_type 0x993-0x993.7 (1)
0x990|            07                                 |    .           |      [106]: 7 transition_type 0x994-0x994.7 (1)
0x990|               06                              |     .          |      [107]: 6 transition_type 0x995-0x995.7 (1)
0x990|                  07                           |      .         |      [108]: 7 transition_type 0x996-0x996.7 (1)
0x990|                     06                        |       .        |      [109]: 6 transition_type 0x997-0x997.7 (1)
0x990|                        07                     |        .       |      [110]: 7 transition_type 0x998-0x998.7 (1)
0x990|                           06                  |         .      |      [111]: 6 transition_type 0x999-0x999.7 (1)
0x990|                              07               |          .     |      [112]: 7 transition_type 0x99a-0x99a.7 (1)
0x990|                                 06            |           .    |      [113]: 6 transition_type 0x99b-0x99b.7 (1)
0x990|                                    07         |            .   |      [114]: 7 transition_type 0x99c-0x99c.7 (1)
0x990|                                       06      |             .  |      [115]: 6 transition_type 0x99d-0x99d.7 (1)
0x990|                                          07   |              . |      [116]: 7 transition_type 0x99e-0x99e.7 (1)
0x990|                                             06|               .|      [117]: 6 transition_type 0x99f-0x99f.7 (1)
0x9a0|07                                             |.               |      [118]: 7 transition_type 0x9a0-0x9a0.7 (1)
0x9a0|   06                                          | .              |      [119]: 6 transition_type 0x9a1-0x9a1.7 (1)
0x9a0|      07                                       |  .             |      [120]: 7 transition_type 0x9a2-0x9a2.7 (1)
0x9a0|         06                                    |   .            |      [121]: 6 transition_type 0x9a3-0x9a3.7 (1)
0x9a0|            07                                 |    .           |      [122]: 7 transition_type 0x9a4-0x9a4.7 (1)
0x9a0|               06                              |     .          |      [123]: 6 transition_type 0x9a5-0x9a5.7 (1)
0x9a0|                  07                           |      .         |      [124]: 7 transition_type 0x9a6-0x9a6.7 (1)
0x9a0|                     06                        |       .        |      [125]: 6 transition_type 0x9a7-0x9a7.7 (1)
0x9a0|                        07                     |        .       |      [126]: 7 transition_type 0x9a8-0x9a8.7 (1)
0x9a0|                           06                  |         .      |      [127]: 6 transition_type 0x9a9-0x9a9.7 (1)
0x9a0|                              07               |          .     |      [128]: 7 transition_type 0x9aa-0x9aa.7 (1)
0x9a0|                                 06            |           .    |      [129]: 6 transition_type 0x9ab-0x9ab.7 (1)
0x9a0|                                    07         |            .   |      [130]: 7 transition_type 0x9ac-0x9ac.7 (1)
0x9a0|                                       06      |             .  |      [131]: 6 transition_type 0x9ad-0x9ad.7 (1)
0x9a0|                                          07   |              . |      [132]: 7 transition_type 0x9ae-0x9ae.7 (1)
0x9a0|                                             06|               .|      [133]: 6 transition_type 0x9af-0x9af.7 (1)
0x9b0|07                                             |.               |      [134]: 7 transition_type 0x9b0-0x9b0.7 (1)
0x9b0|   06                                          | .              |      [135]: 6 transition_type 0x9b1-0x9b1.7 (1)
0x9b0|      07                                       |  .             |      [136]: 7 transition_type 0x9b2-0x9b2.7 (1)
0x9b0|         06                                    |   .            |      [137]: 6 transition_type 0x9b3-0x9b3.7 (1)
0x9b0|            07                                 |    .           |      [138]: 7 transition_type 0x9b4-0x9b4.7 (1)
0x9b0|               06                              |     .          |      [139]: 6 transition_type 0x9b5-0x9b5.7 (1)
0x9b0|                  07                           |      .         |      [140]: 7 transition_type 0x9b6-0x9b6.7 (1)
0x9b0|                     06                        |       .        |      [141]: 6 transition_type 0x9b7-0x9b7.7 (1)
0x9b0|                        07                     |        .       |      [142]: 7 transition_type 0x9b8-0x9b8.7 (1)
0x9b0|                           06                  |         .      |      [143]: 6 transition_type 0x9b9-0x9b9.7 (1)
0x9b0|                              07               |          .     |      [144]: 7 transition_type 0x9ba-0x9ba.7 (1)
0x9b0|                                 06            |           .    |      [145]: 6 transition_type 0x9bb-0x9bb.7 (1)
0x9b0|                                    07         |            .   |      [146]: 7 transition_type 0x9bc-0x9bc.7 (1)
0x9b0|                                       06      |             .  |      [147]: 6 transition_type 0x9bd-0x9bd.7 (1)
0x9b0|                                          07   |              . |      [148]: 7 transition_type 0x9be-0x9be.7 (1)
0x9b0|                                             07|               .|      [149]: 7 transition_type 0x9bf-0x9bf.7 (1)
     |                                               |                |    local_time_type_records[0:8]: 0x9c0-0x9ef.7 (48)
     |                                               |                |      [0]{}: local_time_type 0x9c0-0x9c5.7 (6)
0x9c0|ff ff af 9a                                    |....            |        utoff: -20582 (valid) 0x9c0-0x9c3.7 (4)
0x9c0|            00                                 |    .           |        dst: 0 (valid) 0x9c4-0x9c4.7 (1)
0x9c0|               00                              |     .          |        idx: 0 (valid) 0x9c5-0x9c5.7 (1)
     |                                               |                |      [1]{}: local_time_type 0x9c6-0x9cb.7 (6)
0x9c0|                  ff ff b9 b0                  |      ....      |        utoff: -18000 (valid) 0x9c6-0x9c9.7 (4)
0x9c0|                              01               |          .     |        dst: 1 (valid) 0x9ca-0x9ca.7 (1)
0x9c0|                                 04            |           .    |        idx: 4 (valid) 0x9cb-0x9cb.7 (1)
     |                                               |                |      [2]{}: local_time_type 0x9cc-0x9d1.7 (6)
0x9c0|                                    ff ff ab a0|            ....|        utoff: -21600 (valid) 0x9cc-0x9cf.7 (4)
0x9d0|00                                             |.               |        dst: 0 (valid) 0x9d0-0x9d0.7 (1)
0x9d0|   08                                          | .              |        idx: 8 (valid) 0x9d1-0x9d1.7 (1)
     |                                               |                |      [3]{}: local_time_type 0x9d2-0x9d7.7 (6)
0x9d0|      ff ff ab a0                              |  ....          |        utoff: -21600 (valid) 0x9d2-0x9d5.7 (4)
0x9d0|                  00                           |      .         |        dst: 0 (valid) 0x9d6-0x9d6.7 (1)
0x9d0|                     08                        |       .        |        idx: 8 (valid) 0x9d7-0x9d7.7 (1)
     |                                               |                |      [4]{}: local_time_type 0x9d8-0x9dd.7 (6)
0x9d0|                        ff ff b9 b0            |        ....    |        utoff: -18000 (valid) 0x9d8-0x9db.7 (4)
0x9d0|                                    01         |            .   |        dst: 1 (valid) 0x9dc-0x9dc.7 (1)
0x9d0|                                       0c      |             .  |        idx: 12 (valid) 0x9dd-0x9dd.7 (1)
     |                                               |                |      [5]{}: local_time_type 0x9de-0x9e3.7 (6)
0x9d0|                                          ff ff|              ..|        utoff: -18000 (valid) 0x9de-0x9e1.7 (4)
0x9e0|b9 b0                                          |..              |
0x9e0|      01                                       |  .             |        dst: 1 (valid) 0x9e2-0x9e2.7 (1)
0x9e0|         10                                    |   .            |        idx: 16 (valid) 0x9e3-0x9e3.7 (1)
     |                                               |                |      [6]{}: local_time_type 0x9e4-0x9e9.7 (6)
0x9e0|            ff ff b9 b0                        |    ....        |        utoff: -18000 (valid) 0x9e4-0x9e7.7 (4)
0x9e0|                        00                     |        .       |        dst: 0 (valid) 0x9e8-0x9e8.7 (1)
0x9e0|                           14                  |         .      |        idx: 20 (valid) 0x9e9-0x9e9.7 (1)
     |                                               |                |      [7]{}: local_time_type 0x9ea-0x9ef.7 (6)
0x9e0|                              ff ff c7 c0      |          ....  |        utoff: -14400 (valid) 0x9ea-0x9ed.7 (4)
0x9e0|                                          01   |              . |        dst: 1 (valid) 0x9ee-0x9ee.7 (1)
0x9e0|                                             18|               .|        idx: 24 (valid) 0x9ef-0x9ef.7 (1)
     |                                               |                |    time_zone_designations[0:7]: 0x9f0-0xa0b.7 (28)
0x9f0|4c 4d 54 00                                    |LMT.            |      [0]: "LMT" time_zone_designation 0x9f0-0x9f3.7 (4)
0x9f0|            43 44 54 00                        |    CDT.        |      [1]: "CDT" time_zone_designation 0x9f4-0x9f7.7 (4)
0x9f0|                        43 53 54 00            |        CST.    |      [2]: "CST" time_zone_designation 0x9f8-0x9fb.7 (4)
0x9f0|                                    43 57 54 00|            CWT.|      [3]: "CWT" time_zone_designation 0x9fc-0x9ff.7 (4)
0xa00|43 50 54 00                                    |CPT.            |      [4]: "CPT" time_zone_designation 0xa00-0xa03.7 (4)
0xa00|            45 53 54 00                        |    EST.        |      [5]: "EST" time_zone_designation 0xa04-0xa07.7 (4)
0xa00|                        45 44 54 00            |        EDT.    |      [6]: "EDT" time_zone_designation 0xa08-0xa0b.7 (4)
     |                                               |                |    leap_second_records[0:27]: 0xa0c-0xb4f.7 (324)
     |                                               |                |      [0]{}: leap_second_record 0xa0c-0xa17.7 (12)
0xa00|                                    00 00 00 00|            ....|        occur: "1972-07-01T00:00:00Z" (78796800) 0xa0c-0xa13.7 (8)
0xa10|04 b2 58 00                                    |..X.            |
0xa10|            00 00 00 01                        |    ....        |        corr: 1 0xa14-0xa17.7 (4)
     |                                               |                |      [1]{}: leap_second_record 0xa18-0xa23.7 (12)
0xa10|                        00 00 00 00 05 a4 ec 01|        ........|        occur: "1973-01-01T00:00:01Z" (94694401) 0xa18-0xa1f.7 (8)
0xa20|00 00 00 02                                    |....            |        corr: 2 0xa20-0xa23.7 (4)
     |                                               |                |      [2]{}: leap_second_record 0xa24-0xa2f.7 (12)
0xa20|            00 00 00 00 07 86 1f 82            |    ........    |        occur: "1974-01-01T00:00:02Z" (126230402) 0xa24-0xa2b.7 (8)
0xa20|                                    00 00 00 03|            ....|        corr: 3 0xa2c-0xa2f.7 (4)
     |                                               |                |      [3]{}: leap_second_record 0xa30-0xa3b.7 (12)
0xa30|00 00 00 00 09 67 53 03                        |.....gS.        |        occur: "1975-01-01T00:00:03Z" (157766403) 0xa30-0xa37.7 (8)
0xa30|                        00 00 00 04            |        ....    |        corr: 4 0xa38-0xa3b.7 (4)
     |                                               |                |      [4]{}: leap_second_record 0xa3c-0xa47.7 (12)
0xa30|                                    00 00 00 00|            ....|        occur: "1976-01-01T00:00:04Z" (189302404) 0xa3c-0xa43.7 (8)
0xa40|0b 48 86 84                                    |.H..            |
0xa40|            00 00 00 05                        |    ....        |        corr: 5 0xa44-0xa47.7 (4)
     |                                               |                |      [5]{}: leap_second_record 0xa48-0xa53.7 (12)
0xa40|                        00 00 00 00 0d 2b 0b 85|        .....+..|        occur: "1977-01-01T00:00:05Z" (220924805) 0xa48-0xa4f.7 (8)
0xa50|00 00 00 06                                    |....            |        corr: 6 0xa50-0xa53.7 (4)
     |                                               |                |      [6]{}: leap_second_record 0xa54-0xa5f.7 (12)
0xa50|            00 00 00 00 0f 0c 3f 06            |    ......?.    |        occur: "1978-01-01T00:00:06Z" (252460806) 0xa54-0xa5b.7 (8)
0xa50|                                    00 00 00 07|            ....|        corr: 7 0xa5c-0xa5f.7 (4)
     |                                               |                |      [7]{}: leap_second_record 0xa60-0xa6b.7 (12)
0xa60|00 00 00 00 10 ed 72 87                        |......r.        |        occur: "1979-01-01T00:00:07Z" (283996807) 0xa60-0xa67.7 (8)
0xa60|                        00 00 00 08            |        ....    |        corr: 8 0xa68-0xa6b.7 (4)
     |                                               |                |      [8]{}: leap_second_record 0xa6c-0xa77.7 (12)
0xa60|                                    00 00 00 00|            ....|        occur: "1980-01-01T00:00:08Z" (315532808) 0xa6c-0xa73.7 (8)
0xa70|12 ce a6 08                                    |....            |
0xa70|            00 00 00 09                        |    ....        |        corr: 9 0xa74-0xa77.7 (4)
     |                                               |                |      [9]{}: leap_second_record 0xa78-0xa83.7 (12)
0xa70|                        00 00 00 00 15 9f ca 89|        ........|        occur: "1981-07-01T00:00:09Z" (362793609) 0xa78-0xa7f.7 (8)
0xa80|00 00 00 0a                                    |....            |        corr: 10 0xa80-0xa83.7 (4)
     |                                               |                |      [10]{}: leap_second_record 0xa84-0xa8f.7 (12)
0xa80|            00 00 00 00 17 80 fe 0a            |    ........    |        occur: "1982-07-01T00:00:10Z" (394329610) 0xa84-0xa8b.7 (8)
0xa80|                                    00 00 00 0b|            ....|        corr: 11 0xa8c-0xa8f.7 (4)
     |                                               |                |      [11]{}: leap_second_record 0xa90-0xa9b.7 (12)
0xa90|00 00 00 00 19 62 31 8b                        |.....b1.        |        occur: "1983-07-01T00:00:11Z" (425865611) 0xa90-0xa97.7 (8)
0xa90|                        00 00 00 0c            |        ....    |        corr: 12 0xa98-0xa9b.7 (4)
     |                                               |                |      [12]{}: leap_second_record 0xa9c-0xaa7.7 (12)
0xa90|                                    00 00 00 00|            ....|        occur: "1985-07-01T00:00:12Z" (489024012) 0xa9c-0xaa3.7 (8)
0xaa0|1d 25 ea 0c                                    |.%..            |
0xaa0|            00 00 00 0d                        |    ....        |        corr: 13 0xaa4-0xaa7.7 (4)
     |                                               |                |      [13]{}: leap_second_record 0xaa8-0xab3.7 (12)
0xaa0|                        00 00 00 00 21 da e5 0d|        ....!...|        occur: "1988-01-01T00:00:13Z" (567993613) 0xaa8-0xaaf.7 (8)
0xab0|00 00 00 0e                                    |....            |        corr: 14 0xab0-0xab3.7 (4)
     |                                               |                |      [14]{}: leap_second_record 0xab4-0xabf.7 (12)
0xab0|            00 00 00 00 25 9e 9d 8e            |    ....%...    |        occur: "1990-01-01T00:00:14Z" (631152014) 0xab4-0xabb.7 (8)
0xab0|                                    00 00 00 0f|            ....|        corr: 15 0xabc-0xabf.7 (4)
     |                                               |                |      [15]{}: leap_second_record 0xac0-0xacb.7 (12)
0xac0|00 00 00 00 27 7f d1 0f                        |....'...        |        occur: "1991-01-01T00:00:15Z" (662688015) 0xac0-0xac7.7 (8)
0xac0|                        00 00 00 10            |        ....    |        corr: 16 0xac8-0xacb.7 (4)
     |                                               |                |      [16]{}: leap_second_record 0xacc-0xad7.7 (12)
0xac0|                                    00 00 00 00|            ....|        occur: "1992-07-01T00:00:16Z" (709948816) 0xacc-0xad3.7 (8)
0xad0|2a 50 f5 90                                    |*P..            |
0xad0|            00 00 00 11                        |    ....        |        corr: 17 0xad4-0xad7.7 (4)
     |                                               |                |      [17]{}: leap_second_record 0xad8-0xae3.7 (12)
0xad0|                        00 00 00 00 2c 32 29 11|        ....,2).|        occur: "1993-07-01T00:00:17Z" (741484817) 0xad8-0xadf.7 (8)
0xae0|00 00 00 12                                    |....            |        corr: 18 0xae0-0xae3.7 (4)
     |                                               |                |      [18]{}: leap_second_record 0xae4-0xaef.7 (12)
0xae0|            00 00 00 00 2e 13 5c 92            |    ......\.    |        occur: "1994-07-01T00:00:18Z" (773020818) 0xae4-0xaeb.7 (8)
0xae0|                                    00 00 00 13|            ....|        corr: 19 0xaec-0xaef.7 (4)
     |                                               |                |      [19]{}: leap_second_record 0xaf0-0xafb.7 (12)
0xaf0|00 00 00 00 30 e7 24 13                        |....0.$.        |        occur: "1996-01-01T00:00:19Z" (820454419) 0xaf0-0xaf7.7 (8)
0xaf0|                        00 00 00 14            |        ....    |        corr: 20 0xaf8-0xafb.7 (4)
     |                                               |                |      [20]{}: leap_second_record 0xafc-0xb07.7 (12)
0xaf0|                                    00 00 00 00|            ....|        occur: "1997-07-01T00:00:20Z" (867715220) 0xafc-0xb03.7 (8)
0xb00|33 b8 48 94                                    |3.H.            |
0xb00|            00 00 00 15                        |    ....        |        corr: 21 0xb04-0xb07.7 (4)
     |                                               |                |      [21]{}: leap_second_record 0xb08-0xb13.7 (12)
0xb00|                        00 00 00 00 36 8c 10 15|        ....6...|        occur: "1999-01-01T00:00:21Z" (915148821) 0xb08-0xb0f.7 (8)
0xb10|00 00 00 16                                    |....            |        corr: 22 0xb10-0xb13.7 (4)
     |                                               |                |      [22]{}: leap_second_record 0xb14-0xb1f.7 (12)
0xb10|            00 00 00 00 43 b7 1b 96            |    ....C...    |        occur: "2006-01-01T00:00:22Z" (1136073622) 0xb14-0xb1b.7 (8)
0xb10|                                    00 00 00 17|            ....|        corr: 23 0xb1c-0xb1f.7 (4)
     |                                               |                |      [23]{}: leap_second_record 0xb20-0xb2b.7 (12)
0xb20|00 00 00 00 49 5c 07 97                        |....I\..        |        occur: "2009-01-01T00:00:23Z" (1230768023) 0xb20-0xb27.7 (8)
0xb20|                        00 00 00 18            |        ....    |        corr: 24 0xb28-0xb2b.7 (4)
     |                                               |                |      [24]{}: leap_second_record 0xb2c-0xb37.7 (12)
0xb20|                                    00 00 00 00|            ....|        occur: "2012-07-01T00:00:24Z" (1341100824) 0xb2c-0xb33.7 (8)
0xb30|4f ef 93 18                                    |O...            |
0xb30|            00 00 00 19                        |    ....        |        corr: 25 0xb34-0xb37.7 (4)
     |                                               |                |      [25]{}: leap_second_record 0xb38-0xb43.7 (12)
0xb30|                        00 00 00 00 55 93 2d 99|        ....U.-.|        occur: "2015-07-01T00:00:25Z" (1435708825) 0xb38-0xb3f.7 (8)
0xb40|00 00 00 1a                                    |....            |        corr: 26 0xb40-0xb43.7 (4)
     |                                               |                |      [26]{}: leap_second_record 0xb44-0xb4f.7 (12)
0xb40|            00 00 00 00 58 68 46 9a            |    ....XhF.    |        occur: "2017-01-01T00:00:26Z" (1483228826) 0xb44-0xb4b.7 (8)
0xb40|                                    00 00 00 1b|            ....|        corr: 27 0xb4c-0xb4f.7 (4)
     |                                               |                |    standard_wall_indicators[0:8]: 0xb50-0xb57.7 (8)
0xb50|00                                             |.               |      [0]: 0 standard_wall_indicator (valid) 0xb50-0xb50.7 (1)
0xb50|   00                                          | .              |      [1]: 0 standard_wall_indicator (valid) 0xb51-0xb51.7 (1)
0xb50|      00                                       |  .             |      [2]: 0 standard_wall_indicator (valid) 0xb52-0xb52.7 (1)
0xb50|         01                                    |   .            |      [3]: 1 standard_wall_indicator (valid) 0xb53-0xb53.7 (1)
0xb50|            00                                 |    .           |      [4]: 0 standard_wall_indicator (valid) 0xb54-0xb54.7 (1)
0xb50|               01                              |     .          |      [5]: 1 standard_wall_indicator (valid) 0xb55-0xb55.7 (1)
0xb50|                  00                           |      .         |      [6]: 0 standard_wall_indicator (valid) 0xb56-0xb56.7 (1)
0xb50|                     00                        |       .        |      [7]: 0 standard_wall_indicator (valid) 0xb57-0xb57.7 (1)
     |                                               |                |    ut_local_indicators[0:8]: 0xb58-0xb5f.7 (8)
0xb50|                        00                     |        .       |      [0]: 0 ut_local_indicator (valid) 0xb58-0xb58.7 (1)
0xb50|                           00                  |         .      |      [1]: 0 ut_local_indicator (valid) 0xb59-0xb59.7 (1)
0xb50|                              00               |          .     |      [2]: 0 ut_local_indicator (valid) 0xb5a-0xb5a.7 (1)
0xb50|                                 01            |           .    |      [3]: 1 ut_local_indicator (valid) 0xb5b-0xb5b.7 (1)
0xb50|                                    00         |            .   |      [4]: 0 ut_local_indicator (valid) 0xb5c-0xb5c.7 (1)
0xb50|                                       01      |             .  |      [5]: 1 ut_local_indicator (valid) 0xb5d-0xb5d.7 (1)
0xb50|                                          00   |              . |      [6]: 0 ut_local_indicator (valid) 0xb5e-0xb5e.7 (1)
0xb50|                                             00|               .|      [7]: 0 ut_local_indicator (valid) 0xb5f-0xb5f.7 (1)
     |                                               |                |  footer{}: 0xb60-0xb61.7 (2)
0xb60|0a                                             |.               |    nl1: 10 (valid) 0xb60-0xb60.7 (1)
     |                                               |                |    tz_string: "" 0xb61-NA (0)
0xb60|   0a|                                         | .|             |    nl2: 10 (valid) 0xb61-0xb61.7 (1)
