$ fq -d tzif dv Macau
     |00 01 02 03 04 05 06 07 08 09 0a 0b 0c 0d 0e 0f|0123456789abcdef|.{}: Macau (tzif) 0x0-0x6ef.7 (1776)
     |                                               |                |  v1header{}: 0x0-0x2b.7 (44)
0x000|54 5a 69 66                                    |TZif            |    magic: 0x545a6966 (valid) 0x0-0x3.7 (4)
0x000|            32                                 |    2           |    ver: "2" (0x32) (valid) 0x4-0x4.7 (1)
0x000|               00 00 00 00 00 00 00 00 00 00 00|     ...........|    reserved: raw bits 0x5-0x13.7 (15)
0x010|00 00 00 00                                    |....            |
0x010|            00 00 00 00                        |    ....        |    isutcnt: 0 0x14-0x17.7 (4)
0x010|                        00 00 00 07            |        ....    |    isstdcnt: 7 0x18-0x1b.7 (4)
0x010|                                    00 00 00 1b|            ....|    leapcnt: 27 0x1c-0x1f.7 (4)
0x020|00 00 00 48                                    |...H            |    timecnt: 72 0x20-0x23.7 (4)
0x020|            00 00 00 07                        |    ....        |    typecnt: 7 0x24-0x27.7 (4)
0x020|                        00 00 00 14            |        ....    |    charcnt: 20 0x28-0x2b.7 (4)
     |                                               |                |  v1datablock{}: 0x2c-0x2b0.7 (645)
     |                                               |                |    transition_times[0:72]: 0x2c-0x14b.7 (288)
0x020|                                    85 69 5b 8e|            .i[.|      [0]: "1904-10-29T16:25:50Z" (-2056692850) transition_time 0x2c-0x2f.7 (4)
0x030|cb 47 75 f0                                    |.Gu.            |      [1]: "1941-12-21T15:00:00Z" (-884509200) transition_time 0x30-0x33.7 (4)
0x030|            cb f2 ca e0                        |    ....        |      [2]: "1942-04-30T14:00:00Z" (-873280800) transition_time 0x34-0x37.7 (4)
0x030|                        cc fb ba 50            |        ...P    |      [3]: "1942-11-17T13:00:00Z" (-855918000) transition_time 0x38-0x3b.7 (4)
0x030|                                    cd d3 fe 60|            ...`|      [4]: "1943-04-30T14:00:00Z" (-841744800) transition_time 0x3c-0x3f.7 (4)
0x040|ce 9d a5 d0                                    |....            |      [5]: "1943-09-30T13:00:00Z" (-828529200) transition_time 0x40-0x43.7 (4)
0x040|            d2 61 7a 70                        |    .azp        |      [6]: "1945-09-30T15:00:00Z" (-765363600) transition_time 0x44-0x47.7 (4)
0x040|                        d3 78 f8 70            |        .x.p    |      [7]: "1946-04-30T15:00:00Z" (-747046800) transition_time 0x48-0x4b.7 (4)
0x040|                                    d4 42 ad f0|            .B..|      [8]: "1946-09-30T15:00:00Z" (-733827600) transition_time 0x4c-0x4f.7 (4)
0x050|d5 4b ab 70                                    |.K.p            |      [9]: "1947-04-19T15:00:00Z" (-716461200) transition_time 0x50-0x53.7 (4)
0x050|            d6 74 4c f0                        |    .tL.        |      [10]: "1947-11-30T15:00:00Z" (-697021200) transition_time 0x54-0x57.7 (4)
0x050|                        d7 3f 53 f0            |        .?S.    |      [11]: "1948-05-02T15:00:00Z" (-683715600) transition_time 0x58-0x5b.7 (4)
0x050|                                    d8 2f 44 f0|            ./D.|      [12]: "1948-10-31T15:00:00Z" (-667990800) transition_time 0x5c-0x5f.7 (4)
0x060|d8 f8 fa 70                                    |...p            |      [13]: "1949-04-02T15:00:00Z" (-654771600) transition_time 0x60-0x63.7 (4)
0x060|            da 0d d5 70                        |    ...p        |      [14]: "1949-10-29T15:00:00Z" (-636627600) transition_time 0x64-0x67.7 (4)
0x060|                        da d8 dc 70            |        ...p    |      [15]: "1950-04-01T15:00:00Z" (-623322000) transition_time 0x68-0x6b.7 (4)
0x060|                                    db ed b7 70|            ...p|      [16]: "1950-10-28T15:00:00Z" (-605178000) transition_time 0x6c-0x6f.7 (4)
0x070|dc b8 be 70                                    |...p            |      [17]: "1951-03-31T15:00:00Z" (-591872400) transition_time 0x70-0x73.7 (4)
0x070|            dd ce ea f0                        |    ....        |      [18]: "1951-10-28T15:00:00Z" (-573642000) transition_time 0x74-0x77.7 (4)
0x070|                        de a1 da f0            |        ....    |      [19]: "1952-04-05T15:00:00Z" (-559818000) transition_time 0x78-0x7b.7 (4)
0x070|                                    df b6 b5 f0|            ....|      [20]: "1952-11-01T15:00:00Z" (-541674000) transition_time 0x7c-0x7f.7 (4)
0x080|e0 81 bc f0                                    |....            |      [21]: "1953-04-04T15:00:00Z" (-528368400) transition_time 0x80-0x83.7 (4)
0x080|            e1 96 97 f0                        |    ....        |      [22]: "1953-10-31T15:00:00Z" (-510224400) transition_time 0x84-0x87.7 (4)
0x080|                        e2 4f 29 f0            |        .O).    |      [23]: "1954-03-20T15:00:00Z" (-498128400) transition_time 0x88-0x8b.7 (4)
0x080|                                    e3 76 79 f0|            .vy.|      [24]: "1954-10-30T15:00:00Z" (-478774800) transition_time 0x8c-0x8f.7 (4)
0x090|e4 2f 0b f0                                    |./..            |      [25]: "1955-03-19T15:00:00Z" (-466678800) transition_time 0x90-0x93.7 (4)
0x090|            e5 5f 96 70                        |    ._.p        |      [26]: "1955-11-05T15:00:00Z" (-446720400) transition_time 0x94-0x97.7 (4)
0x090|                        e6 0e ed f0            |        ....    |      [27]: "1956-03-17T15:00:00Z" (-435229200) transition_time 0x98-0x9b.7 (4)
0x090|                                    e7 3f a9 a8|            .?..|      [28]: "1956-11-03T18:30:00Z" (-415258200) transition_time 0x9c-0x9f.7 (4)
0x0a0|e7 f8 49 b8                                    |..I.            |      [29]: "1957-03-23T19:30:00Z" (-403158600) transition_time 0xa0-0xa3.7 (4)
0x0a0|            e9 1f 8b a8                        |    ....        |      [30]: "1957-11-02T18:30:00Z" (-383808600) transition_time 0xa4-0xa7.7 (4)
0x0a0|                        e9 d8 2b b8            |        ..+.    |      [31]: "1958-03-22T19:30:00Z" (-371709000) transition_time 0xa8-0xab.7 (4)
0x0a0|                                    ea ff 6d a8|            ..m.|      [32]: "1958-11-01T18:30:00Z" (-352359000) transition_time 0xac-0xaf.7 (4)
0x0b0|eb b8 0d b8                                    |....            |      [33]: "1959-03-21T19:30:00Z" (-340259400) transition_time 0xb0-0xb3.7 (4)
0x0b0|            ec df 4f a8                        |    ..O.        |      [34]: "1959-10-31T18:30:00Z" (-320909400) transition_time 0xb4-0xb7.7 (4)
0x0b0|                        ed 97 ef b8            |        ....    |      [35]: "1960-03-19T19:30:00Z" (-308809800) transition_time 0xb8-0xbb.7 (4)
0x0b0|                                    ee c8 6c 28|            ..l(|      [36]: "1960-11-05T18:30:00Z" (-288855000) transition_time 0xbc-0xbf.7 (4)
0x0c0|ef 77 d1 b8                                    |.w..            |      [37]: "1961-03-18T19:30:00Z" (-277360200) transition_time 0xc0-0xc3.7 (4)
0x0c0|            f0 a8 4e 28                        |    ..N(        |      [38]: "1961-11-04T18:30:00Z" (-257405400) transition_time 0xc4-0xc7.7 (4)
0x0c0|                        f1 57 b3 b8            |        .W..    |      [39]: "1962-03-17T19:30:00Z" (-245910600) transition_time 0xc8-0xcb.7 (4)
0x0c0|                                    f2 88 30 28|            ..0(|      [40]: "1962-11-03T18:30:00Z" (-225955800) transition_time 0xcc-0xcf.7 (4)
0x0d0|f3 40 d0 38                                    |.@.8            |      [41]: "1963-03-23T19:30:00Z" (-213856200) transition_time 0xd0-0xd3.7 (4)
0x0d0|            f4 68 12 28                        |    .h.(        |      [42]: "1963-11-02T18:30:00Z" (-194506200) transition_time 0xd4-0xd7.7 (4)
0x0d0|                        f5 20 b2 38            |        . .8    |      [43]: "1964-03-21T19:30:00Z" (-182406600) transition_time 0xd8-0xdb.7 (4)
0x0d0|                                    f6 47 f4 28|            .G.(|      [44]: "1964-10-31T18:30:00Z" (-163056600) transition_time 0xdc-0xdf.7 (4)
0x0e0|f7 25 7e 38                                    |.%~8            |      [45]: "1965-04-17T19:30:00Z" (-148537800) transition_time 0xe0-0xe3.7 (4)
0x0e0|            f8 15 53 18                        |    ..S.        |      [46]: "1965-10-16T17:30:00Z" (-132820200) transition_time 0xe4-0xe7.7 (4)
0x0e0|                        f9 05 60 38            |        ..`8    |      [47]: "1966-04-16T19:30:00Z" (-117088200) transition_time 0xe8-0xeb.7 (4)
0x0e0|                                    f9 f5 35 18|            ..5.|      [48]: "1966-10-15T17:30:00Z" (-101370600) transition_time 0xec-0xef.7 (4)
0x0f0|fa e5 42 38                                    |..B8            |      [49]: "1967-04-15T19:30:00Z" (-85638600) transition_time 0xf0-0xf3.7 (4)
0x0f0|            fb de 5f a8                        |    .._.        |      [50]: "1967-10-21T18:30:00Z" (-69312600) transition_time 0xf4-0xf7.7 (4)
0x0f0|                        fc ce 5e b8            |        ..^.    |      [51]: "1968-04-20T19:30:00Z" (-53584200) transition_time 0xf8-0xfb.7 (4)
0x0f0|                                    fd be 41 a8|            ..A.|      [52]: "1968-10-19T18:30:00Z" (-37863000) transition_time 0xfc-0xff.7 (4)
0x100|fe ae 40 b8                                    |..@.            |      [53]: "1969-04-19T19:30:00Z" (-22134600) transition_time 0x100-0x103.7 (4)
0x100|            ff 9e 23 a8                        |    ..#.        |      [54]: "1969-10-18T18:30:00Z" (-6413400) transition_time 0x104-0x107.7 (4)
0x100|                        00 8e 22 b8            |        ..".    |      [55]: "1970-04-18T19:30:00Z" (9315000) transition_time 0x108-0x10b.7 (4)
0x100|                                    01 7e 05 a8|            .~..|      [56]: "1970-10-17T18:30:00Z" (25036200) transition_time 0x10c-0x10f.7 (4)
0x110|02 6e 04 b8                                    |.n..            |      [57]: "1971-04-17T19:30:00Z" (40764600) transition_time 0x110-0x113.7 (4)
0x110|            03 5d e7 a8                        |    .]..        |      [58]: "1971-10-16T18:30:00Z" (56485800) transition_time 0x114-0x117.7 (4)
0x110|                        04 4d e6 b8            |        .M..    |      [59]: "1972-04-15T19:30:00Z" (72214200) transition_time 0x118-0x11b.7 (4)
0x110|                                    05 47 04 29|            .G.)|      [60]: "1972-10-21T18:30:01Z" (88540201) transition_time 0x11c-0x11f.7 (4)
0x120|06 37 03 3a                                    |.7.:            |      [61]: "1973-04-21T19:30:02Z" (104268602) transition_time 0x120-0x123.7 (4)
0x120|            07 26 e6 2a                        |    .&.*        |      [62]: "1973-10-20T18:30:02Z" (119989802) transition_time 0x124-0x127.7 (4)
0x120|                        07 83 3d 3a            |        ..=:    |      [63]: "1973-12-29T19:30:02Z" (126041402) transition_time 0x128-0x12b.7 (4)
0x120|                                    09 06 c8 2b|            ...+|      [64]: "1974-10-19T18:30:03Z" (151439403) transition_time 0x12c-0x12f.7 (4)
0x130|09 f6 c7 3c                                    |...<            |      [65]: "1975-04-19T19:30:04Z" (167167804) transition_time 0x130-0x133.7 (4)
0x130|            0a e6 aa 2c                        |    ...,        |      [66]: "1975-10-18T18:30:04Z" (182889004) transition_time 0x134-0x137.7 (4)
0x130|                        0b d6 a9 3d            |        ...=    |      [67]: "1976-04-17T19:30:05Z" (198617405) transition_time 0x138-0x13b.7 (4)
0x130|                                    0c c6 8c 2d|            ...-|      [68]: "1976-10-16T18:30:05Z" (214338605) transition_time 0x13c-0x13f.7 (4)
0x140|11 9b 39 40                                    |..9@            |      [69]: "1979-05-12T19:30:08Z" (295385408) transition_time 0x140-0x143.7 (4)
0x140|            12 6f 6c b0                        |    .ol.        |      [70]: "1979-10-20T18:30:08Z" (309292208) transition_time 0x144-0x147.7 (4)
0x140|                        64 9b 78 1b            |        d.x.    |      [71]: "2023-06-28T00:00:27Z" (1687910427) transition_time 0x148-0x14b.7 (4)
     |                                               |                |    transition_types[0:72]: 0x14c-0x193.7 (72)
0x140|                                    01         |            .   |      [0]: 1 transition_type 0x14c-0x14c.7 (1)
0x140|                                       03      |             .  |      [1]: 3 transition_type 0x14d-0x14d.7 (1)
0x140|                                          02   |              . |      [2]: 2 transition_type 0x14e-0x14e.7 (1)
0x140|                                             03|               .|      [3]: 3 transition_type 0x14f-0x14f.7 (1)
0x150|02                                             |.               |      [4]: 2 transition_type 0x150-0x150.7 (1)
0x150|   03                                          | .              |      [5]: 3 transition_type 0x151-0x151.7 (1)
0x150|      01                                       |  .             |      [6]: 1 transition_type 0x152-0x152.7 (1)
0x150|         04                                    |   .            |      [7]: 4 transition_type 0x153-0x153.7 (1)
0x150|            05                                 |    .           |      [8]: 5 transition_type 0x154-0x154.7 (1)
0x150|               04                              |     .          |      [9]: 4 transition_type 0x155-0x155.7 (1)
0x150|                  05                           |      .         |      [10]: 5 transition_type 0x156-0x156.7 (1)
0x150|                     04                        |       .        |      [11]: 4 transition_type 0x157-0x157.7 (1)
0x150|                        05                     |        .       |      [12]: 5 transition_type 0x158-0x158.7 (1)
0x150|                           04                  |         .      |      [13]: 4 transition_type 0x159-0x159.7 (1)
0x150|                              05               |          .     |      [14]: 5 transition_type 0x15a-0x15a.7 (1)
0x150|                                 04            |           .    |      [15]: 4 transition_type 0x15b-0x15b.7 (1)
0x150|                                    05         |            .   |      [16]: 5 transition_type 0x15c-0x15c.7 (1)
0x150|                                       04      |             .  |      [17]: 4 transition_type 0x15d-0x15d.7 (1)
0x150|                                          05   |              . |      [18]: 5 transition_type 0x15e-0x15e.7 (1)
0x150|                                             04|               .|      [19]: 4 transition_type 0x15f-0x15f.7 (1)
0x160|05                                             |.               |      [20]: 5 transition_type 0x160-0x160.7 (1)
0x160|   04                                          | .              |      [21]: 4 transition_type 0x161-0x161.7 (1)
0x160|      05                                       |  .             |      [22]: 5 transition_type 0x162-0x162.7 (1)
0x160|         04                                    |   .            |      [23]: 4 transition_type 0x163-0x163.7 (1)
0x160|            05                                 |    .           |      [24]: 5 transition_type 0x164-0x164.7 (1)
0x160|               04                              |     .          |      [25]: 4 transition_type 0x165-0x165.7 (1)
0x160|                  05                           |      .         |      [26]: 5 transition_type 0x166-0x166.7 (1)
0x160|                     04                        |       .        |      [27]: 4 transition_type 0x167-0x167.7 (1)
0x160|                        01                     |        .       |      [28]: 1 transition_type 0x168-0x168.7 (1)
0x160|                           06                  |         .      |      [29]: 6 transition_type 0x169-0x169.7 (1)
0x160|                              01               |          .     |      [30]: 1 transition_type 0x16a-0x16a.7 (1)
0x160|                                 06            |           .    |      [31]: 6 transition_type 0x16b-0x16b.7 (1)
0x160|                                    01         |            .   |      [32]: 1 transition_type 0x16c-0x16c.7 (1)
0x160|                                       06      |             .  |      [33]: 6 transition_type 0x16d-0x16d.7 (1)
0x160|                                          01   |              . |      [34]: 1 transition_type 0x16e-0x16e.7 (1)
0x160|                                             06|               .|      [35]: 6 transition_type 0x16f-0x16f.7 (1)
0x170|01                                             |.               |      [36]: 1 transition_type 0x170-0x170.7 (1)
0x170|   06                                          | .              |      [37]: 6 transition_type 0x171-0x171.7 (1)
0x170|      01                                       |  .             |      [38]: 1 transition_type 0x172-0x172.7 (1)
0x170|         06                                    |   .            |      [39]: 6 transition_type 0x173-0x173.7 (1)
0x170|            01                                 |    .           |      [40]: 1 transition_type 0x174-0x174.7 (1)
0x170|               06                              |     .          |      [41]: 6 transition_type 0x175-0x175.7 (1)
0x170|                  01                           |      .         |      [42]: 1 transition_type 0x176-0x176.7 (1)
0x170|                     06                        |       .        |      [43]: 6 transition_type 0x177-0x177.7 (1)
0x170|                        01                     |        .       |      [44]: 1 transition_type 0x178-0x178.7 (1)
0x170|                           06                  |         .      |      [45]: 6 transition_type 0x179-0x179.7 (1)
0x170|                              01               |          .     |      [46]: 1 transition_type 0x17a-0x17a.7 (1)
0x170|                                 06            |           .    |      [47]: 6 transition_type 0x17b-0x17b.7 (1)
0x170|                                    01         |            .   |      [48]: 1 transition_type 0x17c-0x17c.7 (1)
0x170|                                       06      |             .  |      [49]: 6 transition_type 0x17d-0x17d.7 (1)
0x170|                                          01   |              . |      [50]: 1 transition_type 0x17e-0x17e.7 (1)
0x170|                                             06|               .|      [51]: 6 transition_type 0x17f-0x17f.7 (1)
0x180|01                                             |.               |      [52]: 1 transition_type 0x180-0x180.7 (1)
0x180|   06                                          | .              |      [53]: 6 transition_type 0x181-0x181.7 (1)
0x180|      01                                       |  .             |      [54]: 1 transition_type 0x182-0x182.7 (1)
0x180|         06                                    |   .            |      [55]: 6 transition_type 0x183-0x183.7 (1)
0x180|            01                                 |    .           |      [56]: 1 transition_type 0x184-0x184.7 (1)
0x180|               06                              |     .          |      [57]: 6 transition_type 0x185-0x185.7 (1)
0x180|                  01                           |      .         |      [58]: 1 transition_type 0x186-0x186.7 (1)
0x180|                     06                        |       .        |      [59]: 6 transition_type 0x187-0x187.7 (1)
0x180|                        01                     |        .       |      [60]: 1 transition_type 0x188-0x188.7 (1)
0x180|                           06                  |         .      |      [61]: 6 transition_type 0x189-0x189.7 (1)
0x180|                              01               |          .     |      [62]: 1 transition_type 0x18a-0x18a.7 (1)
0x180|                                 06            |           .    |      [63]: 6 transition_type 0x18b-0x18b.7 (1)
0x180|                                    01         |            .   |      [64]: 1 transition_type 0x18c-0x18c.7 (1)
0x180|                                       06      |             .  |      [65]: 6 transition_type 0x18d-0x18d.7 (1)
0x180|                                          01   |              . |      [66]: 1 transition_type 0x18e-0x18e.7 (1)
0x180|                                             06|               .|      [67]: 6 transition_type 0x18f-0x18f.7 (1)
0x190|01                                             |.               |      [68]: 1 transition_type 0x190-0x190.7 (1)
0x190|   06                                          | .              |      [69]: 6 transition_type 0x191-0x191.7 (1)
0x190|      01                                       |  .             |      [70]: 1 transition_type 0x192-0x192.7 (1)
0x190|         01                                    |   .            |      [71]: 1 transition_type 0x193-0x193.7 (1)
     |                                               |                |    local_time_type_records[0:7]: 0x194-0x1bd.7 (42)
     |                                               |                |      [0]{}: local_time_type 0x194-0x199.7 (6)
0x190|            00 00 6a 72                        |    ..jr        |        utoff: 27250 (valid) 0x194-0x197.7 (4)
0x190|                        00                     |        .       |        dst: 0 (valid) 0x198-0x198.7 (1)
0x190|                           00                  |         .      |        idx: 0 (valid) 0x199-0x199.7 (1)
     |                                               |                |      [1]{}: local_time_type 0x19a-0x19f.7 (6)
0x190|                              00 00 70 80      |          ..p.  |        utoff: 28800 (valid) 0x19a-0x19d.7 (4)
0x190|                                          00   |              . |        dst: 0 (valid) 0x19e-0x19e.7 (1)
0x190|                                             04|               .|        idx: 4 (valid) 0x19f-0x19f.7 (1)
     |                                               |                |      [2]{}: local_time_type 0x1a0-0x1a5.7 (6)
0x1a0|00 00 8c a0                                    |....            |        utoff: 36000 (valid) 0x1a0-0x1a3.7 (4)
0x1a0|            01                                 |    .           |        dst: 1 (valid) 0x1a4-0x1a4.7 (1)
0x1a0|               08                              |     .          |        idx: 8 (valid) 0x1a5-0x1a5.7 (1)
     |                                               |                |      [3]{}: local_time_type 0x1a6-0x1ab.7 (6)
0x1a0|                  00 00 7e 90                  |      ..~.      |        utoff: 32400 (valid) 0x1a6-0x1a9.7 (4)
0x1a0|                              00               |          .     |        dst: 0 (valid) 0x1aa-0x1aa.7 (1)
0x1a0|                                 0c            |           .    |        idx: 12 (valid) 0x1ab-0x1ab.7 (1)
     |                                               |                |      [4]{}: local_time_type 0x1ac-0x1b1.7 (6)
0x1a0|                                    00 00 7e 90|            ..~.|        utoff: 32400 (valid) 0x1ac-0x1af.7 (4)
0x1b0|01                                             |.               |        dst: 1 (valid) 0x1b0-0x1b0.7 (1)
0x1b0|   10                                          | .              |        idx: 16 (valid) 0x1b1-0x1b1.7 (1)
     |                                               |                |      [5]{}: local_time_type 0x1b2-0x1b7.7 (6)
0x1b0|      00 00 70 80                              |  ..p.          |        utoff: 28800 (valid) 0x1b2-0x1b5.7 (4)
0x1b0|                  00                           |      .         |        dst: 0 (valid) 0x1b6-0x1b6.7 (1)
0x1b0|                     04                        |       .        |        idx: 4 (valid) 0x1b7-0x1b7.7 (1)
     |                                               |                |      [6]{}: local_time_type 0x1b8-0x1bd.7 (6)
0x1b0|                        00 00 7e 90            |        ..~.    |        utoff: 32400 (valid) 0x1b8-0x1bb.7 (4)
0x1b0|                                    01         |            .   |        dst: 1 (valid) 0x1bc-0x1bc.7 (1)
0x1b0|                                       10      |             .  |        idx: 16 (valid) 0x1bd-0x1bd.7 (1)
     |                                               |                |    time_zone_designations[0:5]: 0x1be-0x1d1.7 (20)
0x1b0|                                          4c 4d|              LM|      [0]: "LMT" time_zone_designation 0x1be-0x1c1.7 (4)
0x1c0|54 00                                          |T.              |
0x1c0|      43 53 54 00                              |  CST.          |      [1]: "CST" time_zone_designation 0x1c2-0x1c5.7 (4)
0x1c0|                  2b 31 30 00                  |      +10.      |      [2]: "+10" time_zone_designation 0x1c6-0x1c9.7 (4)
0x1c0|                              2b 30 39 00      |          +09.  |      [3]: "+09" time_zone_designation 0x1ca-0x1cd.7 (4)
0x1c0|                                          43 44|              CD|      [4]: "CDT" time_zone_designation 0x1ce-0x1d1.7 (4)
0x1d0|54 00                                          |T.              |
     |                                               |                |    leap_second_records[0:27]: 0x1d2-0x2a9.7 (216)
     |                                               |                |      [0]{}: leap_second_record 0x1d2-0x1d9.7 (8)
0x1d0|      04 b2 58 00                              |  ..X.          |        occur: "1972-07-01T00:00:00Z" (78796800) 0x1d2-0x1d5.7 (4)
0x1d0|                  00 00 00 01                  |      ....      |        corr: 1 0x1d6-0x1d9.7 (4)
     |                                               |                |      [1]{}: leap_second_record 0x1da-0x1e1.7 (8)
0x1d0|                              05 a4 ec 01      |          ....  |        occur: "1973-01-01T00:00:01Z" (94694401) 0x1da-0x1dd.7 (4)
0x1d0|                                          00 00|              ..|        corr: 2 0x1de-0x1e1.7 (4)
0x1e0|00 02                                          |..              |
     |                                               |                |      [2]{}: leap_second_record 0x1e2-0x1e9.7 (8)
0x1e0|      07 86 1f 82                              |  ....          |        occur: "1974-01-01T00:00:02Z" (126230402) 0x1e2-0x1e5.7 (4)
0x1e0|                  00 00 00 03                  |      ....      |        corr: 3 0x1e6-0x1e9.7 (4)
     |                                               |                |      [3]{}: leap_second_record 0x1ea-0x1f1.7 (8)
0x1e0|                              09 67 53 03      |          .gS.  |        occur: "1975-01-01T00:00:03Z" (157766403) 0x1ea-0x1ed.7 (4)
0x1e0|                                          00 00|              ..|        corr: 4 0x1ee-0x1f1.7 (4)
0x1f0|00 04                                          |..              |
     |                                               |                |      [4]{}: leap_second_record 0x1f2-0x1f9.7 (8)
0x1f0|      0b 48 86 84                              |  .H..          |        occur: "1976-01-01T00:00:04Z" (189302404) 0x1f2-0x1f5.7 (4)
0x1f0|                  00 00 00 05                  |      ....      |        corr: 5 0x1f6-0x1f9.7 (4)
     |                                               |                |      [5]{}: leap_second_record 0x1fa-0x201.7 (8)
0x1f0|                              0d 2b 0b 85      |          .+..  |        occur: "1977-01-01T00:00:05Z" (220924805) 0x1fa-0x1fd.7 (4)
0x1f0|                                          00 00|              ..|        corr: 6 0x1fe-0x201.7 (4)
0x200|00 06                                          |..              |
     |                                               |                |      [6]{}: leap_second_record 0x202-0x209.7 (8)
0x200|      0f 0c 3f 06                              |  ..?.          |        occur: "1978-01-01T00:00:06Z" (252460806) 0x202-0x205.7 (4)
0x200|                  00 00 00 07                  |      ....      |        corr: 7 0x206-0x209.7 (4)
     |                                               |                |      [7]{}: leap_second_record 0x20a-0x211.7 (8)
0x200|                              10 ed 72 87      |          ..r.  |        occur: "1979-01-01T00:00:07Z" (283996807) 0x20a-0x20d.7 (4)
0x200|                                          00 00|              ..|        corr: 8 0x20e-0x211.7 (4)
0x210|00 08                                          |..              |
     |                                               |                |      [8]{}: leap_second_record 0x212-0x219.7 (8)
0x210|      12 ce a6 08                              |  ....          |        occur: "1980-01-01T00:00:08Z" (315532808) 0x212-0x215.7 (4)
0x210|                  00 00 00 09                  |      ....      |        corr: 9 0x216-0x219.7 (4)
     |                                               |                |      [9]{}: leap_second_record 0x21a-0x221.7 (8)
0x210|                              15 9f ca 89      |          ....  |        occur: "1981-07-01T00:00:09Z" (362793609) 0x21a-0x21d.7 (4)
0x210|                                          00 00|              ..|        corr: 10 0x21e-0x221.7 (4)
0x220|00 0a                                          |..              |
     |                                               |                |      [10]{}: leap_second_record 0x222-0x229.7 (8)
0x220|      17 80 fe 0a                              |  ....          |        occur: "1982-07-01T00:00:10Z" (394329610) 0x222-0x225.7 (4)
0x220|                  00 00 00 0b                  |      ....      |        corr: 11 0x226-0x229.7 (4)
     |                                               |                |      [11]{}: leap_second_record 0x22a-0x231.7 (8)
0x220|                              19 62 31 8b      |          .b1.  |        occur: "1983-07-01T00:00:11Z" (425865611) 0x22a-0x22d.7 (4)
0x220|                                          00 00|              ..|        corr: 12 0x22e-0x231.7 (4)
0x230|00 0c                                          |..              |
     |                                               |                |      [12]{}: leap_second_record 0x232-0x239.7 (8)
0x230|      1d 25 ea 0c                              |  .%..          |        occur: "1985-07-01T00:00:12Z" (489024012) 0x232-0x235.7 (4)
0x230|                  00 00 00 0d                  |      ....      |        corr: 13 0x236-0x239.7 (4)
     |                                               |                |      [13]{}: leap_second_record 0x23a-0x241.7 (8)
0x230|                              21 da e5 0d      |          !...  |        occur: "1988-01-01T00:00:13Z" (567993613) 0x23a-0x23d.7 (4)
0x230|                                          00 00|              ..|        corr: 14 0x23e-0x241.7 (4)
0x240|00 0e                                          |..              |
     |                                               |                |      [14]{}: leap_second_record 0x242-0x249.7 (8)
0x240|      25 9e 9d 8e                              |  %...          |        occur: "1990-01-01T00:00:14Z" (631152014) 0x242-0x245.7 (4)
0x240|                  00 00 00 0f                  |      ....      |        corr: 15 0x246-0x249.7 (4)
     |                                               |                |      [15]{}: leap_second_record 0x24a-0x251.7 (8)
0x240|                              27 7f d1 0f      |          '...  |        occur: "1991-01-01T00:00:15Z" (662688015) 0x24a-0x24d.7 (4)
0x240|                                          00 00|              ..|        corr: 16 0x24e-0x251.7 (4)
0x250|00 10                                          |..              |
     |                                               |                |      [16]{}: leap_second_record 0x252-0x259.7 (8)
0x250|      2a 50 f5 90                              |  *P..          |        occur: "1992-07-01T00:00:16Z" (709948816) 0x252-0x255.7 (4)
0x250|                  00 00 00 11                  |      ....      |        corr: 17 0x256-0x259.7 (4)
     |                                               |                |      [17]{}: leap_second_record 0x25a-0x261.7 (8)
0x250|                              2c 32 29 11      |          ,2).  |        occur: "1993-07-01T00:00:17Z" (741484817) 0x25a-0x25d.7 (4)
0x250|                                          00 00|              ..|        corr: 18 0x25e-0x261.7 (4)
0x260|00 12                                          |..              |
     |                                               |                |      [18]{}: leap_second_record 0x262-0x269.7 (8)
0x260|      2e 13 5c 92                              |  ..\.          |        occur: "1994-07-01T00:00:18Z" (773020818) 0x262-0x265.7 (4)
0x260|                  00 00 00 13                  |      ....      |        corr: 19 0x266-0x269.7 (4)
     |                                               |                |      [19]{}: leap_second_record 0x26a-0x271.7 (8)
0x260|                              30 e7 24 13      |          0.$.  |        occur: "1996-01-01T00:00:19Z" (820454419) 0x26a-0x26d.7 (4)
0x260|                                          00 00|              ..|        corr: 20 0x26e-0x271.7 (4)
0x270|00 14                                          |..              |
     |                                               |                |      [20]{}: leap_second_record 0x272-0x279.7 (8)
0x270|      33 b8 48 94                              |  3.H.          |        occur: "1997-07-01T00:00:20Z" (867715220) 0x272-0x275.7 (4)
0x270|                  00 00 00 15                  |      ....      |        corr: 21 0x276-0x279.7 (4)
     |                                               |                |      [21]{}: leap_second_record 0x27a-0x281.7 (8)
0x270|                              36 8c 10 15      |          6...  |        occur: "1999-01-01T00:00:21Z" (915148821) 0x27a-0x27d.7 (4)
0x270|                                          00 00|              ..|        corr: 22 0x27e-0x281.7 (4)
0x280|00 16                                          |..              |
     |                                               |                |      [22]{}: leap_second_record 0x282-0x289.7 (8)
0x280|      43 b7 1b 96                              |  C...          |        occur: "2006-01-01T00:00:22Z" (1136073622) 0x282-0x285.7 (4)
0x280|                  00 00 00 17                  |      ....      |        corr: 23 0x286-0x289.7 (4)
     |                                               |                |      [23]{}: leap_second_record 0x28a-0x291.7 (8)
0x280|                              49 5c 07 97      |          I\..  |        occur: "2009-01-01T00:00:23Z" (1230768023) 0x28a-0x28d.7 (4)
0x280|                                          00 00|              ..|        corr: 24 0x28e-0x291.7 (4)
0x290|00 18                                          |..              |
     |                                               |                |      [24]{}: leap_second_record 0x292-0x299.7 (8)
0x290|      4f ef 93 18                              |  O...          |        occur: "2012-07-01T00:00:24Z" (1341100824) 0x292-0x295.7 (4)
0x290|                  00 00 00 19                  |      ....      |        corr: 25 0x296-0x299.7 (4)
     |                                               |                |      [25]{}: leap_second_record 0x29a-0x2a1.7 (8)
0x290|                              55 93 2d 99      |          U.-.  |        occur: "2015-07-01T00:00:25Z" (1435708825) 0x29a-0x29d.7 (4)
0x290|                                          00 00|              ..|        corr: 26 0x29e-0x2a1.7 (4)
0x2a0|00 1a                                          |..              |
     |                                               |                |      [26]{}: leap_second_record 0x2a2-0x2a9.7 (8)
0x2a0|      58 68 46 9a                              |  XhF.          |        occur: "2017-01-01T00:00:26Z" (1483228826) 0x2a2-0x2a5.7 (4)
0x2a0|                  00 00 00 1b                  |      ....      |        corr: 27 0x2a6-0x2a9.7 (4)
     |                                               |                |    standard_wall_indicators[0:7]: 0x2aa-0x2b0.7 (7)
0x2a0|                              00               |          .     |      [0]: 0 standard_wall_indicator (valid) 0x2aa-0x2aa.7 (1)
0x2a0|                                 00            |           .    |      [1]: 0 standard_wall_indicator (valid) 0x2ab-0x2ab.7 (1)
0x2a0|                                    00         |            .   |      [2]: 0 standard_wall_indicator (valid) 0x2ac-0x2ac.7 (1)
0x2a0|                                       00      |             .  |      [3]: 0 standard_wall_indicator (valid) 0x2ad-0x2ad.7 (1)
0x2a0|                                          01   |              . |      [4]: 1 standard_wall_indicator (valid) 0x2ae-0x2ae.7 (1)
0x2a0|                                             01|               .|      [5]: 1 standard_wall_indicator (valid) 0x2af-0x2af.7 (1)
0x2b0|00                                             |.               |      [6]: 0 standard_wall_indicator (valid) 0x2b0-0x2b0.7 (1)
     |                                               |                |    ut_local_indicators[0:0]: 0x2b1-NA (0)
     |                                               |                |  v2plusheader{}: 0x2b1-0x2dc.7 (44)
0x2b0|   54 5a 69 66                                 | TZif           |    magic: 0x545a6966 (valid) 0x2b1-0x2b4.7 (4)
0x2b0|               32                              |     2          |    ver: "2" (0x32) (valid) 0x2b5-0x2b5.7 (1)
0x2b0|                  00 00 00 00 00 00 00 00 00 00|      ..........|    reserved: raw bits 0x2b6-0x2c4.7 (15)
0x2c0|00 00 00 00 00                                 |.....           |
0x2c0|               00 00 00 00                     |     ....       |    isutcnt: 0 0x2c5-0x2c8.7 (4)
0x2c0|                           00 00 00 07         |         ....   |    isstdcnt: 7 0x2c9-0x2cc.7 (4)
0x2c0|                                       00 00 00|             ...|    leapcnt: 27 0x2cd-0x2d0.7 (4)
0x2d0|1b                                             |.               |
0x2d0|   00 00 00 48                                 | ...H           |    timecnt: 72 0x2d1-0x2d4.7 (4)
0x2d0|               00 00 00 07                     |     ....       |    typecnt: 7 0x2d5-0x2d8.7 (4)
0x2d0|                           00 00 00 14         |         ....   |    charcnt: 20 0x2d9-0x2dc.7 (4)
     |                                               |                |  v2plusdatablock{}: 0x2dd-0x6ed.7 (1041)
     |                                               |                |    transition_times[0:72]: 0x2dd-0x51c.7 (576)
0x2d0|                                       ff ff ff|             ...|      [0]: "1904-10-29T16:25:50Z" (-2056692850) transition_time 0x2dd-0x2e4.7 (8)
0x2e0|ff 85 69 5b 8e                                 |..i[.           |
0x2e0|               ff ff ff ff cb 47 75 f0         |     .....Gu.   |      [1]: "1941-12-21T15:00:00Z" (-884509200) transition_time 0x2e5-0x2ec.7 (8)
0x2e0|                                       ff ff ff|             ...|      [2]: "1942-04-30T14:00:00Z" (-873280800) transition_time 0x2ed-0x2f4.7 (8)
0x2f0|ff cb f2 ca e0                                 |.....           |
0x2f0|               ff ff ff ff cc fb ba 50         |     .......P   |      [3]: "1942-11-17T13:00:00Z" (-855918000) transition_time 0x2f5-0x2fc.7 (8)
0x2f0|                                       ff ff ff|             ...|      [4]: "1943-04-30T14:00:00Z" (-841744800) transition_time 0x2fd-0x304.7 (8)
0x300|ff cd d3 fe 60                                 |....`           |
0x300|               ff ff ff ff ce 9d a5 d0         |     ........   |      [5]: "1943-09-30T13:00:00Z" (-828529200) transition_time 0x305-0x30c.7 (8)
0x300|                                       ff ff ff|             ...|      [6]: "1945-09-30T15:00:00Z" (-765363600) transition_time 0x30d-0x314.7 (8)
0x310|ff d2 61 7a 70                                 |..azp           |
0x310|               ff ff ff ff d3 78 f8 70         |     .....x.p   |      [7]: "1946-04-30T15:00:00Z" (-747046800) transition_time 0x315-0x31c.7 (8)
0x310|                                       ff ff ff|             ...|      [8]: "1946-09-30T15:00:00Z" (-733827600) transition_time 0x31d-0x324.7 (8)
0x320|ff d4 42 ad f0                                 |..B..           |
0x320|               ff ff ff ff d5 4b ab 70         |     .....K.p   |      [9]: "1947-04-19T15:00:00Z" (-716461200) transition_time 0x325-0x32c.7 (8)
0x320|                                       ff ff ff|             ...|      [10]: "1947-11-30T15:00:00Z" (-697021200) transition_time 0x32d-0x334.7 (8)
0x330|ff d6 74 4c f0                                 |..tL.           |
0x330|               ff ff ff ff d7 3f 53 f0         |     .....?S.   |      [11]: "1948-05-02T15:00:00Z" (-683715600) transition_time 0x335-0x33c.7 (8)
0x330|                                       ff ff ff|             ...|      [12]: "1948-10-31T15:00:00Z" (-667990800) transition_time 0x33d-0x344.7 (8)
0x340|ff d8 2f 44 f0                                 |../D.           |
0x340|               ff ff ff ff d8 f8 fa 70         |     .......p   |      [13]: "1949-04-02T15:00:00Z" (-654771600) transition_time 0x345-0x34c.7 (8)
0x340|                                       ff ff ff|             ...|      [14]: "1949-10-29T15:00:00Z" (-636627600) transition_time 0x34d-0x354.7 (8)
0x350|ff da 0d d5 70                                 |....p           |
0x350|               ff ff ff ff da d8 dc 70         |     .......p   |      [15]: "1950-04-01T15:00:00Z" (-623322000) transition_time 0x355-0x35c.7 (8)
0x350|                                       ff ff ff|             ...|      [16]: "1950-10-28T15:00:00Z" (-605178000) transition_time 0x35d-0x364.7 (8)
0x360|ff db ed b7 70                                 |....p           |
0x360|               ff ff ff ff dc b8 be 70         |     .......p   |      [17]: "1951-03-31T15:00:00Z" (-591872400) transition_time 0x365-0x36c.7 (8)
0x360|                                       ff ff ff|             ...|      [18]: "1951-10-28T15:00:00Z" (-573642000) transition_time 0x36d-0x374.7 (8)
0x370|ff dd ce ea f0                                 |.....           |
0x370|               ff ff ff ff de a1 da f0         |     ........   |      [19]: "1952-04-05T15:00:00Z" (-559818000) transition_time 0x375-0x37c.7 (8)
0x370|                                       ff ff ff|             ...|      [20]: "1952-11-01T15:00:00Z" (-541674000) transition_time 0x37d-0x384.7 (8)
0x380|ff df b6 b5 f0                                 |.....           |
0x380|               ff ff ff ff e0 81 bc f0         |     ........   |      [21]: "1953-04-04T15:00:00Z" (-528368400) transition_time 0x385-0x38c.7 (8)
0x380|                                       ff ff ff|             ...|      [22]: "1953-10-31T15:00:00Z" (-510224400) transition_time 0x38d-0x394.7 (8)
0x390|ff e1 96 97 f0                                 |.....           |
0x390|               ff ff ff ff e2 4f 29 f0         |     .....O).   |      [23]: "1954-03-20T15:00:00Z" (-498128400) transition_time 0x395-0x39c.7 (8)
0x390|                                       ff ff ff|             ...|      [24]: "1954-10-30T15:00:00Z" (-478774800) transition_time 0x39d-0x3a4.7 (8)
0x3a0|ff e3 76 79 f0                                 |..vy.           |
0x3a0|               ff ff ff ff e4 2f 0b f0         |     ...../..   |      [25]: "1955-03-19T15:00:00Z" (-466678800) transition_time 0x3a5-0x3ac.7 (8)
0x3a0|                                       ff ff ff|             ...|      [26]: "1955-11-05T15:00:00Z" (-446720400) transition_time 0x3ad-0x3b4.7 (8)
0x3b0|ff e5 5f 96 70                                 |.._.p           |
0x3b0|               ff ff ff ff e6 0e ed f0         |     ........   |      [27]: "1956-03-17T15:00:00Z" (-435229200) transition_time 0x3b5-0x3bc.7 (8)
0x3b0|                                       ff ff ff|             ...|      [28]: "1956-11-03T18:30:00Z" (-415258200) transition_time 0x3bd-0x3c4.7 (8)
0x3c0|ff e7 3f a9 a8                                 |..?..           |
0x3c0|               ff ff ff ff e7 f8 49 b8         |     ......I.   |      [29]: "1957-03-23T19:30:00Z" (-403158600) transition_time 0x3c5-0x3cc.7 (8)
0x3c0|                                       ff ff ff|             ...|      [30]: "1957-11-02T18:30:00Z" (-383808600) transition_time 0x3cd-0x3d4.7 (8)
0x3d0|ff e9 1f 8b a8                                 |.....           |
0x3d0|               ff ff ff ff e9 d8 2b b8         |     ......+.   |      [31]: "1958-03-22T19:30:00Z" (-371709000) transition_time 0x3d5-0x3dc.7 (8)
0x3d0|                                       ff ff ff|             ...|      [32]: "1958-11-01T18:30:00Z" (-352359000) transition_time 0x3dd-0x3e4.7 (8)
0x3e0|ff ea ff 6d a8                                 |...m.           |
0x3e0|               ff ff ff ff eb b8 0d b8         |     ........   |      [33]: "1959-03-21T19:30:00Z" (-340259400) transition_time 0x3e5-0x3ec.7 (8)
0x3e0|                                       ff ff ff|             ...|      [34]: "1959-10-31T18:30:00Z" (-320909400) transition_time 0x3ed-0x3f4.7 (8)
0x3f0|ff ec df 4f a8                                 |...O.           |
0x3f0|               ff ff ff ff ed 97 ef b8         |     ........   |      [35]: "1960-03-19T19:30:00Z" (-308809800) transition_time 0x3f5-0x3fc.7 (8)
0x3f0|                                       ff ff ff|             ...|      [36]: "1960-11-05T18:30:00Z" (-288855000) transition_time 0x3fd-0x404.7 (8)
0x400|ff ee c8 6c 28                                 |...l(           |
0x400|               ff ff ff ff ef 77 d1 b8         |     .....w..   |      [37]: "1961-03-18T19:30:00Z" (-277360200) transition_time 0x405-0x40c.7 (8)
0x400|                                       ff ff ff|             ...|      [38]: "1961-11-04T18:30:00Z" (-257405400) transition_time 0x40d-0x414.7 (8)
0x410|ff f0 a8 4e 28                                 |...N(           |
0x410|               ff ff ff ff f1 57 b3 b8         |     .....W..   |      [39]: "1962-03-17T19:30:00Z" (-245910600) transition_time 0x415-0x41c.7 (8)
0x410|                                       ff ff ff|             ...|      [40]: "1962-11-03T18:30:00Z" (-225955800) transition_time 0x41d-0x424.7 (8)
0x420|ff f2 88 30 28                                 |...0(           |
0x420|               ff ff ff ff f3 40 d0 38         |     .....@.8   |      [41]: "1963-03-23T19:30:00Z" (-213856200) transition_time 0x425-0x42c.7 (8)
0x420|                                       ff ff ff|             ...|      [42]: "1963-11-02T18:30:00Z" (-194506200) transition_time 0x42d-0x434.7 (8)
0x430|ff f4 68 12 28                                 |..h.(           |
0x430|               ff ff ff ff f5 20 b2 38         |     ..... .8   |      [43]: "1964-03-21T19:30:00Z" (-182406600) transition_time 0x435-0x43c.7 (8)
0x430|                                       ff ff ff|             ...|      [44]: "1964-10-31T18:30:00Z" (-163056600) transition_time 0x43d-0x444.7 (8)
0x440|ff f6 47 f4 28                                 |..G.(           |
0x440|               ff ff ff ff f7 25 7e 38         |     .....%~8   |      [45]: "1965-04-17T19:30:00Z" (-148537800) transition_time 0x445-0x44c.7 (8)
0x440|                                       ff ff ff|             ...|      [46]: "1965-10-16T17:30:00Z" (-132820200) transition_time 0x44d-0x454.7 (8)
0x450|ff f8 15 53 18                                 |...S.           |
0x450|               ff ff ff ff f9 05 60 38         |     ......`8   |      [47]: "1966-04-16T19:30:00Z" (-117088200) transition_time 0x455-0x45c.7 (8)
0x450|                                       ff ff ff|             ...|      [48]: "1966-10-15T17:30:00Z" (-101370600) transition_time 0x45d-0x464.7 (8)
0x460|ff f9 f5 35 18                                 |...5.           |
0x460|               ff ff ff ff fa e5 42 38         |     ......B8   |      [49]: "1967-04-15T19:30:00Z" (-85638600) transition_time 0x465-0x46c.7 (8)
0x460|                                       ff ff ff|             ...|      [50]: "1967-10-21T18:30:00Z" (-69312600) transition_time 0x46d-0x474.7 (8)
0x470|ff fb de 5f a8                                 |..._.           |
0x470|               ff ff ff ff fc ce 5e b8         |     ......^.   |      [51]: "1968-04-20T19:30:00Z" (-53584200) transition_time 0x475-0x47c.7 (8)
0x470|                                       ff ff ff|             ...|      [52]: "1968-10-19T18:30:00Z" (-37863000) transition_time 0x47d-0x484.7 (8)
0x480|ff fd be 41 a8                                 |...A.           |
0x480|               ff ff ff ff fe ae 40 b8         |     ......@.   |      [53]: "1969-04-19T19:30:00Z" (-22134600) transition_time 0x485-0x48c.7 (8)
0x480|                                       ff ff ff|             ...|      [54]: "1969-10-18T18:30:00Z" (-6413400) transition_time 0x48d-0x494.7 (8)
0x490|ff ff 9e 23 a8                                 |...#.           |
0x490|               00 00 00 00 00 8e 22 b8         |     ......".   |      [55]: "1970-04-18T19:30:00Z" (9315000) transition_time 0x495-0x49c.7 (8)
0x490|                                       00 00 00|             ...|      [56]: "1970-10-17T18:30:00Z" (25036200) transition_time 0x49d-0x4a4.7 (8)
0x4a0|00 01 7e 05 a8                                 |..~..           |
0x4a0|               00 00 00 00 02 6e 04 b8         |     .....n..   |      [57]: "1971-04-17T19:30:00Z" (40764600) transition_time 0x4a5-0x4ac.7 (8)
0x4a0|                                       00 00 00|             ...|      [58]: "1971-10-16T18:30:00Z" (56485800) transition_time 0x4ad-0x4b4.7 (8)
0x4b0|00 03 5d e7 a8                                 |..]..           |
0x4b0|               00 00 00 00 04 4d e6 b8         |     .....M..   |      [59]: "1972-04-15T19:30:00Z" (72214200) transition_time 0x4b5-0x4bc.7 (8)
0x4b0|                                       00 00 00|             ...|      [60]: "1972-10-21T18:30:01Z" (88540201) transition_time 0x4bd-0x4c4.7 (8)
0x4c0|00 05 47 04 29                                 |..G.)           |
0x4c0|               00 00 00 00 06 37 03 3a         |     .....7.:   |      [61]: "1973-04-21T19:30:02Z" (104268602) transition_time 0x4c5-0x4cc.7 (8)
0x4c0|                                       00 00 00|             ...|      [62]: "1973-10-20T18:30:02Z" (119989802) transition_time 0x4cd-0x4d4.7 (8)
0x4d0|00 07 26 e6 2a                                 |..&.*           |
0x4d0|               00 00 00 00 07 83 3d 3a         |     ......=:   |      [63]: "1973-12-29T19:30:02Z" (126041402) transition_time 0x4d5-0x4dc.7 (8)
0x4d0|                                       00 00 00|             ...|      [64]: "1974-10-19T18:30:03Z" (151439403) transition_time 0x4dd-0x4e4.7 (8)
0x4e0|00 09 06 c8 2b                                 |....+           |
0x4e0|               00 00 00 00 09 f6 c7 3c         |     .......<   |      [65]: "1975-04-19T19:30:04Z" (167167804) transition_time 0x4e5-0x4ec.7 (8)
0x4e0|                                       00 00 00|             ...|      [66]: "1975-10-18T18:30:04Z" (182889004) transition_time 0x4ed-0x4f4.7 (8)
0x4f0|00 0a e6 aa 2c                                 |....,           |
0x4f0|               00 00 00 00 0b d6 a9 3d         |     .......=   |      [67]: "1976-04-17T19:30:05Z" (198617405) transition_time 0x4f5-0x4fc.7 (8)
0x4f0|                                       00 00 00|             ...|      [68]: "1976-10-16T18:30:05Z" (214338605) transition_time 0x4fd-0x504.7 (8)
0x500|00 0c c6 8c 2d                                 |....-           |
0x500|               00 00 00 00 11 9b 39 40         |     ......9@   |      [69]: "1979-05-12T19:30:08Z" (295385408) transition_time 0x505-0x50c.7 (8)
0x500|                                       00 00 00|             ...|      [70]: "1979-10-20T18:30:08Z" (309292208) transition_time 0x50d-0x514.7 (8)
0x510|00 12 6f 6c b0                                 |..ol.           |
0x510|               00 00 00 00 64 9b 78 1b         |     ....d.x.   |      [71]: "2023-06-28T00:00:27Z" (1687910427) transition_time 0x515-0x51c.7 (8)
     |                                               |                |    transition_types[0:72]: 0x51d-0x564.7 (72)
0x510|                                       01      |             .  |      [0]: 1 transition_type 0x51d-0x51d.7 (1)
0x510|                                          03   |              . |      [1]: 3 transition_type 0x51e-0x51e.7 (1)
0x510|                                             02|               .|      [2]: 2 transition_type 0x51f-0x51f.7 (1)
0x520|03                                             |.               |      [3]: 3 transition_type 0x520-0x520.7 (1)
0x520|   02                                          | .              |      [4]: 2 transition_type 0x521-0x521.7 (1)
0x520|      03                                       |  .             |      [5]: 3 transition_type 0x522-0x522.7 (1)
0x520|         01                                    |   .            |      [6]: 1 transition_type 0x523-0x523.7 (1)
0x520|            04                                 |    .           |      [7]: 4 transition_type 0x524-0x524.7 (1)
0x520|               05                              |     .          |      [8]: 5 transition_type 0x525-0x525.7 (1)
0x520|                  04                           |      .         |      [9]: 4 transition_type 0x526-0x526.7 (1)
0x520|                     05                        |       .        |      [10]: 5 transition_type 0x527-0x527.7 (1)
0x520|                        04                     |        .       |      [11]: 4 transition_type 0x528-0x528.7 (1)
0x520|                           05                  |         .      |      [12]: 5 transition_type 0x529-0x529.7 (1)
0x520|                              04               |          .     |      [13]: 4 transition_type 0x52a-0x52a.7 (1)
0x520|                                 05            |           .    |      [14]: 5 transition_type 0x52b-0x52b.7 (1)
0x520|                                    04         |            .   |      [15]: 4 transition_type 0x52c-0x52c.7 (1)
0x520|                                       05      |             .  |      [16]: 5 transition_type 0x52d-0x52d.7 (1)
0x520|                                          04   |              . |      [17]: 4 transition_type 0x52e-0x52e.7 (1)
0x520|                                             05|               .|      [18]: 5 transition_type 0x52f-0x52f.7 (1)
0x530|04                                             |.               |      [19]: 4 transition_type 0x530-0x530.7 (1)
0x530|   05                                          | .              |      [20]: 5 transition_type 0x531-0x531.7 (1)
0x530|      04                                       |  .             |      [21]: 4 transition_type 0x532-0x532.7 (1)
0x530|         05                                    |   .            |      [22]: 5 transition_type 0x533-0x533.7 (1)
0x530|            04                                 |    .           |      [23]: 4 transition_type 0x534-0x534.7 (1)
0x530|               05                              |     .          |      [24]: 5 transition_type 0x535-0x535.7 (1)
0x530|                  04                           |      .         |      [25]: 4 transition_type 0x536-0x536.7 (1)
0x530|                     05                        |       .        |      [26]: 5 transition_type 0x537-0x537.7 (1)
0x530|                        04                     |        .       |      [27]: 4 transition_type 0x538-0x538.7 (1)
0x530|                           01                  |         .      |      [28]: 1 transition_type 0x539-0x539.7 (1)
0x530|                              06               |          .     |      [29]: 6 transition_type 0x53a-0x53a.7 (1)
0x530|                                 01            |           .    |      [30]: 1 transition_type 0x53b-0x53b.7 (1)
0x530|                                    06         |            .   |      [31]: 6 transition_type 0x53c-0x53c.7 (1)
0x530|                                       01      |             .  |      [32]: 1 transition_type 0x53d-0x53d.7 (1)
0x530|                                          06   |              . |      [33]: 6 transition_type 0x53e-0x53e.7 (1)
0x530|                                             01|               .|      [34]: 1 transition_type 0x53f-0x53f.7 (1)
0x540|06                                             |.               |      [35]: 6 transition_type 0x540-0x540.7 (1)
0x540|   01                                          | .              |      [36]: 1 transition_type 0x541-0x541.7 (1)
0x540|      06                                       |  .             |      [37]: 6 transition_type 0x542-0x542.7 (1)
0x540|         01                                    |   .            |      [38]: 1 transition_type 0x543-0x543.7 (1)
0x540|            06                                 |    .           |      [39]: 6 transition_type 0x544-0x544.7 (1)
0x540|               01                              |     .          |      [40]: 1 transition_type 0x545-0x545.7 (1)
0x540|                  06                           |      .         |      [41]: 6 transition_type 0x546-0x546.7 (1)
0x540|                     01                        |       .        |      [42]: 1 transition_type 0x547-0x547.7 (1)
0x540|                        06                     |        .       |      [43]: 6 transition_type 0x548-0x548.7 (1)
0x540|                           01                  |         .      |      [44]: 1 transition_type 0x549-0x549.7 (1)
0x540|                              06               |          .     |      [45]: 6 transition_type 0x54a-0x54a.7 (1)
0x540|                                 01            |           .    |      [46]: 1 transition_type 0x54b-0x54b.7 (1)
0x540|                                    06         |            .   |      [47]: 6 transition_type 0x54c-0x54c.7 (1)
0x540|                                       01      |             .  |      [48]: 1 transition_type 0x54d-0x54d.7 (1)
0x540|                                          06   |              . |      [49]: 6 transition_type 0x54e-0x54e.7 (1)
0x540|                                             01|               .|      [50]: 1 transition_type 0x54f-0x54f.7 (1)
0x550|06                                             |.               |      [51]: 6 transition_type 0x550-0x550.7 (1)
0x550|   01                                          | .              |      [52]: 1 transition_type 0x551-0x551.7 (1)
0x550|      06                                       |  .             |      [53]: 6 transition_type 0x552-0x552.7 (1)
0x550|         01                                    |   .            |      [54]: 1 transition_type 0x553-0x553.7 (1)
0x550|            06                                 |    .           |      [55]: 6 transition_type 0x554-0x554.7 (1)
0x550|               01                              |     .          |      [56]: 1 transition_type 0x555-0x555.7 (1)
0x550|                  06                           |      .         |      [57]: 6 transition_type 0x556-0x556.7 (1)
0x550|                     01                        |       .        |      [58]: 1 transition_type 0x557-0x557.7 (1)
0x550|                        06                     |        .       |      [59]: 6 transition_type 0x558-0x558.7 (1)
0x550|                           01                  |         .      |      [60]: 1 transition_type 0x559-0x559.7 (1)
0x550|                              06               |          .     |      [61]: 6 transition_type 0x55a-0x55a.7 (1)
0x550|                                 01            |           .    |      [62]: 1 transition_type 0x55b-0x55b.7 (1)
0x550|                                    06         |            .   |      [63]: 6 transition_type 0x55c-0x55c.7 (1)
0x550|                                       01      |             .  |      [64]: 1 transition_type 0x55d-0x55d.7 (1)
0x550|                                          06   |              . |      [65]: 6 transition_type 0x55e-0x55e.7 (1)
0x550|                                             01|               .|      [66]: 1 transition_type 0x55f-0x55f.7 (1)
0x560|06                                             |.               |      [67]: 6 transition_type 0x560-0x560.7 (1)
0x560|   01                                          | .              |      [68]: 1 transition_type 0x561-0x561.7 (1)
0x560|      06                                       |  .             |      [69]: 6 transition_type 0x562-0x562.7 (1)
0x560|         01                                    |   .            |      [70]: 1 transition_type 0x563-0x563.7 (1)
0x560|            01                                 |    .           |      [71]: 1 transition_type 0x564-0x564.7 (1)
     |                                               |                |    local_time_type_records[0:7]: 0x565-0x58e.7 (42)
     |                                               |                |      [0]{}: local_time_type 0x565-0x56a.7 (6)
0x560|               00 00 6a 72                     |     ..jr       |        utoff: 27250 (valid) 0x565-0x568.7 (4)
0x560|                           00                  |         .      |        dst: 0 (valid) 0x569-0x569.7 (1)
0x560|                              00               |          .     |        idx: 0 (valid) 0x56a-0x56a.7 (1)
     |                                               |                |      [1]{}: local_time_type 0x56b-0x570.7 (6)
0x560|                                 00 00 70 80   |           ..p. |        utoff: 28800 (valid) 0x56b-0x56e.7 (4)
0x560|                                             00|               .|        dst: 0 (valid) 0x56f-0x56f.7 (1)
0x570|04                                             |.               |        idx: 4 (valid) 0x570-0x570.7 (1)
     |                                               |                |      [2]{}: local_time_type 0x571-0x576.7 (6)
0x570|   00 00 8c a0                                 | ....           |        utoff: 36000 (valid) 0x571-0x574.7 (4)
0x570|               01                              |     .          |        dst: 1 (valid) 0x575-0x575.7 (1)
0x570|                  08                           |      .         |        idx: 8 (valid) 0x576-0x576.7 (1)
     |                                               |                |      [3]{}: local_time_type 0x577-0x57c.7 (6)
0x570|                     00 00 7e 90               |       ..~.     |        utoff: 32400 (valid) 0x577-0x57a.7 (4)
0x570|                                 00            |           .    |        dst: 0 (valid) 0x57b-0x57b.7 (1)
0x570|                                    0c         |            .   |        idx: 12 (valid) 0x57c-0x57c.7 (1)
     |                                               |                |      [4]{}: local_time_type 0x57d-0x582.7 (6)
0x570|                                       00 00 7e|             ..~|        utoff: 32400 (valid) 0x57d-0x580.7 (4)
0x580|90                                             |.               |
0x580|   01                                          | .              |        dst: 1 (valid) 0x581-0x581.7 (1)
0x580|      10                                       |  .             |        idx: 16 (valid) 0x582-0x582.7 (1)
     |                                               |                |      [5]{}: local_time_type 0x583-0x588.7 (6)
0x580|         00 00 70 80                           |   ..p.         |        utoff: 28800 (valid) 0x583-0x586.7 (4)
0x580|                     00                        |       .        |        dst: 0 (valid) 0x587-0x587.7 (1)
0x580|                        04                     |        .       |        idx: 4 (valid) 0x588-0x588.7 (1)
     |                                               |                |      [6]{}: local_time_type 0x589-0x58e.7 (6)
0x580|                           00 00 7e 90         |         ..~.   |        utoff: 32400 (valid) 0x589-0x58c.7 (4)
0x580|                                       01      |             .  |        dst: 1 (valid) 0x58d-0x58d.7 (1)
0x580|                                          10   |              . |        idx: 16 (valid) 0x58e-0x58e.7 (1)
     |                                               |                |    time_zone_designations[0:5]: 0x58f-0x5a2.7 (20)
0x580|                                             4c|               L|      [0]: "LMT" time_zone_designation 0x58f-0x592.7 (4)
0x590|4d 54 00                                       |MT.             |
0x590|         43 53 54 00                           |   CST.         |      [1]: "CST" time_zone_designation 0x593-0x596.7 (4)
0x590|                     2b 31 30 00               |       +10.     |      [2]: "+10" time_zone_designation 0x597-0x59a.7 (4)
0x590|                                 2b 30 39 00   |           +09. |      [3]: "+09" time_zone_designation 0x59b-0x59e.7 (4)
0x590|                                             43|               C|      [4]: "CDT" time_zone_designation 0x59f-0x5a2.7 (4)
0x5a0|44 54 00                                       |DT.             |
     |                                               |                |    leap_second_records[0:27]: 0x5a3-0x6e6.7 (324)
     |                                               |                |      [0]{}: leap_second_record 0x5a3-0x5ae.7 (12)
0x5a0|         00 00 00 00 04 b2 58 00               |   ......X.     |        occur: "1972-07-01T00:00:00Z" (78796800) 0x5a3-0x5aa.7 (8)
0x5a0|                                 00 00 00 01   |           .... |        corr: 1 0x5ab-0x5ae.7 (4)
     |                                               |                |      [1]{}: leap_second_record 0x5af-0x5ba.7 (12)
0x5a0|                                             00|               .|        occur: "1973-01-01T00:00:01Z" (94694401) 0x5af-0x5b6.7 (8)
0x5b0|00 00 00 05 a4 ec 01                           |.......         |
0x5b0|                     00 00 00 02               |       ....     |        corr: 2 0x5b7-0x5ba.7 (4)
     |                                               |                |      [2]{}: leap_second_record 0x5bb-0x5c6.7 (12)
0x5b0|                                 00 00 00 00 07|           .....|        occur: "1974-01-01T00:00:02Z" (126230402) 0x5bb-0x5c2.7 (8)
0x5c0|86 1f 82                                       |...             |
0x5c0|         00 00 00 03                           |   ....         |        corr: 3 0x5c3-0x5c6.7 (4)
     |                                               |                |      [3]{}: leap_second_record 0x5c7-0x5d2.7 (12)
0x5c0|                     00 00 00 00 09 67 53 03   |       .....gS. |        occur: "1975-01-01T00:00:03Z" (157766403) 0x5c7-0x5ce.7 (8)
0x5c0|                                             00|               .|        corr: 4 0x5cf-0x5d2.7 (4)
0x5d0|00 00 04                                       |...             |
     |                                               |                |      [4]{}: leap_second_record 0x5d3-0x5de.7 (12)
0x5d0|         00 00 00 00 0b 48 86 84               |   .....H..     |        occur: "1976-01-01T00:00:04Z" (189302404) 0x5d3-0x5da.7 (8)
0x5d0|                                 00 00 00 05   |           .... |        corr: 5 0x5db-0x5de.7 (4)
     |                                               |                |      [5]{}: leap_second_record 0x5df-0x5ea.7 (12)
0x5d0|                                             00|               .|        occur: "1977-01-01T00:00:05Z" (220924805) 0x5df-0x5e6.7 (8)
0x5e0|00 00 00 0d 2b 0b 85                           |....+..         |
0x5e0|                     00 00 00 06               |       ....     |        corr: 6 0x5e7-0x5ea.7 (4)
     |                                               |                |      [6]{}: leap_second_record 0x5eb-0x5f6.7 (12)
0x5e0|                                 00 00 00 00 0f|           .....|        occur: "1978-01-01T00:00:06Z" (252460806) 0x5eb-0x5f2.7 (8)
0x5f0|0c 3f 06                                       |.?.             |
0x5f0|         00 00 00 07                           |   ....         |        corr: 7 0x5f3-0x5f6.7 (4)
     |                                               |                |      [7]{}: leap_second_record 0x5f7-0x602.7 (12)
0x5f0|                     00 00 00 00 10 ed 72 87   |       ......r. |        occur: "1979-01-01T00:00:07Z" (283996807) 0x5f7-0x5fe.7 (8)
0x5f0|                                             00|               .|        corr: 8 0x5ff-0x602.7 (4)
0x600|00 00 08                                       |...             |
     |                                               |                |      [8]{}: leap_second_record 0x603-0x60e.7 (12)
0x600|         00 00 00 00 12 ce a6 08               |   ........     |        occur: "1980-01-01T00:00:08Z" (315532808) 0x603-0x60a.7 (8)
0x600|                                 00 00 00 09   |           .... |        corr: 9 0x60b-0x60e.7 (4)
     |                                               |                |      [9]{}: leap_second_record 0x60f-0x61a.7 (12)
0x600|                                             00|               .|        occur: "1981-07-01T00:00:09Z" (362793609) 0x60f-0x616.7 (8)
0x610|00 00 00 15 9f ca 89                           |.......         |
0x610|                     00 00 00 0a               |       ....     |        corr: 10 0x617-0x61a.7 (4)
     |                                               |                |      [10]{}: leap_second_record 0x61b-0x626.7 (12)
0x610|                                 00 00 00 00 17|           .....|        occur: "1982-07-01T00:00:10Z" (394329610) 0x61b-0x622.7 (8)
0x620|80 fe 0a                                       |...             |
0x620|         00 00 00 0b                           |   ....         |        corr: 11 0x623-0x626.7 (4)
     |                                               |                |      [11]{}: leap_second_record 0x627-0x632.7 (12)
0x620|                     00 00 00 00 19 62 31 8b   |       .....b1. |        occur: "1983-07-01T00:00:11Z" (425865611) 0x627-0x62e.7 (8)
0x620|                                             00|               .|        corr: 12 0x62f-0x632.7 (4)
0x630|00 00 0c                                       |...             |
     |                                               |                |      [12]{}: leap_second_record 0x633-0x63e.7 (12)
0x630|         00 00 00 00 1d 25 ea 0c               |   .....%..     |        occur: "1985-07-01T00:00:12Z" (489024012) 0x633-0x63a.7 (8)
0x630|                                 00 00 00 0d   |           .... |        corr: 13 0x63b-0x63e.7 (4)
     |                                               |                |      [13]{}: leap_second_record 0x63f-0x64a.7 (12)
0x630|                                             00|               .|        occur: "1988-01-01T00:00:13Z" (567993613) 0x63f-0x646.7 (8)
0x640|00 00 00 21 da e5 0d                           |...!...         |
0x640|                     00 00 00 0e               |       ....     |        corr: 14 0x647-0x64a.7 (4)
     |                                               |                |      [14]{}: leap_second_record 0x64b-0x656.7 (12)
0x640|                                 00 00 00 00 25|           ....%|        occur: "1990-01-01T00:00:14Z" (631152014) 0x64b-0x652.7 (8)
0x650|9e 9d 8e                                       |...             |
0x650|         00 00 00 0f                           |   ....         |        corr: 15 0x653-0x656.7 (4)
     |                                               |                |      [15]{}: leap_second_record 0x657-0x662.7 (12)
0x650|                     00 00 00 00 27 7f d1 0f   |       ....'... |        occur: "1991-01-01T00:00:15Z" (662688015) 0x657-0x65e.7 (8)
0x650|                                             00|               .|        corr: 16 0x65f-0x662.7 (4)
0x660|00 00 10                                       |...             |
     |                                               |                |      [16]{}: leap_second_record 0x663-0x66e.7 (12)
0x660|         00 00 00 00 2a 50 f5 90               |   ....*P..     |        occur: "1992-07-01T00:00:16Z" (709948816) 0x663-0x66a.7 (8)
0x660|                                 00 00 00 11   |           .... |        corr: 17 0x66b-0x66e.7 (4)
     |                                               |                |      [17]{}: leap_second_record 0x66f-0x67a.7 (12)
0x660|                                             00|               .|        occur: "1993-07-01T00:00:17Z" (741484817) 0x66f-0x676.7 (8)
0x670|00 00 00 2c 32 29 11                           |...,2).         |
0x670|                     00 00 00 12               |       ....     |        corr: 18 0x677-0x67a.7 (4)
     |                                               |                |      [18]{}: leap_second_record 0x67b-0x686.7 (12)
0x670|                                 00 00 00 00 2e|           .....|        occur: "1994-07-01T00:00:18Z" (773020818) 0x67b-0x682.7 (8)
0x680|13 5c 92                                       |.\.             |
0x680|         00 00 00 13                           |   ....         |        corr: 19 0x683-0x686.7 (4)
     |                                               |                |      [19]{}: leap_second_record 0x687-0x692.7 (12)
0x680|                     00 00 00 00 30 e7 24 13   |       ....0.$. |        occur: "1996-01-01T00:00:19Z" (820454419) 0x687-0x68e.7 (8)
0x680|                                             00|               .|        corr: 20 0x68f-0x692.7 (4)
0x690|00 00 14                                       |...             |
     |                                               |                |      [20]{}: leap_second_record 0x693-0x69e.7 (12)
0x690|         00 00 00 00 33 b8 48 94               |   ....3.H.     |        occur: "1997-07-01T00:00:20Z" (867715220) 0x693-0x69a.7 (8)
0x690|                                 00 00 00 15   |           .... |        corr: 21 0x69b-0x69e.7 (4)
     |                                               |                |      [21]{}: leap_second_record 0x69f-0x6aa.7 (12)
0x690|                                             00|               .|        occur: "1999-01-01T00:00:21Z" (915148821) 0x69f-0x6a6.7 (8)
0x6a0|00 00 00 36 8c 10 15                           |...6...         |
0x6a0|                     00 00 00 16               |       ....     |        corr: 22 0x6a7-0x6aa.7 (4)
     |                                               |                |      [22]{}: leap_second_record 0x6ab-0x6b6.7 (12)
0x6a0|                                 00 00 00 00 43|           ....C|        occur: "2006-01-01T00:00:22Z" (1136073622) 0x6ab-0x6b2.7 (8)
0x6b0|b7 1b 96                                       |...             |
0x6b0|         00 00 00 17                           |   ....         |        corr: 23 0x6b3-0x6b6.7 (4)
     |                                               |                |      [23]{}: leap_second_record 0x6b7-0x6c2.7 (12)
0x6b0|                     00 00 00 00 49 5c 07 97   |       ....I\.. |        occur: "2009-01-01T00:00:23Z" (1230768023) 0x6b7-0x6be.7 (8)
0x6b0|                                             00|               .|        corr: 24 0x6bf-0x6c2.7 (4)
0x6c0|00 00 18                                       |...             |
     |                                               |                |      [24]{}: leap_second_record 0x6c3-0x6ce.7 (12)
0x6c0|         00 00 00 00 4f ef 93 18               |   ....O...     |        occur: "2012-07-01T00:00:24Z" (1341100824) 0x6c3-0x6ca.7 (8)
0x6c0|                                 00 00 00 19   |           .... |        corr: 25 0x6cb-0x6ce.7 (4)
     |                                               |                |      [25]{}: leap_second_record 0x6cf-0x6da.7 (12)
0x6c0|                                             00|               .|        occur: "2015-07-01T00:00:25Z" (1435708825) 0x6cf-0x6d6.7 (8)
0x6d0|00 00 00 55 93 2d 99                           |...U.-.         |
0x6d0|                     00 00 00 1a               |       ....     |        corr: 26 0x6d7-0x6da.7 (4)
     |                                               |                |      [26]{}: leap_second_record 0x6db-0x6e6.7 (12)
0x6d0|                                 00 00 00 00 58|           ....X|        occur: "2017-01-01T00:00:26Z" (1483228826) 0x6db-0x6e2.7 (8)
0x6e0|68 46 9a                                       |hF.             |
0x6e0|         00 00 00 1b                           |   ....         |        corr: 27 0x6e3-0x6e6.7 (4)
     |                                               |                |    standard_wall_indicators[0:7]: 0x6e7-0x6ed.7 (7)
0x6e0|                     00                        |       .        |      [0]: 0 standard_wall_indicator (valid) 0x6e7-0x6e7.7 (1)
0x6e0|                        00                     |        .       |      [1]: 0 standard_wall_indicator (valid) 0x6e8-0x6e8.7 (1)
0x6e0|                           00                  |         .      |      [2]: 0 standard_wall_indicator (valid) 0x6e9-0x6e9.7 (1)
0x6e0|                              00               |          .     |      [3]: 0 standard_wall_indicator (valid) 0x6ea-0x6ea.7 (1)
0x6e0|                                 01            |           .    |      [4]: 1 standard_wall_indicator (valid) 0x6eb-0x6eb.7 (1)
0x6e0|                                    01         |            .   |      [5]: 1 standard_wall_indicator (valid) 0x6ec-0x6ec.7 (1)
0x6e0|                                       00      |             .  |      [6]: 0 standard_wall_indicator (valid) 0x6ed-0x6ed.7 (1)
     |                                               |                |    ut_local_indicators[0:0]: 0x6ee-NA (0)
     |                                               |                |  footer{}: 0x6ee-0x6ef.7 (2)
0x6e0|                                          0a   |              . |    nl1: 10 (valid) 0x6ee-0x6ee.7 (1)
     |                                               |                |    tz_string: "" 0x6ef-NA (0)
0x6e0|                                             0a|               .|    nl2: 10 (valid) 0x6ef-0x6ef.7 (1)
