$ fq -d tzif dv Macquarie
     |00 01 02 03 04 05 06 07 08 09 0a 0b 0c 0d 0e 0f|0123456789abcdef|.{}: Macquarie (tzif) 0x0-0x94c (2380)
     |                                               |                |  v1header{}: 0x0-0x2c (44)
0x000|54 5a 69 66                                    |TZif            |    magic: 0x545a6966 (valid) 0x0-0x4 (4)
0x000|            32                                 |    2           |    ver: "2" (0x32) (valid) 0x4-0x5 (1)
0x000|               00 00 00 00 00 00 00 00 00 00 00|     ...........|    reserved: raw bits 0x5-0x14 (15)
0x010|00 00 00 00                                    |....            |
0x010|            00 00 00 00                        |    ....        |    isutcnt: 0 0x14-0x18 (4)
0x010|                        00 00 00 07            |        ....    |    isstdcnt: 7 0x18-0x1c (4)
0x010|                                    00 00 00 1b|            ....|    leapcnt: 27 0x1c-0x20 (4)
0x020|00 00 00 74                                    |...t            |    timecnt: 116 0x20-0x24 (4)
0x020|            00 00 00 07                        |    ....        |    typecnt: 7 0x24-0x28 (4)
0x020|                        00 00 00 0e            |        ....    |    charcnt: 14 0x28-0x2c (4)
     |                                               |                |  v1datablock{}: 0x2c-0x387 (859)
     |                                               |                |    transition_times[0:116]: 0x2c-0x1fc (464)
0x020|                                    80 00 00 00|            ....|      [0]: "1901-12-13T20:45:52Z" (-2147483648) transition_time 0x2c-0x30 (4)
0x030|9b d5 78 80                                    |..x.            |      [1]: "1916-09-30T16:00:00Z" (-1680508800) transition_time 0x30-0x34 (4)
0x030|            9c bc 2f 00                        |    ../.        |      [2]: "1917-03-24T16:00:00Z" (-1665388800) transition_time 0x34-0x38 (4)
0x030|                        a0 87 b4 60            |        ...`    |      [3]: "1919-03-31T14:00:00Z" (-1601719200) transition_time 0x38-0x3c (4)
0x030|                                    d7 0c 68 00|            ..h.|      [4]: "1948-03-25T00:00:00Z" (-687052800) transition_time 0x3c-0x40 (4)
0x040|fb c2 8d 00                                    |....            |      [5]: "1967-09-30T16:00:00Z" (-71136000) transition_time 0x40-0x44 (4)
0x040|            fc b2 7e 00                        |    ..~.        |      [6]: "1968-03-30T16:00:00Z" (-55411200) transition_time 0x44-0x48 (4)
0x040|                        fd c7 59 00            |        ..Y.    |      [7]: "1968-10-26T16:00:00Z" (-37267200) transition_time 0x48-0x4c (4)
0x040|                                    fe 76 b0 80|            .v..|      [8]: "1969-03-08T16:00:00Z" (-25776000) transition_time 0x4c-0x50 (4)
0x050|ff a7 3b 00                                    |..;.            |      [9]: "1969-10-25T16:00:00Z" (-5817600) transition_time 0x50-0x54 (4)
0x050|            00 56 92 80                        |    .V..        |      [10]: "1970-03-07T16:00:00Z" (5673600) transition_time 0x54-0x58 (4)
0x050|                        01 87 1d 00            |        ....    |      [11]: "1970-10-24T16:00:00Z" (25632000) transition_time 0x58-0x5c (4)
0x050|                                    02 3f af 00|            .?..|      [12]: "1971-03-13T16:00:00Z" (37728000) transition_time 0x5c-0x60 (4)
0x060|03 70 39 80                                    |.p9.            |      [13]: "1971-10-30T16:00:00Z" (57686400) transition_time 0x60-0x64 (4)
0x060|            04 0d 1c 00                        |    ....        |      [14]: "1972-02-26T16:00:00Z" (67968000) transition_time 0x64-0x68 (4)
0x060|                        05 50 1b 81            |        .P..    |      [15]: "1972-10-28T16:00:01Z" (89136001) transition_time 0x68-0x6c (4)
0x060|                                    05 f6 38 82|            ..8.|      [16]: "1973-03-03T16:00:02Z" (100022402) transition_time 0x6c-0x70 (4)
0x070|07 2f fd 82                                    |./..            |      [17]: "1973-10-27T16:00:02Z" (120585602) transition_time 0x70-0x74 (4)
0x070|            07 d6 1a 83                        |    ....        |      [18]: "1974-03-02T16:00:03Z" (131472003) transition_time 0x74-0x78 (4)
0x070|                        09 0f df 83            |        ....    |      [19]: "1974-10-26T16:00:03Z" (152035203) transition_time 0x78-0x7c (4)
0x070|                                    09 b5 fc 84|            ....|      [20]: "1975-03-01T16:00:04Z" (162921604) transition_time 0x7c-0x80 (4)
0x080|0a ef c1 84                                    |....            |      [21]: "1975-10-25T16:00:04Z" (183484804) transition_time 0x80-0x84 (4)
0x080|            0b 9f 19 05                        |    ....        |      [22]: "1976-03-06T16:00:05Z" (194976005) transition_time 0x84-0x88 (4)
0x080|                        0c d8 de 05            |        ....    |      [23]: "1976-10-30T16:00:05Z" (215539205) transition_time 0x88-0x8c (4)
0x080|                                    0d 7e fb 06|            .~..|      [24]: "1977-03-05T16:00:06Z" (226425606) transition_time 0x8c-0x90 (4)
0x090|0e b8 c0 06                                    |....            |      [25]: "1977-10-29T16:00:06Z" (246988806) transition_time 0x90-0x94 (4)
0x090|            0f 5e dd 07                        |    .^..        |      [26]: "1978-03-04T16:00:07Z" (257875207) transition_time 0x94-0x98 (4)
0x090|                        10 98 a2 07            |        ....    |      [27]: "1978-10-28T16:00:07Z" (278438407) transition_time 0x98-0x9c (4)
0x090|                                    11 3e bf 08|            .>..|      [28]: "1979-03-03T16:00:08Z" (289324808) transition_time 0x9c-0xa0 (4)
0x0a0|12 78 84 08                                    |.x..            |      [29]: "1979-10-27T16:00:08Z" (309888008) transition_time 0xa0-0xa4 (4)
0x0a0|            13 1e a1 09                        |    ....        |      [30]: "1980-03-01T16:00:09Z" (320774409) transition_time 0xa4-0xa8 (4)
0x0a0|                        14 58 66 09            |        .Xf.    |      [31]: "1980-10-25T16:00:09Z" (341337609) transition_time 0xa8-0xac (4)
0x0a0|                                    14 fe 83 09|            ....|      [32]: "1981-02-28T16:00:09Z" (352224009) transition_time 0xac-0xb0 (4)
0x0b0|16 38 48 0a                                    |.8H.            |      [33]: "1981-10-24T16:00:10Z" (372787210) transition_time 0xb0-0xb4 (4)
0x0b0|            17 03 4f 0a                        |    ..O.        |      [34]: "1982-03-27T16:00:10Z" (386092810) transition_time 0xb4-0xb8 (4)
0x0b0|                        18 21 64 8b            |        .!d.    |      [35]: "1982-10-30T16:00:11Z" (404841611) transition_time 0xb8-0xbc (4)
0x0b0|                                    18 e3 31 0b|            ..1.|      [36]: "1983-03-26T16:00:11Z" (417542411) transition_time 0xbc-0xc0 (4)
0x0c0|1a 01 46 8c                                    |..F.            |      [37]: "1983-10-29T16:00:12Z" (436291212) transition_time 0xc0-0xc4 (4)
0x0c0|            1a a7 63 8c                        |    ..c.        |      [38]: "1984-03-03T16:00:12Z" (447177612) transition_time 0xc4-0xc8 (4)
0x0c0|                        1b e1 28 8c            |        ..(.    |      [39]: "1984-10-27T16:00:12Z" (467740812) transition_time 0xc8-0xcc (4)
0x0c0|                                    1c 87 45 8c|            ..E.|      [40]: "1985-03-02T16:00:12Z" (478627212) transition_time 0xcc-0xd0 (4)
0x0d0|1d c1 0a 8d                                    |....            |      [41]: "1985-10-26T16:00:13Z" (499190413) transition_time 0xd0-0xd4 (4)
0x0d0|            1e 67 27 8d                        |    .g'.        |      [42]: "1986-03-01T16:00:13Z" (510076813) transition_time 0xd4-0xd8 (4)
0x0d0|                        1f 97 b2 0d            |        ....    |      [43]: "1986-10-18T16:00:13Z" (530035213) transition_time 0xd8-0xdc (4)
0x0d0|                                    20 59 7e 8d|             Y~.|      [44]: "1987-03-14T16:00:13Z" (542736013) transition_time 0xdc-0xe0 (4)
0x0e0|21 80 ce 8d                                    |!...            |      [45]: "1987-10-24T16:00:13Z" (562089613) transition_time 0xe0-0xe4 (4)
0x0e0|            22 42 9b 0e                        |    "B..        |      [46]: "1988-03-19T16:00:14Z" (574790414) transition_time 0xe4-0xe8 (4)
0x0e0|                        23 69 eb 0e            |        #i..    |      [47]: "1988-10-29T16:00:14Z" (594144014) transition_time 0xe8-0xec (4)
0x0e0|                                    24 22 7d 0e|            $"}.|      [48]: "1989-03-18T16:00:14Z" (606240014) transition_time 0xec-0xf0 (4)
0x0f0|25 49 cd 0e                                    |%I..            |      [49]: "1989-10-28T16:00:14Z" (625593614) transition_time 0xf0-0xf4 (4)
0x0f0|            26 02 5f 0f                        |    &._.        |      [50]: "1990-03-17T16:00:15Z" (637689615) transition_time 0xf4-0xf8 (4)
0x0f0|                        27 29 af 0f            |        ')..    |      [51]: "1990-10-27T16:00:15Z" (657043215) transition_time 0xf8-0xfc (4)
0x0f0|                                    27 f4 b6 10|            '...|      [52]: "1991-03-30T16:00:16Z" (670348816) transition_time 0xfc-0x100 (4)
0x100|28 ed e1 90                                    |(...            |      [53]: "1991-10-05T16:00:16Z" (686678416) transition_time 0x100-0x104 (4)
0x100|            29 d4 98 10                        |    )...        |      [54]: "1992-03-28T16:00:16Z" (701798416) transition_time 0x104-0x108 (4)
0x100|                        2a cd c3 91            |        *...    |      [55]: "1992-10-03T16:00:17Z" (718128017) transition_time 0x108-0x10c (4)
0x100|                                    2b b4 7a 11|            +.z.|      [56]: "1993-03-27T16:00:17Z" (733248017) transition_time 0x10c-0x110 (4)
0x110|2c ad a5 92                                    |,...            |      [57]: "1993-10-02T16:00:18Z" (749577618) transition_time 0x110-0x114 (4)
0x110|            2d 94 5c 12                        |    -.\.        |      [58]: "1994-03-26T16:00:18Z" (764697618) transition_time 0x114-0x118 (4)
0x110|                        2e 8d 87 93            |        ....    |      [59]: "1994-10-01T16:00:19Z" (781027219) transition_time 0x118-0x11c (4)
0x110|                                    2f 74 3e 13|            /t>.|      [60]: "1995-03-25T16:00:19Z" (796147219) transition_time 0x11c-0x120 (4)
0x120|30 6d 69 93                                    |0mi.            |      [61]: "1995-09-30T16:00:19Z" (812476819) transition_time 0x120-0x124 (4)
0x120|            31 5d 5a 94                        |    1]Z.        |      [62]: "1996-03-30T16:00:20Z" (828201620) transition_time 0x124-0x128 (4)
0x120|                        32 56 86 14            |        2V..    |      [63]: "1996-10-05T16:00:20Z" (844531220) transition_time 0x128-0x12c (4)
0x120|                                    33 3d 3c 94|            3=<.|      [64]: "1997-03-29T16:00:20Z" (859651220) transition_time 0x12c-0x130 (4)
0x130|34 36 68 15                                    |46h.            |      [65]: "1997-10-04T16:00:21Z" (875980821) transition_time 0x130-0x134 (4)
0x130|            35 1d 1e 95                        |    5...        |      [66]: "1998-03-28T16:00:21Z" (891100821) transition_time 0x134-0x138 (4)
0x130|                        36 16 4a 15            |        6.J.    |      [67]: "1998-10-03T16:00:21Z" (907430421) transition_time 0x138-0x13c (4)
0x130|                                    36 fd 00 96|            6...|      [68]: "1999-03-27T16:00:22Z" (922550422) transition_time 0x13c-0x140 (4)
0x140|37 f6 2c 16                                    |7.,.            |      [69]: "1999-10-02T16:00:22Z" (938880022) transition_time 0x140-0x144 (4)
0x140|            38 dc e2 96                        |    8...        |      [70]: "2000-03-25T16:00:22Z" (954000022) transition_time 0x144-0x148 (4)
0x140|                        39 a7 e9 96            |        9...    |      [71]: "2000-08-26T16:00:22Z" (967305622) transition_time 0x148-0x14c (4)
0x140|                                    3a bc c4 96|            :...|      [72]: "2001-03-24T16:00:22Z" (985449622) transition_time 0x14c-0x150 (4)
0x150|3b bf 2a 96                                    |;.*.            |      [73]: "2001-10-06T16:00:22Z" (1002384022) transition_time 0x150-0x154 (4)
0x150|            3c a5 e1 16                        |    <...        |      [74]: "2002-03-30T16:00:22Z" (1017504022) transition_time 0x154-0x158 (4)
0x150|                        3d 9f 0c 96            |        =...    |      [75]: "2002-10-05T16:00:22Z" (1033833622) transition_time 0x158-0x15c (4)
0x150|                                    3e 85 c3 16|            >...|      [76]: "2003-03-29T16:00:22Z" (1048953622) transition_time 0x15c-0x160 (4)
0x160|3f 7e ee 96                                    |?~..            |      [77]: "2003-10-04T16:00:22Z" (1065283222) transition_time 0x160-0x164 (4)
0x160|            40 65 a5 16                        |    @e..        |      [78]: "2004-03-27T16:00:22Z" (1080403222) transition_time 0x164-0x168 (4)
0x160|                        41 5e d0 96            |        A^..    |      [79]: "2004-10-02T16:00:22Z" (1096732822) transition_time 0x168-0x16c (4)
0x160|                                    42 45 87 16|            BE..|      [80]: "2005-03-26T16:00:22Z" (1111852822) transition_time 0x16c-0x170 (4)
0x170|43 3e b2 96                                    |C>..            |      [81]: "2005-10-01T16:00:22Z" (1128182422) transition_time 0x170-0x174 (4)
0x170|            44 2e a3 97                        |    D...        |      [82]: "2006-04-01T16:00:23Z" (1143907223) transition_time 0x174-0x178 (4)
0x170|                        45 1e 94 97            |        E...    |      [83]: "2006-09-30T16:00:23Z" (1159632023) transition_time 0x178-0x17c (4)
0x170|                                    46 05 4b 17|            F.K.|      [84]: "2007-03-24T16:00:23Z" (1174752023) transition_time 0x17c-0x180 (4)
0x180|47 07 b1 17                                    |G...            |      [85]: "2007-10-06T16:00:23Z" (1191686423) transition_time 0x180-0x184 (4)
0x180|            47 f7 a2 17                        |    G...        |      [86]: "2008-04-05T16:00:23Z" (1207411223) transition_time 0x184-0x188 (4)
0x180|                        48 e7 93 17            |        H...    |      [87]: "2008-10-04T16:00:23Z" (1223136023) transition_time 0x188-0x18c (4)
0x180|                                    49 d7 84 18|            I...|      [88]: "2009-04-04T16:00:24Z" (1238860824) transition_time 0x18c-0x190 (4)
0x190|4a c7 75 18                                    |J.u.            |      [89]: "2009-10-03T16:00:24Z" (1254585624) transition_time 0x190-0x194 (4)
0x190|            4d 97 48 18                        |    M.H.        |      [90]: "2011-04-02T16:00:24Z" (1301760024) transition_time 0x194-0x198 (4)
0x190|                        4e 87 39 18            |        N.9.    |      [91]: "2011-10-01T16:00:24Z" (1317484824) transition_time 0x198-0x19c (4)
0x190|                                    4f 77 2a 18|            Ow*.|      [92]: "2012-03-31T16:00:24Z" (1333209624) transition_time 0x19c-0x1a0 (4)
0x1a0|50 70 55 99                                    |PpU.            |      [93]: "2012-10-06T16:00:25Z" (1349539225) transition_time 0x1a0-0x1a4 (4)
0x1a0|            51 60 46 99                        |    Q`F.        |      [94]: "2013-04-06T16:00:25Z" (1365264025) transition_time 0x1a4-0x1a8 (4)
0x1a0|                        52 50 37 99            |        RP7.    |      [95]: "2013-10-05T16:00:25Z" (1380988825) transition_time 0x1a8-0x1ac (4)
0x1a0|                                    53 40 28 99|            S@(.|      [96]: "2014-04-05T16:00:25Z" (1396713625) transition_time 0x1ac-0x1b0 (4)
0x1b0|54 30 19 99                                    |T0..            |      [97]: "2014-10-04T16:00:25Z" (1412438425) transition_time 0x1b0-0x1b4 (4)
0x1b0|            55 20 0a 99                        |    U ..        |      [98]: "2015-04-04T16:00:25Z" (1428163225) transition_time 0x1b4-0x1b8 (4)
0x1b0|                        56 0f fb 9a            |        V...    |      [99]: "2015-10-03T16:00:26Z" (1443888026) transition_time 0x1b8-0x1bc (4)
0x1b0|                                    56 ff ec 9a|            V...|      [100]: "2016-04-02T16:00:26Z" (1459612826) transition_time 0x1bc-0x1c0 (4)
0x1c0|57 ef dd 9a                                    |W...            |      [101]: "2016-10-01T16:00:26Z" (1475337626) transition_time 0x1c0-0x1c4 (4)
0x1c0|            58 df ce 9b                        |    X...        |      [102]: "2017-04-01T16:00:27Z" (1491062427) transition_time 0x1c4-0x1c8 (4)
0x1c0|                        59 cf bf 9b            |        Y...    |      [103]: "2017-09-30T16:00:27Z" (1506787227) transition_time 0x1c8-0x1cc (4)
0x1c0|                                    5a bf b0 9b|            Z...|      [104]: "2018-03-31T16:00:27Z" (1522512027) transition_time 0x1cc-0x1d0 (4)
0x1d0|5b b8 dc 1b                                    |[...            |      [105]: "2018-10-06T16:00:27Z" (1538841627) transition_time 0x1d0-0x1d4 (4)
0x1d0|            5c a8 cd 1b                        |    \...        |      [106]: "2019-04-06T16:00:27Z" (1554566427) transition_time 0x1d4-0x1d8 (4)
0x1d0|                        5d 98 be 1b            |        ]...    |      [107]: "2019-10-05T16:00:27Z" (1570291227) transition_time 0x1d8-0x1dc (4)
0x1d0|                                    5e 88 af 1b|            ^...|      [108]: "2020-04-04T16:00:27Z" (1586016027) transition_time 0x1dc-0x1e0 (4)
0x1e0|5f 78 a0 1b                                    |_x..            |      [109]: "2020-10-03T16:00:27Z" (1601740827) transition_time 0x1e0-0x1e4 (4)
0x1e0|            60 68 91 1b                        |    `h..        |      [110]: "2021-04-03T16:00:27Z" (1617465627) transition_time 0x1e4-0x1e8 (4)
0x1e0|                        61 58 82 1b            |        aX..    |      [111]: "2021-10-02T16:00:27Z" (1633190427) transition_time 0x1e8-0x1ec (4)
0x1e0|                                    62 48 73 1b|            bHs.|      [112]: "2022-04-02T16:00:27Z" (1648915227) transition_time 0x1ec-0x1f0 (4)
0x1f0|63 38 64 1b                                    |c8d.            |      [113]: "2022-10-01T16:00:27Z" (1664640027) transition_time 0x1f0-0x1f4 (4)
0x1f0|            64 28 55 1b                        |    d(U.        |      [114]: "2023-04-01T16:00:27Z" (1680364827) transition_time 0x1f4-0x1f8 (4)
0x1f0|                        64 9b 78 1b            |        d.x.    |      [115]: "2023-06-28T00:00:27Z" (1687910427) transition_time 0x1f8-0x1fc (4)
     |                                               |                |    transition_types[0:116]: 0x1fc-0x270 (116)
0x1f0|                                    01         |            .   |      [0]: 1 transition_type 0x1fc-0x1fd (1)
0x1f0|                                       02      |             .  |      [1]: 2 transition_type 0x1fd-0x1fe (1)
0x1f0|                                          03   |              . |      [2]: 3 transition_type 0x1fe-0x1ff (1)
0x1f0|                                             04|               .|      [3]: 4 transition_type 0x1ff-0x200 (1)
0x200|01                                             |.               |      [4]: 1 transition_type 0x200-0x201 (1)
0x200|   05                                          | .              |      [5]: 5 transition_type 0x201-0x202 (1)
0x200|      03                                       |  .             |      [6]: 3 transition_type 0x202-0x203 (1)
0x200|         05                                    |   .            |      [7]: 5 transition_type 0x203-0x204 (1)
0x200|            03                                 |    .           |      [8]: 3 transition_type 0x204-0x205 (1)
0x200|               05                              |     .          |      [9]: 5 transition_type 0x205-0x206 (1)
0x200|                  03                           |      .         |      [10]: 3 transition_type 0x206-0x207 (1)
0x200|                     05                        |       .        |      [11]: 5 transition_type 0x207-0x208 (1)
0x200|                        03                     |        .       |      [12]: 3 transition_type 0x208-0x209 (1)
0x200|                           05                  |         .      |      [13]: 5 transition_type 0x209-0x20a (1)
0x200|                              03               |          .     |      [14]: 3 transition_type 0x20a-0x20b (1)
0x200|                                 05            |           .    |      [15]: 5 transition_type 0x20b-0x20c (1)
0x200|                                    03         |            .   |      [16]: 3 transition_type 0x20c-0x20d (1)
0x200|                                       05      |             .  |      [17]: 5 transition_type 0x20d-0x20e (1)
0x200|                                          03   |              . |      [18]: 3 transition_type 0x20e-0x20f (1)
0x200|                                             05|               .|      [19]: 5 transition_type 0x20f-0x210 (1)
0x210|03                                             |.               |      [20]: 3 transition_type 0x210-0x211 (1)
0x210|   05                                          | .              |      [21]: 5 transition_type 0x211-0x212 (1)
0x210|      03                                       |  .             |      [22]: 3 transition_type 0x212-0x213 (1)
0x210|         05                                    |   .            |      [23]: 5 transition_type 0x213-0x214 (1)
0x210|            03                                 |    .           |      [24]: 3 transition_type 0x214-0x215 (1)
0x210|               05                              |     .          |      [25]: 5 transition_type 0x215-0x216 (1)
0x210|                  03                           |      .         |      [26]: 3 transition_type 0x216-0x217 (1)
0x210|                     05                        |       .        |      [27]: 5 transition_type 0x217-0x218 (1)
0x210|                        03                     |        .       |      [28]: 3 transition_type 0x218-0x219 (1)
0x210|                           05                  |         .      |      [29]: 5 transition_type 0x219-0x21a (1)
0x210|                              03               |          .     |      [30]: 3 transition_type 0x21a-0x21b (1)
0x210|                                 05            |           .    |      [31]: 5 transition_type 0x21b-0x21c (1)
0x210|                                    03         |            .   |      [32]: 3 transition_type 0x21c-0x21d (1)
0x210|                                       05      |             .  |      [33]: 5 transition_type 0x21d-0x21e (1)
0x210|                                          03   |              . |      [34]: 3 transition_type 0x21e-0x21f (1)
0x210|                                             05|               .|      [35]: 5 transition_type 0x21f-0x220 (1)
0x220|03                                             |.               |      [36]: 3 transition_type 0x220-0x221 (1)
0x220|   05                                          | .              |      [37]: 5 transition_type 0x221-0x222 (1)
0x220|      03                                       |  .             |      [38]: 3 transition_type 0x222-0x223 (1)
0x220|         05                                    |   .            |      [39]: 5 transition_type 0x223-0x224 (1)
0x220|            03                                 |    .           |      [40]: 3 transition_type 0x224-0x225 (1)
0x220|               05                              |     .          |      [41]: 5 transition_type 0x225-0x226 (1)
0x220|                  03                           |      .         |      [42]: 3 transition_type 0x226-0x227 (1)
0x220|                     05                        |       .        |      [43]: 5 transition_type 0x227-0x228 (1)
0x220|                        03                     |        .       |      [44]: 3 transition_type 0x228-0x229 (1)
0x220|                           05                  |         .      |      [45]: 5 transition_type 0x229-0x22a (1)
0x220|                              03               |          .     |      [46]: 3 transition_type 0x22a-0x22b (1)
0x220|                                 05            |           .    |      [47]: 5 transition_type 0x22b-0x22c (1)
0x220|                                    03         |            .   |      [48]: 3 transition_type 0x22c-0x22d (1)
0x220|                                       05      |             .  |      [49]: 5 transition_type 0x22d-0x22e (1)
0x220|                                          03   |              . |      [50]: 3 transition_type 0x22e-0x22f (1)
0x220|                                             05|               .|      [51]: 5 transition_type 0x22f-0x230 (1)
0x230|03                                             |.               |      [52]: 3 transition_type 0x230-0x231 (1)
0x230|   05                                          | .              |      [53]: 5 transition_type 0x231-0x232 (1)
0x230|      03                                       |  .             |      [54]: 3 transition_type 0x232-0x233 (1)
0x230|         05                                    |   .            |      [55]: 5 transition_type 0x233-0x234 (1)
0x230|            03                                 |    .           |      [56]: 3 transition_type 0x234-0x235 (1)
0x230|               05                              |     .          |      [57]: 5 transition_type 0x235-0x236 (1)
0x230|                  03                           |      .         |      [58]: 3 transition_type 0x236-0x237 (1)
0x230|                     05                        |       .        |      [59]: 5 transition_type 0x237-0x238 (1)
0x230|                        03                     |        .       |      [60]: 3 transition_type 0x238-0x239 (1)
0x230|                           05                  |         .      |      [61]: 5 transition_type 0x239-0x23a (1)
0x230|                              03               |          .     |      [62]: 3 transition_type 0x23a-0x23b (1)
0x230|                                 05            |           .    |      [63]: 5 transition_type 0x23b-0x23c (1)
0x230|                                    03         |            .   |      [64]: 3 transition_type 0x23c-0x23d (1)
0x230|                                       05      |             .  |      [65]: 5 transition_type 0x23d-0x23e (1)
0x230|                                          03   |              . |      [66]: 3 transition_type 0x23e-0x23f (1)
0x230|                                             05|               .|      [67]: 5 transition_type 0x23f-0x240 (1)
0x240|03                                             |.               |      [68]: 3 transition_type 0x240-0x241 (1)
0x240|   05                                          | .              |      [69]: 5 transition_type 0x241-0x242 (1)
0x240|      03                                       |  .             |      [70]: 3 transition_type 0x242-0x243 (1)
0x240|         05                                    |   .            |      [71]: 5 transition_type 0x243-0x244 (1)
0x240|            03                                 |    .           |      [72]: 3 transition_type 0x244-0x245 (1)
0x240|               05                              |     .          |      [73]: 5 transition_type 0x245-0x246 (1)
0x240|                  03                           |      .         |      [74]: 3 transition_type 0x246-0x247 (1)
0x240|                     05                        |       .        |      [75]: 5 transition_type 0x247-0x248 (1)
0x240|                        03                     |        .       |      [76]: 3 transition_type 0x248-0x249 (1)
0x240|                           05                  |         .      |      [77]: 5 transition_type 0x249-0x24a (1)
0x240|                              03               |          .     |      [78]: 3 transition_type 0x24a-0x24b (1)
0x240|                                 05            |           .    |      [79]: 5 transition_type 0x24b-0x24c (1)
0x240|                                    03         |            .   |      [80]: 3 transition_type 0x24c-0x24d (1)
0x240|                                       05      |             .  |      [81]: 5 transition_type 0x24d-0x24e (1)
0x240|                                          03   |              . |      [82]: 3 transition_type 0x24e-0x24f (1)
0x240|                                             05|               .|      [83]: 5 transition_type 0x24f-0x250 (1)
0x250|03                                             |.               |      [84]: 3 transition_type 0x250-0x251 (1)
0x250|   05                                          | .              |      [85]: 5 transition_type 0x251-0x252 (1)
0x250|      03                                       |  .             |      [86]: 3 transition_type 0x252-0x253 (1)
0x250|         05                                    |   .            |      [87]: 5 transition_type 0x253-0x254 (1)
0x250|            03                                 |    .           |      [88]: 3 transition_type 0x254-0x255 (1)
0x250|               05                              |     .          |      [89]: 5 transition_type 0x255-0x256 (1)
0x250|                  03                           |      .         |      [90]: 3 transition_type 0x256-0x257 (1)
0x250|                     05                        |       .        |      [91]: 5 transition_type 0x257-0x258 (1)
0x250|                        03                     |        .       |      [92]: 3 transition_type 0x258-0x259 (1)
0x250|                           05                  |         .      |      [93]: 5 transition_type 0x259-0x25a (1)
0x250|                              03               |          .     |      [94]: 3 transition_type 0x25a-0x25b (1)
0x250|                                 05            |           .    |      [95]: 5 transition_type 0x25b-0x25c (1)
0x250|                                    03         |            .   |      [96]: 3 transition_type 0x25c-0x25d (1)
0x250|                                       05      |             .  |      [97]: 5 transition_type 0x25d-0x25e (1)
0x250|                                          03   |              . |      [98]: 3 transition_type 0x25e-0x25f (1)
0x250|                                             05|               .|      [99]: 5 transition_type 0x25f-0x260 (1)
0x260|03                                             |.               |      [100]: 3 transition_type 0x260-0x261 (1)
0x260|   05                                          | .              |      [101]: 5 transition_type 0x261-0x262 (1)
0x260|      03                                       |  .             |      [102]: 3 transition_type 0x262-0x263 (1)
0x260|         05                                    |   .            |      [103]: 5 transition_type 0x263-0x264 (1)
0x260|            03                                 |    .           |      [104]: 3 transition_type 0x264-0x265 (1)
0x260|               05                              |     .          |      [105]: 5 transition_type 0x265-0x266 (1)
0x260|                  03                           |      .         |      [106]: 3 transition_type 0x266-0x267 (1)
0x260|                     05                        |       .        |      [107]: 5 transition_type 0x267-0x268 (1)
0x260|                        03                     |        .       |      [108]: 3 transition_type 0x268-0x269 (1)
0x260|                           05                  |         .      |      [109]: 5 transition_type 0x269-0x26a (1)
0x260|                              03               |          .     |      [110]: 3 transition_type 0x26a-0x26b (1)
0x260|                                 05            |           .    |      [111]: 5 transition_type 0x26b-0x26c (1)
0x260|                                    03         |            .   |      [112]: 3 transition_type 0x26c-0x26d (1)
0x260|                                       05      |             .  |      [113]: 5 transition_type 0x26d-0x26e (1)
0x260|                                          03   |              . |      [114]: 3 transition_type 0x26e-0x26f (1)
0x260|                                             03|               .|      [115]: 3 transition_type 0x26f-0x270 (1)
     |                                               |                |    local_time_type_records[0:7]: 0x270-0x29a (42)
     |                                               |                |      [0]{}: local_time_type 0x270-0x276 (6)
0x270|00 00 00 00                                    |....            |        utoff: 0 (valid) 0x270-0x274 (4)
0x270|            00                                 |    .           |        dst: 0 (valid) 0x274-0x275 (1)
0x270|               00                              |     .          |        idx: 0 (valid) 0x275-0x276 (1)
     |                                               |                |      [1]{}: local_time_type 0x276-0x27c (6)
0x270|                  00 00 8c a0                  |      ....      |        utoff: 36000 (valid) 0x276-0x27a (4)
0x270|                              00               |          .     |        dst: 0 (valid) 0x27a-0x27b (1)
0x270|                                 04            |           .    |        idx: 4 (valid) 0x27b-0x27c (1)
     |                                               |                |      [2]{}: local_time_type 0x27c-0x282 (6)
0x270|                                    00 00 9a b0|            ....|        utoff: 39600 (valid) 0x27c-0x280 (4)
0x280|01                                             |.               |        dst: 1 (valid) 0x280-0x281 (1)
0x280|   09                                          | .              |        idx: 9 (valid) 0x281-0x282 (1)
     |                                               |                |      [3]{}: local_time_type 0x282-0x288 (6)
0x280|      00 00 8c a0                              |  ....          |        utoff: 36000 (valid) 0x282-0x286 (4)
0x280|                  00                           |      .         |        dst: 0 (valid) 0x286-0x287 (1)
0x280|                     04                        |       .        |        idx: 4 (valid) 0x287-0x288 (1)
     |                                               |                |      [4]{}: local_time_type 0x288-0x28e (6)
0x280|                        00 00 00 00            |        ....    |        utoff: 0 (valid) 0x288-0x28c (4)
0x280|                                    00         |            .   |        dst: 0 (valid) 0x28c-0x28d (1)
0x280|                                       00      |             .  |        idx: 0 (valid) 0x28d-0x28e (1)
     |                                               |                |      [5]{}: local_time_type 0x28e-0x294 (6)
0x280|                                          00 00|              ..|        utoff: 39600 (valid) 0x28e-0x292 (4)
0x290|9a b0                                          |..              |
0x290|      01                                       |  .             |        dst: 1 (valid) 0x292-0x293 (1)
0x290|         09                                    |   .            |        idx: 9 (valid) 0x293-0x294 (1)
     |                                               |                |      [6]{}: local_time_type 0x294-0x29a (6)
0x290|            00 00 8c a0                        |    ....        |        utoff: 36000 (valid) 0x294-0x298 (4)
0x290|                        00                     |        .       |        dst: 0 (valid) 0x298-0x299 (1)
0x290|                           04                  |         .      |        idx: 4 (valid) 0x299-0x29a (1)
     |                                               |                |    time_zone_designations[0:3]: 0x29a-0x2a8 (14)
0x290|                              2d 30 30 00      |          -00.  |      [0]: "-00" time_zone_designation 0x29a-0x29e (4)
0x290|                                          41 45|              AE|      [1]: "AEST" time_zone_designation 0x29e-0x2a3 (5)
0x2a0|53 54 00                                       |ST.             |
0x2a0|         41 45 44 54 00                        |   AEDT.        |      [2]: "AEDT" time_zone_designation 0x2a3-0x2a8 (5)
     |                                               |                |    leap_second_records[0:27]: 0x2a8-0x380 (216)
     |                                               |                |      [0]{}: leap_second_record 0x2a8-0x2b0 (8)
0x2a0|                        04 b2 58 00            |        ..X.    |        occur: "1972-07-01T00:00:00Z" (78796800) 0x2a8-0x2ac (4)
0x2a0|                                    00 00 00 01|            ....|        corr: 1 0x2ac-0x2b0 (4)
     |                                               |                |      [1]{}: leap_second_record 0x2b0-0x2b8 (8)
0x2b0|05 a4 ec 01                                    |....            |        occur: "1973-01-01T00:00:01Z" (94694401) 0x2b0-0x2b4 (4)
0x2b0|            00 00 00 02                        |    ....        |        corr: 2 0x2b4-0x2b8 (4)
     |                                               |                |      [2]{}: leap_second_record 0x2b8-0x2c0 (8)
0x2b0|                        07 86 1f 82            |        ....    |        occur: "1974-01-01T00:00:02Z" (126230402) 0x2b8-0x2bc (4)
0x2b0|                                    00 00 00 03|            ....|        corr: 3 0x2bc-0x2c0 (4)
     |                                               |                |      [3]{}: leap_second_record 0x2c0-0x2c8 (8)
0x2c0|09 67 53 03                                    |.gS.            |        occur: "1975-01-01T00:00:03Z" (157766403) 0x2c0-0x2c4 (4)
0x2c0|            00 00 00 04                        |    ....        |        corr: 4 0x2c4-0x2c8 (4)
     |                                               |                |      [4]{}: leap_second_record 0x2c8-0x2d0 (8)
0x2c0|                        0b 48 86 84            |        .H..    |        occur: "1976-01-01T00:00:04Z" (189302404) 0x2c8-0x2cc (4)
0x2c0|                                    00 00 00 05|            ....|        corr: 5 0x2cc-0x2d0 (4)
     |                                               |                |      [5]{}: leap_second_record 0x2d0-0x2d8 (8)
0x2d0|0d 2b 0b 85                                    |.+..            |        occur: "1977-01-01T00:00:05Z" (220924805) 0x2d0-0x2d4 (4)
0x2d0|            00 00 00 06                        |    ....        |        corr: 6 0x2d4-0x2d8 (4)
     |                                               |                |      [6]{}: leap_second_record 0x2d8-0x2e0 (8)
0x2d0|                        0f 0c 3f 06            |        ..?.    |        occur: "1978-01-01T00:00:06Z" (252460806) 0x2d8-0x2dc (4)
0x2d0|                                    00 00 00 07|            ....|        corr: 7 0x2dc-0x2e0 (4)
     |                                               |                |      [7]{}: leap_second_record 0x2e0-0x2e8 (8)
0x2e0|10 ed 72 87                                    |..r.            |        occur: "1979-01-01T00:00:07Z" (283996807) 0x2e0-0x2e4 (4)
0x2e0|            00 00 00 08                        |    ....        |        corr: 8 0x2e4-0x2e8 (4)
     |                                               |                |      [8]{}: leap_second_record 0x2e8-0x2f0 (8)
0x2e0|                        12 ce a6 08            |        ....    |        occur: "1980-01-01T00:00:08Z" (315532808) 0x2e8-0x2ec (4)
0x2e0|                                    00 00 00 09|            ....|        corr: 9 0x2ec-0x2f0 (4)
     |                                               |                |      [9]{}: leap_second_record 0x2f0-0x2f8 (8)
0x2f0|15 9f ca 89                                    |....            |        occur: "1981-07-01T00:00:09Z" (362793609) 0x2f0-0x2f4 (4)
0x2f0|            00 00 00 0a                        |    ....        |        corr: 10 0x2f4-0x2f8 (4)
     |                                               |                |      [10]{}: leap_second_record 0x2f8-0x300 (8)
0x2f0|                        17 80 fe 0a            |        ....    |        occur: "1982-07-01T00:00:10Z" (394329610) 0x2f8-0x2fc (4)
0x2f0|                                    00 00 00 0b|            ....|        corr: 11 0x2fc-0x300 (4)
     |                                               |                |      [11]{}: leap_second_record 0x300-0x308 (8)
0x300|19 62 31 8b                                    |.b1.            |        occur: "1983-07-01T00:00:11Z" (425865611) 0x300-0x304 (4)
0x300|            00 00 00 0c                        |    ....        |        corr: 12 0x304-0x308 (4)
     |                                               |                |      [12]{}: leap_second_record 0x308-0x310 (8)
0x300|                        1d 25 ea 0c            |        .%..    |        occur: "1985-07-01T00:00:12Z" (489024012) 0x308-0x30c (4)
0x300|                                    00 00 00 0d|            ....|        corr: 13 0x30c-0x310 (4)
     |                                               |                |      [13]{}: leap_second_record 0x310-0x318 (8)
0x310|21 da e5 0d                                    |!...            |        occur: "1988-01-01T00:00:13Z" (567993613) 0x310-0x314 (4)
0x310|            00 00 00 0e                        |    ....        |        corr: 14 0x314-0x318 (4)
     |                                               |                |      [14]{}: leap_second_record 0x318-0x320 (8)
0x310|                        25 9e 9d 8e            |        %...    |        occur: "1990-01-01T00:00:14Z" (631152014) 0x318-0x31c (4)
0x310|                                    00 00 00 0f|            ....|        corr: 15 0x31c-0x320 (4)
     |                                               |                |      [15]{}: leap_second_record 0x320-0x328 (8)
0x320|27 7f d1 0f                                    |'...            |        occur: "1991-01-01T00:00:15Z" (662688015) 0x320-0x324 (4)
0x320|            00 00 00 10                        |    ....        |        corr: 16 0x324-0x328 (4)
     |                                               |                |      [16]{}: leap_second_record 0x328-0x330 (8)
0x320|                        2a 50 f5 90            |        *P..    |        occur: "1992-07-01T00:00:16Z" (709948816) 0x328-0x32c (4)
0x320|                                    00 00 00 11|            ....|        corr: 17 0x32c-0x330 (4)
     |                                               |                |      [17]{}: leap_second_record 0x330-0x338 (8)
0x330|2c 32 29 11                                    |,2).            |        occur: "1993-07-01T00:00:17Z" (741484817) 0x330-0x334 (4)
0x330|            00 00 00 12                        |    ....        |        corr: 18 0x334-0x338 (4)
     |                                               |                |      [18]{}: leap_second_record 0x338-0x340 (8)
0x330|                        2e 13 5c 92            |        ..\.    |        occur: "1994-07-01T00:00:18Z" (773020818) 0x338-0x33c (4)
0x330|                                    00 00 00 13|            ....|        corr: 19 0x33c-0x340 (4)
     |                                               |                |      [19]{}: leap_second_record 0x340-0x348 (8)
0x340|30 e7 24 13                                    |0.$.            |        occur: "1996-01-01T00:00:19Z" (820454419) 0x340-0x344 (4)
0x340|            00 00 00 14                        |    ....        |        corr: 20 0x344-0x348 (4)
     |                                               |                |      [20]{}: leap_second_record 0x348-0x350 (8)
0x340|                        33 b8 48 94            |        3.H.    |        occur: "1997-07-01T00:00:20Z" (867715220) 0x348-0x34c (4)
0x340|                                    00 00 00 15|            ....|        corr: 21 0x34c-0x350 (4)
     |                                               |                |      [21]{}: leap_second_record 0x350-0x358 (8)
0x350|36 8c 10 15                                    |6...            |        occur: "1999-01-01T00:00:21Z" (915148821) 0x350-0x354 (4)
0x350|            00 00 00 16                        |    ....        |        corr: 22 0x354-0x358 (4)
     |                                               |                |      [22]{}: leap_second_record 0x358-0x360 (8)
0x350|                        43 b7 1b 96            |        C...    |        occur: "2006-01-01T00:00:22Z" (1136073622) 0x358-0x35c (4)
0x350|                                    00 00 00 17|            ....|        corr: 23 0x35c-0x360 (4)
     |                                               |                |      [23]{}: leap_second_record 0x360-0x368 (8)
0x360|49 5c 07 97                                    |I\..            |        occur: "2009-01-01T00:00:23Z" (1230768023) 0x360-0x364 (4)
0x360|            00 00 00 18                        |    ....        |        corr: 24 0x364-0x368 (4)
     |                                               |                |      [24]{}: leap_second_record 0x368-0x370 (8)
0x360|                        4f ef 93 18            |        O...    |        occur: "2012-07-01T00:00:24Z" (1341100824) 0x368-0x36c (4)
0x360|                                    00 00 00 19|            ....|        corr: 25 0x36c-0x370 (4)
     |                                               |                |      [25]{}: leap_second_record 0x370-0x378 (8)
0x370|55 93 2d 99                                    |U.-.            |        occur: "2015-07-01T00:00:25Z" (1435708825) 0x370-0x374 (4)
0x370|            00 00 00 1a                        |    ....        |        corr: 26 0x374-0x378 (4)
     |                                               |                |      [26]{}: leap_second_record 0x378-0x380 (8)
0x370|                        58 68 46 9a            |        XhF.    |        occur: "2017-01-01T00:00:26Z" (1483228826) 0x378-0x37c (4)
0x370|                                    00 00 00 1b|            ....|        corr: 27 0x37c-0x380 (4)
     |                                               |                |    standard_wall_indicators[0:7]: 0x380-0x387 (7)
0x380|00                                             |.               |      [0]: 0 standard_wall_indicator (valid) 0x380-0x381 (1)
0x380|   00                                          | .              |      [1]: 0 standard_wall_indicator (valid) 0x381-0x382 (1)
0x380|      00                                       |  .             |      [2]: 0 standard_wall_indicator (valid) 0x382-0x383 (1)
0x380|         01                                    |   .            |      [3]: 1 standard_wall_indicator (valid) 0x383-0x384 (1)
0x380|            01                                 |    .           |      [4]: 1 standard_wall_indicator (valid) 0x384-0x385 (1)
0x380|               01                              |     .          |      [5]: 1 standard_wall_indicator (valid) 0x385-0x386 (1)
0x380|                  01                           |      .         |      [6]: 1 standard_wall_indicator (valid) 0x386-0x387 (1)
     |                                               |                |    ut_local_indicators[0:0]: 0x387-0x387 (0)
     |                                               |                |  v2plusheader{}: 0x387-0x3b3 (44)
0x380|                     54 5a 69 66               |       TZif     |    magic: 0x545a6966 (valid) 0x387-0x38b (4)
0x380|                                 32            |           2    |    ver: "2" (0x32) (valid) 0x38b-0x38c (1)
0x380|                                    00 00 00 00|            ....|    reserved: raw bits 0x38c-0x39b (15)
0x390|00 00 00 00 00 00 00 00 00 00 00               |...........     |
0x390|                                 00 00 00 00   |           .... |    isutcnt: 0 0x39b-0x39f (4)
0x390|                                             00|               .|    isstdcnt: 7 0x39f-0x3a3 (4)
0x3a0|00 00 07                                       |...             |
0x3a0|         00 00 00 1b                           |   ....         |    leapcnt: 27 0x3a3-0x3a7 (4)
0x3a0|                     00 00 00 74               |       ...t     |    timecnt: 116 0x3a7-0x3ab (4)
0x3a0|                                 00 00 00 07   |           .... |    typecnt: 7 0x3ab-0x3af (4)
0x3a0|                                             00|               .|    charcnt: 14 0x3af-0x3b3 (4)
0x3b0|00 00 0e                                       |...             |
     |                                               |                |  v2plusdatablock{}: 0x3b3-0x94a (1431)
     |                                               |                |    transition_times[0:116]: 0x3b3-0x753 (928)
0x3b0|         ff ff ff ff 7c 05 16 00               |   ....|...     |      [0]: "1899-11-01T00:00:00Z" (-2214259200) transition_time 0x3b3-0x3bb (8)
0x3b0|                                 ff ff ff ff 9b|           .....|      [1]: "1916-09-30T16:00:00Z" (-1680508800) transition_time 0x3bb-0x3c3 (8)
0x3c0|d5 78 80                                       |.x.             |
0x3c0|         ff ff ff ff 9c bc 2f 00               |   ....../.     |      [2]: "1917-03-24T16:00:00Z" (-1665388800) transition_time 0x3c3-0x3cb (8)
0x3c0|                                 ff ff ff ff a0|           .....|      [3]: "1919-03-31T14:00:00Z" (-1601719200) transition_time 0x3cb-0x3d3 (8)
0x3d0|87 b4 60                                       |..`             |
0x3d0|         ff ff ff ff d7 0c 68 00               |   ......h.     |      [4]: "1948-03-25T00:00:00Z" (-687052800) transition_time 0x3d3-0x3db (8)
0x3d0|                                 ff ff ff ff fb|           .....|      [5]: "1967-09-30T16:00:00Z" (-71136000) transition_time 0x3db-0x3e3 (8)
0x3e0|c2 8d 00                                       |...             |
0x3e0|         ff ff ff ff fc b2 7e 00               |   ......~.     |      [6]: "1968-03-30T16:00:00Z" (-55411200) transition_time 0x3e3-0x3eb (8)
0x3e0|                                 ff ff ff ff fd|           .....|      [7]: "1968-10-26T16:00:00Z" (-37267200) transition_time 0x3eb-0x3f3 (8)
0x3f0|c7 59 00                                       |.Y.             |
0x3f0|         ff ff ff ff fe 76 b0 80               |   .....v..     |      [8]: "1969-03-08T16:00:00Z" (-25776000) transition_time 0x3f3-0x3fb (8)
0x3f0|                                 ff ff ff ff ff|           .....|      [9]: "1969-10-25T16:00:00Z" (-5817600) transition_time 0x3fb-0x403 (8)
0x400|a7 3b 00                                       |.;.             |
0x400|         00 00 00 00 00 56 92 80               |   .....V..     |      [10]: "1970-03-07T16:00:00Z" (5673600) transition_time 0x403-0x40b (8)
0x400|                                 00 00 00 00 01|           .....|      [11]: "1970-10-24T16:00:00Z" (25632000) transition_time 0x40b-0x413 (8)
0x410|87 1d 00                                       |...             |
0x410|         00 00 00 00 02 3f af 00               |   .....?..     |      [12]: "1971-03-13T16:00:00Z" (37728000) transition_time 0x413-0x41b (8)
0x410|                                 00 00 00 00 03|           .....|      [13]: "1971-10-30T16:00:00Z" (57686400) transition_time 0x41b-0x423 (8)
0x420|70 39 80                                       |p9.             |
0x420|         00 00 00 00 04 0d 1c 00               |   ........     |      [14]: "1972-02-26T16:00:00Z" (67968000) transition_time 0x423-0x42b (8)
0x420|                                 00 00 00 00 05|           .....|      [15]: "1972-10-28T16:00:01Z" (89136001) transition_time 0x42b-0x433 (8)
0x430|50 1b 81                                       |P..             |
0x430|         00 00 00 00 05 f6 38 82               |   ......8.     |      [16]: "1973-03-03T16:00:02Z" (100022402) transition_time 0x433-0x43b (8)
0x430|                                 00 00 00 00 07|           .....|      [17]: "1973-10-27T16:00:02Z" (120585602) transition_time 0x43b-0x443 (8)
0x440|2f fd 82                                       |/..             |
0x440|         00 00 00 00 07 d6 1a 83               |   ........     |      [18]: "1974-03-02T16:00:03Z" (131472003) transition_time 0x443-0x44b (8)
0x440|                                 00 00 00 00 09|           .....|      [19]: "1974-10-26T16:00:03Z" (152035203) transition_time 0x44b-0x453 (8)
0x450|0f df 83                                       |...             |
0x450|         00 00 00 00 09 b5 fc 84               |   ........     |      [20]: "1975-03-01T16:00:04Z" (162921604) transition_time 0x453-0x45b (8)
0x450|                                 00 00 00 00 0a|           .....|      [21]: "1975-10-25T16:00:04Z" (183484804) transition_time 0x45b-0x463 (8)
0x460|ef c1 84                                       |...             |
0x460|         00 00 00 00 0b 9f 19 05               |   ........     |      [22]: "1976-03-06T16:00:05Z" (194976005) transition_time 0x463-0x46b (8)
0x460|                                 00 00 00 00 0c|           .....|      [23]: "1976-10-30T16:00:05Z" (215539205) transition_time 0x46b-0x473 (8)
0x470|d8 de 05                                       |...             |
0x470|         00 00 00 00 0d 7e fb 06               |   .....~..     |      [24]: "1977-03-05T16:00:06Z" (226425606) transition_time 0x473-0x47b (8)
0x470|                                 00 00 00 00 0e|           .....|      [25]: "1977-10-29T16:00:06Z" (246988806) transition_time 0x47b-0x483 (8)
0x480|b8 c0 06                                       |...             |
0x480|         00 00 00 00 0f 5e dd 07               |   .....^..     |      [26]: "1978-03-04T16:00:07Z" (257875207) transition_time 0x483-0x48b (8)
0x480|                                 00 00 00 00 10|           .....|      [27]: "1978-10-28T16:00:07Z" (278438407) transition_time 0x48b-0x493 (8)
0x490|98 a2 07                                       |...             |
0x490|         00 00 00 00 11 3e bf 08               |   .....>..     |      [28]: "1979-03-03T16:00:08Z" (289324808) transition_time 0x493-0x49b (8)
0x490|                                 00 00 00 00 12|           .....|      [29]: "1979-10-27T16:00:08Z" (309888008) transition_time 0x49b-0x4a3 (8)
0x4a0|78 84 08                                       |x..             |
0x4a0|         00 00 00 00 13 1e a1 09               |   ........     |      [30]: "1980-03-01T16:00:09Z" (320774409) transition_time 0x4a3-0x4ab (8)
0x4a0|                                 00 00 00 00 14|           .....|      [31]: "1980-10-25T16:00:09Z" (341337609) transition_time 0x4ab-0x4b3 (8)
0x4b0|58 66 09                                       |Xf.             |
0x4b0|         00 00 00 00 14 fe 83 09               |   ........     |      [32]: "1981-02-28T16:00:09Z" (352224009) transition_time 0x4b3-0x4bb (8)
0x4b0|                                 00 00 00 00 16|           .....|      [33]: "1981-10-24T16:00:10Z" (372787210) transition_time 0x4bb-0x4c3 (8)
0x4c0|38 48 0a                                       |8H.             |
0x4c0|         00 00 00 00 17 03 4f 0a               |   ......O.     |      [34]: "1982-03-27T16:00:10Z" (386092810) transition_time 0x4c3-0x4cb (8)
0x4c0|                                 00 00 00 00 18|           .....|      [35]: "1982-10-30T16:00:11Z" (404841611) transition_time 0x4cb-0x4d3 (8)
0x4d0|21 64 8b                                       |!d.             |
0x4d0|         00 00 00 00 18 e3 31 0b               |   ......1.     |      [36]: "1983-03-26T16:00:11Z" (417542411) transition_time 0x4d3-0x4db (8)
0x4d0|                                 00 00 00 00 1a|           .....|      [37]: "1983-10-29T16:00:12Z" (436291212) transition_time 0x4db-0x4e3 (8)
0x4e0|01 46 8c                                       |.F.             |
0x4e0|         00 00 00 00 1a a7 63 8c               |   ......c.     |      [38]: "1984-03-03T16:00:12Z" (447177612) transition_time 0x4e3-0x4eb (8)
0x4e0|                                 00 00 00 00 1b|           .....|      [39]: "1984-10-27T16:00:12Z" (467740812) transition_time 0x4eb-0x4f3 (8)
0x4f0|e1 28 8c                                       |.(.             |
0x4f0|         00 00 00 00 1c 87 45 8c               |   ......E.     |      [40]: "1985-03-02T16:00:12Z" (478627212) transition_time 0x4f3-0x4fb (8)
0x4f0|                                 00 00 00 00 1d|           .....|      [41]: "1985-10-26T16:00:13Z" (499190413) transition_time 0x4fb-0x503 (8)
0x500|c1 0a 8d                                       |...             |
0x500|         00 00 00 00 1e 67 27 8d               |   .....g'.     |      [42]: "1986-03-01T16:00:13Z" (510076813) transition_time 0x503-0x50b (8)
0x500|                                 00 00 00 00 1f|           .....|      [43]: "1986-10-18T16:00:13Z" (530035213) transition_time 0x50b-0x513 (8)
0x510|97 b2 0d                                       |...             |
0x510|         00 00 00 00 20 59 7e 8d               |   .... Y~.     |      [44]: "1987-03-14T16:00:13Z" (542736013) transition_time 0x513-0x51b (8)
0x510|                                 00 00 00 00 21|           ....!|      [45]: "1987-10-24T16:00:13Z" (562089613) transition_time 0x51b-0x523 (8)
0x520|80 ce 8d                                       |...             |
0x520|         00 00 00 00 22 42 9b 0e               |   ...."B..     |      [46]: "1988-03-19T16:00:14Z" (574790414) transition_time 0x523-0x52b (8)
0x520|                                 00 00 00 00 23|           ....#|      [47]: "1988-10-29T16:00:14Z" (594144014) transition_time 0x52b-0x533 (8)
0x530|69 eb 0e                                       |i..             |
0x530|         00 00 00 00 24 22 7d 0e               |   ....$"}.     |      [48]: "1989-03-18T16:00:14Z" (606240014) transition_time 0x533-0x53b (8)
0x530|                                 00 00 00 00 25|           ....%|      [49]: "1989-10-28T16:00:14Z" (625593614) transition_time 0x53b-0x543 (8)
0x540|49 cd 0e                                       |I..             |
0x540|         00 00 00 00 26 02 5f 0f               |   ....&._.     |      [50]: "1990-03-17T16:00:15Z" (637689615) transition_time 0x543-0x54b (8)
0x540|                                 00 00 00 00 27|           ....'|      [51]: "1990-10-27T16:00:15Z" (657043215) transition_time 0x54b-0x553 (8)
0x550|29 af 0f                                       |)..             |
0x550|         00 00 00 00 27 f4 b6 10               |   ....'...     |      [52]: "1991-03-30T16:00:16Z" (670348816) transition_time 0x553-0x55b (8)
0x550|                                 00 00 00 00 28|           ....(|      [53]: "1991-10-05T16:00:16Z" (686678416) transition_time 0x55b-0x563 (8)
0x560|ed e1 90                                       |...             |
0x560|         00 00 00 00 29 d4 98 10               |   ....)...     |      [54]: "1992-03-28T16:00:16Z" (701798416) transition_time 0x563-0x56b (8)
0x560|                                 00 00 00 00 2a|           ....*|      [55]: "1992-10-03T16:00:17Z" (718128017) transition_time 0x56b-0x573 (8)
0x570|cd c3 91                                       |...             |
0x570|         00 00 00 00 2b b4 7a 11               |   ....+.z.     |      [56]: "1993-03-27T16:00:17Z" (733248017) transition_time 0x573-0x57b (8)
0x570|                                 00 00 00 00 2c|           ....,|      [57]: "1993-10-02T16:00:18Z" (749577618) transition_time 0x57b-0x583 (8)
0x580|ad a5 92                                       |...             |
0x580|         00 00 00 00 2d 94 5c 12               |   ....-.\.     |      [58]: "1994-03-26T16:00:18Z" (764697618) transition_time 0x583-0x58b (8)
0x580|                                 00 00 00 00 2e|           .....|      [59]: "1994-10-01T16:00:19Z" (781027219) transition_time 0x58b-0x593 (8)
0x590|8d 87 93                                       |...             |
0x590|         00 00 00 00 2f 74 3e 13               |   ..../t>.     |      [60]: "1995-03-25T16:00:19Z" (796147219) transition_time 0x593-0x59b (8)
0x590|                                 00 00 00 00 30|           ....0|      [61]: "1995-09-30T16:00:19Z" (812476819) transition_time 0x59b-0x5a3 (8)
0x5a0|6d 69 93                                       |mi.             |
0x5a0|         00 00 00 00 31 5d 5a 94               |   ....1]Z.     |      [62]: "1996-03-30T16:00:20Z" (828201620) transition_time 0x5a3-0x5ab (8)
0x5a0|                                 00 00 00 00 32|           ....2|      [63]: "1996-10-05T16:00:20Z" (844531220) transition_time 0x5ab-0x5b3 (8)
0x5b0|56 86 14                                       |V..             |
0x5b0|         00 00 00 00 33 3d 3c 94               |   ....3=<.     |      [64]: "1997-03-29T16:00:20Z" (859651220) transition_time 0x5b3-0x5bb (8)
0x5b0|                                 00 00 00 00 34|           ....4|      [65]: "1997-10-04T16:00:21Z" (875980821) transition_time 0x5bb-0x5c3 (8)
0x5c0|36 68 15                                       |6h.             |
0x5c0|         00 00 00 00 35 1d 1e 95               |   ....5...     |      [66]: "1998-03-28T16:00:21Z" (891100821) transition_time 0x5c3-0x5cb (8)
0x5c0|                                 00 00 00 00 36|           ....6|      [67]: "1998-10-03T16:00:21Z" (907430421) transition_time 0x5cb-0x5d3 (8)
0x5d0|16 4a 15                                       |.J.             |
0x5d0|         00 00 00 00 36 fd 00 96               |   ....6...     |      [68]: "1999-03-27T16:00:22Z" (922550422) transition_time 0x5d3-0x5db (8)
0x5d0|                                 00 00 00 00 37|           ....7|      [69]: "1999-10-02T16:00:22Z" (938880022) transition_time 0x5db-0x5e3 (8)
0x5e0|f6 2c 16                                       |.,.             |
0x5e0|         00 00 00 00 38 dc e2 96               |   ....8...     |      [70]: "2000-03-25T16:00:22Z" (954000022) transition_time 0x5e3-0x5eb (8)
0x5e0|                                 00 00 00 00 39|           ....9|      [71]: "2000-08-26T16:00:22Z" (967305622) transition_time 0x5eb-0x5f3 (8)
0x5f0|a7 e9 96                                       |...             |
0x5f0|         00 00 00 00 3a bc c4 96               |   ....:...     |      [72]: "2001-03-24T16:00:22Z" (985449622) transition_time 0x5f3-0x5fb (8)
0x5f0|                                 00 00 00 00 3b|           ....;|      [73]: "2001-10-06T16:00:22Z" (1002384022) transition_time 0x5fb-0x603 (8)
0x600|bf 2a 96                                       |.*.             |
0x600|         00 00 00 00 3c a5 e1 16               |   ....<...     |      [74]: "2002-03-30T16:00:22Z" (1017504022) transition_time 0x603-0x60b (8)
0x600|                                 00 00 00 00 3d|           ....=|      [75]: "2002-10-05T16:00:22Z" (1033833622) transition_time 0x60b-0x613 (8)
0x610|9f 0c 96                                       |...             |
0x610|         00 00 00 00 3e 85 c3 16               |   ....>...     |      [76]: "2003-03-29T16:00:22Z" (1048953622) transition_time 0x613-0x61b (8)
0x610|                                 00 00 00 00 3f|           ....?|      [77]: "2003-10-04T16:00:22Z" (1065283222) transition_time 0x61b-0x623 (8)
0x620|7e ee 96                                       |~..             |
0x620|         00 00 00 00 40 65 a5 16               |   ....@e..     |      [78]: "2004-03-27T16:00:22Z" (1080403222) transition_time 0x623-0x62b (8)
0x620|                                 00 00 00 00 41|           ....A|      [79]: "2004-10-02T16:00:22Z" (1096732822) transition_time 0x62b-0x633 (8)
0x630|5e d0 96                                       |^..             |
0x630|         00 00 00 00 42 45 87 16               |   ....BE..     |      [80]: "2005-03-26T16:00:22Z" (1111852822) transition_time 0x633-0x63b (8)
0x630|                                 00 00 00 00 43|           ....C|      [81]: "2005-10-01T16:00:22Z" (1128182422) transition_time 0x63b-0x643 (8)
0x640|3e b2 96                                       |>..             |
0x640|         00 00 00 00 44 2e a3 97               |   ....D...     |      [82]: "2006-04-01T16:00:23Z" (1143907223) transition_time 0x643-0x64b (8)
0x640|                                 00 00 00 00 45|           ....E|      [83]: "2006-09-30T16:00:23Z" (1159632023) transition_time 0x64b-0x653 (8)
0x650|1e 94 97                                       |...             |
0x650|         00 00 00 00 46 05 4b 17               |   ....F.K.     |      [84]: "2007-03-24T16:00:23Z" (1174752023) transition_time 0x653-0x65b (8)
0x650|                                 00 00 00 00 47|           ....G|      [85]: "2007-10-06T16:00:23Z" (1191686423) transition_time 0x65b-0x663 (8)
0x660|07 b1 17                                       |...             |
0x660|         00 00 00 00 47 f7 a2 17               |   ....G...     |      [86]: "2008-04-05T16:00:23Z" (1207411223) transition_time 0x663-0x66b (8)
0x660|                                 00 00 00 00 48|           ....H|      [87]: "2008-10-04T16:00:23Z" (1223136023) transition_time 0x66b-0x673 (8)
0x670|e7 93 17                                       |...             |
0x670|         00 00 00 00 49 d7 84 18               |   ....I...     |      [88]: "2009-04-04T16:00:24Z" (1238860824) transition_time 0x673-0x67b (8)
0x670|                                 00 00 00 00 4a|           ....J|      [89]: "2009-10-03T16:00:24Z" (1254585624) transition_time 0x67b-0x683 (8)
0x680|c7 75 18                                       |.u.             |
0x680|         00 00 00 00 4d 97 48 18               |   ....M.H.     |      [90]: "2011-04-02T16:00:24Z" (1301760024) transition_time 0x683-0x68b (8)
0x680|                                 00 00 00 00 4e|           ....N|      [91]: "2011-10-01T16:00:24Z" (1317484824) transition_time 0x68b-0x693 (8)
0x690|87 39 18                                       |.9.             |
0x690|         00 00 00 00 4f 77 2a 18               |   ....Ow*.     |      [92]: "2012-03-31T16:00:24Z" (1333209624) transition_time 0x693-0x69b (8)
0x690|                                 00 00 00 00 50|           ....P|      [93]: "2012-10-06T16:00:25Z" (1349539225) transition_time 0x69b-0x6a3 (8)
0x6a0|70 55 99                                       |pU.             |
0x6a0|         00 00 00 00 51 60 46 99               |   ....Q`F.     |      [94]: "2013-04-06T16:00:25Z" (1365264025) transition_time 0x6a3-0x6ab (8)
0x6a0|                                 00 00 00 00 52|           ....R|      [95]: "2013-10-05T16:00:25Z" (1380988825) transition_time 0x6ab-0x6b3 (8)
0x6b0|50 37 99                                       |P7.             |
0x6b0|         00 00 00 00 53 40 28 99               |   ....S@(.     |      [96]: "2014-04-05T16:00:25Z" (1396713625) transition_time 0x6b3-0x6bb (8)
0x6b0|                                 00 00 00 00 54|           ....T|      [97]: "2014-10-04T16:00:25Z" (1412438425) transition_time 0x6bb-0x6c3 (8)
0x6c0|30 19 99                                       |0..             |
0x6c0|         00 00 00 00 55 20 0a 99               |   ....U ..     |      [98]: "2015-04-04T16:00:25Z" (1428163225) transition_time 0x6c3-0x6cb (8)
0x6c0|                                 00 00 00 00 56|           ....V|      [99]: "2015-10-03T16:00:26Z" (1443888026) transition_time 0x6cb-0x6d3 (8)
0x6d0|0f fb 9a                                       |...             |
0x6d0|         00 00 00 00 56 ff ec 9a               |   ....V...     |      [100]: "2016-04-02T16:00:26Z" (1459612826) transition_time 0x6d3-0x6db (8)
0x6d0|                                 00 00 00 00 57|           ....W|      [101]: "2016-10-01T16:00:26Z" (1475337626) transition_time 0x6db-0x6e3 (8)
0x6e0|ef dd 9a                                       |...             |
0x6e0|         00 00 00 00 58 df ce 9b               |   ....X...     |      [102]: "2017-04-01T16:00:27Z" (1491062427) transition_time 0x6e3-0x6eb (8)
0x6e0|                                 00 00 00 00 59|           ....Y|      [103]: "2017-09-30T16:00:27Z" (1506787227) transition_time 0x6eb-0x6f3 (8)
0x6f0|cf bf 9b                                       |...             |
0x6f0|         00 00 00 00 5a bf b0 9b               |   ....Z...     |      [104]: "2018-03-31T16:00:27Z" (1522512027) transition_time 0x6f3-0x6fb (8)
0x6f0|                                 00 00 00 00 5b|           ....[|      [105]: "2018-10-06T16:00:27Z" (1538841627) transition_time 0x6fb-0x703 (8)
0x700|b8 dc 1b                                       |...             |
0x700|         00 00 00 00 5c a8 cd 1b               |   ....\...     |      [106]: "2019-04-06T16:00:27Z" (1554566427) transition_time 0x703-0x70b (8)
0x700|                                 00 00 00 00 5d|           ....]|      [107]: "2019-10-05T16:00:27Z" (1570291227) transition_time 0x70b-0x713 (8)
0x710|98 be 1b                                       |...             |
0x710|         00 00 00 00 5e 88 af 1b               |   ....^...     |      [108]: "2020-04-04T16:00:27Z" (1586016027) transition_time 0x713-0x71b (8)
0x710|                                 00 00 00 00 5f|           ...._|      [109]: "2020-10-03T16:00:27Z" (1601740827) transition_time 0x71b-0x723 (8)
0x720|78 a0 1b                                       |x..             |
0x720|         00 00 00 00 60 68 91 1b               |   ....`h..     |      [110]: "2021-04-03T16:00:27Z" (1617465627) transition_time 0x723-0x72b (8)
0x720|                                 00 00 00 00 61|           ....a|      [111]: "2021-10-02T16:00:27Z" (1633190427) transition_time 0x72b-0x733 (8)
0x730|58 82 1b                                       |X..             |
0x730|         00 00 00 00 62 48 73 1b               |   ....bHs.     |      [112]: "2022-04-02T16:00:27Z" (1648915227) transition_time 0x733-0x73b (8)
0x730|                                 00 00 00 00 63|           ....c|      [113]: "2022-10-01T16:00:27Z" (1664640027) transition_time 0x73b-0x743 (8)
0x740|38 64 1b                                       |8d.             |
0x740|         00 00 00 00 64 28 55 1b               |   ....d(U.     |      [114]: "2023-04-01T16:00:27Z" (1680364827) transition_time 0x743-0x74b (8)
0x740|                                 00 00 00 00 64|           ....d|      [115]: "2023-06-28T00:00:27Z" (1687910427) transition_time 0x74b-0x753 (8)
0x750|9b 78 1b                                       |.x.             |
     |                                               |                |    transition_types[0:116]: 0x753-0x7c7 (116)
0x750|         01                                    |   .            |      [0]: 1 transition_type 0x753-0x754 (1)
0x750|            02                                 |    .           |      [1]: 2 transition_type 0x754-0x755 (1)
0x750|               03                              |     .          |      [2]: 3 transition_type 0x755-0x756 (1)
0x750|                  04                           |      .         |      [3]: 4 transition_type 0x756-0x757 (1)
0x750|                     01                        |       .        |      [4]: 1 transition_type 0x757-0x758 (1)
0x750|                        05                     |        .       |      [5]: 5 transition_type 0x758-0x759 (1)
0x750|                           03                  |         .      |      [6]: 3 transition_type 0x759-0x75a (1)
0x750|                              05               |          .     |      [7]: 5 transition_type 0x75a-0x75b (1)
0x750|                                 03            |           .    |      [8]: 3 transition_type 0x75b-0x75c (1)
0x750|                                    05         |            .   |      [9]: 5 transition_type 0x75c-0x75d (1)
0x750|                                       03      |             .  |      [10]: 3 transition_type 0x75d-0x75e (1)
0x750|                                          05   |              . |      [11]: 5 transition_type 0x75e-0x75f (1)
0x750|                                             03|               .|      [12]: 3 transition_type 0x75f-0x760 (1)
0x760|05                                             |.               |      [13]: 5 transition_type 0x760-0x761 (1)
0x760|   03                                          | .              |      [14]: 3 transition_type 0x761-0x762 (1)
0x760|      05                                       |  .             |      [15]: 5 transition_type 0x762-0x763 (1)
0x760|         03                                    |   .            |      [16]: 3 transition_type 0x763-0x764 (1)
0x760|            05                                 |    .           |      [17]: 5 transition_type 0x764-0x765 (1)
0x760|               03                              |     .          |      [18]: 3 transition_type 0x765-0x766 (1)
0x760|                  05                           |      .         |      [19]: 5 transition_type 0x766-0x767 (1)
0x760|                     03                        |       .        |      [20]: 3 transition_type 0x767-0x768 (1)
0x760|                        05                     |        .       |      [21]: 5 transition_type 0x768-0x769 (1)
0x760|                           03                  |         .      |      [22]: 3 transition_type 0x769-0x76a (1)
0x760|                              05               |          .     |      [23]: 5 transition_type 0x76a-0x76b (1)
0x760|                                 03            |           .    |      [24]: 3 transition_type 0x76b-0x76c (1)
0x760|                                    05         |            .   |      [25]: 5 transition_type 0x76c-0x76d (1)
0x760|                                       03      |             .  |      [26]: 3 transition_type 0x76d-0x76e (1)
0x760|                                          05   |              . |      [27]: 5 transition_type 0x76e-0x76f (1)
0x760|                                             03|               .|      [28]: 3 transition_type 0x76f-0x770 (1)
0x770|05                                             |.               |      [29]: 5 transition_type 0x770-0x771 (1)
0x770|   03                                          | .              |      [30]: 3 transition_type 0x771-0x772 (1)
0x770|      05                                       |  .             |      [31]: 5 transition_type 0x772-0x773 (1)
0x770|         03                                    |   .            |      [32]: 3 transition_type 0x773-0x774 (1)
0x770|            05                                 |    .           |      [33]: 5 transition_type 0x774-0x775 (1)
0x770|               03                              |     .          |      [34]: 3 transition_type 0x775-0x776 (1)
0x770|                  05                           |      .         |      [35]: 5 transition_type 0x776-0x777 (1)
0x770|                     03                        |       .        |      [36]: 3 transition_type 0x777-0x778 (1)
0x770|                        05                     |        .       |      [37]: 5 transition_type 0x778-0x779 (1)
0x770|                           03                  |         .      |      [38]: 3 transition_type 0x779-0x77a (1)
0x770|                              05               |          .     |      [39]: 5 transition_type 0x77a-0x77b (1)
0x770|                                 03            |           .    |      [40]: 3 transition_type 0x77b-0x77c (1)
0x770|                                    05         |            .   |      [41]: 5 transition_type 0x77c-0x77d (1)
0x770|                                       03      |             .  |      [42]: 3 transition_type 0x77d-0x77e (1)
0x770|                                          05   |              . |      [43]: 5 transition_type 0x77e-0x77f (1)
0x770|                                             03|               .|      [44]: 3 transition_type 0x77f-0x780 (1)
0x780|05                                             |.               |      [45]: 5 transition_type 0x780-0x781 (1)
0x780|   03                                          | .              |      [46]: 3 transition_type 0x781-0x782 (1)
0x780|      05                                       |  .             |      [47]: 5 transition_type 0x782-0x783 (1)
0x780|         03                                    |   .            |      [48]: 3 transition_type 0x783-0x784 (1)
0x780|            05                                 |    .           |      [49]: 5 transition_type 0x784-0x785 (1)
0x780|               03                              |     .          |      [50]: 3 transition_type 0x785-0x786 (1)
0x780|                  05                           |      .         |      [51]: 5 transition_type 0x786-0x787 (1)
0x780|                     03                        |       .        |      [52]: 3 transition_type 0x787-0x788 (1)
0x780|                        05                     |        .       |      [53]: 5 transition_type 0x788-0x789 (1)
0x780|                           03                  |         .      |      [54]: 3 transition_type 0x789-0x78a (1)
0x780|                              05               |          .     |      [55]: 5 transition_type 0x78a-0x78b (1)
0x780|                                 03            |           .    |      [56]: 3 transition_type 0x78b-0x78c (1)
0x780|                                    05         |            .   |      [57]: 5 transition_type 0x78c-0x78d (1)
0x780|                                       03      |             .  |      [58]: 3 transition_type 0x78d-0x78e (1)
0x780|                                          05   |              . |      [59]: 5 transition_type 0x78e-0x78f (1)
0x780|                                             03|               .|      [60]: 3 transition_type 0x78f-0x790 (1)
0x790|05                                             |.               |      [61]: 5 transition_type 0x790-0x791 (1)
0x790|   03                                          | .              |      [62]: 3 transition_type 0x791-0x792 (1)
0x790|      05                                       |  .             |      [63]: 5 transition_type 0x792-0x793 (1)
0x790|         03                                    |   .            |      [64]: 3 transition_type 0x793-0x794 (1)
0x790|            05                                 |    .           |      [65]: 5 transition_type 0x794-0x795 (1)
0x790|               03                              |     .          |      [66]: 3 transition_type 0x795-0x796 (1)
0x790|                  05                           |      .         |      [67]: 5 transition_type 0x796-0x797 (1)
0x790|                     03                        |       .        |      [68]: 3 transition_type 0x797-0x798 (1)
0x790|                        05                     |        .       |      [69]: 5 transition_type 0x798-0x799 (1)
0x790|                           03                  |         .      |      [70]: 3 transition_type 0x799-0x79a (1)
0x790|                              05               |          .     |      [71]: 5 transition_type 0x79a-0x79b (1)
0x790|                                 03            |           .    |      [72]: 3 transition_type 0x79b-0x79c (1)
0x790|                                    05         |            .   |      [73]: 5 transition_type 0x79c-0x79d (1)
0x790|                                       03      |             .  |      [74]: 3 transition_type 0x79d-0x79e (1)
0x790|                                          05   |              . |      [75]: 5 transition_type 0x79e-0x79f (1)
0x790|                                             03|               .|      [76]: 3 transition_type 0x79f-0x7a0 (1)
0x7a0|05                                             |.               |      [77]: 5 transition_type 0x7a0-0x7a1 (1)
0x7a0|   03                                          | .              |      [78]: 3 transition_type 0x7a1-0x7a2 (1)
0x7a0|      05                                       |  .             |      [79]: 5 transition_type 0x7a2-0x7a3 (1)
0x7a0|         03                                    |   .            |      [80]: 3 transition_type 0x7a3-0x7a4 (1)
0x7a0|            05                                 |    .           |      [81]: 5 transition_type 0x7a4-0x7a5 (1)
0x7a0|               03                              |     .          |      [82]: 3 transition_type 0x7a5-0x7a6 (1)
0x7a0|                  05                           |      .         |      [83]: 5 transition_type 0x7a6-0x7a7 (1)
0x7a0|                     03                        |       .        |      [84]: 3 transition_type 0x7a7-0x7a8 (1)
0x7a0|                        05                     |        .       |      [85]: 5 transition_type 0x7a8-0x7a9 (1)
0x7a0|                           03                  |         .      |      [86]: 3 transition_type 0x7a9-0x7aa (1)
0x7a0|                              05               |          .     |      [87]: 5 transition_type 0x7aa-0x7ab (1)
0x7a0|                                 03            |           .    |      [88]: 3 transition_type 0x7ab-0x7ac (1)
0x7a0|                                    05         |            .   |      [89]: 5 transition_type 0x7ac-0x7ad (1)
0x7a0|                                       03      |             .  |      [90]: 3 transition_type 0x7ad-0x7ae (1)
0x7a0|                                          05   |              . |      [91]: 5 transition_type 0x7ae-0x7af (1)
0x7a0|                                             03|               .|      [92]: 3 transition_type 0x7af-0x7b0 (1)
0x7b0|05                                             |.               |      [93]: 5 transition_type 0x7b0-0x7b1 (1)
0x7b0|   03                                          | .              |      [94]: 3 transition_type 0x7b1-0x7b2 (1)
0x7b0|      05                                       |  .             |      [95]: 5 transition_type 0x7b2-0x7b3 (1)
0x7b0|         03                                    |   .            |      [96]: 3 transition_type 0x7b3-0x7b4 (1)
0x7b0|            05                                 |    .           |      [97]: 5 transition_type 0x7b4-0x7b5 (1)
0x7b0|               03                              |     .          |      [98]: 3 transition_type 0x7b5-0x7b6 (1)
0x7b0|                  05                           |      .         |      [99]: 5 transition_type 0x7b6-0x7b7 (1)
0x7b0|                     03                        |       .        |      [100]: 3 transition_type 0x7b7-0x7b8 (1)
0x7b0|                        05                     |        .       |      [101]: 5 transition_type 0x7b8-0x7b9 (1)
0x7b0|                           03                  |         .      |      [102]: 3 transition_type 0x7b9-0x7ba (1)
0x7b0|                              05               |          .     |      [103]: 5 transition_type 0x7ba-0x7bb (1)
0x7b0|                                 03            |           .    |      [104]: 3 transition_type 0x7bb-0x7bc (1)
0x7b0|                                    05         |            .   |      [105]: 5 transition_type 0x7bc-0x7bd (1)
0x7b0|                                       03      |             .  |      [106]: 3 transition_type 0x7bd-0x7be (1)
0x7b0|                                          05   |              . |      [107]: 5 transition_type 0x7be-0x7bf (1)
0x7b0|                                             03|               .|      [108]: 3 transition_type 0x7bf-0x7c0 (1)
0x7c0|05                                             |.               |      [109]: 5 transition_type 0x7c0-0x7c1 (1)
0x7c0|   03                                          | .              |      [110]: 3 transition_type 0x7c1-0x7c2 (1)
0x7c0|      05                                       |  .             |      [111]: 5 transition_type 0x7c2-0x7c3 (1)
0x7c0|         03                                    |   .            |      [112]: 3 transition_type 0x7c3-0x7c4 (1)
0x7c0|            05                                 |    .           |      [113]: 5 transition_type 0x7c4-0x7c5 (1)
0x7c0|               03                              |     .          |      [114]: 3 transition_type 0x7c5-0x7c6 (1)
0x7c0|                  03                           |      .         |      [115]: 3 transition_type 0x7c6-0x7c7 (1)
     |                                               |                |    local_time_type_records[0:7]: 0x7c7-0x7f1 (42)
     |                                               |                |      [0]{}: local_time_type 0x7c7-0x7cd (6)
0x7c0|                     00 00 00 00               |       ....     |        utoff: 0 (valid) 0x7c7-0x7cb (4)
0x7c0|                                 00            |           .    |        dst: 0 (valid) 0x7cb-0x7cc (1)
0x7c0|                                    00         |            .   |        idx: 0 (valid) 0x7cc-0x7cd (1)
     |                                               |                |      [1]{}: local_time_type 0x7cd-0x7d3 (6)
0x7c0|                                       00 00 8c|             ...|        utoff: 36000 (valid) 0x7cd-0x7d1 (4)
0x7d0|a0                                             |.               |
0x7d0|   00                                          | .              |        dst: 0 (valid) 0x7d1-0x7d2 (1)
0x7d0|      04                                       |  .             |        idx: 4 (valid) 0x7d2-0x7d3 (1)
     |                                               |                |      [2]{}: local_time_type 0x7d3-0x7d9 (6)
0x7d0|         00 00 9a b0                           |   ....         |        utoff: 39600 (valid) 0x7d3-0x7d7 (4)
0x7d0|                     01                        |       .        |        dst: 1 (valid) 0x7d7-0x7d8 (1)
0x7d0|                        09                     |        .       |        idx: 9 (valid) 0x7d8-0x7d9 (1)
     |                                               |                |      [3]{}: local_time_type 0x7d9-0x7df (6)
0x7d0|                           00 00 8c a0         |         ....   |        utoff: 36000 (valid) 0x7d9-0x7dd (4)
0x7d0|                                       00      |             .  |        dst: 0 (valid) 0x7dd-0x7de (1)
0x7d0|                                          04   |              . |        idx: 4 (valid) 0x7de-0x7df (1)
     |                                               |                |      [4]{}: local_time_type 0x7df-0x7e5 (6)
0x7d0|                                             00|               .|        utoff: 0 (valid) 0x7df-0x7e3 (4)
0x7e0|00 00 00                                       |...             |
0x7e0|         00                                    |   .            |        dst: 0 (valid) 0x7e3-0x7e4 (1)
0x7e0|            00                                 |    .           |        idx: 0 (valid) 0x7e4-0x7e5 (1)
     |                                               |                |      [5]{}: local_time_type 0x7e5-0x7eb (6)
0x7e0|               00 00 9a b0                     |     ....       |        utoff: 39600 (valid) 0x7e5-0x7e9 (4)
0x7e0|                           01                  |         .      |        dst: 1 (valid) 0x7e9-0x7ea (1)
0x7e0|                              09               |          .     |        idx: 9 (valid) 0x7ea-0x7eb (1)
     |                                               |                |      [6]{}: local_time_type 0x7eb-0x7f1 (6)
0x7e0|                                 00 00 8c a0   |           .... |        utoff: 36000 (valid) 0x7eb-0x7ef (4)
0x7e0|                                             00|               .|        dst: 0 (valid) 0x7ef-0x7f0 (1)
0x7f0|04                                             |.               |        idx: 4 (valid) 0x7f0-0x7f1 (1)
     |                                               |                |    time_zone_designations[0:3]: 0x7f1-0x7ff (14)
0x7f0|   2d 30 30 00                                 | -00.           |      [0]: "-00" time_zone_designation 0x7f1-0x7f5 (4)
0x7f0|               41 45 53 54 00                  |     AEST.      |      [1]: "AEST" time_zone_designation 0x7f5-0x7fa (5)
0x7f0|                              41 45 44 54 00   |          AEDT. |      [2]: "AEDT" time_zone_designation 0x7fa-0x7ff (5)
     |                                               |                |    leap_second_records[0:27]: 0x7ff-0x943 (324)
     |                                               |                |      [0]{}: leap_second_record 0x7ff-0x80b (12)
0x7f0|                                             00|               .|        occur: "1972-07-01T00:00:00Z" (78796800) 0x7ff-0x807 (8)
0x800|00 00 00 04 b2 58 00                           |.....X.         |
0x800|                     00 00 00 01               |       ....     |        corr: 1 0x807-0x80b (4)
     |                                               |                |      [1]{}: leap_second_record 0x80b-0x817 (12)
0x800|                                 00 00 00 00 05|           .....|        occur: "1973-01-01T00:00:01Z" (94694401) 0x80b-0x813 (8)
0x810|a4 ec 01                                       |...             |
0x810|         00 00 00 02                           |   ....         |        corr: 2 0x813-0x817 (4)
     |                                               |                |      [2]{}: leap_second_record 0x817-0x823 (12)
0x810|                     00 00 00 00 07 86 1f 82   |       ........ |        occur: "1974-01-01T00:00:02Z" (126230402) 0x817-0x81f (8)
0x810|                                             00|               .|        corr: 3 0x81f-0x823 (4)
0x820|00 00 03                                       |...             |
     |                                               |                |      [3]{}: leap_second_record 0x823-0x82f (12)
0x820|         00 00 00 00 09 67 53 03               |   .....gS.     |        occur: "1975-01-01T00:00:03Z" (157766403) 0x823-0x82b (8)
0x820|                                 00 00 00 04   |           .... |        corr: 4 0x82b-0x82f (4)
     |                                               |                |      [4]{}: leap_second_record 0x82f-0x83b (12)
0x820|                                             00|               .|        occur: "1976-01-01T00:00:04Z" (189302404) 0x82f-0x837 (8)
0x830|00 00 00 0b 48 86 84                           |....H..         |
0x830|                     00 00 00 05               |       ....     |        corr: 5 0x837-0x83b (4)
     |                                               |                |      [5]{}: leap_second_record 0x83b-0x847 (12)
0x830|                                 00 00 00 00 0d|           .....|        occur: "1977-01-01T00:00:05Z" (220924805) 0x83b-0x843 (8)
0x840|2b 0b 85                                       |+..             |
0x840|         00 00 00 06                           |   ....         |        corr: 6 0x843-0x847 (4)
     |                                               |                |      [6]{}: leap_second_record 0x847-0x853 (12)
0x840|                     00 00 00 00 0f 0c 3f 06   |       ......?. |        occur: "1978-01-01T00:00:06Z" (252460806) 0x847-0x84f (8)
0x840|                                             00|               .|        corr: 7 0x84f-0x853 (4)
0x850|00 00 07                                       |...             |
     |                                               |                |      [7]{}: leap_second_record 0x853-0x85f (12)
0x850|         00 00 00 00 10 ed 72 87               |   ......r.     |        occur: "1979-01-01T00:00:07Z" (283996807) 0x853-0x85b (8)
0x850|                                 00 00 00 08   |           .... |        corr: 8 0x85b-0x85f (4)
     |                                               |                |      [8]{}: leap_second_record 0x85f-0x86b (12)
0x850|                                             00|               .|        occur: "1980-01-01T00:00:08Z" (315532808) 0x85f-0x867 (8)
0x860|00 00 00 12 ce a6 08                           |.......         |
0x860|                     00 00 00 09               |       ....     |        corr: 9 0x867-0x86b (4)
     |                                               |                |      [9]{}: leap_second_record 0x86b-0x877 (12)
0x860|                                 00 00 00 00 15|           .....|        occur: "1981-07-01T00:00:09Z" (362793609) 0x86b-0x873 (8)
0x870|9f ca 89                                       |...             |
0x870|         00 00 00 0a                           |   ....         |        corr: 10 0x873-0x877 (4)
     |                                               |                |      [10]{}: leap_second_record 0x877-0x883 (12)
0x870|                     00 00 00 00 17 80 fe 0a   |       ........ |        occur: "1982-07-01T00:00:10Z" (394329610) 0x877-0x87f (8)
0x870|                                             00|               .|        corr: 11 0x87f-0x883 (4)
0x880|00 00 0b                                       |...             |
     |                                               |                |      [11]{}: leap_second_record 0x883-0x88f (12)
0x880|         00 00 00 00 19 62 31 8b               |   .....b1.     |        occur: "1983-07-01T00:00:11Z" (425865611) 0x883-0x88b (8)
0x880|                                 00 00 00 0c   |           .... |        corr: 12 0x88b-0x88f (4)
     |                                               |                |      [12]{}: leap_second_record 0x88f-0x89b (12)
0x880|                                             00|               .|        occur: "1985-07-01T00:00:12Z" (489024012) 0x88f-0x897 (8)
0x890|00 00 00 1d 25 ea 0c                           |....%..         |
0x890|                     00 00 00 0d               |       ....     |        corr: 13 0x897-0x89b (4)
     |                                               |                |      [13]{}: leap_second_record 0x89b-0x8a7 (12)
0x890|                                 00 00 00 00 21|           ....!|        occur: "1988-01-01T00:00:13Z" (567993613) 0x89b-0x8a3 (8)
0x8a0|da e5 0d                                       |...             |
0x8a0|         00 00 00 0e                           |   ....         |        corr: 14 0x8a3-0x8a7 (4)
     |                                               |                |      [14]{}: leap_second_record 0x8a7-0x8b3 (12)
0x8a0|                     00 00 00 00 25 9e 9d 8e   |       ....%... |        occur: "1990-01-01T00:00:14Z" (631152014) 0x8a7-0x8af (8)
0x8a0|                                             00|               .|        corr: 15 0x8af-0x8b3 (4)
0x8b0|00 00 0f                                       |...             |
     |                                               |                |      [15]{}: leap_second_record 0x8b3-0x8bf (12)
0x8b0|         00 00 00 00 27 7f d1 0f               |   ....'...     |        occur: "1991-01-01T00:00:15Z" (662688015) 0x8b3-0x8bb (8)
0x8b0|                                 00 00 00 10   |           .... |        corr: 16 0x8bb-0x8bf (4)
     |                                               |                |      [16]{}: leap_second_record 0x8bf-0x8cb (12)
0x8b0|                                             00|               .|        occur: "1992-07-01T00:00:16Z" (709948816) 0x8bf-0x8c7 (8)
0x8c0|00 00 00 2a 50 f5 90                           |...*P..         |
0x8c0|                     00 00 00 11               |       ....     |        corr: 17 0x8c7-0x8cb (4)
     |                                               |                |      [17]{}: leap_second_record 0x8cb-0x8d7 (12)
0x8c0|                                 00 00 00 00 2c|           ....,|        occur: "1993-07-01T00:00:17Z" (741484817) 0x8cb-0x8d3 (8)
0x8d0|32 29 11                                       |2).             |
0x8d0|         00 00 00 12                           |   ....         |        corr: 18 0x8d3-0x8d7 (4)
     |                                               |                |      [18]{}: leap_second_record 0x8d7-0x8e3 (12)
0x8d0|                     00 00 00 00 2e 13 5c 92   |       ......\. |        occur: "1994-07-01T00:00:18Z" (773020818) 0x8d7-0x8df (8)
0x8d0|                                             00|               .|        corr: 19 0x8df-0x8e3 (4)
0x8e0|00 00 13                                       |...             |
     |                                               |                |      [19]{}: leap_second_record 0x8e3-0x8ef (12)
0x8e0|         00 00 00 00 30 e7 24 13               |   ....0.$.     |        occur: "1996-01-01T00:00:19Z" (820454419) 0x8e3-0x8eb (8)
0x8e0|                                 00 00 00 14   |           .... |        corr: 20 0x8eb-0x8ef (4)
     |                                               |                |      [20]{}: leap_second_record 0x8ef-0x8fb (12)
0x8e0|                                             00|               .|        occur: "1997-07-01T00:00:20Z" (867715220) 0x8ef-0x8f7 (8)
0x8f0|00 00 00 33 b8 48 94                           |...3.H.         |
0x8f0|                     00 00 00 15               |       ....     |        corr: 21 0x8f7-0x8fb (4)
     |                                               |                |      [21]{}: leap_second_record 0x8fb-0x907 (12)
0x8f0|                                 00 00 00 00 36|           ....6|        occur: "1999-01-01T00:00:21Z" (915148821) 0x8fb-0x903 (8)
0x900|8c 10 15                                       |...             |
0x900|         00 00 00 16                           |   ....         |        corr: 22 0x903-0x907 (4)
     |                                               |                |      [22]{}: leap_second_record 0x907-0x913 (12)
0x900|                     00 00 00 00 43 b7 1b 96   |       ....C... |        occur: "2006-01-01T00:00:22Z" (1136073622) 0x907-0x90f (8)
0x900|                                             00|               .|        corr: 23 0x90f-0x913 (4)
0x910|00 00 17                                       |...             |
     |                                               |                |      [23]{}: leap_second_record 0x913-0x91f (12)
0x910|         00 00 00 00 49 5c 07 97               |   ....I\..     |        occur: "2009-01-01T00:00:23Z" (1230768023) 0x913-0x91b (8)
0x910|                                 00 00 00 18   |           .... |        corr: 24 0x91b-0x91f (4)
     |                                               |                |      [24]{}: leap_second_record 0x91f-0x92b (12)
0x910|                                             00|               .|        occur: "2012-07-01T00:00:24Z" (1341100824) 0x91f-0x927 (8)
0x920|00 00 00 4f ef 93 18                           |...O...         |
0x920|                     00 00 00 19               |       ....     |        corr: 25 0x927-0x92b (4)
     |                                               |                |      [25]{}: leap_second_record 0x92b-0x937 (12)
0x920|                                 00 00 00 00 55|           ....U|        occur: "2015-07-01T00:00:25Z" (1435708825) 0x92b-0x933 (8)
0x930|93 2d 99                                       |.-.             |
0x930|         00 00 00 1a                           |   ....         |        corr: 26 0x933-0x937 (4)
     |                                               |                |      [26]{}: leap_second_record 0x937-0x943 (12)
0x930|                     00 00 00 00 58 68 46 9a   |       ....XhF. |        occur: "2017-01-01T00:00:26Z" (1483228826) 0x937-0x93f (8)
0x930|                                             00|               .|        corr: 27 0x93f-0x943 (4)
0x940|00 00 1b                                       |...             |
     |                                               |                |    standard_wall_indicators[0:7]: 0x943-0x94a (7)
0x940|         00                                    |   .            |      [0]: 0 standard_wall_indicator (valid) 0x943-0x944 (1)
0x940|            00                                 |    .           |      [1]: 0 standard_wall_indicator (valid) 0x944-0x945 (1)
0x940|               00                              |     .          |      [2]: 0 standard_wall_indicator (valid) 0x945-0x946 (1)
0x940|                  01                           |      .         |      [3]: 1 standard_wall_indicator (valid) 0x946-0x947 (1)
0x940|                     01                        |       .        |      [4]: 1 standard_wall_indicator (valid) 0x947-0x948 (1)
0x940|                        01                     |        .       |      [5]: 1 standard_wall_indicator (valid) 0x948-0x949 (1)
0x940|                           01                  |         .      |      [6]: 1 standard_wall_indicator (valid) 0x949-0x94a (1)
     |                                               |                |    ut_local_indicators[0:0]: 0x94a-0x94a (0)
     |                                               |                |  footer{}: 0x94a-0x94c (2)
0x940|                              0a               |          .     |    nl1: 10 (valid) 0x94a-0x94b (1)
     |                                               |                |    tz_string: "" 0x94b-0x94b (0)
0x940|                                 0a|           |           .|   |    nl2: 10 (valid) 0x94b-0x94c (1)
